ccopy_reg
_reconstructor
p1
(csklearn.feature_extraction.dict_vectorizer
DictVectorizer
p2
c__builtin__
object
p3
NtRp4
(dp5
S'sort'
p6
I01
sS'feature_names_'
p7
(lp8
S'advcl=believe'
p9
aS'advcl=perish'
p10
aS'advmod=almost'
p11
aS'advmod=already'
p12
aS'advmod=also'
p13
aS'advmod=explicitly'
p14
aS'advmod=further'
p15
aS'advmod=often'
p16
aS'advmod=too'
p17
aS'advmod=very'
p18
aS'advmod=when'
p19
aS'aux=be'
p20
aS'aux=can'
p21
aS'aux=do'
p22
aS'aux=have'
p23
aS'aux=may'
p24
aS'aux=might'
p25
aS'aux=to'
p26
aS'aux=will'
p27
aS'aux=would'
p28
aS'auxpass=be'
p29
aS'cc=and'
p30
aS'cc=but'
p31
aS'ccomp=work'
p32
aS'complm=that'
p33
aS'conj=believe'
p34
aS'conj=dissuade'
p35
aS'conj=help'
p36
aS'conj=hurt'
p37
aS'conj=leave'
p38
aS'conj=prepare'
p39
aS'conj=push'
p40
aS'conj=respect'
p41
aS'conj=say'
p42
aS'csubjpass=be'
p43
aS'dep=disunity'
p44
aS'dep=instead'
p45
aS'dep=wait'
p46
aS'dobj=#PRP#'
p47
aS'dobj=Carter'
p48
aS'dobj=Edinburgh'
p49
aS'dobj=Erdogan'
p50
aS'dobj=Moscow'
p51
aS'dobj=activity'
p52
aS'dobj=african'
p53
aS'dobj=behavior'
p54
aS'dobj=citizen'
p55
aS'dobj=company'
p56
aS'dobj=determination'
p57
aS'dobj=dissent'
p58
aS'dobj=example'
p59
aS'dobj=extremism'
p60
aS'dobj=filmmaker'
p61
aS'dobj=hostage-taking'
p62
aS'dobj=immigration'
p63
aS'dobj=intervention'
p64
aS'dobj=investment'
p65
aS'dobj=investor'
p66
aS'dobj=kind'
p67
aS'dobj=matter'
p68
aS'dobj=migration'
p69
aS'dobj=militant'
p70
aS'dobj=news'
p71
aS'dobj=offensive'
p72
aS'dobj=other'
p73
aS'dobj=parliament'
p74
aS'dobj=people'
p75
aS'dobj=piracy'
p76
aS'dobj=practice'
p77
aS'dobj=program'
p78
aS'dobj=promiscuity'
p79
aS'dobj=protest'
p80
aS'dobj=public'
p81
aS'dobj=skill'
p82
aS'dobj=spending'
p83
aS'dobj=student'
p84
aS'dobj=troops'
p85
aS'dobj=violence'
p86
aS'expl=there'
p87
aS'mark=although'
p88
aS'mark=because'
p89
aS'mark=if'
p90
aS'neg=not'
p91
aS'nsubj=#PRP#'
p92
aS'nsubj=administration'
p93
aS'nsubj=approval'
p94
aS'nsubj=blacklisting'
p95
aS'nsubj=concern'
p96
aS'nsubj=consideration'
p97
aS'nsubj=decision'
p98
aS'nsubj=history'
p99
aS'nsubj=news'
p100
aS'nsubj=procedure'
p101
aS'nsubj=report'
p102
aS'nsubj=situation'
p103
aS'nsubj=system'
p104
aS'nsubj=that'
p105
aS'nsubj=this'
p106
aS'nsubj=which'
p107
aS'nsubjpass=#PRP#'
p108
aS'nsubjpass=Chinese'
p109
aS'nsubjpass=Ivorians'
p110
aS'nsubjpass=candidate'
p111
aS'nsubjpass=company'
p112
aS'nsubjpass=delivery'
p113
aS'nsubjpass=everyone'
p114
aS'nsubjpass=militancy'
p115
aS'nsubjpass=military'
p116
aS'nsubjpass=motorist'
p117
aS'nsubjpass=teacher'
p118
aS'nsubjpass=visit'
p119
aS'prep=after'
p120
aS'prep=by'
p121
aS'prep=despite'
p122
aS'prep=for'
p123
aS'prep=from'
p124
aS'prep=in'
p125
aS'prep=on'
p126
aS'prep=to'
p127
aS'prep=under'
p128
aS'w+1=,'
p129
aS'w+1=.'
p130
aS'w+1=Aloyd'
p131
aS'w+1=Moscow'
p132
aS'w+1=Prime'
p133
aS'w+1=a'
p134
aS'w+1=and'
p135
aS'w+1=by'
p136
aS'w+1=criminal'
p137
aS'w+1=education'
p138
aS'w+1=example'
p139
aS'w+1=extremism'
p140
aS'w+1=for'
p141
aS'w+1=foreign'
p142
aS'w+1=former'
p143
aS'w+1=from'
p144
aS'w+1=hostage-taking'
p145
aS'w+1=illegal'
p146
aS'w+1=improper'
p147
aS'w+1=in'
p148
aS'w+1=intervention'
p149
aS'w+1=investment'
p150
aS'w+1=investor'
p151
aS'w+1=it'
p152
aS'w+1=message'
p153
aS'w+1=migration'
p154
aS'w+1=militant'
p155
aS'w+1=much'
p156
aS'w+1=news'
p157
aS'w+1=no'
p158
aS'w+1=non-african'
p159
aS'w+1=oil'
p160
aS'w+1=other'
p161
aS'w+1=people'
p162
aS'w+1=piracy'
p163
aS'w+1=political'
p164
aS'w+1=private'
p165
aS'w+1=promiscuity'
p166
aS'w+1=spending'
p167
aS'w+1=stereotype'
p168
aS'w+1=the'
p169
aS'w+1=these'
p170
aS'w+1=they'
p171
aS'w+1=this'
p172
aS'w+1=to'
p173
aS'w+1=violence'
p174
aS'w+1=violent'
p175
aS'w+1=we'
p176
aS'w+1=would'
p177
aS'w+1=you'
p178
aS'w+1=young'
p179
aS"w+2=''"
p180
aS'w+2=,'
p181
aS'w+2=--'
p182
aS'w+2=.'
p183
aS'w+2=Edinburgh'
p184
aS'w+2=Minister'
p185
aS'w+2=President'
p186
aS'w+2=U.S.'
p187
aS'w+2=activity'
p188
aS'w+2=african'
p189
aS'w+2=american'
p190
aS'w+2=and'
p191
aS'w+2=be'
p192
aS'w+2=behavior'
p193
aS'w+2=bring'
p194
aS'w+2=by'
p195
aS'w+2=citizen'
p196
aS'w+2=company'
p197
aS'w+2=determination'
p198
aS'w+2=dissent'
p199
aS'w+2=filmmaker'
p200
aS'w+2=for'
p201
aS'w+2=from'
p202
aS'w+2=government'
p203
aS'w+2=grow'
p204
aS'w+2=help'
p205
aS'w+2=hold'
p206
aS'w+2=hostile'
p207
aS'w+2=immigration'
p208
aS'w+2=in'
p209
aS'w+2=investor'
p210
aS'w+2=involve'
p211
aS'w+2=kind'
p212
aS'w+2=matter'
p213
aS'w+2=military'
p214
aS'w+2=my'
p215
aS'w+2=nation'
p216
aS'w+2=need'
p217
aS'w+2=of'
p218
aS'w+2=offer'
p219
aS'w+2=only'
p220
aS'w+2=people'
p221
aS'w+2=practice'
p222
aS'w+2=protest'
p223
aS'w+2=report'
p224
aS'w+2=say'
p225
aS'w+2=see'
p226
aS'w+2=skill'
p227
aS'w+2=student'
p228
aS'w+2=teach'
p229
aS'w+2=the'
p230
aS'w+2=this'
p231
aS'w+2=those'
p232
aS'w+2=to'
p233
aS'w+2=train'
p234
aS'w+2=troops'
p235
aS'w+2=uncertainty'
p236
aS'w+2=violence'
p237
aS'w+2=we'
p238
aS'w-1=a'
p239
aS'w-1=almost'
p240
aS'w-1=also'
p241
aS'w-1=and'
p242
aS'w-1=announcement'
p243
aS'w-1=at'
p244
aS'w-1=be'
p245
aS'w-1=explicitly'
p246
aS'w-1=further'
p247
aS'w-1=have'
p248
aS'w-1=help'
p249
aS'w-1=in'
p250
aS'w-1=may'
p251
aS'w-1=might'
p252
aS'w-1=not'
p253
aS'w-1=of'
p254
aS'w-1=often'
p255
aS'w-1=procedure'
p256
aS'w-1=that'
p257
aS'w-1=to'
p258
aS'w-1=too'
p259
aS'w-1=very'
p260
aS'w-1=which'
p261
aS'w-1=will'
p262
aS'w-2=,'
p263
aS'w-2=.'
p264
aS'w-2=I'
p265
aS'w-2=Kenya'
p266
aS'w-2=action'
p267
aS'w-2=agency'
p268
aS'w-2=aim'
p269
aS'w-2=also'
p270
aS'w-2=and'
p271
aS'w-2=announcement'
p272
aS'w-2=attack'
p273
aS'w-2=be'
p274
aS'w-2=bid'
p275
aS'w-2=blacklisting'
p276
aS'w-2=border'
p277
aS'w-2=broadcast'
p278
aS'w-2=camera'
p279
aS'w-2=can'
p280
aS'w-2=consideration'
p281
aS'w-2=control'
p282
aS'w-2=crucial'
p283
aS'w-2=declaration'
p284
aS'w-2=design'
p285
aS'w-2=do'
p286
aS'w-2=effort'
p287
aS'w-2=enough'
p288
aS'w-2=everyone'
p289
aS'w-2=factor'
p290
aS'w-2=fear'
p291
aS'w-2=feel'
p292
aS'w-2=frustrated'
p293
aS'w-2=full'
p294
aS'w-2=government'
p295
aS'w-2=growth'
p296
aS'w-2=have'
p297
aS'w-2=he'
p298
aS'w-2=hope'
p299
aS'w-2=industry'
p300
aS'w-2=it'
p301
aS'w-2=love'
p302
aS'w-2=may'
p303
aS'w-2=motorist'
p304
aS'w-2=news'
p305
aS'w-2=not'
p306
aS'w-2=poll'
p307
aS'w-2=power'
p308
aS'w-2=report'
p309
aS'w-2=reprisal'
p310
aS'w-2=rule'
p311
aS'w-2=send'
p312
aS'w-2=situation'
p313
aS'w-2=system'
p314
aS'w-2=teacher'
p315
aS'w-2=television'
p316
aS'w-2=tend'
p317
aS'w-2=the'
p318
aS'w-2=there'
p319
aS'w-2=this'
p320
aS'w-2=to'
p321
aS'w-2=try'
p322
aS'w-2=way'
p323
aS'w-2=which'
p324
aS'w-2=will'
p325
aS'w-2=would'
p326
aS'w-2=you'
p327
aS'xcomp=stereotype'
p328
aS'xcomp=take'
p329
aS'xcomp=teach'
p330
aS'xcomp=train'
p331
asS'dtype'
p332
cnumpy
float64
p333
sS'vocabulary_'
p334
(dp335
g189
I180
sg107
I98
sg134
I125
sg312
I303
sg115
I106
sg158
I149
sg311
I302
sg302
I293
sg94
I85
sg331
I322
sg267
I258
sg294
I285
sg71
I62
sg283
I274
sg253
I244
sg63
I54
sg16
I7
sg139
I130
sg55
I46
sg51
I42
sg208
I199
sg291
I282
sg215
I206
sg266
I257
sg59
I50
sg193
I184
sg70
I61
sg292
I283
sg329
I320
sg75
I66
sg197
I188
sg280
I271
sg277
I268
sg304
I295
sg259
I250
sg133
I124
sg226
I217
sg285
I276
sg93
I84
sg313
I304
sg224
I215
sg315
I306
sg269
I260
sg137
I128
sg81
I72
sg231
I222
sg52
I43
sg293
I284
sg314
I305
sg201
I192
sg318
I309
sg258
I249
sg104
I95
sg121
I112
sg191
I182
sg271
I262
sg74
I65
sg166
I157
sg85
I76
sg50
I41
sg47
I38
sg165
I156
sg91
I82
sg96
I87
sg167
I158
sg97
I88
sg220
I211
sg157
I148
sg138
I129
sg64
I55
sg324
I315
sg48
I39
sg178
I169
sg62
I53
sg235
I226
sg288
I279
sg22
I13
sg114
I105
sg298
I289
sg112
I103
sg330
I321
sg196
I187
sg80
I71
sg14
I5
sg270
I261
sg27
I18
sg223
I214
sg54
I45
sg12
I3
sg273
I264
sg42
I33
sg58
I49
sg326
I317
sg39
I30
sg230
I221
sg207
I198
sg98
I89
sg262
I253
sg263
I254
sg264
I255
sg174
I165
sg234
I225
sg179
I170
sg322
I313
sg73
I64
sg24
I15
sg109
I100
sg23
I14
sg211
I202
sg53
I44
sg245
I236
sg221
I212
sg57
I48
sg67
I58
sg306
I297
sg117
I108
sg146
I137
sg41
I32
sg265
I256
sg188
I179
sg308
I299
sg82
I73
sg153
I144
sg151
I142
sg143
I134
sg79
I70
sg210
I201
sg172
I163
sg86
I77
sg241
I232
sg9
I0
sg36
I27
sg170
I161
sg261
I252
sg184
I175
sg89
I80
sg150
I141
sg142
I133
sg175
I166
sg316
I307
sg95
I86
sg156
I147
sg227
I218
sg203
I194
sg101
I92
sg233
I224
sg159
I150
sg254
I245
sg301
I292
sg305
I296
sg113
I104
sg160
I151
sg239
I230
sg317
I308
sg83
I74
sg194
I185
sg19
I10
sg248
I239
sg163
I154
sg37
I28
sg60
I51
sg310
I301
sg65
I56
sg209
I200
sg328
I319
sg229
I220
sg299
I290
sg122
I113
sg13
I4
sg177
I168
sg40
I31
sg289
I280
sg144
I135
sg278
I269
sg88
I79
sg268
I259
sg118
I109
sg29
I20
sg21
I12
sg33
I24
sg69
I60
sg162
I153
sg68
I59
sg303
I294
sg149
I140
sg185
I176
sg236
I227
sg25
I16
sg284
I275
sg120
I111
sg199
I190
sg56
I47
sg319
I310
sg217
I208
sg148
I139
sg321
I312
sg297
I288
sg186
I177
sg72
I63
sg30
I21
sg119
I110
sg287
I278
sg240
I231
sg35
I26
sg102
I93
sg15
I6
sg78
I69
sg169
I160
sg34
I25
sg136
I127
sg46
I37
sg225
I216
sg44
I35
sg192
I183
sg31
I22
sg171
I162
sg181
I172
sg127
I118
sg228
I219
sg260
I251
sg49
I40
sg108
I99
sg180
I171
sg17
I8
sg320
I311
sg125
I116
sg145
I136
sg28
I19
sg279
I270
sg300
I291
sg141
I132
sg187
I178
sg76
I67
sg152
I143
sg103
I94
sg92
I83
sg176
I167
sg124
I115
sg147
I138
sg237
I228
sg110
I101
sg307
I298
sg216
I207
sg232
I223
sg276
I267
sg38
I29
sg10
I1
sg246
I237
sg26
I17
sg327
I318
sg140
I131
sg132
I123
sg296
I287
sg222
I213
sg45
I36
sg272
I263
sg256
I247
sg154
I145
sg323
I314
sg249
I240
sg135
I126
sg325
I316
sg100
I91
sg128
I119
sg257
I248
sg77
I68
sg309
I300
sg106
I97
sg130
I121
sg218
I209
sg195
I186
sg164
I155
sg123
I114
sg183
I174
sg116
I107
sg111
I102
sg255
I246
sg173
I164
sg87
I78
sg161
I152
sg290
I281
sg182
I173
sg212
I203
sg219
I210
sg105
I96
sg66
I57
sg242
I233
sg295
I286
sg129
I120
sg200
I191
sg18
I9
sg11
I2
sg252
I243
sg84
I75
sg168
I159
sg250
I241
sg43
I34
sg275
I266
sg204
I195
sg282
I273
sg155
I146
sg274
I265
sg243
I234
sg32
I23
sg198
I189
sg281
I272
sg205
I196
sg251
I242
sg244
I235
sg131
I122
sg126
I117
sg214
I205
sg20
I11
sg190
I181
sg202
I193
sg213
I204
sg90
I81
sg247
I238
sg61
I52
sg206
I197
sg99
I90
sg286
I277
sg238
I229
ssS'separator'
p336
S'='
sS'sparse'
p337
I01
sb.