ccopy_reg
_reconstructor
p1
(csklearn.feature_extraction.dict_vectorizer
DictVectorizer
p2
c__builtin__
object
p3
NtRp4
(dp5
S'vocabulary_'
p6
(dp7
S'nsubj=method'
p8
I25
sS'w+1=playing'
p9
I38
sS'w-2=you'
p10
I76
sS'nsubj=Bush'
p11
I21
sS'w-2=Army'
p12
I64
sS'dobj=debate'
p13
I11
sS'prep=to'
p14
I29
sS'aux=to'
p15
I4
sS'w+1=,'
p16
I32
sS'w-2=should'
p17
I74
sS'dobj=school'
p18
I15
sS'nsubj=Thompson'
p19
I23
sS'xcomp=sign'
p20
I77
sS'w-1=you'
p21
I62
sS'w+2=or'
p22
I49
sS'w-1=method'
p23
I59
sS'w+2=third'
p24
I52
sS'w+1=school'
p25
I39
sS'prep=with'
p26
I30
sS'aux=can'
p27
I2
sS'complm=that'
p28
I6
sS'w+2=technology'
p29
I51
sS'w-1=Thompson'
p30
I55
sS'dobj=number'
p31
I13
sS'aux=have'
p32
I3
sS'prt=out'
p33
I31
sS'w+1=out'
p34
I37
sS'w+2=number'
p35
I47
sS'advmod=probably'
p36
I1
sS'w+2=country'
p37
I45
sS'w+2=,'
p38
I41
sS'w+2=on'
p39
I48
sS'w+2=.'
p40
I42
sS'w-2=he'
p41
I70
sS'w+2=Paris'
p42
I43
sS'w+2=republican'
p43
I50
sS'w+2=in'
p44
I46
sS'w-1=Clinton'
p45
I53
sS'w-1=can'
p46
I56
sS'cc=and'
p47
I5
sS'w-1=to'
p48
I61
sS'w-1=or'
p49
I60
sS'w-2=jump'
p50
I72
sS'dobj=technology'
p51
I16
sS'w-1=leader'
p52
I58
sS'w-1=McCain'
p53
I54
sS'w+1=the'
p54
I40
sS'nsubj=leader'
p55
I24
sS'w-2=.'
p56
I63
sS'w-2=John'
p57
I66
sS'partmod=draw'
p58
I26
sS'conj=nominee'
p59
I7
sS'dobj=tournament'
p60
I17
sS'dobj=Iowa'
p61
I9
sS'w+1=Iowa'
p62
I33
sS'dobj=playing'
p63
I14
sS'w+2=as'
p64
I44
sS'advcl=take'
p65
I0
sS'dobj=country'
p66
I10
sS'w+1=a'
p67
I34
sS'w-2=nation'
p68
I73
sS'w-2=if'
p69
I71
sS'mark=since'
p70
I19
sS'w-2=Bill'
p71
I65
sS'w-2=child'
p72
I67
sS'dobj=#PRP#'
p73
I8
sS'w-2=decide'
p74
I68
sS'prep=on'
p75
I28
sS'w+1=fixed-line'
p76
I35
sS'prep=in'
p77
I27
sS'nsubj=McCain'
p78
I22
sS'w-2=have'
p79
I69
sS'w+1=it'
p80
I36
sS'mark=if'
p81
I18
sS'nsubj=#PRP#'
p82
I20
sS'dobj=gathering'
p83
I12
sS'w-2=the'
p84
I75
sS'w-1=have'
p85
I57
ssS'dtype'
p86
cnumpy
float64
p87
sS'feature_names_'
p88
(lp89
g65
ag36
ag27
ag32
ag15
ag47
ag28
ag59
ag73
ag61
ag66
ag13
ag83
ag31
ag63
ag18
ag51
ag60
ag81
ag70
ag82
ag11
ag78
ag19
ag55
ag8
ag58
ag77
ag75
ag14
ag26
ag33
ag16
ag62
ag67
ag76
ag80
ag34
ag9
ag25
ag54
ag38
ag40
ag42
ag64
ag37
ag44
ag35
ag39
ag22
ag43
ag29
ag24
ag45
ag53
ag30
ag46
ag85
ag52
ag23
ag49
ag48
ag21
ag56
ag12
ag71
ag57
ag72
ag74
ag79
ag41
ag69
ag50
ag68
ag17
ag84
ag10
ag20
asS'separator'
p90
S'='
sS'sparse'
p91
I01
sb.