ccopy_reg
_reconstructor
p1
(csklearn.feature_extraction.dict_vectorizer
DictVectorizer
p2
c__builtin__
object
p3
NtRp4
(dp5
S'vocabulary_'
p6
(dp7
S'dobj=killing'
p8
I63
sS'nsubj=which'
p9
I100
sS'w+2=armed'
p10
I178
sS'nsubj=France'
p11
I85
sS'w+2=not'
p12
I204
sS'w-1=be'
p13
I222
sS'dobj=terrorism'
p14
I78
sS'w+2=insult'
p15
I196
sS'w-1=of'
p16
I232
sS'w+2=,'
p17
I169
sS'ccomp=call'
p18
I27
sS'w-1=knowingly'
p19
I226
sS'nsubjpass=measure'
p20
I113
sS'w-2=we'
p21
I267
sS'w-2=no'
p22
I261
sS'dobj=armed'
p23
I49
sS'dep=say'
p24
I42
sS'w-1=to'
p25
I238
sS'w+2=inaction'
p26
I195
sS'w+2=protest'
p27
I208
sS'nsubjpass=proliferation'
p28
I114
sS'prep=by'
p29
I120
sS'dobj=people'
p30
I70
sS'dobj=action'
p31
I47
sS'advcl=comply'
p32
I0
sS'w+2=in'
p33
I194
sS'nsubj=Kabbah'
p34
I89
sS'dobj=enemy'
p35
I56
sS'w+1=malicious'
p36
I147
sS'w+1=until'
p37
I163
sS'nsubj=who'
p38
I101
sS'w+2=attack'
p39
I181
sS'w+1=muslim'
p40
I148
sS'dobj=woman'
p41
I81
sS'dobj=situation'
p42
I75
sS'w-2=not'
p43
I262
sS'w-2=faction'
p44
I252
sS'w+1=no'
p45
I149
sS'advmod=knowingly'
p46
I5
sS'w+2=neither'
p47
I203
sS'w+2=rival'
p48
I210
sS'w+1=that'
p49
I158
sS'nsubj=regime'
p50
I96
sS'nsubjpass=use'
p51
I117
sS'prep=within'
p52
I126
sS'w+2=nation'
p53
I202
sS'w+1=abuse'
p54
I131
sS'prep=until'
p55
I125
sS'dobj=group'
p56
I58
sS'w+1=these'
p57
I160
sS'w+1=if'
p58
I144
sS'nsubj=government'
p59
I94
sS'dobj=opposition'
p60
I69
sS'nsubj=authority'
p61
I92
sS'w+1=violent'
p62
I165
sS'conj=accuse'
p63
I32
sS'dobj=drug'
p64
I55
sS'ccomp=know'
p65
I28
sS'conj=criticize'
p66
I34
sS'w+2=child'
p67
I185
sS'w+2=dissent'
p68
I189
sS'aux=do'
p69
I16
sS'dobj=speech'
p70
I76
sS'w+1=coercive'
p71
I137
sS'nsubjpass=act'
p72
I103
sS'dobj=level'
p73
I65
sS'dobj=protest'
p74
I71
sS'w+2=cold-blooded'
p75
I186
sS'aux=will'
p76
I20
sS'w+2=level'
p77
I200
sS'w+1=either'
p78
I139
sS'advmod=now'
p79
I9
sS'dobj=dissent'
p80
I53
sS'w+1=systematic'
p81
I156
sS'advmod=just'
p82
I4
sS'w-1=and'
p83
I221
sS'w+2=the'
p84
I216
sS'cc=nor'
p85
I25
sS'w-2=will'
p86
I269
sS'nsubj=Russia'
p87
I90
sS'nsubj=States'
p88
I91
sS'w-1=will'
p89
I241
sS'w+2=distraction'
p90
I190
sS'dobj=move'
p91
I66
sS'w+2=drug'
p92
I191
sS'cc=or'
p93
I26
sS'w-1=usually'
p94
I239
sS'nsubjpass=immigration'
p95
I111
sS'w+2=swear'
p96
I215
sS'w+2=all'
p97
I176
sS'w+1=what'
p98
I166
sS'aux=have'
p99
I17
sS'conj=stop'
p100
I36
sS'w-2=but'
p101
I246
sS'nsubjpass=that'
p102
I116
sS'w-2=country'
p103
I248
sS'w-2=authoritarian'
p104
I244
sS'conj=let'
p105
I35
sS'w-1=still'
p106
I236
sS'dobj=kind'
p107
I64
sS'w-2=at'
p108
I243
sS'w-1=could'
p109
I224
sS'w+1=torture'
p110
I162
sS'w+1=hunting'
p111
I143
sS'w-1=longer'
p112
I229
sS'w-1=likely'
p113
I228
sS'dobj=burn'
p114
I51
sS'dobj=inaction'
p115
I60
sS'advmod=absolutely'
p116
I2
sS'advmod=whatsoever'
p117
I12
sS'nsubjpass=attack'
p118
I105
sS'w+2=action'
p119
I175
sS'advmod=longer'
p120
I8
sS'w-1=which'
p121
I240
sS'w+2=Brotherhood'
p122
I171
sS'w+1=terrorism'
p123
I157
sS'w-2=who'
p124
I268
sS'w+1=foreign'
p125
I141
sS'aux=should'
p126
I18
sS'w-1=state'
p127
I235
sS'w-1=,'
p128
I220
sS'advcl=pay'
p129
I1
sS'conj=want'
p130
I39
sS'dobj=expression'
p131
I57
sS'dep=#PRP#'
p132
I40
sS'prep=for'
p133
I121
sS'w-2=word'
p134
I270
sS'w+1=or'
p135
I150
sS'dep=that'
p136
I43
sS'w+1=any'
p137
I132
sS'nsubj=K-FOR'
p138
I88
sS'w-1=have'
p139
I225
sS'nsubj=Ayro'
p140
I84
sS'w+2=continued'
p141
I187
sS'w+1=at'
p142
I134
sS'w-2=he'
p143
I257
sS'w-2=,'
p144
I242
sS'w+2=anyone'
p145
I177
sS'w+2=at'
p146
I180
sS"w+2=''"
p147
I168
sS'nsubj=country'
p148
I93
sS'w+2=as'
p149
I179
sS'w+1=anyone'
p150
I133
sS'parataxis=say'
p151
I119
sS'w+1=burn'
p152
I135
sS'w-2=illegal'
p153
I258
sS'nsubjpass=faction'
p154
I109
sS'w+2=who'
p155
I218
sS'dobj=anyone'
p156
I48
sS'w+2=.'
p157
I170
sS'w-2=be'
p158
I245
sS'w-2=longer'
p159
I260
sS'w+2=expression'
p160
I192
sS'dobj=religion'
p161
I73
sS'auxpass=be'
p162
I22
sS'aux=can'
p163
I14
sS'complm=that'
p164
I29
sS'w-2=go'
p165
I255
sS'w+1=cross-border'
p166
I138
sS'complm=whether'
p167
I30
sS'dobj=interference'
p168
I62
sS'advmod=at'
p169
I3
sS'advmod=long'
p170
I7
sS'w-2=ruler'
p171
I265
sS'w+2=situation'
p172
I212
sS'prep=to'
p173
I123
sS'w+2=people'
p174
I206
sS'cc=and'
p175
I23
sS'w+2=abuse'
p176
I174
sS'w-2=learn'
p177
I259
sS'advmod=still'
p178
I10
sS'prep=under'
p179
I124
sS'w+2=by'
p180
I183
sS'w+1=the'
p181
I159
sS'w+2=long'
p182
I201
sS'w+1=religious'
p183
I152
sS'w+1=by'
p184
I136
sS'dobj=Brotherhood'
p185
I44
sS'w+2=say'
p186
I211
sS'w+2=a'
p187
I173
sS'nsubjpass=fraud'
p188
I110
sS'w+2=be'
p189
I182
sS'cc=but'
p190
I24
sS'nsubj=Israel'
p191
I87
sS'w-2=fragile'
p192
I254
sS'w-1=but'
p193
I223
sS'nsubj=state'
p194
I98
sS'w+2=pkk'
p195
I207
sS'dobj=distraction'
p196
I54
sS'w-2=would'
p197
I271
sS'dobj=crop'
p198
I52
sS'prep=in'
p199
I122
sS'w+2=some'
p200
I213
sS'dobj=ability'
p201
I45
sS'aux=would'
p202
I21
sS'dobj=insult'
p203
I61
sS'w+1=in'
p204
I145
sS'dobj=hunting'
p205
I59
sS'nsubjpass=activity'
p206
I104
sS'w-1=regime'
p207
I234
sS'dobj=that'
p208
I79
sS'w+2=Christian'
p209
I172
sS'nsubj=#PRP#'
p210
I83
sS'dobj=rival'
p211
I74
sS'dobj=type'
p212
I80
sS"w-1=''"
p213
I219
sS'conj=suppress'
p214
I38
sS'w+1=urban'
p215
I164
sS'w+1=little'
p216
I146
sS'dobj=recruitment'
p217
I72
sS"w+1=''"
p218
I127
sS'w-2=promise'
p219
I264
sS'dobj=abuse'
p220
I46
sS'aux=to'
p221
I19
sS'w-1=or'
p222
I233
sS'w+2=public'
p223
I209
sS'w+1=such'
p224
I155
sS'w+2=interrogation'
p225
I198
sS'w+1=further'
p226
I142
sS'conj=#PRP#'
p227
I31
sS'w+2=opposition'
p228
I205
sS'w-2=can'
p229
I247
sS'nsubj=mainstream'
p230
I95
sS'w+2=type'
p231
I217
sS'nsubjpass=protest'
p232
I115
sS'aux=could'
p233
I15
sS'w-1=least'
p234
I227
sS'w-2=european'
p235
I251
sS'nsubjpass=abuse'
p236
I102
sS'w+2=interference'
p237
I197
sS'w+1=,'
p238
I128
sS'w+1=.'
p239
I129
sS'w+2=free'
p240
I193
sS'conj=support'
p241
I37
sS'nsubj=Iraq'
p242
I86
sS'w+2=central'
p243
I184
sS'w+1=to'
p244
I161
sS'neg=not'
p245
I82
sS'w+2=kind'
p246
I199
sS'dobj=operation'
p247
I68
sS'nsubj=that'
p248
I99
sS'w+1=woman'
p249
I167
sS'nsubj=society'
p250
I97
sS'w-2=government'
p251
I256
sS'w-2=form'
p252
I253
sS'dobj=attack'
p253
I50
sS'w+1=so'
p254
I154
sS'w+2=crop'
p255
I188
sS'advmod=usually'
p256
I11
sS'nsubjpass=effort'
p257
I108
sS'nsubjpass=interference'
p258
I112
sS'w+1=sectarian'
p259
I153
sS'dobj=nation'
p260
I67
sS'w+2=support'
p261
I214
sS'w+1=a'
p262
I130
sS'w-1=now'
p263
I231
sS'w-1=not'
p264
I230
sS'nsubjpass=basis'
p265
I106
sS'w-2=engage'
p266
I250
sS'nsubjpass=defiance'
p267
I107
sS'w+1=exist'
p268
I140
sS'w-2=of'
p269
I263
sS'w-2=unlikely'
p270
I266
sS'advmod=likely'
p271
I6
sS'dobj=technique'
p272
I77
sS'w-1=that'
p273
I237
sS'aux=be'
p274
I13
sS'w+1=political'
p275
I151
sS'nsubjpass=which'
p276
I118
sS'dep=neither'
p277
I41
sS'conj=by'
p278
I33
sS'w-2=do'
p279
I249
ssS'dtype'
p280
cnumpy
float64
p281
sS'feature_names_'
p282
(lp283
g32
ag129
ag116
ag169
ag82
ag46
ag271
ag170
ag120
ag79
ag178
ag256
ag117
ag274
ag163
ag233
ag69
ag99
ag126
ag221
ag76
ag202
ag162
ag175
ag190
ag85
ag93
ag18
ag65
ag164
ag167
ag227
ag63
ag278
ag66
ag105
ag100
ag241
ag214
ag130
ag132
ag277
ag24
ag136
ag185
ag201
ag220
ag31
ag156
ag23
ag253
ag114
ag198
ag80
ag196
ag64
ag35
ag131
ag56
ag205
ag115
ag203
ag168
ag8
ag107
ag73
ag91
ag260
ag247
ag60
ag30
ag74
ag217
ag161
ag211
ag42
ag70
ag272
ag14
ag208
ag212
ag41
ag245
ag210
ag140
ag11
ag242
ag191
ag138
ag34
ag87
ag88
ag61
ag148
ag59
ag230
ag50
ag250
ag194
ag248
ag9
ag38
ag236
ag72
ag206
ag118
ag265
ag267
ag257
ag154
ag188
ag95
ag258
ag20
ag28
ag232
ag102
ag51
ag276
ag151
ag29
ag133
ag199
ag173
ag179
ag55
ag52
ag218
ag238
ag239
ag262
ag54
ag137
ag150
ag142
ag152
ag184
ag71
ag166
ag78
ag268
ag125
ag226
ag111
ag58
ag204
ag216
ag36
ag40
ag45
ag135
ag275
ag183
ag259
ag254
ag224
ag81
ag123
ag49
ag181
ag57
ag244
ag110
ag37
ag215
ag62
ag98
ag249
ag147
ag17
ag157
ag122
ag209
ag187
ag176
ag119
ag97
ag145
ag10
ag149
ag146
ag39
ag189
ag180
ag243
ag67
ag75
ag141
ag255
ag68
ag90
ag92
ag160
ag240
ag33
ag26
ag15
ag237
ag225
ag246
ag77
ag182
ag53
ag47
ag12
ag228
ag174
ag195
ag27
ag223
ag48
ag186
ag172
ag200
ag261
ag96
ag84
ag231
ag155
ag213
ag128
ag83
ag13
ag193
ag109
ag139
ag19
ag234
ag113
ag112
ag264
ag263
ag16
ag222
ag207
ag127
ag106
ag273
ag25
ag94
ag121
ag89
ag144
ag108
ag104
ag158
ag101
ag229
ag103
ag279
ag266
ag235
ag44
ag252
ag192
ag165
ag251
ag143
ag153
ag177
ag159
ag22
ag43
ag269
ag219
ag171
ag270
ag21
ag124
ag86
ag134
ag197
asS'separator'
p284
S'='
sS'sparse'
p285
I01
sb.