ccopy_reg
_reconstructor
p1
(csklearn.feature_extraction.dict_vectorizer
DictVectorizer
p2
c__builtin__
object
p3
NtRp4
(dp5
S'vocabulary_'
p6
(dp7
S'w-1=doubt'
p8
I149
sS'dobj=law'
p9
I22
sS'w+1=anti-terrorist'
p10
I67
sS'w-2=would'
p11
I216
sS'w-2=Obama'
p12
I168
sS'ccomp=call'
p13
I9
sS'w+2=earlier'
p14
I111
sS'w-2=administration'
p15
I169
sS'w+2=election'
p16
I112
sS'w-2=convinced'
p17
I176
sS'w+1=emergency'
p18
I74
sS'w+1=all'
p19
I65
sS'w+1=death'
p20
I71
sS'dobj=system'
p21
I32
sS'advmod=doubt'
p22
I2
sS'w+1=strategy'
p23
I86
sS'w+2=that'
p24
I136
sS'w-2=to'
p25
I208
sS'dobj=report'
p26
I30
sS'w+2=request'
p27
I128
sS'w-2=organization'
p28
I197
sS'w-2=want'
p29
I212
sS'w+2=accord'
p30
I100
sS'conj=create'
p31
I11
sS'w-2=debate'
p32
I177
sS'w-2=Bush'
p33
I166
sS'w+1=1999'
p34
I57
sS'w-2=-lrb-'
p35
I164
sS'w-2=of'
p36
I195
sS'w-2=need'
p37
I191
sS'w-2=have'
p38
I183
sS'w-2=influence'
p39
I186
sS'w-2=on'
p40
I196
sS'w+1=peace'
p41
I81
sS'w+1=agreement'
p42
I64
sS'w-1=economist'
p43
I150
sS'w+2=and'
p44
I102
sS'w-2=and'
p45
I172
sS'w+1=electoral'
p46
I73
sS'dobj=story'
p47
I31
sS'w-1=legislation'
p48
I154
sS'w-2=which'
p49
I214
sS'w+1=you'
p50
I92
sS'w+2=hiv'
p51
I117
sS'w-1=Tuesday'
p52
I144
sS'w-2=negotiate'
p53
I192
sS'dobj=level'
p54
I23
sS'prep=since'
p55
I51
sS'w-2=with'
p56
I215
sS'w+2=surveillance'
p57
I134
sS'w-2=invalidate'
p58
I187
sS'w-2=warn'
p59
I213
sS'w+2=1999'
p60
I97
sS'xcomp=go'
p61
I218
sS'w+1=budget'
p62
I70
sS'w+2=law'
p63
I120
sS'prep=at'
p64
I48
sS'nsubj=decision'
p65
I38
sS'w+1=war'
p66
I90
sS'dobj=cooperation'
p67
I19
sS'w-2=.'
p68
I165
sS'prep=with'
p69
I53
sS'w-2=Monday'
p70
I167
sS'dobj=convention'
p71
I18
sS'w+1=he'
p72
I77
sS'w+1=process'
p73
I83
sS'w-2=no'
p74
I193
sS'w+1=National'
p75
I61
sS'aux=have'
p76
I5
sS'w-1=keep'
p77
I153
sS'w-2=government'
p78
I182
sS'w-1=be'
p79
I148
sS'w+2=Foreign'
p80
I98
sS'w-2=announce'
p81
I173
sS'w-1=.'
p82
I143
sS'w-2=plan'
p83
I199
sS'tmod=season'
p84
I54
sS'w-2=the'
p85
I207
sS'w-2=produce'
p86
I201
sS'w+2=view'
p87
I140
sS'w-2=in'
p88
I184
sS'w-2=launch'
p89
I189
sS'dobj=timetable'
p90
I33
sS'w-2=analyst'
p91
I171
sS'w-2=as'
p92
I174
sS'w-1=newly'
p93
I155
sS'w-2=decision'
p94
I178
sS'w-1=with'
p95
I163
sS'w+2=list'
p96
I121
sS'w+2=most'
p97
I122
sS'w+2=own'
p98
I124
sS'w+2=country'
p99
I109
sS'w+2=tax'
p100
I135
sS'dobj=price'
p101
I28
sS'w+2=appeal'
p102
I103
sS'mark=unless'
p103
I36
sS'w+2=to'
p104
I137
sS'w+2=funding'
p105
I116
sS'conj=strengthen'
p106
I13
sS'nsubj=minister'
p107
I43
sS'w-2=ratify'
p108
I205
sS'w+2=deal'
p109
I110
sS'advmod=along'
p110
I1
sS'w-1=a'
p111
I145
sS'nsubj=legislation'
p112
I41
sS'nsubjpass=which'
p113
I45
sS'w-2=petition'
p114
I198
sS'dobj=view'
p115
I34
sS"w+2=''"
p116
I93
sS'w+2=in'
p117
I118
sS'mark=as'
p118
I35
sS'w-1=he'
p119
I151
sS'w-1=this'
p120
I161
sS'w+2=as'
p121
I105
sS'dobj=pact'
p122
I24
sS'w-2=include'
p123
I185
sS'w+1=bill'
p124
I68
sS'w+1=draft'
p125
I72
sS'xcomp=favor'
p126
I217
sS'w-2=voting'
p127
I211
sS'w+2=.'
p128
I96
sS'w+2=forecast'
p129
I115
sS'auxpass=be'
p130
I7
sS'w-2=review'
p131
I206
sS"w-1='s"
p132
I142
sS'w+2=administration'
p133
I101
sS'dobj=forecast'
p134
I21
sS'w+2=story'
p135
I131
sS'w-2=observer'
p136
I194
sS'w+2=toll'
p137
I138
sS'w-2=promise'
p138
I202
sS'nsubj=forecaster'
p139
I40
sS'w+2=will'
p140
I141
sS'dobj=deal'
p141
I20
sS'cc=and'
p142
I8
sS'dobj=policy'
p143
I26
sS'w-2=quickly'
p144
I204
sS'w+1=the'
p145
I87
sS'w+2=say'
p146
I129
sS'w-2=for'
p147
I181
sS'w+1=they'
p148
I88
sS'advmod=newly'
p149
I3
sS"w+2='s"
p150
I94
sS'partmod=approve'
p151
I46
sS'w+1=Iraq'
p152
I60
sS'prep=in'
p153
I49
sS'w+2=strategy'
p154
I132
sS'w+1=its'
p155
I78
sS'tmod=year'
p156
I55
sS'w+2=Response'
p157
I99
sS'partmod=know'
p158
I47
sS'w+2=price'
p159
I126
sS'nsubj=#PRP#'
p160
I37
sS'w+1=Iran'
p161
I59
sS'w-2=under'
p162
I209
sS'w+1=forecast'
p163
I76
sS'nsubjpass=deal'
p164
I44
sS'w-2=along'
p165
I170
sS'w+1=my'
p166
I80
sS'dobj=article'
p167
I16
sS'dobj=Act'
p168
I14
sS'w-1=the'
p169
I159
sS'prep=to'
p170
I52
sS'dobj=program'
p171
I29
sS'aux=to'
p172
I6
sS'w+2=subsidy'
p173
I133
sS'w-2=measure'
p174
I190
sS'w+1=voter'
p175
I89
sS'w-2=president'
p176
I200
sS'w+2=article'
p177
I104
sS'w+1=UNAIDS'
p178
I63
sS'w+1=France'
p179
I58
sS'advmod=ago'
p180
I0
sS'w-2=veto'
p181
I210
sS'w+1=board'
p182
I69
sS'w+1=and'
p183
I66
sS'w-1=they'
p184
I160
sS'w+1=regulation'
p185
I84
sS'dobj=plan'
p186
I25
sS'w+2=income'
p187
I119
sS'w-1=approve'
p188
I147
sS'w+1=.'
p189
I56
sS'w+2=of'
p190
I123
sS'dobj=prediction'
p191
I27
sS'w+2=,'
p192
I95
sS'w+2=constitution'
p193
I107
sS'w+2=for'
p194
I114
sS'w+1=law'
p195
I79
sS'w+2=version'
p196
I139
sS'w-1=to'
p197
I162
sS'w-1=and'
p198
I146
sS'w+2=electoral'
p199
I113
sS'w-1=over'
p200
I156
sS'w+2=pact'
p201
I125
sS'conj=ratify'
p202
I12
sS'dobj=constitution'
p203
I17
sS'nsubj=lot'
p204
I42
sS'ccomp=view'
p205
I10
sS'w-2=discuss'
p206
I180
sS'w-2=authority'
p207
I175
sS'dobj=all'
p208
I15
sS'w-1=support'
p209
I157
sS'w-2=demand'
p210
I179
sS'w-2=propose'
p211
I203
sS'w+1=report'
p212
I85
sS'w+1=U.S.'
p213
I62
sS'nsubj=economist'
p214
I39
sS'w+1=exist'
p215
I75
sS'w-1=include'
p216
I152
sS'prep=on'
p217
I50
sS'w+2=before'
p218
I106
sS'w-1=that'
p219
I158
sS'aux=be'
p220
I4
sS'w+1=plan'
p221
I82
sS'w+2=ratify'
p222
I127
sS'w-2=issue'
p223
I188
sS'w+2=cooperation'
p224
I108
sS'w+1=what'
p225
I91
sS'w+2=should'
p226
I130
ssS'dtype'
p227
cnumpy
float64
p228
sS'feature_names_'
p229
(lp230
g180
ag110
ag22
ag149
ag220
ag76
ag172
ag130
ag142
ag13
ag205
ag31
ag202
ag106
ag168
ag208
ag167
ag203
ag71
ag67
ag141
ag134
ag9
ag54
ag122
ag186
ag143
ag191
ag101
ag171
ag26
ag47
ag21
ag90
ag115
ag118
ag103
ag160
ag65
ag214
ag139
ag112
ag204
ag107
ag164
ag113
ag151
ag158
ag64
ag153
ag217
ag55
ag170
ag69
ag84
ag156
ag189
ag34
ag179
ag161
ag152
ag75
ag213
ag178
ag42
ag19
ag183
ag10
ag124
ag182
ag62
ag20
ag125
ag46
ag18
ag215
ag163
ag72
ag155
ag195
ag166
ag41
ag221
ag73
ag185
ag212
ag23
ag145
ag148
ag175
ag66
ag225
ag50
ag116
ag150
ag192
ag128
ag60
ag80
ag157
ag30
ag133
ag44
ag102
ag177
ag121
ag218
ag193
ag224
ag99
ag109
ag14
ag16
ag199
ag194
ag129
ag105
ag51
ag117
ag187
ag63
ag96
ag97
ag190
ag98
ag201
ag159
ag222
ag27
ag146
ag226
ag135
ag154
ag173
ag57
ag100
ag24
ag104
ag137
ag196
ag87
ag140
ag132
ag82
ag52
ag111
ag198
ag188
ag79
ag8
ag43
ag119
ag216
ag77
ag48
ag93
ag200
ag209
ag219
ag169
ag184
ag120
ag197
ag95
ag35
ag68
ag33
ag70
ag12
ag15
ag165
ag91
ag45
ag81
ag92
ag207
ag17
ag32
ag94
ag210
ag206
ag147
ag78
ag38
ag88
ag123
ag39
ag58
ag223
ag89
ag174
ag37
ag53
ag74
ag136
ag36
ag40
ag28
ag114
ag83
ag176
ag86
ag138
ag211
ag144
ag108
ag131
ag85
ag25
ag162
ag181
ag127
ag29
ag59
ag49
ag56
ag11
ag126
ag61
asS'separator'
p231
S'='
sS'sparse'
p232
I01
sb.