ccopy_reg
_reconstructor
p1
(csklearn.feature_extraction.dict_vectorizer
DictVectorizer
p2
c__builtin__
object
p3
NtRp4
(dp5
S'sort'
p6
I01
sS'feature_names_'
p7
(lp8
S'advcl=receive'
p9
aS'advmod=abroad'
p10
aS'advmod=ago'
p11
aS'advmod=back'
p12
aS'advmod=completely'
p13
aS'advmod=directly'
p14
aS'advmod=fully'
p15
aS'advmod=here'
p16
aS'advmod=now'
p17
aS'advmod=once'
p18
aS'amod=carry'
p19
aS'amod=first'
p20
aS'amod=heavy'
p21
aS'amod=large'
p22
aS'amod=much'
p23
aS'amod=shed'
p24
aS'amod=viral'
p25
aS'amod=whole'
p26
aS'aux=be'
p27
aS'aux=can'
p28
aS'aux=have'
p29
aS'aux=to'
p30
aS'aux=would'
p31
aS'auxpass=be'
p32
aS'cc=and'
p33
aS'cc=or'
p34
aS'complm=that'
p35
aS'conj=come'
p36
aS'conj=deliver'
p37
aS'conj=do'
p38
aS'conj=offload'
p39
aS'conj=passenger'
p40
aS'conj=return'
p41
aS'conj=unload'
p42
aS'conj=want'
p43
aS'dep=#PRP#'
p44
aS'dep=cargo'
p45
aS'det=a'
p46
aS'det=that'
p47
aS'det=the'
p48
aS'dobj=cargo'
p49
aS'dobj=crate'
p50
aS'dobj=goods'
p51
aS'dobj=newspaper'
p52
aS'dobj=pole'
p53
aS'dobj=tissue'
p54
aS'dobj=ton'
p55
aS'dobj=truck'
p56
aS'dobj=water'
p57
aS'dobj=which'
p58
aS'mark=until'
p59
aS'nn=emergency'
p60
aS'nn=plane'
p61
aS'nn=ton'
p62
aS'nn=tractor-trailer'
p63
aS'nsubj=#NUMBER#'
p64
aS'nsubj=#PRP#'
p65
aS'nsubj=consumer'
p66
aS'nsubj=crew'
p67
aS'nsubj=staff'
p68
aS'nsubj=that'
p69
aS'nsubjpass=#PRP#'
p70
aS'nsubjpass=camel'
p71
aS'nsubjpass=center'
p72
aS'nsubjpass=many'
p73
aS'nsubjpass=plan'
p74
aS'nsubjpass=plantation'
p75
aS'nsubjpass=truck'
p76
aS'num=#NUMBER#'
p77
aS'num=dozen'
p78
aS'prep=at'
p79
aS'prep=by'
p80
aS'prep=for'
p81
aS'prep=in'
p82
aS'prep=into'
p83
aS'prep=of'
p84
aS'prep=on'
p85
aS'prep=onto'
p86
aS'prep=with'
p87
aS'prt=up'
p88
aS'rcmod=do'
p89
aS'rel=in'
p90
aS'tmod=today'
p91
aS'w+1=,'
p92
aS'w+1=12,000'
p93
aS'w+1=2,000'
p94
aS'w+1=and'
p95
aS'w+1=back'
p96
aS'w+1=boat'
p97
aS'w+1=completely'
p98
aS'w+1=corn'
p99
aS'w+1=crate'
p100
aS'w+1=directly'
p101
aS'w+1=for'
p102
aS'w+1=from'
p103
aS'w+1=here'
p104
aS'w+1=if'
p105
aS'w+1=into'
p106
aS'w+1=it'
p107
aS'w+1=newspaper'
p108
aS'w+1=of'
p109
aS'w+1=on'
p110
aS'w+1=pole'
p111
aS'w+1=she'
p112
aS'w+1=shed'
p113
aS'w+1=tanker'
p114
aS'w+1=that'
p115
aS'w+1=they'
p116
aS'w+1=truck'
p117
aS'w+1=up'
p118
aS'w+1=water'
p119
aS'w+1=which'
p120
aS'w+1=with'
p121
aS'w+2=,'
p122
aS'w+2=.'
p123
aS'w+2=16'
p124
aS'w+2=28'
p125
aS'w+2=a'
p126
aS'w+2=at'
p127
aS'w+2=ball'
p128
aS'w+2=basic'
p129
aS'w+2=debt'
p130
aS'w+2=diseased'
p131
aS'w+2=explosive'
p132
aS'w+2=explosiveshitt'
p133
aS'w+2=export'
p134
aS'w+2=food'
p135
aS'w+2=foreign'
p136
aS'w+2=fresh'
p137
aS'w+2=fun'
p138
aS'w+2=fund'
p139
aS'w+2=gas'
p140
aS'w+2=goods'
p141
aS'w+2=have'
p142
aS'w+2=human'
p143
aS'w+2=hundred'
p144
aS'w+2=into'
p145
aS'w+2=metric'
p146
aS'w+2=of'
p147
aS'w+2=offload'
p148
aS'w+2=on'
p149
aS'w+2=onto'
p150
aS'w+2=pallet'
p151
aS'w+2=sand'
p152
aS'w+2=she'
p153
aS'w+2=something'
p154
aS'w+2=sometimes'
p155
aS'w+2=steal'
p156
aS'w+2=steel'
p157
aS'w+2=talent'
p158
aS'w+2=they'
p159
aS'w+2=this'
p160
aS'w+2=ton'
p161
aS'w+2=trove'
p162
aS'w+2=truck'
p163
aS'w+2=unload'
p164
aS'w+2=waste'
p165
aS'w+2=we'
p166
aS'w+2=wfp'
p167
aS'w+2=white'
p168
aS'w+2=with'
p169
aS'w+2=you'
p170
aS'w-1=,'
p171
aS'w-1=Utapao'
p172
aS'w-1=a'
p173
aS'w-1=be'
p174
aS'w-1=by'
p175
aS'w-1=can'
p176
aS'w-1=car'
p177
aS'w-1=carry'
p178
aS'w-1=consumer'
p179
aS'w-1=dozen'
p180
aS'w-1=dump'
p181
aS'w-1=emergency'
p182
aS'w-1=for'
p183
aS'w-1=fully'
p184
aS'w-1=have'
p185
aS'w-1=he'
p186
aS'w-1=heavy'
p187
aS'w-1=large'
p188
aS'w-1=lighten'
p189
aS'w-1=much'
p190
aS'w-1=neighborhood'
p191
aS'w-1=now'
p192
aS'w-1=of'
p193
aS'w-1=people'
p194
aS'w-1=plane'
p195
aS'w-1=printer'
p196
aS'w-1=tanker'
p197
aS'w-1=than'
p198
aS'w-1=that'
p199
aS'w-1=the'
p200
aS'w-1=through'
p201
aS'w-1=to'
p202
aS'w-1=ton'
p203
aS'w-1=tractor-trailer'
p204
aS'w-1=truck'
p205
aS'w-1=vest'
p206
aS'w-1=viral'
p207
aS'w-1=we'
p208
aS'w-1=who'
p209
aS'w-1=would'
p210
aS'w-2=3,000'
p211
aS'w-2=Barmukh'
p212
aS'w-2=Hill'
p213
aS'w-2=Liboi'
p214
aS'w-2=a'
p215
aS'w-2=amount'
p216
aS'w-2=and'
p217
aS'w-2=be'
p218
aS'w-2=before'
p219
aS'w-2=boat'
p220
aS'w-2=burning'
p221
aS'w-2=camel'
p222
aS'w-2=can'
p223
aS'w-2=carry'
p224
aS'w-2=closer'
p225
aS'w-2=crew'
p226
aS'w-2=day'
p227
aS'w-2=dump'
p228
aS'w-2=first'
p229
aS'w-2=fuel'
p230
aS'w-2=handle'
p231
aS'w-2=have'
p232
aS'w-2=herder'
p233
aS'w-2=here'
p234
aS'w-2=how'
p235
aS'w-2=of'
p236
aS'w-2=off'
p237
aS'w-2=rather'
p238
aS'w-2=refuse'
p239
aS'w-2=roadside'
p240
aS'w-2=roll'
p241
aS'w-2=several'
p242
aS'w-2=she'
p243
aS'w-2=staff'
p244
aS'w-2=stop'
p245
aS'w-2=suicide'
p246
aS'w-2=take'
p247
aS'w-2=that'
p248
aS'w-2=the'
p249
aS'w-2=they'
p250
aS'w-2=three'
p251
aS'w-2=to'
p252
aS'w-2=truck'
p253
aS'w-2=two'
p254
aS'w-2=week'
p255
aS'w-2=whole'
p256
aS'w-2=woman'
p257
aS'w-2=would'
p258
aS'w-2=you'
p259
aS'xcomp=announce'
p260
aS'xcomp=clear'
p261
aS'xcomp=cross'
p262
aS'xcomp=export'
p263
aS'xcomp=hold'
p264
asS'dtype'
p265
cnumpy
float64
p266
sS'vocabulary_'
p267
(dp268
g187
I178
sg20
I11
sg116
I107
sg229
I220
sg14
I5
sg224
I215
sg183
I174
sg233
I224
sg86
I77
sg41
I32
sg51
I42
sg213
I204
sg93
I84
sg140
I131
sg73
I64
sg259
I250
sg156
I147
sg240
I231
sg61
I52
sg245
I236
sg141
I132
sg67
I58
sg231
I222
sg158
I149
sg114
I105
sg182
I173
sg48
I39
sg97
I88
sg123
I114
sg258
I249
sg209
I200
sg203
I194
sg108
I99
sg201
I192
sg255
I246
sg90
I81
sg49
I40
sg52
I43
sg234
I225
sg162
I153
sg149
I140
sg236
I227
sg238
I229
sg100
I91
sg193
I184
sg250
I241
sg202
I193
sg39
I30
sg252
I243
sg217
I208
sg155
I146
sg118
I109
sg101
I92
sg115
I106
sg239
I230
sg143
I134
sg36
I27
sg152
I143
sg72
I63
sg98
I89
sg13
I4
sg210
I201
sg197
I188
sg125
I116
sg176
I167
sg63
I54
sg230
I221
sg62
I53
sg263
I254
sg189
I180
sg19
I10
sg121
I112
sg107
I98
sg211
I202
sg17
I8
sg66
I57
sg15
I6
sg251
I242
sg195
I186
sg37
I28
sg145
I136
sg144
I135
sg260
I251
sg79
I70
sg89
I80
sg225
I216
sg87
I78
sg64
I55
sg34
I25
sg130
I121
sg254
I245
sg113
I104
sg29
I20
sg244
I235
sg175
I166
sg174
I165
sg26
I17
sg74
I65
sg124
I115
sg171
I162
sg137
I128
sg249
I240
sg142
I133
sg112
I103
sg219
I210
sg91
I82
sg148
I139
sg227
I218
sg18
I9
sg165
I156
sg179
I170
sg161
I152
sg136
I127
sg205
I196
sg216
I207
sg170
I161
sg109
I100
sg53
I44
sg139
I130
sg207
I198
sg196
I187
sg169
I160
sg12
I3
sg215
I206
sg120
I111
sg44
I35
sg243
I234
sg57
I48
sg138
I129
sg46
I37
sg173
I164
sg235
I226
sg185
I176
sg214
I205
sg77
I68
sg154
I145
sg127
I118
sg10
I1
sg157
I148
sg24
I15
sg186
I177
sg45
I36
sg103
I94
sg257
I248
sg32
I23
sg28
I19
sg35
I26
sg247
I238
sg178
I169
sg159
I150
sg117
I108
sg128
I119
sg40
I31
sg180
I171
sg111
I102
sg134
I125
sg232
I223
sg132
I123
sg33
I24
sg94
I85
sg188
I179
sg248
I239
sg184
I175
sg218
I209
sg150
I141
sg78
I69
sg212
I203
sg22
I13
sg104
I95
sg70
I61
sg84
I75
sg153
I144
sg105
I96
sg82
I73
sg31
I22
sg167
I158
sg102
I93
sg220
I211
sg54
I45
sg43
I34
sg59
I50
sg110
I101
sg65
I56
sg81
I72
sg181
I172
sg191
I182
sg129
I120
sg253
I244
sg241
I232
sg50
I41
sg228
I219
sg106
I97
sg208
I199
sg42
I33
sg30
I21
sg221
I212
sg194
I185
sg21
I12
sg246
I237
sg11
I2
sg75
I66
sg237
I228
sg95
I86
sg38
I29
sg261
I252
sg96
I87
sg55
I46
sg172
I163
sg92
I83
sg9
I0
sg147
I138
sg25
I16
sg131
I122
sg223
I214
sg151
I142
sg122
I113
sg264
I255
sg60
I51
sg47
I38
sg226
I217
sg69
I60
sg146
I137
sg206
I197
sg135
I126
sg88
I79
sg16
I7
sg80
I71
sg83
I74
sg160
I151
sg168
I159
sg177
I168
sg58
I49
sg163
I154
sg256
I247
sg166
I157
sg190
I181
sg164
I155
sg192
I183
sg242
I233
sg126
I117
sg68
I59
sg133
I124
sg204
I195
sg119
I110
sg198
I189
sg200
I191
sg99
I90
sg85
I76
sg199
I190
sg27
I18
sg76
I67
sg262
I253
sg222
I213
sg71
I62
sg23
I14
sg56
I47
ssS'separator'
p269
S'='
sS'sparse'
p270
I01
sb.