ccopy_reg
_reconstructor
p1
(csklearn.feature_extraction.dict_vectorizer
DictVectorizer
p2
c__builtin__
object
p3
NtRp4
(dp5
S'sort'
p6
I01
sS'feature_names_'
p7
(lp8
S'advcl=launch'
p9
aS'advcl=master'
p10
aS'advcl=need'
p11
aS'advcl=over'
p12
aS'advcl=president'
p13
aS'advcl=try'
p14
aS'advcl=unite'
p15
aS'advmod=ago'
p16
aS'advmod=also'
p17
aS'advmod=best'
p18
aS'advmod=effectively'
p19
aS'advmod=first'
p20
aS'advmod=fully'
p21
aS'advmod=how'
p22
aS'advmod=however'
p23
aS'advmod=immediately'
p24
aS'advmod=just'
p25
aS'advmod=later'
p26
aS'advmod=now'
p27
aS'advmod=really'
p28
aS'advmod=seriously'
p29
aS'advmod=then'
p30
aS'advmod=up'
p31
aS'advmod=urgently'
p32
aS'advmod=well'
p33
aS'attr=problem'
p34
aS'aux=be'
p35
aS'aux=can'
p36
aS'aux=have'
p37
aS'aux=must'
p38
aS'aux=should'
p39
aS'aux=to'
p40
aS'aux=will'
p41
aS'aux=would'
p42
aS'auxpass=be'
p43
aS'cc=and'
p44
aS'cc=but'
p45
aS'cc=or'
p46
aS'cc=rather'
p47
aS'ccomp=be'
p48
aS'ccomp=cause'
p49
aS'ccomp=change'
p50
aS'ccomp=describe'
p51
aS'ccomp=goal'
p52
aS'ccomp=hope'
p53
aS'ccomp=politics'
p54
aS'ccomp=say'
p55
aS'ccomp=sustain'
p56
aS'complm=that'
p57
aS'conj=change'
p58
aS'conj=deter'
p59
aS'conj=finance'
p60
aS'conj=improve'
p61
aS'conj=move'
p62
aS'conj=responsibility'
p63
aS'conj=spend'
p64
aS'conj=tackle'
p65
aS'conj=time'
p66
aS'cop=be'
p67
aS'dep=be'
p68
aS'dep=confront'
p69
aS'dep=face'
p70
aS'dep=have'
p71
aS'dep=how'
p72
aS'dep=piracy'
p73
aS'dep=that'
p74
aS'dobj=Iran'
p75
aS'dobj=Iraq'
p76
aS'dobj=Islamophobia'
p77
aS'dobj=Russia'
p78
aS'dobj=aid'
p79
aS'dobj=aspect'
p80
aS'dobj=attack'
p81
aS'dobj=challenge'
p82
aS'dobj=change'
p83
aS'dobj=climatechange'
p84
aS'dobj=concern'
p85
aS'dobj=conflict'
p86
aS'dobj=corruption'
p87
aS'dobj=cost'
p88
aS'dobj=crime'
p89
aS'dobj=crisis'
p90
aS'dobj=damage'
p91
aS'dobj=decade'
p92
aS'dobj=difference'
p93
aS'dobj=difficulty'
p94
aS'dobj=disability'
p95
aS'dobj=disadvantage'
p96
aS'dobj=disease'
p97
aS'dobj=dispute'
p98
aS'dobj=emission'
p99
aS'dobj=forest'
p100
aS'dobj=form'
p101
aS'dobj=head'
p102
aS'dobj=hiv'
p103
aS'dobj=hiv\\/aids'
p104
aS'dobj=immigration'
p105
aS'dobj=impact'
p106
aS'dobj=inflation'
p107
aS'dobj=instability'
p108
aS'dobj=issue'
p109
aS'dobj=life'
p110
aS'dobj=malaria'
p111
aS'dobj=menace'
p112
aS'dobj=militant'
p113
aS'dobj=music'
p114
aS'dobj=myriad'
p115
aS'dobj=number'
p116
aS'dobj=phase'
p117
aS'dobj=polio'
p118
aS'dobj=pollution'
p119
aS'dobj=poverty'
p120
aS'dobj=price'
p121
aS'dobj=problem'
p122
aS'dobj=project'
p123
aS'dobj=question'
p124
aS'dobj=recession'
p125
aS'dobj=reform'
p126
aS'dobj=relation'
p127
aS'dobj=some'
p128
aS'dobj=spread'
p129
aS'dobj=stress'
p130
aS'dobj=supplies'
p131
aS'dobj=tb'
p132
aS'dobj=terrorism'
p133
aS'dobj=these'
p134
aS'dobj=threat'
p135
aS'dobj=unrest'
p136
aS'dobj=violence'
p137
aS'dobj=warming'
p138
aS'dobj=word'
p139
aS'mark=as'
p140
aS'mark=for'
p141
aS'mark=if'
p142
aS'neg=not'
p143
aS'nsubj=#PRP#'
p144
aS'nsubj=Harris'
p145
aS'nsubj=Mubarak'
p146
aS'nsubj=Nations'
p147
aS'nsubj=Schiff'
p148
aS'nsubj=Taylor'
p149
aS'nsubj=U.N.'
p150
aS'nsubj=Wright'
p151
aS'nsubj=another'
p152
aS'nsubj=coalition'
p153
aS'nsubj=determination'
p154
aS'nsubj=document'
p155
aS'nsubj=force'
p156
aS'nsubj=government'
p157
aS'nsubj=group'
p158
aS'nsubj=hard'
p159
aS'nsubj=leader'
p160
aS'nsubj=money'
p161
aS'nsubj=nation'
p162
aS'nsubj=summit'
p163
aS'nsubj=talk'
p164
aS'nsubj=that'
p165
aS'nsubj=will'
p166
aS'nsubjpass=#PRP#'
p167
aS'nsubjpass=crisis'
p168
aS'nsubjpass=issue'
p169
aS'nsubjpass=kind'
p170
aS'nsubjpass=problem'
p171
aS'prep=across'
p172
aS'prep=around'
p173
aS'prep=as'
p174
aS'prep=at'
p175
aS'prep=before'
p176
aS'prep=by'
p177
aS'prep=during'
p178
aS'prep=except'
p179
aS'prep=from'
p180
aS'prep=in'
p181
aS'prep=include'
p182
aS'prep=on'
p183
aS'prep=than'
p184
aS'prep=through'
p185
aS'prep=to'
p186
aS'prep=with'
p187
aS'prep=within'
p188
aS'tmod=#DATE#'
p189
aS'tmod=month'
p190
aS'tmod=today'
p191
aS'tmod=week'
p192
aS"w+1=''"
p193
aS'w+1=,'
p194
aS'w+1=-'
p195
aS'w+1=.'
p196
aS'w+1=Afghanistan'
p197
aS'w+1=Iran'
p198
aS'w+1=Iraq'
p199
aS'w+1=Islamophobia'
p200
aS'w+1=Mauritania'
p201
aS'w+1=Tokyo'
p202
aS'w+1=Zimbabwe'
p203
aS'w+1=a'
p204
aS'w+1=aid'
p205
aS'w+1=and'
p206
aS'w+1=another'
p207
aS'w+1=attack'
p208
aS'w+1=be'
p209
aS'w+1=big'
p210
aS'w+1=by'
p211
aS'w+1=challenge'
p212
aS'w+1=climate'
p213
aS'w+1=climatechange'
p214
aS'w+1=conflict'
p215
aS'w+1=controversial'
p216
aS'w+1=core'
p217
aS'w+1=corruption'
p218
aS'w+1=crime'
p219
aS'w+1=disease'
p220
aS'w+1=economic'
p221
aS'w+1=electoral'
p222
aS'w+1=forest'
p223
aS'w+1=from'
p224
aS'w+1=fully'
p225
aS'w+1=global'
p226
aS'w+1=greenhouse'
p227
aS'w+1=heat'
p228
aS'w+1=high-level'
p229
aS'w+1=hiv'
p230
aS'w+1=hiv\\/aids'
p231
aS'w+1=how'
p232
aS'w+1=illegal'
p233
aS'w+1=important'
p234
aS'w+1=inflation'
p235
aS'w+1=issue'
p236
aS'w+1=its'
p237
aS'w+1=key'
p238
aS'w+1=malaria'
p239
aS'w+1=many'
p240
aS'w+1=militant'
p241
aS'w+1=more'
p242
aS'w+1=obesity'
p243
aS'w+1=of'
p244
aS'w+1=other'
p245
aS'w+1=political'
p246
aS'w+1=pollution'
p247
aS'w+1=poverty'
p248
aS'w+1=problem'
p249
aS'w+1=really'
p250
aS'w+1=riskier'
p251
aS'w+1=rural'
p252
aS'w+1=several'
p253
aS'w+1=sexual'
p254
aS'w+1=social'
p255
aS'w+1=some'
p256
aS'w+1=specific'
p257
aS'w+1=such'
p258
aS'w+1=tb'
p259
aS'w+1=terrorism'
p260
aS'w+1=that'
p261
aS'w+1=the'
p262
aS'w+1=these'
p263
aS'w+1=they'
p264
aS'w+1=this'
p265
aS'w+1=those'
p266
aS'w+1=trafficking'
p267
aS'w+1=trans-atlantic'
p268
aS'w+1=type-one'
p269
aS'w+1=unrest'
p270
aS'w+1=what'
p271
aS'w+1=with'
p272
aS"w+2=''"
p273
aS"w+2='s"
p274
aS'w+2=,'
p275
aS'w+2=.'
p276
aS'w+2=Holland-Dozier-Holland'
p277
aS'w+2=a'
p278
aS'w+2=aggressive'
p279
aS'w+2=and'
p280
aS'w+2=around'
p281
aS'w+2=because'
p282
aS'w+2=behind'
p283
aS'w+2=broader'
p284
aS'w+2=cause'
p285
aS'w+2=challenge'
p286
aS'w+2=change'
p287
aS'w+2=climate'
p288
aS'w+2=confront'
p289
aS'w+2=core'
p290
aS'w+2=corruption'
p291
aS'w+2=country'
p292
aS'w+2=crisis'
p293
aS'w+2=damage'
p294
aS'w+2=daunting'
p295
aS'w+2=decade'
p296
aS'w+2=difficult'
p297
aS'w+2=disability'
p298
aS'w+2=disadvantage'
p299
aS'w+2=disease'
p300
aS'w+2=dispute'
p301
aS'w+2=drug'
p302
aS'w+2=economic'
p303
aS'w+2=fail'
p304
aS'w+2=gas'
p305
aS'w+2=global'
p306
aS'w+2=grow'
p307
aS'w+2=he'
p308
aS'w+2=head'
p309
aS'w+2=hiv\\/aids'
p310
aS'w+2=humanitarian'
p311
aS'w+2=immigration'
p312
aS'w+2=impact'
p313
aS'w+2=in'
p314
aS'w+2=include'
p315
aS'w+2=increase'
p316
aS'w+2=institutional'
p317
aS'w+2=issue'
p318
aS'w+2=it'
p319
aS'w+2=life'
p320
aS'w+2=massive'
p321
aS'w+2=menace'
p322
aS'w+2=more'
p323
aS'w+2=music'
p324
aS'w+2=must'
p325
aS'w+2=myriad'
p326
aS'w+2=nation'
p327
aS'w+2=national'
p328
aS'w+2=nobody'
p329
aS'w+2=number'
p330
aS'w+2=of'
p331
aS'w+2=on'
p332
aS'w+2=or'
p333
aS'w+2=other'
p334
aS'w+2=polio'
p335
aS'w+2=political'
p336
aS'w+2=poverty'
p337
aS'w+2=price'
p338
aS'w+2=priority'
p339
aS'w+2=problem'
p340
aS'w+2=project'
p341
aS'w+2=reform'
p342
aS'w+2=rise'
p343
aS'w+2=root'
p344
aS'w+2=same'
p345
aS'w+2=security'
p346
aS'w+2=serious'
p347
aS'w+2=situation'
p348
aS'w+2=soar'
p349
aS'w+2=spread'
p350
aS'w+2=stress'
p351
aS'w+2=such'
p352
aS'w+2=the'
p353
aS'w+2=threat'
p354
aS'w+2=to'
p355
aS'w+2=tough'
p356
aS'w+2=tricky'
p357
aS'w+2=unrest'
p358
aS'w+2=very'
p359
aS'w+2=violence'
p360
aS'w+2=warming'
p361
aS'w+2=which'
p362
aS'w+2=with'
p363
aS'w+2=worst'
p364
aS'w-1=,'
p365
aS'w-1=Schiff'
p366
aS'w-1=Taylor'
p367
aS'w-1=U.N.'
p368
aS'w-1=about'
p369
aS'w-1=also'
p370
aS'w-1=and'
p371
aS'w-1=at'
p372
aS'w-1=be'
p373
aS'w-1=before'
p374
aS'w-1=begin'
p375
aS'w-1=effectively'
p376
aS'w-1=for'
p377
aS'w-1=group'
p378
aS'w-1=hard'
p379
aS'w-1=have'
p380
aS'w-1=he'
p381
aS'w-1=help'
p382
aS'w-1=immediately'
p383
aS'w-1=in'
p384
aS'w-1=into'
p385
aS'w-1=it'
p386
aS'w-1=just'
p387
aS'w-1=make'
p388
aS'w-1=must'
p389
aS'w-1=not'
p390
aS'w-1=now'
p391
aS'w-1=of'
p392
aS'w-1=on'
p393
aS'w-1=round'
p394
aS'w-1=say'
p395
aS'w-1=seriously'
p396
aS'w-1=she'
p397
aS'w-1=should'
p398
aS'w-1=slide'
p399
aS'w-1=start'
p400
aS'w-1=summit'
p401
aS'w-1=that'
p402
aS'w-1=the'
p403
aS'w-1=then'
p404
aS'w-1=to'
p405
aS'w-1=urgently'
p406
aS'w-1=while'
p407
aS'w-1=will'
p408
aS'w-1=worth'
p409
aS'w-1=would'
p410
aS"w-2=''"
p411
aS'w-2=,'
p412
aS'w-2=Africa'
p413
aS'w-2=Kiir'
p414
aS'w-2=Rwanda'
p415
aS'w-2=Stacy'
p416
aS'w-2=Tehran'
p417
aS'w-2=Washington'
p418
aS'w-2=Wright'
p419
aS'w-2=a'
p420
aS'w-2=able'
p421
aS'w-2=active'
p422
aS'w-2=agreement'
p423
aS'w-2=aid'
p424
aS'w-2=aim'
p425
aS'w-2=and'
p426
aS'w-2=as'
p427
aS'w-2=be'
p428
aS'w-2=begin'
p429
aS'w-2=best'
p430
aS'w-2=bid'
p431
aS'w-2=bit'
p432
aS'w-2=burden'
p433
aS'w-2=by'
p434
aS'w-2=can'
p435
aS'w-2=capable'
p436
aS'w-2=capacity'
p437
aS'w-2=coalition'
p438
aS'w-2=come'
p439
aS'w-2=comedy'
p440
aS'w-2=community'
p441
aS'w-2=compromise'
p442
aS'w-2=constitution'
p443
aS'w-2=determine'
p444
aS'w-2=development'
p445
aS'w-2=distribute'
p446
aS'w-2=do'
p447
aS'w-2=document'
p448
aS'w-2=effort'
p449
aS'w-2=expect'
p450
aS'w-2=fail'
p451
aS'w-2=first'
p452
aS'w-2=focus'
p453
aS'w-2=force'
p454
aS'w-2=fund'
p455
aS'w-2=government'
p456
aS'w-2=group'
p457
aS'w-2=harder'
p458
aS'w-2=have'
p459
aS'w-2=he'
p460
aS'w-2=hope'
p461
aS'w-2=how'
p462
aS'w-2=however'
p463
aS'w-2=impossible'
p464
aS'w-2=inability'
p465
aS'w-2=inexperienced'
p466
aS'w-2=it'
p467
aS'w-2=key'
p468
aS'w-2=lead'
p469
aS'w-2=leader'
p470
aS'w-2=leadership'
p471
aS'w-2=measure'
p472
aS'w-2=meeting'
p473
aS'w-2=move'
p474
aS'w-2=multilateralism'
p475
aS'w-2=must'
p476
aS'w-2=nation'
p477
aS'w-2=need'
p478
aS'w-2=not'
p479
aS'w-2=occasion'
p480
aS'w-2=or'
p481
aS'w-2=participation'
p482
aS'w-2=plan'
p483
aS'w-2=plane'
p484
aS'w-2=play'
p485
aS'w-2=pledge'
p486
aS'w-2=poverty'
p487
aS'w-2=president'
p488
aS'w-2=problem'
p489
aS'w-2=progress'
p490
aS'w-2=promise'
p491
aS'w-2=public'
p492
aS'w-2=quickly'
p493
aS'w-2=ready'
p494
aS'w-2=realize'
p495
aS'w-2=region'
p496
aS'w-2=research'
p497
aS'w-2=resolve'
p498
aS'w-2=resource'
p499
aS'w-2=role'
p500
aS'w-2=serious'
p501
aS'w-2=start'
p502
aS'w-2=statehood'
p503
aS'w-2=step'
p504
aS'w-2=still'
p505
aS'w-2=strategy'
p506
aS'w-2=style'
p507
aS'w-2=subsidy'
p508
aS'w-2=summit'
p509
aS'w-2=supplies'
p510
aS'w-2=surveillance'
p511
aS'w-2=system'
p512
aS'w-2=take'
p513
aS'w-2=talk'
p514
aS'w-2=that'
p515
aS'w-2=the'
p516
aS'w-2=they'
p517
aS'w-2=timetable'
p518
aS'w-2=to'
p519
aS'w-2=victim'
p520
aS'w-2=want'
p521
aS'w-2=way'
p522
aS'w-2=well'
p523
aS'w-2=will'
p524
aS'w-2=willing'
p525
aS'w-2=willingness'
p526
aS'w-2=wisely'
p527
aS'w-2=work'
p528
aS'xcomp=Runner'
p529
aS'xcomp=Turkey'
p530
aS'xcomp=head-on'
p531
aS'xcomp=rate'
p532
asS'dtype'
p533
cnumpy
float64
p534
sS'vocabulary_'
p535
(dp536
g30
I21
sg176
I167
sg133
I124
sg12
I3
sg340
I331
sg497
I488
sg437
I428
sg219
I210
sg406
I397
sg330
I321
sg33
I24
sg63
I54
sg234
I225
sg291
I282
sg510
I501
sg478
I469
sg118
I109
sg517
I508
sg184
I175
sg177
I168
sg188
I179
sg327
I318
sg261
I252
sg257
I248
sg157
I148
sg136
I127
sg287
I278
sg410
I401
sg395
I386
sg350
I341
sg106
I97
sg283
I274
sg263
I254
sg28
I19
sg453
I444
sg163
I154
sg25
I16
sg408
I399
sg107
I98
sg112
I103
sg95
I86
sg205
I196
sg91
I82
sg232
I223
sg373
I364
sg313
I304
sg516
I507
sg47
I38
sg233
I224
sg108
I99
sg103
I94
sg160
I151
sg417
I408
sg29
I20
sg416
I407
sg208
I199
sg292
I283
sg121
I112
sg272
I263
sg355
I346
sg285
I276
sg79
I70
sg268
I259
sg325
I316
sg413
I404
sg380
I371
sg168
I159
sg304
I295
sg290
I281
sg314
I305
sg319
I310
sg461
I452
sg197
I188
sg370
I361
sg36
I27
sg57
I48
sg173
I164
sg190
I181
sg358
I349
sg506
I497
sg84
I75
sg347
I338
sg186
I177
sg449
I440
sg515
I506
sg262
I253
sg78
I69
sg264
I255
sg457
I448
sg368
I359
sg266
I257
sg167
I158
sg181
I172
sg249
I240
sg42
I33
sg170
I161
sg369
I360
sg470
I461
sg260
I251
sg150
I141
sg66
I57
sg195
I186
sg216
I207
sg19
I10
sg149
I140
sg466
I457
sg138
I129
sg336
I327
sg310
I301
sg473
I464
sg349
I340
sg64
I55
sg464
I455
sg206
I197
sg352
I343
sg120
I111
sg316
I307
sg139
I130
sg245
I236
sg398
I389
sg165
I156
sg386
I377
sg236
I227
sg456
I447
sg81
I72
sg77
I68
sg508
I499
sg384
I375
sg212
I203
sg480
I471
sg158
I149
sg403
I394
sg379
I370
sg318
I309
sg89
I80
sg142
I133
sg523
I514
sg436
I427
sg94
I85
sg528
I519
sg164
I155
sg342
I333
sg324
I315
sg98
I89
sg243
I234
sg527
I518
sg531
I522
sg339
I330
sg441
I432
sg293
I284
sg269
I260
sg182
I173
sg102
I93
sg104
I95
sg481
I472
sg490
I481
sg297
I288
sg465
I456
sg109
I100
sg270
I261
sg405
I396
sg317
I308
sg511
I502
sg323
I314
sg52
I43
sg447
I438
sg475
I466
sg429
I420
sg239
I230
sg501
I492
sg214
I205
sg423
I414
sg80
I71
sg513
I504
sg442
I433
sg308
I299
sg132
I123
sg301
I292
sg141
I132
sg344
I335
sg284
I275
sg191
I182
sg421
I412
sg48
I39
sg424
I415
sg146
I137
sg282
I273
sg96
I87
sg425
I416
sg494
I485
sg59
I50
sg468
I459
sg156
I147
sg335
I326
sg415
I406
sg315
I306
sg88
I79
sg43
I34
sg433
I424
sg366
I357
sg228
I219
sg115
I106
sg61
I52
sg60
I51
sg476
I467
sg329
I320
sg70
I61
sg311
I302
sg237
I228
sg363
I354
sg148
I139
sg503
I494
sg409
I400
sg151
I142
sg414
I405
sg341
I332
sg333
I324
sg411
I402
sg331
I322
sg10
I1
sg259
I250
sg507
I498
sg332
I323
sg383
I374
sg254
I245
sg371
I362
sg250
I241
sg432
I423
sg248
I239
sg18
I9
sg117
I108
sg431
I422
sg307
I298
sg220
I211
sg394
I385
sg241
I232
sg203
I194
sg407
I398
sg357
I348
sg20
I11
sg246
I237
sg202
I193
sg399
I390
sg397
I388
sg452
I443
sg31
I22
sg359
I350
sg337
I328
sg127
I118
sg376
I367
sg451
I442
sg498
I489
sg296
I287
sg97
I88
sg34
I25
sg134
I125
sg267
I258
sg201
I192
sg303
I294
sg322
I313
sg85
I76
sg169
I160
sg253
I244
sg126
I117
sg82
I73
sg247
I238
sg450
I441
sg298
I289
sg69
I60
sg489
I480
sg492
I483
sg72
I63
sg129
I120
sg41
I32
sg65
I56
sg187
I178
sg46
I37
sg130
I121
sg485
I476
sg505
I496
sg305
I296
sg210
I201
sg83
I74
sg471
I462
sg483
I474
sg111
I102
sg488
I479
sg477
I468
sg520
I511
sg467
I458
sg526
I517
sg499
I490
sg122
I113
sg277
I268
sg518
I509
sg444
I435
sg439
I430
sg502
I493
sg328
I319
sg273
I264
sg226
I217
sg58
I49
sg145
I136
sg125
I116
sg401
I392
sg448
I439
sg75
I66
sg354
I345
sg361
I352
sg76
I67
sg230
I221
sg326
I317
sg459
I450
sg44
I35
sg244
I235
sg105
I96
sg14
I5
sg211
I202
sg387
I378
sg209
I200
sg509
I500
sg367
I358
sg161
I152
sg274
I265
sg199
I190
sg147
I138
sg93
I84
sg51
I42
sg522
I513
sg463
I454
sg396
I387
sg532
I523
sg144
I135
sg198
I189
sg455
I446
sg360
I351
sg422
I413
sg193
I184
sg491
I482
sg45
I36
sg500
I491
sg288
I279
sg493
I484
sg255
I246
sg382
I373
sg251
I242
sg153
I144
sg192
I183
sg215
I206
sg486
I477
sg114
I105
sg419
I410
sg38
I29
sg289
I280
sg388
I379
sg362
I353
sg385
I376
sg378
I369
sg428
I419
sg306
I297
sg183
I174
sg55
I46
sg166
I157
sg53
I44
sg434
I425
sg124
I115
sg56
I47
sg26
I17
sg446
I437
sg71
I62
sg92
I83
sg294
I285
sg430
I421
sg86
I77
sg514
I505
sg345
I336
sg99
I90
sg227
I218
sg231
I222
sg113
I104
sg15
I6
sg256
I247
sg393
I384
sg521
I512
sg68
I59
sg101
I92
sg438
I429
sg469
I460
sg512
I503
sg135
I126
sg392
I383
sg217
I208
sg200
I191
sg519
I510
sg280
I271
sg189
I180
sg426
I417
sg222
I213
sg400
I391
sg172
I163
sg49
I40
sg338
I329
sg265
I256
sg17
I8
sg67
I58
sg460
I451
sg87
I78
sg242
I233
sg529
I520
sg27
I18
sg21
I12
sg353
I344
sg175
I166
sg524
I515
sg174
I165
sg412
I403
sg238
I229
sg271
I262
sg116
I107
sg37
I28
sg356
I347
sg440
I431
sg365
I356
sg479
I470
sg364
I355
sg346
I337
sg300
I291
sg530
I521
sg32
I23
sg159
I150
sg235
I226
sg427
I418
sg74
I65
sg137
I128
sg110
I101
sg462
I453
sg185
I176
sg309
I300
sg207
I198
sg39
I30
sg404
I395
sg299
I290
sg420
I411
sg73
I64
sg213
I204
sg100
I91
sg525
I516
sg484
I475
sg90
I81
sg343
I334
sg140
I131
sg381
I372
sg279
I270
sg240
I231
sg221
I212
sg374
I365
sg131
I122
sg24
I15
sg302
I293
sg224
I215
sg179
I170
sg281
I272
sg348
I339
sg495
I486
sg50
I41
sg389
I380
sg223
I214
sg225
I216
sg229
I220
sg445
I436
sg474
I465
sg9
I0
sg295
I286
sg286
I277
sg152
I143
sg62
I53
sg321
I312
sg22
I13
sg312
I303
sg180
I171
sg334
I325
sg23
I14
sg482
I473
sg40
I31
sg472
I463
sg218
I209
sg351
I342
sg258
I249
sg162
I153
sg435
I426
sg128
I119
sg171
I162
sg454
I445
sg252
I243
sg377
I368
sg194
I185
sg196
I187
sg496
I487
sg276
I267
sg275
I266
sg504
I495
sg154
I145
sg143
I134
sg178
I169
sg155
I146
sg320
I311
sg487
I478
sg13
I4
sg11
I2
sg443
I434
sg458
I449
sg204
I195
sg391
I382
sg390
I381
sg418
I409
sg375
I366
sg372
I363
sg54
I45
sg402
I393
sg35
I26
sg278
I269
sg119
I110
sg16
I7
sg123
I114
ssS'separator'
p537
S'='
sS'sparse'
p538
I01
sb.