ccopy_reg
_reconstructor
p1
(csklearn.feature_extraction.dict_vectorizer
DictVectorizer
p2
c__builtin__
object
p3
NtRp4
(dp5
S'sort'
p6
I01
sS'feature_names_'
p7
(lp8
S'advcl=expensive'
p9
aS'advcl=fail'
p10
aS'advcl=help'
p11
aS'advcl=lose'
p12
aS'advcl=raise'
p13
aS'advcl=support'
p14
aS'advmod=again'
p15
aS'advmod=almost'
p16
aS'advmod=also'
p17
aS'advmod=effectively'
p18
aS'advmod=hardly'
p19
aS'advmod=how'
p20
aS'advmod=longer'
p21
aS'advmod=now'
p22
aS'advmod=so'
p23
aS'advmod=there'
p24
aS'advmod=too'
p25
aS'advmod=well'
p26
aS'advmod=worldwide'
p27
aS'aux=be'
p28
aS'aux=can'
p29
aS'aux=do'
p30
aS'aux=must'
p31
aS'aux=to'
p32
aS'aux=would'
p33
aS'cc=and'
p34
aS'cc=but'
p35
aS'ccomp=have'
p36
aS'ccomp=member'
p37
aS'ccomp=say'
p38
aS'ccomp=sweep'
p39
aS'complm=that'
p40
aS'conj=put'
p41
aS'conj=result'
p42
aS'conj=say'
p43
aS'dep=of'
p44
aS'dep=that'
p45
aS'dobj=better'
p46
aS'dobj=strategy'
p47
aS'mark=as'
p48
aS'mark=so'
p49
aS'neg=not'
p50
aS'nsubj=#PRP#'
p51
aS'nsubj=Bajau'
p52
aS'nsubj=Britain'
p53
aS'nsubj=Haitians'
p54
aS'nsubj=India'
p55
aS'nsubj=Indonesia'
p56
aS'nsubj=Kenya'
p57
aS'nsubj=Ramsey'
p58
aS'nsubj=country'
p59
aS'nsubj=critter'
p60
aS'nsubj=facility'
p61
aS'nsubj=force'
p62
aS'nsubj=government'
p63
aS'nsubj=hospital'
p64
aS'nsubj=industry'
p65
aS'nsubj=instinct'
p66
aS'nsubj=most'
p67
aS'nsubj=people'
p68
aS'nsubj=school'
p69
aS'nsubj=victim'
p70
aS'nsubj=wagesare'
p71
aS'nsubj=warming'
p72
aS'nsubj=which'
p73
aS'nsubj=who'
p74
aS'prep=during'
p75
aS'prep=from'
p76
aS'prep=in'
p77
aS'prep=of'
p78
aS'prep=on'
p79
aS'prep=with'
p80
aS'prep=without'
p81
aS'prt=up'
p82
aS'tmod=#DATE#'
p83
aS'w+1=,'
p84
aS'w+1=.'
p85
aS'w+1=Thursday'
p86
aS'w+1=better'
p87
aS'w+1=during'
p88
aS'w+1=if'
p89
aS'w+1=official'
p90
aS'w+1=organizer'
p91
aS'w+1=rather'
p92
aS'w+1=strategy'
p93
aS'w+1=up'
p94
aS'w+1=when'
p95
aS'w+1=with'
p96
aS"w+2=''"
p97
aS'w+2=.'
p98
aS'w+2=a'
p99
aS'w+2=any'
p100
aS'w+2=anymore'
p101
aS'w+2=as'
p102
aS'w+2=be'
p103
aS'w+2=bird'
p104
aS'w+2=climate'
p105
aS'w+2=crime'
p106
aS'w+2=disease'
p107
aS'w+2=dramatic'
p108
aS'w+2=emergency'
p109
aS'w+2=even'
p110
aS'w+2=extreme'
p111
aS'w+2=feed'
p112
aS'w+2=grow'
p113
aS'w+2=he'
p114
aS'w+2=high'
p115
aS'w+2=higher'
p116
aS'w+2=huge'
p117
aS'w+2=insecurity'
p118
aS'w+2=large'
p119
aS'w+2=life'
p120
aS'w+2=loss'
p121
aS'w+2=manic'
p122
aS'w+2=modern'
p123
aS'w+2=morning'
p124
aS'w+2=one'
p125
aS'w+2=onerous'
p126
aS'w+2=plenty'
p127
aS'w+2=rise'
p128
aS'w+2=say'
p129
aS'w+2=she'
p130
aS'w+2=spiral'
p131
aS'w+2=the'
p132
aS'w+2=these'
p133
aS'w+2=they'
p134
aS'w+2=this'
p135
aS'w+2=those'
p136
aS'w+2=traumatic'
p137
aS'w+2=unprecedented'
p138
aS'w+2=up'
p139
aS'w+2=we'
p140
aS'w+2=week'
p141
aS'w+2=well'
p142
aS'w+2=with'
p143
aS'w-1=.'
p144
aS'w-1=Bajau'
p145
aS'w-1=Haitians'
p146
aS'w-1=Indonesia'
p147
aS'w-1=Ramsey'
p148
aS'w-1=again'
p149
aS'w-1=and'
p150
aS'w-1=be'
p151
aS'w-1=can'
p152
aS'w-1=country'
p153
aS'w-1=develop'
p154
aS'w-1=effectively'
p155
aS'w-1=government'
p156
aS'w-1=hardly'
p157
aS'w-1=he'
p158
aS'w-1=longer'
p159
aS'w-1=most'
p160
aS'w-1=not'
p161
aS'w-1=now'
p162
aS'w-1=of'
p163
aS'w-1=or'
p164
aS'w-1=people'
p165
aS'w-1=say'
p166
aS'w-1=she'
p167
aS'w-1=they'
p168
aS'w-1=to'
p169
aS'w-2=,'
p170
aS'w-2=.'
p171
aS'w-2=2008'
p172
aS'w-2=Africa'
p173
aS'w-2=India'
p174
aS'w-2=Jacob'
p175
aS'w-2=Raworth'
p176
aS'w-2=able'
p177
aS'w-2=accord'
p178
aS'w-2=addiction'
p179
aS'w-2=almost'
p180
aS'w-2=also'
p181
aS'w-2=arm'
p182
aS'w-2=as'
p183
aS'w-2=authority'
p184
aS'w-2=be'
p185
aS'w-2=can'
p186
aS'w-2=capacity'
p187
aS'w-2=country'
p188
aS'w-2=critter'
p189
aS'w-2=difficult'
p190
aS'w-2=do'
p191
aS'w-2=election'
p192
aS'w-2=fund'
p193
aS'w-2=hard'
p194
aS'w-2=help'
p195
aS'w-2=how'
p196
aS'w-2=impoverished'
p197
aS'w-2=inability'
p198
aS'w-2=industry'
p199
aS'w-2=learnhow'
p200
aS'w-2=manage'
p201
aS'w-2=must'
p202
aS'w-2=necessary'
p203
aS'w-2=no'
p204
aS'w-2=now'
p205
aS'w-2=other'
p206
aS'w-2=people'
p207
aS'w-2=prepare'
p208
aS'w-2=problem'
p209
aS'w-2=resource'
p210
aS'w-2=school'
p211
aS'w-2=site'
p212
aS'w-2=state'
p213
aS'w-2=strengthen'
p214
aS'w-2=struggle'
p215
aS'w-2=survivor'
p216
aS'w-2=term'
p217
aS'w-2=the'
p218
aS'w-2=they'
p219
aS'w-2=to'
p220
aS'w-2=too'
p221
aS'w-2=try'
p222
aS'w-2=unable'
p223
aS'w-2=unprepared'
p224
aS'w-2=use'
p225
aS'w-2=warm'
p226
aS'w-2=way'
p227
aS'w-2=we'
p228
aS'w-2=worldwide'
p229
aS'w-2=would'
p230
aS'w-2=year'
p231
aS'xcomp=bring'
p232
aS'xcomp=commemorate'
p233
asS'dtype'
p234
cnumpy
float64
p235
sS'vocabulary_'
p236
(dp237
g126
I117
sg167
I158
sg213
I204
sg121
I112
sg52
I43
sg12
I3
sg53
I44
sg71
I62
sg155
I146
sg232
I223
sg228
I219
sg207
I198
sg211
I202
sg122
I113
sg160
I151
sg116
I107
sg93
I84
sg194
I185
sg151
I142
sg26
I17
sg192
I183
sg225
I216
sg67
I58
sg98
I89
sg230
I221
sg136
I127
sg100
I91
sg164
I155
sg138
I129
sg139
I130
sg180
I171
sg198
I189
sg212
I203
sg158
I149
sg163
I154
sg219
I210
sg91
I82
sg169
I160
sg220
I211
sg94
I85
sg83
I74
sg188
I179
sg130
I121
sg9
I0
sg217
I208
sg24
I15
sg63
I54
sg49
I40
sg222
I213
sg208
I199
sg13
I4
sg166
I157
sg46
I37
sg61
I52
sg152
I143
sg30
I21
sg209
I200
sg86
I77
sg174
I165
sg181
I172
sg96
I87
sg149
I140
sg23
I14
sg117
I108
sg142
I133
sg39
I30
sg124
I115
sg132
I123
sg170
I161
sg171
I162
sg80
I71
sg150
I141
sg115
I106
sg153
I144
sg182
I173
sg56
I47
sg144
I135
sg233
I224
sg205
I196
sg218
I209
sg14
I5
sg107
I98
sg146
I137
sg177
I168
sg109
I100
sg183
I174
sg106
I97
sg41
I32
sg196
I187
sg119
I110
sg197
I188
sg123
I114
sg210
I201
sg19
I10
sg165
I156
sg60
I51
sg127
I118
sg157
I148
sg175
I166
sg172
I163
sg168
I159
sg141
I132
sg45
I36
sg131
I122
sg62
I53
sg38
I29
sg58
I49
sg128
I119
sg74
I65
sg97
I88
sg59
I50
sg42
I33
sg216
I207
sg102
I93
sg92
I83
sg72
I63
sg17
I8
sg88
I79
sg206
I197
sg47
I38
sg36
I27
sg184
I175
sg29
I20
sg40
I31
sg11
I2
sg134
I125
sg135
I126
sg44
I35
sg159
I150
sg201
I192
sg64
I55
sg21
I12
sg156
I147
sg34
I25
sg161
I152
sg145
I136
sg108
I99
sg65
I56
sg48
I39
sg226
I217
sg27
I18
sg125
I116
sg16
I7
sg129
I120
sg103
I94
sg35
I26
sg187
I178
sg154
I145
sg200
I191
sg221
I212
sg22
I13
sg25
I16
sg89
I80
sg77
I68
sg20
I11
sg33
I24
sg199
I190
sg227
I218
sg143
I134
sg51
I42
sg76
I67
sg81
I72
sg193
I184
sg231
I222
sg112
I103
sg195
I186
sg95
I86
sg87
I78
sg18
I9
sg55
I46
sg32
I23
sg70
I61
sg105
I96
sg90
I81
sg73
I64
sg101
I92
sg66
I57
sg147
I138
sg10
I1
sg179
I170
sg229
I220
sg110
I101
sg69
I60
sg178
I169
sg224
I215
sg84
I75
sg85
I76
sg137
I128
sg186
I177
sg118
I109
sg148
I139
sg79
I70
sg50
I41
sg15
I6
sg75
I66
sg31
I22
sg114
I105
sg82
I73
sg223
I214
sg68
I59
sg215
I206
sg120
I111
sg176
I167
sg104
I95
sg57
I48
sg133
I124
sg111
I102
sg214
I205
sg113
I104
sg162
I153
sg185
I176
sg173
I164
sg78
I69
sg190
I181
sg43
I34
sg202
I193
sg204
I195
sg37
I28
sg28
I19
sg203
I194
sg54
I45
sg99
I90
sg191
I182
sg140
I131
sg189
I180
ssS'separator'
p238
S'='
sS'sparse'
p239
I01
sb.