ccopy_reg
_reconstructor
p1
(csklearn.feature_extraction.dict_vectorizer
DictVectorizer
p2
c__builtin__
object
p3
NtRp4
(dp5
S'vocabulary_'
p6
(dp7
S'dobj=those'
p8
I42
sS'w-2=would'
p9
I184
sS'w+2=both'
p10
I104
sS'w-1=physically'
p11
I141
sS'dep=have'
p12
I27
sS'nsubjpass=journalist'
p13
I57
sS'w-2=agent'
p14
I151
sS'w+2=japanese'
p15
I110
sS'advmod=often'
p16
I3
sS'w-1=to'
p17
I146
sS'conj=threaten'
p18
I25
sS'nsubj=troops'
p19
I52
sS'nsubjpass=Vietnam'
p20
I54
sS'dobj=people'
p21
I40
sS'w-2=through'
p22
I181
sS'conj=punish'
p23
I23
sS'w-2=Guinea-Bissau'
p24
I149
sS'w-2=want'
p25
I182
sS'w-1=or'
p26
I140
sS'w-1=stop'
p27
I144
sS'w-1=often'
p28
I139
sS'w-2=arrest'
p29
I154
sS'dobj=woman'
p30
I44
sS'w+1=inmate'
p31
I84
sS'w-2=indicate'
p32
I165
sS'ccomp=release'
p33
I14
sS'w+2=worker'
p34
I128
sS'w-1=of'
p35
I138
sS'nsubjpass=member'
p36
I59
sS'w-2=law'
p37
I167
sS'nsubjpass=watcher'
p38
I61
sS'prep=by'
p39
I65
sS'w+2=and'
p40
I98
sS'w-2=and'
p41
I152
sS'conj=disrupt'
p42
I18
sS'w-1=troops'
p43
I147
sS'w+2=member'
p44
I111
sS'w+2=more'
p45
I112
sS'dobj=group'
p46
I34
sS'dobj=#PRP#'
p47
I28
sS'w+2=assault'
p48
I100
sS'nsubj=authority'
p49
I49
sS'w-2=prepare'
p50
I173
sS'w-2=stranger'
p51
I179
sS'w+2=beat'
p52
I103
sS'w+2=whaling'
p53
I126
sS'nsubjpass=anyone'
p54
I56
sS'w-2=misuse'
p55
I169
sS'w-2=he'
p56
I163
sS'w+2=intimidate'
p57
I108
sS'w+2=attack'
p58
I101
sS'dobj=immigrant'
p59
I35
sS'conj=intimidate'
p60
I20
sS'w-1=mob'
p61
I136
sS'nsubjpass=agent'
p62
I55
sS'w-2=area'
p63
I153
sS'conj=attack'
p64
I16
sS'w+2=torture'
p65
I121
sS'w-1=journalist'
p66
I135
sS'w-2=.'
p67
I148
sS'cc=or'
p68
I13
sS'w+1=he'
p69
I81
sS'w-2=hostile'
p70
I164
sS'w+1=Israel'
p71
I74
sS'aux=have'
p72
I9
sS'nsubj=regime'
p73
I51
sS'w-1=be'
p74
I133
sS'prep=among'
p75
I64
sS'w-1=,'
p76
I129
sS'w+2=threaten'
p77
I120
sS'w+1=journalist'
p78
I85
sS'w-2=the'
p79
I180
sS'w-2=official'
p80
I172
sS'dobj=Muslims'
p81
I30
sS'w-2=replace'
p82
I177
sS'w+2=imprison'
p83
I107
sS'w-2=woman'
p84
I183
sS'conj=put'
p85
I24
sS'dobj=lawsuit'
p86
I38
sS'w-1=authority'
p87
I132
sS'nsubjpass=number'
p88
I60
sS'dobj=member'
p89
I39
sS'mark=because'
p90
I46
sS'advmod=when'
p91
I7
sS'dobj=Israel'
p92
I29
sS'w+1=lawsuit'
p93
I86
sS'advmod=physically'
p94
I4
sS'w-1=routinely'
p95
I142
sS'w-2=intimidate'
p96
I166
sS'w-2=blackmail'
p97
I156
sS'w+1=on'
p98
I88
sS'w-2=many'
p99
I168
sS'w-2=risk'
p100
I178
sS'w-1=they'
p101
I145
sS'prep=for'
p102
I66
sS'w+1=or'
p103
I89
sS'dobj=believer'
p104
I31
sS'w-2=continue'
p105
I157
sS'nsubj=force'
p106
I50
sS'w-1=allegedly'
p107
I130
sS'w+1=party'
p108
I90
sS'w+2=they'
p109
I119
sS"w+2=''"
p110
I95
sS'w+2=as'
p111
I99
sS'w+2=it'
p112
I109
sS'w-2=Party'
p113
I150
sS'w+2=group'
p114
I106
sS'advmod=routinely'
p115
I5
sS'w+2=who'
p116
I127
sS'w-2=regime'
p117
I176
sS'w-2=gang'
p118
I161
sS'auxpass=be'
p119
I11
sS'w+2=punish'
p120
I117
sS'dobj=whaler'
p121
I43
sS'nsubjpass=leftist'
p122
I58
sS'conj=persecute'
p123
I21
sS'w-2=program'
p124
I174
sS'w-2=have'
p125
I162
sS'cc=and'
p126
I12
sS'w+2=vulnerable'
p127
I124
sS'advmod=still'
p128
I6
sS'w+1=of'
p129
I87
sS'w+2=by'
p130
I105
sS'dep=assault'
p131
I26
sS'w+1=everyone'
p132
I79
sS'nsubj=Bongay'
p133
I48
sS'advmod=allegedly'
p134
I2
sS'conj=arrest'
p135
I15
sS'w+1=those'
p136
I92
sS'w+2=pray'
p137
I115
sS'nsubjpass=#PRP#'
p138
I53
sS'w+1=believer'
p139
I77
sS'prep=in'
p140
I68
sS'w+2=try'
p141
I123
sS'partmod=accuse'
p142
I63
sS'w+1=for'
p143
I80
sS'w+1=in'
p144
I83
sS'w+2=whale'
p145
I125
sS'w-2=from'
p146
I160
sS'dobj=that'
p147
I41
sS'nsubj=#PRP#'
p148
I47
sS'w+2=authority'
p149
I102
sS'dobj=everyone'
p150
I32
sS'prep=from'
p151
I67
sS'w-1=deny'
p152
I134
sS'w+1=when'
p153
I93
sS'w-2=promise'
p154
I175
sS'aux=to'
p155
I10
sS'w-2=office'
p156
I171
sS'dobj=fleet'
p157
I33
sS'dobj=worker'
p158
I45
sS'w+2=the'
p159
I118
sS'w+2=troops'
p160
I122
sS'w-1=still'
p161
I143
sS'w+1=immigrant'
p162
I82
sS'w+1=and'
p163
I76
sS'w+2=prevent'
p164
I116
sS'advcl=report'
p165
I0
sS'w+1=,'
p166
I71
sS'w+1=.'
p167
I72
sS'w+1=Muslims'
p168
I75
sS'w+2=.'
p169
I97
sS'w+2=persecute'
p170
I114
sS'w+2=,'
p171
I96
sS'nsubjpass=woman'
p172
I62
sS'w+2=on'
p173
I113
sS'w+1=the'
p174
I91
sS'w+1=woman'
p175
I94
sS'conj=get'
p176
I19
sS'w-1=and'
p177
I131
sS'w+1=I'
p178
I73
sS'dobj=journalist'
p179
I37
sS'w+1=by'
p180
I78
sS'advcl=tactic'
p181
I1
sS'w-1=nobody'
p182
I137
sS'w-2=be'
p183
I155
sS'conj=prevent'
p184
I22
sS'prep=of'
p185
I69
sS'conj=be'
p186
I17
sS'dobj=inmate'
p187
I36
sS'w-2=of'
p188
I170
sS'prep=on'
p189
I70
sS'w-2=force'
p190
I159
sS'aux=be'
p191
I8
sS'w-2=flurry'
p192
I158
ssS'dtype'
p193
cnumpy
float64
p194
sS'feature_names_'
p195
(lp196
g165
ag181
ag134
ag16
ag94
ag115
ag128
ag91
ag191
ag72
ag155
ag119
ag126
ag68
ag33
ag135
ag64
ag186
ag42
ag176
ag60
ag123
ag184
ag23
ag85
ag18
ag131
ag12
ag47
ag92
ag81
ag104
ag150
ag157
ag46
ag59
ag187
ag179
ag86
ag89
ag21
ag147
ag8
ag121
ag30
ag158
ag90
ag148
ag133
ag49
ag106
ag73
ag19
ag138
ag20
ag62
ag54
ag13
ag122
ag36
ag88
ag38
ag172
ag142
ag75
ag39
ag102
ag151
ag140
ag185
ag189
ag166
ag167
ag178
ag71
ag168
ag163
ag139
ag180
ag132
ag143
ag69
ag162
ag144
ag31
ag78
ag93
ag129
ag98
ag103
ag108
ag174
ag136
ag153
ag175
ag110
ag171
ag169
ag40
ag111
ag48
ag58
ag149
ag52
ag10
ag130
ag114
ag83
ag57
ag112
ag15
ag44
ag45
ag173
ag170
ag137
ag164
ag120
ag159
ag109
ag77
ag65
ag160
ag141
ag127
ag145
ag53
ag116
ag34
ag76
ag107
ag177
ag87
ag74
ag152
ag66
ag61
ag182
ag35
ag28
ag26
ag11
ag95
ag161
ag27
ag101
ag17
ag43
ag67
ag24
ag113
ag14
ag41
ag63
ag29
ag183
ag97
ag105
ag192
ag190
ag146
ag118
ag125
ag56
ag70
ag32
ag96
ag37
ag99
ag55
ag188
ag156
ag80
ag50
ag124
ag154
ag117
ag82
ag100
ag51
ag79
ag22
ag25
ag84
ag9
asS'separator'
p197
S'='
sS'sparse'
p198
I01
sb.