ccopy_reg
_reconstructor
p1
(csklearn.feature_extraction.dict_vectorizer
DictVectorizer
p2
c__builtin__
object
p3
NtRp4
(dp5
S'sort'
p6
I01
sS'feature_names_'
p7
(lp8
S'acomp=widely'
p9
aS'advcl=be'
p10
aS'advcl=evolve'
p11
aS'advmod=considerably'
p12
aS'advmod=dramatically'
p13
aS'advmod=enormously'
p14
aS'advmod=greatly'
p15
aS'advmod=more'
p16
aS'advmod=significantly'
p17
aS'advmod=widely'
p18
aS'aux=can'
p19
aS'aux=could'
p20
aS'aux=will'
p21
aS'auxpass=be'
p22
aS'cc=and'
p23
aS'cc=but'
p24
aS'complm=that'
p25
aS'conj=call'
p26
aS'conj=say'
p27
aS'conj=warn'
p28
aS'conj=worth'
p29
aS'cop=be'
p30
aS'csubj=scatter'
p31
aS'dobj=length'
p32
aS'dobj=routine'
p33
aS'mark=although'
p34
aS'mark=because'
p35
aS'mark=though'
p36
aS'mark=while'
p37
aS'nsubj=#PRP#'
p38
aS'nsubj=access'
p39
aS'nsubj=age'
p40
aS'nsubj=attitude'
p41
aS'nsubj=candidate'
p42
aS'nsubj=cause'
p43
aS'nsubj=cost'
p44
aS'nsubj=country'
p45
aS'nsubj=downpour'
p46
aS'nsubj=effectiveness'
p47
aS'nsubj=estimate'
p48
aS'nsubj=explanation'
p49
aS'nsubj=figure'
p50
aS'nsubj=income'
p51
aS'nsubj=mission'
p52
aS'nsubj=number'
p53
aS'nsubj=opinion'
p54
aS'nsubj=prospects'
p55
aS'nsubj=quality'
p56
aS'nsubj=quantity'
p57
aS'nsubj=rate'
p58
aS'nsubj=result'
p59
aS'nsubj=return'
p60
aS'nsubj=situation'
p61
aS'nsubj=size'
p62
aS'nsubj=strain'
p63
aS'nsubj=that'
p64
aS'nsubj=threat'
p65
aS'nsubj=treatment'
p66
aS'nsubj=voter'
p67
aS'nsubjpass=opinion'
p68
aS'prep=accord'
p69
aS'prep=among'
p70
aS'prep=as'
p71
aS'prep=between'
p72
aS'prep=depend'
p73
aS'prep=from'
p74
aS'prep=in'
p75
aS'prep=of'
p76
aS'prep=on'
p77
aS'prep=per'
p78
aS'prep=throughout'
p79
aS'prep=to'
p80
aS'w+1=,'
p81
aS'w+1=.'
p82
aS'w+1=as'
p83
aS'w+1=because'
p84
aS'w+1=between'
p85
aS'w+1=but'
p86
aS'w+1=considerably'
p87
aS'w+1=degree'
p88
aS'w+1=depend'
p89
aS'w+1=dramatically'
p90
aS'w+1=enormously'
p91
aS'w+1=from'
p92
aS'w+1=greatly'
p93
aS'w+1=in'
p94
aS'w+1=length'
p95
aS'w+1=level'
p96
aS'w+1=margin'
p97
aS'w+1=more'
p98
aS'w+1=on'
p99
aS'w+1=opinion'
p100
aS'w+1=per'
p101
aS'w+1=period'
p102
aS'w+1=significantly'
p103
aS'w+1=speed'
p104
aS'w+1=the'
p105
aS'w+1=they'
p106
aS'w+1=throughout'
p107
aS'w+1=way'
p108
aS'w+1=widely'
p109
aS'w+2=,'
p110
aS'w+2=.'
p111
aS'w+2=Ramallah'
p112
aS'w+2=about'
p113
aS'w+2=accord'
p114
aS'w+2=among'
p115
aS'w+2=and'
p116
aS'w+2=between'
p117
aS'w+2=but'
p118
aS'w+2=country'
p119
aS'w+2=from'
p120
aS'w+2=how'
p121
aS'w+2=in'
p122
aS'w+2=industry'
p123
aS'w+2=length'
p124
aS'w+2=market'
p125
aS'w+2=media'
p126
aS'w+2=month'
p127
aS'w+2=multi-drug'
p128
aS'w+2=normal'
p129
aS'w+2=of'
p130
aS'w+2=on'
p131
aS'w+2=scatter'
p132
aS'w+2=some'
p133
aS'w+2=the'
p134
aS'w+2=they'
p135
aS'w+2=to'
p136
aS'w+2=up'
p137
aS'w+2=we'
p138
aS'w+2=week'
p139
aS'w+2=whether'
p140
aS'w+2=wig-making'
p141
aS'w-1=,'
p142
aS'w-1=Guineans'
p143
aS'w-1=Party'
p144
aS'w-1=a'
p145
aS'w-1=ammunition'
p146
aS'w-1=as'
p147
aS'w-1=be'
p148
aS'w-1=by'
p149
aS'w-1=can'
p150
aS'w-1=care'
p151
aS'w-1=cause'
p152
aS'w-1=country'
p153
aS'w-1=coverage'
p154
aS'w-1=effect'
p155
aS'w-1=explanation'
p156
aS'w-1=figure'
p157
aS'w-1=for'
p158
aS'w-1=in'
p159
aS'w-1=income'
p160
aS'w-1=it'
p161
aS'w-1=label'
p162
aS'w-1=opinion'
p163
aS'w-1=or'
p164
aS'w-1=population'
p165
aS'w-1=president'
p166
aS'w-1=rate'
p167
aS'w-1=recovery'
p168
aS'w-1=result'
p169
aS'w-1=that'
p170
aS'w-1=they'
p171
aS'w-1=threat'
p172
aS'w-1=through'
p173
aS'w-1=viewpoint'
p174
aS'w-1=voter'
p175
aS'w-1=widely'
p176
aS'w-1=will'
p177
aS'w-1=with'
p178
aS'w-2=,'
p179
aS'w-2=.'
p180
aS'w-2=53'
p181
aS'w-2=Africa'
p182
aS'w-2=Democratic'
p183
aS'w-2=Ramadan'
p184
aS'w-2=and'
p185
aS'w-2=areasit'
p186
aS'w-2=because'
p187
aS'w-2=but'
p188
aS'w-2=change'
p189
aS'w-2=commission'
p190
aS'w-2=composition'
p191
aS'w-2=cost'
p192
aS'w-2=could'
p193
aS'w-2=country'
p194
aS'w-2=embark'
p195
aS'w-2=estimate'
p196
aS'w-2=express'
p197
aS'w-2=former'
p198
aS'w-2=go'
p199
aS'w-2=health'
p200
aS'w-2=hold'
p201
aS'w-2=in'
p202
aS'w-2=it'
p203
aS'w-2=mission'
p204
aS'w-2=of'
p205
aS'w-2=old'
p206
aS'w-2=opinion'
p207
aS'w-2=participant'
p208
aS'w-2=positive'
p209
aS'w-2=produce'
p210
aS'w-2=say'
p211
aS'w-2=situation'
p212
aS'w-2=strain'
p213
aS'w-2=temperature'
p214
aS'w-2=the'
p215
aS'w-2=there'
p216
aS'w-2=topic'
p217
aS'w-2=whose'
p218
aS'xcomp=range'
p219
asS'dtype'
p220
cnumpy
float64
p221
sS'vocabulary_'
p222
(dp223
g69
I60
sg120
I111
sg17
I8
sg154
I145
sg128
I119
sg16
I7
sg123
I114
sg13
I4
sg66
I57
sg50
I41
sg42
I33
sg115
I106
sg166
I157
sg217
I208
sg84
I75
sg73
I64
sg117
I108
sg54
I45
sg148
I139
sg204
I195
sg118
I109
sg96
I87
sg11
I2
sg198
I189
sg116
I107
sg122
I113
sg157
I148
sg173
I164
sg114
I105
sg218
I209
sg36
I27
sg43
I34
sg137
I128
sg12
I3
sg149
I140
sg146
I137
sg67
I58
sg205
I196
sg193
I184
sg194
I185
sg89
I80
sg85
I76
sg87
I78
sg72
I63
sg160
I151
sg109
I100
sg26
I17
sg174
I165
sg79
I70
sg27
I18
sg197
I188
sg144
I135
sg102
I93
sg37
I28
sg30
I21
sg150
I141
sg188
I179
sg151
I142
sg32
I23
sg98
I89
sg169
I160
sg21
I12
sg175
I166
sg177
I168
sg127
I118
sg211
I202
sg44
I35
sg185
I176
sg183
I174
sg134
I125
sg83
I74
sg94
I85
sg71
I62
sg88
I79
sg179
I170
sg180
I171
sg78
I69
sg53
I44
sg212
I203
sg155
I146
sg202
I193
sg153
I144
sg101
I92
sg70
I61
sg142
I133
sg192
I183
sg15
I6
sg215
I206
sg210
I201
sg140
I131
sg195
I186
sg167
I158
sg190
I181
sg178
I169
sg22
I13
sg52
I43
sg65
I56
sg184
I175
sg119
I110
sg200
I191
sg213
I204
sg136
I127
sg40
I31
sg163
I154
sg59
I50
sg103
I94
sg156
I147
sg129
I120
sg60
I51
sg145
I136
sg48
I39
sg206
I197
sg182
I173
sg181
I172
sg63
I54
sg45
I36
sg58
I49
sg49
I40
sg33
I24
sg162
I153
sg100
I91
sg41
I32
sg47
I38
sg18
I9
sg92
I83
sg132
I123
sg34
I25
sg168
I159
sg19
I10
sg25
I16
sg35
I26
sg135
I126
sg126
I117
sg29
I20
sg28
I19
sg201
I192
sg219
I210
sg91
I82
sg23
I14
sg199
I190
sg10
I1
sg172
I163
sg105
I96
sg68
I59
sg124
I115
sg106
I97
sg186
I177
sg152
I143
sg86
I77
sg75
I66
sg133
I124
sg56
I47
sg104
I95
sg196
I187
sg161
I152
sg46
I37
sg112
I103
sg61
I52
sg99
I90
sg38
I29
sg74
I65
sg57
I48
sg143
I134
sg108
I99
sg9
I0
sg80
I71
sg51
I42
sg24
I15
sg165
I156
sg95
I86
sg164
I155
sg97
I88
sg187
I178
sg176
I167
sg208
I199
sg171
I162
sg209
I200
sg20
I11
sg207
I198
sg214
I205
sg158
I149
sg81
I72
sg121
I112
sg82
I73
sg130
I121
sg191
I182
sg125
I116
sg111
I102
sg55
I46
sg110
I101
sg131
I122
sg113
I104
sg139
I130
sg64
I55
sg31
I22
sg90
I81
sg62
I53
sg159
I150
sg203
I194
sg138
I129
sg93
I84
sg216
I207
sg76
I67
sg39
I30
sg107
I98
sg147
I138
sg77
I68
sg170
I161
sg141
I132
sg189
I180
sg14
I5
ssS'separator'
p224
S'='
sS'sparse'
p225
I01
sb.