ccopy_reg
_reconstructor
p1
(csklearn.feature_extraction.dict_vectorizer
DictVectorizer
p2
c__builtin__
object
p3
NtRp4
(dp5
S'sort'
p6
I01
sS'feature_names_'
p7
(lp8
S'advcl=easiest'
p9
aS'advcl=kid'
p10
aS'advcl=kidnap'
p11
aS'advcl=might'
p12
aS'advmod=carefully'
p13
aS'advmod=constantly'
p14
aS'advmod=door'
p15
aS'advmod=exhaustively'
p16
aS'advmod=how'
p17
aS'advmod=just'
p18
aS'advmod=now'
p19
aS'advmod=poorly'
p20
aS'advmod=simply'
p21
aS'amod=East'
p22
aS'amod=agricultural'
p23
aS'amod=american'
p24
aS'amod=anti-anthrax'
p25
aS'amod=basic'
p26
aS'amod=best'
p27
aS'amod=better'
p28
aS'amod=biomedical'
p29
aS'amod=british'
p30
aS'amod=careful'
p31
aS'amod=clinical'
p32
aS'amod=current'
p33
aS'amod=detailed'
p34
aS'amod=embryonic'
p35
aS'amod=environmental'
p36
aS'amod=exhaustive'
p37
aS'amod=expensive'
p38
aS'amod=extensive'
p39
aS'amod=financial'
p40
aS'amod=fruitful'
p41
aS'amod=further'
p42
aS'amod=general'
p43
aS'amod=genetic'
p44
aS'amod=historical'
p45
aS'amod=independent'
p46
aS'amod=international'
p47
aS'amod=joint'
p48
aS'amod=latest'
p49
aS'amod=lead'
p50
aS'amod=legislative'
p51
aS'amod=little'
p52
aS'amod=medical'
p53
aS'amod=more'
p54
aS'amod=most'
p55
aS'amod=new'
p56
aS'amod=nonprofit'
p57
aS'amod=nuclear'
p58
aS'amod=nuclear-weapons'
p59
aS'amod=ongoing'
p60
aS'amod=oppose'
p61
aS'amod=own'
p62
aS'amod=previous'
p63
aS'amod=pro-poor'
p64
aS'amod=scholarly'
p65
aS'amod=scientific'
p66
aS'amod=sensitive'
p67
aS'amod=such'
p68
aS'amod=tokyo-based'
p69
aS'amod=top-ranked'
p70
aS'appos=R'
p71
aS'appos=immigration'
p72
aS'appos=legislation'
p73
aS'appos=people'
p74
aS'aux=be'
p75
aS'aux=have'
p76
aS'aux=to'
p77
aS'auxpass=be'
p78
aS'cc=and'
p79
aS'cc=or'
p80
aS'ccomp=have'
p81
aS'ccomp=talk'
p82
aS'complm=that'
p83
aS'conj=account'
p84
aS'conj=advancement'
p85
aS'conj=awareness'
p86
aS'conj=be'
p87
aS'conj=call'
p88
aS'conj=certification'
p89
aS'conj=collection'
p90
aS'conj=consultation'
p91
aS'conj=development'
p92
aS'conj=exchange'
p93
aS'conj=forecast'
p94
aS'conj=fund'
p95
aS'conj=ineffective'
p96
aS'conj=interview'
p97
aS'conj=make'
p98
aS'conj=most'
p99
aS'conj=position'
p100
aS'conj=preparation'
p101
aS'conj=preservation'
p102
aS'conj=produce'
p103
aS'conj=profit'
p104
aS'conj=recommendation'
p105
aS'conj=record'
p106
aS'conj=say'
p107
aS'conj=spend'
p108
aS'conj=target'
p109
aS'conj=teaching'
p110
aS'conj=technology'
p111
aS'conj=training'
p112
aS'conj=try'
p113
aS'conj=verse'
p114
aS'conj=work'
p115
aS'cop=be'
p116
aS'dep=Portland'
p117
aS'dep=add'
p118
aS'dep=need'
p119
aS'dep=passionate'
p120
aS'dep=reality'
p121
aS'det=a'
p122
aS'det=any'
p123
aS'det=some'
p124
aS'det=the'
p125
aS'det=this'
p126
aS'det=those'
p127
aS'dobj=Islam'
p128
aS'dobj=abuse'
p129
aS'dobj=archive'
p130
aS'dobj=case'
p131
aS'dobj=character'
p132
aS'dobj=construction'
p133
aS'dobj=detail'
p134
aS'dobj=development'
p135
aS'dobj=effect'
p136
aS'dobj=everything'
p137
aS'dobj=history'
p138
aS'dobj=law'
p139
aS'dobj=lighting'
p140
aS'dobj=ossuary'
p141
aS'dobj=plan'
p142
aS'dobj=report'
p143
aS'dobj=revolt'
p144
aS'dobj=risk'
p145
aS'dobj=role'
p146
aS'dobj=seafood'
p147
aS'dobj=size'
p148
aS'dobj=station'
p149
aS'dobj=story'
p150
aS'dobj=subject'
p151
aS'dobj=thing'
p152
aS'dobj=vaccine'
p153
aS'dobj=virus'
p154
aS'dobj=world'
p155
aS'infmod=produce'
p156
aS'infmod=stop'
p157
aS'mark=while'
p158
aS'nn=AIDS'
p159
aS'nn=Environmental'
p160
aS'nn=Independent'
p161
aS'nn=Nations'
p162
aS'nn=New'
p163
aS'nn=PRS'
p164
aS'nn=audience'
p165
aS'nn=battery'
p166
aS'nn=biofuel'
p167
aS'nn=cancer'
p168
aS'nn=cell'
p169
aS'nn=change'
p170
aS'nn=climate'
p171
aS'nn=crop'
p172
aS'nn=drug'
p173
aS'nn=energy'
p174
aS'nn=field'
p175
aS'nn=genome'
p176
aS'nn=government'
p177
aS'nn=health'
p178
aS'nn=laboratory'
p179
aS'nn=landmark'
p180
aS'nn=liver'
p181
aS'nn=maintenance'
p182
aS'nn=market'
p183
aS'nn=paralegal'
p184
aS'nn=pioneer'
p185
aS'nn=planning'
p186
aS'nn=plant'
p187
aS'nn=rice'
p188
aS'nn=sid'
p189
aS'nn=space'
p190
aS'nn=station'
p191
aS'nn=tb'
p192
aS'nn=tuberculosis'
p193
aS'nn=vaccine'
p194
aS'nsubj=#PRP#'
p195
aS'nsubj=Flum'
p196
aS'nsubj=Google'
p197
aS'nsubj=Neistat'
p198
aS'nsubj=Neumann'
p199
aS'nsubj=Parker'
p200
aS'nsubj=Pearl'
p201
aS'nsubj=Smolenyak'
p202
aS'nsubj=Tehran'
p203
aS'nsubj=academic'
p204
aS'nsubj=author'
p205
aS'nsubj=director'
p206
aS'nsubj=passion'
p207
aS'nsubj=which'
p208
aS'nsubjpass=#PRP#'
p209
aS'partmod=aim'
p210
aS'partmod=conduct'
p211
aS'partmod=do'
p212
aS'partmod=involve'
p213
aS'partmod=need'
p214
aS'partmod=think'
p215
aS'poss=#PRP#'
p216
aS'poss=Caspi'
p217
aS'poss=China'
p218
aS'poss=Christian'
p219
aS'poss=Fong'
p220
aS'poss=GfK'
p221
aS'poss=Goyal'
p222
aS'poss=Kock'
p223
aS'poss=Korr'
p224
aS'poss=Levine'
p225
aS'poss=consortium'
p226
aS'poss=group'
p227
aS'predet=all'
p228
aS'prep=about'
p229
aS'prep=among'
p230
aS'prep=as'
p231
aS'prep=at'
p232
aS'prep=behind'
p233
aS'prep=by'
p234
aS'prep=for'
p235
aS'prep=from'
p236
aS'prep=in'
p237
aS'prep=include'
p238
aS'prep=of'
p239
aS'prep=on'
p240
aS'prep=over'
p241
aS'prep=since'
p242
aS'prep=than'
p243
aS'prep=to'
p244
aS'prep=toward'
p245
aS'rcmod=beneficial'
p246
aS'rcmod=call'
p247
aS'rcmod=conduct'
p248
aS'rcmod=have'
p249
aS'rcmod=pick'
p250
aS'rcmod=realize'
p251
aS'rcmod=show'
p252
aS'w+1=,'
p253
aS'w+1=-rrb-'
p254
aS'w+1=.'
p255
aS'w+1=?'
p256
aS'w+1=Afghan'
p257
aS'w+1=Arch'
p258
aS'w+1=I'
p259
aS'w+1=Islam'
p260
aS'w+1=Sao'
p261
aS'w+1=Yosemite'
p262
aS'w+1=a'
p263
aS'w+1=about'
p264
aS'w+1=agency'
p265
aS'w+1=aim'
p266
aS'w+1=al-qaida'
p267
aS'w+1=all'
p268
aS'w+1=also'
p269
aS'w+1=analyst'
p270
aS'w+1=analyze'
p271
aS'w+1=and'
p272
aS'w+1=appear'
p273
aS'w+1=arm'
p274
aS'w+1=as'
p275
aS'w+1=associate'
p276
aS'w+1=at'
p277
aS'w+1=be'
p278
aS'w+1=before'
p279
aS'w+1=begin'
p280
aS'w+1=believe'
p281
aS'w+1=but'
p282
aS'w+1=by'
p283
aS'w+1=center'
p284
aS'w+1=come'
p285
aS'w+1=company'
p286
aS'w+1=conference'
p287
aS'w+1=confirm'
p288
aS'w+1=consultant'
p289
aS'w+1=continue'
p290
aS'w+1=coordinator'
p291
aS'w+1=could'
p292
aS'w+1=director'
p293
aS'w+1=do'
p294
aS'w+1=dog'
p295
aS'w+1=economic'
p296
aS'w+1=economist'
p297
aS'w+1=effort'
p298
aS'w+1=energy'
p299
aS'w+1=everything'
p300
aS'w+1=experiment'
p301
aS'w+1=facility'
p302
aS'w+1=fellow'
p303
aS'w+1=field'
p304
aS'w+1=find'
p305
aS'w+1=finding'
p306
aS'w+1=firm'
p307
aS'w+1=for'
p308
aS'w+1=from'
p309
aS'w+1=front'
p310
aS'w+1=funding'
p311
aS'w+1=group'
p312
aS'w+1=have'
p313
aS'w+1=he'
p314
aS'w+1=here'
p315
aS'w+1=human'
p316
aS'w+1=if'
p317
aS'w+1=in'
p318
aS'w+1=indicate'
p319
aS'w+1=institute'
p320
aS'w+1=institution'
p321
aS'w+1=into'
p322
aS'w+1=involve'
p323
aS'w+1=it'
p324
aS'w+1=laboratory'
p325
aS'w+1=lead'
p326
aS'w+1=leader'
p327
aS'w+1=library'
p328
aS'w+1=may'
p329
aS'w+1=method'
p330
aS'w+1=module'
p331
aS'w+1=money'
p332
aS'w+1=more'
p333
aS'w+1=need'
p334
aS'w+1=of'
p335
aS'w+1=on'
p336
aS'w+1=or'
p337
aS'w+1=organization'
p338
aS'w+1=other'
p339
aS'w+1=outcome'
p340
aS'w+1=outpost'
p341
aS'w+1=over'
p342
aS'w+1=paper'
p343
aS'w+1=papers'
p344
aS'w+1=partner'
p345
aS'w+1=partnership'
p346
aS'w+1=possible'
p347
aS'w+1=program'
p348
aS'w+1=project'
p349
aS'w+1=promising'
p350
aS'w+1=purpose'
p351
aS'w+1=reactor'
p352
aS'w+1=reinforce'
p353
aS'w+1=reveal'
p354
aS'w+1=say'
p355
aS'w+1=scientist'
p356
aS'w+1=seafood'
p357
aS'w+1=seem'
p358
aS'w+1=she'
p359
aS'w+1=ship'
p360
aS'w+1=show'
p361
aS'w+1=spending'
p362
aS'w+1=stage'
p363
aS'w+1=study'
p364
aS'w+1=submarine'
p365
aS'w+1=suggest'
p366
aS'w+1=team'
p367
aS'w+1=technique'
p368
aS'w+1=that'
p369
aS'w+1=the'
p370
aS'w+1=they'
p371
aS'w+1=those'
p372
aS'w+1=to'
p373
aS'w+1=tool'
p374
aS'w+1=toward'
p375
aS'w+1=underway'
p376
aS'w+1=unit'
p377
aS'w+1=vaccine'
p378
aS'w+1=voyage'
p379
aS'w+1=we'
p380
aS'w+1=what'
p381
aS'w+1=which'
p382
aS'w+1=will'
p383
aS'w+1=wing'
p384
aS'w+1=within'
p385
aS'w+1=worldwide'
p386
aS'w+1=would'
p387
aS"w+2='"
p388
aS"w+2=''"
p389
aS"w+2='s"
p390
aS'w+2=,'
p391
aS'w+2=--'
p392
aS'w+2=-lrb-'
p393
aS'w+2=.'
p394
aS'w+2=110'
p395
aS'w+2=14'
p396
aS'w+2=2003'
p397
aS'w+2=;'
p398
aS'w+2=Aeras'
p399
aS'w+2=Africa'
p400
aS'w+2=Britain'
p401
aS'w+2=C.V.'
p402
aS'w+2=Center'
p403
aS'w+2=Centre'
p404
aS'w+2=Chatham'
p405
aS'w+2=Dr.'
p406
aS'w+2=Global'
p407
aS'w+2=Heidi'
p408
aS'w+2=Howard'
p409
aS'w+2=Human'
p410
aS'w+2=I'
p411
aS'w+2=Igor'
p412
aS'w+2=India'
p413
aS'w+2=International'
p414
aS'w+2=Jeong'
p415
aS'w+2=Johns'
p416
aS'w+2=Latinos'
p417
aS'w+2=Levey'
p418
aS'w+2=Mars'
p419
aS'w+2=Millero'
p420
aS'w+2=Motion'
p421
aS'w+2=North'
p422
aS'w+2=Oxford'
p423
aS'w+2=PASSIA'
p424
aS'w+2=Puddington'
p425
aS'w+2=RPG'
p426
aS'w+2=Rabobank'
p427
aS'w+2=Tad'
p428
aS'w+2=Thomas'
p429
aS'w+2=Tome'
p430
aS'w+2=a'
p431
aS'w+2=abortion'
p432
aS'w+2=access'
p433
aS'w+2=african'
p434
aS'w+2=aircraft'
p435
aS'w+2=all'
p436
aS'w+2=allow'
p437
aS'w+2=already'
p438
aS'w+2=also'
p439
aS'w+2=alternative'
p440
aS'w+2=and'
p441
aS'w+2=another'
p442
aS'w+2=around'
p443
aS'w+2=as'
p444
aS'w+2=at'
p445
aS'w+2=australian'
p446
aS'w+2=back'
p447
aS'w+2=banner'
p448
aS'w+2=base'
p449
aS'w+2=be'
p450
aS'w+2=because'
p451
aS'w+2=believe'
p452
aS'w+2=better'
p453
aS'w+2=boost'
p454
aS'w+2=breed'
p455
aS'w+2=broad'
p456
aS'w+2=build'
p457
aS'w+2=but'
p458
aS'w+2=by'
p459
aS'w+2=call'
p460
aS'w+2=carry'
p461
aS'w+2=case'
p462
aS'w+2=certification'
p463
aS'w+2=cevipov'
p464
aS'w+2=character'
p465
aS'w+2=child'
p466
aS'w+2=civilian'
p467
aS'w+2=clean-energy'
p468
aS'w+2=climate'
p469
aS'w+2=collection'
p470
aS'w+2=combate'
p471
aS'w+2=commercial'
p472
aS'w+2=conduct'
p473
aS'w+2=consider'
p474
aS'w+2=construction'
p475
aS'w+2=consultation'
p476
aS'w+2=continue'
p477
aS'w+2=control'
p478
aS'w+2=destroy'
p479
aS'w+2=develop'
p480
aS'w+2=development'
p481
aS'w+2=divest'
p482
aS'w+2=do'
p483
aS'w+2=effect'
p484
aS'w+2=energy'
p485
aS'w+2=enormous'
p486
aS'w+2=family'
p487
aS'w+2=fewer'
p488
aS'w+2=file'
p489
aS'w+2=find'
p490
aS'w+2=first'
p491
aS'w+2=for'
p492
aS'w+2=forecast'
p493
aS'w+2=from'
p494
aS'w+2=fundamentally'
p495
aS'w+2=give'
p496
aS'w+2=global'
p497
aS'w+2=grow'
p498
aS'w+2=have'
p499
aS'w+2=he'
p500
aS'w+2=help'
p501
aS'w+2=history'
p502
aS'w+2=how'
p503
aS'w+2=hundred'
p504
aS'w+2=hybrid'
p505
aS'w+2=identify'
p506
aS'w+2=immoral'
p507
aS'w+2=in'
p508
aS'w+2=include'
p509
aS'w+2=increase'
p510
aS'w+2=ineffective'
p511
aS'w+2=interview'
p512
aS'w+2=invest'
p513
aS'w+2=involve'
p514
aS'w+2=iron'
p515
aS'w+2=it'
p516
aS'w+2=jailbreak'
p517
aS'w+2=know'
p518
aS'w+2=lab'
p519
aS'w+2=law'
p520
aS'w+2=lead'
p521
aS'w+2=legislation'
p522
aS'w+2=limitless'
p523
aS'w+2=long'
p524
aS'w+2=look'
p525
aS'w+2=many'
p526
aS'w+2=micro-organism'
p527
aS'w+2=might'
p528
aS'w+2=monitoring'
p529
aS'w+2=morally'
p530
aS'w+2=most'
p531
aS'w+2=mouse'
p532
aS'w+2=multiple'
p533
aS'w+2=need'
p534
aS'w+2=neonatal'
p535
aS'w+2=new'
p536
aS'w+2=next'
p537
aS'w+2=no'
p538
aS'w+2=not'
p539
aS'w+2=obese'
p540
aS'w+2=of'
p541
aS'w+2=on'
p542
aS'w+2=one'
p543
aS'w+2=option'
p544
aS'w+2=ossuary'
p545
aS'w+2=other'
p546
aS'w+2=over'
p547
aS'w+2=pain'
p548
aS'w+2=people'
p549
aS'w+2=perhaps'
p550
aS'w+2=physiology'
p551
aS'w+2=pick'
p552
aS'w+2=plant'
p553
aS'w+2=plug-in'
p554
aS'w+2=preparation'
p555
aS'w+2=present'
p556
aS'w+2=preservation'
p557
aS'w+2=probably'
p558
aS'w+2=produce'
p559
aS'w+2=professional'
p560
aS'w+2=promote'
p561
aS'w+2=property'
p562
aS'w+2=provide'
p563
aS'w+2=public'
p564
aS'w+2=publish'
p565
aS'w+2=reality'
p566
aS'w+2=realize'
p567
aS'w+2=record'
p568
aS'w+2=release'
p569
aS'w+2=rights'
p570
aS'w+2=risk'
p571
aS'w+2=role'
p572
aS'w+2=say'
p573
aS'w+2=school'
p574
aS'w+2=she'
p575
aS'w+2=show'
p576
aS'w+2=size'
p577
aS'w+2=some'
p578
aS'w+2=space'
p579
aS'w+2=spinal'
p580
aS'w+2=start'
p581
aS'w+2=station'
p582
aS'w+2=stem'
p583
aS'w+2=story'
p584
aS'w+2=strand'
p585
aS'w+2=strong'
p586
aS'w+2=student'
p587
aS'w+2=study'
p588
aS'w+2=subject'
p589
aS'w+2=summarize'
p590
aS'w+2=support'
p591
aS'w+2=swiss-based'
p592
aS'w+2=tackle'
p593
aS'w+2=teaching'
p594
aS'w+2=than'
p595
aS'w+2=that'
p596
aS'w+2=the'
p597
aS'w+2=then'
p598
aS'w+2=they'
p599
aS'w+2=thing'
p600
aS'w+2=this'
p601
aS'w+2=those'
p602
aS'w+2=to'
p603
aS'w+2=training'
p604
aS'w+2=try'
p605
aS'w+2=underway'
p606
aS'w+2=unveil'
p607
aS'w+2=use'
p608
aS'w+2=vex'
p609
aS'w+2=virus'
p610
aS'w+2=waver'
p611
aS'w+2=we'
p612
aS'w+2=west'
p613
aS'w+2=whale'
p614
aS'w+2=what'
p615
aS'w+2=while'
p616
aS'w+2=will'
p617
aS'w+2=with'
p618
aS'w+2=wonderful'
p619
aS'w+2=worldwide'
p620
aS'w+2=would'
p621
aS"w-1=''"
p622
aS"w-1='s"
p623
aS'w-1=,'
p624
aS'w-1=-lrb-'
p625
aS'w-1=.'
p626
aS'w-1=17'
p627
aS'w-1=AIDS'
p628
aS'w-1=America'
p629
aS'w-1=Americans'
p630
aS'w-1=D.C.'
p631
aS'w-1=East'
p632
aS'w-1=Environmental'
p633
aS'w-1=Federal'
p634
aS'w-1=Foundation'
p635
aS'w-1=Group'
p636
aS'w-1=Holocaust'
p637
aS'w-1=House'
p638
aS'w-1=I'
p639
aS'w-1=Independent'
p640
aS'w-1=Institution'
p641
aS'w-1=Ipsos'
p642
aS'w-1=John'
p643
aS'w-1=London'
p644
aS'w-1=Nations'
p645
aS'w-1=Neistat'
p646
aS'w-1=New'
p647
aS'w-1=Studies'
p648
aS'w-1=Taiwan'
p649
aS'w-1=U.S.'
p650
aS'w-1=WCS'
p651
aS'w-1=Washington'
p652
aS'w-1=a'
p653
aS'w-1=about'
p654
aS'w-1=african'
p655
aS'w-1=agricultural'
p656
aS'w-1=american'
p657
aS'w-1=and'
p658
aS'w-1=animal'
p659
aS'w-1=annual'
p660
aS'w-1=any'
p661
aS'w-1=as'
p662
aS'w-1=audience'
p663
aS'w-1=basic'
p664
aS'w-1=battery'
p665
aS'w-1=be'
p666
aS'w-1=begin'
p667
aS'w-1=best'
p668
aS'w-1=better'
p669
aS'w-1=biofuel'
p670
aS'w-1=biomedical'
p671
aS'w-1=british'
p672
aS'w-1=brussels-based'
p673
aS'w-1=build'
p674
aS'w-1=but'
p675
aS'w-1=by'
p676
aS'w-1=cancer'
p677
aS'w-1=careful'
p678
aS'w-1=carefully'
p679
aS'w-1=cell'
p680
aS'w-1=change'
p681
aS'w-1=climate'
p682
aS'w-1=clinical'
p683
aS'w-1=conduct'
p684
aS'w-1=conservative'
p685
aS'w-1=constantly'
p686
aS'w-1=continue'
p687
aS'w-1=country'
p688
aS'w-1=crop'
p689
aS'w-1=current'
p690
aS'w-1=delhi-based'
p691
aS'w-1=detailed'
p692
aS'w-1=do'
p693
aS'w-1=drug'
p694
aS'w-1=e-business'
p695
aS'w-1=early'
p696
aS'w-1=economic'
p697
aS'w-1=encourage'
p698
aS'w-1=energy'
p699
aS'w-1=environmental'
p700
aS'w-1=exhaustive'
p701
aS'w-1=exhaustively'
p702
aS'w-1=expensive'
p703
aS'w-1=extensive'
p704
aS'w-1=federal'
p705
aS'w-1=field'
p706
aS'w-1=for'
p707
aS'w-1=fruitful'
p708
aS'w-1=fuel'
p709
aS'w-1=fund'
p710
aS'w-1=further'
p711
aS'w-1=general'
p712
aS'w-1=genetic'
p713
aS'w-1=geneva-based'
p714
aS'w-1=genome'
p715
aS'w-1=global'
p716
aS'w-1=government'
p717
aS'w-1=have'
p718
aS'w-1=he'
p719
aS'w-1=health'
p720
aS'w-1=help'
p721
aS'w-1=historical'
p722
aS'w-1=hiv'
p723
aS'w-1=immigration'
p724
aS'w-1=in'
p725
aS'w-1=include'
p726
aS'w-1=independent'
p727
aS'w-1=indian'
p728
aS'w-1=injury'
p729
aS'w-1=international'
p730
aS'w-1=investment'
p731
aS'w-1=involve'
p732
aS'w-1=italian'
p733
aS'w-1=its'
p734
aS'w-1=joint'
p735
aS'w-1=laboratory'
p736
aS'w-1=landmark'
p737
aS'w-1=latest'
p738
aS'w-1=lead'
p739
aS'w-1=legislative'
p740
aS'w-1=less'
p741
aS'w-1=little'
p742
aS'w-1=liver'
p743
aS'w-1=london-based'
p744
aS'w-1=maintenance'
p745
aS'w-1=malaysian'
p746
aS'w-1=market'
p747
aS'w-1=medical'
p748
aS'w-1=modern'
p749
aS'w-1=month'
p750
aS'w-1=more'
p751
aS'w-1=most'
p752
aS'w-1=my'
p753
aS'w-1=nairobi-based'
p754
aS'w-1=national'
p755
aS'w-1=nationwide'
p756
aS'w-1=new'
p757
aS'w-1=non-partisan'
p758
aS'w-1=non-profit'
p759
aS'w-1=nonprofit'
p760
aS'w-1=now'
p761
aS'w-1=nuclear'
p762
aS'w-1=nuclear-weapons'
p763
aS'w-1=of'
p764
aS'w-1=on'
p765
aS'w-1=ongoing'
p766
aS'w-1=opinion'
p767
aS'w-1=or'
p768
aS'w-1=own'
p769
aS'w-1=palestinian'
p770
aS'w-1=paris-based'
p771
aS'w-1=pioneer'
p772
aS'w-1=planning'
p773
aS'w-1=plant'
p774
aS'w-1=policy'
p775
aS'w-1=poorly'
p776
aS'w-1=previous'
p777
aS'w-1=private'
p778
aS'w-1=pro-poor'
p779
aS'w-1=promote'
p780
aS'w-1=public-policy'
p781
aS'w-1=publicly-funded'
p782
aS'w-1=publish'
p783
aS'w-1=rice'
p784
aS'w-1=risk'
p785
aS'w-1=say'
p786
aS'w-1=scholarly'
p787
aS'w-1=scientific'
p788
aS'w-1=scientist'
p789
aS'w-1=security'
p790
aS'w-1=senior'
p791
aS'w-1=sensitive'
p792
aS'w-1=several'
p793
aS'w-1=share'
p794
aS'w-1=she'
p795
aS'w-1=sid'
p796
aS'w-1=simply'
p797
aS'w-1=some'
p798
aS'w-1=space'
p799
aS'w-1=station'
p800
aS'w-1=such'
p801
aS'w-1=tb'
p802
aS'w-1=that'
p803
aS'w-1=the'
p804
aS'w-1=they'
p805
aS'w-1=this'
p806
aS'w-1=three'
p807
aS'w-1=to'
p808
aS'w-1=tokyo-based'
p809
aS'w-1=top-ranked'
p810
aS'w-1=tuberculosis'
p811
aS'w-1=turkish'
p812
aS'w-1=u.s.-built'
p813
aS'w-1=university'
p814
aS'w-1=unusual'
p815
aS'w-1=up'
p816
aS'w-1=useful'
p817
aS'w-1=vaccine'
p818
aS'w-1=virus'
p819
aS'w-1=washington-based'
p820
aS'w-1=we'
p821
aS'w-1=weapon'
p822
aS'w-1=where'
p823
aS'w-1=which'
p824
aS'w-1=while'
p825
aS'w-1=with'
p826
aS'w-1=year'
p827
aS'w-1=zoo-based'
p828
aS"w-2=''"
p829
aS"w-2='s"
p830
aS'w-2=,'
p831
aS'w-2=-'
p832
aS'w-2=.'
p833
aS'w-2=13'
p834
aS'w-2=?'
p835
aS'w-2=AIDS'
p836
aS'w-2=Allen'
p837
aS'w-2=America'
p838
aS'w-2=Anna'
p839
aS'w-2=Barrington'
p840
aS'w-2=Brookings'
p841
aS'w-2=Brown'
p842
aS'w-2=Caspi'
p843
aS'w-2=Chatham'
p844
aS'w-2=Christian'
p845
aS'w-2=Crisis'
p846
aS'w-2=Development'
p847
aS'w-2=Fong'
p848
aS'w-2=Foreign'
p849
aS'w-2=Goyal'
p850
aS'w-2=Heritage'
p851
aS'w-2=Inshas'
p852
aS'w-2=Jocobovici'
p853
aS'w-2=Katz'
p854
aS'w-2=Kock'
p855
aS'w-2=Levine'
p856
aS'w-2=London'
p857
aS'w-2=Masaka'
p858
aS'w-2=Middle'
p859
aS'w-2=Neumann'
p860
aS'w-2=New'
p861
aS'w-2=Oregon'
p862
aS'w-2=PRS'
p863
aS'w-2=Pearl'
p864
aS'w-2=Salomon'
p865
aS'w-2=Smolenyak'
p866
aS'w-2=Sumner'
p867
aS'w-2=Taiwan'
p868
aS'w-2=Tehran'
p869
aS'w-2=U.S.'
p870
aS'w-2=United'
p871
aS'w-2=Washington'
p872
aS'w-2=a'
p873
aS'w-2=about'
p874
aS'w-2=african'
p875
aS'w-2=after'
p876
aS'w-2=alternative'
p877
aS'w-2=american'
p878
aS'w-2=amount'
p879
aS'w-2=analysis'
p880
aS'w-2=and'
p881
aS'w-2=anti-anthrax'
p882
aS'w-2=appropriate'
p883
aS'w-2=area'
p884
aS'w-2=as'
p885
aS'w-2=at'
p886
aS'w-2=base'
p887
aS'w-2=be'
p888
aS'w-2=because'
p889
aS'w-2=before'
p890
aS'w-2=billion'
p891
aS'w-2=body'
p892
aS'w-2=breast'
p893
aS'w-2=british'
p894
aS'w-2=build'
p895
aS'w-2=burden'
p896
aS'w-2=but'
p897
aS'w-2=by'
p898
aS'w-2=call'
p899
aS'w-2=cancer'
p900
aS'w-2=chief'
p901
aS'w-2=climate'
p902
aS'w-2=co-ordinate'
p903
aS'w-2=colleague'
p904
aS'w-2=conduct'
p905
aS'w-2=consortium'
p906
aS'w-2=continue'
p907
aS'w-2=control'
p908
aS'w-2=cord'
p909
aS'w-2=could'
p910
aS'w-2=country'
p911
aS'w-2=cream'
p912
aS'w-2=decade'
p913
aS'w-2=dedicate'
p914
aS'w-2=dedicated'
p915
aS'w-2=describe'
p916
aS'w-2=despite'
p917
aS'w-2=diabetes'
p918
aS'w-2=diplomacy'
p919
aS'w-2=director'
p920
aS'w-2=discovery'
p921
aS'w-2=discussion'
p922
aS'w-2=do'
p923
aS'w-2=doctor'
p924
aS'w-2=dream'
p925
aS'w-2=due'
p926
aS'w-2=e-mail'
p927
aS'w-2=effective'
p928
aS'w-2=embryo'
p929
aS'w-2=emphasis'
p930
aS'w-2=enrichment'
p931
aS'w-2=equipment'
p932
aS'w-2=european'
p933
aS'w-2=ever'
p934
aS'w-2=facility'
p935
aS'w-2=family'
p936
aS'w-2=financial'
p937
aS'w-2=finch'
p938
aS'w-2=focus'
p939
aS'w-2=for'
p940
aS'w-2=foreign'
p941
aS'w-2=four'
p942
aS'w-2=from'
p943
aS'w-2=fund'
p944
aS'w-2=funding'
p945
aS'w-2=group'
p946
aS'w-2=halt'
p947
aS'w-2=handgun'
p948
aS'w-2=hardly'
p949
aS'w-2=harvest'
p950
aS'w-2=have'
p951
aS'w-2=he'
p952
aS'w-2=head'
p953
aS'w-2=hear'
p954
aS'w-2=help'
p955
aS'w-2=highlight'
p956
aS'w-2=hope'
p957
aS'w-2=how'
p958
aS'w-2=huge'
p959
aS'w-2=if'
p960
aS'w-2=in'
p961
aS'w-2=independent'
p962
aS'w-2=international'
p963
aS'w-2=into'
p964
aS'w-2=invest'
p965
aS'w-2=investment'
p966
aS'w-2=involve'
p967
aS'w-2=irony'
p968
aS'w-2=just'
p969
aS'w-2=kind'
p970
aS'w-2=largest'
p971
aS'w-2=latest'
p972
aS'w-2=lead'
p973
aS'w-2=leave'
p974
aS'w-2=lot'
p975
aS'w-2=love'
p976
aS'w-2=main'
p977
aS'w-2=malaria'
p978
aS'w-2=mean'
p979
aS'w-2=million'
p980
aS'w-2=money'
p981
aS'w-2=more'
p982
aS'w-2=most'
p983
aS'w-2=much'
p984
aS'w-2=national'
p985
aS'w-2=nearby'
p986
aS'w-2=need'
p987
aS'w-2=negotiation'
p988
aS'w-2=nevertheless'
p989
aS'w-2=non-profit'
p990
aS'w-2=now'
p991
aS'w-2=nuclear'
p992
aS'w-2=of'
p993
aS'w-2=official'
p994
aS'w-2=on'
p995
aS'w-2=out'
p996
aS'w-2=outlaw'
p997
aS'w-2=outpost'
p998
aS'w-2=oversee'
p999
aS'w-2=papers'
p1000
aS'w-2=pay'
p1001
aS'w-2=people'
p1002
aS'w-2=photos.com'
p1003
aS'w-2=pleasure'
p1004
aS'w-2=present'
p1005
aS'w-2=president'
p1006
aS'w-2=private'
p1007
aS'w-2=program'
p1008
aS'w-2=public'
p1009
aS'w-2=publish'
p1010
aS'w-2=quality'
p1011
aS'w-2=really'
p1012
aS'w-2=recognize'
p1013
aS'w-2=reinvest'
p1014
aS'w-2=require'
p1015
aS'w-2=rewire'
p1016
aS'w-2=say'
p1017
aS'w-2=scientist'
p1018
aS'w-2=series'
p1019
aS'w-2=service'
p1020
aS'w-2=six'
p1021
aS'w-2=six-year'
p1022
aS'w-2=some'
p1023
aS'w-2=sort'
p1024
aS'w-2=south'
p1025
aS'w-2=space'
p1026
aS'w-2=spearhead'
p1027
aS'w-2=state'
p1028
aS'w-2=statement'
p1029
aS'w-2=stem'
p1030
aS'w-2=step'
p1031
aS'w-2=strategy'
p1032
aS'w-2=stream'
p1033
aS'w-2=study'
p1034
aS'w-2=such'
p1035
aS'w-2=testament'
p1036
aS'w-2=that'
p1037
aS'w-2=the'
p1038
aS'w-2=there'
p1039
aS'w-2=they'
p1040
aS'w-2=think-tank'
p1041
aS'w-2=this'
p1042
aS'w-2=to'
p1043
aS'w-2=two'
p1044
aS'w-2=u.s.-based'
p1045
aS'w-2=use'
p1046
aS'w-2=useful'
p1047
aS'w-2=vaccine'
p1048
aS'w-2=we'
p1049
aS'w-2=week'
p1050
aS'w-2=where'
p1051
aS'w-2=will'
p1052
aS'w-2=with'
p1053
aS'w-2=worker'
p1054
aS'w-2=world'
p1055
aS'w-2=year'
p1056
aS'w-2=york-based'
p1057
aS'xcomp=relate'
p1058
asS'dtype'
p1059
cnumpy
float64
p1060
sS'vocabulary_'
p1061
(dp1062
g949
I940
sg299
I290
sg481
I472
sg139
I130
sg598
I589
sg891
I882
sg184
I175
sg174
I165
sg868
I859
sg610
I601
sg795
I786
sg779
I770
sg94
I85
sg950
I941
sg474
I465
sg1049
I1040
sg1002
I993
sg635
I626
sg968
I959
sg354
I345
sg248
I239
sg691
I682
sg249
I240
sg537
I528
sg835
I826
sg458
I449
sg467
I458
sg379
I370
sg103
I94
sg512
I503
sg198
I189
sg376
I367
sg357
I348
sg608
I599
sg999
I990
sg969
I960
sg656
I647
sg697
I688
sg987
I978
sg887
I878
sg619
I610
sg1040
I1031
sg243
I234
sg234
I225
sg655
I646
sg911
I902
sg533
I524
sg369
I360
sg539
I530
sg88
I79
sg37
I28
sg815
I806
sg273
I264
sg465
I456
sg362
I353
sg747
I738
sg991
I982
sg786
I777
sg252
I243
sg466
I457
sg449
I440
sg945
I936
sg757
I748
sg582
I573
sg51
I42
sg959
I950
sg749
I740
sg759
I750
sg588
I579
sg943
I934
sg939
I930
sg505
I496
sg18
I9
sg577
I568
sg454
I445
sg115
I106
sg428
I419
sg883
I874
sg239
I230
sg586
I577
sg676
I667
sg916
I907
sg166
I157
sg666
I657
sg417
I408
sg414
I405
sg462
I453
sg348
I339
sg936
I927
sg966
I957
sg1038
I1029
sg233
I224
sg561
I552
sg359
I350
sg395
I386
sg640
I631
sg193
I184
sg20
I11
sg890
I881
sg1051
I1042
sg457
I448
sg869
I860
sg224
I215
sg36
I27
sg770
I761
sg684
I675
sg137
I128
sg506
I497
sg592
I583
sg971
I962
sg55
I46
sg335
I326
sg641
I632
sg818
I809
sg336
I327
sg882
I873
sg464
I455
sg341
I332
sg491
I482
sg432
I423
sg574
I565
sg337
I328
sg798
I789
sg144
I135
sg451
I442
sg734
I725
sg718
I709
sg412
I403
sg254
I245
sg756
I747
sg393
I384
sg834
I825
sg332
I323
sg508
I499
sg82
I73
sg615
I606
sg516
I507
sg790
I781
sg490
I481
sg114
I105
sg493
I484
sg81
I72
sg861
I852
sg948
I939
sg229
I220
sg128
I119
sg83
I74
sg562
I553
sg682
I673
sg523
I514
sg998
I989
sg799
I790
sg217
I208
sg89
I80
sg814
I805
sg631
I622
sg1032
I1023
sg895
I886
sg717
I708
sg1026
I1017
sg188
I179
sg590
I581
sg629
I620
sg1011
I1002
sg678
I669
sg1037
I1028
sg989
I980
sg370
I361
sg524
I515
sg127
I118
sg559
I550
sg425
I416
sg940
I931
sg450
I441
sg673
I664
sg371
I362
sg153
I144
sg946
I937
sg106
I97
sg372
I363
sg513
I504
sg632
I623
sg929
I920
sg209
I200
sg237
I228
sg448
I439
sg1041
I1032
sg855
I846
sg308
I299
sg45
I36
sg654
I645
sg614
I605
sg630
I621
sg735
I726
sg551
I542
sg310
I301
sg152
I143
sg311
I302
sg274
I265
sg713
I704
sg356
I347
sg716
I707
sg129
I120
sg385
I376
sg327
I318
sg328
I319
sg1034
I1025
sg568
I559
sg360
I351
sg1029
I1020
sg695
I686
sg108
I99
sg98
I89
sg685
I676
sg272
I263
sg165
I156
sg736
I727
sg142
I133
sg927
I918
sg438
I429
sg510
I501
sg503
I494
sg872
I863
sg1005
I996
sg837
I828
sg492
I483
sg339
I330
sg865
I856
sg636
I627
sg874
I865
sg801
I792
sg780
I771
sg842
I833
sg364
I355
sg126
I117
sg384
I375
sg110
I101
sg745
I736
sg725
I716
sg893
I884
sg612
I603
sg908
I899
sg1058
I1049
sg866
I857
sg87
I78
sg349
I340
sg804
I795
sg242
I233
sg429
I420
sg657
I648
sg696
I687
sg1048
I1039
sg67
I58
sg60
I51
sg16
I7
sg634
I625
sg147
I138
sg434
I425
sg1003
I994
sg261
I252
sg930
I921
sg1028
I1019
sg227
I218
sg101
I92
sg579
I570
sg24
I15
sg14
I5
sg900
I891
sg739
I730
sg484
I475
sg702
I693
sg460
I451
sg156
I147
sg266
I257
sg313
I304
sg706
I697
sg125
I116
sg651
I642
sg860
I851
sg213
I204
sg1046
I1037
sg307
I298
sg238
I229
sg403
I394
sg192
I183
sg32
I23
sg810
I801
sg1000
I991
sg365
I356
sg565
I556
sg892
I883
sg680
I671
sg161
I152
sg993
I984
sg109
I100
sg802
I793
sg141
I132
sg997
I988
sg995
I986
sg808
I799
sg26
I17
sg794
I785
sg367
I358
sg742
I733
sg647
I638
sg377
I368
sg569
I560
sg250
I241
sg424
I415
sg343
I334
sg870
I861
sg923
I914
sg96
I87
sg150
I141
sg374
I365
sg698
I689
sg796
I787
sg754
I745
sg712
I703
sg737
I728
sg105
I96
sg848
I839
sg21
I12
sg437
I428
sg570
I561
sg722
I713
sg433
I424
sg633
I624
sg1050
I1041
sg241
I232
sg275
I266
sg277
I268
sg1014
I1005
sg133
I124
sg591
I582
sg262
I253
sg43
I34
sg769
I760
sg181
I172
sg15
I6
sg812
I803
sg423
I414
sg741
I732
sg688
I679
sg1016
I1007
sg700
I691
sg645
I636
sg111
I102
sg822
I813
sg477
I468
sg994
I985
sg753
I744
sg325
I316
sg849
I840
sg724
I715
sg218
I209
sg402
I393
sg124
I115
sg151
I142
sg826
I817
sg1015
I1006
sg907
I898
sg863
I854
sg531
I522
sg225
I216
sg879
I870
sg352
I343
sg572
I563
sg751
I742
sg652
I643
sg934
I925
sg426
I417
sg288
I279
sg235
I226
sg183
I174
sg648
I639
sg853
I844
sg90
I81
sg380
I371
sg452
I443
sg858
I849
sg406
I397
sg291
I282
sg912
I903
sg522
I513
sg525
I516
sg445
I436
sg528
I519
sg986
I977
sg649
I640
sg271
I262
sg509
I500
sg904
I895
sg387
I378
sg616
I607
sg408
I399
sg399
I390
sg202
I193
sg701
I692
sg732
I723
sg78
I69
sg681
I672
sg859
I850
sg896
I887
sg623
I614
sg665
I656
sg468
I459
sg511
I502
sg413
I404
sg455
I446
sg638
I629
sg852
I843
sg317
I308
sg627
I618
sg921
I912
sg792
I783
sg573
I564
sg540
I531
sg710
I701
sg298
I289
sg674
I665
sg589
I580
sg517
I508
sg704
I695
sg502
I493
sg154
I145
sg97
I88
sg992
I983
sg305
I296
sg575
I566
sg628
I619
sg871
I862
sg605
I596
sg536
I527
sg909
I900
sg10
I1
sg495
I486
sg13
I4
sg937
I928
sg222
I213
sg1007
I998
sg69
I60
sg622
I613
sg447
I438
sg119
I110
sg607
I598
sg171
I162
sg251
I242
sg1027
I1018
sg977
I968
sg180
I171
sg40
I31
sg728
I719
sg983
I974
sg564
I555
sg875
I866
sg671
I662
sg258
I249
sg212
I203
sg444
I435
sg877
I868
sg100
I91
sg643
I634
sg30
I21
sg829
I820
sg489
I480
sg44
I35
sg1024
I1015
sg541
I532
sg473
I464
sg162
I153
sg876
I867
sg542
I533
sg373
I364
sg515
I506
sg603
I594
sg658
I649
sg1004
I995
sg123
I114
sg396
I387
sg31
I22
sg974
I965
sg91
I82
sg820
I811
sg532
I523
sg699
I690
sg661
I652
sg498
I489
sg584
I575
sg990
I981
sg344
I335
sg1039
I1030
sg135
I126
sg825
I816
sg410
I401
sg84
I75
sg613
I604
sg843
I834
sg529
I520
sg918
I909
sg131
I122
sg563
I554
sg898
I889
sg353
I344
sg29
I20
sg1021
I1012
sg830
I821
sg748
I739
sg816
I807
sg157
I148
sg979
I970
sg494
I485
sg905
I896
sg265
I256
sg744
I735
sg23
I14
sg1033
I1024
sg817
I808
sg867
I858
sg772
I763
sg956
I947
sg901
I892
sg453
I444
sg228
I219
sg361
I352
sg388
I379
sg300
I291
sg163
I154
sg527
I518
sg187
I178
sg664
I655
sg355
I346
sg677
I668
sg840
I831
sg143
I134
sg342
I333
sg787
I778
sg964
I955
sg836
I827
sg459
I450
sg602
I593
sg25
I16
sg301
I292
sg553
I544
sg785
I776
sg405
I396
sg526
I517
sg276
I267
sg601
I592
sg938
I929
sg708
I699
sg203
I194
sg52
I43
sg149
I140
sg401
I392
sg295
I286
sg566
I557
sg48
I39
sg976
I967
sg404
I395
sg545
I536
sg557
I548
sg600
I591
sg340
I331
sg11
I2
sg27
I18
sg334
I325
sg980
I971
sg637
I628
sg963
I954
sg914
I905
sg158
I149
sg292
I283
sg207
I198
sg102
I93
sg56
I47
sg547
I538
sg304
I295
sg155
I146
sg1009
I1000
sg1053
I1044
sg194
I185
sg472
I463
sg199
I190
sg461
I452
sg714
I705
sg219
I210
sg169
I160
sg763
I754
sg211
I202
sg884
I875
sg446
I437
sg58
I49
sg442
I433
sg723
I714
sg988
I979
sg12
I3
sg606
I597
sg167
I158
sg63
I54
sg53
I44
sg841
I832
sg752
I743
sg482
I473
sg549
I540
sg1010
I1001
sg760
I751
sg705
I696
sg746
I737
sg618
I609
sg960
I951
sg776
I767
sg611
I602
sg642
I633
sg967
I958
sg961
I952
sg358
I349
sg1006
I997
sg715
I706
sg338
I329
sg1035
I1026
sg483
I474
sg926
I917
sg220
I211
sg419
I410
sg928
I919
sg267
I258
sg1020
I1011
sg204
I195
sg767
I758
sg245
I236
sg93
I84
sg595
I586
sg507
I498
sg576
I567
sg560
I551
sg57
I48
sg583
I574
sg28
I19
sg501
I492
sg440
I431
sg351
I342
sg1013
I1004
sg415
I406
sg435
I426
sg806
I797
sg544
I535
sg931
I922
sg132
I123
sg215
I206
sg134
I125
sg159
I150
sg755
I746
sg113
I104
sg902
I893
sg164
I155
sg846
I837
sg731
I722
sg1008
I999
sg329
I320
sg206
I197
sg290
I281
sg899
I890
sg320
I311
sg534
I525
sg819
I810
sg951
I942
sg79
I70
sg286
I277
sg917
I908
sg659
I650
sg172
I163
sg726
I717
sg283
I274
sg178
I169
sg383
I374
sg278
I269
sg205
I196
sg480
I471
sg518
I509
sg77
I68
sg894
I885
sg587
I578
sg303
I294
sg675
I666
sg390
I381
sg315
I306
sg585
I576
sg743
I734
sg73
I64
sg1023
I1014
sg107
I98
sg578
I569
sg857
I848
sg456
I447
sg318
I309
sg287
I278
sg880
I871
sg720
I711
sg324
I315
sg797
I788
sg427
I418
sg195
I186
sg738
I729
sg264
I255
sg962
I953
sg944
I935
sg138
I129
sg487
I478
sg322
I313
sg270
I261
sg323
I314
sg469
I460
sg521
I512
sg62
I53
sg856
I847
sg397
I388
sg216
I207
sg932
I923
sg581
I572
sg721
I712
sg845
I836
sg118
I109
sg148
I139
sg514
I505
sg793
I784
sg260
I251
sg99
I90
sg112
I103
sg906
I897
sg692
I683
sg807
I798
sg470
I461
sg981
I972
sg285
I276
sg594
I585
sg828
I819
sg326
I317
sg844
I835
sg9
I0
sg669
I660
sg978
I969
sg1012
I1003
sg827
I818
sg392
I383
sg888
I879
sg66
I57
sg497
I488
sg711
I702
sg68
I59
sg919
I910
sg920
I911
sg386
I377
sg22
I13
sg240
I231
sg302
I293
sg903
I894
sg973
I964
sg389
I380
sg200
I191
sg306
I297
sg208
I199
sg679
I670
sg279
I270
sg70
I61
sg117
I108
sg693
I684
sg140
I131
sg1022
I1013
sg345
I336
sg226
I217
sg312
I303
sg773
I764
sg813
I804
sg47
I38
sg686
I677
sg1001
I992
sg580
I571
sg268
I259
sg609
I600
sg293
I284
sg922
I913
sg800
I791
sg558
I549
sg488
I479
sg92
I83
sg941
I932
sg596
I587
sg422
I413
sg439
I430
sg729
I720
sg54
I45
sg64
I55
sg289
I280
sg765
I756
sg479
I470
sg733
I724
sg694
I685
sg214
I205
sg768
I759
sg316
I307
sg407
I398
sg86
I77
sg476
I467
sg957
I948
sg552
I543
sg182
I173
sg430
I421
sg1047
I1038
sg750
I741
sg764
I755
sg567
I558
sg982
I973
sg1043
I1034
sg441
I432
sg778
I769
sg881
I872
sg758
I749
sg368
I359
sg1036
I1027
sg179
I170
sg809
I800
sg176
I167
sg985
I976
sg210
I201
sg788
I779
sg703
I694
sg771
I762
sg663
I654
sg201
I192
sg116
I107
sg1054
I1045
sg49
I40
sg952
I943
sg80
I71
sg1018
I1009
sg782
I773
sg784
I775
sg382
I373
sg333
I324
sg925
I916
sg280
I271
sg33
I24
sg1055
I1046
sg519
I510
sg727
I718
sg791
I782
sg366
I357
sg1017
I1008
sg297
I288
sg104
I95
sg520
I511
sg597
I588
sg232
I223
sg1052
I1043
sg933
I924
sg231
I222
sg363
I354
sg831
I822
sg832
I823
sg833
I824
sg500
I491
sg660
I651
sg381
I372
sg670
I661
sg76
I67
sg897
I888
sg593
I584
sg120
I111
sg294
I285
sg230
I221
sg626
I617
sg624
I615
sg74
I65
sg331
I322
sg942
I933
sg72
I63
sg34
I25
sg886
I877
sg1044
I1035
sg196
I187
sg885
I876
sg41
I32
sg177
I168
sg550
I541
sg958
I949
sg418
I409
sg543
I534
sg824
I815
sg197
I188
sg185
I176
sg59
I50
sg639
I630
sg970
I961
sg862
I853
sg170
I161
sg996
I987
sg646
I637
sg38
I29
sg762
I753
sg873
I864
sg378
I369
sg61
I52
sg805
I796
sg975
I966
sg122
I113
sg653
I644
sg668
I659
sg475
I466
sg191
I182
sg121
I112
sg130
I121
sg281
I272
sg136
I127
sg46
I37
sg625
I616
sg571
I562
sg319
I310
sg719
I710
sg168
I159
sg783
I774
sg296
I287
sg878
I869
sg85
I76
sg774
I765
sg309
I300
sg421
I412
sg965
I956
sg548
I539
sg346
I337
sg35
I26
sg775
I766
sg672
I663
sg599
I590
sg847
I838
sg683
I674
sg496
I487
sg443
I434
sg284
I275
sg913
I904
sg789
I780
sg644
I635
sg146
I137
sg530
I521
sg190
I181
sg71
I62
sg1056
I1047
sg777
I768
sg499
I490
sg538
I529
sg1019
I1010
sg761
I752
sg244
I235
sg984
I975
sg160
I151
sg687
I678
sg617
I608
sg145
I136
sg690
I681
sg257
I248
sg689
I680
sg19
I10
sg954
I945
sg740
I731
sg420
I411
sg1042
I1033
sg17
I8
sg850
I841
sg535
I526
sg766
I757
sg350
I341
sg953
I944
sg39
I30
sg236
I227
sg471
I462
sg223
I214
sg546
I537
sg95
I86
sg955
I946
sg620
I611
sg915
I906
sg416
I407
sg175
I166
sg821
I812
sg839
I830
sg42
I33
sg65
I56
sg935
I926
sg463
I454
sg972
I963
sg838
I829
sg621
I612
sg400
I391
sg851
I842
sg398
I389
sg485
I476
sg1030
I1021
sg186
I177
sg803
I794
sg604
I595
sg707
I698
sg253
I244
sg255
I246
sg246
I237
sg554
I545
sg394
I385
sg391
I382
sg269
I260
sg924
I915
sg1031
I1022
sg823
I814
sg256
I247
sg330
I321
sg650
I641
sg811
I802
sg947
I938
sg375
I366
sg1045
I1036
sg486
I477
sg259
I250
sg556
I547
sg247
I238
sg730
I721
sg910
I901
sg555
I546
sg478
I469
sg411
I402
sg221
I212
sg189
I180
sg1057
I1048
sg50
I41
sg263
I254
sg173
I164
sg1025
I1016
sg667
I658
sg282
I273
sg864
I855
sg504
I495
sg314
I305
sg662
I653
sg321
I312
sg889
I880
sg854
I845
sg75
I66
sg347
I338
sg436
I427
sg409
I400
sg431
I422
sg781
I772
sg709
I700
ssS'separator'
p1063
S'='
sS'sparse'
p1064
I01
sb.