ccopy_reg
_reconstructor
p1
(csklearn.feature_extraction.dict_vectorizer
DictVectorizer
p2
c__builtin__
object
p3
NtRp4
(dp5
S'sort'
p6
I01
sS'feature_names_'
p7
(lp8
S'advcl=be'
p9
aS'advcl=decompose'
p10
aS'advcl=handle'
p11
aS'advcl=pay'
p12
aS'advcl=settle'
p13
aS'advcl=take'
p14
aS'advcl=turn'
p15
aS'advmod=abroad'
p16
aS'advmod=adequately'
p17
aS'advmod=ago'
p18
aS'advmod=already'
p19
aS'advmod=also'
p20
aS'advmod=always'
p21
aS'advmod=down'
p22
aS'advmod=especially'
p23
aS'advmod=essentially'
p24
aS'advmod=even'
p25
aS'advmod=far'
p26
aS'advmod=first'
p27
aS'advmod=how'
p28
aS'advmod=largely'
p29
aS'advmod=later'
p30
aS'advmod=legally'
p31
aS'advmod=more'
p32
aS'advmod=now'
p33
aS'advmod=once'
p34
aS'advmod=only'
p35
aS'advmod=overseas'
p36
aS'advmod=peacefully'
p37
aS'advmod=permanently'
p38
aS'advmod=properly'
p39
aS'advmod=rapidly'
p40
aS'advmod=semi-permanently'
p41
aS'advmod=slightly'
p42
aS'advmod=so'
p43
aS'advmod=somewhere'
p44
aS'advmod=soon'
p45
aS'advmod=sooner'
p46
aS'advmod=surely'
p47
aS'advmod=temporarily'
p48
aS'advmod=then'
p49
aS'advmod=there'
p50
aS'advmod=well'
p51
aS'advmod=when'
p52
aS'advmod=where'
p53
aS'advmod=yet'
p54
aS'aux=be'
p55
aS'aux=can'
p56
aS'aux=could'
p57
aS'aux=have'
p58
aS'aux=may'
p59
aS'aux=might'
p60
aS'aux=must'
p61
aS'aux=should'
p62
aS'aux=to'
p63
aS'aux=will'
p64
aS'aux=would'
p65
aS'auxpass=be'
p66
aS'auxpass=get'
p67
aS'cc=and'
p68
aS'ccomp=be'
p69
aS'ccomp=believe'
p70
aS'ccomp=go'
p71
aS'ccomp=know'
p72
aS'ccomp=let'
p73
aS'ccomp=say'
p74
aS'ccomp=win'
p75
aS'ccomp=work'
p76
aS'complm=that'
p77
aS'conj=batter'
p78
aS'conj=carve'
p79
aS'conj=come'
p80
aS'conj=continue'
p81
aS'conj=create'
p82
aS'conj=do'
p83
aS'conj=establish'
p84
aS'conj=go'
p85
aS'conj=happy'
p86
aS'conj=help'
p87
aS'conj=important'
p88
aS'conj=normalize'
p89
aS'conj=promote'
p90
aS'conj=prove'
p91
aS'conj=put'
p92
aS'conj=seek'
p93
aS'conj=setup'
p94
aS'conj=start'
p95
aS'conj=welcome'
p96
aS'dep=after'
p97
aS'dep=bless'
p98
aS'dep=go'
p99
aS'dep=once'
p100
aS'dep=so'
p101
aS'dep=that'
p102
aS'dep=today'
p103
aS'dep=together'
p104
aS'dep=until'
p105
aS'dobj=#NUMBER#'
p106
aS'dobj=Jerusalem'
p107
aS'dobj=West'
p108
aS'dobj=accountability'
p109
aS'dobj=area'
p110
aS'dobj=array'
p111
aS'dobj=battle'
p112
aS'dobj=bill'
p113
aS'dobj=claim'
p114
aS'dobj=conflict'
p115
aS'dobj=decision'
p116
aS'dobj=detail'
p117
aS'dobj=difference'
p118
aS'dobj=dispute'
p119
aS'dobj=everybody'
p120
aS'dobj=feud'
p121
aS'dobj=fight'
p122
aS'dobj=injustice'
p123
aS'dobj=investigation'
p124
aS'dobj=issue'
p125
aS'dobj=lawsuit'
p126
aS'dobj=many'
p127
aS'dobj=matter'
p128
aS'dobj=more'
p129
aS'dobj=patrol'
p130
aS'dobj=phase'
p131
aS'dobj=problem'
p132
aS'dobj=score'
p133
aS'dobj=stand-off'
p134
aS'dobj=status'
p135
aS'dobj=than'
p136
aS'dobj=that'
p137
aS'dobj=this'
p138
aS'dobj=variety'
p139
aS'dobj=year'
p140
aS'mark=about'
p141
aS'mark=although'
p142
aS'mark=as'
p143
aS'mark=because'
p144
aS'mark=if'
p145
aS'mark=once'
p146
aS'mark=until'
p147
aS'mark=while'
p148
aS'neg=not'
p149
aS'nsubj=#NUMBER#'
p150
aS'nsubj=#PRP#'
p151
aS'nsubj=$'
p152
aS'nsubj=Commission'
p153
aS'nsubj=Court'
p154
aS'nsubj=Nasdaq'
p155
aS'nsubj=Republicans'
p156
aS'nsubj=States'
p157
aS'nsubj=Uighurs'
p158
aS'nsubj=administration'
p159
aS'nsubj=capital'
p160
aS'nsubj=couple'
p161
aS'nsubj=dust'
p162
aS'nsubj=farmer'
p163
aS'nsubj=group'
p164
aS'nsubj=larva'
p165
aS'nsubj=law'
p166
aS'nsubj=many'
p167
aS'nsubj=market'
p168
aS'nsubj=minister'
p169
aS'nsubj=most'
p170
aS'nsubj=opinion'
p171
aS'nsubj=people'
p172
aS'nsubj=picker'
p173
aS'nsubj=price'
p174
aS'nsubj=refugee'
p175
aS'nsubj=resident'
p176
aS'nsubj=situation'
p177
aS'nsubj=that'
p178
aS'nsubj=third'
p179
aS'nsubj=two-third'
p180
aS'nsubj=union'
p181
aS'nsubj=waste'
p182
aS'nsubj=who'
p183
aS'nsubjpass=#PRP#'
p184
aS'nsubjpass=Indians'
p185
aS'nsubjpass=Korea'
p186
aS'nsubjpass=agreement'
p187
aS'nsubjpass=astrologer'
p188
aS'nsubjpass=attempt'
p189
aS'nsubjpass=battle'
p190
aS'nsubjpass=city'
p191
aS'nsubjpass=conflict'
p192
aS'nsubjpass=debate'
p193
aS'nsubjpass=detail'
p194
aS'nsubjpass=difference'
p195
aS'nsubjpass=dispute'
p196
aS'nsubjpass=fight'
p197
aS'nsubjpass=issue'
p198
aS'nsubjpass=liability'
p199
aS'nsubjpass=matter'
p200
aS'nsubjpass=question'
p201
aS'nsubjpass=race'
p202
aS'nsubjpass=refugee'
p203
aS'nsubjpass=science'
p204
aS'nsubjpass=suit'
p205
aS'nsubjpass=that'
p206
aS'nsubjpass=trade'
p207
aS'parataxis=agree'
p208
aS'parataxis=say'
p209
aS'prep=above'
p210
aS'prep=after'
p211
aS'prep=against'
p212
aS'prep=along'
p213
aS'prep=as'
p214
aS'prep=at'
p215
aS'prep=between'
p216
aS'prep=by'
p217
aS'prep=for'
p218
aS'prep=from'
p219
aS'prep=in'
p220
aS'prep=into'
p221
aS'prep=like'
p222
aS'prep=near'
p223
aS'prep=of'
p224
aS'prep=on'
p225
aS'prep=over'
p226
aS'prep=than'
p227
aS'prep=then'
p228
aS'prep=through'
p229
aS'prep=to'
p230
aS'prep=upon'
p231
aS'prep=with'
p232
aS'prep=without'
p233
aS'prt=down'
p234
aS'prt=in'
p235
aS'prt=out'
p236
aS'rel=by'
p237
aS'tmod=#DATE#'
p238
aS'tmod=day'
p239
aS'tmod=month'
p240
aS'tmod=week'
p241
aS'tmod=year'
p242
aS'w+1=,'
p243
aS'w+1=.'
p244
aS'w+1=;'
p245
aS'w+1=East'
p246
aS'w+1=Kosovo'
p247
aS'w+1=Thursday'
p248
aS'w+1=a'
p249
aS'w+1=abroad'
p250
aS'w+1=after'
p251
aS'w+1=along'
p252
aS'w+1=and'
p253
aS'w+1=area'
p254
aS'w+1=as'
p255
aS'w+1=at'
p256
aS'w+1=by'
p257
aS'w+1=contest'
p258
aS'w+1=difference'
p259
aS'w+1=dispute'
p260
aS'w+1=down'
p261
aS'w+1=early'
p262
aS'w+1=even'
p263
aS'w+1=for'
p264
aS'w+1=from'
p265
aS'w+1=here'
p266
aS'w+1=historic'
p267
aS'w+1=how'
p268
aS'w+1=in'
p269
aS'w+1=into'
p270
aS'w+1=issue'
p271
aS'w+1=its'
p272
aS'w+1=land'
p273
aS'w+1=largely'
p274
aS'w+1=late'
p275
aS'w+1=more'
p276
aS'w+1=near'
p277
aS'w+1=on'
p278
aS'w+1=out'
p279
aS'w+1=outstanding'
p280
aS'w+1=peacefully'
p281
aS'w+1=permanently'
p282
aS'w+1=political'
p283
aS'w+1=regional'
p284
aS'w+1=score'
p285
aS'w+1=semi-permanently'
p286
aS'w+1=slightly'
p287
aS'w+1=some'
p288
aS'w+1=somewhere'
p289
aS'w+1=sooner'
p290
aS'w+1=such'
p291
aS'w+1=temporarily'
p292
aS'w+1=than'
p293
aS'w+1=that'
p294
aS'w+1=the'
p295
aS'w+1=there'
p296
aS'w+1=these'
p297
aS'w+1=they'
p298
aS'w+1=this'
p299
aS'w+1=through'
p300
aS'w+1=to'
p301
aS'w+1=upon'
p302
aS'w+1=very'
p303
aS'w+1=with'
p304
aS'w+1=yet'
p305
aS"w+2=''"
p306
aS"w+2='s"
p307
aS'w+2=,'
p308
aS'w+2=.'
p309
aS'w+2=1989'
p310
aS'w+2=Australia'
p311
aS'w+2=Berkeley'
p312
aS'w+2=Chicago'
p313
aS'w+2=February'
p314
aS'w+2=Iraq'
p315
aS'w+2=Jerusalem'
p316
aS'w+2=Kenya'
p317
aS'w+2=London'
p318
aS'w+2=New'
p319
aS'w+2=Nigeria'
p320
aS'w+2=S.E.C.'
p321
aS'w+2=Senator'
p322
aS'w+2=Thursday'
p323
aS'w+2=Tuesday'
p324
aS'w+2=West'
p325
aS'w+2=a'
p326
aS'w+2=above'
p327
aS'w+2=accountability'
p328
aS'w+2=and'
p329
aS'w+2=any'
p330
aS'w+2=area'
p331
aS'w+2=as'
p332
aS'w+2=at'
p333
aS'w+2=attention'
p334
aS'w+2=be'
p335
aS'w+2=believe'
p336
aS'w+2=big'
p337
aS'w+2=bitter'
p338
aS'w+2=boundary'
p339
aS'w+2=bring'
p340
aS'w+2=by'
p341
aS'w+2=cabinet'
p342
aS'w+2=centuries-old'
p343
aS'w+2=charter'
p344
aS'w+2=conflict'
p345
aS'w+2=conflicting'
p346
aS'w+2=consultation'
p347
aS'w+2=decades-old'
p348
aS'w+2=difference'
p349
aS'w+2=dispute'
p350
aS'w+2=down'
p351
aS'w+2=fight'
p352
aS'w+2=food'
p353
aS'w+2=foreign'
p354
aS'w+2=free'
p355
aS'w+2=go'
p356
aS'w+2=greater'
p357
aS'w+2=he'
p358
aS'w+2=home'
p359
aS'w+2=hundred'
p360
aS'w+2=in'
p361
aS'w+2=injustice'
p362
aS'w+2=issue'
p363
aS'w+2=it'
p364
aS'w+2=just'
p365
aS'w+2=land'
p366
aS'w+2=last'
p367
aS'w+2=lawsuit'
p368
aS'w+2=life'
p369
aS'w+2=long-standing'
p370
aS'w+2=many'
p371
aS'w+2=matter'
p372
aS'w+2=month-long'
p373
aS'w+2=name'
p374
aS'w+2=negotiation'
p375
aS'w+2=nine'
p376
aS'w+2=nothing'
p377
aS'w+2=nuclear'
p378
aS'w+2=of'
p379
aS'w+2=overseas'
p380
aS'w+2=patrol'
p381
aS'w+2=permanent'
p382
aS'w+2=picture'
p383
aS'w+2=political'
p384
aS'w+2=problem'
p385
aS'w+2=public'
p386
aS'w+2=score'
p387
aS'w+2=silver'
p388
aS'w+2=smaller'
p389
aS'w+2=so'
p390
aS'w+2=solar'
p391
aS'w+2=some'
p392
aS'w+2=soon'
p393
aS'w+2=stand-off'
p394
aS'w+2=than'
p395
aS'w+2=that'
p396
aS'w+2=the'
p397
aS'w+2=these'
p398
aS'w+2=they'
p399
aS'w+2=this'
p400
aS'w+2=through'
p401
aS'w+2=to'
p402
aS'w+2=tomorrow'
p403
aS'w+2=trans-atlantic'
p404
aS'w+2=transitional'
p405
aS'w+2=urban'
p406
aS'w+2=variety'
p407
aS'w+2=village'
p408
aS'w+2=we'
p409
aS'w+2=week'
p410
aS'w+2=well'
p411
aS'w+2=what'
p412
aS'w+2=which'
p413
aS'w+2=will'
p414
aS'w+2=with'
p415
aS'w-1=,'
p416
aS'w-1=.'
p417
aS'w-1=Commission'
p418
aS'w-1=Dubai'
p419
aS'w-1=States'
p420
aS'w-1=Venezuelans'
p421
aS'w-1=adequately'
p422
aS'w-1=already'
p423
aS'w-1=always'
p424
aS'w-1=and'
p425
aS'w-1=be'
p426
aS'w-1=before'
p427
aS'w-1=believe'
p428
aS'w-1=can'
p429
aS'w-1=couple'
p430
aS'w-1=dust'
p431
aS'w-1=essentially'
p432
aS'w-1=even'
p433
aS'w-1=eventually'
p434
aS'w-1=farmer'
p435
aS'w-1=from'
p436
aS'w-1=get'
p437
aS'w-1=have'
p438
aS'w-1=he'
p439
aS'w-1=help'
p440
aS'w-1=immigrant'
p441
aS'w-1=in'
p442
aS'w-1=indian'
p443
aS'w-1=into'
p444
aS'w-1=it'
p445
aS'w-1=later'
p446
aS'w-1=law'
p447
aS'w-1=majority'
p448
aS'w-1=means'
p449
aS'w-1=might'
p450
aS'w-1=most'
p451
aS'w-1=must'
p452
aS'w-1=not'
p453
aS'w-1=of'
p454
aS'w-1=oil'
p455
aS'w-1=only'
p456
aS'w-1=originally'
p457
aS'w-1=people'
p458
aS'w-1=permanently'
p459
aS'w-1=properly'
p460
aS'w-1=resident'
p461
aS'w-1=say'
p462
aS'w-1=she'
p463
aS'w-1=start'
p464
aS'w-1=stop'
p465
aS'w-1=temporarily'
p466
aS'w-1=that'
p467
aS'w-1=the'
p468
aS'w-1=then'
p469
aS'w-1=they'
p470
aS'w-1=to'
p471
aS'w-1=waste'
p472
aS'w-1=we'
p473
aS'w-1=well'
p474
aS'w-1=who'
p475
aS'w-1=whom'
p476
aS'w-1=will'
p477
aS'w-1=with'
p478
aS'w-1=without'
p479
aS'w-1=would'
p480
aS'w-1=you'
p481
aS'w-2=,'
p482
aS'w-2=-rrb-'
p483
aS'w-2=.'
p484
aS'w-2=10'
p485
aS'w-2=2009'
p486
aS'w-2=;'
p487
aS'w-2=Clinton'
p488
aS'w-2=Commission'
p489
aS'w-2=Congress'
p490
aS'w-2=Court'
p491
aS'w-2=England'
p492
aS'w-2=I'
p493
aS'w-2=Iraqis'
p494
aS'w-2=Jerusalem'
p495
aS'w-2=June'
p496
aS'w-2=Kenya'
p497
aS'w-2=Korea'
p498
aS'w-2=Kurds'
p499
aS'w-2=Liberia'
p500
aS'w-2=Mbeki'
p501
aS'w-2=Olmert'
p502
aS'w-2=Palestinians'
p503
aS'w-2=Referendum'
p504
aS'w-2=Taiwan'
p505
aS'w-2=United'
p506
aS'w-2=a'
p507
aS'w-2=able'
p508
aS'w-2=administration'
p509
aS'w-2=al-Maliki'
p510
aS'w-2=allow'
p511
aS'w-2=also'
p512
aS'w-2=and'
p513
aS'w-2=appoint'
p514
aS'w-2=be'
p515
aS'w-2=begin'
p516
aS'w-2=billion'
p517
aS'w-2=black'
p518
aS'w-2=business'
p519
aS'w-2=but'
p520
aS'w-2=can'
p521
aS'w-2=chance'
p522
aS'w-2=charge'
p523
aS'w-2=clan'
p524
aS'w-2=colony'
p525
aS'w-2=come'
p526
aS'w-2=commission'
p527
aS'w-2=commit'
p528
aS'w-2=committee'
p529
aS'w-2=could'
p530
aS'w-2=decide'
p531
aS'w-2=desire'
p532
aS'w-2=detail'
p533
aS'w-2=determination'
p534
aS'w-2=disposed'
p535
aS'w-2=dispute'
p536
aS'w-2=down'
p537
aS'w-2=dust'
p538
aS'w-2=effort'
p539
aS'w-2=election'
p540
aS'w-2=eligible'
p541
aS'w-2=expect'
p542
aS'w-2=fail'
p543
aS'w-2=far'
p544
aS'w-2=file'
p545
aS'w-2=from'
p546
aS'w-2=go'
p547
aS'w-2=group'
p548
aS'w-2=have'
p549
aS'w-2=he'
p550
aS'w-2=headway'
p551
aS'w-2=home'
p552
aS'w-2=if'
p553
aS'w-2=immigrant'
p554
aS'w-2=in'
p555
aS'w-2=issue'
p556
aS'w-2=it'
p557
aS'w-2=just'
p558
aS'w-2=large'
p559
aS'w-2=larva'
p560
aS'w-2=leader'
p561
aS'w-2=legislation'
p562
aS'w-2=liability'
p563
aS'w-2=manage'
p564
aS'w-2=many'
p565
aS'w-2=market'
p566
aS'w-2=matter'
p567
aS'w-2=month'
p568
aS'w-2=move'
p569
aS'w-2=must'
p570
aS'w-2=new'
p571
aS'w-2=no'
p572
aS'w-2=not'
p573
aS'w-2=of'
p574
aS'w-2=only'
p575
aS'w-2=option'
p576
aS'w-2=particle'
p577
aS'w-2=path'
p578
aS'w-2=people'
p579
aS'w-2=play'
p580
aS'w-2=prefer'
p581
aS'w-2=pressure'
p582
aS'w-2=pretext'
p583
aS'w-2=progress'
p584
aS'w-2=refugee'
p585
aS'w-2=region'
p586
aS'w-2=role'
p587
aS'w-2=science'
p588
aS'w-2=score'
p589
aS'w-2=should'
p590
aS'w-2=sign'
p591
aS'w-2=so'
p592
aS'w-2=soon'
p593
aS'w-2=stranger'
p594
aS'w-2=substantial'
p595
aS'w-2=suit'
p596
aS'w-2=surely'
p597
aS'w-2=system'
p598
aS'w-2=that'
p599
aS'w-2=the'
p600
aS'w-2=then'
p601
aS'w-2=they'
p602
aS'w-2=those'
p603
aS'w-2=to'
p604
aS'w-2=today'
p605
aS'w-2=too'
p606
aS'w-2=try'
p607
aS'w-2=union'
p608
aS'w-2=until'
p609
aS'w-2=very'
p610
aS'w-2=way'
p611
aS'w-2=we'
p612
aS'w-2=week'
p613
aS'w-2=where'
p614
aS'w-2=who'
p615
aS'w-2=will'
p616
aS'w-2=would'
p617
aS'xcomp=abandon'
p618
aS'xcomp=get'
p619
aS'xcomp=raise'
p620
aS'xcomp=represent'
p621
aS'xcomp=work'
p622
asS'dtype'
p623
cnumpy
float64
p624
sS'vocabulary_'
p625
(dp626
g49
I40
sg285
I276
sg517
I508
sg505
I496
sg32
I23
sg204
I195
sg133
I124
sg576
I567
sg175
I166
sg612
I603
sg509
I500
sg579
I570
sg179
I170
sg153
I144
sg96
I87
sg206
I197
sg51
I42
sg540
I531
sg195
I186
sg571
I562
sg380
I371
sg558
I549
sg487
I478
sg601
I592
sg531
I522
sg602
I593
sg227
I218
sg217
I208
sg167
I158
sg216
I207
sg294
I285
sg448
I439
sg480
I471
sg460
I451
sg198
I189
sg293
I284
sg449
I440
sg297
I288
sg43
I34
sg546
I537
sg282
I273
sg411
I402
sg231
I222
sg269
I260
sg477
I468
sg459
I450
sg490
I481
sg618
I609
sg59
I50
sg334
I325
sg268
I259
sg474
I465
sg426
I417
sg600
I591
sg98
I89
sg147
I138
sg69
I60
sg614
I605
sg126
I117
sg165
I156
sg14
I5
sg60
I51
sg615
I606
sg605
I596
sg378
I369
sg46
I37
sg185
I176
sg486
I477
sg278
I269
sg565
I556
sg376
I367
sg24
I15
sg366
I357
sg31
I22
sg438
I429
sg74
I65
sg174
I165
sg361
I352
sg613
I604
sg71
I62
sg412
I403
sg364
I355
sg428
I419
sg575
I566
sg47
I38
sg34
I25
sg56
I47
sg77
I68
sg128
I119
sg466
I457
sg240
I231
sg545
I536
sg110
I101
sg435
I426
sg237
I228
sg432
I423
sg414
I405
sg373
I364
sg230
I221
sg539
I530
sg9
I0
sg187
I178
sg599
I590
sg295
I286
sg503
I494
sg322
I313
sg405
I396
sg588
I579
sg35
I26
sg335
I326
sg91
I82
sg298
I289
sg548
I539
sg292
I283
sg606
I597
sg423
I414
sg184
I175
sg186
I177
sg220
I211
sg141
I132
sg65
I56
sg264
I255
sg561
I552
sg88
I79
sg54
I45
sg15
I6
sg418
I409
sg29
I20
sg436
I427
sg498
I489
sg384
I375
sg104
I95
sg541
I532
sg89
I80
sg18
I9
sg253
I244
sg609
I600
sg338
I329
sg455
I446
sg280
I271
sg129
I120
sg162
I153
sg488
I479
sg178
I169
sg445
I436
sg271
I262
sg343
I334
sg312
I303
sg67
I58
sg518
I509
sg290
I281
sg398
I389
sg48
I39
sg442
I433
sg409
I400
sg591
I582
sg164
I155
sg76
I67
sg483
I474
sg468
I459
sg36
I27
sg193
I184
sg363
I354
sg145
I136
sg53
I44
sg310
I301
sg188
I179
sg321
I312
sg119
I110
sg497
I488
sg303
I294
sg519
I510
sg401
I392
sg476
I467
sg82
I73
sg394
I385
sg213
I204
sg183
I174
sg584
I575
sg72
I63
sg574
I565
sg538
I529
sg407
I398
sg125
I116
sg471
I462
sg23
I14
sg524
I515
sg316
I307
sg562
I553
sg209
I200
sg302
I293
sg516
I507
sg163
I154
sg274
I265
sg514
I505
sg138
I129
sg328
I319
sg38
I29
sg339
I330
sg360
I351
sg226
I217
sg255
I246
sg256
I247
sg93
I84
sg350
I341
sg390
I381
sg236
I227
sg242
I233
sg429
I420
sg127
I118
sg207
I198
sg194
I185
sg508
I499
sg300
I291
sg522
I513
sg462
I453
sg478
I469
sg367
I358
sg313
I304
sg52
I43
sg156
I147
sg12
I3
sg120
I111
sg169
I160
sg218
I209
sg102
I93
sg340
I331
sg210
I201
sg336
I327
sg333
I324
sg158
I149
sg332
I323
sg124
I115
sg114
I105
sg528
I519
sg309
I300
sg86
I77
sg66
I57
sg41
I32
sg311
I302
sg489
I480
sg16
I7
sg260
I251
sg564
I555
sg105
I96
sg108
I99
sg21
I12
sg506
I497
sg78
I69
sg532
I523
sg323
I314
sg377
I368
sg296
I287
sg570
I561
sg150
I141
sg19
I10
sg582
I573
sg355
I346
sg277
I268
sg272
I263
sg319
I310
sg415
I406
sg348
I339
sg603
I594
sg494
I485
sg393
I384
sg523
I514
sg443
I434
sg386
I377
sg83
I74
sg568
I559
sg511
I502
sg379
I370
sg342
I333
sg578
I569
sg461
I452
sg301
I292
sg402
I393
sg192
I183
sg353
I344
sg425
I416
sg160
I151
sg221
I212
sg344
I335
sg535
I526
sg131
I122
sg365
I356
sg250
I241
sg331
I322
sg107
I98
sg99
I90
sg362
I353
sg201
I192
sg233
I224
sg341
I332
sg26
I17
sg283
I274
sg90
I81
sg286
I277
sg492
I483
sg381
I372
sg495
I486
sg463
I454
sg305
I296
sg617
I608
sg197
I188
sg572
I563
sg139
I130
sg547
I538
sg422
I413
sg385
I376
sg370
I361
sg214
I205
sg500
I491
sg368
I359
sg239
I230
sg400
I391
sg116
I107
sg191
I182
sg25
I16
sg383
I374
sg189
I180
sg50
I41
sg424
I415
sg182
I173
sg542
I533
sg388
I379
sg148
I139
sg470
I461
sg101
I92
sg608
I599
sg512
I503
sg64
I55
sg70
I61
sg371
I362
sg196
I187
sg525
I516
sg157
I148
sg431
I422
sg172
I163
sg232
I223
sg580
I571
sg451
I442
sg485
I476
sg254
I245
sg553
I544
sg44
I35
sg555
I546
sg557
I548
sg79
I70
sg111
I102
sg287
I278
sg132
I123
sg420
I411
sg351
I342
sg259
I250
sg22
I13
sg92
I83
sg208
I199
sg33
I24
sg410
I401
sg526
I517
sg75
I66
sg543
I534
sg620
I611
sg306
I297
sg81
I72
sg152
I143
sg622
I613
sg596
I587
sg457
I448
sg117
I108
sg84
I75
sg142
I133
sg263
I254
sg144
I135
sg597
I588
sg357
I348
sg202
I193
sg577
I568
sg549
I540
sg619
I610
sg68
I59
sg595
I586
sg314
I305
sg289
I280
sg421
I412
sg155
I146
sg154
I145
sg257
I248
sg199
I190
sg408
I399
sg284
I275
sg166
I157
sg307
I298
sg266
I257
sg447
I438
sg113
I104
sg458
I449
sg372
I363
sg392
I383
sg118
I109
sg136
I127
sg173
I164
sg611
I602
sg534
I525
sg554
I545
sg137
I128
sg510
I501
sg151
I142
sg356
I347
sg270
I261
sg587
I578
sg345
I336
sg382
I373
sg106
I97
sg440
I431
sg496
I487
sg57
I48
sg222
I213
sg430
I421
sg441
I432
sg375
I366
sg252
I243
sg479
I470
sg566
I557
sg61
I52
sg552
I543
sg121
I112
sg537
I528
sg359
I350
sg450
I441
sg413
I404
sg168
I159
sg444
I435
sg515
I506
sg224
I215
sg225
I216
sg176
I167
sg346
I337
sg318
I309
sg10
I1
sg389
I380
sg30
I21
sg454
I445
sg80
I71
sg387
I378
sg279
I270
sg349
I340
sg434
I425
sg112
I103
sg115
I106
sg395
I386
sg317
I308
sg190
I181
sg396
I387
sg85
I76
sg170
I161
sg288
I279
sg475
I466
sg567
I558
sg161
I152
sg330
I321
sg246
I237
sg159
I150
sg465
I456
sg559
I550
sg347
I338
sg598
I589
sg529
I520
sg134
I125
sg530
I521
sg352
I343
sg604
I595
sg329
I320
sg238
I229
sg513
I504
sg536
I527
sg464
I455
sg130
I121
sg123
I114
sg223
I214
sg607
I598
sg594
I585
sg13
I4
sg299
I290
sg20
I11
sg406
I397
sg550
I541
sg586
I577
sg273
I264
sg248
I239
sg276
I267
sg304
I295
sg583
I574
sg397
I388
sg215
I206
sg616
I607
sg37
I28
sg109
I100
sg482
I473
sg484
I475
sg358
I349
sg315
I306
sg58
I49
sg520
I511
sg100
I91
sg281
I272
sg417
I408
sg416
I407
sg419
I410
sg573
I564
sg551
I542
sg73
I64
sg493
I484
sg502
I493
sg527
I518
sg45
I36
sg501
I492
sg354
I345
sg229
I220
sg87
I78
sg581
I572
sg62
I53
sg42
I33
sg327
I318
sg171
I162
sg469
I460
sg261
I252
sg507
I498
sg203
I194
sg325
I316
sg94
I85
sg146
I137
sg491
I482
sg592
I583
sg143
I134
sg439
I430
sg472
I463
sg427
I418
sg265
I256
sg235
I226
sg610
I601
sg504
I495
sg205
I196
sg391
I382
sg258
I249
sg399
I390
sg556
I547
sg211
I202
sg11
I2
sg452
I443
sg262
I253
sg563
I554
sg212
I203
sg200
I191
sg140
I131
sg569
I560
sg481
I472
sg499
I490
sg228
I219
sg585
I576
sg275
I266
sg181
I172
sg28
I19
sg122
I113
sg27
I18
sg433
I424
sg177
I168
sg219
I210
sg324
I315
sg103
I94
sg404
I395
sg251
I242
sg593
I584
sg473
I464
sg63
I54
sg590
I581
sg560
I551
sg320
I311
sg291
I282
sg374
I365
sg437
I428
sg621
I612
sg533
I524
sg241
I232
sg243
I234
sg244
I235
sg544
I535
sg97
I88
sg521
I512
sg308
I299
sg245
I236
sg149
I140
sg267
I258
sg180
I171
sg456
I447
sg40
I31
sg403
I394
sg369
I360
sg17
I8
sg135
I126
sg589
I580
sg247
I238
sg95
I86
sg249
I240
sg453
I444
sg234
I225
sg446
I437
sg467
I458
sg55
I46
sg337
I328
sg326
I317
sg39
I30
ssS'separator'
p627
S'='
sS'sparse'
p628
I01
sb.