ccopy_reg
_reconstructor
p1
(csklearn.feature_extraction.dict_vectorizer
DictVectorizer
p2
c__builtin__
object
p3
NtRp4
(dp5
S'sort'
p6
I01
sS'feature_names_'
p7
(lp8
S'advcl=clear'
p9
aS'advmod=actually'
p10
aS'advmod=home'
p11
aS'advmod=just'
p12
aS'advmod=now'
p13
aS'advmod=probably'
p14
aS'advmod=solely'
p15
aS'advmod=usually'
p16
aS'advmod=when'
p17
aS'aux=be'
p18
aS'aux=do'
p19
aS'aux=have'
p20
aS'aux=to'
p21
aS'aux=will'
p22
aS'aux=would'
p23
aS'cc=and'
p24
aS'complm=that'
p25
aS'conj=center'
p26
aS'conj=help'
p27
aS'dep=project'
p28
aS'dobj=each'
p29
aS'mark=because'
p30
aS'neg=not'
p31
aS'nsubj=#PRP#'
p32
aS'nsubj=Sleepwalkers'
p33
aS'nsubj=Union'
p34
aS'nsubj=crime'
p35
aS'nsubj=democracy'
p36
aS'nsubj=deterrent'
p37
aS'nsubj=device'
p38
aS'nsubj=dress'
p39
aS'nsubj=entertainment'
p40
aS'nsubj=exhibit'
p41
aS'nsubj=method'
p42
aS'nsubj=most'
p43
aS'nsubj=much'
p44
aS'nsubj=organization'
p45
aS'nsubj=package'
p46
aS'nsubj=park'
p47
aS'nsubj=party'
p48
aS'nsubj=plan'
p49
aS'nsubj=region'
p50
aS'nsubj=show'
p51
aS'nsubj=site'
p52
aS'nsubj=team'
p53
aS'nsubj=that'
p54
aS'nsubj=violence'
p55
aS'nsubj=which'
p56
aS'prep=around'
p57
aS'prep=from'
p58
aS'prep=in'
p59
aS'prep=include'
p60
aS'prep=of'
p61
aS'prep=under'
p62
aS'rel=what'
p63
aS'tmod=change'
p64
aS'w+1=of'
p65
aS'w+1=solely'
p66
aS"w+2=''"
p67
aS'w+2=.'
p68
aS'w+2=184'
p69
aS'w+2=27'
p70
aS'w+2=30'
p71
aS'w+2=315'
p72
aS'w+2=40'
p73
aS'w+2=Egyptians'
p74
aS'w+2=Russia'
p75
aS'w+2=a'
p76
aS'w+2=administer'
p77
aS'w+2=bronze'
p78
aS'w+2=country'
p79
aS'w+2=eight'
p80
aS'w+2=five'
p81
aS'w+2=food'
p82
aS'w+2=food-importing'
p83
aS'w+2=four'
p84
aS'w+2=loan'
p85
aS'w+2=maize'
p86
aS'w+2=multiple'
p87
aS'w+2=numerous'
p88
aS'w+2=of'
p89
aS'w+2=official'
p90
aS'w+2=only'
p91
aS'w+2=police'
p92
aS'w+2=random'
p93
aS'w+2=recitation'
p94
aS'w+2=rice'
p95
aS'w+2=select'
p96
aS'w+2=single'
p97
aS'w+2=some'
p98
aS'w+2=take'
p99
aS'w+2=the'
p100
aS'w+2=two'
p101
aS"w-1=''"
p102
aS'w-1=,'
p103
aS'w-1=--'
p104
aS'w-1=Botero'
p105
aS'w-1=Union'
p106
aS'w-1=act'
p107
aS'w-1=actually'
p108
aS'w-1=assistance'
p109
aS'w-1=country'
p110
aS'w-1=crime'
p111
aS'w-1=deterrent'
p112
aS'w-1=device'
p113
aS'w-1=entertainment'
p114
aS'w-1=force'
p115
aS'w-1=form'
p116
aS'w-1=have'
p117
aS'w-1=hoof'
p118
aS'w-1=it'
p119
aS'w-1=just'
p120
aS'w-1=likely'
p121
aS'w-1=month'
p122
aS'w-1=organization'
p123
aS'w-1=party'
p124
aS'w-1=people'
p125
aS'w-1=probably'
p126
aS'w-1=ration'
p127
aS'w-1=region'
p128
aS'w-1=team'
p129
aS'w-1=that'
p130
aS'w-1=to'
p131
aS'w-1=usually'
p132
aS'w-1=which'
p133
aS'w-1=will'
p134
aS'w-1=world'
p135
aS'w-1=would'
p136
aS"w-2=''"
p137
aS'w-2=,'
p138
aS'w-2=-'
p139
aS'w-2=.'
p140
aS'w-2=12'
p141
aS'w-2=European'
p142
aS'w-2=Fernando'
p143
aS'w-2=Pagume'
p144
aS'w-2=Sleepwalkers'
p145
aS'w-2=and'
p146
aS'w-2=be'
p147
aS'w-2=bird'
p148
aS'w-2=develop'
p149
aS'w-2=each'
p150
aS'w-2=give'
p151
aS'w-2=its'
p152
aS'w-2=method'
p153
aS'w-2=mostly'
p154
aS'w-2=negotiate'
p155
aS'w-2=new'
p156
aS'w-2=not'
p157
aS'w-2=nuclear'
p158
aS'w-2=of'
p159
aS'w-2=operational'
p160
aS'w-2=package'
p161
aS'w-2=park'
p162
aS'w-2=political'
p163
aS'w-2=poor'
p164
aS'w-2=program'
p165
aS'w-2=session'
p166
aS'w-2=show'
p167
aS'w-2=site'
p168
aS'w-2=the'
p169
aS'w-2=they'
p170
aS'w-2=violence'
p171
aS'w-2=when'
p172
aS'w-2=would'
p173
aS'xcomp=honor'
p174
aS'xcomp=review'
p175
asS'dtype'
p176
cnumpy
float64
p177
sS'vocabulary_'
p178
(dp179
g56
I47
sg101
I92
sg51
I42
sg40
I31
sg47
I38
sg10
I1
sg151
I142
sg26
I17
sg46
I37
sg55
I46
sg80
I71
sg145
I136
sg71
I62
sg110
I101
sg43
I34
sg68
I59
sg143
I134
sg173
I164
sg156
I147
sg135
I126
sg113
I104
sg33
I24
sg167
I158
sg168
I159
sg159
I150
sg74
I65
sg122
I113
sg170
I161
sg131
I122
sg37
I28
sg78
I69
sg146
I137
sg44
I35
sg87
I78
sg144
I135
sg66
I57
sg31
I22
sg91
I82
sg136
I127
sg70
I61
sg28
I19
sg48
I39
sg19
I10
sg11
I2
sg160
I151
sg34
I25
sg52
I43
sg97
I88
sg9
I0
sg22
I13
sg13
I4
sg12
I3
sg100
I91
sg126
I117
sg108
I99
sg134
I125
sg138
I129
sg139
I130
sg140
I131
sg69
I60
sg132
I123
sg141
I132
sg20
I11
sg85
I76
sg166
I157
sg41
I32
sg103
I94
sg112
I103
sg157
I148
sg169
I160
sg161
I152
sg121
I112
sg174
I165
sg164
I155
sg175
I166
sg27
I18
sg64
I55
sg30
I21
sg79
I70
sg65
I56
sg60
I51
sg107
I98
sg118
I109
sg128
I119
sg117
I108
sg92
I83
sg123
I114
sg152
I143
sg67
I58
sg115
I106
sg109
I100
sg96
I87
sg84
I75
sg29
I20
sg49
I40
sg133
I124
sg25
I16
sg57
I48
sg165
I156
sg50
I41
sg124
I115
sg129
I120
sg149
I140
sg75
I66
sg24
I15
sg163
I154
sg62
I53
sg17
I8
sg99
I90
sg45
I36
sg83
I74
sg95
I86
sg53
I44
sg172
I163
sg158
I149
sg125
I116
sg59
I50
sg98
I89
sg23
I14
sg114
I105
sg32
I23
sg58
I49
sg102
I93
sg42
I33
sg150
I141
sg127
I118
sg21
I12
sg94
I85
sg15
I6
sg106
I97
sg154
I145
sg36
I27
sg93
I84
sg105
I96
sg171
I162
sg116
I107
sg39
I30
sg38
I29
sg137
I128
sg18
I9
sg89
I80
sg148
I139
sg14
I5
sg88
I79
sg155
I146
sg54
I45
sg119
I110
sg82
I73
sg104
I95
sg16
I7
sg120
I111
sg147
I138
sg61
I52
sg162
I153
sg35
I26
sg77
I68
sg63
I54
sg72
I63
sg153
I144
sg130
I121
sg90
I81
sg111
I102
sg86
I77
sg73
I64
sg76
I67
sg142
I133
sg81
I72
ssS'separator'
p180
S'='
sS'sparse'
p181
I01
sb.