ccopy_reg
_reconstructor
p1
(csklearn.feature_extraction.dict_vectorizer
DictVectorizer
p2
c__builtin__
object
p3
NtRp4
(dp5
S'sort'
p6
I01
sS'feature_names_'
p7
(lp8
S'advcl=all'
p9
aS'advcl=capture'
p10
aS'advcl=exception'
p11
aS'advcl=expand'
p12
aS'advcl=rub'
p13
aS'advcl=younger'
p14
aS'advmod=actually'
p15
aS'advmod=already'
p16
aS'advmod=also'
p17
aS'advmod=here'
p18
aS'advmod=how'
p19
aS'advmod=just'
p20
aS'advmod=more'
p21
aS'advmod=nonetheless'
p22
aS'advmod=so'
p23
aS'advmod=still'
p24
aS'advmod=when'
p25
aS'advmod=worldwide'
p26
aS'aux=be'
p27
aS'aux=can'
p28
aS'aux=could'
p29
aS'aux=do'
p30
aS'aux=have'
p31
aS'aux=may'
p32
aS'aux=to'
p33
aS'aux=will'
p34
aS'aux=would'
p35
aS'auxpass=be'
p36
aS'cc=and'
p37
aS'cc=but'
p38
aS'cc=or'
p39
aS'ccomp=growth'
p40
aS'ccomp=other'
p41
aS'ccomp=say'
p42
aS'complm=that'
p43
aS'complm=whether'
p44
aS'conj=ask'
p45
aS'conj=attract'
p46
aS'conj=build'
p47
aS'conj=complicate'
p48
aS'conj=contribute'
p49
aS'conj=drive'
p50
aS'conj=empower'
p51
aS'conj=fall'
p52
aS'conj=fuel'
p53
aS'conj=generate'
p54
aS'conj=graduate'
p55
aS'conj=help'
p56
aS'conj=keep'
p57
aS'conj=make'
p58
aS'conj=not'
p59
aS'conj=power'
p60
aS'conj=stop'
p61
aS'conj=surround'
p62
aS'csubj=would'
p63
aS'dep=be'
p64
aS'dep=call'
p65
aS'dep=come'
p66
aS'dep=kill'
p67
aS'dep=low'
p68
aS'dep=much'
p69
aS'dep=pay'
p70
aS'dep=say'
p71
aS'dep=that'
p72
aS'dep=thrive'
p73
aS'dep=whose'
p74
aS'dobj=$'
p75
aS'dobj=activity'
p76
aS'dobj=anger'
p77
aS'dobj=benefit'
p78
aS'dobj=bone'
p79
aS'dobj=boom'
p80
aS'dobj=business'
p81
aS'dobj=capacity'
p82
aS'dobj=cash'
p83
aS'dobj=cell'
p84
aS'dobj=chest'
p85
aS'dobj=comment'
p86
aS'dobj=concern'
p87
aS'dobj=condition'
p88
aS'dobj=confidence'
p89
aS'dobj=conflict'
p90
aS'dobj=confrontation'
p91
aS'dobj=controversy'
p92
aS'dobj=criticism'
p93
aS'dobj=crowd'
p94
aS'dobj=damage'
p95
aS'dobj=dioxide'
p96
aS'dobj=dollar'
p97
aS'dobj=electricity'
p98
aS'dobj=employment'
p99
aS'dobj=enemy'
p100
aS'dobj=energy'
p101
aS'dobj=enthusiasm'
p102
aS'dobj=ethanol'
p103
aS'dobj=excitement'
p104
aS'dobj=facility'
p105
aS'dobj=fund'
p106
aS'dobj=growth'
p107
aS'dobj=half'
p108
aS'dobj=hope'
p109
aS'dobj=income'
p110
aS'dobj=information'
p111
aS'dobj=interest'
p112
aS'dobj=job'
p113
aS'dobj=living'
p114
aS'dobj=lot'
p115
aS'dobj=megawatt'
p116
aS'dobj=momentum'
p117
aS'dobj=money'
p118
aS'dobj=more'
p119
aS'dobj=opportunity'
p120
aS'dobj=outrage'
p121
aS'dobj=percent'
p122
aS'dobj=plant'
p123
aS'dobj=pollution'
p124
aS'dobj=power'
p125
aS'dobj=pressure'
p126
aS'dobj=revenue'
p127
aS'dobj=rise'
p128
aS'dobj=round'
p129
aS'dobj=sentiment'
p130
aS'dobj=social'
p131
aS'dobj=soundwave'
p132
aS'dobj=statement'
p133
aS'dobj=support'
p134
aS'dobj=target'
p135
aS'dobj=tax'
p136
aS'dobj=technology'
p137
aS'dobj=tension'
p138
aS'dobj=the'
p139
aS'dobj=ton'
p140
aS'dobj=tornado'
p141
aS'dobj=value'
p142
aS'dobj=very'
p143
aS'dobj=wealth'
p144
aS'dobj=will'
p145
aS'dobj=windfall'
p146
aS'mark=as'
p147
aS'mark=because'
p148
aS'mark=while'
p149
aS'neg=less'
p150
aS'neg=not'
p151
aS'nsubj=#PRP#'
p152
aS'nsubj=America'
p153
aS'nsubj=Bhutto'
p154
aS'nsubj=Clinton'
p155
aS'nsubj=Cup'
p156
aS'nsubj=Flanders'
p157
aS'nsubj=Obama'
p158
aS'nsubj=Tourism'
p159
aS'nsubj=appearance'
p160
aS'nsubj=assassination'
p161
aS'nsubj=blow'
p162
aS'nsubj=business'
p163
aS'nsubj=campaign'
p164
aS'nsubj=choice'
p165
aS'nsubj=coal'
p166
aS'nsubj=composition'
p167
aS'nsubj=controversy'
p168
aS'nsubj=convention'
p169
aS'nsubj=country'
p170
aS'nsubj=credit'
p171
aS'nsubj=dam'
p172
aS'nsubj=deal'
p173
aS'nsubj=detention'
p174
aS'nsubj=device'
p175
aS'nsubj=disease'
p176
aS'nsubj=effort'
p177
aS'nsubj=grant'
p178
aS'nsubj=group'
p179
aS'nsubj=issue'
p180
aS'nsubj=legislation'
p181
aS'nsubj=meeting'
p182
aS'nsubj=methane'
p183
aS'nsubj=pig'
p184
aS'nsubj=plan'
p185
aS'nsubj=plant'
p186
aS'nsubj=power'
p187
aS'nsubj=price'
p188
aS'nsubj=probe'
p189
aS'nsubj=product'
p190
aS'nsubj=project'
p191
aS'nsubj=race'
p192
aS'nsubj=refusal'
p193
aS'nsubj=river'
p194
aS'nsubj=salon'
p195
aS'nsubj=sanitation'
p196
aS'nsubj=site'
p197
aS'nsubj=star'
p198
aS'nsubj=story'
p199
aS'nsubj=such'
p200
aS'nsubj=team'
p201
aS'nsubj=that'
p202
aS'nsubj=this'
p203
aS'nsubj=unit'
p204
aS'nsubj=vehicle'
p205
aS'nsubj=venture'
p206
aS'nsubj=view'
p207
aS'nsubj=volume'
p208
aS'nsubj=which'
p209
aS'nsubj=worker'
p210
aS'nsubj=zone'
p211
aS'nsubjpass=dioxide'
p212
aS'nsubjpass=electricity'
p213
aS'nsubjpass=half'
p214
aS'nsubjpass=issue'
p215
aS'nsubjpass=lot'
p216
aS'nsubjpass=that'
p217
aS'parataxis=say'
p218
aS'prep=about'
p219
aS'prep=across'
p220
aS'prep=among'
p221
aS'prep=amongst'
p222
aS'prep=as'
p223
aS'prep=at'
p224
aS'prep=by'
p225
aS'prep=during'
p226
aS'prep=for'
p227
aS'prep=from'
p228
aS'prep=in'
p229
aS'prep=include'
p230
aS'prep=like'
p231
aS'prep=not'
p232
aS'prep=of'
p233
aS'prep=on'
p234
aS'prep=over'
p235
aS'prep=that'
p236
aS'prep=through'
p237
aS'prep=to'
p238
aS'prep=with'
p239
aS'purpcl=efficient'
p240
aS'tmod=job'
p241
aS'tmod=year'
p242
aS'w+1=$'
p243
aS'w+1=,'
p244
aS'w+1=.'
p245
aS'w+1=1,250'
p246
aS'w+1=100,000'
p247
aS'w+1=20'
p248
aS'w+1=60,000'
p249
aS'w+1=70'
p250
aS'w+1=a'
p251
aS'w+1=about'
p252
aS'w+1=activity'
p253
aS'w+1=additional'
p254
aS'w+1=and'
p255
aS'w+1=another'
p256
aS'w+1=anti-american'
p257
aS'w+1=any'
p258
aS'w+1=as'
p259
aS'w+1=bipartisan'
p260
aS'w+1=both'
p261
aS'w+1=by'
p262
aS'w+1=capacity'
p263
aS'w+1=carbon'
p264
aS'w+1=cash'
p265
aS'w+1=concern'
p266
aS'w+1=confidence'
p267
aS'w+1=conflict'
p268
aS'w+1=damage'
p269
aS'w+1=economic'
p270
aS'w+1=electric'
p271
aS'w+1=electricity'
p272
aS'w+1=employment'
p273
aS'w+1=energy'
p274
aS'w+1=enough'
p275
aS'w+1=enthusiasm'
p276
aS'w+1=entrepreneurial'
p277
aS'w+1=ethanol'
p278
aS'w+1=even'
p279
aS'w+1=excitement'
p280
aS'w+1=extra'
p281
aS'w+1=fierce'
p282
aS'w+1=from'
p283
aS'w+1=fund'
p284
aS'w+1=game-changing'
p285
aS'w+1=hope'
p286
aS'w+1=imaginary'
p287
aS'w+1=in'
p288
aS'w+1=income'
p289
aS'w+1=information'
p290
aS'w+1=interest'
p291
aS'w+1=job'
p292
aS'w+1=large'
p293
aS'w+1=material'
p294
aS'w+1=methane'
p295
aS'w+1=momentum'
p296
aS'w+1=money'
p297
aS'w+1=more'
p298
aS'w+1=much'
p299
aS'w+1=new'
p300
aS'w+1=often-bland'
p301
aS'w+1=over'
p302
aS'w+1=plant'
p303
aS'w+1=political'
p304
aS'w+1=power'
p305
aS'w+1=project'
p306
aS'w+1=public'
p307
aS'w+1=republican'
p308
aS'w+1=social'
p309
aS'w+1=solar'
p310
aS'w+1=some'
p311
aS'w+1=strong'
p312
aS'w+1=such'
p313
aS'w+1=supplemental'
p314
aS'w+1=support'
p315
aS'w+1=target'
p316
aS'w+1=that'
p317
aS'w+1=the'
p318
aS'w+1=they'
p319
aS'w+1=to'
p320
aS'w+1=tv'
p321
aS'w+1=twice'
p322
aS'w+1=unforeseen'
p323
aS'w+1=unit'
p324
aS'w+1=useful'
p325
aS'w+1=valuable'
p326
aS'w+1=we'
p327
aS'w+1=western'
p328
aS'w+1=what'
p329
aS'w+1=when'
p330
aS'w+1=wide'
p331
aS'w+1=widespread'
p332
aS'w+1=windfall'
p333
aS'w+1=would'
p334
aS'w+2=$'
p335
aS"w+2=''"
p336
aS'w+2=,'
p337
aS'w+2=.'
p338
aS'w+2=1.4'
p339
aS'w+2=1.8'
p340
aS'w+2=12'
p341
aS'w+2=150'
p342
aS'w+2=17'
p343
aS'w+2=20'
p344
aS'w+2=208'
p345
aS'w+2=30,000'
p346
aS'w+2=500'
p347
aS'w+2=;'
p348
aS'w+2=Apollo'
p349
aS'w+2=Asia'
p350
aS'w+2=Constitutional'
p351
aS'w+2=Obama'
p352
aS'w+2=Sunni'
p353
aS'w+2=a'
p354
aS'w+2=activity'
p355
aS'w+2=all'
p356
aS'w+2=among'
p357
aS'w+2=amongst'
p358
aS'w+2=and'
p359
aS'w+2=anger'
p360
aS'w+2=as'
p361
aS'w+2=at'
p362
aS'w+2=audience'
p363
aS'w+2=be'
p364
aS'w+2=because'
p365
aS'w+2=benefit'
p366
aS'w+2=bit'
p367
aS'w+2=bone'
p368
aS'w+2=burn'
p369
aS'w+2=business'
p370
aS'w+2=cash'
p371
aS'w+2=cell'
p372
aS'w+2=community'
p373
aS'w+2=concern'
p374
aS'w+2=controversy'
p375
aS'w+2=criticism'
p376
aS'w+2=crowd'
p377
aS'w+2=dioxide'
p378
aS'w+2=drive'
p379
aS'w+2=during'
p380
aS'w+2=electricity'
p381
aS'w+2=enemy'
p382
aS'w+2=energy'
p383
aS'w+2=enthusiasm'
p384
aS'w+2=even'
p385
aS'w+2=extractive'
p386
aS'w+2=facility'
p387
aS'w+2=for'
p388
aS'w+2=gas'
p389
aS'w+2=genetic'
p390
aS'w+2=growth'
p391
aS'w+2=have'
p392
aS'w+2=hoped-for'
p393
aS'w+2=huge'
p394
aS'w+2=in'
p395
aS'w+2=income'
p396
aS'w+2=industrialize'
p397
aS'w+2=information'
p398
aS'w+2=interest'
p399
aS'w+2=international'
p400
aS'w+2=job'
p401
aS'w+2=know'
p402
aS'w+2=less'
p403
aS'w+2=living'
p404
aS'w+2=lot'
p405
aS'w+2=many'
p406
aS'w+2=media'
p407
aS'w+2=megawatt'
p408
aS'w+2=micro'
p409
aS'w+2=most'
p410
aS'w+2=much'
p411
aS'w+2=need'
p412
aS'w+2=new'
p413
aS'w+2=not'
p414
aS'w+2=open'
p415
aS'w+2=opportunity'
p416
aS'w+2=or'
p417
aS'w+2=outrage'
p418
aS'w+2=own'
p419
aS'w+2=percent'
p420
aS'w+2=plenary'
p421
aS'w+2=political'
p422
aS'w+2=power'
p423
aS'w+2=produce'
p424
aS'w+2=revenue'
p425
aS'w+2=rise'
p426
aS'w+2=round'
p427
aS'w+2=same'
p428
aS'w+2=sentiment'
p429
aS'w+2=social'
p430
aS'w+2=some'
p431
aS'w+2=strong'
p432
aS'w+2=support'
p433
aS'w+2=technology'
p434
aS'w+2=tension'
p435
aS'w+2=than'
p436
aS'w+2=that'
p437
aS'w+2=the'
p438
aS'w+2=through'
p439
aS'w+2=to'
p440
aS'w+2=ton'
p441
aS'w+2=tornado'
p442
aS'w+2=two'
p443
aS'w+2=very'
p444
aS'w+2=vote'
p445
aS'w+2=war'
p446
aS'w+2=weak'
p447
aS'w+2=wealth'
p448
aS"w-1=''"
p449
aS'w-1=,'
p450
aS'w-1=-'
p451
aS'w-1=.'
p452
aS'w-1=2007'
p453
aS'w-1=America'
p454
aS'w-1=Clinton'
p455
aS'w-1=Flanders'
p456
aS'w-1=Norway'
p457
aS'w-1=Tourism'
p458
aS'w-1=a'
p459
aS'w-1=about'
p460
aS'w-1=actually'
p461
aS'w-1=additional'
p462
aS'w-1=already'
p463
aS'w-1=also'
p464
aS'w-1=and'
p465
aS'w-1=appearance'
p466
aS'w-1=as'
p467
aS'w-1=be'
p468
aS'w-1=business'
p469
aS'w-1=but'
p470
aS'w-1=can'
p471
aS'w-1=coal'
p472
aS'w-1=continue'
p473
aS'w-1=could'
p474
aS'w-1=deal'
p475
aS'w-1=do'
p476
aS'w-1=electrical'
p477
aS'w-1=electricity'
p478
aS'w-1=energy'
p479
aS'w-1=excitement'
p480
aS'w-1=fact'
p481
aS'w-1=for'
p482
aS'w-1=from'
p483
aS'w-1=have'
p484
aS'w-1=heat'
p485
aS'w-1=help'
p486
aS'w-1=herself'
p487
aS'w-1=in'
p488
aS'w-1=income'
p489
aS'w-1=insecurity'
p490
aS'w-1=it'
p491
aS'w-1=just'
p492
aS'w-1=licens'
p493
aS'w-1=lodge'
p494
aS'w-1=matter'
p495
aS'w-1=may'
p496
aS'w-1=money'
p497
aS'w-1=not'
p498
aS'w-1=of'
p499
aS'w-1=oil'
p500
aS'w-1=on'
p501
aS'w-1=pig'
p502
aS'w-1=plant'
p503
aS'w-1=power'
p504
aS'w-1=pride'
p505
aS'w-1=probe'
p506
aS'w-1=product'
p507
aS'w-1=profit'
p508
aS'w-1=publicity'
p509
aS'w-1=rainfall'
p510
aS'w-1=revenue'
p511
aS'w-1=salon'
p512
aS'w-1=sanitation'
p513
aS'w-1=site'
p514
aS'w-1=star'
p515
aS'w-1=still'
p516
aS'w-1=that'
p517
aS'w-1=through'
p518
aS'w-1=to'
p519
aS'w-1=total'
p520
aS'w-1=tsunami'
p521
aS'w-1=turbine'
p522
aS'w-1=turn'
p523
aS'w-1=unit'
p524
aS'w-1=view'
p525
aS'w-1=which'
p526
aS'w-1=will'
p527
aS'w-1=would'
p528
aS'w-1=you'
p529
aS'w-2=,'
p530
aS'w-2=-'
p531
aS'w-2=.'
p532
aS'w-2=2,500'
p533
aS'w-2=:'
p534
aS'w-2=Bhutto'
p535
aS'w-2=Biden'
p536
aS'w-2=Cup'
p537
aS'w-2=Family'
p538
aS'w-2=Obama'
p539
aS'w-2=President'
p540
aS'w-2=Qasab'
p541
aS'w-2=Sydney'
p542
aS'w-2=a'
p543
aS'w-2=ability'
p544
aS'w-2=able'
p545
aS'w-2=activity'
p546
aS'w-2=alternative'
p547
aS'w-2=and'
p548
aS'w-2=assassination'
p549
aS'w-2=be'
p550
aS'w-2=because'
p551
aS'w-2=begin'
p552
aS'w-2=bogus'
p553
aS'w-2=business'
p554
aS'w-2=campaign'
p555
aS'w-2=can'
p556
aS'w-2=capable'
p557
aS'w-2=car'
p558
aS'w-2=case'
p559
aS'w-2=chest'
p560
aS'w-2=choice'
p561
aS'w-2=composition'
p562
aS'w-2=continue'
p563
aS'w-2=controversy'
p564
aS'w-2=could'
p565
aS'w-2=country'
p566
aS'w-2=credit'
p567
aS'w-2=dam'
p568
aS'w-2=deal'
p569
aS'w-2=device'
p570
aS'w-2=disease'
p571
aS'w-2=do'
p572
aS'w-2=each'
p573
aS'w-2=effort'
p574
aS'w-2=electricity'
p575
aS'w-2=enough'
p576
aS'w-2=expect'
p577
aS'w-2=forest'
p578
aS'w-2=gas'
p579
aS'w-2=get'
p580
aS'w-2=grant'
p581
aS'w-2=group'
p582
aS'w-2=have'
p583
aS'w-2=he'
p584
aS'w-2=heavy'
p585
aS'w-2=hope'
p586
aS'w-2=how'
p587
aS'w-2=ideal'
p588
aS'w-2=in'
p589
aS'w-2=inability'
p590
aS'w-2=income'
p591
aS'w-2=industry'
p592
aS'w-2=issue'
p593
aS'w-2=it'
p594
aS'w-2=know'
p595
aS'w-2=law'
p596
aS'w-2=library'
p597
aS'w-2=light'
p598
aS'w-2=likely'
p599
aS'w-2=local'
p600
aS'w-2=may'
p601
aS'w-2=mean'
p602
aS'w-2=methane'
p603
aS'w-2=money'
p604
aS'w-2=need'
p605
aS'w-2=negative'
p606
aS'w-2=northeast'
p607
aS'w-2=on'
p608
aS'w-2=only'
p609
aS'w-2=other'
p610
aS'w-2=out'
p611
aS'w-2=panel'
p612
aS'w-2=particular'
p613
aS'w-2=particulate'
p614
aS'w-2=plan'
p615
aS'w-2=plant'
p616
aS'w-2=point'
p617
aS'w-2=port'
p618
aS'w-2=price'
p619
aS'w-2=program'
p620
aS'w-2=project'
p621
aS'w-2=provide'
p622
aS'w-2=purpose'
p623
aS'w-2=race'
p624
aS'w-2=reactor'
p625
aS'w-2=resort'
p626
aS'w-2=responsible'
p627
aS'w-2=revenue'
p628
aS'w-2=right'
p629
aS'w-2=say'
p630
aS'w-2=self-sufficient'
p631
aS'w-2=slow'
p632
aS'w-2=spending'
p633
aS'w-2=steam'
p634
aS'w-2=such'
p635
aS'w-2=sunlight'
p636
aS'w-2=suppose'
p637
aS'w-2=sure'
p638
aS'w-2=system'
p639
aS'w-2=target'
p640
aS'w-2=team'
p641
aS'w-2=tent'
p642
aS'w-2=that'
p643
aS'w-2=the'
p644
aS'w-2=there'
p645
aS'w-2=these'
p646
aS'w-2=they'
p647
aS'w-2=this'
p648
aS'w-2=through'
p649
aS'w-2=to'
p650
aS'w-2=tournament'
p651
aS'w-2=try'
p652
aS'w-2=tuna'
p653
aS'w-2=turbine'
p654
aS'w-2=two'
p655
aS'w-2=use'
p656
aS'w-2=vehicle'
p657
aS'w-2=way'
p658
aS'w-2=we'
p659
aS'w-2=well'
p660
aS'w-2=wildlife'
p661
aS'w-2=will'
p662
aS'w-2=with'
p663
aS'w-2=year'
p664
aS'w-2=zone'
p665
aS'xcomp=come'
p666
aS'xcomp=produce'
p667
aS'xcomp=sufficient'
p668
aS'xcomp=support'
p669
asS'dtype'
p670
cnumpy
float64
p671
sS'vocabulary_'
p672
(dp673
g274
I265
sg68
I59
sg526
I517
sg195
I186
sg21
I12
sg111
I102
sg659
I650
sg357
I348
sg122
I113
sg171
I162
sg380
I371
sg466
I457
sg444
I435
sg201
I192
sg400
I391
sg541
I532
sg556
I547
sg88
I79
sg200
I191
sg126
I117
sg605
I596
sg575
I566
sg647
I638
sg163
I154
sg225
I216
sg450
I441
sg566
I557
sg317
I308
sg588
I579
sg480
I471
sg394
I385
sg528
I519
sg215
I206
sg585
I576
sg35
I26
sg11
I2
sg573
I564
sg194
I185
sg494
I485
sg23
I14
sg248
I239
sg20
I11
sg242
I233
sg527
I518
sg137
I128
sg619
I610
sg130
I121
sg555
I546
sg623
I614
sg61
I52
sg216
I207
sg468
I459
sg208
I199
sg537
I528
sg644
I635
sg260
I251
sg355
I346
sg439
I430
sg257
I248
sg265
I256
sg156
I147
sg308
I299
sg515
I506
sg613
I604
sg622
I613
sg508
I499
sg214
I205
sg440
I431
sg55
I46
sg133
I124
sg563
I554
sg484
I475
sg42
I33
sg272
I263
sg46
I37
sg297
I288
sg395
I386
sg106
I97
sg79
I70
sg609
I600
sg345
I336
sg474
I465
sg464
I455
sg28
I19
sg43
I34
sg377
I368
sg323
I314
sg57
I48
sg445
I436
sg529
I520
sg238
I229
sg192
I183
sg481
I472
sg9
I0
sg574
I565
sg521
I512
sg643
I634
sg318
I309
sg26
I17
sg98
I89
sg424
I415
sg364
I355
sg319
I310
sg86
I77
sg166
I157
sg582
I573
sg463
I454
sg289
I280
sg229
I220
sg399
I390
sg97
I88
sg510
I501
sg460
I451
sg286
I277
sg427
I418
sg506
I497
sg236
I227
sg632
I623
sg483
I474
sg207
I198
sg422
I413
sg139
I130
sg222
I213
sg58
I49
sg516
I507
sg454
I445
sg255
I246
sg385
I376
sg74
I65
sg140
I131
sg456
I447
sg661
I652
sg10
I1
sg119
I110
sg666
I657
sg388
I379
sg486
I477
sg258
I249
sg455
I446
sg202
I193
sg491
I482
sg459
I450
sg143
I134
sg342
I333
sg420
I411
sg429
I420
sg667
I658
sg488
I479
sg669
I660
sg549
I540
sg249
I240
sg179
I170
sg306
I297
sg263
I254
sg250
I241
sg168
I159
sg660
I651
sg423
I414
sg557
I548
sg533
I524
sg172
I163
sg414
I405
sg107
I98
sg621
I612
sg405
I396
sg442
I433
sg524
I515
sg472
I463
sg71
I62
sg441
I432
sg358
I349
sg554
I545
sg401
I392
sg656
I647
sg48
I39
sg230
I221
sg232
I223
sg435
I426
sg125
I116
sg597
I588
sg261
I252
sg353
I344
sg183
I174
sg590
I581
sg76
I67
sg285
I276
sg136
I127
sg542
I533
sg608
I599
sg519
I510
sg193
I184
sg324
I315
sg572
I563
sg190
I181
sg634
I625
sg418
I409
sg475
I466
sg391
I382
sg105
I96
sg544
I535
sg328
I319
sg63
I54
sg447
I438
sg178
I169
sg175
I166
sg607
I598
sg522
I513
sg161
I152
sg333
I324
sg259
I250
sg461
I452
sg409
I400
sg117
I108
sg103
I94
sg603
I594
sg191
I182
sg433
I424
sg434
I425
sg655
I646
sg415
I406
sg217
I208
sg199
I190
sg471
I462
sg116
I107
sg371
I362
sg316
I307
sg146
I137
sg545
I536
sg187
I178
sg167
I158
sg365
I356
sg376
I367
sg60
I51
sg410
I401
sg419
I410
sg383
I374
sg18
I9
sg350
I341
sg25
I16
sg381
I372
sg553
I544
sg379
I370
sg13
I4
sg227
I218
sg72
I63
sg372
I363
sg327
I318
sg625
I616
sg640
I631
sg636
I627
sg362
I353
sg52
I43
sg159
I150
sg162
I153
sg361
I352
sg218
I209
sg334
I325
sg36
I27
sg284
I275
sg189
I180
sg407
I398
sg121
I112
sg493
I484
sg24
I15
sg303
I294
sg536
I527
sg633
I624
sg177
I168
sg16
I7
sg267
I258
sg65
I56
sg477
I468
sg91
I82
sg165
I156
sg413
I404
sg112
I103
sg331
I322
sg40
I31
sg416
I407
sg282
I273
sg299
I290
sg600
I591
sg449
I440
sg281
I272
sg186
I177
sg247
I238
sg104
I95
sg115
I106
sg349
I340
sg204
I195
sg321
I312
sg417
I408
sg326
I317
sg203
I194
sg320
I311
sg465
I456
sg322
I313
sg387
I378
sg325
I316
sg570
I561
sg290
I281
sg457
I448
sg128
I119
sg138
I129
sg304
I295
sg393
I384
sg32
I23
sg83
I74
sg145
I136
sg59
I50
sg602
I593
sg95
I86
sg443
I434
sg539
I530
sg523
I514
sg94
I85
sg273
I264
sg291
I282
sg490
I481
sg390
I381
sg627
I618
sg343
I334
sg240
I231
sg89
I80
sg62
I53
sg497
I488
sg302
I293
sg411
I402
sg547
I538
sg87
I78
sg142
I133
sg102
I93
sg210
I201
sg67
I58
sg198
I189
sg49
I40
sg53
I44
sg360
I351
sg280
I271
sg637
I628
sg344
I335
sg113
I104
sg577
I568
sg149
I140
sg612
I603
sg277
I268
sg30
I21
sg114
I105
sg157
I148
sg663
I654
sg34
I25
sg205
I196
sg535
I526
sg406
I397
sg629
I620
sg595
I586
sg239
I230
sg479
I470
sg39
I30
sg569
I560
sg389
I380
sg70
I61
sg615
I606
sg292
I283
sg123
I114
sg589
I580
sg567
I558
sg594
I585
sg340
I331
sg351
I342
sg568
I559
sg339
I330
sg657
I648
sg206
I197
sg158
I149
sg173
I164
sg78
I69
sg132
I123
sg495
I486
sg425
I416
sg278
I269
sg336
I327
sg332
I323
sg301
I292
sg352
I343
sg17
I8
sg485
I476
sg578
I569
sg571
I562
sg546
I537
sg22
I13
sg386
I377
sg279
I270
sg148
I139
sg620
I611
sg579
I570
sg110
I101
sg448
I439
sg412
I403
sg368
I359
sg583
I574
sg37
I28
sg525
I516
sg155
I146
sg180
I171
sg262
I253
sg492
I483
sg469
I460
sg150
I141
sg606
I597
sg649
I640
sg470
I461
sg641
I632
sg196
I187
sg431
I422
sg288
I279
sg432
I423
sg580
I571
sg152
I143
sg252
I243
sg85
I76
sg638
I629
sg518
I509
sg38
I29
sg294
I285
sg624
I615
sg564
I555
sg309
I300
sg269
I260
sg134
I125
sg29
I20
sg231
I222
sg69
I60
sg540
I531
sg314
I305
sg562
I553
sg513
I504
sg268
I259
sg54
I45
sg646
I637
sg446
I437
sg552
I543
sg604
I595
sg84
I75
sg430
I421
sg618
I609
sg348
I339
sg374
I365
sg502
I493
sg184
I175
sg514
I505
sg512
I503
sg45
I36
sg14
I5
sg310
I301
sg81
I72
sg550
I541
sg211
I202
sg233
I224
sg591
I582
sg234
I225
sg96
I87
sg369
I360
sg453
I444
sg209
I200
sg476
I467
sg312
I303
sg66
I57
sg421
I412
sg75
I66
sg489
I480
sg366
I357
sg90
I81
sg436
I427
sg428
I419
sg403
I394
sg437
I428
sg188
I179
sg311
I302
sg359
I350
sg170
I161
sg398
I389
sg253
I244
sg100
I91
sg635
I626
sg131
I122
sg548
I539
sg293
I284
sg665
I656
sg639
I630
sg144
I135
sg129
I120
sg499
I490
sg596
I587
sg650
I641
sg501
I492
sg64
I55
sg581
I572
sg586
I577
sg15
I6
sg220
I211
sg520
I511
sg507
I498
sg652
I643
sg77
I68
sg135
I126
sg478
I469
sg50
I41
sg576
I567
sg668
I659
sg584
I575
sg503
I494
sg628
I619
sg298
I289
sg153
I144
sg296
I287
sg630
I621
sg438
I429
sg224
I215
sg662
I653
sg223
I214
sg530
I521
sg531
I522
sg532
I523
sg473
I464
sg329
I320
sg31
I22
sg534
I525
sg631
I622
sg221
I212
sg452
I443
sg451
I442
sg47
I38
sg346
I337
sg341
I332
sg271
I262
sg511
I502
sg219
I210
sg587
I578
sg237
I228
sg56
I47
sg504
I495
sg601
I592
sg610
I601
sg120
I111
sg174
I165
sg256
I247
sg611
I602
sg559
I550
sg616
I607
sg543
I534
sg560
I551
sg500
I491
sg287
I278
sg617
I608
sg382
I373
sg654
I645
sg505
I496
sg426
I417
sg266
I257
sg276
I267
sg147
I138
sg99
I90
sg653
I644
sg270
I261
sg254
I245
sg614
I605
sg197
I188
sg118
I109
sg283
I274
sg538
I529
sg185
I176
sg645
I636
sg626
I617
sg93
I84
sg44
I35
sg593
I584
sg241
I232
sg642
I633
sg41
I32
sg212
I203
sg651
I642
sg664
I655
sg251
I242
sg275
I266
sg392
I383
sg176
I167
sg384
I375
sg498
I489
sg127
I118
sg561
I552
sg73
I64
sg375
I366
sg80
I71
sg347
I338
sg295
I286
sg599
I590
sg246
I237
sg648
I639
sg92
I83
sg19
I10
sg598
I589
sg592
I583
sg109
I100
sg51
I42
sg228
I219
sg307
I298
sg181
I172
sg164
I155
sg330
I321
sg264
I255
sg33
I24
sg154
I145
sg315
I306
sg235
I226
sg313
I304
sg169
I160
sg408
I399
sg300
I291
sg462
I453
sg243
I234
sg396
I387
sg517
I508
sg558
I549
sg378
I369
sg482
I473
sg244
I235
sg245
I236
sg658
I649
sg338
I329
sg337
I328
sg487
I478
sg363
I354
sg151
I142
sg335
I326
sg226
I217
sg12
I3
sg305
I296
sg509
I500
sg565
I556
sg101
I92
sg397
I388
sg82
I73
sg213
I204
sg404
I395
sg458
I449
sg141
I132
sg367
I358
sg496
I487
sg182
I173
sg467
I458
sg551
I542
sg370
I361
sg160
I151
sg27
I18
sg108
I99
sg356
I347
sg402
I393
sg354
I345
sg124
I115
sg373
I364
ssS'separator'
p674
S'='
sS'sparse'
p675
I01
sb.