ccopy_reg
_reconstructor
p1
(csklearn.feature_extraction.dict_vectorizer
DictVectorizer
p2
c__builtin__
object
p3
NtRp4
(dp5
S'vocabulary_'
p6
(dp7
S'w+2=african'
p8
I153
sS'w+1=.'
p9
I94
sS'advmod=directly'
p10
I2
sS'w+1=Tuesday'
p11
I102
sS'w+2=combatant'
p12
I161
sS'w-2=prime'
p13
I256
sS'w-1=specially'
p14
I217
sS'dobj=FARC'
p15
I38
sS'w-2=would'
p16
I271
sS'w+1=group'
p17
I113
sS'advmod=specially'
p18
I8
sS'nsubj=post'
p19
I71
sS'w+2=Shabaab'
p20
I149
sS'advmod=recently'
p21
I6
sS'dobj=organization'
p22
I52
sS'w-1=consider'
p23
I202
sS'w-1=missile'
p24
I210
sS'w+2=national'
p25
I168
sS'w+2=no-fly'
p26
I169
sS'xcomp=accept'
p27
I272
sS'w-1=be'
p28
I198
sS'dobj=representative'
p29
I54
sS'w-2=to'
p30
I268
sS'w-2=use'
p31
I269
sS'w+2=.'
p32
I138
sS'w+2=and'
p33
I155
sS'w+2=in'
p34
I165
sS'w+1=south'
p35
I125
sS'w+2=2007'
p36
I140
sS'w-2=prisoner'
p37
I257
sS'nsubj=process'
p38
I72
sS'w+2=man'
p39
I167
sS'w-2=White'
p40
I239
sS'w-1=by'
p41
I200
sS'w-2=Bush'
p42
I227
sS'w+1=trajectory'
p43
I131
sS'w-2=of'
p44
I252
sS'w+1=state'
p45
I126
sS'xcomp=group'
p46
I274
sS'w-2=May'
p47
I232
sS'w-2=they'
p48
I266
sS'w-2=on'
p49
I253
sS'nsubj=percentage'
p50
I70
sS'w-2=Egypt'
p51
I231
sS'prep=by'
p52
I87
sS'advmod=specifically'
p53
I9
sS'tmod=#DATE#'
p54
I91
sS'w-2=and'
p55
I241
sS'w+2=end'
p56
I163
sS'dobj=group'
p57
I48
sS'dobj=Shabaab'
p58
I44
sS'w-1=other'
p59
I212
sS'w+1=13'
p60
I95
sS'dobj=#PRP#'
p61
I35
sS'w-1=hague'
p62
I205
sS'w+1=private'
p63
I121
sS'w+2=temple'
p64
I178
sS'nsubj=Annan'
p65
I61
sS'w-2=which'
p66
I270
sS'w+2=Maoists'
p67
I145
sS'aux=should'
p68
I12
sS'dobj=Ramaphosa'
p69
I43
sS'w-2=North'
p70
I233
sS'w+2=U.S.'
p71
I151
sS'w-2=ability'
p72
I240
sS'nsubj=Court'
p73
I64
sS'w-1=so'
p74
I216
sS"w-1='s"
p75
I183
sS'w+1=November'
p76
I99
sS'nsubjpass=Airspace'
p77
I75
sS'w+1=choice'
p78
I108
sS'w+2=Number'
p79
I147
sS'advmod=so'
p80
I7
sS'nsubjpass=presidency'
p81
I83
sS'w-2=from'
p82
I246
sS'w+2=the'
p83
I180
sS'w+1=as'
p84
I105
sS'w+1=under'
p85
I133
sS'nsubj=States'
p86
I67
sS'w-2=,'
p87
I222
sS'w-2=.'
p88
I223
sS'cc=or'
p89
I18
sS'nsubj=House'
p90
I65
sS'w+1=he'
p91
I114
sS'w+1=Tehran'
p92
I101
sS'w-2=dealings'
p93
I243
sS'conj=lead'
p94
I28
sS'aux=have'
p95
I11
sS'w+2=FARC'
p96
I144
sS'w-2=government'
p97
I248
sS'w+1=protest'
p98
I122
sS'nsubjpass=that'
p99
I84
sS'conj=enter'
p100
I25
sS'dobj=PKK'
p101
I42
sS'w-2=Union'
p102
I238
sS'dobj=Guard'
p103
I39
sS'w-1=troops'
p104
I220
sS'w+2=10'
p105
I139
sS'w-1=Iran'
p106
I188
sS'w-2=the'
p107
I265
sS'nsubjpass=delegate'
p108
I81
sS'ccomp=demand'
p109
I19
sS'w-2=Council'
p110
I228
sS'dobj=Muslims'
p111
I41
sS'conj=grant'
p112
I26
sS'xcomp=target'
p113
I276
sS'w+2=alphabetical'
p114
I154
sS'w-2=in'
p115
I250
sS'w-1=recently'
p116
I215
sS'w+1=sector'
p117
I123
sS'w-1=with'
p118
I221
sS'dobj=fund'
p119
I47
sS'w+1=heir'
p120
I115
sS'w-2=other'
p121
I254
sS'w+1=two'
p122
I132
sS'nsubjpass=#DATE#'
p123
I73
sS'advmod=when'
p124
I10
sS'w+1=Britain'
p125
I96
sS'w+2=group'
p126
I164
sS'w-2=State'
p127
I235
sS'nsubjpass=government'
p128
I82
sS'w-2=support'
p129
I263
sS'nsubj=minister'
p130
I69
sS'dobj=sponsor'
p131
I55
sS'prep=for'
p132
I88
sS'w+2=sponsor'
p133
I175
sS'w-1=a'
p134
I194
sS'w-2=Brown'
p135
I226
sS'w-2=process'
p136
I258
sS'w-1=have'
p137
I206
sS'ccomp=say'
p138
I20
sS'nsubjpass=which'
p139
I85
sS'w-2=request'
p140
I260
sS'w+1=October'
p141
I100
sS'nsubj=Bush'
p142
I62
sS'w+2=at'
p143
I158
sS"w+2=''"
p144
I135
sS'nsubj=country'
p145
I68
sS'w-1=he'
p146
I207
sS'w+2=as'
p147
I157
sS'w-1=Penalty'
p148
I191
sS'w-1=chemical'
p149
I201
sS'w-1=Korea'
p150
I189
sS'w+1=Worldwide'
p151
I103
sS'w+2=state'
p152
I176
sS'advmod=immediately'
p153
I4
sS'w+2=CPP'
p154
I143
sS'conj=place'
p155
I29
sS'w+2=Arab'
p156
I141
sS'w-2=should'
p157
I262
sS'auxpass=be'
p158
I15
sS'nsubjpass=Guards'
p159
I77
sS'complm=that'
p160
I22
sS'w+1=fund'
p161
I112
sS'complm=whether'
p162
I23
sS'w+2=they'
p163
I181
sS'ccomp=train'
p164
I21
sS'xcomp=defend'
p165
I273
sS'w-2=U.S.'
p166
I237
sS'w-1=anyone'
p167
I196
sS'w-2=States'
p168
I236
sS'w+1=center'
p169
I107
sS'w+1=terrorist'
p170
I129
sS'w+2=will'
p171
I182
sS'dobj=end'
p172
I46
sS'w+2=terrorist'
p173
I179
sS'w-2=have'
p174
I249
sS'w-2=delegate'
p175
I244
sS'w-1=House'
p176
I187
sS'cc=and'
p177
I16
sS'advmod=officially'
p178
I5
sS'w+2=deployment'
p179
I162
sS'w-2=that'
p180
I264
sS'w+2=Tsvangirai'
p181
I150
sS'w+1=the'
p182
I130
sS'tmod=Month'
p183
I92
sS'w+1=by'
p184
I106
sS'w-2=tie'
p185
I267
sS'w-1=fund'
p186
I204
sS'nsubjpass=Jordan'
p187
I78
sS'cc=but'
p188
I17
sS'dobj=Maoists'
p189
I40
sS'w-2=Bhutto'
p190
I225
sS'w-1=but'
p191
I199
sS"w+2='s"
p192
I136
sS'w+2=Muslims'
p193
I146
sS'w-2=Ronald'
p194
I234
sS'w+2=Bluegrass'
p195
I142
sS'nsubjpass=Brown'
p196
I76
sS'nsubjpass=#PRP#'
p197
I74
sS'prep=in'
p198
I89
sS'advmod=how'
p199
I3
sS'aux=would'
p200
I14
sS'w-2=procure'
p201
I259
sS'w+1=for'
p202
I111
sS'w+1=in'
p203
I116
sS'w+1=enemy'
p204
I110
sS'advcl=step'
p205
I0
sS'dobj=minister'
p206
I51
sS'w-2=individual'
p207
I251
sS'w-1=Reagan'
p208
I192
sS'nsubj=#PRP#'
p209
I60
sS'w+1=terrorism'
p210
I128
sS'w+1=who'
p211
I134
sS'w+1=Iran'
p212
I97
sS'conj=concern'
p213
I24
sS'w+1=successor'
p214
I127
sS'w+2=such'
p215
I177
sS'w-1=at'
p216
I197
sS'nsubjpass=Venezuela'
p217
I79
sS'prep=to'
p218
I90
sS'aux=to'
p219
I13
sS'w-2=Department'
p220
I230
sS'w+2=organization'
p221
I171
sS'w-1=people'
p222
I213
sS'w-1=Department'
p223
I186
sS'dobj=the'
p224
I57
sS'dobj=man'
p225
I50
sS'advmod=ago'
p226
I1
sS'dep=legitimate'
p227
I32
sS'dobj=#NUMBER#'
p228
I34
sS'w-1=Pakistan'
p229
I190
sS'dobj=combatant'
p230
I45
sS'w+1=million'
p231
I118
sS'w-2=force'
p232
I245
sS'tmod=enemy'
p233
I93
sS'nsubj=Reagan'
p234
I66
sS'w-1=officially'
p235
I211
sS'w-2=pkk'
p236
I255
sS'prep=as'
p237
I86
sS'w+2=of'
p238
I170
sS'dobj=#DATE#'
p239
I33
sS'dep=after'
p240
I31
sS'conj=support'
p241
I30
sS'w+2=,'
p242
I137
sS'w-1=Countries'
p243
I185
sS'dobj=state'
p244
I56
sS'conj=kill'
p245
I27
sS'w+1=other'
p246
I119
sS'dobj=park'
p247
I53
sS'w-1=U.S.'
p248
I193
sS'w+2=park'
p249
I172
sS'w-1=to'
p250
I219
sS'w+1=individual'
p251
I117
sS'w+2=reconstruction'
p252
I173
sS'w-1=and'
p253
I195
sS'dobj=CPP'
p254
I36
sS'w+1=shelter'
p255
I124
sS'w-2=Death'
p256
I229
sS'nsubj=Coalition'
p257
I63
sS'w-2=short-range'
p258
I261
sS'w-1=immediately'
p259
I208
sS'dobj=zone'
p260
I58
sS'w-2=gather'
p261
I247
sS'w-1=prime-minister'
p262
I214
sS'w-1=country'
p263
I203
sS'w+1=Morgan'
p264
I98
sS'dobj=identity'
p265
I49
sS'nsubjpass=criterion'
p266
I80
sS'w+2=area'
p267
I156
sS'dobj=Corps'
p268
I37
sS'w+1=a'
p269
I104
sS'w-2=be'
p270
I242
sS'w-1=...'
p271
I184
sS'w+2=labor'
p272
I166
sS'w+2=bank'
p273
I159
sS'w-1=the'
p274
I218
sS'xcomp=site'
p275
I275
sS'w-2=Annan'
p276
I224
sS'w+2=PKK'
p277
I148
sS'mark=if'
p278
I59
sS'w-1=minister'
p279
I209
sS'w+2=be'
p280
I160
sS'w+2=a'
p281
I152
sS'w+1=day'
p282
I109
sS'w+1=post-soviet'
p283
I120
sS'w+2=specifically'
p284
I174
ssS'dtype'
p285
cnumpy
float64
p286
sS'feature_names_'
p287
(lp288
g205
ag226
ag10
ag199
ag153
ag178
ag21
ag80
ag18
ag53
ag124
ag95
ag68
ag219
ag200
ag158
ag177
ag188
ag89
ag109
ag138
ag164
ag160
ag162
ag213
ag100
ag112
ag245
ag94
ag155
ag241
ag240
ag227
ag239
ag228
ag61
ag254
ag268
ag15
ag103
ag189
ag111
ag101
ag69
ag58
ag230
ag172
ag119
ag57
ag265
ag225
ag206
ag22
ag247
ag29
ag131
ag244
ag224
ag260
ag278
ag209
ag65
ag142
ag257
ag73
ag90
ag234
ag86
ag145
ag130
ag50
ag19
ag38
ag123
ag197
ag77
ag196
ag159
ag187
ag217
ag266
ag108
ag128
ag81
ag99
ag139
ag237
ag52
ag132
ag198
ag218
ag54
ag183
ag233
ag9
ag60
ag125
ag212
ag264
ag76
ag141
ag92
ag11
ag151
ag269
ag84
ag184
ag169
ag78
ag282
ag204
ag202
ag161
ag17
ag91
ag120
ag203
ag251
ag231
ag246
ag283
ag63
ag98
ag117
ag255
ag35
ag45
ag214
ag210
ag170
ag182
ag43
ag122
ag85
ag211
ag144
ag192
ag242
ag32
ag105
ag36
ag156
ag195
ag154
ag96
ag67
ag193
ag79
ag277
ag20
ag181
ag71
ag281
ag8
ag114
ag33
ag267
ag147
ag143
ag273
ag280
ag12
ag179
ag56
ag126
ag34
ag272
ag39
ag25
ag26
ag238
ag221
ag249
ag252
ag284
ag133
ag152
ag215
ag64
ag173
ag83
ag163
ag171
ag75
ag271
ag243
ag223
ag176
ag106
ag150
ag229
ag148
ag208
ag248
ag134
ag253
ag167
ag216
ag28
ag191
ag41
ag149
ag23
ag263
ag186
ag62
ag137
ag146
ag259
ag279
ag24
ag235
ag59
ag222
ag262
ag116
ag74
ag14
ag274
ag250
ag104
ag118
ag87
ag88
ag276
ag190
ag135
ag42
ag110
ag256
ag220
ag51
ag47
ag70
ag194
ag127
ag168
ag166
ag102
ag40
ag72
ag55
ag270
ag93
ag175
ag232
ag82
ag261
ag97
ag174
ag115
ag207
ag44
ag49
ag121
ag236
ag13
ag37
ag136
ag201
ag140
ag258
ag157
ag129
ag180
ag107
ag48
ag185
ag30
ag31
ag66
ag16
ag27
ag165
ag46
ag275
ag113
asS'separator'
p289
S'='
sS'sparse'
p290
I01
sb.