ccopy_reg
_reconstructor
p1
(csklearn.feature_extraction.dict_vectorizer
DictVectorizer
p2
c__builtin__
object
p3
NtRp4
(dp5
S'sort'
p6
I01
sS'feature_names_'
p7
(lp8
S'advcl=give'
p9
aS'advcl=publicize'
p10
aS'advcl=stop'
p11
aS'advcl=work'
p12
aS'advmod=also'
p13
aS'advmod=back'
p14
aS'advmod=elsewhere'
p15
aS'advmod=even'
p16
aS'advmod=first'
p17
aS'advmod=more'
p18
aS'advmod=only'
p19
aS'advmod=then'
p20
aS'advmod=when'
p21
aS'advmod=where'
p22
aS'amod=formal'
p23
aS'amod=further'
p24
aS'amod=good'
p25
aS'amod=little'
p26
aS'amod=particular'
p27
aS'amod=prior'
p28
aS'amod=proper'
p29
aS'amod=short'
p30
aS'aux=be'
p31
aS'aux=can'
p32
aS'aux=could'
p33
aS'aux=do'
p34
aS'aux=have'
p35
aS'aux=to'
p36
aS'aux=will'
p37
aS'auxpass=be'
p38
aS'auxpass=get'
p39
aS'cc=and'
p40
aS'cc=but'
p41
aS'ccomp=be'
p42
aS'ccomp=chinese'
p43
aS'ccomp=confirm'
p44
aS'ccomp=create'
p45
aS'ccomp=die'
p46
aS'ccomp=fundraise'
p47
aS'ccomp=have'
p48
aS'ccomp=hooked'
p49
aS'ccomp=increase'
p50
aS'ccomp=involve'
p51
aS'ccomp=irritable'
p52
aS'ccomp=mobilize'
p53
aS'ccomp=perform'
p54
aS'ccomp=play'
p55
aS'ccomp=react'
p56
aS'ccomp=similar'
p57
aS'ccomp=spend'
p58
aS'ccomp=turn'
p59
aS'ccomp=undergo'
p60
aS'conj=appreciate'
p61
aS'conj=barge'
p62
aS'conj=call'
p63
aS'conj=exist'
p64
aS'conj=reference'
p65
aS'conj=summon'
p66
aS'dep=case'
p67
aS'dep=fire'
p68
aS'dep=involve'
p69
aS'dep=limit'
p70
aS'dep=start'
p71
aS'dep=suspension'
p72
aS'dep=tick'
p73
aS'det=a'
p74
aS'det=no'
p75
aS'det=the'
p76
aS'dobj=#PRP#'
p77
aS'dobj=abnormality'
p78
aS'dobj=ache'
p79
aS'dobj=benefit'
p80
aS'dobj=car'
p81
aS'dobj=change'
p82
aS'dobj=customer'
p83
aS'dobj=decrease'
p84
aS'dobj=demeanor'
p85
aS'dobj=disease'
p86
aS'dobj=drop'
p87
aS'dobj=face'
p88
aS'dobj=flame'
p89
aS'dobj=government'
p90
aS'dobj=gun'
p91
aS'dobj=increase'
p92
aS'dobj=irregularity'
p93
aS'dobj=movement'
p94
aS'dobj=numbness'
p95
aS'dobj=panel'
p96
aS'dobj=person'
p97
aS'dobj=pile'
p98
aS'dobj=rain'
p99
aS'dobj=smoke'
p100
aS'dobj=sound'
p101
aS'dobj=stack'
p102
aS'dobj=tendency'
p103
aS'dobj=that'
p104
aS'dobj=the'
p105
aS'dobj=what'
p106
aS'mark=if'
p107
aS'mark=until'
p108
aS'neg=not'
p109
aS'nn=advance'
p110
aS'nn=foreclosure'
p111
aS'nn=hour'
p112
aS'nn=nobody'
p113
aS'nsubj=#NUMBER#'
p114
aS'nsubj=#PRP#'
p115
aS'nsubj=Americans'
p116
aS'nsubj=Bush'
p117
aS'nsubj=Kaimal'
p118
aS'nsubj=Pena'
p119
aS'nsubj=Professors'
p120
aS'nsubj=colleague'
p121
aS'nsubj=crew'
p122
aS'nsubj=director'
p123
aS'nsubj=driver'
p124
aS'nsubj=lot'
p125
aS'nsubj=man'
p126
aS'nsubj=monitor'
p127
aS'nsubj=parent'
p128
aS'nsubj=people'
p129
aS'nsubj=troops'
p130
aS'nsubj=who'
p131
aS'nsubjpass=#PRP#'
p132
aS'nsubjpass=effort'
p133
aS'nsubjpass=level'
p134
aS'nsubjpass=some'
p135
aS'nsubjpass=strain'
p136
aS'nsubjpass=talent'
p137
aS'num=#NUMBER#'
p138
aS'poss=moment'
p139
aS'poss=year'
p140
aS'prep=about'
p141
aS'prep=although'
p142
aS'prep=among'
p143
aS'prep=before'
p144
aS'prep=by'
p145
aS'prep=during'
p146
aS'prep=for'
p147
aS'prep=from'
p148
aS'prep=in'
p149
aS'prep=of'
p150
aS'prep=than'
p151
aS'prep=with'
p152
aS'prt=up'
p153
aS'rel=that'
p154
aS'tmod=#DATE#'
p155
aS"w+1='"
p156
aS'w+1=,'
p157
aS'w+1=-'
p158
aS'w+1=.'
p159
aS'w+1=:'
p160
aS'w+1=?'
p161
aS'w+1=Monday'
p162
aS'w+1=a'
p163
aS'w+1=about'
p164
aS'w+1=among'
p165
aS'w+1=and'
p166
aS'w+1=any'
p167
aS'w+1=back'
p168
aS'w+1=be'
p169
aS'w+1=before'
p170
aS'w+1=benefit'
p171
aS'w+1=by'
p172
aS'w+1=change'
p173
aS'w+1=disease'
p174
aS'w+1=during'
p175
aS'w+1=for'
p176
aS'w+1=have'
p177
aS'w+1=how'
p178
aS'w+1=in'
p179
aS'w+1=its'
p180
aS'w+1=less'
p181
aS'w+1=many'
p182
aS'w+1=more'
p183
aS'w+1=negative'
p184
aS'w+1=new'
p185
aS'w+1=not'
p186
aS'w+1=of'
p187
aS'w+1=on'
p188
aS'w+1=patient'
p189
aS'w+1=people'
p190
aS'w+1=period'
p191
aS'w+1=smoke'
p192
aS'w+1=so'
p193
aS'w+1=that'
p194
aS'w+1=the'
p195
aS'w+1=these'
p196
aS'w+1=they'
p197
aS'w+1=this'
p198
aS'w+1=to'
p199
aS'w+1=when'
p200
aS'w+1=with'
p201
aS"w+2=''"
p202
aS'w+2=.'
p203
aS'w+2=140'
p204
aS'w+2=I'
p205
aS'w+2=India'
p206
aS'w+2=Kremlin'
p207
aS'w+2=Pope'
p208
aS'w+2=South'
p209
aS'w+2=U.S.'
p210
aS'w+2=a'
p211
aS'w+2=ache'
p212
aS'w+2=all'
p213
aS'w+2=and'
p214
aS'w+2=appreciate'
p215
aS'w+2=as'
p216
aS'w+2=barge'
p217
aS'w+2=be'
p218
aS'w+2=car'
p219
aS'w+2=change'
p220
aS'w+2=come'
p221
aS'w+2=conduct'
p222
aS'w+2=creep'
p223
aS'w+2=drop'
p224
aS'w+2=easy'
p225
aS'w+2=fewer'
p226
aS'w+2=flame'
p227
aS'w+2=government'
p228
aS'w+2=he'
p229
aS'w+2=in'
p230
aS'w+2=increase'
p231
aS'w+2=intelligence'
p232
aS'w+2=irregularity'
p233
aS'w+2=it'
p234
aS'w+2=its'
p235
aS'w+2=kind'
p236
aS'w+2=leave'
p237
aS'w+2=lot'
p238
aS'w+2=many'
p239
aS'w+2=marked'
p240
aS'w+2=most'
p241
aS'w+2=movement'
p242
aS'w+2=only'
p243
aS'w+2=people'
p244
aS'w+2=person'
p245
aS'w+2=put'
p246
aS'w+2=rain'
p247
aS'w+2=react'
p248
aS'w+2=resident'
p249
aS'w+2=russian'
p250
aS'w+2=shoulder-high'
p251
aS'w+2=small'
p252
aS'w+2=sound'
p253
aS'w+2=stack'
p254
aS'w+2=student'
p255
aS'w+2=tendency'
p256
aS'w+2=than'
p257
aS'w+2=that'
p258
aS'w+2=the'
p259
aS'w+2=there'
p260
aS'w+2=they'
p261
aS'w+2=this'
p262
aS'w+2=to'
p263
aS'w+2=troop'
p264
aS'w+2=unusual'
p265
aS'w+2=up'
p266
aS'w+2=urge'
p267
aS'w+2=we'
p268
aS'w+2=well'
p269
aS'w+2=with'
p270
aS'w+2=you'
p271
aS"w-1='s"
p272
aS'w-1=,'
p273
aS'w-1=.'
p274
aS'w-1=Bush'
p275
aS'w-1=I'
p276
aS'w-1=Kaimal'
p277
aS'w-1=Pena'
p278
aS'w-1=Professors'
p279
aS'w-1=a'
p280
aS'w-1=accident'
p281
aS'w-1=advance'
p282
aS'w-1=also'
p283
aS'w-1=and'
p284
aS'w-1=be'
p285
aS'w-1=can'
p286
aS'w-1=colleague'
p287
aS'w-1=could'
p288
aS'w-1=director'
p289
aS'w-1=even'
p290
aS'w-1=file'
p291
aS'w-1=first'
p292
aS'w-1=foreclosure'
p293
aS'w-1=formal'
p294
aS'w-1=from'
p295
aS'w-1=further'
p296
aS'w-1=gain'
p297
aS'w-1=get'
p298
aS'w-1=good'
p299
aS'w-1=have'
p300
aS'w-1=he'
p301
aS'w-1=hour'
p302
aS'w-1=little'
p303
aS'w-1=man'
p304
aS'w-1=nightclub'
p305
aS'w-1=nobody'
p306
aS'w-1=not'
p307
aS'w-1=on'
p308
aS'w-1=particular'
p309
aS'w-1=people'
p310
aS'w-1=prior'
p311
aS'w-1=proper'
p312
aS'w-1=receive'
p313
aS'w-1=serve'
p314
aS'w-1=she'
p315
aS'w-1=short'
p316
aS'w-1=take'
p317
aS'w-1=the'
p318
aS'w-1=they'
p319
aS'w-1=three-day'
p320
aS'w-1=to'
p321
aS'w-1=we'
p322
aS'w-1=will'
p323
aS'w-1=without'
p324
aS'w-1=you'
p325
aS"w-2='"
p326
aS"w-2=''"
p327
aS'w-2=,'
p328
aS'w-2=.'
p329
aS'w-2=24'
p330
aS'w-2=48'
p331
aS'w-2=Americans'
p332
aS'w-2=Hollywood'
p333
aS'w-2=I'
p334
aS'w-2=India'
p335
aS'w-2=Iraqis'
p336
aS'w-2=President'
p337
aS'w-2=a'
p338
aS'w-2=african'
p339
aS'w-2=ago'
p340
aS'w-2=also'
p341
aS'w-2=area'
p342
aS'w-2=around'
p343
aS'w-2=arrive'
p344
aS'w-2=attract'
p345
aS'w-2=be'
p346
aS'w-2=both'
p347
aS'w-2=can'
p348
aS'w-2=country'
p349
aS'w-2=do'
p350
aS'w-2=effort'
p351
aS'w-2=first'
p352
aS'w-2=give'
p353
aS'w-2=have'
p354
aS'w-2=he'
p355
aS'w-2=issue'
p356
aS'w-2=leave'
p357
aS'w-2=little'
p358
aS'w-2=make'
p359
aS'w-2=moment'
p360
aS'w-2=monitor'
p361
aS'w-2=no'
p362
aS'w-2=not'
p363
aS'w-2=on'
p364
aS'w-2=one'
p365
aS'w-2=out'
p366
aS'w-2=parent'
p367
aS'w-2=people'
p368
aS'w-2=provide'
p369
aS'w-2=put'
p370
aS'w-2=real'
p371
aS'w-2=receive'
p372
aS'w-2=relatively'
p373
aS'w-2=say'
p374
aS'w-2=seem'
p375
aS'w-2=she'
p376
aS'w-2=take'
p377
aS'w-2=that'
p378
aS'w-2=they'
p379
aS'w-2=thing'
p380
aS'w-2=time'
p381
aS'w-2=to'
p382
aS'w-2=until'
p383
aS'w-2=we'
p384
aS'w-2=what'
p385
aS'w-2=where'
p386
aS'w-2=which'
p387
aS'w-2=who'
p388
aS'w-2=with'
p389
aS'w-2=without'
p390
aS'w-2=year'
p391
aS'w-2=you'
p392
aS'xcomp=come'
p393
aS'xcomp=put'
p394
asS'dtype'
p395
cnumpy
float64
p396
sS'vocabulary_'
p397
(dp398
g20
I11
sg144
I135
sg122
I113
sg178
I169
sg18
I9
sg30
I21
sg75
I66
sg233
I224
sg384
I375
sg368
I359
sg282
I273
sg137
I128
sg10
I1
sg95
I86
sg139
I130
sg47
I38
sg348
I339
sg143
I134
sg102
I93
sg379
I370
sg171
I162
sg145
I136
sg253
I244
sg349
I340
sg194
I185
sg63
I54
sg220
I211
sg58
I49
sg164
I155
sg92
I83
sg140
I131
sg242
I233
sg196
I187
sg113
I104
sg120
I111
sg323
I314
sg245
I236
sg372
I363
sg285
I276
sg223
I214
sg320
I311
sg45
I36
sg330
I321
sg108
I99
sg192
I183
sg381
I372
sg386
I377
sg275
I266
sg369
I360
sg388
I379
sg187
I178
sg390
I381
sg263
I254
sg188
I179
sg73
I64
sg300
I291
sg230
I221
sg234
I225
sg299
I290
sg94
I85
sg48
I39
sg288
I279
sg141
I132
sg32
I23
sg271
I262
sg190
I181
sg325
I316
sg295
I286
sg186
I177
sg351
I342
sg142
I133
sg378
I369
sg195
I186
sg101
I92
sg218
I209
sg197
I188
sg132
I123
sg279
I270
sg250
I241
sg149
I140
sg176
I167
sg67
I58
sg86
I77
sg105
I96
sg221
I212
sg57
I48
sg166
I157
sg319
I310
sg66
I57
sg231
I222
sg393
I384
sg127
I118
sg167
I158
sg265
I256
sg153
I144
sg39
I30
sg125
I116
sg268
I259
sg360
I351
sg98
I89
sg118
I109
sg375
I366
sg318
I309
sg316
I307
sg107
I98
sg43
I34
sg49
I40
sg65
I56
sg294
I285
sg22
I13
sg61
I52
sg238
I229
sg79
I70
sg151
I142
sg29
I20
sg177
I168
sg225
I216
sg277
I268
sg76
I67
sg130
I121
sg340
I331
sg249
I240
sg131
I122
sg208
I199
sg373
I364
sg364
I355
sg321
I312
sg189
I180
sg292
I283
sg77
I68
sg350
I341
sg96
I87
sg394
I385
sg219
I210
sg377
I368
sg64
I55
sg119
I110
sg71
I62
sg287
I278
sg213
I204
sg286
I277
sg78
I69
sg42
I33
sg62
I53
sg241
I232
sg21
I12
sg376
I367
sg85
I76
sg147
I138
sg345
I336
sg332
I323
sg117
I108
sg216
I207
sg313
I304
sg9
I0
sg38
I29
sg111
I102
sg60
I51
sg272
I263
sg184
I175
sg206
I197
sg333
I324
sg72
I63
sg114
I105
sg52
I43
sg180
I171
sg270
I261
sg106
I97
sg269
I260
sg336
I327
sg310
I301
sg339
I330
sg246
I237
sg240
I231
sg327
I318
sg90
I81
sg173
I164
sg222
I213
sg84
I75
sg199
I190
sg23
I14
sg229
I220
sg193
I184
sg357
I348
sg152
I143
sg174
I165
sg306
I297
sg17
I8
sg370
I361
sg91
I82
sg315
I306
sg212
I203
sg136
I127
sg352
I343
sg19
I10
sg154
I145
sg362
I353
sg297
I288
sg281
I272
sg289
I280
sg215
I206
sg209
I200
sg312
I303
sg252
I243
sg244
I235
sg237
I228
sg262
I253
sg26
I17
sg44
I35
sg387
I378
sg16
I7
sg165
I156
sg25
I16
sg51
I42
sg191
I182
sg34
I25
sg309
I300
sg389
I380
sg217
I208
sg341
I332
sg37
I28
sg251
I242
sg239
I230
sg81
I72
sg181
I172
sg342
I333
sg248
I239
sg129
I120
sg110
I101
sg124
I115
sg235
I226
sg82
I73
sg335
I326
sg358
I349
sg112
I103
sg103
I94
sg207
I198
sg80
I71
sg70
I61
sg87
I78
sg46
I37
sg202
I193
sg13
I4
sg200
I191
sg123
I114
sg134
I125
sg354
I345
sg227
I218
sg40
I31
sg11
I2
sg331
I322
sg172
I163
sg50
I41
sg169
I160
sg36
I27
sg54
I45
sg255
I246
sg392
I383
sg179
I170
sg104
I95
sg115
I106
sg28
I19
sg41
I32
sg89
I80
sg128
I119
sg317
I308
sg133
I124
sg33
I24
sg337
I328
sg343
I334
sg324
I315
sg236
I227
sg14
I5
sg224
I215
sg311
I302
sg59
I50
sg88
I79
sg68
I59
sg346
I337
sg150
I141
sg296
I287
sg135
I126
sg99
I90
sg126
I117
sg56
I47
sg170
I161
sg138
I129
sg361
I352
sg264
I255
sg305
I296
sg257
I248
sg226
I217
sg258
I249
sg382
I373
sg247
I238
sg385
I376
sg116
I107
sg266
I257
sg27
I18
sg214
I205
sg155
I146
sg243
I234
sg365
I356
sg256
I247
sg198
I189
sg93
I84
sg344
I335
sg355
I346
sg83
I74
sg183
I174
sg201
I192
sg121
I112
sg374
I365
sg259
I250
sg328
I319
sg329
I320
sg284
I275
sg326
I317
sg35
I26
sg380
I371
sg274
I265
sg273
I264
sg363
I354
sg334
I325
sg283
I274
sg276
I267
sg175
I166
sg366
I357
sg278
I269
sg338
I329
sg314
I305
sg383
I374
sg74
I65
sg280
I271
sg69
I60
sg359
I350
sg301
I292
sg303
I294
sg182
I173
sg260
I251
sg162
I153
sg267
I258
sg261
I252
sg356
I347
sg228
I219
sg291
I282
sg391
I382
sg302
I293
sg347
I338
sg210
I201
sg290
I281
sg148
I139
sg53
I44
sg232
I223
sg322
I313
sg204
I195
sg24
I15
sg55
I46
sg367
I358
sg298
I289
sg97
I88
sg185
I176
sg156
I147
sg168
I159
sg158
I149
sg157
I148
sg159
I150
sg353
I344
sg254
I245
sg203
I194
sg15
I6
sg160
I151
sg12
I3
sg109
I100
sg161
I152
sg146
I137
sg205
I196
sg308
I299
sg163
I154
sg307
I298
sg293
I284
sg31
I22
sg371
I362
sg211
I202
sg304
I295
sg100
I91
ssS'separator'
p399
S'='
sS'sparse'
p400
I01
sb.