ccopy_reg
_reconstructor
p1
(csklearn.feature_extraction.dict_vectorizer
DictVectorizer
p2
c__builtin__
object
p3
NtRp4
(dp5
S'vocabulary_'
p6
(dp7
S'w+2=in'
p8
I49
sS'w-2=fail'
p9
I72
sS'w+1=cultural'
p10
I37
sS'dobj=law'
p11
I20
sS'w-2=make'
p12
I73
sS'prep=to'
p13
I32
sS'aux=will'
p14
I5
sS'w-1=we'
p15
I64
sS'aux=to'
p16
I4
sS'w-2=should'
p17
I80
sS'w+2=observe'
p18
I52
sS'w+2=order'
p19
I54
sS'advmod=also'
p20
I0
sS'w+1=rule'
p21
I40
sS'w-2=and'
p22
I68
sS'w+2=law'
p23
I50
sS'w-2=but'
p24
I69
sS'w+2=belief'
p25
I45
sS'w-1=will'
p26
I65
sS'w-2=they'
p27
I81
sS'w-2=.'
p28
I66
sS'auxpass=be'
p29
I6
sS'w+2=or'
p30
I53
sS'complm=that'
p31
I12
sS'w-2=refusal'
p32
I78
sS'dobj=rule'
p33
I23
sS'ccomp=show'
p34
I10
sS'w+1=,'
p35
I35
sS'w+1=.'
p36
I36
sS'w-2=refuse'
p37
I79
sS'conj=keep'
p38
I13
sS'prep=for'
p39
I30
sS'w+2=.'
p40
I44
sS'w-2=after'
p41
I67
sS'w-2=promise'
p42
I75
sS'dobj=lord'
p43
I21
sS'w+1=law'
p44
I39
sS'w+2=client'
p45
I47
sS'neg=not'
p46
I25
sS'dobj=order'
p47
I22
sS'cc=and'
p48
I7
sS'w+2=rule'
p49
I55
sS'aux=must'
p50
I2
sS'w-1=be'
p51
I58
sS'w+2=cease-fire'
p52
I46
sS'w+1=the'
p53
I42
sS'rel=for'
p54
I34
sS'w-1=not'
p55
I59
sS'w-1=Ahmed'
p56
I56
sS'nsubj=Ahmed'
p57
I27
sS'nsubj=reason'
p58
I29
sS'w-2=must'
p59
I74
sS'cc=but'
p60
I8
sS'w-1=say'
p61
I60
sS'w-1=to'
p62
I63
sS'w+2=lord'
p63
I51
sS'purpcl=protect'
p64
I33
sS'w-2=to'
p65
I82
sS'aux=should'
p66
I3
sS'dobj=cease-fire'
p67
I18
sS'nsubj=lawlessness'
p68
I28
sS'dobj=belief'
p69
I17
sS'w+1=subpoena'
p70
I41
sS'ccomp=uphold'
p71
I11
sS'conj=say'
p72
I14
sS'w-1=also'
p73
I57
sS'w+2=court'
p74
I48
sS'dobj=#PRP#'
p75
I16
sS'w-2=reason'
p76
I77
sS'w-2=do'
p77
I70
sS'w-1=should'
p78
I61
sS'w-1=they'
p79
I62
sS'prep=in'
p80
I31
sS'w+1=you'
p81
I43
sS'dep=observe'
p82
I15
sS'w+1=it'
p83
I38
sS'w-2=expect'
p84
I71
sS'w-2=ready'
p85
I76
sS'nsubj=#PRP#'
p86
I26
sS'dobj=subpoena'
p87
I24
sS'dobj=client'
p88
I19
sS'ccomp=say'
p89
I9
sS'aux=do'
p90
I1
ssS'dtype'
p91
cnumpy
float64
p92
sS'feature_names_'
p93
(lp94
g20
ag90
ag50
ag66
ag16
ag14
ag29
ag48
ag60
ag89
ag34
ag71
ag31
ag38
ag72
ag82
ag75
ag69
ag67
ag88
ag11
ag43
ag47
ag33
ag87
ag46
ag86
ag57
ag68
ag58
ag39
ag80
ag13
ag64
ag54
ag35
ag36
ag10
ag83
ag44
ag21
ag70
ag53
ag81
ag40
ag25
ag52
ag45
ag74
ag8
ag23
ag63
ag18
ag30
ag19
ag49
ag56
ag73
ag51
ag55
ag61
ag78
ag79
ag62
ag15
ag26
ag28
ag41
ag22
ag24
ag77
ag84
ag9
ag12
ag59
ag42
ag85
ag76
ag32
ag37
ag17
ag27
ag65
asS'separator'
p95
S'='
sS'sparse'
p96
I01
sb.