ccopy_reg
_reconstructor
p1
(csklearn.feature_extraction.dict_vectorizer
DictVectorizer
p2
c__builtin__
object
p3
NtRp4
(dp5
S'sort'
p6
I01
sS'feature_names_'
p7
(lp8
S'advmod=also'
p9
aS'advmod=easily'
p10
aS'advmod=where'
p11
aS'aux=be'
p12
aS'aux=have'
p13
aS'aux=to'
p14
aS'aux=will'
p15
aS'auxpass=be'
p16
aS'cc=and'
p17
aS'cc=but'
p18
aS'cc=or'
p19
aS'conj=copy'
p20
aS'conj=explain'
p21
aS'conj=open'
p22
aS'csubj=groundbreak'
p23
aS'csubjpass=know'
p24
aS'dep=end'
p25
aS'dobj=Aron'
p26
aS'dobj=Hopkins'
p27
aS'dobj=art'
p28
aS'dobj=fashion'
p29
aS'dobj=kind'
p30
aS'dobj=lung'
p31
aS'dobj=nature'
p32
aS'dobj=politician'
p33
aS'dobj=reform'
p34
aS'dobj=success'
p35
aS'mark=before'
p36
aS'nsubj=#PRP#'
p37
aS'nsubj=Egyptians'
p38
aS'nsubj=Pyongyang'
p39
aS'nsubj=Vietnam'
p40
aS'nsubj=industry'
p41
aS'prep=by'
p42
aS'w+1=,'
p43
aS'w+1=Aron'
p44
aS'w+1=Vietnam'
p45
aS'w+1=by'
p46
aS'w+1=kenyan'
p47
aS'w+1=nature'
p48
aS'w+1=or'
p49
aS'w+1=reform'
p50
aS'w+1=the'
p51
aS'w+1=this'
p52
aS"w+2=''"
p53
aS"w+2='s"
p54
aS'w+2=art'
p55
aS'w+2=copy'
p56
aS'w+2=countless'
p57
aS'w+2=fashion'
p58
aS'w+2=in'
p59
aS'w+2=kind'
p60
aS'w+2=lung'
p61
aS'w+2=politician'
p62
aS'w+2=success'
p63
aS'w+2=to'
p64
aS'w-1=be'
p65
aS'w-1=easily'
p66
aS'w-1=industry'
p67
aS'w-1=often'
p68
aS'w-1=or'
p69
aS'w-1=to'
p70
aS'w-1=will'
p71
aS'w-2=Egyptians'
p72
aS'w-2=Pyongyang'
p73
aS'w-2=also'
p74
aS'w-2=device'
p75
aS'w-2=have'
p76
aS'w-2=mimic'
p77
aS'w-2=need'
p78
aS'w-2=redykyulass'
p79
aS'w-2=try'
p80
aS'w-2=where'
p81
aS'w-2=world'
p82
aS'xcomp=design'
p83
asS'dtype'
p84
cnumpy
float64
p85
sS'vocabulary_'
p86
(dp87
g66
I57
sg14
I5
sg38
I29
sg53
I44
sg74
I65
sg11
I2
sg82
I73
sg18
I9
sg43
I34
sg61
I52
sg56
I47
sg47
I38
sg20
I11
sg50
I41
sg35
I26
sg79
I70
sg71
I62
sg28
I19
sg19
I10
sg48
I39
sg67
I58
sg77
I68
sg58
I49
sg63
I54
sg24
I15
sg57
I48
sg73
I64
sg65
I56
sg25
I16
sg68
I59
sg39
I30
sg16
I7
sg22
I13
sg30
I21
sg29
I20
sg59
I50
sg36
I27
sg60
I51
sg17
I8
sg13
I4
sg69
I60
sg41
I32
sg27
I18
sg51
I42
sg45
I36
sg81
I72
sg46
I37
sg37
I28
sg78
I69
sg33
I24
sg32
I23
sg75
I66
sg21
I12
sg70
I61
sg54
I45
sg42
I33
sg26
I17
sg10
I1
sg62
I53
sg72
I63
sg83
I74
sg34
I25
sg64
I55
sg31
I22
sg55
I46
sg44
I35
sg76
I67
sg40
I31
sg80
I71
sg12
I3
sg15
I6
sg49
I40
sg23
I14
sg52
I43
sg9
I0
ssS'separator'
p88
S'='
sS'sparse'
p89
I01
sb.