ccopy_reg
_reconstructor
p1
(csklearn.feature_extraction.dict_vectorizer
DictVectorizer
p2
c__builtin__
object
p3
NtRp4
(dp5
S'vocabulary_'
p6
(dp7
S'w-1=not'
p8
I6
sS'w+1=the'
p9
I4
sS'w-2=do'
p10
I7
sS'w+2=next'
p11
I5
sS'dobj=minister'
p12
I1
sS'nsubj=#PRP#'
p13
I3
sS'neg=not'
p14
I2
sS'aux=do'
p15
I0
ssS'dtype'
p16
cnumpy
float64
p17
sS'feature_names_'
p18
(lp19
g15
ag12
ag14
ag13
ag9
ag11
ag8
ag10
asS'separator'
p20
S'='
sS'sparse'
p21
I01
sb.