ccopy_reg
_reconstructor
p1
(csklearn.feature_extraction.dict_vectorizer
DictVectorizer
p2
c__builtin__
object
p3
NtRp4
(dp5
S'sort'
p6
I01
sS'feature_names_'
p7
(lp8
S'advcl=allude'
p9
aS'advcl=arrive'
p10
aS'advcl=be'
p11
aS'advcl=capital'
p12
aS'advcl=come'
p13
aS'advcl=concede'
p14
aS'advcl=concern'
p15
aS'advcl=control'
p16
aS'advcl=declare'
p17
aS'advcl=determine'
p18
aS'advcl=go'
p19
aS'advcl=have'
p20
aS'advcl=necessary'
p21
aS'advcl=need'
p22
aS'advcl=part'
p23
aS'advcl=violate'
p24
aS'advcl=want'
p25
aS'advmod=again'
p26
aS'advmod=ago'
p27
aS'advmod=ahead'
p28
aS'advmod=also'
p29
aS'advmod=anywhere'
p30
aS'advmod=certainly'
p31
aS'advmod=correctly'
p32
aS'advmod=directly'
p33
aS'advmod=equally'
p34
aS'advmod=even'
p35
aS'advmod=evenly'
p36
aS'advmod=everywhere'
p37
aS'advmod=far'
p38
aS'advmod=fully'
p39
aS'advmod=generally'
p40
aS'advmod=how'
p41
aS'advmod=later'
p42
aS'advmod=now'
p43
aS'advmod=objectively'
p44
aS'advmod=only'
p45
aS'advmod=physically'
p46
aS'advmod=retroactively'
p47
aS'advmod=selectively'
p48
aS'advmod=simply'
p49
aS'advmod=soon'
p50
aS'advmod=specifically'
p51
aS'advmod=twice'
p52
aS'advmod=unfairly'
p53
aS'advmod=well'
p54
aS'advmod=when'
p55
aS'advmod=where'
p56
aS'advmod=wrongly'
p57
aS'aux=be'
p58
aS'aux=can'
p59
aS'aux=could'
p60
aS'aux=do'
p61
aS'aux=have'
p62
aS'aux=may'
p63
aS'aux=might'
p64
aS'aux=must'
p65
aS'aux=should'
p66
aS'aux=to'
p67
aS'aux=will'
p68
aS'aux=would'
p69
aS'auxpass=be'
p70
aS'cc=and'
p71
aS'cc=but'
p72
aS'cc=or'
p73
aS'ccomp=be'
p74
aS'ccomp=call'
p75
aS'ccomp=carry'
p76
aS'ccomp=continue'
p77
aS'ccomp=fight'
p78
aS'ccomp=gain'
p79
aS'ccomp=insist'
p80
aS'ccomp=matter'
p81
aS'ccomp=recognize'
p82
aS'ccomp=say'
p83
aS'complm=that'
p84
aS'complm=whether'
p85
aS'conj=Kosovo'
p86
aS'conj=be'
p87
aS'conj=change'
p88
aS'conj=collect'
p89
aS'conj=cover'
p90
aS'conj=deploy'
p91
aS'conj=evidence'
p92
aS'conj=helpless'
p93
aS'conj=intend'
p94
aS'conj=leave'
p95
aS'conj=monitor'
p96
aS'conj=prohibit'
p97
aS'conj=receive'
p98
aS'conj=say'
p99
aS'conj=think'
p100
aS'csubj=say'
p101
aS'csubjpass=say'
p102
aS'dep=benefit'
p103
aS'dep=diagnose'
p104
aS'dep=estrogen'
p105
aS'dep=learn'
p106
aS'dep=much'
p107
aS'dep=necessary'
p108
aS'dep=say'
p109
aS'dep=though'
p110
aS'dep=to'
p111
aS'dep=while'
p112
aS'dobj=#PRP#'
p113
aS'dobj=approach'
p114
aS'dobj=blowtorch'
p115
aS'dobj=confinement'
p116
aS'dobj=expertise'
p117
aS'dobj=fiberglass'
p118
aS'dobj=formulum'
p119
aS'dobj=husbandry'
p120
aS'dobj=law'
p121
aS'dobj=lesson'
p122
aS'dobj=logic'
p123
aS'dobj=make-up'
p124
aS'dobj=mind'
p125
aS'dobj=minimum'
p126
aS'dobj=oil'
p127
aS'dobj=paint'
p128
aS'dobj=penalty'
p129
aS'dobj=pesticide'
p130
aS'dobj=pressure'
p131
aS'dobj=principle'
p132
aS'dobj=procedure'
p133
aS'dobj=process'
p134
aS'dobj=resolution'
p135
aS'dobj=rule'
p136
aS'dobj=sanction'
p137
aS'dobj=science'
p138
aS'dobj=standard'
p139
aS'dobj=tactic'
p140
aS'dobj=target'
p141
aS'dobj=technology'
p142
aS'dobj=that'
p143
aS'dobj=thinking'
p144
aS'dobj=voice'
p145
aS'dobj=wealth'
p146
aS'dobj=what'
p147
aS'dobj=which'
p148
aS'dobj=who'
p149
aS'mark=about'
p150
aS'mark=as'
p151
aS'mark=because'
p152
aS'mark=before'
p153
aS'mark=if'
p154
aS'mark=in'
p155
aS'neg=not'
p156
aS'nsubj=#NUMBER#'
p157
aS'nsubj=#PRP#'
p158
aS'nsubj=AT'
p159
aS'nsubj=Adams'
p160
aS'nsubj=Amendment'
p161
aS'nsubj=Cambodia'
p162
aS'nsubj=Centre'
p163
aS'nsubj=Council'
p164
aS'nsubj=Cubans'
p165
aS'nsubj=Europeans'
p166
aS'nsubj=Gaza'
p167
aS'nsubj=Iraqis'
p168
aS'nsubj=Israel'
p169
aS'nsubj=McKinlay'
p170
aS'nsubj=Nega'
p171
aS'nsubj=Roadmap'
p172
aS'nsubj=States'
p173
aS'nsubj=Stream'
p174
aS'nsubj=U.S.'
p175
aS'nsubj=anybody'
p176
aS'nsubj=anyone'
p177
aS'nsubj=arrangement'
p178
aS'nsubj=artist'
p179
aS'nsubj=ban'
p180
aS'nsubj=band'
p181
aS'nsubj=bedfellow'
p182
aS'nsubj=body'
p183
aS'nsubj=cease-fire'
p184
aS'nsubj=chapter'
p185
aS'nsubj=commitment'
p186
aS'nsubj=company'
p187
aS'nsubj=convention'
p188
aS'nsubj=correlation'
p189
aS'nsubj=court'
p190
aS'nsubj=crime'
p191
aS'nsubj=decision'
p192
aS'nsubj=effort'
p193
aS'nsubj=evidence'
p194
aS'nsubj=government'
p195
aS'nsubj=guideline'
p196
aS'nsubj=immigrant'
p197
aS'nsubj=individual'
p198
aS'nsubj=instruction'
p199
aS'nsubj=law'
p200
aS'nsubj=leader'
p201
aS'nsubj=line'
p202
aS'nsubj=link'
p203
aS'nsubj=ltte'
p204
aS'nsubj=map'
p205
aS'nsubj=national'
p206
aS'nsubj=number'
p207
aS'nsubj=observer'
p208
aS'nsubj=organization'
p209
aS'nsubj=organizer'
p210
aS'nsubj=pact'
p211
aS'nsubj=parent'
p212
aS'nsubj=party'
p213
aS'nsubj=people'
p214
aS'nsubj=percent'
p215
aS'nsubj=person'
p216
aS'nsubj=phrase'
p217
aS'nsubj=pilgrim'
p218
aS'nsubj=police'
p219
aS'nsubj=precedent'
p220
aS'nsubj=president'
p221
aS'nsubj=principle'
p222
aS'nsubj=recommendation'
p223
aS'nsubj=remedy'
p224
aS'nsubj=republican'
p225
aS'nsubj=resolution'
p226
aS'nsubj=restriction'
p227
aS'nsubj=rights'
p228
aS'nsubj=roadmap'
p229
aS'nsubj=rule'
p230
aS'nsubj=ruling'
p231
aS'nsubj=same'
p232
aS'nsubj=scenario'
p233
aS'nsubj=some'
p234
aS'nsubj=specialist'
p235
aS'nsubj=standard'
p236
aS'nsubj=that'
p237
aS'nsubj=thing'
p238
aS'nsubj=town'
p239
aS'nsubj=troops'
p240
aS'nsubj=truce'
p241
aS'nsubj=which'
p242
aS'nsubj=who'
p243
aS'nsubj=wife'
p244
aS'nsubjpass=#PRP#'
p245
aS'nsubjpass=capacity'
p246
aS'nsubjpass=community'
p247
aS'nsubjpass=current'
p248
aS'nsubjpass=doctrine'
p249
aS'nsubjpass=law'
p250
aS'nsubjpass=lesson'
p251
aS'nsubjpass=penalty'
p252
aS'nsubjpass=plan'
p253
aS'nsubjpass=pressure'
p254
aS'nsubjpass=sanction'
p255
aS'nsubjpass=technique'
p256
aS'nsubjpass=technology'
p257
aS'nsubjpass=that'
p258
aS'parataxis=require'
p259
aS'parataxis=say'
p260
aS'prep=across'
p261
aS'prep=after'
p262
aS'prep=against'
p263
aS'prep=as'
p264
aS'prep=at'
p265
aS'prep=begin'
p266
aS'prep=by'
p267
aS'prep=for'
p268
aS'prep=from'
p269
aS'prep=in'
p270
aS'prep=include'
p271
aS'prep=like'
p272
aS'prep=of'
p273
aS'prep=on'
p274
aS'prep=through'
p275
aS'prep=to'
p276
aS'prep=under'
p277
aS'prep=while'
p278
aS'prep=with'
p279
aS'prep=within'
p280
aS'prep=without'
p281
aS'rel=on'
p282
aS'tmod=#DATE#'
p283
aS'tmod=month'
p284
aS'tmod=week'
p285
aS'tmod=year'
p286
aS"w+1=''"
p287
aS'w+1=,'
p288
aS'w+1=-lrb-'
p289
aS'w+1=.'
p290
aS'w+1=Monday'
p291
aS'w+1=a'
p292
aS'w+1=again'
p293
aS'w+1=against'
p294
aS'w+1=agreement'
p295
aS'w+1=ahead'
p296
aS'w+1=and'
p297
aS'w+1=any'
p298
aS'w+1=anywhere'
p299
aS'w+1=appropriate'
p300
aS'w+1=as'
p301
aS'w+1=because'
p302
aS'w+1=brightly'
p303
aS'w+1=by'
p304
aS'w+1=correctly'
p305
aS'w+1=counterinsurgency'
p306
aS'w+1=critical'
p307
aS'w+1=diplomatic'
p308
aS'w+1=directly'
p309
aS'w+1=equally'
p310
aS'w+1=evenly'
p311
aS'w+1=everywhere'
p312
aS'w+1=face'
p313
aS'w+1=for'
p314
aS'w+1=from'
p315
aS'w+1=gentle'
p316
aS'w+1=gradually-increasing'
p317
aS'w+1=he'
p318
aS'w+1=in'
p319
aS'w+1=it'
p320
aS'w+1=judicious'
p321
aS'w+1=late'
p322
aS'w+1=lesson'
p323
aS'w+1=liberal'
p324
aS'w+1=logic'
p325
aS'w+1=military'
p326
aS'w+1=new'
p327
aS'w+1=oil'
p328
aS'w+1=on'
p329
aS'w+1=online'
p330
aS'w+1=only'
p331
aS'w+1=ourselves'
p332
aS'w+1=penalty'
p333
aS'w+1=pesticide'
p334
aS'w+1=political'
p335
aS'w+1=pressure'
p336
aS'w+1=retroactively'
p337
aS'w+1=sanction'
p338
aS'w+1=selectively'
p339
aS'w+1=so'
p340
aS'w+1=solitary'
p341
aS'w+1=tactic'
p342
aS'w+1=technology'
p343
aS'w+1=the'
p344
aS'w+1=themselves'
p345
aS'w+1=they'
p346
aS'w+1=through'
p347
aS'w+1=to'
p348
aS'w+1=weaver'
p349
aS'w+1=well'
p350
aS'w+1=what'
p351
aS'w+1=when'
p352
aS'w+1=where'
p353
aS"w+2=''"
p354
aS'w+2=,'
p355
aS'w+2=.'
p356
aS'w+2=2006'
p357
aS'w+2=Afghanistan'
p358
aS'w+2=Bacar'
p359
aS'w+2=Central'
p360
aS'w+2=Croatia'
p361
aS'w+2=Eric'
p362
aS'w+2=Friday'
p363
aS'w+2=Gerry'
p364
aS'w+2=Israel'
p365
aS'w+2=Japan'
p366
aS'w+2=Jerusalem'
p367
aS'w+2=May'
p368
aS'w+2=OPEC'
p369
aS'w+2=Pentagon'
p370
aS'w+2=September'
p371
aS'w+2=Sudan'
p372
aS'w+2=U.S.'
p373
aS'w+2=a'
p374
aS'w+2=absolutely'
p375
aS'w+2=accreditation'
p376
aS'w+2=across'
p377
aS'w+2=aide'
p378
aS'w+2=all'
p379
aS'w+2=and'
p380
aS'w+2=ant'
p381
aS'w+2=any'
p382
aS'w+2=art'
p383
aS'w+2=asylum'
p384
aS'w+2=averaging'
p385
aS'w+2=be'
p386
aS'w+2=become'
p387
aS'w+2=black'
p388
aS'w+2=blowtorch'
p389
aS'w+2=both'
p390
aS'w+2=case'
p391
aS'w+2=come'
p392
aS'w+2=compensation'
p393
aS'w+2=confinement'
p394
aS'w+2=death'
p395
aS'w+2=diagnostic'
p396
aS'w+2=diversity'
p397
aS'w+2=drug'
p398
aS'w+2=every'
p399
aS'w+2=everybody'
p400
aS'w+2=experience'
p401
aS'w+2=expertise'
p402
aS'w+2=few'
p403
aS'w+2=fiberglass'
p404
aS'w+2=for'
p405
aS'w+2=formulum'
p406
aS'w+2=from'
p407
aS'w+2=habeas'
p408
aS'w+2=hamas-issued'
p409
aS'w+2=he'
p410
aS'w+2=hold'
p411
aS'w+2=hued'
p412
aS'w+2=hundred'
p413
aS'w+2=icy'
p414
aS'w+2=if'
p415
aS'w+2=in'
p416
aS'w+2=infant'
p417
aS'w+2=it'
p418
aS'w+2=its'
p419
aS'w+2=job'
p420
aS'w+2=join'
p421
aS'w+2=kosovo-type'
p422
aS'w+2=law'
p423
aS'w+2=legal'
p424
aS'w+2=licens'
p425
aS'w+2=live'
p426
aS'w+2=loan'
p427
aS'w+2=low'
p428
aS'w+2=maximum'
p429
aS'w+2=migrate'
p430
aS'w+2=military'
p431
aS'w+2=mind'
p432
aS'w+2=minimum'
p433
aS'w+2=more'
p434
aS'w+2=most'
p435
aS'w+2=my'
p436
aS'w+2=national'
p437
aS'w+2=new'
p438
aS'w+2=not'
p439
aS'w+2=of'
p440
aS'w+2=oil'
p441
aS'w+2=on'
p442
aS'w+2=one'
p443
aS'w+2=only'
p444
aS'w+2=or'
p445
aS'w+2=other'
p446
aS'w+2=paint'
p447
aS'w+2=party'
p448
aS'w+2=passenger'
p449
aS'w+2=people'
p450
aS'w+2=perform'
p451
aS'w+2=permission'
p452
aS'w+2=physically'
p453
aS'w+2=political'
p454
aS'w+2=presidential'
p455
aS'w+2=pressure'
p456
aS'w+2=principle'
p457
aS'w+2=real'
p458
aS'w+2=recognition'
p459
aS'w+2=reinstatement'
p460
aS'w+2=residency'
p461
aS'w+2=resolution'
p462
aS'w+2=restriction'
p463
aS'w+2=rule'
p464
aS'w+2=same'
p465
aS'w+2=sanction'
p466
aS'w+2=school'
p467
aS'w+2=science'
p468
aS'w+2=slovenian'
p469
aS'w+2=some'
p470
aS'w+2=specifically'
p471
aS'w+2=standard'
p472
aS'w+2=stock'
p473
aS'w+2=such'
p474
aS'w+2=target'
p475
aS'w+2=terrorism'
p476
aS'w+2=that'
p477
aS'w+2=the'
p478
aS'w+2=there'
p479
aS'w+2=these'
p480
aS'w+2=they'
p481
aS'w+2=this'
p482
aS'w+2=those'
p483
aS'w+2=through'
p484
aS'w+2=to'
p485
aS'w+2=turn-of-the-century'
p486
aS'w+2=unemployment'
p487
aS'w+2=voluntary'
p488
aS'w+2=we'
p489
aS'w+2=wealth'
p490
aS'w+2=when'
p491
aS'w+2=whereby'
p492
aS'w+2=winner-take-all'
p493
aS'w+2=within'
p494
aS"w-1=''"
p495
aS'w-1=,'
p496
aS'w-1=Adams'
p497
aS'w-1=Americans'
p498
aS'w-1=Centre'
p499
aS'w-1=I'
p500
aS'w-1=Iraqis'
p501
aS'w-1=McKinlay'
p502
aS'w-1=Rights'
p503
aS'w-1=Zimbabweans'
p504
aS'w-1=about'
p505
aS'w-1=actually'
p506
aS'w-1=also'
p507
aS'w-1=and'
p508
aS'w-1=artist'
p509
aS'w-1=as'
p510
aS'w-1=authority'
p511
aS'w-1=be'
p512
aS'w-1=before'
p513
aS'w-1=by'
p514
aS'w-1=can'
p515
aS'w-1=cease-fire'
p516
aS'w-1=certainly'
p517
aS'w-1=charter'
p518
aS'w-1=clown'
p519
aS'w-1=company'
p520
aS'w-1=condition'
p521
aS'w-1=consider'
p522
aS'w-1=could'
p523
aS'w-1=decision'
p524
aS'w-1=directly'
p525
aS'w-1=discipline'
p526
aS'w-1=education'
p527
aS'w-1=even'
p528
aS'w-1=from'
p529
aS'w-1=fully'
p530
aS'w-1=generally'
p531
aS'w-1=get'
p532
aS'w-1=government'
p533
aS'w-1=guideline'
p534
aS'w-1=have'
p535
aS'w-1=he'
p536
aS'w-1=immigrant'
p537
aS'w-1=in'
p538
aS'w-1=inconsistently'
p539
aS'w-1=it'
p540
aS'w-1=law'
p541
aS'w-1=logic'
p542
aS'w-1=may'
p543
aS'w-1=maybe'
p544
aS'w-1=mean'
p545
aS'w-1=measure'
p546
aS'w-1=might'
p547
aS'w-1=must'
p548
aS'w-1=not'
p549
aS'w-1=now'
p550
aS'w-1=of'
p551
aS'w-1=only'
p552
aS'w-1=organization'
p553
aS'w-1=pact'
p554
aS'w-1=parent'
p555
aS'w-1=patent'
p556
aS'w-1=pressure'
p557
aS'w-1=resolution'
p558
aS'w-1=restriction'
p559
aS'w-1=rights'
p560
aS'w-1=rule'
p561
aS'w-1=ruling'
p562
aS'w-1=same'
p563
aS'w-1=say'
p564
aS'w-1=she'
p565
aS'w-1=should'
p566
aS'w-1=simply'
p567
aS'w-1=soon'
p568
aS'w-1=standard'
p569
aS'w-1=t'
p570
aS'w-1=that'
p571
aS'w-1=therapy'
p572
aS'w-1=they'
p573
aS'w-1=thing'
p574
aS'w-1=those'
p575
aS'w-1=to'
p576
aS'w-1=unfairly'
p577
aS'w-1=voter'
p578
aS'w-1=while'
p579
aS'w-1=who'
p580
aS'w-1=will'
p581
aS'w-1=would'
p582
aS'w-1=wrongly'
p583
aS'w-1=you'
p584
aS'w-2=&'
p585
aS"w-2='s"
p586
aS'w-2=,'
p587
aS'w-2=-'
p588
aS'w-2=.'
p589
aS'w-2=19,800'
p590
aS'w-2=34'
p591
aS'w-2=Afghan'
p592
aS'w-2=Cambodia'
p593
aS'w-2=Clarence'
p594
aS'w-2=Council'
p595
aS'w-2=Court'
p596
aS'w-2=Enterprise'
p597
aS'w-2=Gaza'
p598
aS'w-2=I'
p599
aS'w-2=Ian'
p600
aS'w-2=Israel'
p601
aS'w-2=Legal'
p602
aS'w-2=Nations'
p603
aS'w-2=Sisay'
p604
aS'w-2=States'
p605
aS'w-2=U.N.'
p606
aS'w-2=U.S.'
p607
aS'w-2=ability'
p608
aS'w-2=able'
p609
aS'w-2=actually'
p610
aS'w-2=affair'
p611
aS'w-2=allow'
p612
aS'w-2=also'
p613
aS'w-2=and'
p614
aS'w-2=anyone'
p615
aS'w-2=approach'
p616
aS'w-2=arrangement'
p617
aS'w-2=as'
p618
aS'w-2=ask'
p619
aS'w-2=assist'
p620
aS'w-2=astronaut'
p621
aS'w-2=ban'
p622
aS'w-2=be'
p623
aS'w-2=bedfellow'
p624
aS'w-2=but'
p625
aS'w-2=by'
p626
aS'w-2=can'
p627
aS'w-2=charge'
p628
aS'w-2=combatant'
p629
aS'w-2=consortium'
p630
aS'w-2=continue'
p631
aS'w-2=convention'
p632
aS'w-2=convict'
p633
aS'w-2=could'
p634
aS'w-2=country'
p635
aS'w-2=court'
p636
aS'w-2=current'
p637
aS'w-2=day'
p638
aS'w-2=decide'
p639
aS'w-2=different'
p640
aS'w-2=do'
p641
aS'w-2=doctrine'
p642
aS'w-2=double'
p643
aS'w-2=effort'
p644
aS'w-2=eligible'
p645
aS'w-2=embassy'
p646
aS'w-2=encourage'
p647
aS'w-2=engagement'
p648
aS'w-2=fail'
p649
aS'w-2=go'
p650
aS'w-2=government'
p651
aS'w-2=have'
p652
aS'w-2=he'
p653
aS'w-2=hesitate'
p654
aS'w-2=hormone'
p655
aS'w-2=how'
p656
aS'w-2=human'
p657
aS'w-2=if'
p658
aS'w-2=immigrant'
p659
aS'w-2=in'
p660
aS'w-2=international'
p661
aS'w-2=islamic'
p662
aS'w-2=issue'
p663
aS'w-2=it'
p664
aS'w-2=journalist'
p665
aS'w-2=just'
p666
aS'w-2=law'
p667
aS'w-2=legislation'
p668
aS'w-2=lesson'
p669
aS'w-2=likely'
p670
aS'w-2=man'
p671
aS'w-2=member'
p672
aS'w-2=might'
p673
aS'w-2=month'
p674
aS'w-2=more'
p675
aS'w-2=must'
p676
aS'w-2=need'
p677
aS'w-2=new'
p678
aS'w-2=not'
p679
aS'w-2=now'
p680
aS'w-2=of'
p681
aS'w-2=offens'
p682
aS'w-2=opportunity'
p683
aS'w-2=organization'
p684
aS'w-2=people'
p685
aS'w-2=pilgrim'
p686
aS'w-2=plan'
p687
aS'w-2=police'
p688
aS'w-2=policy'
p689
aS'w-2=pressure'
p690
aS'w-2=principle'
p691
aS'w-2=punitive'
p692
aS'w-2=really'
p693
aS'w-2=refine'
p694
aS'w-2=remedy'
p695
aS'w-2=republican'
p696
aS'w-2=right'
p697
aS'w-2=rule'
p698
aS'w-2=same'
p699
aS'w-2=save'
p700
aS'w-2=say'
p701
aS'w-2=scenario'
p702
aS'w-2=serious'
p703
aS'w-2=she'
p704
aS'w-2=should'
p705
aS'w-2=simply'
p706
aS'w-2=softball'
p707
aS'w-2=soil'
p708
aS'w-2=some'
p709
aS'w-2=soup'
p710
aS'w-2=standard'
p711
aS'w-2=strategy'
p712
aS'w-2=successful'
p713
aS'w-2=such'
p714
aS'w-2=terrorism'
p715
aS'w-2=that'
p716
aS'w-2=the'
p717
aS'w-2=theory'
p718
aS'w-2=they'
p719
aS'w-2=thing'
p720
aS'w-2=think'
p721
aS'w-2=this'
p722
aS'w-2=those'
p723
aS'w-2=to'
p724
aS'w-2=traditional'
p725
aS'w-2=troops'
p726
aS'w-2=try'
p727
aS'w-2=usual'
p728
aS'w-2=very'
p729
aS'w-2=visitor'
p730
aS'w-2=want'
p731
aS'w-2=when'
p732
aS'w-2=which'
p733
aS'w-2=who'
p734
aS'w-2=wife'
p735
aS'w-2=will'
p736
aS'w-2=would'
p737
aS'w-2=you'
p738
aS'xcomp=candidate'
p739
aS'xcomp=come'
p740
aS'xcomp=conduct'
p741
aS'xcomp=counselor'
p742
aS'xcomp=demonstrate'
p743
aS'xcomp=drop'
p744
aS'xcomp=hold'
p745
aS'xcomp=improve'
p746
aS'xcomp=include'
p747
aS'xcomp=join'
p748
aS'xcomp=legal'
p749
aS'xcomp=live'
p750
aS'xcomp=manufacture'
p751
aS'xcomp=migrate'
p752
aS'xcomp=operate'
p753
aS'xcomp=perform'
p754
aS'xcomp=place'
p755
aS'xcomp=prompt'
p756
aS'xcomp=put'
p757
aS'xcomp=re-open'
p758
aS'xcomp=stop'
p759
asS'dtype'
p760
cnumpy
float64
p761
sS'vocabulary_'
p762
(dp763
g433
I424
sg336
I327
sg121
I112
sg143
I134
sg325
I316
sg648
I639
sg313
I304
sg468
I459
sg31
I22
sg558
I549
sg305
I296
sg403
I394
sg685
I676
sg522
I513
sg40
I31
sg436
I427
sg698
I689
sg189
I180
sg493
I484
sg517
I508
sg54
I45
sg655
I646
sg170
I161
sg204
I195
sg732
I723
sg475
I466
sg678
I669
sg308
I299
sg688
I679
sg666
I657
sg131
I122
sg677
I668
sg311
I302
sg719
I710
sg689
I680
sg572
I563
sg267
I258
sg280
I271
sg635
I626
sg138
I129
sg439
I430
sg244
I235
sg195
I186
sg669
I660
sg401
I392
sg582
I573
sg453
I444
sg564
I555
sg75
I66
sg377
I368
sg118
I109
sg578
I569
sg17
I8
sg331
I322
sg360
I351
sg560
I551
sg319
I310
sg545
I536
sg581
I572
sg400
I391
sg333
I324
sg505
I496
sg10
I1
sg230
I221
sg207
I198
sg63
I54
sg748
I739
sg448
I439
sg514
I505
sg512
I503
sg108
I99
sg129
I120
sg32
I23
sg717
I708
sg236
I227
sg595
I586
sg228
I219
sg347
I338
sg201
I192
sg13
I4
sg649
I640
sg338
I329
sg152
I143
sg64
I55
sg734
I725
sg117
I108
sg104
I95
sg485
I476
sg329
I320
sg639
I630
sg76
I67
sg467
I458
sg160
I151
sg235
I226
sg511
I502
sg535
I526
sg83
I74
sg725
I716
sg415
I406
sg122
I113
sg110
I101
sg416
I407
sg393
I384
sg227
I218
sg418
I409
sg451
I442
sg246
I237
sg665
I656
sg523
I514
sg341
I332
sg507
I498
sg59
I50
sg84
I75
sg136
I127
sg601
I592
sg385
I376
sg284
I275
sg424
I415
sg287
I278
sg312
I303
sg584
I575
sg112
I103
sg276
I267
sg216
I207
sg144
I135
sg644
I635
sg11
I2
sg86
I77
sg716
I707
sg344
I335
sg209
I200
sg654
I645
sg45
I36
sg386
I377
sg346
I337
sg169
I160
sg369
I360
sg208
I199
sg376
I367
sg245
I236
sg590
I581
sg270
I261
sg150
I141
sg103
I94
sg69
I60
sg314
I305
sg172
I163
sg498
I489
sg97
I88
sg754
I745
sg606
I597
sg459
I450
sg529
I520
sg541
I532
sg454
I445
sg539
I530
sg487
I478
sg570
I561
sg645
I636
sg392
I383
sg27
I18
sg632
I623
sg469
I460
sg686
I677
sg573
I564
sg206
I197
sg409
I400
sg163
I154
sg133
I124
sg91
I82
sg559
I550
sg77
I68
sg740
I731
sg405
I396
sg746
I737
sg566
I557
sg125
I116
sg297
I288
sg237
I228
sg540
I531
sg447
I438
sg651
I642
sg622
I613
sg617
I608
sg683
I674
sg194
I185
sg647
I638
sg23
I14
sg148
I139
sg480
I471
sg538
I529
sg489
I480
sg120
I111
sg713
I704
sg332
I323
sg87
I78
sg191
I182
sg130
I121
sg80
I71
sg37
I28
sg504
I495
sg154
I145
sg662
I653
sg155
I146
sg107
I98
sg718
I709
sg33
I24
sg556
I547
sg56
I47
sg659
I650
sg428
I419
sg397
I388
sg491
I482
sg636
I627
sg759
I750
sg109
I100
sg358
I349
sg106
I97
sg437
I428
sg174
I165
sg240
I231
sg257
I248
sg682
I673
sg420
I411
sg484
I475
sg271
I262
sg694
I685
sg357
I348
sg116
I107
sg243
I234
sg372
I363
sg231
I222
sg34
I25
sg621
I612
sg128
I119
sg316
I307
sg576
I567
sg181
I172
sg51
I42
sg353
I344
sg434
I425
sg215
I206
sg367
I358
sg668
I659
sg449
I440
sg113
I104
sg641
I632
sg298
I289
sg739
I730
sg747
I738
sg26
I17
sg233
I224
sg703
I694
sg142
I133
sg608
I599
sg251
I242
sg757
I748
sg256
I247
sg93
I84
sg49
I40
sg370
I361
sg461
I452
sg692
I683
sg642
I633
sg12
I3
sg186
I177
sg301
I292
sg402
I393
sg506
I497
sg239
I230
sg396
I387
sg187
I178
sg318
I309
sg456
I447
sg379
I370
sg345
I336
sg178
I169
sg258
I249
sg620
I611
sg253
I244
sg515
I506
sg306
I297
sg391
I382
sg609
I600
sg74
I65
sg100
I91
sg631
I622
sg337
I328
sg435
I426
sg575
I566
sg177
I168
sg492
I483
sg55
I46
sg702
I693
sg750
I741
sg466
I457
sg704
I695
sg268
I259
sg296
I287
sg368
I359
sg441
I432
sg544
I535
sg577
I568
sg36
I27
sg553
I544
sg633
I624
sg25
I16
sg501
I492
sg607
I598
sg260
I251
sg321
I312
sg24
I15
sg218
I209
sg426
I417
sg521
I512
sg70
I61
sg476
I467
sg531
I522
sg730
I721
sg755
I746
sg616
I607
sg221
I212
sg530
I521
sg676
I667
sg355
I346
sg193
I184
sg157
I148
sg706
I697
sg273
I264
sg690
I681
sg232
I223
sg525
I516
sg383
I374
sg438
I429
sg696
I687
sg247
I238
sg147
I138
sg495
I486
sg723
I714
sg198
I189
sg176
I167
sg628
I619
sg365
I356
sg105
I96
sg708
I699
sg674
I665
sg612
I603
sg445
I436
sg259
I250
sg164
I155
sg440
I431
sg615
I606
sg524
I515
sg442
I433
sg348
I339
sg255
I246
sg518
I509
sg78
I69
sg410
I401
sg542
I533
sg340
I331
sg406
I397
sg115
I106
sg502
I493
sg44
I35
sg555
I546
sg281
I272
sg361
I352
sg699
I690
sg452
I443
sg546
I537
sg594
I585
sg38
I29
sg335
I326
sg140
I131
sg22
I13
sg371
I362
sg362
I353
sg586
I577
sg565
I556
sg20
I11
sg407
I398
sg159
I150
sg412
I403
sg92
I83
sg417
I408
sg119
I110
sg650
I641
sg728
I719
sg168
I159
sg111
I102
sg715
I706
sg399
I390
sg167
I158
sg324
I315
sg737
I728
sg250
I241
sg483
I474
sg419
I410
sg670
I661
sg482
I473
sg640
I631
sg199
I190
sg179
I170
sg561
I552
sg266
I257
sg197
I188
sg90
I81
sg733
I724
sg295
I286
sg35
I26
sg309
I300
sg190
I181
sg82
I73
sg583
I574
sg234
I225
sg463
I454
sg661
I652
sg278
I269
sg254
I245
sg378
I369
sg61
I52
sg574
I565
sg124
I115
sg643
I634
sg613
I604
sg68
I59
sg697
I688
sg432
I423
sg182
I173
sg192
I183
sg173
I164
sg214
I205
sg279
I270
sg73
I64
sg431
I422
sg350
I341
sg534
I525
sg726
I717
sg427
I418
sg343
I334
sg450
I441
sg687
I678
sg658
I649
sg183
I174
sg464
I455
sg629
I620
sg660
I651
sg638
I629
sg349
I340
sg646
I637
sg664
I655
sg328
I319
sg21
I12
sg162
I153
sg46
I37
sg161
I152
sg317
I308
sg741
I732
sg57
I48
sg527
I518
sg79
I70
sg354
I345
sg684
I675
sg224
I215
sg29
I20
sg149
I140
sg307
I298
sg749
I740
sg519
I510
sg707
I698
sg592
I583
sg605
I596
sg562
I553
sg490
I481
sg366
I357
sg652
I643
sg330
I321
sg71
I62
sg277
I268
sg568
I559
sg499
I490
sg127
I118
sg304
I295
sg200
I191
sg222
I213
sg460
I451
sg705
I696
sg384
I375
sg709
I700
sg99
I90
sg470
I461
sg139
I130
sg286
I277
sg289
I280
sg225
I216
sg414
I405
sg320
I311
sg567
I558
sg158
I149
sg486
I477
sg404
I395
sg132
I123
sg241
I232
sg711
I702
sg95
I86
sg72
I63
sg339
I330
sg28
I19
sg516
I507
sg212
I203
sg223
I214
sg294
I285
sg30
I21
sg60
I51
sg520
I511
sg18
I9
sg272
I263
sg299
I290
sg537
I528
sg282
I273
sg630
I621
sg745
I736
sg389
I380
sg153
I144
sg165
I156
sg238
I229
sg65
I56
sg302
I293
sg375
I366
sg547
I538
sg753
I744
sg526
I517
sg15
I6
sg623
I614
sg220
I211
sg205
I196
sg756
I747
sg700
I691
sg681
I672
sg274
I265
sg735
I726
sg473
I464
sg503
I494
sg411
I402
sg185
I176
sg626
I617
sg695
I686
sg42
I33
sg634
I625
sg126
I117
sg673
I664
sg455
I446
sg390
I381
sg290
I281
sg610
I601
sg465
I456
sg477
I468
sg429
I420
sg627
I618
sg134
I125
sg580
I571
sg196
I187
sg731
I722
sg382
I373
sg16
I7
sg714
I705
sg381
I372
sg229
I220
sg146
I137
sg603
I594
sg551
I542
sg219
I210
sg667
I658
sg675
I666
sg359
I350
sg724
I715
sg380
I371
sg283
I274
sg614
I605
sg94
I85
sg743
I734
sg210
I201
sg171
I162
sg752
I743
sg604
I595
sg261
I252
sg458
I449
sg444
I435
sg141
I132
sg598
I589
sg88
I79
sg388
I379
sg213
I204
sg653
I644
sg373
I364
sg563
I554
sg421
I412
sg322
I313
sg39
I30
sg701
I692
sg423
I414
sg478
I469
sg265
I256
sg736
I727
sg591
I582
sg264
I255
sg587
I578
sg588
I579
sg589
I580
sg508
I499
sg137
I128
sg727
I718
sg351
I342
sg48
I39
sg62
I53
sg488
I479
sg625
I616
sg721
I712
sg554
I545
sg720
I711
sg611
I602
sg496
I487
sg679
I670
sg680
I671
sg226
I217
sg166
I157
sg599
I590
sg457
I448
sg751
I742
sg326
I317
sg600
I591
sg624
I615
sg618
I609
sg671
I662
sg430
I421
sg50
I41
sg217
I208
sg656
I647
sg275
I266
sg443
I434
sg334
I325
sg96
I87
sg569
I560
sg500
I491
sg66
I57
sg462
I453
sg657
I648
sg691
I682
sg363
I354
sg180
I171
sg474
I465
sg211
I202
sg557
I548
sg425
I416
sg422
I413
sg596
I587
sg742
I733
sg323
I314
sg472
I463
sg395
I386
sg98
I89
sg151
I142
sg536
I527
sg479
I470
sg513
I504
sg291
I282
sg672
I663
sg81
I72
sg398
I389
sg315
I306
sg729
I720
sg293
I284
sg758
I749
sg85
I76
sg481
I472
sg744
I735
sg14
I5
sg394
I385
sg303
I294
sg262
I253
sg712
I703
sg548
I539
sg593
I584
sg310
I301
sg263
I254
sg387
I378
sg579
I570
sg710
I701
sg43
I34
sg249
I240
sg53
I44
sg722
I713
sg41
I32
sg248
I239
sg408
I399
sg252
I243
sg528
I519
sg202
I193
sg597
I588
sg533
I524
sg364
I355
sg269
I260
sg494
I485
sg446
I437
sg9
I0
sg352
I343
sg663
I654
sg509
I500
sg67
I58
sg738
I729
sg145
I136
sg413
I404
sg242
I233
sg19
I10
sg637
I628
sg188
I179
sg602
I593
sg532
I523
sg327
I318
sg175
I166
sg693
I684
sg52
I43
sg300
I291
sg285
I276
sg288
I279
sg203
I194
sg47
I38
sg356
I347
sg497
I488
sg89
I80
sg156
I147
sg101
I92
sg552
I543
sg619
I610
sg102
I93
sg123
I114
sg114
I105
sg292
I283
sg550
I541
sg549
I540
sg184
I175
sg342
I333
sg543
I534
sg510
I501
sg571
I562
sg58
I49
sg135
I126
sg374
I365
sg585
I576
sg471
I462
ssS'separator'
p764
S'='
sS'sparse'
p765
I01
sb.