ccopy_reg
_reconstructor
p1
(csklearn.feature_extraction.dict_vectorizer
DictVectorizer
p2
c__builtin__
object
p3
NtRp4
(dp5
S'vocabulary_'
p6
(dp7
S'xcomp=shine'
p8
I148
sS'dobj=percentage'
p9
I28
sS'nsubj=Nigeria'
p10
I39
sS'w+1=recycled'
p11
I71
sS'advmod=where'
p12
I4
sS'w+2=man'
p13
I89
sS'dobj=knowledge'
p14
I22
sS'dobj=influence'
p15
I21
sS'dobj=leverage'
p16
I23
sS'w+1=non-grain'
p17
I69
sS'w-2=organization'
p18
I137
sS'w+2=of'
p19
I94
sS'w-2=Joseph'
p20
I118
sS'w-2=conscious'
p21
I124
sS'w-2=Kenya'
p22
I119
sS'w+1=long'
p23
I65
sS'dobj=militant'
p24
I25
sS'w-2=economy'
p25
I129
sS'w-1=be'
p26
I108
sS'w-2=to'
p27
I142
sS'dobj=report'
p28
I30
sS'w-1=approach'
p29
I107
sS'dobj=water'
p30
I35
sS'w-2=into'
p31
I134
sS'w+2=,'
p32
I77
sS'w+2=new'
p33
I93
sS'prep=along'
p34
I47
sS'conj=can'
p35
I15
sS'conj=defeat'
p36
I16
sS'w-1=of'
p37
I113
sS'w-2=they'
p38
I141
sS'w-1=to'
p39
I116
sS'xcomp=have'
p40
I146
sS'prep=by'
p41
I48
sS'dobj=most'
p42
I27
sS'w-2=and'
p43
I121
sS'w-2=country'
p44
I126
sS"w-1=''"
p45
I104
sS'w-1=start'
p46
I114
sS'w+2=technology'
p47
I98
sS'w+1=this'
p48
I74
sS'w+1=you'
p49
I75
sS'w-2=the'
p50
I140
sS'w+2=exploit'
p51
I82
sS'w+1=business'
p52
I57
sS'dobj=place'
p53
I29
sS'advmod=so'
p54
I3
sS'advmod=fully'
p55
I1
sS'prep=with'
p56
I53
sS'cc=or'
p57
I12
sS'w+2=force'
p58
I85
sS'w+2=considerable'
p59
I81
sS'aux=have'
p60
I7
sS'nsubjpass=that'
p61
I45
sS'dobj=force'
p62
I19
sS'w-2=plan'
p63
I138
sS'w-1=,'
p64
I105
sS'w-2=not'
p65
I136
sS'w-2=investment'
p66
I135
sS'w-1=can'
p67
I109
sS'dobj=technology'
p68
I33
sS'w+1=military'
p69
I66
sS'w-1=video'
p70
I117
sS'xcomp=ensure'
p71
I145
sS'dobj=model'
p72
I26
sS'w-2=continue'
p73
I125
sS'dobj=fund'
p74
I20
sS'w+1=foreign'
p75
I59
sS'w+2=knowledge'
p76
I87
sS'w+2=to'
p77
I100
sS'w-2=she'
p78
I139
sS'w+1=or'
p79
I70
sS'w-2=how'
p80
I133
sS'w-1=have'
p81
I112
sS'nsubjpass=which'
p82
I46
sS'w+1=high'
p83
I61
sS'w+2=place'
p84
I95
sS'nsubj=Kenya'
p85
I38
sS'conj=exploit'
p86
I17
sS'nsubj=country'
p87
I41
sS'w-2=fence'
p88
I130
sS'w+1=from'
p89
I60
sS'w+2=feedstock'
p90
I84
sS'auxpass=be'
p91
I10
sS'aux=can'
p92
I6
sS'complm=that'
p93
I14
sS'w+2=media'
p94
I90
sS'w+2=census'
p95
I80
sS'dobj=transmission'
p96
I34
sS'w-2=have'
p97
I132
sS'w+2=explosive'
p98
I83
sS'w+1=shortwave'
p99
I72
sS'nsubj=approach'
p100
I40
sS'w+2=training'
p101
I101
sS'w+1=the'
p102
I73
sS'w-1=fully'
p103
I110
sS'w+1=by'
p104
I58
sS'w+1=most'
p105
I67
sS'w-2=hand'
p106
I131
sS'w-2=develop'
p107
I128
sS'w+2=valuable'
p108
I102
sS'nsubjpass=#PRP#'
p109
I44
sS'w+2=radio'
p110
I96
sS'prep=in'
p111
I50
sS'advmod=how'
p112
I2
sS'aux=would'
p113
I9
sS'w+1=its'
p114
I63
sS'w-2=way'
p115
I143
sS'w-2=de-marginalization'
p116
I127
sS'w+1=it'
p117
I62
sS'nsubj=#PRP#'
p118
I37
sS'prep=from'
p119
I49
sS'w+2=model'
p120
I92
sS'w+1=liquid'
p121
I64
sS'w+2=term'
p122
I99
sS'cc=and'
p123
I11
sS'xcomp=strengthen'
p124
I149
sS'prep=to'
p125
I52
sS'w+2=leverage'
p126
I88
sS'aux=to'
p127
I8
sS'w-2=you'
p128
I144
sS'dobj=man'
p129
I24
sS'w+1=new'
p130
I68
sS'w+2=militant'
p131
I91
sS'w+1=.'
p132
I55
sS'w+2=fund'
p133
I86
sS'w+2=water'
p134
I103
sS'w-2=can'
p135
I123
sS'w+2=appreciable'
p136
I79
sS'dobj=camp'
p137
I18
sS'neg=not'
p138
I36
sS'advmod=again'
p139
I0
sS'nsubj=that'
p140
I43
sS'w-1=that'
p141
I115
sS'dobj=resource'
p142
I31
sS'w-1=and'
p143
I106
sS'w-2=Thursday'
p144
I120
sS'xcomp=produce'
p145
I147
sS'w+2=resource'
p146
I97
sS'tmod=term'
p147
I54
sS'w-1=group'
p148
I111
sS'w+1=young'
p149
I76
sS'w+1=a'
p150
I56
sS'w-2=be'
p151
I122
sS'nsubj=group'
p152
I42
sS'ccomp=smuggle'
p153
I13
sS'prep=on'
p154
I51
sS'dobj=sensor'
p155
I32
sS'aux=be'
p156
I5
sS'w+2=a'
p157
I78
ssS'dtype'
p158
cnumpy
float64
p159
sS'feature_names_'
p160
(lp161
g139
ag55
ag112
ag54
ag12
ag156
ag92
ag60
ag127
ag113
ag91
ag123
ag57
ag153
ag93
ag35
ag36
ag86
ag137
ag62
ag74
ag15
ag14
ag16
ag129
ag24
ag72
ag42
ag9
ag53
ag28
ag142
ag155
ag68
ag96
ag30
ag138
ag118
ag85
ag10
ag100
ag87
ag152
ag140
ag109
ag61
ag82
ag34
ag41
ag119
ag111
ag154
ag125
ag56
ag147
ag132
ag150
ag52
ag104
ag75
ag89
ag83
ag117
ag114
ag121
ag23
ag69
ag105
ag130
ag17
ag79
ag11
ag99
ag102
ag48
ag49
ag149
ag32
ag157
ag136
ag95
ag59
ag51
ag98
ag90
ag58
ag133
ag76
ag126
ag13
ag94
ag131
ag120
ag33
ag19
ag84
ag110
ag146
ag47
ag122
ag77
ag101
ag108
ag134
ag45
ag64
ag143
ag29
ag26
ag67
ag103
ag148
ag81
ag37
ag46
ag141
ag39
ag70
ag20
ag22
ag144
ag43
ag151
ag135
ag21
ag73
ag44
ag116
ag107
ag25
ag88
ag106
ag97
ag80
ag31
ag66
ag65
ag18
ag63
ag78
ag50
ag38
ag27
ag115
ag128
ag71
ag40
ag145
ag8
ag124
asS'separator'
p162
S'='
sS'sparse'
p163
I01
sb.