ccopy_reg
_reconstructor
p1
(csklearn.feature_extraction.dict_vectorizer
DictVectorizer
p2
c__builtin__
object
p3
NtRp4
(dp5
S'sort'
p6
I01
sS'feature_names_'
p7
(lp8
S'amod=daylong'
p9
aS'amod=debilitate'
p10
aS'amod=impending'
p11
aS'amod=indefinite'
p12
aS'amod=long'
p13
aS'amod=nuclear'
p14
aS'amod=plan'
p15
aS'amod=promise'
p16
aS'amod=temporary'
p17
aS'amod=total'
p18
aS'aux=could'
p19
aS'aux=to'
p20
aS'cc=and'
p21
aS'complm=that'
p22
aS'conj=beginning'
p23
aS'conj=disable'
p24
aS'conj=give'
p25
aS'conj=shipment'
p26
aS'cop=be'
p27
aS'dep=step'
p28
aS'det=a'
p29
aS'det=any'
p30
aS'det=that'
p31
aS'det=the'
p32
aS'dobj=facility'
p33
aS'infmod=carry'
p34
aS'nn=Yongbyon'
p35
aS'nn=industry'
p36
aS'nn=plant'
p37
aS'nn=reactor'
p38
aS'nsubj=effort'
p39
aS'partmod=extend'
p40
aS'poss=Korea'
p41
aS'preconj=both'
p42
aS'prep=as'
p43
aS'prep=at'
p44
aS'prep=in'
p45
aS'prep=of'
p46
aS'w+1=,'
p47
aS'w+1=.'
p48
aS'w+1=after'
p49
aS'w+1=and'
p50
aS'w+1=as'
p51
aS'w+1=at'
p52
aS'w+1=be'
p53
aS'w+1=begin'
p54
aS'w+1=could'
p55
aS'w+1=extend'
p56
aS'w+1=fulfil'
p57
aS'w+1=have'
p58
aS'w+1=if'
p59
aS'w+1=in'
p60
aS'w+1=its'
p61
aS'w+1=mark'
p62
aS'w+1=of'
p63
aS'w+1=on'
p64
aS'w+1=should'
p65
aS'w+1=this'
p66
aS'w+1=to'
p67
aS'w+1=will'
p68
aS'w+2=Friday'
p69
aS'w+2=North'
p70
aS'w+2=Yongbyon'
p71
aS'w+2=a'
p72
aS'w+2=all'
p73
aS'w+2=and'
p74
aS'w+2=as'
p75
aS'w+2=be'
p76
aS'w+2=by'
p77
aS'w+2=cite'
p78
aS'w+2=complete'
p79
aS'w+2=consultation'
p80
aS'w+2=disable'
p81
aS'w+2=go'
p82
aS'w+2=in'
p83
aS'w+2=its'
p84
aS'w+2=many'
p85
aS'w+2=nearly'
p86
aS'w+2=nuclear'
p87
aS'w+2=originally'
p88
aS'w+2=part'
p89
aS'w+2=proceed'
p90
aS'w+2=promise'
p91
aS'w+2=seal'
p92
aS'w+2=sporadic'
p93
aS'w+2=the'
p94
aS'w+2=they'
p95
aS'w+2=time'
p96
aS'w-1=Yongbyon'
p97
aS'w-1=a'
p98
aS'w-1=any'
p99
aS'w-1=daylong'
p100
aS'w-1=debilitate'
p101
aS'w-1=for'
p102
aS'w-1=impending'
p103
aS'w-1=indefinite'
p104
aS'w-1=industry'
p105
aS'w-1=long'
p106
aS'w-1=nuclear'
p107
aS'w-1=plant'
p108
aS'w-1=promise'
p109
aS'w-1=reactor'
p110
aS'w-1=temporary'
p111
aS'w-1=that'
p112
aS'w-1=the'
p113
aS'w-1=to'
p114
aS'w-1=total'
p115
aS"w-2='s"
p116
aS'w-2=.'
p117
aS'w-2=Korea'
p118
aS'w-2=a'
p119
aS'w-2=after'
p120
aS'w-2=and'
p121
aS'w-2=announce'
p122
aS'w-2=arrange'
p123
aS'w-2=because'
p124
aS'w-2=before'
p125
aS'w-2=begin'
p126
aS'w-2=both'
p127
aS'w-2=but'
p128
aS'w-2=call'
p129
aS'w-2=discuss'
p130
aS'w-2=facility'
p131
aS'w-2=follow'
p132
aS'w-2=for'
p133
aS'w-2=force'
p134
aS'w-2=implement'
p135
aS'w-2=in'
p136
aS'w-2=include'
p137
aS'w-2=join'
p138
aS'w-2=monitor'
p139
aS'w-2=month'
p140
aS'w-2=negotiate'
p141
aS'w-2=of'
p142
aS'w-2=on'
p143
aS'w-2=order'
p144
aS'w-2=out'
p145
aS'w-2=plan'
p146
aS'w-2=praise'
p147
aS'w-2=prepare'
p148
aS'w-2=prevent'
p149
aS'w-2=say'
p150
aS'w-2=than'
p151
aS'w-2=that'
p152
aS'w-2=the'
p153
aS'w-2=to'
p154
aS'w-2=verify'
p155
aS'w-2=welcome'
p156
aS'w-2=with'
p157
asS'dtype'
p158
cnumpy
float64
p159
sS'vocabulary_'
p160
(dp161
g57
I48
sg123
I114
sg42
I33
sg139
I130
sg65
I56
sg15
I6
sg12
I3
sg58
I49
sg32
I23
sg37
I28
sg70
I61
sg23
I14
sg107
I98
sg110
I101
sg93
I84
sg84
I75
sg41
I32
sg71
I62
sg80
I71
sg24
I15
sg17
I8
sg100
I91
sg142
I133
sg143
I134
sg114
I105
sg154
I145
sg74
I65
sg81
I72
sg121
I112
sg38
I29
sg26
I17
sg148
I139
sg66
I57
sg55
I46
sg33
I24
sg13
I4
sg35
I26
sg108
I99
sg157
I148
sg109
I100
sg85
I76
sg150
I141
sg94
I85
sg51
I42
sg52
I43
sg14
I5
sg36
I27
sg117
I108
sg9
I0
sg105
I96
sg73
I64
sg155
I146
sg25
I16
sg111
I102
sg128
I119
sg101
I92
sg122
I113
sg146
I137
sg153
I144
sg136
I127
sg125
I116
sg132
I123
sg62
I53
sg103
I94
sg27
I18
sg63
I54
sg87
I78
sg86
I77
sg145
I136
sg64
I55
sg28
I19
sg119
I110
sg29
I20
sg98
I89
sg10
I1
sg83
I74
sg147
I138
sg75
I66
sg137
I128
sg11
I2
sg78
I69
sg106
I97
sg92
I83
sg22
I13
sg95
I86
sg89
I80
sg116
I107
sg129
I120
sg54
I45
sg56
I47
sg21
I12
sg152
I143
sg104
I95
sg68
I59
sg53
I44
sg151
I142
sg133
I124
sg76
I67
sg127
I118
sg90
I81
sg40
I31
sg39
I30
sg43
I34
sg69
I60
sg59
I50
sg45
I36
sg61
I52
sg60
I51
sg18
I9
sg97
I88
sg82
I73
sg49
I40
sg20
I11
sg131
I122
sg118
I109
sg44
I35
sg50
I41
sg140
I131
sg16
I7
sg130
I121
sg112
I103
sg102
I93
sg47
I38
sg48
I39
sg77
I68
sg120
I111
sg67
I58
sg31
I22
sg115
I106
sg126
I117
sg141
I132
sg144
I135
sg30
I21
sg88
I79
sg96
I87
sg138
I129
sg79
I70
sg99
I90
sg156
I147
sg34
I25
sg46
I37
sg149
I140
sg19
I10
sg113
I104
sg124
I115
sg134
I125
sg135
I126
sg72
I63
sg91
I82
ssS'separator'
p162
S'='
sS'sparse'
p163
I01
sb.