ccopy_reg
_reconstructor
p1
(csklearn.feature_extraction.dict_vectorizer
DictVectorizer
p2
c__builtin__
object
p3
NtRp4
(dp5
S'vocabulary_'
p6
(dp7
S'conj=hurdle'
p8
I41
sS'amod=small'
p9
I18
sS'prep=before'
p10
I123
sS'nsubj=France'
p11
I82
sS'nsubj=someone'
p12
I107
sS'amod=average'
p13
I11
sS'w-2=staff'
p14
I365
sS'nsubj=figure'
p15
I94
sS'w-2=people'
p16
I355
sS'w+2=freeway'
p17
I208
sS'dobj=percent'
p18
I64
sS'dobj=exit'
p19
I57
sS'w-2=televise'
p20
I368
sS'w+1=level'
p21
I165
sS'w-1=figure'
p22
I273
sS'w+2=110-meter'
p23
I192
sS'w+1=forwards'
p24
I160
sS'w+2=conclusion'
p25
I203
sS'w-2=they'
p26
I371
sS'prep=within'
p27
I139
sS'w+1=that'
p28
I179
sS'nsubj=fight'
p29
I93
sS'conj=by-pass'
p30
I37
sS'w-2=food'
p31
I341
sS'w-1=attack'
p32
I265
sS'w+2=distance'
p33
I205
sS'w-1=France'
p34
I252
sS'prep=follow'
p35
I127
sS'amod=big'
p36
I12
sS'w+2=mother'
p37
I222
sS'tmod=year'
p38
I145
sS'w-1=will'
p39
I307
sS'w-2=price'
p40
I357
sS'nsubj=number'
p41
I98
sS'conj=stop'
p42
I48
sS'w-1=by'
p43
I270
sS'advcl=tape'
p44
I1
sS'w-1=be'
p45
I267
sS'nn=Afghan'
p46
I77
sS'w-1=price'
p47
I293
sS'w-2=Bruce'
p48
I318
sS'ccomp=smell'
p49
I34
sS'xcomp=give'
p50
I387
sS'w-2=before'
p51
I331
sS'w+2=70'
p52
I194
sS'amod=triple'
p53
I19
sS'nsubj=attendance'
p54
I89
sS'w+1=on'
p55
I168
sS'nn=percent'
p56
I78
sS'w-2=important'
p57
I346
sS'nsubj=Charlotte'
p58
I80
sS'w+1=or'
p59
I170
sS'nsubj=senator'
p60
I105
sS'w-1=have'
p61
I277
sS'ccomp=say'
p62
I33
sS'nsubj=price'
p63
I102
sS'w+2=it'
p64
I216
sS'w-1=good'
p65
I276
sS'w+2=stretch'
p66
I232
sS'dep=set'
p67
I53
sS'w-1=which'
p68
I305
sS'w+1=aboard'
p69
I151
sS'advmod=at'
p70
I4
sS'dep=see'
p71
I52
sS'amod=recent'
p72
I17
sS'w-1=you'
p73
I309
sS'prep=to'
p74
I136
sS'w-1=wont'
p75
I308
sS'poss=woman'
p76
I118
sS'w-2=that'
p77
I369
sS'w+1=the'
p78
I180
sS'xcomp=do'
p79
I386
sS'w+2=home'
p80
I212
sS'w-2=transform'
p81
I376
sS'w+2=hyper-space'
p82
I214
sS'advmod=quickly'
p83
I8
sS'w-1=already'
p84
I263
sS'prep=in'
p85
I130
sS'aux=would'
p86
I27
sS'w+1=for'
p87
I159
sS'w-1=about'
p88
I259
sS'w-2=paper'
p89
I354
sS'w-1=percent'
p90
I291
sS'nsubj=toll'
p91
I108
sS'w-1=from'
p92
I275
sS'w+1=within'
p93
I186
sS'w+1=ship'
p94
I174
sS'w+2=unemployment'
p95
I240
sS'w-1=still'
p96
I297
sS'w+1=and'
p97
I153
sS'nsubj=all'
p98
I88
sS'w-1=it'
p99
I281
sS'w-1=a'
p100
I258
sS'w+2=consulting'
p101
I204
sS'prt=up'
p102
I143
sS'advmod=of'
p103
I7
sS'nsubj=Mutambara'
p104
I86
sS'nsubj=lot'
p105
I97
sS'advcl=heave'
p106
I0
sS'w+2=particular'
p107
I227
sS'w+1=77'
p108
I150
sS'w-1=the'
p109
I299
sS'w+1=70'
p110
I149
sS'w+1=start'
p111
I178
sS'mark=if'
p112
I72
sS'w+2=coincide'
p113
I202
sS'amod=first'
p114
I13
sS'prep=onto'
p115
I134
sS'w+1=off'
p116
I167
sS'w+2=when'
p117
I241
sS'w-1=index'
p118
I280
sS'det=the'
p119
I55
sS'w+2=30'
p120
I193
sS'xcomp=take'
p121
I389
sS'mark=as'
p122
I69
sS'w-2=or'
p123
I353
sS'nsubj=who'
p124
I112
sS'w-2=of'
p125
I352
sS'w-1=recent'
p126
I295
sS'w-1=to'
p127
I301
sS'w-2=do'
p128
I336
sS'w-1=attendance'
p129
I266
sS'nsubj=Japan'
p130
I85
sS'amod=high'
p131
I15
sS'dobj=skill'
p132
I66
sS'w+2=action'
p133
I198
sS'nsubj=economy'
p134
I92
sS'prt=out'
p135
I141
sS'mark=for'
p136
I71
sS'nsubj=Yeltsin'
p137
I87
sS'w-1=can'
p138
I271
sS'w+2=whether'
p139
I242
sS'w-2=expect'
p140
I339
sS'w-1=triple'
p141
I302
sS'w-2=able'
p142
I325
sS'advmod=when'
p143
I9
sS'dobj=ship'
p144
I65
sS'w-1=Charlotte'
p145
I249
sS'w-2=annual'
p146
I327
sS'prep=for'
p147
I128
sS'w+1=ahead'
p148
I152
sS'w+2=percent'
p149
I228
sS'conj=prevent'
p150
I43
sS'w-2=Thompson'
p151
I323
sS'w+2=at'
p152
I201
sS'conj=fall'
p153
I40
sS'w+1=gold'
p154
I162
sS'w-1=long'
p155
I283
sS'auxpass=be'
p156
I28
sS'w-1=case'
p157
I272
sS'nsubj=shock'
p158
I106
sS'ccomp=break'
p159
I32
sS'w-2=Sochi'
p160
I322
sS'conj=year'
p161
I50
sS'w+1=back'
p162
I155
sS'dobj=bridge'
p163
I56
sS'w+2=with'
p164
I243
sS'w+2=move'
p165
I223
sS"w-1=''"
p166
I245
sS'w-2=those'
p167
I373
sS'w-2=average'
p168
I329
sS'nsubj=virus'
p169
I109
sS'w+2=year'
p170
I244
sS'w-2=company'
p171
I334
sS'w+2=of'
p172
I225
sS'w+1=to'
p173
I183
sS'w+1=blues'
p174
I156
sS'w-1=and'
p175
I264
sS'prep=into'
p176
I131
sS'nsubj=pay'
p177
I100
sS'w+2=extreme'
p178
I206
sS'w-2=Boris'
p179
I317
sS'w-1=pill'
p180
I292
sS'prt=over'
p181
I142
sS'w-1=pay'
p182
I290
sS'w-2=same'
p183
I360
sS"w-2='s"
p184
I311
sS'w+2=from'
p185
I209
sS'w+2=half'
p186
I210
sS'w+2=fall'
p187
I207
sS'w-2=naval'
p188
I351
sS'dep=out'
p189
I51
sS'xcomp=coincide'
p190
I385
sS'w+2=medalist'
p191
I219
sS'w-1=Gold'
p192
I253
sS'w+1=over'
p193
I172
sS'w-2=would'
p194
I382
sS'w-2=AIDS'
p195
I316
sS'w-1=motorcycle'
p196
I285
sS'w+2=those'
p197
I238
sS'w-1=big'
p198
I269
sS'mark=though'
p199
I73
sS'w-2=student'
p200
I366
sS'xcomp=cause'
p201
I384
sS'prep=begin'
p202
I124
sS'w+1=since'
p203
I175
sS'dobj=most'
p204
I62
sS'w-2=five'
p205
I340
sS'prep=until'
p206
I137
sS'w-2=music'
p207
I350
sS'amod=good'
p208
I14
sS'dobj=ground'
p209
I59
sS'mark=while'
p210
I74
sS'w-2=the'
p211
I370
sS'aux=do'
p212
I22
sS'amod=long'
p213
I16
sS'nsubj=index'
p214
I95
sS'aux=will'
p215
I26
sS'advmod=already'
p216
I3
sS'prep=ahead'
p217
I120
sS'w-1=against'
p218
I261
sS'nsubj=people'
p219
I101
sS'prep=with'
p220
I138
sS'cc=or'
p221
I31
sS'w-1=number'
p222
I288
sS'xcomp=start'
p223
I388
sS'w-2=Ousmane'
p224
I321
sS'w+2=suicide'
p225
I233
sS'conj=fail'
p226
I39
sS'conj=stomp'
p227
I47
sS'conj=problem'
p228
I44
sS'w+2=nearly'
p229
I224
sS'w-2=rice'
p230
I359
sS'w+2=than'
p231
I234
sS'w-1=Farkas'
p232
I251
sS'w-1=after'
p233
I260
sS'num=#NUMBER#'
p234
I114
sS"w+2=''"
p235
I188
sS'w-2=asian'
p236
I328
sS'nsubj=Gold'
p237
I83
sS'w+2=joy'
p238
I217
sS'conj=robot'
p239
I45
sS'w+1=follow'
p240
I158
sS'nsubj=officer'
p241
I99
sS'w-2=economy'
p242
I337
sS'w-2=someone'
p243
I364
sS'advmod=why'
p244
I10
sS'w-1=virus'
p245
I303
sS'w-2=caution'
p246
I333
sS'cc=and'
p247
I29
sS'w+2=February'
p248
I195
sS'w-2=despite'
p249
I335
sS'w-2=toll'
p250
I375
sS'w+1=more'
p251
I166
sS'w+1=by'
p252
I157
sS'w-2=when'
p253
I379
sS'w+1=50'
p254
I148
sS'nsubj=rice'
p255
I104
sS'conj=say'
p256
I46
sS'w+2=some'
p257
I231
sS'w-2=let'
p258
I347
sS'w+1=in'
p259
I163
sS'dobj=that'
p260
I68
sS'nsubj=#PRP#'
p261
I79
sS'w+2=leap'
p262
I218
sS'w+1=into'
p263
I164
sS'dobj=species'
p264
I67
sS'cc=but'
p265
I30
sS'w+2=skip'
p266
I230
sS'advmod=ahead'
p267
I2
sS'w-1=Hornsby'
p268
I254
sS'prep=beyond'
p269
I125
sS'mark=before'
p270
I70
sS'w-1=small'
p271
I296
sS'advmod=back'
p272
I5
sS'w-2=like'
p273
I348
sS'w+1=skill'
p274
I176
sS'w-2=be'
p275
I330
sS'prep=of'
p276
I132
sS'nsubj=rapper'
p277
I103
sS'w+1=three'
p278
I182
sS'prep=on'
p279
I133
sS'nsubj=which'
p280
I111
sS"w-2=''"
p281
I310
sS'w+2=human'
p282
I213
sS'w-1=volcano'
p283
I304
sS'tmod=week'
p284
I144
sS'w-2=pond'
p285
I356
sS'w+1=.'
p286
I147
sS'w+2=minute'
p287
I220
sS'nsubj=woman'
p288
I113
sS'w-2=talk'
p289
I367
sS'w+2=that'
p290
I235
sS'w+2=most'
p291
I221
sS'w-1=who'
p292
I306
sS'w-2=want'
p293
I377
sS'w+2=any'
p294
I200
sS'nn=#DATE#'
p295
I76
sS'w-2=which'
p296
I380
sS'w-2=to'
p297
I374
sS'w+2=and'
p298
I199
sS'w-2=and'
p299
I326
sS'w+1=up'
p300
I184
sS'w-1=officer'
p301
I289
sS'neg=not'
p302
I75
sS'w+2=price'
p303
I229
sS'conj=stretch'
p304
I49
sS'w+1=this'
p305
I181
sS'nsubj=demand'
p306
I90
sS'w-2=he'
p307
I345
sS'dobj=level'
p308
I60
sS'prep=since'
p309
I135
sS'dobj=freeway'
p310
I58
sS'nsubj=Farkas'
p311
I81
sS'w-2=100'
p312
I314
sS'w+1=with'
p313
I185
sS'poss=man'
p314
I117
sS'conj=able'
p315
I36
sS'advmod=now'
p316
I6
sS'w-2=say'
p317
I361
sS'w-1=keep'
p318
I282
sS'conj=different'
p319
I38
sS'w+2=the'
p320
I236
sS'prep=at'
p321
I122
sS'prep=as'
p322
I121
sS'w-2=,'
p323
I312
sS'w-2=.'
p324
I313
sS'w+2=he'
p325
I211
sS'w-1=Yeltsin'
p326
I257
sS'aux=have'
p327
I23
sS'w+2=thrash'
p328
I239
sS'w-1=.'
p329
I247
sS'w-1=China'
p330
I250
sS'w-1=,'
p331
I246
sS'w+2=10'
p332
I191
sS'w-1=Afghan'
p333
I248
sS'w-2=I'
p334
I319
sS'w-2=woman'
p335
I381
sS'w-2=except'
p336
I338
sS'w+2=one'
p337
I226
sS'aux=can'
p338
I21
sS'w-1=I'
p339
I255
sS'complm=that'
p340
I35
sS'aux=should'
p341
I24
sS'w+1=sharply'
p342
I173
sS'w+2=interest'
p343
I215
sS'w-2=a'
p344
I324
sS'w-1=they'
p345
I300
sS'det=a'
p346
I54
sS'w-1=high'
p347
I278
sS'w-2=make'
p348
I349
sS'dobj=line'
p349
I61
sS'w+1=from'
p350
I161
sS'conj=pleased'
p351
I42
sS'w+2=they'
p352
I237
sS'w-2=good'
p353
I343
sS'w+1=species'
p354
I177
sS'dobj=mother'
p355
I63
sS'w-1=suicide'
p356
I298
sS'nsubj=disease'
p357
I91
sS'w+1=onto'
p358
I169
sS'w-1=hour'
p359
I279
sS'w-2=this'
p360
I372
sS'w-2=have'
p361
I344
sS'w-1=all'
p362
I262
sS'prep=from'
p363
I129
sS'w-1=member'
p364
I284
sS'prt=off'
p365
I140
sS'w-2=70'
p366
I315
sS'aux=to'
p367
I25
sS'w-2=you'
p368
I383
sS'w-2=should'
p369
I362
sS'nsubj=Hornsby'
p370
I84
sS'w-2=can'
p371
I332
sS'partmod=rise'
p372
I116
sS'w-1=for'
p373
I274
sS'w+1=,'
p374
I146
sS'nsubj=volcano'
p375
I110
sS'w+1=at'
p376
I154
sS'w-2=region'
p377
I358
sS'w-2=way'
p378
I378
sS'w+2=.'
p379
I190
sS'w+2=,'
p380
I189
sS'w+2=about'
p381
I197
sS'w+2=$'
p382
I187
sS'prep=during'
p383
I126
sS'w-1=quickly'
p384
I294
sS'w-1=September'
p385
I256
sS'prep=aboard'
p386
I119
sS'w+1=out'
p387
I171
sS'w-2=Olympic'
p388
I320
sS'w-1=now'
p389
I287
sS'w-1=not'
p390
I286
sS'num=hour'
p391
I115
sS'w-1=begin'
p392
I268
sS'w-2=signature'
p393
I363
sS'nsubj=inflation'
p394
I96
sS'aux=be'
p395
I20
sS'w-2=for'
p396
I342
sS'xcomp=tell'
p397
I390
sS'w+2=a'
p398
I196
ssS'dtype'
p399
cnumpy
float64
p400
sS'feature_names_'
p401
(lp402
g106
ag44
ag267
ag216
ag70
ag272
ag316
ag103
ag83
ag143
ag244
ag13
ag36
ag114
ag208
ag131
ag213
ag72
ag9
ag53
ag395
ag338
ag212
ag327
ag341
ag367
ag215
ag86
ag156
ag247
ag265
ag221
ag159
ag62
ag49
ag340
ag315
ag30
ag319
ag226
ag153
ag8
ag351
ag150
ag228
ag239
ag256
ag227
ag42
ag304
ag161
ag189
ag71
ag67
ag346
ag119
ag163
ag19
ag310
ag209
ag308
ag349
ag204
ag355
ag18
ag144
ag132
ag264
ag260
ag122
ag270
ag136
ag112
ag199
ag210
ag302
ag295
ag46
ag56
ag261
ag58
ag311
ag11
ag237
ag370
ag130
ag104
ag137
ag98
ag54
ag306
ag357
ag134
ag29
ag15
ag214
ag394
ag105
ag41
ag241
ag177
ag219
ag63
ag277
ag255
ag60
ag158
ag12
ag91
ag169
ag375
ag280
ag124
ag288
ag234
ag391
ag372
ag314
ag76
ag386
ag217
ag322
ag321
ag10
ag202
ag269
ag383
ag35
ag147
ag363
ag85
ag176
ag276
ag279
ag115
ag309
ag74
ag206
ag220
ag27
ag365
ag135
ag181
ag102
ag284
ag38
ag374
ag286
ag254
ag110
ag108
ag69
ag148
ag97
ag376
ag162
ag174
ag252
ag240
ag87
ag24
ag350
ag154
ag259
ag263
ag21
ag251
ag116
ag55
ag358
ag59
ag387
ag193
ag342
ag94
ag203
ag274
ag354
ag111
ag28
ag78
ag305
ag278
ag173
ag300
ag313
ag93
ag382
ag235
ag380
ag379
ag332
ag23
ag120
ag52
ag248
ag398
ag381
ag133
ag298
ag294
ag152
ag113
ag25
ag101
ag33
ag178
ag187
ag17
ag185
ag186
ag325
ag80
ag282
ag82
ag343
ag64
ag238
ag262
ag191
ag287
ag291
ag37
ag165
ag229
ag172
ag337
ag107
ag149
ag303
ag266
ag257
ag66
ag225
ag231
ag290
ag320
ag352
ag197
ag328
ag95
ag117
ag139
ag164
ag170
ag166
ag331
ag329
ag333
ag145
ag330
ag232
ag34
ag192
ag268
ag339
ag385
ag326
ag100
ag88
ag233
ag218
ag362
ag84
ag175
ag32
ag129
ag45
ag392
ag198
ag43
ag138
ag157
ag22
ag373
ag92
ag65
ag61
ag347
ag359
ag118
ag99
ag318
ag155
ag364
ag196
ag390
ag389
ag222
ag301
ag182
ag90
ag180
ag47
ag384
ag126
ag271
ag96
ag356
ag109
ag345
ag127
ag141
ag245
ag283
ag68
ag292
ag39
ag75
ag73
ag281
ag184
ag323
ag324
ag312
ag366
ag195
ag179
ag48
ag334
ag388
ag224
ag160
ag151
ag344
ag142
ag299
ag146
ag236
ag168
ag275
ag51
ag371
ag246
ag171
ag249
ag128
ag242
ag336
ag140
ag205
ag31
ag396
ag353
ag361
ag307
ag57
ag258
ag273
ag348
ag207
ag188
ag125
ag123
ag89
ag16
ag285
ag40
ag377
ag230
ag183
ag317
ag369
ag393
ag243
ag14
ag200
ag289
ag20
ag77
ag211
ag26
ag360
ag167
ag297
ag250
ag81
ag293
ag378
ag253
ag296
ag335
ag194
ag368
ag201
ag190
ag79
ag50
ag223
ag121
ag397
asS'separator'
p403
S'='
sS'sparse'
p404
I01
sb.