ccopy_reg
_reconstructor
p1
(csklearn.feature_extraction.dict_vectorizer
DictVectorizer
p2
c__builtin__
object
p3
NtRp4
(dp5
S'vocabulary_'
p6
(dp7
S'amod=small'
p8
I48
sS'w-2=draw'
p9
I643
sS'w+2=high-density'
p10
I401
sS'w+2=agenda'
p11
I341
sS'amod=bipartisan'
p12
I21
sS'prt=out'
p13
I179
sS'w-1=effective'
p14
I525
sS'w+1=outside'
p15
I252
sS'w-2=but'
p16
I631
sS'advmod=quite'
p17
I11
sS'advmod=increasingly'
p18
I8
sS'nsubjpass=people'
p19
I146
sS'partmod=push'
p20
I157
sS'w+2=handkerchief'
p21
I397
sS'w+1=march'
p22
I245
sS'w+2=during'
p23
I375
sS'w+2=protest'
p24
I436
sS'w+2=buyer'
p25
I365
sS'w+2=but'
p26
I364
sS'w+2=civilian'
p27
I369
sS'w+2=street'
p28
I460
sS'w+2=mall'
p29
I415
sS'w+1=around'
p30
I212
sS'w-2=police'
p31
I683
sS'w-1=Angry'
p32
I496
sS'w-2=then'
p33
I707
sS'partmod=fight'
p34
I153
sS'nsubj=supply'
p35
I135
sS'w-1=Hindu'
p36
I498
sS'w+2=Democrats'
p37
I313
sS'w-2=satisfy'
p38
I690
sS'w-2=they'
p39
I708
sS'w-1=Iraqis'
p40
I499
sS'w+2=nation'
p41
I423
sS'dobj=option'
p42
I100
sS'w+1=that'
p43
I279
sS'w-1=raucous'
p44
I567
sS'w+1=appear'
p45
I211
sS'w-2=not'
p46
I675
sS'w-1=cheer'
p47
I519
sS'w+2=Mandel'
p48
I321
sS'w-1=rain-soaked'
p49
I566
sS'w+1=than'
p50
I278
sS'w-1=tourist'
p51
I586
sS'w+1=throng'
p52
I283
sS'w-2=disperse'
p53
I641
sS'w+2=recent'
p54
I439
sS'w-1=huge'
p55
I541
sS'advmod=really'
p56
I12
sS'w-2=from'
p57
I652
sS'amod=big'
p58
I20
sS'w-2=we'
p59
I717
sS'amod=multi-faith'
p60
I39
sS'w+2=United'
p61
I337
sS'w-1=usually'
p62
I588
sS'w-1=significant'
p63
I575
sS'w+2=Saint'
p64
I332
sS'rcmod=break'
p65
I182
sS'w-1=by'
p66
I516
sS'w-1=be'
p67
I510
sS'w-2=among'
p68
I614
sS'nn=Afghan'
p69
I108
sS'w-2=hour'
p70
I660
sS'w+1=push'
p71
I256
sS'w-2=by'
p72
I632
sS'amod=high-paying'
p73
I30
sS'w-1=testosterone'
p74
I578
sS'w+1=swarm'
p75
I277
sS'w-2=marketplace'
p76
I670
sS'w+1=she'
p77
I265
sS'w+2=recount'
p78
I440
sS'w-2=where'
p79
I720
sS'w+1=shade'
p80
I264
sS'w+1=republican'
p81
I259
sS'dobj=everything'
p82
I94
sS'w+2=tear'
p83
I465
sS'nn=record'
p84
I121
sS'amod=huge'
p85
I32
sS'w+1=of'
p86
I248
sS'w+2=lawyer'
p87
I411
sS'w+2=to'
p88
I471
sS'w+1=on'
p89
I249
sS'w-1=downtown'
p90
I523
sS'amod=younger'
p91
I51
sS'w+1=sing'
p92
I269
sS'nsubj=tourist'
p93
I136
sS'conj=eager'
p94
I69
sS'w-2=market'
p95
I669
sS'w+2=young'
p96
I490
sS'w-1=have'
p97
I536
sS'dobj=calendar'
p98
I93
sS'amod=unruly'
p99
I49
sS'w+2=in'
p100
I403
sS'w+2=slum'
p101
I451
sS'w+2=it'
p102
I407
sS'w-2=hope'
p103
I658
sS'csubj=grieve'
p104
I79
sS'w+1=India'
p105
I205
sS'w-2=all'
p106
I613
sS'w+2=Muslims'
p107
I323
sS'w+2=Jakarta'
p108
I319
sS'w-1=which'
p109
I591
sS'prep=around'
p110
I166
sS'conj=discover'
p111
I68
sS'w+1=thicken'
p112
I281
sS'amod=outdoor'
p113
I41
sS'w+2=become'
p114
I358
sS'w+2=will'
p115
I485
sS'nsubj=explosion'
p116
I128
sS'w-1=very'
p117
I589
sS'w+2=President'
p118
I330
sS'w-2=sell-out'
p119
I693
sS'w+2=amazing'
p120
I348
sS'w-2=that'
p121
I705
sS'w+1=the'
p122
I280
sS'w-1=draw'
p123
I524
sS'w-2=for'
p124
I651
sS'w+2=be'
p125
I356
sS'w+2=shiite'
p126
I447
sS'amod=young'
p127
I50
sS'w-1=estimate'
p128
I530
sS'amod=large'
p129
I35
sS'w-2=road'
p130
I689
sS'w-2=up'
p131
I713
sS'w-1=already'
p132
I506
sS'w-2=synagogue'
p133
I700
sS'nsubjpass=#PRP#'
p134
I140
sS'w-2=out'
p135
I679
sS'nn=testosterone'
p136
I123
sS'prep=in'
p137
I170
sS'w+1=for'
p138
I231
sS'w+1=native'
p139
I247
sS'w+2=still'
p140
I458
sS'w+2=much'
p141
I422
sS'w+1=attack'
p142
I215
sS'w+2=mostly'
p143
I421
sS'w+2=top'
p144
I472
sS'w+1=loot'
p145
I242
sS'w-1=and'
p146
I507
sS'w-2=Zamalek'
p147
I608
sS'w+1=quickly'
p148
I257
sS'prep=to'
p149
I176
sS'w-1=younger'
p150
I593
sS'amod=fervent'
p151
I28
sS'w+2=political'
p152
I434
sS'w+2=Iraqis'
p153
I318
sS'w+2=come'
p154
I371
sS'amod=estimate'
p155
I27
sS'rcmod=forget'
p156
I185
sS'w+1=and'
p157
I210
sS'dobj=farmland'
p158
I95
sS'nsubj=cluster'
p159
I127
sS'w+2=already'
p160
I345
sS'w+2=Cotonou'
p161
I312
sS'w-1=development'
p162
I521
sS'w-1=family'
p163
I531
sS'w+2=for'
p164
I388
sS'w+1=shout'
p165
I267
sS'rcmod=be'
p166
I181
sS'nsubjpass=flyway'
p167
I144
sS'w+2=stroll'
p168
I461
sS'w+1=roard'
p169
I261
sS'det=this'
p170
I90
sS'w-2=address'
p171
I611
sS'w-1=in'
p172
I542
sS'amod=hostile'
p173
I31
sS'w+2=festival'
p174
I385
sS"w-2='"
p175
I594
sS'w+1=fight'
p176
I230
sS'tmod=spring'
p177
I197
sS'advmod=together'
p178
I14
sS'w-1=shopper'
p179
I574
sS'w+1=like'
p180
I240
sS'conj=be'
p181
I65
sS'w-1=sellout'
p182
I573
sS'w-1=the'
p183
I580
sS'w+1=know'
p184
I239
sS'w+1=start'
p185
I274
sS'w+2=supporter'
p186
I462
sS'w+2=alliance'
p187
I344
sS'nn=overflow'
p188
I120
sS'w-2=town'
p189
I712
sS'w+2=late-day'
p190
I410
sS'w+1=storm'
p191
I275
sS'w+2=not'
p192
I425
sS'w-1=big'
p193
I513
sS'rcmod=recall'
p194
I189
sS'w+2=former'
p195
I390
sS'w+2=look'
p196
I413
sS'amod=overflow'
p197
I42
sS'nsubj=war'
p198
I137
sS'amod=hungry'
p199
I33
sS'w+1=have'
p200
I234
sS'nsubjpass=road'
p201
I149
sS'w-1=-lrb-'
p202
I493
sS'w-2=several-hundred'
p203
I694
sS'det=the'
p204
I89
sS'w-2=business'
p205
I630
sS'dobj=sidewalk'
p206
I103
sS'w-1=fervent'
p207
I533
sS'w-2=through'
p208
I710
sS'w+2=estimate'
p209
I379
sS'w+2=kill'
p210
I409
sS'acomp=fearful'
p211
I0
sS'rel=in'
p212
I196
sS'w+1=downtown'
p213
I227
sS'amod=larger'
p214
I36
sS'advmod=meanwhile'
p215
I9
sS'advmod=equally'
p216
I6
sS'w+2=set'
p217
I443
sS'w-2=of'
p218
I676
sS'w+1=can'
p219
I221
sS'w-2=guide'
p220
I656
sS'w-2=on'
p221
I677
sS'w+2=might'
p222
I418
sS'rcmod=more'
p223
I188
sS'w-2=hungry'
p224
I661
sS'w-1=supporter'
p225
I577
sS'w+2=more'
p226
I420
sS'w+1=wooded'
p227
I297
sS'w-2=do'
p228
I642
sS'amod=massive'
p229
I38
sS'w-1=outdoor'
p230
I561
sS'w-1=capacity'
p231
I518
sS'w+2=usually'
p232
I480
sS'w-2=disappointed'
p233
I640
sS'rcmod=continue'
p234
I183
sS'poss=night'
p235
I161
sS'w-2=fan'
p236
I647
sS'w+2=Zimbabweans'
p237
I338
sS'w+2=can'
p238
I366
sS'conj=sci-fus'
p239
I77
sS'w+2=hundred'
p240
I402
sS'w+1=as'
p241
I213
sS'w+2=iranian'
p242
I406
sS'w+1=at'
p243
I214
sS'w+1=he'
p244
I235
sS'w+1=represent'
p245
I258
sS'w+2=so'
p246
I452
sS'w+1=pretty'
p247
I253
sS'amod=cheer'
p248
I22
sS'w+1=protest'
p249
I254
sS'w+2=vision'
p250
I481
sS'w-1=record'
p251
I570
sS'w-1=where'
p252
I590
sS'w-1=english'
p253
I527
sS'w+2=continue'
p254
I372
sS'w-1=people'
p255
I563
sS'w+1=make'
p256
I243
sS'nsubjpass=place'
p257
I147
sS'w-2=Super'
p258
I606
sS'w-1=call'
p259
I517
sS'w+2=themselves'
p260
I467
sS'w+1=through'
p261
I284
sS'nn=downtown'
p262
I117
sS'amod=angry'
p263
I19
sS'rcmod=draw'
p264
I184
sS'predet=such'
p265
I165
sS'advmod=when'
p266
I17
sS'w-1=Washington'
p267
I503
sS'w+2=always'
p268
I347
sS'w+1=mention'
p269
I246
sS'prep=for'
p270
I169
sS'w-1=hateful'
p271
I535
sS'w-2=really'
p272
I687
sS'xcomp=enjoy'
p273
I723
sS'w-2=attract'
p274
I620
sS'w-2=target'
p275
I701
sS'w+2=bridge'
p276
I362
sS'w-1=thousand'
p277
I583
sS'w+1=Friday'
p278
I204
sS'w+2=Saturday'
p279
I333
sS'w+2=boat'
p280
I360
sS'w+2=at'
p281
I354
sS'w+2=London'
p282
I320
sS'w+2=where'
p283
I484
sS'w+2=as'
p284
I353
sS'rcmod=support'
p285
I194
sS'w-2=U.S.'
p286
I607
sS'w+2=include'
p287
I404
sS'w+1=would'
p288
I298
sS'w+2=wound'
p289
I489
sS'w+2=state'
p290
I457
sS'w-2=appear'
p291
I617
sS'amod=disappointed'
p292
I24
sS'auxpass=be'
p293
I57
sS'w+2=helmet'
p294
I400
sS'w-1=into'
p295
I545
sS"w-1='s"
p296
I491
sS'w-2=control'
p297
I636
sS'w+1=set'
p298
I263
sS'w+1=Wednesday'
p299
I207
sS'w+2=segregation'
p300
I442
sS'w-2=shout'
p301
I696
sS'w+1=commemorate'
p302
I224
sS'w-1=disperse'
p303
I522
sS'w-1=large'
p304
I548
sS'w-1=noisy'
p305
I556
sS'w-1=invite'
p306
I546
sS'poss=weekend'
p307
I162
sS'w+2=carry'
p308
I367
sS'nsubj=#NUMBER#'
p309
I124
sS'w+2=watch'
p310
I482
sS'w+2=she'
p311
I445
sS'w-1=further'
p312
I534
sS'w+2=shoe'
p313
I448
sS'conj=increase'
p314
I73
sS'dobj=bridge'
p315
I92
sS'w+2=New'
p316
I324
sS'w-2=dawn'
p317
I637
sS'partmod=estimate'
p318
I152
sS'w+2=back'
p319
I355
sS'w+1=mall'
p320
I244
sS'w+1=watch'
p321
I290
sS'w+2=Shiites'
p322
I334
sS'w-2=hospital'
p323
I659
sS'nsubj=fan'
p324
I130
sS'w-1=equally'
p325
I529
sS'nsubjpass=plane'
p326
I148
sS'w+2=faithful'
p327
I382
sS'w+2=several'
p328
I444
sS'w+2=public'
p329
I437
sS'w-2=mostly'
p330
I673
sS'w-2=rally'
p331
I686
sS'w+2=song'
p332
I455
sS'w+2=or'
p333
I427
sS'w-2=tell'
p334
I702
sS'w+2=shelter'
p335
I446
sS'w+2=outside'
p336
I429
sS'w-2=after'
p337
I612
sS'w+2=on'
p338
I426
sS'w+1=to'
p339
I286
sS'w+2=200,000'
p340
I306
sS'w+1=street'
p341
I276
sS'w-1=plaza'
p342
I564
sS'w+2=close'
p343
I370
sS'w+2=everyone'
p344
I380
sS'w+2=he'
p345
I399
sS'w+1=shelter'
p346
I266
sS'det=any'
p347
I88
sS'w+1=so'
p348
I270
sS'prep=into'
p349
I171
sS'dobj=garden'
p350
I97
sS'w-1=larger'
p351
I549
sS'w+2=billion'
p352
I359
sS'w+2=India'
p353
I316
sS'amod=male'
p354
I37
sS'w+1=include'
p355
I237
sS'w-2=350'
p356
I599
sS'w-2=kill'
p357
I665
sS'w+2=about'
p358
I340
sS'prep=without'
p359
I178
sS'nsubj=ladder'
p360
I132
sS'w-2=Show'
p361
I604
sS'dep=thanks'
p362
I86
sS'w-2=add'
p363
I610
sS"w-2='s"
p364
I595
sS'w+2=hall'
p365
I396
sS'w+1=.'
p366
I201
sS'w+2=two'
p367
I477
sS'w+2=beachfront'
p368
I357
sS'amod=raucous'
p369
I44
sS'w+2=table'
p370
I464
sS'w-1=select'
p371
I572
sS'w+2=spectator'
p372
I456
sS'predet=all'
p373
I164
sS'w-2=go'
p374
I655
sS'nsubj=Iraqis'
p375
I126
sS'w-1=hostile'
p376
I539
sS'amod=older'
p377
I40
sS'w+2=South'
p378
I335
sS'w-2=into'
p379
I664
sS'rcmod=intend'
p380
I187
sS'w+2=people'
p381
I430
sS'amod=significant'
p382
I47
sS'w+2=garden'
p383
I392
sS'w-2=different'
p384
I639
sS'conj=lot'
p385
I75
sS'w+2=allege'
p386
I343
sS'w+2=reporter'
p387
I441
sS'partmod=commemorate'
p388
I151
sS'w+2=cheer'
p389
I368
sS'w+1=since'
p390
I268
sS'amod=receptive'
p391
I45
sS'w-2=five'
p392
I650
sS'w+1=whoop'
p393
I293
sS'w-1=angry'
p394
I508
sS'w-2=return'
p395
I688
sS'rcmod=store'
p396
I193
sS'w-1=Seoul'
p397
I502
sS'w-2=Hanoi'
p398
I602
sS'w-2=with'
p399
I722
sS'w+2=policeman'
p400
I433
sS'aux=will'
p401
I56
sS'partmod=protest'
p402
I156
sS'dobj=place'
p403
I101
sS'advmod=already'
p404
I3
sS'w-2=Satan'
p405
I603
sS'nn=Open'
p406
I112
sS'prep=outside'
p407
I175
sS'w-2=place'
p408
I681
sS'nsubj=people'
p409
I133
sS'prep=with'
p410
I177
sS'cc=or'
p411
I61
sS'nn=capacity'
p412
I115
sS'dep=push'
p413
I85
sS'w-2=impatience'
p414
I662
sS'w+2=88,000'
p415
I309
sS'w-2=Drummers'
p416
I600
sS'conj=enter'
p417
I70
sS'w+2=its'
p418
I408
sS'w+2=leave'
p419
I412
sS'w+1=up-market'
p420
I289
sS'w+2=aisle'
p421
I342
sS'w-2=avoid'
p422
I621
sS'aux=have'
p423
I54
sS'nsubj=family'
p424
I129
sS'amod=invite'
p425
I34
sS'w-2=in'
p426
I663
sS'w+2=solicit'
p427
I454
sS'w+1=seem'
p428
I262
sS'w+1=cheer'
p429
I223
sS'nsubjpass=field'
p430
I143
sS'w+2=moderate'
p431
I419
sS'w-1=to'
p432
I585
sS'w+2=stone'
p433
I459
sS'w-2=mosque'
p434
I672
sS'w+2=do'
p435
I374
sS'nsubjpass=city'
p436
I142
sS'w+2=nearly'
p437
I424
sS'cc=also'
p438
I58
sS'w-2=energize'
p439
I645
sS'w+2=fire'
p440
I386
sS'w-1=back'
p441
I509
sS'nn=Hindu'
p442
I111
sS'w+2=Pikine'
p443
I328
sS'w+2=place'
p444
I432
sS'w-1=eid'
p445
I526
sS"w+2=''"
p446
I300
sS'w-1=massive'
p447
I552
sS'w-1=this'
p448
I582
sS'w+2=Obama'
p449
I326
sS'w+2=four'
p450
I391
sS'rcmod=serve'
p451
I192
sS'w-1=ladder'
p452
I547
sS'w+2=Christofias'
p453
I311
sS'w+2=gather'
p454
I393
sS'w+2=enthusiasm'
p455
I378
sS'w-2=States'
p456
I605
sS'nn=development'
p457
I116
sS'w-2=hold'
p458
I657
sS'w-1=relative'
p459
I571
sS'w+2=form'
p460
I389
sS'conj=official'
p461
I76
sS'rcmod=run'
p462
I191
sS'cc=and'
p463
I59
sS'w-1=bipartisan'
p464
I514
sS'w+1=also'
p465
I209
sS'w-2=use'
p466
I714
sS'partmod=gather'
p467
I154
sS'w+1=listen'
p468
I241
sS'w+1=will'
p469
I295
sS'w+1=be'
p470
I216
sS'w-1=older'
p471
I559
sS'nsubjpass=sidewalk'
p472
I150
sS"w+2='s"
p473
I301
sS'w-2=bridge'
p474
I627
sS'w-2=when'
p475
I719
sS'w-2=border'
p476
I625
sS'w+2=mainly'
p477
I414
sS'w-1=home'
p478
I538
sS'w+1=in'
p479
I236
sS'nsubj=journalist'
p480
I131
sS'w-2=fire'
p481
I648
sS'nsubj=#PRP#'
p482
I125
sS'advmod=early'
p483
I5
sS'w+2=sweet-faced'
p484
I463
sS'w-2=see'
p485
I692
sS'w-1=male'
p486
I551
sS'w+2=soccer'
p487
I453
sS'w-2=want'
p488
I716
sS'w+1=Senator'
p489
I206
sS'w+1=into'
p490
I238
sS'cc=but'
p491
I60
sS'w-2=decide'
p492
I638
sS'w+2=pilgrim'
p493
I431
sS'w+2=Portland'
p494
I329
sS'w+2=get'
p495
I394
sS'w-1=young'
p496
I592
sS'conj=jostle'
p497
I74
sS'poss=#PRP#'
p498
I160
sS'w+1=gather'
p499
I233
sS'w-1=really'
p500
I568
sS'w+2=message'
p501
I416
sS'prep=like'
p502
I172
sS'w-2=the'
p503
I706
sS'w-2=firing'
p504
I649
sS'w-2=speak'
p505
I698
sS'w+1=alone'
p506
I208
sS'w+2=each'
p507
I376
sS'conj=everything'
p508
I72
sS'w-1=small'
p509
I576
sS"possessive='s"
p510
I163
sS'w+2=Indianapolis'
p511
I317
sS'w-1=increasingly'
p512
I544
sS'w-2=people'
p513
I680
sS'w+2=arrival'
p514
I352
sS'conj=everyone'
p515
I71
sS'w+2=wear'
p516
I483
sS'w+2=angry'
p517
I350
sS'rcmod=aggressor'
p518
I180
sS"w+1='s"
p519
I198
sS'partmod=set'
p520
I158
sS'nn=sellout'
p521
I122
sS'w-2=be'
p522
I622
sS'prep=of'
p523
I173
sS'w+2=try'
p524
I476
sS'prep=on'
p525
I174
sS'w+2=91-thousand'
p526
I310
sS'w-2=before'
p527
I624
sS'w+2=burn'
p528
I363
sS'w-2=street'
p529
I699
sS'w+1=road'
p530
I260
sS'w+2=Prime'
p531
I331
sS'nsubj=which'
p532
I138
sS'w-1=unruly'
p533
I587
sS'rcmod=include'
p534
I186
sS'w+1=break'
p535
I218
sS'w+2=they'
p536
I469
sS'w+2=sidewalk'
p537
I449
sS'w-2=bullet'
p538
I629
sS'w+2=presidential'
p539
I435
sS'w-1=mourner'
p540
I553
sS'w-2=monitor'
p541
I671
sS'w-1=Open'
p542
I500
sS'w+1=out'
p543
I251
sS'w+2=election'
p544
I377
sS'w-1=fan'
p545
I532
sS'dep=enter'
p546
I82
sS'amod=hateful'
p547
I29
sS'w-1=Samak'
p548
I501
sS'partmod=mention'
p549
I155
sS'w+2=wooden'
p550
I487
sS'w-1=poor'
p551
I565
sS'nsubj=woman'
p552
I139
sS'w+2=Dhaval'
p553
I314
sS'w+2=Palestinians'
p554
I327
sS'w+2=North'
p555
I325
sS'w+2=also'
p556
I346
sS'w+1=some'
p557
I271
sS'w+2=and'
p558
I349
sS'w+2=flora'
p559
I387
sS'w-2=show'
p560
I697
sS'w-2=live'
p561
I667
sS'w-1=through'
p562
I584
sS'nn=lunch'
p563
I119
sS'w-2=quite'
p564
I685
sS'w-2=and'
p565
I615
sS'conj=construct'
p566
I67
sS'nsubjpass=Grande'
p567
I141
sS'dobj=street'
p568
I104
sS'w+2=Toronto'
p569
I336
sS'w-1=chinese'
p570
I520
sS'w-2=lead'
p571
I666
sS'w-1=of'
p572
I558
sS'dobj=flora'
p573
I96
sS'w-2=carefully'
p574
I634
sS'w+2=out'
p575
I428
sS'conj=canal'
p576
I66
sS'w-2=to'
p577
I711
sS'dobj=shelter'
p578
I102
sS'w-2=shopper'
p579
I695
sS'dep=be'
p580
I81
sS'w+1=thin'
p581
I282
sS'w-2=vote'
p582
I715
sS'xcomp=see'
p583
I724
sS'w+2=--'
p584
I303
sS'w-2=Grande'
p585
I601
sS'cop=be'
p586
I78
sS'w-2=any'
p587
I616
sS'w-2=electrify'
p588
I644
sS'w-1=multi-faith'
p589
I554
sS'advmod=substantially'
p590
I13
sS'w+1=begin'
p591
I217
sS'w+1=with'
p592
I296
sS'w+2=tourist'
p593
I473
sS'advmod=now'
p594
I10
sS'w+2=everything'
p595
I381
sS'w-2=say'
p596
I691
sS'w-2=evacuation'
p597
I646
sS'w+2=into'
p598
I405
sS'w-2=much'
p599
I674
sS'rcmod=that'
p600
I195
sS'prep=at'
p601
I167
sS'w-1=nationality'
p602
I555
sS'advmod=around'
p603
I4
sS'ccomp=congest'
p604
I62
sS'w+1=stage'
p605
I272
sS'w-2=,'
p606
I596
sS'w-2=-'
p607
I597
sS'nn=Bowl'
p608
I110
sS'w-1=overflow'
p609
I562
sS'w+1=stand'
p610
I273
sS'nn=home'
p611
I118
sS'w+1=yell'
p612
I299
sS'amod=alone'
p613
I18
sS'nn=Angry'
p614
I109
sS'w+2=500,000'
p615
I308
sS'w+2=farmland'
p616
I384
sS'w+2=unsanitary'
p617
I478
sS'appos=condition'
p618
I52
sS'dep=open'
p619
I84
sS'w+2=training'
p620
I475
sS'w+1=do'
p621
I226
sS'w-1=.'
p622
I494
sS'w-1=,'
p623
I492
sS'w+2=10'
p624
I305
sS'w-1=Afghan'
p625
I495
sS'w-2=thief'
p626
I709
sS'nn=Washington'
p627
I114
sS'amod=english'
p628
I25
sS'w-2=at'
p629
I619
sS'w-2=as'
p630
I618
sS'advmod=very'
p631
I16
sS'rcmod=rob'
p632
I190
sS'amod=chinese'
p633
I23
sS'w-2=other'
p634
I678
sS'w-1=enthusiastic'
p635
I528
sS'w+2=use'
p636
I479
sS'conj=adequate'
p637
I64
sS'w+1=during'
p638
I228
sS'advcl=make'
p639
I2
sS'w+2=government'
p640
I395
sS'w+2=demonstrator'
p641
I373
sS'w-2=thank'
p642
I703
sS'w-2=a'
p643
I609
sS'w-2=look'
p644
I668
sS'w-1=they'
p645
I581
sS'det=a'
p646
I87
sS'dep=find'
p647
I83
sS'w-1=a'
p648
I504
sS'dobj=agenda'
p649
I91
sS'w-2=bring'
p650
I628
sS'w-2=plane'
p651
I682
sS'w+1=together'
p652
I287
sS'w+2=mid-afternoon'
p653
I417
sS'mark=as'
p654
I106
sS'amod=select'
p655
I46
sS'w+2=there'
p656
I468
sS'w-1=before'
p657
I511
sS'w+1=try'
p658
I288
sS'w+1=from'
p659
I232
sS'w-2=predominately'
p660
I684
sS'w-1=Bowl'
p661
I497
sS'dep=audience'
p662
I80
sS'w-2=choke'
p663
I635
sS'w+2=far'
p664
I383
sS'w-1=how'
p665
I540
sS'w+2=around'
p666
I351
sS'ccomp=hang'
p667
I63
sS'w+1=wave'
p668
I291
sS'amod=enthusiastic'
p669
I26
sS'w+2=have'
p670
I398
sS'w-2=calm'
p671
I633
sS'w+2=without'
p672
I486
sS'w+2=border'
p673
I361
sS'w+1=onto'
p674
I250
sS'dobj=mall'
p675
I99
sS'nsubj=shopper'
p676
I134
sS'w+2=500'
p677
I307
sS'amod=rain-soaked'
p678
I43
sS'advmod=how'
p679
I7
sS'w+1=why'
p680
I294
sS'w+1=celebrate'
p681
I222
sS'partmod=try'
p682
I159
sS'w+1=public'
p683
I255
sS'w-1=high-paying'
p684
I537
sS'w-1=boy'
p685
I515
sS'w+1=when'
p686
I292
sS'nsubjpass=mosque'
p687
I145
sS'aux=to'
p688
I55
sS'w+2=town'
p689
I474
sS'w-2=thanks'
p690
I704
sS'w+2=the'
p691
I466
sS'w-2=break'
p692
I626
sS'w-1=lunch'
p693
I550
sS'w+2=Hariri'
p694
I315
sS'w-2=will'
p695
I721
sS'w-1=agitate'
p696
I505
sS'w+2=Mr.'
p697
I322
sS'w-1=that'
p698
I579
sS'w+1=control'
p699
I225
sS'w+2=thousand'
p700
I470
sS'w+1=-'
p701
I200
sS'w+1=,'
p702
I199
sS'w+1=throw'
p703
I285
sS'w+2=.'
p704
I304
sS'w-2=front'
p705
I653
sS'w+2=,'
p706
I302
sS'w+1=;'
p707
I203
sS'w+1=:'
p708
I202
sS'w-1=receptive'
p709
I569
sS'neg=not'
p710
I107
sS'prep=during'
p711
I168
sS'dobj=town'
p712
I105
sS'w-2=.'
p713
I598
sS'w+1=by'
p714
I220
sS'w-2=weekend'
p715
I718
sS'advmod=usually'
p716
I15
sS'advcl=damage'
p717
I1
sS'w-1=on'
p718
I560
sS'nn=Seoul'
p719
I113
sS'w+1=early'
p720
I229
sS'w-1=now'
p721
I557
sS'w-1=begin'
p722
I512
sS'w+1=but'
p723
I219
sS'w-2=generate'
p724
I654
sS'w-1=include'
p725
I543
sS'w-2=because'
p726
I623
sS'w+2=push'
p727
I438
sS'aux=be'
p728
I53
sS'w+2=silent'
p729
I450
sS'w+2=would'
p730
I488
sS'w+2=a'
p731
I339
sS'dobj=hall'
p732
I98
ssS'dtype'
p733
cnumpy
float64
p734
sS'feature_names_'
p735
(lp736
g211
ag717
ag639
ag404
ag603
ag483
ag216
ag679
ag18
ag215
ag594
ag17
ag56
ag590
ag178
ag716
ag631
ag266
ag613
ag263
ag58
ag12
ag248
ag633
ag292
ag628
ag669
ag155
ag151
ag547
ag73
ag173
ag85
ag199
ag425
ag129
ag214
ag354
ag229
ag60
ag377
ag113
ag197
ag678
ag369
ag391
ag655
ag382
ag8
ag99
ag127
ag91
ag618
ag728
ag423
ag688
ag401
ag293
ag438
ag463
ag491
ag411
ag604
ag667
ag637
ag181
ag576
ag566
ag111
ag94
ag417
ag515
ag508
ag314
ag497
ag385
ag461
ag239
ag586
ag104
ag662
ag580
ag546
ag647
ag619
ag413
ag362
ag646
ag347
ag204
ag170
ag649
ag315
ag98
ag82
ag158
ag573
ag350
ag732
ag675
ag42
ag403
ag578
ag206
ag568
ag712
ag654
ag710
ag69
ag614
ag608
ag442
ag406
ag719
ag627
ag412
ag457
ag262
ag611
ag563
ag188
ag84
ag521
ag136
ag309
ag482
ag375
ag159
ag116
ag424
ag324
ag480
ag360
ag409
ag676
ag35
ag93
ag198
ag532
ag552
ag134
ag567
ag436
ag430
ag167
ag687
ag19
ag257
ag326
ag201
ag472
ag388
ag318
ag34
ag467
ag549
ag402
ag20
ag520
ag682
ag498
ag235
ag307
ag510
ag373
ag265
ag110
ag601
ag711
ag270
ag137
ag349
ag502
ag523
ag525
ag407
ag149
ag410
ag359
ag13
ag518
ag166
ag65
ag234
ag264
ag156
ag534
ag380
ag223
ag194
ag632
ag462
ag451
ag396
ag285
ag600
ag212
ag177
ag519
ag702
ag701
ag366
ag708
ag707
ag278
ag105
ag489
ag299
ag506
ag465
ag157
ag45
ag30
ag241
ag243
ag142
ag470
ag591
ag535
ag723
ag714
ag219
ag681
ag429
ag302
ag699
ag621
ag213
ag638
ag720
ag176
ag138
ag659
ag499
ag200
ag244
ag479
ag355
ag490
ag184
ag180
ag468
ag145
ag256
ag320
ag22
ag269
ag139
ag86
ag89
ag674
ag543
ag15
ag247
ag249
ag683
ag71
ag148
ag245
ag81
ag530
ag169
ag428
ag298
ag80
ag77
ag346
ag165
ag390
ag92
ag348
ag557
ag605
ag610
ag185
ag191
ag341
ag75
ag50
ag43
ag122
ag112
ag581
ag52
ag261
ag703
ag339
ag652
ag658
ag420
ag321
ag668
ag686
ag393
ag680
ag469
ag592
ag227
ag288
ag612
ag446
ag473
ag706
ag584
ag704
ag624
ag340
ag677
ag615
ag415
ag526
ag453
ag161
ag37
ag553
ag694
ag353
ag511
ag153
ag108
ag282
ag48
ag697
ag107
ag316
ag555
ag449
ag554
ag443
ag494
ag118
ag531
ag64
ag279
ag322
ag378
ag569
ag61
ag237
ag731
ag358
ag11
ag421
ag386
ag187
ag160
ag556
ag268
ag120
ag558
ag517
ag666
ag514
ag284
ag281
ag319
ag125
ag368
ag114
ag352
ag280
ag673
ag276
ag528
ag26
ag25
ag238
ag308
ag389
ag27
ag343
ag154
ag254
ag641
ag435
ag23
ag507
ag544
ag455
ag209
ag344
ag595
ag327
ag664
ag616
ag174
ag440
ag559
ag164
ag460
ag195
ag450
ag383
ag454
ag495
ag640
ag365
ag21
ag670
ag345
ag294
ag10
ag240
ag100
ag287
ag598
ag242
ag102
ag418
ag210
ag190
ag87
ag419
ag196
ag477
ag29
ag501
ag653
ag222
ag431
ag226
ag143
ag141
ag41
ag437
ag192
ag338
ag333
ag575
ag336
ag381
ag493
ag444
ag400
ag152
ag539
ag24
ag329
ag727
ag54
ag78
ag387
ag300
ag217
ag328
ag311
ag335
ag126
ag313
ag537
ag729
ag101
ag246
ag487
ag427
ag332
ag372
ag290
ag140
ag433
ag28
ag168
ag186
ag484
ag370
ag83
ag691
ag260
ag656
ag536
ag700
ag88
ag144
ag593
ag689
ag620
ag524
ag367
ag617
ag636
ag232
ag250
ag310
ag516
ag283
ag115
ag672
ag550
ag730
ag289
ag96
ag296
ag623
ag202
ag622
ag625
ag32
ag661
ag36
ag40
ag542
ag548
ag397
ag267
ag648
ag696
ag132
ag146
ag394
ag441
ag67
ag657
ag722
ag193
ag464
ag685
ag66
ag259
ag231
ag47
ag570
ag162
ag303
ag90
ag123
ag14
ag445
ag253
ag635
ag325
ag128
ag163
ag545
ag207
ag312
ag271
ag97
ag684
ag478
ag376
ag665
ag55
ag172
ag725
ag512
ag295
ag306
ag452
ag304
ag351
ag693
ag486
ag447
ag540
ag589
ag602
ag305
ag721
ag572
ag471
ag718
ag230
ag609
ag255
ag342
ag551
ag49
ag44
ag500
ag709
ag251
ag459
ag371
ag182
ag179
ag63
ag509
ag225
ag74
ag698
ag183
ag645
ag448
ag277
ag562
ag432
ag51
ag533
ag62
ag117
ag252
ag109
ag496
ag150
ag175
ag364
ag606
ag607
ag713
ag356
ag416
ag585
ag398
ag405
ag361
ag456
ag258
ag286
ag147
ag643
ag363
ag171
ag337
ag106
ag68
ag565
ag587
ag291
ag630
ag629
ag274
ag422
ag522
ag726
ag527
ag476
ag692
ag474
ag650
ag538
ag205
ag16
ag72
ag671
ag574
ag663
ag297
ag317
ag492
ag384
ag233
ag53
ag228
ag9
ag588
ag439
ag597
ag236
ag481
ag504
ag392
ag124
ag57
ag705
ag724
ag374
ag220
ag458
ag103
ag323
ag70
ag224
ag414
ag426
ag379
ag357
ag571
ag561
ag644
ag95
ag76
ag541
ag434
ag330
ag599
ag46
ag218
ag221
ag634
ag135
ag513
ag408
ag651
ag31
ag660
ag564
ag331
ag272
ag395
ag130
ag38
ag596
ag485
ag119
ag203
ag579
ag301
ag560
ag505
ag529
ag133
ag275
ag334
ag642
ag690
ag121
ag503
ag33
ag39
ag626
ag208
ag577
ag189
ag131
ag466
ag582
ag488
ag59
ag715
ag475
ag79
ag695
ag399
ag273
ag583
asS'separator'
p737
S'='
sS'sparse'
p738
I01
sb.