ccopy_reg
_reconstructor
p1
(csklearn.feature_extraction.dict_vectorizer
DictVectorizer
p2
c__builtin__
object
p3
NtRp4
(dp5
S'vocabulary_'
p6
(dp7
S'w-2=livelihood'
p8
I441
sS'w-2=billion'
p9
I407
sS'w-2=people'
p10
I459
sS'nsubjpass=people'
p11
I99
sS'w+2=during'
p12
I227
sS'w+1=hostage'
p13
I164
sS'w-2=think'
p14
I482
sS'w-2=when'
p15
I490
sS'w+2=Hungary'
p16
I198
sS'dobj=smuggler'
p17
I65
sS'w-1=economic'
p18
I316
sS'nsubjpass=#PRP#'
p19
I91
sS'w-2=they'
p20
I480
sS'w-1=like'
p21
I334
sS'w+1=Italy'
p22
I135
sS'prep=by'
p23
I113
sS'w+1=worker'
p24
I190
sS'dobj=firm'
p25
I56
sS'dobj=Syria'
p26
I45
sS'nsubj=government'
p27
I85
sS'w-2=not'
p28
I452
sS'w-1=say'
p29
I343
sS'w+2=child'
p30
I220
sS'dobj=industry'
p31
I59
sS'w+2=piece'
p32
I258
sS'w+2=approve'
p33
I213
sS'w-2=Turchynov'
p34
I388
sS'w-1=huge'
p35
I327
sS'w+1=these'
p36
I182
sS'advmod=so'
p37
I10
sS'w-2=from'
p38
I425
sS'w+2=fear'
p39
I233
sS'w-1=will'
p40
I360
sS'amod=dramatic'
p41
I12
sS'w-1=by'
p42
I310
sS'nsubj=smuggler'
p43
I87
sS'w-1=be'
p44
I305
sS'w-2=among'
p45
I400
sS'w+2=eagle'
p46
I228
sS'w+1=program'
p47
I176
sS'w-2=family'
p48
I421
sS'w-2=Bangladesh'
p49
I370
sS'w-2=the'
p50
I478
sS'w+2=team'
p51
I271
sS'w+2=through'
p52
I276
sS'w-2=before'
p53
I406
sS'tmod=life'
p54
I125
sS'w-2=rise'
p55
I463
sS'w+2=country'
p56
I223
sS'w+1=of'
p57
I167
sS'w+1=equipment'
p58
I157
sS'w+2=to'
p59
I277
sS'w-2=news'
p60
I450
sS'dobj=bather'
p61
I46
sS'w-1=some'
p62
I345
sS'w-1=its'
p63
I332
sS'w+2=appear'
p64
I212
sS'tmod=year'
p65
I127
sS'w-2=Red'
p66
I383
sS'w-1=Guard'
p67
I288
sS'w+2=fail'
p68
I231
sS'w+2=if'
p69
I242
sS'nsubjpass=Fatimata'
p70
I93
sS'w+2=-lrb-'
p71
I195
sS'w+2=in'
p72
I243
sS'w-2=all'
p73
I399
sS'w+2=who'
p74
I279
sS'w+1=robot'
p75
I177
sS'w-2=policeman'
p76
I461
sS'w-2=New'
p77
I382
sS'aux=can'
p78
I18
sS'complm=that'
p79
I28
sS'w+1=people'
p80
I173
sS'w-2=Israel'
p81
I378
sS'w-1=space'
p82
I346
sS'advcl=recruit'
p83
I1
sS'w+2=will'
p84
I280
sS'w-1=government'
p85
I323
sS'w-1=45'
p86
I285
sS'w-2=effort'
p87
I419
sS'w-1=only'
p88
I340
sS'w+2=event'
p89
I230
sS'w+2=by'
p90
I219
sS'w+1=the'
p91
I181
sS'w+2=take'
p92
I270
sS'w-1=150-billion'
p93
I284
sS'advmod=only'
p94
I9
sS'w+2=be'
p95
I216
sS'w-2=crash'
p96
I416
sS'w+1=they'
p97
I183
sS'w+2=handful'
p98
I239
sS'w-2=stop'
p99
I474
sS'w+2=suspend'
p100
I269
sS'dep=Arifin'
p101
I36
sS'prep=in'
p102
I116
sS'w+1=for'
p103
I160
sS'w-2=Lanka'
p104
I379
sS'w-1=massive'
p105
I335
sS'dobj=worker'
p106
I69
sS'w-2=that'
p107
I477
sS'w-2=Tamao'
p108
I385
sS'w-1=from'
p109
I322
sS'nsubj=view'
p110
I88
sS'w+1=ship'
p111
I178
sS'dobj=the'
p112
I67
sS'w-2=cowboy'
p113
I415
sS'w+1=and'
p114
I142
sS'w+2=faulty'
p115
I232
sS'w-1=substantial'
p116
I348
sS'w+1=child'
p117
I152
sS'w-2=multi-billion-dollar'
p118
I448
sS'prep=for'
p119
I114
sS'w-1=family'
p120
I317
sS'w+2=for'
p121
I236
sS'conj=care'
p122
I29
sS'w-2=shaft'
p123
I469
sS'w-2=order'
p124
I455
sS'xcomp=company'
p125
I494
sS'w-1=such'
p126
I349
sS'num=$'
p127
I103
sS'w-2=government'
p128
I430
sS'w-1=financial'
p129
I319
sS'w+2=this'
p130
I275
sS'w-1=underground'
p131
I355
sS'w+2=smuggler'
p132
I267
sS'poss=#DATE#'
p133
I106
sS'partmod=organize'
p134
I105
sS'w-1=the'
p135
I351
sS'dobj=dog'
p136
I53
sS'w-1=ukrainian'
p137
I354
sS'mark=if'
p138
I70
sS'w-2=building'
p139
I408
sS'w-2=find'
p140
I423
sS'w+2=not'
p141
I254
sS'rcmod=write'
p142
I122
sS'w+1=package'
p143
I171
sS'w+1=off'
p144
I168
sS'nsubj=Thompson'
p145
I81
sS'w-2=hundred'
p146
I436
sS'w+2=intercept'
p147
I244
sS'dobj=Stears'
p148
I44
sS'w-1=Anbar'
p149
I286
sS'det=the'
p150
I41
sS'nsubj=youth'
p151
I90
sS'dobj=country'
p152
I52
sS'dobj=people'
p153
I62
sS'acomp=unharmed'
p154
I0
sS'rcmod=begin'
p155
I121
sS'w+2=sea'
p156
I265
sS'nsubj=who'
p157
I89
sS'w-2=of'
p158
I453
sS'nsubj=bank'
p159
I83
sS'w-2=have'
p160
I431
sS'w-1=brokerage'
p161
I309
sS'w-2=on'
p162
I454
sS'nsubjpass=child'
p163
I95
sS'w+1=team'
p164
I180
sS'w-2=85'
p165
I369
sS'w-2=second'
p166
I468
sS'w-2=against'
p167
I394
sS'dobj=#PRP#'
p168
I42
sS'w+1=crew'
p169
I154
sS'w+2=dog'
p170
I225
sS'w-2=complex'
p171
I413
sS'w+1=mission'
p172
I166
sS'w-2=Tuesday'
p173
I387
sS'w+1=as'
p174
I143
sS'w+2=like'
p175
I249
sS'w+1=at'
p176
I144
sS'conj=recovery'
p177
I33
sS'w+1=he'
p178
I163
sS'w-2=army'
p179
I402
sS'w-2=again'
p180
I393
sS'w+2=financial'
p181
I234
sS'w-1=can'
p182
I311
sS'w-1=beyond'
p183
I306
sS'w-2=package'
p184
I457
sS'w+2=Smith'
p185
I202
sS'w-2=able'
p186
I391
sS'w-2=chance'
p187
I410
sS'dobj=boat'
p188
I47
sS'w-1=with'
p189
I361
sS'w-2=aim'
p190
I396
sS'w+2=search'
p191
I266
sS'w+2=draft'
p192
I226
sS'w-2=she'
p193
I470
sS'nn=International'
p194
I74
sS'w-1=doubloon'
p195
I314
sS'advmod=alone'
p196
I7
sS'w-2=Lurrie'
p197
I380
sS'w-2=Thompson'
p198
I386
sS'w+2=boat'
p199
I217
sS'w+2=as'
p200
I214
sS'w-2=U.S.'
p201
I389
sS'aux=be'
p202
I17
sS'w-1=accept'
p203
I296
sS'w-1=involve'
p204
I331
sS'auxpass=be'
p205
I23
sS'w-1=one'
p206
I339
sS"w-1='s"
p207
I281
sS'w-1=York'
p208
I293
sS'prep=after'
p209
I110
sS'w+1=Wednesday'
p210
I137
sS'dep=package'
p211
I39
sS'w+1=Coalition'
p212
I132
sS'w+2=embattled'
p213
I229
sS'w-2=be'
p214
I405
sS'w-2=airport'
p215
I398
sS'w+2=say'
p216
I264
sS'w+1=effort'
p217
I156
sS'advcl=strike'
p218
I4
sS'dobj=sailor'
p219
I64
sS'w-1=dramatic'
p220
I315
sS'w-1=initial'
p221
I329
sS'w+1=operation'
p222
I169
sS'w-2=central'
p223
I409
sS'w-2=those'
p224
I483
sS'nn=Anbar'
p225
I73
sS'prep=off'
p226
I119
sS'amod=financial'
p227
I13
sS'nsubjpass=Beah'
p228
I92
sS'nsubj=ship'
p229
I86
sS'w+1=Center'
p230
I131
sS'w-2=slide'
p231
I473
sS'w+1=Syria'
p232
I136
sS'w-1=billion'
p233
I307
sS'w-2=airlift'
p234
I397
sS'nn=help'
p235
I77
sS'w-1=Stearns'
p236
I291
sS'w+2=outside'
p237
I256
sS'w-2=after'
p238
I392
sS'nsubjpass=woman'
p239
I102
sS'w+2=on'
p240
I255
sS'w+1=to'
p241
I184
sS'nsubjpass=immigrant'
p242
I98
sS'w-1=and'
p243
I298
sS'nsubjpass=domino'
p244
I96
sS'conj=effort'
p245
I30
sS'dobj=Party'
p246
I43
sS'w+2=hear'
p247
I241
sS'w-1=any'
p248
I299
sS'w+2=Congress'
p249
I197
sS'w+1=Zimbabwe'
p250
I138
sS'advmod=first'
p251
I8
sS'w-2=attempt'
p252
I403
sS'w-2=york-based'
p253
I493
sS"w-2='s"
p254
I364
sS'w-2=firefighter'
p255
I424
sS'w-1=up'
p256
I356
sS'w+1=attempt'
p257
I145
sS'w-1=await'
p258
I303
sS'w+2=boatload'
p259
I218
sS'w+2=from'
p260
I237
sS'w+2=two'
p261
I278
sS'w-2=II'
p262
I377
sS'w+2=may'
p263
I251
sS'w+2=recovery'
p264
I259
sS'ccomp=idea'
p265
I26
sS'w-2=go'
p266
I428
sS'w+1=bank'
p267
I147
sS'w-2=skipper'
p268
I472
sS'w+2=near'
p269
I252
sS'w+1=Commander'
p270
I133
sS'w-2=variety'
p271
I487
sS'nsubjpass=skipper'
p272
I100
sS'nn=Stearns'
p273
I75
sS'w-2=child'
p274
I411
sS'w-2=search'
p275
I467
sS'w+1=passenger'
p276
I172
sS'dobj=eagle'
p277
I54
sS'w+1=period'
p278
I174
sS'w-2=agree'
p279
I395
sS'w-1=indonesian'
p280
I328
sS'w-1=IMF'
p281
I289
sS'w-2=with'
p282
I492
sS'advcl=start'
p283
I3
sS'aux=will'
p284
I22
sS'dobj=handful'
p285
I58
sS'dobj=piece'
p286
I63
sS'w+2=Sunday'
p287
I204
sS'w+1=unharmed'
p288
I186
sS'w+2=another'
p289
I211
sS'w-2=maneuver'
p290
I444
sS'w-2=negotiation'
p291
I449
sS'amod=york-based'
p292
I16
sS'w-2=fear'
p293
I422
sS'dobj=coast'
p294
I49
sS'w+2=people'
p295
I257
sS'nn=#PRP#'
p296
I72
sS'w-2=plan'
p297
I460
sS'conj=relief'
p298
I34
sS'w-2=if'
p299
I437
sS'nsubj=family'
p300
I84
sS'w-2=in'
p301
I438
sS'w+2=bather'
p302
I215
sS'w-2=president'
p303
I462
sS'w-2=vehicle'
p304
I488
sS'w+2=crisis-ridden'
p305
I224
sS'w-2=injure'
p306
I439
sS'w+2=relief'
p307
I261
sS'poss=Lurrie'
p308
I108
sS'w-1=after'
p309
I297
sS'w-2=Coast'
p310
I373
sS'w-2=underway'
p311
I486
sS'w-1=few'
p312
I318
sS'w+2=Tribal'
p313
I205
sS'nsubj=Lanka'
p314
I80
sS'w-2=700'
p315
I367
sS'w-1=forcible'
p316
I321
sS'w-2=who'
p317
I491
sS'w-2=shift'
p318
I471
sS'w+2=also'
p319
I209
sS'nsubjpass=who'
p320
I101
sS'dobj=orphan'
p321
I60
sS'cc=and'
p322
I24
sS'w+2=aboard'
p323
I208
sS'w+2=Idin'
p324
I199
sS'w+1=by'
p325
I149
sS'w+2=rush'
p326
I263
sS'w+1=be'
p327
I148
sS'nsubj=a'
p328
I82
sS'w+1=financial'
p329
I158
sS"w+2='s"
p330
I192
sS'dep=minor'
p331
I38
sS'w+2=remain'
p332
I262
sS'w+1=troubled'
p333
I185
sS'w+1=in'
p334
I165
sS'w-2=lucky'
p335
I442
sS'w+2=convention'
p336
I221
sS'nsubj=#PRP#'
p337
I78
sS'w-2=hostage'
p338
I435
sS'w+2=nil'
p339
I253
sS'w-2=Fatimata'
p340
I375
sS'w-2=away'
p341
I404
sS'poss=#PRP#'
p342
I107
sS'w-1=help'
p343
I326
sS'aux=could'
p344
I19
sS'prep=like'
p345
I117
sS'w-1=International'
p346
I290
sS'w-2=direct'
p347
I417
sS'w-1=army'
p348
I300
sS'w+2=corporation'
p349
I222
sS'w-2=Friday'
p350
I376
sS'w-2=these'
p351
I479
sS'advmod=again'
p352
I6
sS'poss=Pocahontas'
p353
I109
sS'w+2=located'
p354
I250
sS'w-1=Wildlife'
p355
I292
sS'dobj=passenger'
p356
I61
sS'prep=of'
p357
I118
sS'w-1=have'
p358
I325
sS'w-2=collapse'
p359
I412
sS'dobj=corporation'
p360
I51
sS'w+1=work'
p361
I189
sS'w+1=plan'
p362
I175
sS'w+1=Bear'
p363
I130
sS'w-2=part'
p364
I458
sS'w-2=gear'
p365
I426
sS'tmod=week'
p366
I126
sS'conj=take'
p367
I35
sS'amod=larger-than-expected'
p368
I15
sS'w+2=kidnap'
p369
I248
sS'w-2=wait'
p370
I489
sS'w-2=school'
p371
I465
sS'w+2=justified'
p372
I247
sS'w-1=to'
p373
I353
sS'dobj=system'
p374
I66
sS'w-1=hamper'
p375
I324
sS'w+2=that'
p376
I272
sS'w+2=North'
p377
I200
sS'amod=initial'
p378
I14
sS'w+2=girl'
p379
I238
sS'w+1=some'
p380
I179
sS'w-1=on'
p381
I338
sS'w-1=who'
p382
I358
sS'w-2=get'
p383
I427
sS'w-1=ship'
p384
I344
sS'w-1=or'
p385
I341
sS'w-1=spanish'
p386
I347
sS'w-2=and'
p387
I401
sS'w-1=of'
p388
I337
sS'w-2=to'
p389
I484
sS'w+2=and'
p390
I210
sS'tmod=#DATE#'
p391
I123
sS'w+1=chamber'
p392
I151
sS'w-2=gold'
p393
I429
sS'nsubjpass=hostage'
p394
I97
sS'w-2=try'
p395
I485
sS'w+1=first'
p396
I159
sS'w-1=wildlife'
p397
I359
sS'w-2=he'
p398
I432
sS'w-1=military'
p399
I336
sS'w-1=larger-than-expected'
p400
I333
sS'w-2=say'
p401
I464
sS'w+2=investment'
p402
I245
sS'w+1=Committee'
p403
I134
sS'dobj=economy'
p404
I55
sS'w+2=the'
p405
I273
sS'prep=at'
p406
I112
sS'prep=as'
p407
I111
sS'w-1=Cross'
p408
I287
sS'w-2=,'
p409
I365
sS'w-2=.'
p410
I366
sS'w-1=continue'
p411
I312
sS'dobj=convention'
p412
I50
sS'w-2=$'
p413
I362
sS"w-2='"
p414
I363
sS'aux=have'
p415
I20
sS'w+2=relate'
p416
I260
sS'w-2=thing'
p417
I481
sS'w-1=.'
p418
I283
sS'w-2=morning'
p419
I447
sS'w-1=,'
p420
I282
sS'w+2=flee'
p421
I235
sS'dobj=wife'
p422
I68
sS'w+2=Stears'
p423
I203
sS'w+1=chinese'
p424
I153
sS'w-2=Donetsk'
p425
I374
sS'nn=government'
p426
I76
sS'conj=help'
p427
I31
sS'w-2=out'
p428
I456
sS'w-2=Schwarz'
p429
I384
sS'w-2=a'
p430
I390
sS'w-1=they'
p431
I352
sS'det=a'
p432
I40
sS'w-1=a'
p433
I295
sS'w-1=`'
p434
I294
sS'w-2=massive'
p435
I445
sS'w-2=endless'
p436
I420
sS'w-2=make'
p437
I443
sS'ccomp=reply'
p438
I27
sS'w-2=survivor'
p439
I476
sS'w-2=770-billion'
p440
I368
sS'advcl=seek'
p441
I2
sS'w-2=member'
p442
I446
sS'w+1=from'
p443
I161
sS'w+2=jail'
p444
I246
sS'w+1=again'
p445
I141
sS'w-2=Beah'
p446
I371
sS'w+2=they'
p447
I274
sS'w+1=orphan'
p448
I170
sS'w-1=coordinate'
p449
I313
sS'w+1=center'
p450
I150
sS'w-2=Bear'
p451
I372
sS'w+1=a'
p452
I139
sS'w+2=have'
p453
I240
sS'w-2=during'
p454
I418
sS'dobj=girl'
p455
I57
sS'tmod=U.S.'
p456
I124
sS'cc=well'
p457
I25
sS'w-2=likely'
p458
I440
sS'mark=since'
p459
I71
sS'advmod=afterwards'
p460
I5
sS'w+2=U.S.'
p461
I206
sS'nsubj=Guard'
p462
I79
sS'partmod=force'
p463
I104
sS'prep=from'
p464
I115
sS'w-2=help'
p465
I434
sS'w+1=after'
p466
I140
sS'w+1=when'
p467
I188
sS'prt=off'
p468
I120
sS'dep=Committee'
p469
I37
sS'conj=operation'
p470
I32
sS'w-2=storm'
p471
I475
sS'w-1=we'
p472
I357
sS'aux=to'
p473
I21
sS'w-1=bank-orchestrated'
p474
I304
sS'w+2=somali'
p475
I268
sS'w-1=for'
p476
I320
sS'w+1=,'
p477
I128
sS'w+1=.'
p478
I129
sS'amod=bank-orchestrated'
p479
I11
sS'w+1=girl'
p480
I162
sS'w+2=.'
p481
I196
sS'w+2=,'
p482
I193
sS'w+2=-'
p483
I194
sS'w-2=helicopter'
p484
I433
sS"w+2='"
p485
I191
sS'w-2=norwegian'
p486
I451
sS'w-1=international'
p487
I330
sS'w-2=could'
p488
I414
sS'w-2=score'
p489
I466
sS'w+1=bald'
p490
I146
sS'w-1=provide'
p491
I342
sS'w+1=vehicle'
p492
I187
sS'dobj=child'
p493
I48
sS'w-2=Monday'
p494
I381
sS'w+1=early'
p495
I155
sS'w-1=brazilian'
p496
I308
sS'w+2=Republican'
p497
I201
sS'w-1=at'
p498
I302
sS'w-1=as'
p499
I301
sS'w-1=that'
p500
I350
sS'nsubjpass=all'
p501
I94
sS'w+2=a'
p502
I207
ssS'dtype'
p503
cnumpy
float64
p504
sS'feature_names_'
p505
(lp506
g154
ag83
ag441
ag283
ag218
ag460
ag352
ag196
ag251
ag94
ag37
ag479
ag41
ag227
ag378
ag368
ag292
ag202
ag78
ag344
ag415
ag473
ag284
ag205
ag322
ag457
ag265
ag438
ag79
ag122
ag245
ag427
ag470
ag177
ag298
ag367
ag101
ag469
ag331
ag211
ag432
ag150
ag168
ag246
ag148
ag26
ag61
ag188
ag493
ag294
ag412
ag360
ag152
ag136
ag277
ag404
ag25
ag455
ag285
ag31
ag321
ag356
ag153
ag286
ag219
ag17
ag374
ag112
ag422
ag106
ag138
ag459
ag296
ag225
ag194
ag273
ag426
ag235
ag337
ag462
ag314
ag145
ag328
ag159
ag300
ag27
ag229
ag43
ag110
ag157
ag151
ag19
ag228
ag70
ag501
ag163
ag244
ag394
ag242
ag11
ag272
ag320
ag239
ag127
ag463
ag134
ag133
ag342
ag308
ag353
ag209
ag407
ag406
ag23
ag119
ag464
ag102
ag345
ag357
ag226
ag468
ag155
ag142
ag391
ag456
ag54
ag366
ag65
ag477
ag478
ag363
ag230
ag212
ag270
ag403
ag22
ag232
ag210
ag250
ag452
ag466
ag445
ag114
ag174
ag176
ag257
ag490
ag267
ag327
ag325
ag450
ag392
ag117
ag424
ag169
ag495
ag217
ag58
ag329
ag396
ag103
ag443
ag480
ag178
ag13
ag334
ag172
ag57
ag144
ag222
ag448
ag143
ag276
ag80
ag278
ag362
ag47
ag75
ag111
ag380
ag164
ag91
ag36
ag97
ag241
ag333
ag288
ag492
ag467
ag361
ag24
ag485
ag330
ag482
ag483
ag71
ag481
ag249
ag16
ag324
ag377
ag497
ag185
ag423
ag287
ag313
ag461
ag502
ag323
ag319
ag390
ag289
ag64
ag33
ag200
ag302
ag95
ag199
ag259
ag90
ag30
ag336
ag349
ag56
ag305
ag170
ag192
ag12
ag46
ag213
ag89
ag68
ag115
ag39
ag181
ag421
ag121
ag260
ag379
ag98
ag453
ag247
ag69
ag72
ag147
ag402
ag444
ag372
ag369
ag175
ag354
ag263
ag269
ag339
ag141
ag240
ag237
ag295
ag32
ag264
ag416
ag307
ag332
ag326
ag216
ag156
ag191
ag132
ag475
ag100
ag92
ag51
ag376
ag405
ag447
ag130
ag52
ag59
ag261
ag74
ag84
ag207
ag420
ag418
ag93
ag86
ag149
ag408
ag67
ag281
ag346
ag236
ag355
ag208
ag434
ag433
ag203
ag309
ag243
ag248
ag348
ag499
ag498
ag258
ag474
ag44
ag183
ag233
ag496
ag161
ag42
ag182
ag411
ag449
ag195
ag220
ag18
ag120
ag312
ag129
ag476
ag316
ag109
ag85
ag375
ag358
ag343
ag35
ag280
ag221
ag487
ag204
ag63
ag400
ag21
ag105
ag399
ag388
ag381
ag206
ag88
ag385
ag491
ag29
ag384
ag62
ag82
ag386
ag116
ag126
ag500
ag135
ag431
ag373
ag137
ag131
ag256
ag472
ag382
ag397
ag40
ag189
ag413
ag414
ag254
ag409
ag410
ag315
ag440
ag165
ag49
ag446
ag451
ag310
ag425
ag340
ag350
ag262
ag81
ag104
ag197
ag494
ag77
ag66
ag429
ag108
ag198
ag173
ag34
ag201
ag430
ag186
ag238
ag180
ag167
ag279
ag190
ag234
ag215
ag73
ag45
ag387
ag179
ag252
ag341
ag214
ag53
ag9
ag139
ag223
ag187
ag274
ag359
ag171
ag488
ag113
ag96
ag347
ag454
ag87
ag436
ag48
ag293
ag140
ag255
ag38
ag365
ag383
ag266
ag393
ag128
ag160
ag398
ag484
ag465
ag338
ag146
ag299
ag301
ag306
ag458
ag8
ag335
ag437
ag290
ag435
ag442
ag419
ag118
ag291
ag60
ag486
ag28
ag158
ag162
ag124
ag428
ag184
ag364
ag10
ag297
ag76
ag303
ag55
ag401
ag371
ag489
ag275
ag166
ag123
ag193
ag318
ag268
ag231
ag99
ag471
ag439
ag107
ag50
ag351
ag20
ag417
ag14
ag224
ag389
ag395
ag311
ag271
ag304
ag370
ag15
ag317
ag282
ag253
ag125
asS'separator'
p507
S'='
sS'sparse'
p508
I01
sb.