ccopy_reg
_reconstructor
p1
(csklearn.feature_extraction.dict_vectorizer
DictVectorizer
p2
c__builtin__
object
p3
NtRp4
(dp5
S'sort'
p6
I01
sS'feature_names_'
p7
(lp8
S'advmod=properly'
p9
aS'aux=be'
p10
aS'aux=can'
p11
aS'aux=to'
p12
aS'cc=and'
p13
aS'conj=look'
p14
aS'conj=play'
p15
aS'dep=up'
p16
aS'det=the'
p17
aS'dobj=internet'
p18
aS'dobj=web'
p19
aS'mark=because'
p20
aS'nn=ocean'
p21
aS'nn=people'
p22
aS'nsubj=#PRP#'
p23
aS'nsubj=which'
p24
aS'partmod=hit'
p25
aS"possessive='s"
p26
aS'prep=on'
p27
aS"w+1='s"
p28
aS'w+1=and'
p29
aS'w+1=at'
p30
aS'w+1=hit'
p31
aS'w+1=on'
p32
aS'w+1=the'
p33
aS'w+2=World'
p34
aS'w+2=internet'
p35
aS'w+2=land'
p36
aS'w+2=play'
p37
aS'w+2=the'
p38
aS'w+2=this'
p39
aS'w+2=up'
p40
aS'w+2=web'
p41
aS'w-1=,'
p42
aS'w-1=.'
p43
aS'w-1=be'
p44
aS'w-1=can'
p45
aS'w-1=ocean'
p46
aS'w-1=people'
p47
aS'w-1=resist'
p48
aS'w-1=the'
p49
aS'w-1=to'
p50
aS'w-2=Brannon'
p51
aS'w-2=able'
p52
aS'w-2=capture'
p53
aS'w-2=character'
p54
aS'w-2=computer'
p55
aS'w-2=not'
p56
aS'w-2=of'
p57
aS'w-2=the'
p58
aS'w-2=they'
p59
aS'w-2=try'
p60
aS'w-2=which'
p61
asS'dtype'
p62
cnumpy
float64
p63
sS'vocabulary_'
p64
(dp65
g24
I15
sg25
I16
sg53
I44
sg12
I3
sg22
I13
sg19
I10
sg34
I25
sg54
I45
sg38
I29
sg30
I21
sg29
I20
sg61
I52
sg11
I2
sg15
I6
sg20
I11
sg17
I8
sg41
I32
sg44
I35
sg31
I22
sg18
I9
sg43
I34
sg42
I33
sg56
I47
sg45
I36
sg13
I4
sg35
I26
sg26
I17
sg21
I12
sg40
I31
sg33
I24
sg52
I43
sg39
I30
sg57
I48
sg51
I42
sg46
I37
sg50
I41
sg28
I19
sg59
I50
sg47
I38
sg32
I23
sg14
I5
sg49
I40
sg48
I39
sg27
I18
sg55
I46
sg60
I51
sg10
I1
sg16
I7
sg9
I0
sg37
I28
sg23
I14
sg58
I49
sg36
I27
ssS'separator'
p66
S'='
sS'sparse'
p67
I01
sb.