ccopy_reg
_reconstructor
p1
(csklearn.feature_extraction.dict_vectorizer
DictVectorizer
p2
c__builtin__
object
p3
NtRp4
(dp5
S'vocabulary_'
p6
(dp7
S'advmod=then'
p8
I24
sS'dobj=helmet'
p9
I128
sS'w-2=Taliban'
p10
I615
sS'amod=mechanical'
p11
I30
sS'w+2=superhero'
p12
I458
sS'w-2=BBC'
p13
I597
sS'w-1=she'
p14
I565
sS'ccomp=call'
p15
I45
sS'dobj=outfit'
p16
I141
sS'w-1=war'
p17
I577
sS'w+1=dirty'
p18
I275
sS'w+2=headscarve'
p19
I413
sS'dobj=percent'
p20
I144
sS'w+1=mustach'
p21
I304
sS'w+2=lifesaver'
p22
I424
sS'w+2=protest'
p23
I444
sS'advmod=well'
p24
I26
sS'iobj=uniform'
p25
I180
sS'w-2=can'
p26
I638
sS'w+1=around'
p27
I265
sS'advmod=proudly'
p28
I21
sS'w-2=then'
p29
I718
sS'conj=demand'
p30
I62
sS'dobj=cardigan'
p31
I104
sS'w-1=diner'
p32
I521
sS'w-2=they'
p33
I719
sS'prep=by'
p34
I239
sS'nsubj=many'
p35
I210
sS'w-1=,'
p36
I490
sS'w+1=Prada'
p37
I260
sS'w-1=Kong'
p38
I500
sS'nsubj=wife'
p39
I227
sS'w-2=some'
p40
I706
sS'dobj=sticker'
p41
I154
sS'advmod=occasionally'
p42
I18
sS'w-1=would'
p43
I587
sS'w-2=able'
p44
I618
sS'w-1=say'
p45
I561
sS'w-1=can'
p46
I517
sS'w-1=worker'
p47
I586
sS'w+2=cardigan'
p48
I385
sS'w-1=frontline'
p49
I530
sS'w-2=volunteer'
p50
I728
sS'w-2=on'
p51
I681
sS'w+2=beautiful'
p52
I372
sS'w+1=these'
p53
I330
sS'w+1=only'
p54
I312
sS'nsubj=Pope'
p55
I196
sS'w+1=mask'
p56
I302
sS'nsubj=Liberty'
p57
I193
sS'w+2=Inauguration'
p58
I357
sS'dobj=overcoat'
p59
I142
sS'w+2=familiar'
p60
I401
sS'w-1=will'
p61
I582
sS'dep=each'
p62
I80
sS'w-2=outside'
p63
I685
sS'nsubj=rule'
p64
I220
sS'w+2=loincloth'
p65
I425
sS'w-1=Obama'
p66
I503
sS'w-1=by'
p67
I516
sS'w-1=be'
p68
I513
sS'w-1=Parazynski'
p69
I504
sS'w-1=never'
p70
I546
sS'w-2=at'
p71
I628
sS'w-2=queen'
p72
I694
sS'w-2=the'
p73
I717
sS'w+2=team'
p74
I463
sS'w+2=teal'
p75
I462
sS'nsubj=weariness'
p76
I225
sS'advcl=leave'
p77
I6
sS'w-2=time'
p78
I721
sS'w-2=novelty'
p79
I679
sS'w-2=beard'
p80
I633
sS'mark=because'
p81
I182
sS'w+2=tear'
p82
I464
sS'w-2=helmet'
p83
I668
sS'w-2=First'
p84
I601
sS'w+1=on'
p85
I310
sS'w-2=many'
p86
I673
sS'w-2=purchase'
p87
I693
sS'w+2=school'
p88
I450
sS'w+1=or'
p89
I313
sS'w-1=some'
p90
I568
sS'w-2=continue'
p91
I644
sS'w-1=have'
p92
I532
sS'ccomp=say'
p93
I52
sS'w+2=cape'
p94
I384
sS'w+2=-lrb-'
p95
I348
sS'w-2=outfit'
p96
I684
sS'dobj=turban'
p97
I164
sS'iobj=Burka'
p98
I175
sS'w-1=also'
p99
I507
sS'aux=can'
p100
I32
sS'complm=that'
p101
I56
sS'prep=around'
p102
I235
sS'w+2=19th'
p103
I352
sS'w+2=orange'
p104
I439
sS'dobj=jumpsuit'
p105
I134
sS'nsubj=night'
p106
I211
sS'w-1=I'
p107
I498
sS'dobj=dress'
p108
I115
sS'w-1=you'
p109
I588
sS'w-2=to'
p110
I723
sS'w+2=until'
p111
I482
sS'w+1=netting'
p112
I306
sS'w+1=government'
p113
I284
sS'conj=avoid'
p114
I58
sS'ccomp=shave'
p115
I54
sS'w+1=jeans'
p116
I295
sS'w+2=whistle'
p117
I486
sS'w+2=by'
p118
I382
sS'w-2=birthday'
p119
I636
sS'w+1=the'
p120
I329
sS'w+2=long'
p121
I426
sS'advmod=only'
p122
I20
sS'w+2=be'
p123
I371
sS'w+1=they'
p124
I331
sS'w-2=group'
p125
I662
sS'w+1=button'
p126
I270
sS'advmod=quickly'
p127
I22
sS'w-2=would'
p128
I737
sS'advmod=too'
p129
I25
sS'prep=in'
p130
I242
sS'w+1=distinctive'
p131
I276
sS'aux=would'
p132
I38
sS'w-2=Hong'
p133
I602
sS'w+1=for'
p134
I281
sS'w+2=university'
p135
I481
sS'w-1=see'
p136
I564
sS'w-1=only'
p137
I555
sS'dobj=thing'
p138
I161
sS'dobj=hackle'
p139
I121
sS'w-2=that'
p140
I716
sS'nsubj=volunteer'
p141
I224
sS'prep=to'
p142
I246
sS'w+1=green'
p143
I285
sS'w-2=dress'
p144
I649
sS'w-2=applause'
p145
I624
sS'w-2=suicide'
p146
I713
sS'w-1=Police'
p147
I505
sS'w-2=title'
p148
I722
sS'w+1=and'
p149
I264
sS'w-2=sign'
p150
I705
sS'w-2=athlete'
p151
I629
sS'dep=sport'
p152
I87
sS'w+1=seatbelt'
p153
I321
sS'w+2=Burka'
p154
I356
sS'w+2=how'
p155
I417
sS'w-1=still'
p156
I571
sS'w-2=patience'
p157
I686
sS'advcl=venture'
p158
I9
sS'w+2=picture'
p159
I441
sS'w-2=Big'
p160
I598
sS'w+2=for'
p161
I406
sS'xcomp=attract'
p162
I739
sS'nsubj=that'
p163
I223
sS'w-1=tire'
p164
I575
sS'w-2=carpet'
p165
I639
sS'w-2=ban'
p166
I631
sS'w-1=Gadhafi'
p167
I497
sS'nsubj=supporter'
p168
I222
sS'w+1=helmet'
p169
I290
sS'w-2=prison'
p170
I689
sS'w-1=night'
p171
I547
sS'w-1=individual'
p172
I535
sS'xcomp=say'
p173
I744
sS'conj=prolong'
p174
I71
sS'w-2=several'
p175
I702
sS'nsubj=group'
p176
I207
sS'advcl=gasp'
p177
I4
sS'dobj=charm'
p178
I106
sS'xcomp=picture'
p179
I741
sS'w-1=apparently'
p180
I510
sS'dobj=reminder'
p181
I146
sS'w+1=costume'
p182
I273
sS'w+2=army'
p183
I365
sS'ccomp=fun'
p184
I49
sS'w-2=chant'
p185
I640
sS'w-2=need'
p186
I677
sS'mark=if'
p187
I183
sS'w+1=clothes'
p188
I272
sS'w-2=find'
p189
I655
sS'dobj=t-shirt'
p190
I158
sS'w+2=bomb'
p191
I378
sS'w+2=attract'
p192
I368
sS'advcl=be'
p193
I3
sS'w-1=formal'
p194
I528
sS'advmod=where'
p195
I28
sS'iobj=#PRP#'
p196
I174
sS'w+1=islamic'
p197
I293
sS'w-2=Singh'
p198
I614
sS'w+1=off'
p199
I308
sS'dobj=jeans'
p200
I132
sS'w+2=when'
p201
I485
sS'w-2=10'
p202
I595
sS'w-1=many'
p203
I541
sS'dep=say'
p204
I86
sS'conj=wave'
p205
I78
sS'w+2=electrode'
p206
I396
sS'w+2=blazer'
p207
I376
sS'w+2=national'
p208
I431
sS'nsubj=youth'
p209
I229
sS'w-1=wife'
p210
I581
sS'advcl=try'
p211
I8
sS'w+2=formal'
p212
I407
sS'w+2=green'
p213
I408
sS'dobj=support'
p214
I156
sS'w+2=religious'
p215
I446
sS'nsubj=who'
p216
I226
sS'dobj=tag'
p217
I159
sS'w+2=islamic'
p218
I419
sS'w-2=of'
p219
I680
sS'w-2=have'
p220
I664
sS'nsubj=diner'
p221
I202
sS'w-1=to'
p222
I576
sS'w-2=Serter'
p223
I612
sS'w+1=team'
p224
I327
sS'w-1=first'
p225
I526
sS'w-1=supporter'
p226
I572
sS'dobj=gear'
p227
I120
sS'dobj=#PRP#'
p228
I91
sS'w-2=do'
p229
I648
sS'nsubj=pledge'
p230
I215
sS'w-2=habit'
p231
I663
sS'w-2=Mr.'
p232
I608
sS'w-2=clothes'
p233
I641
sS'w-2=refuse'
p234
I697
sS'w+2=there'
p235
I469
sS'w+1=you'
p236
I344
sS'w-1=pilgrim'
p237
I556
sS'w-2=colonel'
p238
I643
sS'w+2=blue'
p239
I377
sS'w+1=kenyan-made'
p240
I297
sS'dobj=this'
p241
I162
sS'nsubj=Gadhafi'
p242
I191
sS'w+1=black'
p243
I267
sS'w-2=take'
p244
I714
sS'w-1=from'
p245
I529
sS'prep=over'
p246
I245
sS'w-1=always'
p247
I508
sS'dobj=scarf'
p248
I149
sS'w+2=actually'
p249
I360
sS'w+2=polish'
p250
I442
sS'w+2=charm'
p251
I386
sS'w+2=against'
p252
I361
sS'w+1=he'
p253
I286
sS'w-2=song'
p254
I708
sS'w+2=armband'
p255
I364
sS'w-2=Day'
p256
I600
sS'dep=look'
p257
I84
sS'prt=out'
p258
I252
sS'w+1=shirt'
p259
I322
sS'w+1=red'
p260
I318
sS'dobj=loincloth'
p261
I135
sS'w-1=speak'
p262
I569
sS'w+1=make-up'
p263
I300
sS'w+2=tag'
p264
I461
sS'w+2=burqa'
p265
I381
sS'dobj=shirt'
p266
I151
sS'nsubj=Parazynski'
p267
I195
sS'ccomp=be'
p268
I43
sS'det=some'
p269
I89
sS'w-1=with'
p270
I583
sS'w+2=because'
p271
I373
sS'dep=flow'
p272
I81
sS'advmod=when'
p273
I27
sS'nsubj=character'
p274
I201
sS'w+2=dark'
p275
I392
sS'w+2=white'
p276
I487
sS'w-1=Liberty'
p277
I502
sS'w-1=character'
p278
I518
sS'dobj=niqab'
p279
I140
sS'w-2=she'
p280
I703
sS'prep=for'
p281
I241
sS'w+2=footwear'
p282
I405
sS'dobj=belt'
p283
I97
sS'advcl=address'
p284
I2
sS'w+1=we'
p285
I340
sS'w+2=uniform'
p286
I480
sS'w+1=pretty'
p287
I316
sS'w-2=start'
p288
I709
sS'w+2=yellow'
p289
I489
sS'dobj=heel'
p290
I127
sS'w+2=at'
p291
I367
sS'w+1=bright'
p292
I269
sS'parataxis=say'
p293
I230
sS'ccomp=earn'
p294
I46
sS'nsubj=pilgrim'
p295
I214
sS'w-2=require'
p296
I698
sS'w+2=helmet'
p297
I415
sS'w-1=one'
p298
I554
sS'w+1=head'
p299
I287
sS'w-1=each'
p300
I522
sS'w-2=anchorwoman'
p301
I621
sS'ccomp=bravest'
p302
I44
sS'advmod=always'
p303
I11
sS'ccomp=base'
p304
I42
sS'w-2=last'
p305
I670
sS'w+2=seat'
p306
I451
sS'w-2=approach'
p307
I625
sS'w+2=respirator'
p308
I447
sS'w+1=blue'
p309
I268
sS'w+2=condom'
p310
I390
sS'advmod=still'
p311
I23
sS'w+2=sari'
p312
I448
sS'w-2=muslim'
p313
I676
sS'w+2=expensive'
p314
I397
sS'dobj=mustach'
p315
I138
sS'ccomp=send'
p316
I53
sS'w+2=,'
p317
I347
sS'nsubj=#NUMBER#'
p318
I187
sS'dobj=fatigue'
p319
I118
sS'w+2=she'
p320
I452
sS'w+2=clothing'
p321
I388
sS'conj=be'
p322
I59
sS'w+2=shoe'
p323
I454
sS'w-2=refusal'
p324
I696
sS'w+2=face-guard'
p325
I400
sS'w+2=arm'
p326
I363
sS'w+2=color'
p327
I389
sS'w+2=with'
p328
I488
sS'nsubj=piece'
p329
I213
sS'dobj=what'
p330
I170
sS'w-1=marcher'
p331
I542
sS'w+2=u.s.-style'
p332
I479
sS'w-2=those'
p333
I720
sS'dobj=mask'
p334
I137
sS'w+1=less'
p335
I298
sS'dobj=robe'
p336
I147
sS'w-2=flaming'
p337
I658
sS'w+1=all-covering'
p338
I263
sS'dobj=boot'
p339
I99
sS'w-2=worker'
p340
I736
sS'w-2=attacker'
p341
I630
sS'w+2=or'
p342
I438
sS"w-2=''"
p343
I589
sS'w-2=Wednesday'
p344
I616
sS'w-2=crowd'
p345
I646
sS'ccomp=risk'
p346
I51
sS'conj=support'
p347
I75
sS'w-1=Brown'
p348
I494
sS'w+2=on'
p349
I437
sS'w+1=to'
p350
I335
sS'dobj=condemnation'
p351
I112
sS'amod=formal'
p352
I29
sS'nsubj=Lady'
p353
I192
sS'w+2=Ramadan'
p354
I358
sS'w+2=he'
p355
I410
sS'w+1=fashionable'
p356
I279
sS'dobj=burqa'
p357
I100
sS'w-1=Pope'
p358
I506
sS'w+2=sticker'
p359
I456
sS'w+2=head'
p360
I411
sS'conj=have'
p361
I66
sS'w-1=Chicago'
p362
I495
sS'conj=carry'
p363
I61
sS'cc=or'
p364
I41
sS'w+2=design'
p365
I393
sS'advmod=first'
p366
I15
sS'conj=look'
p367
I67
sS'w+2=cowboy'
p368
I391
sS"w-2='s"
p369
I590
sS'w-1=bomber'
p370
I514
sS'iobj=bowler'
p371
I176
sS'dobj=bandana'
p372
I96
sS'conj=not'
p373
I69
sS'w+2=two'
p374
I478
sS'w-2=one'
p375
I682
sS'ccomp=forbid'
p376
I48
sS'w-2=resident'
p377
I699
sS'advmod=often'
p378
I19
sS'dobj=skirt'
p379
I153
sS'w+1=white'
p380
I342
sS'w-2=go'
p381
I661
sS'w-2=outcry'
p382
I683
sS'w+1=yellow'
p383
I343
sS'w+1=long'
p384
I299
sS'w+2=bright'
p385
I379
sS'w+2=95'
p386
I353
sS'dobj=arm'
p387
I93
sS'w+2=camera'
p388
I383
sS'dobj=patch'
p389
I143
sS'w+1=female'
p390
I280
sS'w+2=thin'
p391
I471
sS'nsubj=insurgent'
p392
I208
sS'dobj=tie'
p393
I163
sS'conj=explain'
p394
I64
sS'w-2=Iraq'
p395
I604
sS'dobj=coat'
p396
I110
sS'advmod=even'
p397
I14
sS'w-2=because'
p398
I634
sS'acomp=thin'
p399
I0
sS'nsubj=some'
p400
I221
sS'dobj=badge'
p401
I94
sS'w-1=proudly'
p402
I559
sS'prep=while'
p403
I248
sS'w+2=traditional'
p404
I477
sS'w+1=stiletto'
p405
I325
sS'aux=do'
p406
I34
sS'xcomp=protect'
p407
I743
sS'w-2=problem'
p408
I691
sS'dobj=footwear'
p409
I119
sS'w-2=vietnamese'
p410
I727
sS'w-2=also'
p411
I620
sS'aux=will'
p412
I37
sS'w-2=Darfur'
p413
I599
sS'w+1=uniform'
p414
I338
sS'w+2=new'
p415
I433
sS'dobj=cap'
p416
I102
sS'dobj=hair'
p417
I122
sS'dobj=piece'
p418
I145
sS'w+2=U.S.'
p419
I359
sS'prep=with'
p420
I249
sS'dobj=veil'
p421
I166
sS'w+2=military'
p422
I429
sS'dobj=color'
p423
I111
sS'w-2=Acehnese'
p424
I596
sS'dobj=cape'
p425
I103
sS'w+2=t-shirt'
p426
I460
sS'w-2=if'
p427
I669
sS'w+2=suicide'
p428
I457
sS'w+2=red'
p429
I445
sS'w-2=--'
p430
I592
sS'dobj=hijab'
p431
I129
sS'w+2=heel'
p432
I414
sS'w+2=top'
p433
I475
sS'w+2=too'
p434
I474
sS'w-2=talibe'
p435
I715
sS'w-2=National'
p436
I610
sS'w-2=victim'
p437
I726
sS'conj=put'
p438
I73
sS'w+2=clothes'
p439
I387
sS'w-1=woman'
p440
I585
sS'w+1=Obama'
p441
I259
sS'w+2=tie'
p442
I473
sS'prep=because'
p443
I238
sS'dobj=headscarf'
p444
I124
sS'w+2=down'
p445
I394
sS'nsubj=Obama'
p446
I194
sS'advmod=down'
p447
I13
sS'w+1=America'
p448
I257
sS'w+1=one'
p449
I311
sS'w+1=orange'
p450
I314
sS'w+2=than'
p451
I465
sS'nsubj=patience'
p452
I212
sS'w+1=civilian'
p453
I271
sS'prep=accord'
p454
I233
sS'xcomp=mark'
p455
I740
sS"w+2=''"
p456
I345
sS'w+2=flow'
p457
I404
sS'w+2=jumpsuit'
p458
I422
sS'advmod=also'
p459
I10
sS'dobj=jewelry'
p460
I133
sS'iobj=scarf'
p461
I179
sS'dobj=condom'
p462
I113
sS'dobj=clothes'
p463
I108
sS'w-2=Musharraf'
p464
I609
sS'w-2=woman'
p465
I735
sS'dobj=clothing'
p466
I109
sS'w+1=scalp'
p467
I320
sS'w+1=man'
p468
I301
sS'w+2=bandana'
p469
I370
sS'iobj=green'
p470
I177
sS'w-2=who'
p471
I732
sS'w+2=veil'
p472
I483
sS'w+2=trademark'
p473
I476
sS'cc=and'
p474
I39
sS'dobj=necklace'
p475
I139
sS'prep=under'
p476
I247
sS'w+2=explosives-filled'
p477
I399
sS'w-2=ask'
p478
I627
sS'w+1=be'
p479
I266
sS'w+2=badge'
p480
I369
sS'w-2=what'
p481
I730
sS"w+2='s"
p482
I346
sS'w-2=when'
p483
I731
sS'iobj=outfit'
p484
I178
sS'dobj=shoe'
p485
I152
sS'w-2=student'
p486
I711
sS'dep=get'
p487
I82
sS'conj=say'
p488
I74
sS'nsubj=pressure'
p489
I216
sS'w+1=in'
p490
I291
sS'w+2=support'
p491
I459
sS'w+1=it'
p492
I294
sS'dobj=headscarve'
p493
I125
sS'nsubj=#PRP#'
p494
I188
sS'w-2=Lady'
p495
I606
sS'ccomp=fit-tested'
p496
I47
sS'w-2=refurbish'
p497
I695
sS'dobj=chance'
p498
I105
sS'cc=but'
p499
I40
sS'w-2=prisoner'
p500
I690
sS'w+1=such'
p501
I326
sS'w-1=school'
p502
I563
sS'poss=#PRP#'
p503
I232
sS'w-1=soldier'
p504
I567
sS'dobj=#NUMBER#'
p505
I90
sS'w-2=Oldershaw'
p506
I611
sS'w+2=mask'
p507
I428
sS'aux=could'
p508
I33
sS'w-1=least'
p509
I539
sS'w-2=could'
p510
I645
sS'dep=much'
p511
I85
sS'w+1=-rrb-'
p512
I255
sS'w-2=show'
p513
I704
sS'dep=trademark'
p514
I88
sS'w+2=niqab'
p515
I434
sS'w-1=without'
p516
I584
sS'w-2=begin'
p517
I635
sS'aux=must'
p518
I35
sS'conj=get'
p519
I65
sS'w-2=like'
p520
I671
sS'w+2=;'
p521
I354
sS'w-2=activist'
p522
I619
sS'dobj=wait'
p523
I169
sS'dobj=uniform'
p524
I165
sS'dobj=sweatshirt'
p525
I157
sS'w-1=Lady'
p526
I501
sS'w-1=lawyer'
p527
I538
sS'w-1=into'
p528
I536
sS'w-2=Silva'
p529
I613
sS'w+1=heavy'
p530
I289
sS'w-2=be'
p531
I632
sS'prep=of'
p532
I243
sS'w+2=headscarf'
p533
I412
sS'dobj=inmate'
p534
I130
sS'prep=on'
p535
I244
sS'dobj=costume'
p536
I114
sS'w+1=veil'
p537
I339
sS'xcomp=prevent'
p538
I742
sS'nsubj=man'
p539
I209
sS'nsubj=resident'
p540
I219
sS'w-2=street'
p541
I710
sS'w-2=by'
p542
I637
sS'w-2=something'
p543
I707
sS'conj=take'
p544
I77
sS'ccomp=mount'
p545
I50
sS'nsubj=Brown'
p546
I189
sS'dobj=heavy'
p547
I126
sS'advmod=apparently'
p548
I12
sS'w-2=first'
p549
I656
sS'w+1=.'
p550
I256
sS'nsubj=quarter'
p551
I218
sS'w-1=arrive'
p552
I511
sS'w+2=of'
p553
I436
sS'w-2=hayrunnisa'
p554
I665
sS'w-2=failure'
p555
I651
sS'w+1=special'
p556
I323
sS'nsubj=woman'
p557
I228
sS'w-1=Devil'
p558
I496
sS'w+1=tee-shirt'
p559
I328
sS'w+2=that'
p560
I466
sS'w+1=rosette'
p561
I319
sS'nsubj=athlete'
p562
I199
sS'w-1=on'
p563
I553
sS'w-1=who'
p564
I579
sS'w-2=want'
p565
I729
sS'w+2=intimidating'
p566
I418
sS'w-2=whose'
p567
I733
sS'conj=push'
p568
I72
sS'w+2=hijab'
p569
I416
sS'w-2=-lrb-'
p570
I593
sS'parataxis=true'
p571
I231
sS'w-1=of'
p572
I551
sS'w-2=rider'
p573
I700
sS'w+2=out'
p574
I440
sS'dobj=cigarette'
p575
I107
sS'w-2=pledge'
p576
I687
sS'w+2=and'
p577
I362
sS'w-2=and'
p578
I622
sS'w+1=thin'
p579
I332
sS'w-1=start'
p580
I570
sS'w-1=Johnston'
p581
I499
sS'w+2=necklace'
p582
I432
sS'dobj=whistle'
p583
I171
sS'conj=drive'
p584
I63
sS'w+1=this'
p585
I333
sS'w+2=no'
p586
I435
sS'tmod=time'
p587
I253
sS'w-2=province'
p588
I692
sS'w-2=he'
p589
I666
sS'conj=apply'
p590
I57
sS'conj=match'
p591
I68
sS'w-1=so'
p592
I566
sS'advcl=like'
p593
I7
sS'w+2=lab'
p594
I423
sS'advmod=now'
p595
I17
sS'w-2=another'
p596
I623
sS'w-2=I'
p597
I603
sS'w-2=say'
p598
I701
sS'w+2=thing'
p599
I472
sS'w+2=100'
p600
I351
sS'prep=at'
p601
I237
sS'w-2=will'
p602
I734
sS'w-1=scarf'
p603
I562
sS'advcl=#DATE#'
p604
I1
sS'w+2=scarf'
p605
I449
sS'w+1=traditional'
p606
I336
sS'w-2=.'
p607
I594
sS'w-1=and'
p608
I509
sS'w+1=what'
p609
I341
sS'w+2=make'
p610
I427
sS'w-1=occasionally'
p611
I550
sS'w-2=girl'
p612
I660
sS'dobj=band'
p613
I95
sS'w-1=.'
p614
I492
sS'w-2=morning'
p615
I675
sS'w+2=dress'
p616
I395
sS'w+2=10'
p617
I350
sS'w-2=not'
p618
I678
sS'dobj=face-guard'
p619
I117
sS'nsubj=Devil'
p620
I190
sS'w+1=out'
p621
I315
sS'w+2=vest'
p622
I484
sS'w-2=few'
p623
I654
sS'w+1=military'
p624
I303
sS'w-2=Michelle'
p625
I607
sS'conj=sweep'
p626
I76
sS'w-2=man'
p627
I672
sS'dobj=white'
p628
I172
sS'dobj=Prada'
p629
I92
sS'w+2=fatigue'
p630
I402
sS'w-1=Assembly'
p631
I493
sS'w+1=full'
p632
I282
sS'w+1=turban'
p633
I337
sS'w+1=during'
p634
I278
sS'dobj=rosette'
p635
I148
sS'dobj=hat'
p636
I123
sS'w-1=resume'
p637
I560
sS'dobj=suit'
p638
I155
sS'w-2=Khan'
p639
I605
sS'w+1=down'
p640
I277
sS'ccomp=wear'
p641
I55
sS'w-2=a'
p642
I617
sS'w-1=they'
p643
I574
sS'conj=bring'
p644
I60
sS'mark=as'
p645
I181
sS'w-1=he'
p646
I533
sS'nsubj=goggles'
p647
I206
sS'w-2=member'
p648
I674
sS'w-1=-rrb-'
p649
I491
sS'neg=never'
p650
I185
sS'w-2=such'
p651
I712
sS'w+1=full-face'
p652
I283
sS'dobj=visitor'
p653
I168
sS'w+2=they'
p654
I470
sS'w-2=clothing'
p655
I642
sS'prep=after'
p656
I234
sS'w+2=around'
p657
I366
sS'w+1=headscarve'
p658
I288
sS'w-1=police'
p659
I557
sS'w+2=then'
p660
I468
sS'w-1=must'
p661
I545
sS'w+2=explosive'
p662
I398
sS'w-1=demonstrator'
p663
I520
sS'dobj=blazer'
p664
I98
sS'w-1=now'
p665
I549
sS'w-2=two'
p666
I724
sS'dep=go'
p667
I83
sS'w-1=protester'
p668
I558
sS'w+2=prosthetic'
p669
I443
sS'w-2=pressure'
p670
I688
sS'w-2=armed'
p671
I626
sS'w+2=shirt'
p672
I453
sS'dobj=tee-shirt'
p673
I160
sS'mark=since'
p674
I184
sS'advmod=how'
p675
I16
sS'nsubj=boyfriend'
p676
I200
sS'w+1=inappropriate'
p677
I292
sS'w-1=even'
p678
I525
sS'dobj=window'
p679
I173
sS'w-2=head'
p680
I667
sS'w+2=start'
p681
I455
sS'w+1=nail'
p682
I305
sS'w-2=experience'
p683
I650
sS'w+2=female'
p684
I403
sS'w-1=member'
p685
I544
sS'w-2=fit-tested'
p686
I657
sS'w-1=correspondent'
p687
I519
sS'w-1=boy'
p688
I515
sS'prt=off'
p689
I251
sS'conj=project'
p690
I70
sS'w-1=as'
p691
I512
sS'dobj=button'
p692
I101
sS'w-1=we'
p693
I578
sS'w-2=female'
p694
I653
sS'aux=to'
p695
I36
sS'w-2=you'
p696
I738
sS'conj=wield'
p697
I79
sS'w+1=official'
p698
I309
sS'advcl=go'
p699
I5
sS'w+2=the'
p700
I467
sS'w+1=tight'
p701
I334
sS'w-1=embrace'
p702
I523
sS'w+1=new'
p703
I307
sS'w-2=famous'
p704
I652
sS'w+2=black'
p705
I375
sS'nsubj=Torres'
p706
I197
sS'w+2=?'
p707
I355
sS'w-2=force'
p708
I659
sS'dobj=jacket'
p709
I131
sS'w-1=equipment'
p710
I524
sS'w-1=for'
p711
I527
sS'w+1=,'
p712
I254
sS'prep=as'
p713
I236
sS'nsubj=father'
p714
I204
sS'nsubj=protester'
p715
I217
sS'w+2=jeans'
p716
I421
sS'w+2=.'
p717
I349
sS'w+1=specially'
p718
I324
sS'nsubj=activist'
p719
I198
sS'w-1=often'
p720
I552
sS'neg=not'
p721
I186
sS'w-2=,'
p722
I591
sS'prep=during'
p723
I240
sS'w-1=whom'
p724
I580
sS'w+2=bullet'
p725
I380
sS'w+1=I'
p726
I258
sS'w+2=muslim'
p727
I430
sS'w+1=protective'
p728
I317
sS'w+1=jewelry'
p729
I296
sS'nsubj=everyone'
p730
I203
sS'w-1=girl'
p731
I531
sS'w+2=hair'
p732
I409
sS'dobj=seatbelt'
p733
I150
sS'dobj=electrode'
p734
I116
sS'w+1=a'
p735
I262
sS'w+1=`'
p736
I261
sS'w-1=not'
p737
I548
sS'prt=down'
p738
I250
sS'w-2=deserve'
p739
I647
sS'w+1=crisp'
p740
I274
sS'w-1=include'
p741
I534
sS'w-1=lady'
p742
I537
sS'w-2=van'
p743
I725
sS'w+2=j'
p744
I420
sS'w-1=that'
p745
I573
sS'aux=be'
p746
I31
sS'dobj=vest'
p747
I167
sS'w-1=mechanical'
p748
I543
sS'w+2=big'
p749
I374
sS'dobj=long'
p750
I136
sS'w-1=man'
p751
I540
sS'nsubj=girl'
p752
I205
ssS'dtype'
p753
cnumpy
float64
p754
sS'feature_names_'
p755
(lp756
g399
ag604
ag284
ag193
ag177
ag699
ag77
ag593
ag211
ag158
ag459
ag303
ag548
ag447
ag397
ag366
ag675
ag595
ag42
ag378
ag122
ag28
ag127
ag311
ag8
ag129
ag24
ag273
ag195
ag352
ag11
ag746
ag100
ag508
ag406
ag518
ag695
ag412
ag132
ag474
ag499
ag364
ag304
ag268
ag302
ag15
ag294
ag496
ag376
ag184
ag545
ag346
ag93
ag316
ag115
ag641
ag101
ag590
ag114
ag322
ag644
ag363
ag30
ag584
ag394
ag519
ag361
ag367
ag591
ag373
ag690
ag174
ag568
ag438
ag488
ag347
ag626
ag544
ag205
ag697
ag62
ag272
ag487
ag667
ag257
ag511
ag204
ag152
ag514
ag269
ag505
ag228
ag629
ag387
ag401
ag613
ag372
ag283
ag664
ag339
ag357
ag692
ag416
ag425
ag31
ag498
ag178
ag575
ag463
ag466
ag396
ag423
ag351
ag462
ag536
ag108
ag734
ag619
ag319
ag409
ag227
ag139
ag417
ag636
ag444
ag493
ag547
ag290
ag9
ag431
ag534
ag709
ag200
ag460
ag105
ag261
ag750
ag334
ag315
ag475
ag279
ag16
ag59
ag389
ag20
ag418
ag181
ag336
ag635
ag248
ag733
ag266
ag485
ag379
ag41
ag638
ag214
ag525
ag190
ag217
ag673
ag138
ag241
ag393
ag97
ag524
ag421
ag747
ag653
ag523
ag330
ag583
ag628
ag679
ag196
ag98
ag371
ag470
ag484
ag461
ag25
ag645
ag81
ag187
ag674
ag650
ag721
ag318
ag494
ag546
ag620
ag242
ag353
ag57
ag446
ag267
ag55
ag706
ag719
ag562
ag676
ag274
ag221
ag730
ag714
ag752
ag647
ag176
ag392
ag539
ag35
ag106
ag452
ag329
ag295
ag230
ag489
ag715
ag551
ag540
ag64
ag400
ag168
ag163
ag141
ag76
ag216
ag39
ag557
ag209
ag293
ag571
ag503
ag454
ag656
ag102
ag713
ag601
ag443
ag34
ag723
ag281
ag130
ag532
ag535
ag246
ag142
ag476
ag403
ag420
ag738
ag689
ag258
ag587
ag712
ag512
ag550
ag448
ag726
ag441
ag37
ag736
ag735
ag338
ag149
ag27
ag479
ag243
ag309
ag292
ag126
ag453
ag188
ag182
ag740
ag18
ag131
ag640
ag634
ag356
ag390
ag134
ag632
ag652
ag113
ag143
ag253
ag299
ag658
ag530
ag169
ag490
ag677
ag197
ag492
ag116
ag729
ag240
ag335
ag384
ag263
ag468
ag56
ag624
ag21
ag682
ag112
ag703
ag199
ag698
ag85
ag449
ag54
ag89
ag450
ag621
ag287
ag728
ag260
ag561
ag467
ag153
ag259
ag556
ag718
ag405
ag501
ag224
ag559
ag120
ag53
ag124
ag579
ag585
ag701
ag350
ag606
ag633
ag414
ag537
ag285
ag609
ag380
ag383
ag236
ag456
ag482
ag317
ag95
ag717
ag617
ag600
ag103
ag386
ag521
ag707
ag154
ag58
ag354
ag419
ag249
ag252
ag577
ag326
ag255
ag183
ag657
ag291
ag192
ag480
ag469
ag123
ag52
ag271
ag749
ag705
ag207
ag239
ag191
ag385
ag725
ag265
ag118
ag388
ag94
ag48
ag251
ag439
ag321
ag327
ag310
ag368
ag275
ag365
ag445
ag616
ag206
ag314
ag662
ag477
ag325
ag60
ag630
ag684
ag457
ag282
ag161
ag212
ag213
ag732
ag355
ag360
ag533
ag19
ag432
ag297
ag569
ag155
ag566
ag218
ag744
ag716
ag458
ag594
ag22
ag65
ag121
ag610
ag507
ag422
ag727
ag208
ag582
ag415
ag515
ag586
ag553
ag349
ag342
ag104
ag574
ag159
ag250
ag669
ag23
ag429
ag215
ag308
ag312
ag605
ag88
ag306
ag320
ag672
ag323
ag681
ag359
ag428
ag12
ag491
ag426
ag264
ag75
ag74
ag82
ag451
ag560
ag700
ag660
ag235
ag654
ag391
ag599
ag442
ag434
ag433
ag473
ag404
ag374
ag332
ag286
ag135
ag111
ag472
ag622
ag201
ag117
ag276
ag328
ag289
ag36
ag649
ag614
ag631
ag348
ag362
ag558
ag167
ag107
ag581
ag38
ag526
ag277
ag66
ag69
ag147
ag358
ag99
ag247
ag608
ag180
ag552
ag691
ag68
ag370
ag688
ag67
ag46
ag278
ag687
ag663
ag32
ag300
ag702
ag710
ag678
ag225
ag711
ag194
ag245
ag49
ag731
ag92
ag646
ag741
ag172
ag528
ag742
ag527
ag509
ag751
ag203
ag331
ag748
ag685
ag661
ag70
ag171
ag737
ag665
ag611
ag572
ag720
ag563
ag298
ag137
ag237
ag659
ag668
ag402
ag637
ag45
ag603
ag502
ag136
ag14
ag592
ag504
ag90
ag262
ag580
ag156
ag226
ag745
ag643
ag164
ag222
ag17
ag693
ag564
ag724
ag210
ag61
ag270
ag516
ag440
ag47
ag43
ag109
ag343
ag369
ag722
ag430
ag570
ag607
ag202
ag424
ag13
ag160
ag413
ag256
ag84
ag133
ag597
ag395
ag639
ag495
ag625
ag232
ag464
ag436
ag506
ag223
ag529
ag198
ag10
ag344
ag642
ag44
ag522
ag411
ag301
ag578
ag596
ag145
ag307
ag671
ag478
ag71
ag151
ag341
ag166
ag531
ag80
ag398
ag517
ag119
ag542
ag26
ag165
ag185
ag233
ag655
ag238
ag91
ag510
ag345
ag739
ag229
ag144
ag683
ag555
ag704
ag694
ag623
ag189
ag549
ag686
ag337
ag708
ag612
ag381
ag125
ag231
ag220
ag554
ag589
ag680
ag83
ag427
ag305
ag520
ag627
ag86
ag648
ag615
ag313
ag186
ag618
ag79
ag219
ag51
ag375
ag382
ag96
ag63
ag157
ag576
ag670
ag170
ag500
ag408
ag588
ag87
ag72
ag497
ag324
ag234
ag296
ag377
ag573
ag598
ag175
ag280
ag513
ag150
ag40
ag543
ag254
ag288
ag541
ag486
ag651
ag146
ag244
ag435
ag140
ag73
ag29
ag33
ag333
ag78
ag148
ag110
ag666
ag743
ag437
ag410
ag50
ag565
ag481
ag483
ag471
ag567
ag602
ag465
ag340
ag128
ag696
ag162
ag455
ag179
ag538
ag407
ag173
asS'separator'
p757
S'='
sS'sparse'
p758
I01
sb.