ccopy_reg
_reconstructor
p1
(csklearn.feature_extraction.dict_vectorizer
DictVectorizer
p2
c__builtin__
object
p3
NtRp4
(dp5
S'sort'
p6
I01
sS'feature_names_'
p7
(lp8
S'advcl=work'
p9
aS'advmod=quickly'
p10
aS'advmod=sometimes'
p11
aS'advmod=when'
p12
aS'advmod=where'
p13
aS'amod=major'
p14
aS'amod=necessary'
p15
aS'amod=pre-race'
p16
aS'amod=underwater'
p17
aS'amod=worth'
p18
aS'aux=be'
p19
aS'aux=could'
p20
aS'aux=to'
p21
aS'aux=will'
p22
aS'auxpass=be'
p23
aS'cc=and'
p24
aS'cc=but'
p25
aS'cc=or'
p26
aS'ccomp=#NUMBER#'
p27
aS'ccomp=call'
p28
aS'ccomp=do'
p29
aS'ccomp=priority'
p30
aS'conj=administer'
p31
aS'conj=ask'
p32
aS'conj=build'
p33
aS'conj=cut'
p34
aS'conj=explain'
p35
aS'conj=install'
p36
aS'conj=lubricate'
p37
aS'conj=prevent'
p38
aS'conj=provide'
p39
aS'conj=purchase'
p40
aS'conj=remove'
p41
aS'conj=renovation'
p42
aS'conj=replace'
p43
aS'conj=replacement'
p44
aS'conj=widen'
p45
aS'conj=work'
p46
aS'dep=have'
p47
aS'dep=that'
p48
aS'det=some'
p49
aS'det=the'
p50
aS'dobj=#NUMBER#'
p51
aS'dobj=#PRP#'
p52
aS'dobj=airstrip'
p53
aS'dobj=alliance'
p54
aS'dobj=aneurysm'
p55
aS'dobj=beach'
p56
aS'dobj=blanket'
p57
aS'dobj=bridge'
p58
aS'dobj=bus'
p59
aS'dobj=cable'
p60
aS'dobj=car'
p61
aS'dobj=chord'
p62
aS'dobj=clinic'
p63
aS'dobj=damage'
p64
aS'dobj=division'
p65
aS'dobj=engine'
p66
aS'dobj=equipment'
p67
aS'dobj=facility'
p68
aS'dobj=fence'
p69
aS'dobj=highway'
p70
aS'dobj=house'
p71
aS'dobj=image'
p72
aS'dobj=infrastructure'
p73
aS'dobj=joint'
p74
aS'dobj=kilometer'
p75
aS'dobj=landscape'
p76
aS'dobj=ligament'
p77
aS'dobj=lung'
p78
aS'dobj=muffler'
p79
aS'dobj=palace'
p80
aS'dobj=palate'
p81
aS'dobj=panel'
p82
aS'dobj=radiator'
p83
aS'dobj=relation'
p84
aS'dobj=rift'
p85
aS'dobj=road'
p86
aS'dobj=roof'
p87
aS'dobj=system'
p88
aS'dobj=tear'
p89
aS'dobj=tie'
p90
aS'dobj=truck'
p91
aS'mark=if'
p92
aS'mark=until'
p93
aS'mark=while'
p94
aS'neg=not'
p95
aS'nn=auto'
p96
aS'nn=home'
p97
aS'nn=infrastructure'
p98
aS'nn=stockpile'
p99
aS'nn=training'
p100
aS'nsubj=#PRP#'
p101
aS'nsubj=Nations'
p102
aS'nsubj=alliance'
p103
aS'nsubj=decade'
p104
aS'nsubj=doctor'
p105
aS'nsubj=fossum'
p106
aS'nsubj=government'
p107
aS'nsubj=group'
p108
aS'nsubj=mechanic'
p109
aS'nsubj=worker'
p110
aS'partmod=hinder'
p111
aS'prep=around'
p112
aS'prep=for'
p113
aS'prep=in'
p114
aS'prep=of'
p115
aS'prep=on'
p116
aS'prep=to'
p117
aS'prep=with'
p118
aS'prep=within'
p119
aS'prep=without'
p120
aS'rcmod=be'
p121
aS'rcmod=keep'
p122
aS'w+1=,'
p123
aS'w+1=.'
p124
aS'w+1=70'
p125
aS'w+1=America'
p126
aS'w+1=Healey'
p127
aS'w+1=a'
p128
aS'w+1=aging'
p129
aS'w+1=airstrip'
p130
aS'w+1=and'
p131
aS'w+1=beach'
p132
aS'w+1=business'
p133
aS'w+1=car'
p134
aS'w+1=cleft'
p135
aS'w+1=clinic'
p136
aS'w+1=company'
p137
aS'w+1=damage'
p138
aS'w+1=damaged'
p139
aS'w+1=division'
p140
aS'w+1=engine'
p141
aS'w+1=exist'
p142
aS'w+1=fence'
p143
aS'w+1=fray'
p144
aS'w+1=he'
p145
aS'w+1=highway'
p146
aS'w+1=if'
p147
aS'w+1=in'
p148
aS'w+1=infrastructure'
p149
aS'w+1=it'
p150
aS'w+1=its'
p151
aS'w+1=job'
p152
aS'w+1=material'
p153
aS'w+1=medical'
p154
aS'w+1=more'
p155
aS'w+1=need'
p156
aS'w+1=of'
p157
aS'w+1=on'
p158
aS'w+1=or'
p159
aS'w+1=public'
p160
aS'w+1=quickly'
p161
aS'w+1=relation'
p162
aS'w+1=road'
p163
aS'w+1=shop'
p164
aS'w+1=storage'
p165
aS'w+1=store'
p166
aS'w+1=tear'
p167
aS'w+1=technique'
p168
aS'w+1=that'
p169
aS'w+1=the'
p170
aS'w+1=they'
p171
aS'w+1=tie'
p172
aS'w+1=to'
p173
aS'w+1=we'
p174
aS'w+1=what'
p175
aS'w+1=work'
p176
aS'w+1=would'
p177
aS"w+2=''"
p178
aS"w+2='s"
p179
aS'w+2=,'
p180
aS'w+2=.'
p181
aS'w+2=Minneapolis'
p182
aS'w+2=a'
p183
aS'w+2=alliance'
p184
aS'w+2=also'
p185
aS'w+2=and'
p186
aS'w+2=aneurysm'
p187
aS'w+2=as'
p188
aS'w+2=be'
p189
aS'w+2=bomb'
p190
aS'w+2=bullet-riddled'
p191
aS'w+2=bus'
p192
aS'w+2=city'
p193
aS'w+2=damage'
p194
aS'w+2=damaged'
p195
aS'w+2=due'
p196
aS'w+2=electrical'
p197
aS'w+2=equipment'
p198
aS'w+2=facility'
p199
aS'w+2=faulty'
p200
aS'w+2=federal'
p201
aS'w+2=for'
p202
aS'w+2=have'
p203
aS'w+2=he'
p204
aS'w+2=heat'
p205
aS'w+2=highway'
p206
aS'w+2=human'
p207
aS'w+2=in'
p208
aS'w+2=infrastructure'
p209
aS'w+2=joint'
p210
aS'w+2=keep'
p211
aS'w+2=lubricate'
p212
aS'w+2=mechanic'
p213
aS'w+2=military'
p214
aS'w+2=muffler'
p215
aS'w+2=oil'
p216
aS'w+2=older'
p217
aS'w+2=palate'
p218
aS'w+2=proceed'
p219
aS'w+2=provide'
p220
aS'w+2=radiator'
p221
aS'w+2=ramshackle'
p222
aS'w+2=renovation'
p223
aS'w+2=replace'
p224
aS'w+2=replacement'
p225
aS'w+2=road'
p226
aS'w+2=roof'
p227
aS'w+2=service'
p228
aS'w+2=strain'
p229
aS'w+2=take'
p230
aS'w+2=tear'
p231
aS'w+2=than'
p232
aS'w+2=that'
p233
aS'w+2=the'
p234
aS'w+2=there'
p235
aS'w+2=tie'
p236
aS'w+2=tiger'
p237
aS'w+2=to'
p238
aS'w+2=tradesman'
p239
aS'w+2=us-russian'
p240
aS'w+2=which'
p241
aS'w+2=widen'
p242
aS'w+2=will'
p243
aS'w+2=wing'
p244
aS'w+2=with'
p245
aS'w+2=within'
p246
aS'w+2=yet'
p247
aS'w-1=,'
p248
aS'w-1=a'
p249
aS'w-1=and'
p250
aS'w-1=at'
p251
aS'w-1=auto'
p252
aS'w-1=be'
p253
aS'w-1=beyond'
p254
aS'w-1=billion'
p255
aS'w-1=could'
p256
aS'w-1=distribute'
p257
aS'w-1=doctor'
p258
aS'w-1=during'
p259
aS'w-1=equipment'
p260
aS'w-1=finish'
p261
aS'w-1=for'
p262
aS'w-1=fossum'
p263
aS'w-1=from'
p264
aS'w-1=he'
p265
aS'w-1=help'
p266
aS'w-1=home'
p267
aS'w-1=infrastructure'
p268
aS'w-1=like'
p269
aS'w-1=long'
p270
aS'w-1=make'
p271
aS'w-1=necessary'
p272
aS'w-1=not'
p273
aS'w-1=of'
p274
aS'w-1=on'
p275
aS'w-1=or'
p276
aS'w-1=phone'
p277
aS'w-1=pre-race'
p278
aS'w-1=rift'
p279
aS'w-1=say'
p280
aS'w-1=shoe'
p281
aS'w-1=shuttle'
p282
aS'w-1=some'
p283
aS'w-1=start'
p284
aS'w-1=stockpile'
p285
aS'w-1=that'
p286
aS'w-1=the'
p287
aS'w-1=to'
p288
aS'w-1=under'
p289
aS'w-1=underwater'
p290
aS'w-1=up'
p291
aS'w-1=vehicle'
p292
aS'w-1=want'
p293
aS'w-1=we'
p294
aS'w-1=will'
p295
aS'w-1=worth'
p296
aS"w-2=''"
p297
aS'w-2=,'
p298
aS'w-2=.'
p299
aS'w-2=1.7'
p300
aS'w-2=Hospital'
p301
aS'w-2=NASA'
p302
aS'w-2=Nations'
p303
aS'w-2=a'
p304
aS'w-2=able'
p305
aS'w-2=action'
p306
aS'w-2=aim'
p307
aS'w-2=airline'
p308
aS'w-2=alliance'
p309
aS'w-2=allow'
p310
aS'w-2=also'
p311
aS'w-2=and'
p312
aS'w-2=ashore'
p313
aS'w-2=at'
p314
aS'w-2=be'
p315
aS'w-2=begin'
p316
aS'w-2=billion'
p317
aS'w-2=build'
p318
aS'w-2=by'
p319
aS'w-2=car'
p320
aS'w-2=construction'
p321
aS'w-2=could'
p322
aS'w-2=damage'
p323
aS'w-2=day'
p324
aS'w-2=decade'
p325
aS'w-2=decision'
p326
aS'w-2=do'
p327
aS'w-2=dollar'
p328
aS'w-2=equipment'
p329
aS'w-2=fund'
p330
aS'w-2=government'
p331
aS'w-2=have'
p332
aS'w-2=he'
p333
aS'w-2=home'
p334
aS'w-2=hope'
p335
aS'w-2=how'
p336
aS'w-2=job'
p337
aS'w-2=just'
p338
aS'w-2=keep'
p339
aS'w-2=major'
p340
aS'w-2=make'
p341
aS'w-2=mechanic'
p342
aS'w-2=method'
p343
aS'w-2=mine'
p344
aS'w-2=mobile'
p345
aS'w-2=money'
p346
aS'w-2=motor'
p347
aS'w-2=nearby'
p348
aS'w-2=need'
p349
aS'w-2=of'
p350
aS'w-2=on'
p351
aS'w-2=orbiter'
p352
aS'w-2=organization'
p353
aS'w-2=pay'
p354
aS'w-2=perform'
p355
aS'w-2=plan'
p356
aS'w-2=postpone'
p357
aS'w-2=practice'
p358
aS'w-2=program'
p359
aS'w-2=promise'
p360
aS'w-2=re-engineer'
p361
aS'w-2=responsible'
p362
aS'w-2=restore'
p363
aS'w-2=say'
p364
aS'w-2=simply'
p365
aS'w-2=solution'
p366
aS'w-2=station'
p367
aS'w-2=support'
p368
aS'w-2=surgery'
p369
aS'w-2=task'
p370
aS'w-2=technology'
p371
aS'w-2=that'
p372
aS'w-2=the'
p373
aS'w-2=to'
p374
aS'w-2=troops'
p375
aS'w-2=try'
p376
aS'w-2=two'
p377
aS'w-2=until'
p378
aS'w-2=us-russian'
p379
aS'w-2=use'
p380
aS'w-2=wait'
p381
aS'w-2=walk'
p382
aS'w-2=way'
p383
aS'w-2=we'
p384
aS'w-2=while'
p385
aS'w-2=worker'
p386
aS'xcomp=receive'
p387
aS'xcomp=use'
p388
asS'dtype'
p389
cnumpy
float64
p390
sS'vocabulary_'
p391
(dp392
g317
I308
sg28
I19
sg384
I375
sg225
I216
sg179
I170
sg192
I183
sg388
I379
sg338
I329
sg213
I204
sg218
I209
sg349
I340
sg269
I260
sg119
I110
sg66
I57
sg248
I239
sg105
I96
sg169
I160
sg267
I258
sg107
I98
sg259
I250
sg55
I46
sg280
I271
sg222
I213
sg195
I186
sg345
I336
sg383
I374
sg37
I28
sg295
I286
sg64
I55
sg253
I244
sg16
I7
sg373
I364
sg223
I214
sg152
I143
sg231
I222
sg157
I148
sg238
I229
sg158
I149
sg159
I150
sg334
I325
sg257
I248
sg208
I199
sg335
I326
sg34
I25
sg256
I247
sg70
I61
sg112
I103
sg243
I234
sg117
I108
sg342
I333
sg372
I363
sg170
I161
sg230
I221
sg189
I180
sg171
I162
sg10
I1
sg114
I105
sg161
I152
sg264
I255
sg323
I314
sg187
I178
sg131
I122
sg78
I69
sg308
I299
sg200
I191
sg261
I252
sg202
I193
sg331
I322
sg211
I202
sg382
I373
sg108
I99
sg287
I278
sg125
I116
sg363
I354
sg92
I83
sg91
I82
sg358
I349
sg190
I181
sg13
I4
sg103
I94
sg121
I112
sg290
I281
sg50
I41
sg380
I371
sg167
I158
sg127
I118
sg361
I352
sg134
I125
sg279
I270
sg100
I91
sg32
I23
sg350
I341
sg176
I167
sg351
I342
sg288
I279
sg69
I60
sg198
I189
sg52
I43
sg327
I318
sg31
I22
sg82
I73
sg68
I59
sg96
I87
sg87
I78
sg377
I368
sg98
I89
sg227
I218
sg258
I249
sg143
I134
sg321
I312
sg254
I245
sg305
I296
sg49
I40
sg237
I228
sg307
I298
sg59
I50
sg12
I3
sg301
I292
sg43
I34
sg368
I359
sg113
I104
sg48
I39
sg174
I165
sg38
I29
sg36
I27
sg216
I207
sg172
I163
sg109
I100
sg348
I339
sg177
I168
sg270
I261
sg23
I14
sg369
I360
sg17
I8
sg344
I335
sg365
I356
sg151
I142
sg58
I49
sg165
I156
sg245
I236
sg85
I76
sg296
I287
sg116
I107
sg255
I246
sg188
I179
sg300
I291
sg310
I301
sg297
I288
sg293
I284
sg11
I2
sg247
I238
sg173
I164
sg339
I330
sg45
I36
sg56
I47
sg14
I5
sg204
I195
sg281
I272
sg199
I190
sg30
I21
sg205
I196
sg120
I111
sg343
I334
sg220
I211
sg319
I310
sg291
I282
sg224
I215
sg132
I123
sg164
I155
sg362
I353
sg318
I309
sg146
I137
sg136
I127
sg54
I45
sg309
I300
sg201
I192
sg90
I81
sg35
I26
sg166
I157
sg325
I316
sg156
I147
sg252
I243
sg94
I85
sg106
I97
sg77
I68
sg311
I302
sg22
I13
sg61
I52
sg367
I358
sg118
I109
sg26
I17
sg214
I205
sg84
I75
sg375
I366
sg42
I33
sg244
I235
sg356
I347
sg194
I185
sg324
I315
sg122
I113
sg236
I227
sg263
I254
sg139
I130
sg126
I117
sg130
I121
sg242
I233
sg178
I169
sg353
I344
sg313
I304
sg53
I44
sg387
I378
sg359
I350
sg46
I37
sg332
I323
sg24
I15
sg137
I128
sg212
I203
sg268
I259
sg79
I70
sg147
I138
sg102
I93
sg366
I357
sg148
I139
sg370
I361
sg150
I141
sg93
I84
sg101
I92
sg330
I321
sg360
I351
sg25
I16
sg153
I144
sg140
I131
sg284
I275
sg329
I320
sg138
I129
sg51
I42
sg266
I257
sg239
I230
sg20
I11
sg379
I370
sg184
I175
sg72
I63
sg39
I30
sg316
I307
sg346
I337
sg283
I274
sg63
I54
sg271
I262
sg149
I140
sg241
I232
sg228
I219
sg315
I306
sg115
I106
sg272
I263
sg62
I53
sg65
I56
sg163
I154
sg207
I198
sg274
I265
sg306
I297
sg381
I372
sg289
I280
sg47
I38
sg354
I345
sg88
I79
sg232
I223
sg221
I212
sg219
I210
sg86
I77
sg75
I66
sg233
I224
sg185
I176
sg9
I0
sg186
I177
sg276
I267
sg285
I276
sg81
I72
sg303
I294
sg322
I313
sg374
I365
sg275
I266
sg312
I303
sg168
I159
sg206
I197
sg144
I135
sg89
I80
sg104
I95
sg44
I35
sg376
I367
sg386
I377
sg333
I324
sg302
I293
sg155
I146
sg133
I124
sg141
I132
sg71
I62
sg364
I355
sg41
I32
sg27
I18
sg193
I184
sg234
I225
sg298
I289
sg299
I290
sg250
I241
sg97
I88
sg175
I166
sg15
I6
sg145
I136
sg210
I201
sg191
I182
sg33
I24
sg385
I376
sg73
I64
sg357
I348
sg314
I305
sg277
I268
sg326
I317
sg240
I231
sg336
I327
sg129
I120
sg74
I65
sg304
I295
sg378
I369
sg355
I346
sg347
I338
sg249
I240
sg337
I328
sg135
I126
sg341
I332
sg265
I256
sg229
I220
sg235
I226
sg217
I208
sg162
I153
sg83
I74
sg340
I331
sg226
I217
sg111
I102
sg196
I187
sg292
I283
sg215
I206
sg29
I20
sg203
I194
sg76
I67
sg40
I31
sg182
I173
sg282
I273
sg197
I188
sg154
I145
sg60
I51
sg209
I200
sg160
I151
sg246
I237
sg67
I58
sg251
I242
sg294
I285
sg21
I12
sg99
I90
sg110
I101
sg80
I71
sg320
I311
sg260
I251
sg262
I253
sg123
I114
sg124
I115
sg352
I343
sg181
I172
sg180
I171
sg95
I86
sg328
I319
sg128
I119
sg273
I264
sg278
I269
sg371
I362
sg142
I133
sg286
I277
sg19
I10
sg183
I174
sg57
I48
sg18
I9
ssS'separator'
p393
S'='
sS'sparse'
p394
I01
sb.