ccopy_reg
_reconstructor
p1
(csklearn.feature_extraction.dict_vectorizer
DictVectorizer
p2
c__builtin__
object
p3
NtRp4
(dp5
S'vocabulary_'
p6
(dp7
S'xcomp=ask'
p8
I634
sS'w+2=soldier'
p9
I368
sS'conj=order'
p10
I83
sS'nsubj=someone'
p11
I148
sS'w+2=sick'
p12
I366
sS'det=no'
p13
I96
sS'advmod=certainly'
p14
I9
sS'amod=people-to-people'
p15
I49
sS'w-2=group'
p16
I557
sS'w-2=hadshunn'
p17
I559
sS'w-2=we'
p18
I628
sS'w+2=Abu'
p19
I250
sS'w+1=insurgent'
p20
I217
sS'dobj=soldier'
p21
I123
sS'w-1=certainly'
p22
I410
sS'parataxis=get'
p23
I156
sS'w-2=reporter'
p24
I599
sS'w-1=constant'
p25
I413
sS'w-2=when'
p26
I629
sS'w-1=nation'
p27
I457
sS'w-1=diplomatic'
p28
I418
sS'amod=wider'
p29
I62
sS'w-2=can'
p30
I530
sS'w+1=around'
p31
I195
sS'w-1=seek'
p32
I478
sS'w+2=besiege'
p33
I288
sS'w-1=lose'
p34
I451
sS'w-1=establish'
p35
I422
sS'amod=human-to-animal'
p36
I36
sS'w+2=animal'
p37
I282
sS'w-2=base'
p38
I524
sS'advcl=afraid'
p39
I0
sS'w-2=they'
p40
I619
sS'w-2=Harrington'
p41
I505
sS'prep=by'
p42
I167
sS'prep=between'
p43
I166
sS'w-2=kind'
p44
I574
sS'dobj=group'
p45
I114
sS'w-1=day-to-day'
p46
I417
sS'w-2=some'
p47
I610
sS'w-2=spread'
p48
I611
sS'xcomp=seek'
p49
I638
sS'prep=in'
p50
I170
sS'w-2=shun'
p51
I606
sS'w-1=would'
p52
I501
sS'w-1=say'
p53
I477
sS'w-1=can'
p54
I408
sS'nn=speed'
p55
I134
sS'w-1=new'
p56
I458
sS'w-1=closer'
p57
I412
sS'nsubj=Secretary'
p58
I140
sS'w-1=maintain'
p59
I452
sS'amod=primary'
p60
I54
sS'w-1=Carter'
p61
I392
sS'w-1=fewer'
p62
I425
sS'w+2=person'
p63
I350
sS'w-2=representative'
p64
I600
sS'w-1=by'
p65
I407
sS'w-2=describe'
p66
I542
sS'w-2=receive'
p67
I595
sS'w-1=be'
p68
I404
sS'w+2=museum'
p69
I337
sS'w+1=family'
p70
I207
sS'w-2=the'
p71
I617
sS'w+1=she'
p72
I226
sS'nsubjpass=company'
p73
I151
sS'nsubj=#PRP#'
p74
I137
sS'w+2=individual'
p75
I322
sS'w+2=chadian'
p76
I292
sS'amod=closer'
p77
I22
sS'dep=group'
p78
I90
sS'w-2=without'
p79
I632
sS'w+2=to'
p80
I376
sS'w+1=on'
p81
I223
sS'rcmod=establish'
p82
I177
sS'w-2=infrastructure'
p83
I566
sS'amod=sexual'
p84
I58
sS'w-2=home'
p85
I563
sS'w-1=have'
p86
I433
sS'w+2=if'
p87
I319
sS'amod=regular'
p88
I56
sS'w+2=-lrb-'
p89
I246
sS'w+2=in'
p90
I320
sS'w-2=purportedly'
p91
I593
sS'w+2=it'
p92
I326
sS'w-1=good'
p93
I432
sS'w+2=Home'
p94
I256
sS'w+2=Tehran'
p95
I274
sS'w-2=all'
p96
I518
sS'nn=Carter'
p97
I130
sS'w-1=someone'
p98
I485
sS'advmod=once'
p99
I14
sS'prep=about'
p100
I163
sS'aux=can'
p101
I66
sS'complm=that'
p102
I78
sS'w+1=where'
p103
I238
sS'w+1=another'
p104
I194
sS'w-1=extended'
p105
I424
sS'w+2=will'
p106
I384
sS'w-1=increase'
p107
I441
sS'w+2=President'
p108
I265
sS'w-2=effort'
p109
I544
sS'advcl=be'
p110
I2
sS'w+2=Department'
p111
I253
sS'dobj=Office'
p112
I107
sS'w+2=Tokyo'
p113
I275
sS'w+1=the'
p114
I230
sS'amod=improper'
p115
I37
sS'w-1=off'
p116
I463
sS'advmod=only'
p117
I15
sS'w+1=they'
p118
I231
sS'xcomp=warn'
p119
I639
sS'tmod=yesterday'
p120
I180
sS'w+1=those'
p121
I233
sS'nsubjpass=#PRP#'
p122
I150
sS'w+1=member'
p123
I221
sS'aux=would'
p124
I71
sS'dep=Adams'
p125
I89
sS'w+1=for'
p126
I208
sS'w-2=frustrate'
p127
I552
sS'w-2=skill'
p128
I608
sS'w+2=non-hamas'
p129
I338
sS'w-1=and'
p130
I402
sS'w-2=frequent'
p131
I551
sS'w-1=from'
p132
I429
sS'w+2=Iraqis'
p133
I259
sS'w-2=Moscow'
p134
I509
sS'w+1=and'
p135
I193
sS'ccomp=like'
p136
I76
sS'w+2=increase'
p137
I321
sS'xcomp=come'
p138
I635
sS'w+2=for'
p139
I309
sS'w-1=should'
p140
I482
sS'w-1=speed'
p141
I486
sS'dobj=authority'
p142
I108
sS'w-1=it'
p143
I445
sS'w-1=improper'
p144
I438
sS'w-2=government'
p145
I555
sS'w-1=if'
p146
I437
sS'w+2=bird'
p147
I289
sS'w+2=Islamabad'
p148
I260
sS'w+2=these'
p149
I373
sS'w-1=in'
p150
I439
sS'w+2=we'
p151
I381
sS'w+2=rebel'
p152
I357
sS'nsubj=group'
p153
I143
sS'conj=be'
p154
I79
sS'w+2=Middle'
p155
I262
sS'w+2=official'
p156
I341
sS'w-2=need'
p157
I585
sS'w-1=human-to-animal'
p158
I436
sS'w-1=several'
p159
I479
sS'w-1=personal'
p160
I471
sS'w+2=expert'
p161
I306
sS'amod=first'
p162
I31
sS'det=all'
p163
I94
sS'advmod=directly'
p164
I10
sS'nn=peace'
p165
I133
sS'amod=continue'
p166
I24
sS'w+1=among'
p167
I192
sS'w-1=people-to-people'
p168
I469
sS'rcmod=be'
p169
I176
sS'dep=say'
p170
I92
sS'w+1=have'
p171
I211
sS'amod=expand'
p172
I29
sS'w-2=believe'
p173
I526
sS'w-1=frequent'
p174
I428
sS'det=the'
p175
I99
sS'w-1=permanent'
p176
I470
sS'w+2=body'
p177
I290
sS'w+2=similar'
p178
I367
sS'w-2=through'
p179
I621
sS'advcl=confirm'
p180
I4
sS'w+2=regional'
p181
I358
sS'w-2=Kosovo'
p182
I507
sS'nsubj=who'
p183
I149
sS'appos=contact'
p184
I63
sS'w+2=2008'
p185
I248
sS'w-2=of'
p186
I587
sS'xcomp=propose'
p187
I637
sS'w-1=recent'
p188
I474
sS'w-2=on'
p189
I589
sS'w-1=to'
p190
I494
sS'w-2=use'
p191
I624
sS'w-1=first'
p192
I426
sS'w+1=that'
p193
I229
sS'dobj=#PRP#'
p194
I102
sS'dobj=lawyer'
p195
I115
sS'w-1=against'
p196
I399
sS'w+2=Somalis'
p197
I269
sS'w-1=key'
p198
I446
sS'w-1=Army'
p199
I390
sS'advmod=simply'
p200
I17
sS'amod=high'
p201
I34
sS'partmod=fuel'
p202
I159
sS'w+2=quickly'
p203
I356
sS'prep=over'
p204
I173
sS'w+1=at'
p205
I196
sS'dobj=official'
p206
I120
sS'w+2=Esfandiari'
p207
I254
sS'w+2=all'
p208
I279
sS'w+2=easily'
p209
I304
sS'w-2=controller'
p210
I538
sS'dobj=Department'
p211
I104
sS'w+2=continue'
p212
I298
sS'w+2=oxygen'
p213
I346
sS'w-2=expanded'
p214
I549
sS'w-1=my'
p215
I456
sS'w-2=able'
p216
I516
sS'w+1=through'
p217
I234
sS'advcl=concerned'
p218
I3
sS'det=some'
p219
I97
sS'w-2=cut'
p220
I540
sS'w-2=continue'
p221
I536
sS'advmod=most'
p222
I13
sS'w+2=whereby'
p223
I382
sS'advmod=when'
p224
I18
sS'det=those'
p225
I100
sS'partmod=bear'
p226
I158
sS'w-2=she'
p227
I605
sS'prep=for'
p228
I168
sS'w+2=location'
p229
I330
sS'amod=new'
p230
I46
sS'w+1=we'
p231
I236
sS'w+2=believe'
p232
I287
sS"w-1='s"
p233
I387
sS'amod=personal'
p234
I51
sS'w+2=at'
p235
I283
sS'dobj=museum'
p236
I118
sS'advmod=practically'
p237
I16
sS'w-2=U.S.'
p238
I513
sS'w+1=would'
p239
I243
sS'dobj=Ashton'
p240
I103
sS'w-1=direct'
p241
I419
sS'amod=turkish-brokered'
p242
I60
sS'w-1=involve'
p243
I444
sS'auxpass=be'
p244
I72
sS'w-2=engage'
p245
I546
sS'w+2=ground'
p246
I314
sS'w-1=wider'
p247
I500
sS'w-1=more'
p248
I455
sS'dobj=company'
p249
I109
sS'w-2=contain'
p250
I535
sS'w+2=georgian'
p251
I312
sS'amod=high-level'
p252
I35
sS'w+1=list'
p253
I219
sS'amod=constant'
p254
I23
sS'w-1=House'
p255
I393
sS'w-2=over'
p256
I591
sS'w-2=establish'
p257
I547
sS'w+2=Scotland'
p258
I266
sS'w-2=Mahdi'
p259
I508
sS'w+2=decade'
p260
I300
sS'w+2=many'
p261
I331
sS'w+2=she'
p262
I365
sS'w-1=directly'
p263
I420
sS'w+2=with'
p264
I385
sS'w+2=move'
p265
I336
sS'w-2=body'
p266
I527
sS'nn=volunteer'
p267
I136
sS"w-1=''"
p268
I386
sS'w-2=those'
p269
I620
sS'w-1=the'
p270
I490
sS'w-1=bilateral'
p271
I405
sS'w+2=Israel'
p272
I261
sS'w-2=most'
p273
I583
sS'w+2=aim'
p274
I278
sS'prep=on'
p275
I172
sS'w+1=bear'
p276
I198
sS'w+2=christian'
p277
I293
sS'w-2=pace'
p278
I592
sS'w+1=realize'
p279
I225
sS'w-2=month'
p280
I581
sS'w-2=allow'
p281
I519
sS'w-1=sexual'
p282
I480
sS'w+2=mexican'
p283
I333
sS'amod=british'
p284
I20
sS"w-2=''"
p285
I502
sS'w-2=confirm'
p286
I534
sS'dobj=government'
p287
I113
sS'parataxis=contact'
p288
I155
sS'w+2=of'
p289
I339
sS'w+2=clearly'
p290
I294
sS'w+2=midday'
p291
I334
sS'w+2=on'
p292
I342
sS'w+1=to'
p293
I235
sS'det=that'
p294
I98
sS'w-2=keep'
p295
I573
sS'w+2=close'
p296
I295
sS'w+2=Belarus'
p297
I251
sS'w+2=he'
p298
I317
sS'w-1=Somalia'
p299
I395
sS'det=any'
p300
I95
sS'w+1=so'
p301
I228
sS'dobj=Iglesias'
p302
I105
sS'w+2=contaminate'
p303
I297
sS'w+1=information'
p304
I216
sS'w-1=any'
p305
I403
sS'w-1=british'
p306
I406
sS'w+1=abroad'
p307
I190
sS'w+2=Iranians'
p308
I257
sS'nsubj=another'
p309
I141
sS'w-2=attempt'
p310
I523
sS'w+2=infected'
p311
I323
sS'w-2=meantime'
p312
I580
sS'nn=U.S.'
p313
I132
sS'w+2=five'
p314
I308
sS'w-2=suspend'
p315
I615
sS'w+1=Iglesias'
p316
I188
sS'w-1=she'
p317
I481
sS'rcmod=have'
p318
I178
sS'w+2=from'
p319
I311
sS'w+2=particularly'
p320
I347
sS'w-1=north-south'
p321
I460
sS'w+2=travel'
p322
I377
sS'w+1=local'
p323
I220
sS'amod=potential'
p324
I53
sS'w+1=because'
p325
I199
sS'w+2=company'
p326
I296
sS'w+2=South'
p327
I270
sS'w-2=into'
p328
I570
sS'amod=frequent'
p329
I32
sS'w+2=people'
p330
I349
sS'advcl=send'
p331
I5
sS'w+2=this'
p332
I375
sS'amod=little'
p333
I43
sS'w+1=since'
p334
I227
sS'w-1=official'
p335
I464
sS'w+1=between'
p336
I200
sS'amod=israeli-palestinian'
p337
I41
sS'advmod=even'
p338
I11
sS'amod=good'
p339
I33
sS'w-1=renew'
p340
I476
sS'amod=north-south'
p341
I47
sS'w-2=international'
p342
I569
sS'prep=while'
p343
I174
sS'w+1=decline'
p344
I204
sS'w-2=means'
p345
I579
sS'aux=do'
p346
I67
sS'w+2=local'
p347
I329
sS'w-2=interested'
p348
I568
sS'w-2=string'
p349
I614
sS'w+2=sudanese'
p350
I369
sS'w+2=voter'
p351
I380
sS'poss=Moscow'
p352
I161
sS'nn=victim'
p353
I135
sS'w-2=right'
p354
I601
sS'w+2=hospital'
p355
I318
sS'expl=there'
p356
I124
sS'w-2=know'
p357
I575
sS'w+2=Sunday'
p358
I271
sS'w+2=Hamas'
p359
I255
sS'w-2=guard'
p360
I558
sS'nsubj=people'
p361
I147
sS'prep=with'
p362
I175
sS'dobj=office'
p363
I119
sS'w-2=six'
p364
I607
sS'conj=contact'
p365
I80
sS'w-2=still'
p366
I613
sS'w-2=in'
p367
I564
sS'w+2=its'
p368
I327
sS'w-2=regularize'
p369
I596
sS'amod=u.s.-syrian'
p370
I61
sS'w-2=reach'
p371
I594
sS'w-1=inappropriate'
p372
I440
sS'dobj=diaspora'
p373
I111
sS'w-1=victim'
p374
I496
sS'w-1=military'
p375
I454
sS'w-2=embassy'
p376
I545
sS'w+1=italian'
p377
I218
sS'w+2=moderate'
p378
I335
sS'w-2=expand'
p379
I548
sS'dobj=member'
p380
I116
sS'w+2=Pakistani'
p381
I264
sS'w-2=greater'
p382
I556
sS'dobj=pirate'
p383
I122
sS'w-2=it'
p384
I572
sS'nsubjpass=family'
p385
I152
sS'w-2=Mwangura'
p386
I510
sS'w-2=come'
p387
I533
sS'amod=increase'
p388
I39
sS'num=#NUMBER#'
p389
I154
sS'w+2=diaspora'
p390
I302
sS'w+2=office'
p391
I340
sS'w-1=this'
p392
I492
sS'conj=location'
p393
I82
sS'advmod=also'
p394
I8
sS'nsubj=lawyer'
p395
I145
sS'w-2=institution'
p396
I567
sS'conj=try'
p397
I87
sS'w-1=all'
p398
I400
sS'w-1=six-nation'
p399
I484
sS'w-2=deny'
p400
I541
sS'w+2=that'
p401
I371
sS'w+2=turkish-cypriot'
p402
I379
sS'w-2=States'
p403
I511
sS'w-2=who'
p404
I630
sS'w-1=physical'
p405
I472
sS'nsubjpass=who'
p406
I153
sS'w-1=peace'
p407
I468
sS'cc=and'
p408
I73
sS'w-1=high-level'
p409
I435
sS'w-2=certain'
p410
I532
sS'w+1=of'
p411
I222
sS'w+2=pentecostal'
p412
I348
sS'w+2=current'
p413
I299
sS'w+1=by'
p414
I202
sS'w+2=Taliban'
p415
I273
sS'w+1=will'
p416
I240
sS'w+1=be'
p417
I197
sS'dobj=Iranians'
p418
I106
sS'w-1=Baghdad'
p419
I391
sS'w-2=you'
p420
I633
sS'w+1=here'
p421
I214
sS'w+2=remain'
p422
I360
sS'w+2=3-1-0'
p423
I249
sS'amod=day-to-day'
p424
I26
sS'nsubj=Q'
p425
I139
sS'conj=say'
p426
I84
sS'nsubj=official'
p427
I146
sS'w+1=in'
p428
I215
sS'w-1=simply'
p429
I483
sS'w-2=contract'
p430
I537
sS'w+1=aim'
p431
I191
sS'w-1=latest'
p432
I447
sS'w+2=Syria'
p433
I272
sS'w+2=group'
p434
I315
sS'w+1=health'
p435
I213
sS'w-2=turkish-brokered'
p436
I623
sS'w-2=see'
p437
I604
sS'w+2=family'
p438
I307
sS"w+1=''"
p439
I181
sS'w+2=relief'
p440
I359
sS'appos=referral'
p441
I64
sS'cc=but'
p442
I74
sS'advcl=approach'
p443
I1
sS'nn=House'
p444
I131
sS'w-1=u.s.-syrian'
p445
I495
sS'poss=#PRP#'
p446
I160
sS'ccomp=search'
p447
I77
sS'dobj=#NUMBER#'
p448
I101
sS'w+2=before'
p449
I286
sS'w-2=or'
p450
I590
sS'ccomp=able'
p451
I75
sS'w-1=International'
p452
I394
sS'w-1=no'
p453
I459
sS'w-2=israeli-palestinian'
p454
I571
sS'w+2=Slovenia'
p455
I268
sS'w-1=regular'
p456
I475
sS'w-1=affect'
p457
I398
sS"possessive='s"
p458
I162
sS'nsubj=Harrington'
p459
I138
sS'w-1=make'
p460
I453
sS'w-1=lawyer'
p461
I448
sS'w-1=into'
p462
I443
sS'w-1=letter'
p463
I449
sS'w-2=be'
p464
I525
sS'prep=of'
p465
I171
sS'w+2=try'
p466
I378
sS'w+2=embassy'
p467
I305
sS'w+1=withthe'
p468
I242
sS'w+2=bat'
p469
I285
sS'amod=military'
p470
I44
sS'w-2=by'
p471
I529
sS'nsubj=guard'
p472
I144
sS'nsubj=embassy'
p473
I142
sS'w+2=able'
p474
I277
sS'w-2=off'
p475
I588
sS'w-1=for'
p476
I427
sS'w-2=could'
p477
I539
sS'w+1=group'
p478
I210
sS'amod=international'
p479
I40
sS'w+2=prime'
p480
I352
sS'w-1=close'
p481
I411
sS'amod=direct'
p482
I28
sS'w+2=Colombia'
p483
I252
sS'w+2=later'
p484
I328
sS'w-1=emergency'
p485
I421
sS'w+2=greater'
p486
I313
sS'w+2=North'
p487
I263
sS'w+2=also'
p488
I280
sS'xcomp=discuss'
p489
I636
sS'amod=more'
p490
I45
sS'w+2=own'
p491
I345
sS'w+2=.'
p492
I247
sS'w-1=on'
p493
I465
sS'w-1=who'
p494
I499
sS'w-2=get'
p495
I553
sS'w-2=want'
p496
I626
sS'w-1=through'
p497
I493
sS'w-1=or'
p498
I467
sS'w-1=cultural'
p499
I415
sS'w-2=after'
p500
I517
sS'w-2=and'
p501
I520
sS'w-2=White'
p502
I514
sS'amod=fewer'
p503
I30
sS'w-1=of'
p504
I462
sS'w-2=more'
p505
I582
sS'w-2=to'
p506
I622
sS'w+2=and'
p507
I281
sS'w+2=pirate'
p508
I351
sS'advmod=#PRP#'
p509
I7
sS'w+2=member'
p510
I332
sS'w+1=while'
p511
I239
sS'partmod=aim'
p512
I157
sS'mark=so'
p513
I126
sS'w+1=this'
p514
I232
sS'cop=be'
p515
I88
sS'w-2=any'
p516
I521
sS'amod=latest'
p517
I42
sS'w-2=he'
p518
I561
sS'w-2=limit'
p519
I576
sS'w-2=steal'
p520
I612
sS'w+1=point'
p521
I224
sS'w+2=purpose'
p522
I355
sS'w+1=with'
p523
I241
sS'w-2=warn'
p524
I627
sS'w+1=E.U.'
p525
I186
sS'dep=position'
p526
I91
sS'rcmod=necessary'
p527
I179
sS'w-2=say'
p528
I602
sS'w-2=application'
p529
I522
sS'w+2=the'
p530
I372
sS'prep=at'
p531
I165
sS'w-2=will'
p532
I631
sS'amod=permanent'
p533
I50
sS'w-2=.'
p534
I504
sS'w+2=wider'
p535
I383
sS'dobj=consulate'
p536
I110
sS'amod=sport'
p537
I59
sS'w+2=Iraq'
p538
I258
sS'aux=have'
p539
I68
sS'nn=Baghdad'
p540
I129
sS'w-2=girl'
p541
I554
sS'conj=enlist'
p542
I81
sS'prep=among'
p543
I164
sS'w-1=,'
p544
I388
sS'w-2=not'
p545
I586
sS'w-2=high'
p546
I562
sS'w-2=I'
p547
I506
sS'w+2=principle'
p548
I353
sS'conj=send'
p549
I85
sS'w+2=israeli'
p550
I325
sS'w-2=man'
p551
I578
sS'w-1=also'
p552
I401
sS'w+2=foreign'
p553
I310
sS'w+2=one'
p554
I343
sS'w+1=Adams'
p555
I185
sS'amod=recent'
p556
I55
sS'aux=should'
p557
I69
sS'w-2=case'
p558
I531
sS'w+2=pro-taliban'
p559
I354
sS'w-2=a'
p560
I515
sS'w-1=they'
p561
I491
sS'det=a'
p562
I93
sS'w-1=volunteer'
p563
I497
sS'w-1=a'
p564
I397
sS'infmod=move'
p565
I125
sS'w-1=daily'
p566
I416
sS'w-2=so'
p567
I609
sS'w-1=he'
p568
I434
sS'w+2=security'
p569
I363
sS'w-1=little'
p570
I450
sS'w-1=expand'
p571
I423
sS'w-2=include'
p572
I565
sS'dobj=embassy'
p573
I112
sS'amod=daily'
p574
I25
sS'w-1=-rrb-'
p575
I389
sS'w+1=from'
p576
I209
sS'w-2=very'
p577
I625
sS'amod=official'
p578
I48
sS'amod=physical'
p579
I52
sS'w-2=break'
p580
I528
sS'w+2=they'
p581
I374
sS'amod=several'
p582
I57
sS'w+1=center'
p583
I203
sS'w+2=senior'
p584
I364
sS'dobj=pastor'
p585
I121
sS'nn=Army'
p586
I128
sS'w+1=dermatitis'
p587
I205
sS'w+2=have'
p588
I316
sS'w-2=renew'
p589
I597
sS'w-2=near'
p590
I584
sS'w-2=there'
p591
I618
sS'amod=bilateral'
p592
I19
sS'amod=diplomatic'
p593
I27
sS'w-1=cause'
p594
I409
sS'w+1=but'
p595
I201
sS'w-1=sport'
p596
I488
sS'w-2=have'
p597
I560
sS'w+2=Senators'
p598
I267
sS'dobj=minister'
p599
I117
sS'w+2=authority'
p600
I284
sS'prep=from'
p601
I169
sS'amod=inappropriate'
p602
I38
sS'w+2=other'
p603
I344
sS'amod=close'
p604
I21
sS'w+1=when'
p605
I237
sS'w+2=republican'
p606
I362
sS'w-1=we'
p607
I498
sS'aux=to'
p608
I70
sS'w+2=surround'
p609
I370
sS'w-2=security'
p610
I603
sS'w-1=only'
p611
I466
sS'advcl=travel'
p612
I6
sS'w-1=get'
p613
I431
sS'w-1=full'
p614
I430
sS'w-2=dramatically'
p615
I543
sS'w-2=report'
p616
I598
sS'advmod=later'
p617
I12
sS'w+1=,'
p618
I182
sS'w+1=.'
p619
I183
sS'w-2=that'
p620
I616
sS'w+2=iranian'
p621
I324
sS'w+2=,'
p622
I244
sS'w+2=-'
p623
I245
sS'w+1=:'
p624
I184
sS'w-1=spokesman'
p625
I487
sS'neg=not'
p626
I127
sS'conj=tell'
p627
I86
sS'w-1=U.S.'
p628
I396
sS'w-2=,'
p629
I503
sS'w+1=I'
p630
I187
sS'w-1=international'
p631
I442
sS'w+2=both'
p632
I291
sS'w+2=representative'
p633
I361
sS'w+2=diplomacy'
p634
I303
sS'w-1=continue'
p635
I414
sS'w+1=a'
p636
I189
sS'w-1=potential'
p637
I473
sS'w-1=not'
p638
I461
sS'w+2=demand'
p639
I301
sS'w+1=he'
p640
I212
sS'w-2=Thaksin'
p641
I512
sS'w+1=detail'
p642
I206
sS'w-1=that'
p643
I489
sS'aux=be'
p644
I65
sS'w-2=for'
p645
I550
sS'w-2=lose'
p646
I577
sS'w+2=a'
p647
I276
ssS'dtype'
p648
cnumpy
float64
p649
sS'feature_names_'
p650
(lp651
g39
ag443
ag110
ag218
ag180
ag331
ag612
ag509
ag394
ag14
ag164
ag338
ag617
ag222
ag99
ag117
ag237
ag200
ag224
ag592
ag284
ag604
ag77
ag254
ag166
ag574
ag424
ag593
ag482
ag172
ag503
ag162
ag329
ag339
ag201
ag252
ag36
ag115
ag602
ag388
ag479
ag337
ag517
ag333
ag470
ag490
ag230
ag341
ag578
ag15
ag533
ag234
ag579
ag324
ag60
ag556
ag88
ag582
ag84
ag537
ag242
ag370
ag29
ag184
ag441
ag644
ag101
ag346
ag539
ag557
ag608
ag124
ag244
ag408
ag442
ag451
ag136
ag447
ag102
ag154
ag365
ag542
ag393
ag10
ag426
ag549
ag627
ag397
ag515
ag125
ag78
ag526
ag170
ag562
ag163
ag300
ag13
ag219
ag294
ag175
ag225
ag448
ag194
ag240
ag211
ag302
ag418
ag112
ag142
ag249
ag536
ag373
ag573
ag287
ag45
ag195
ag380
ag599
ag236
ag363
ag206
ag585
ag383
ag21
ag356
ag565
ag513
ag626
ag586
ag540
ag97
ag444
ag313
ag165
ag55
ag353
ag267
ag74
ag459
ag425
ag58
ag309
ag473
ag153
ag472
ag395
ag427
ag361
ag11
ag183
ag122
ag73
ag385
ag406
ag389
ag288
ag23
ag512
ag226
ag202
ag446
ag352
ag458
ag100
ag543
ag531
ag43
ag42
ag228
ag601
ag50
ag465
ag275
ag204
ag343
ag362
ag169
ag82
ag318
ag527
ag120
ag439
ag618
ag619
ag624
ag555
ag525
ag630
ag316
ag636
ag307
ag431
ag167
ag135
ag104
ag31
ag205
ag417
ag276
ag325
ag336
ag595
ag414
ag583
ag344
ag587
ag642
ag70
ag126
ag576
ag478
ag171
ag640
ag435
ag421
ag428
ag304
ag20
ag377
ag253
ag323
ag123
ag411
ag81
ag521
ag279
ag72
ag334
ag301
ag193
ag114
ag118
ag514
ag121
ag217
ag293
ag231
ag605
ag103
ag511
ag416
ag523
ag468
ag239
ag622
ag623
ag89
ag492
ag185
ag423
ag19
ag297
ag483
ag111
ag207
ag359
ag94
ag308
ag538
ag133
ag148
ag272
ag155
ag487
ag381
ag108
ag258
ag598
ag455
ag197
ag327
ag358
ag433
ag415
ag95
ag113
ag647
ag474
ag274
ag208
ag488
ag507
ag37
ag235
ag600
ag469
ag449
ag232
ag33
ag147
ag177
ag632
ag76
ag277
ag290
ag296
ag326
ag303
ag212
ag413
ag260
ag639
ag390
ag634
ag209
ag467
ag161
ag438
ag314
ag139
ag553
ag319
ag251
ag486
ag246
ag434
ag588
ag298
ag355
ag87
ag90
ag137
ag75
ag311
ag621
ag550
ag92
ag368
ag484
ag347
ag229
ag261
ag510
ag283
ag291
ag378
ag265
ag69
ag129
ag289
ag391
ag156
ag292
ag554
ag603
ag491
ag213
ag320
ag412
ag330
ag63
ag508
ag480
ag548
ag559
ag522
ag203
ag152
ag181
ag440
ag422
ag633
ag606
ag569
ag584
ag262
ag12
ag178
ag9
ag350
ag609
ag401
ag530
ag149
ag581
ag332
ag80
ag322
ag466
ag402
ag351
ag151
ag223
ag535
ag106
ag264
ag268
ag233
ag544
ag575
ag199
ag419
ag61
ag255
ag452
ag299
ag628
ag564
ag457
ag196
ag398
ag552
ag130
ag305
ag68
ag271
ag306
ag65
ag54
ag594
ag22
ag481
ag57
ag25
ag635
ag499
ag566
ag46
ag28
ag241
ag263
ag485
ag35
ag571
ag105
ag62
ag192
ag476
ag174
ag132
ag614
ag613
ag93
ag86
ag568
ag409
ag158
ag146
ag144
ag150
ag372
ag107
ag631
ag462
ag243
ag143
ag198
ag432
ag461
ag463
ag570
ag34
ag59
ag460
ag375
ag248
ag215
ag27
ag56
ag453
ag321
ag638
ag504
ag116
ag335
ag493
ag611
ag498
ag407
ag168
ag176
ag160
ag405
ag637
ag188
ag456
ag340
ag53
ag32
ag159
ag282
ag317
ag140
ag429
ag399
ag98
ag141
ag625
ag596
ag643
ag270
ag561
ag392
ag497
ag190
ag445
ag374
ag563
ag607
ag494
ag247
ag52
ag285
ag629
ag534
ag41
ag547
ag182
ag259
ag134
ag386
ag403
ag641
ag238
ag502
ag560
ag216
ag500
ag96
ag281
ag501
ag516
ag529
ag310
ag38
ag464
ag173
ag266
ag580
ag471
ag30
ag558
ag410
ag387
ag286
ag250
ag221
ag430
ag210
ag477
ag220
ag400
ag66
ag615
ag109
ag376
ag245
ag257
ag379
ag214
ag645
ag131
ag127
ag495
ag541
ag145
ag382
ag16
ag360
ag17
ag597
ag518
ag546
ag85
ag367
ag572
ag83
ag396
ag348
ag342
ag328
ag454
ag384
ag295
ag44
ag357
ag519
ag646
ag551
ag345
ag312
ag280
ag505
ag273
ag590
ag157
ag545
ag186
ag475
ag189
ag450
ag256
ag278
ag91
ag371
ag67
ag369
ag589
ag616
ag24
ag64
ag354
ag528
ag610
ag437
ag227
ag51
ag364
ag128
ag567
ag47
ag48
ag520
ag366
ag349
ag315
ag620
ag71
ag591
ag40
ag269
ag179
ag506
ag436
ag191
ag577
ag496
ag524
ag18
ag26
ag404
ag532
ag79
ag420
ag8
ag138
ag489
ag187
ag49
ag119
asS'separator'
p652
S'='
sS'sparse'
p653
I01
sb.