ccopy_reg
_reconstructor
p1
(csklearn.feature_extraction.dict_vectorizer
DictVectorizer
p2
c__builtin__
object
p3
NtRp4
(dp5
S'sort'
p6
I01
sS'feature_names_'
p7
(lp8
S'cc=and'
p9
aS'mark=as'
p10
aS'nsubj=#PRP#'
p11
aS'nsubj=shopper'
p12
aS'prep=among'
p13
aS'prep=through'
p14
aS'w+1=among'
p15
aS'w+1=through'
p16
aS'w+2=dozen'
p17
aS'w+2=microwave'
p18
aS'w+2=the'
p19
aS'w-1=shopper'
p20
aS'w-1=they'
p21
aS'w-1=while'
p22
aS'w-2=,'
p23
aS'w-2=ago'
p24
aS'w-2=the'
p25
aS'xcomp=check'
p26
asS'dtype'
p27
cnumpy
float64
p28
sS'vocabulary_'
p29
(dp30
g9
I0
sg23
I14
sg22
I13
sg13
I4
sg18
I9
sg17
I8
sg26
I17
sg10
I1
sg16
I7
sg20
I11
sg21
I12
sg15
I6
sg14
I5
sg12
I3
sg11
I2
sg19
I10
sg25
I16
sg24
I15
ssS'separator'
p31
S'='
sS'sparse'
p32
I01
sb.