ccopy_reg
_reconstructor
p1
(csklearn.feature_extraction.dict_vectorizer
DictVectorizer
p2
c__builtin__
object
p3
NtRp4
(dp5
S'sort'
p6
I01
sS'feature_names_'
p7
(lp8
S'abbrev=ISAF'
p9
aS'advcl=be'
p10
aS'advcl=begin'
p11
aS'advcl=build'
p12
aS'advcl=decide'
p13
aS'advcl=fight'
p14
aS'advcl=get'
p15
aS'advcl=go'
p16
aS'advcl=head'
p17
aS'advcl=kill'
p18
aS'advcl=make'
p19
aS'advcl=mark'
p20
aS'advcl=plan'
p21
aS'advcl=refuse'
p22
aS'advcl=repeat'
p23
aS'advcl=represent'
p24
aS'advcl=retire'
p25
aS'advcl=rise'
p26
aS'advcl=route'
p27
aS'advcl=set'
p28
aS'advcl=study'
p29
aS'advcl=to'
p30
aS'advcl=win'
p31
aS'advmod=again'
p32
aS'advmod=also'
p33
aS'advmod=away'
p34
aS'advmod=back'
p35
aS'advmod=clear'
p36
aS'advmod=clearly'
p37
aS'advmod=currently'
p38
aS'advmod=definitely'
p39
aS'advmod=early'
p40
aS'advmod=east'
p41
aS'advmod=economically'
p42
aS'advmod=especially'
p43
aS'advmod=here'
p44
aS'advmod=how'
p45
aS'advmod=inland'
p46
aS'advmod=later'
p47
aS'advmod=next'
p48
aS'advmod=northwest'
p49
aS'advmod=now'
p50
aS'advmod=officially'
p51
aS'advmod=once'
p52
aS'advmod=or'
p53
aS'advmod=out'
p54
aS'advmod=over'
p55
aS'advmod=perhaps'
p56
aS'advmod=possibly'
p57
aS'advmod=recently'
p58
aS'advmod=regardless'
p59
aS'advmod=soon'
p60
aS'advmod=south'
p61
aS'advmod=still'
p62
aS'advmod=then'
p63
aS'advmod=there'
p64
aS'advmod=too'
p65
aS'advmod=up'
p66
aS'advmod=west'
p67
aS'advmod=when'
p68
aS'advmod=where'
p69
aS'amod=African'
p70
aS'amod=african'
p71
aS'amod=appoint'
p72
aS'amod=brightly-illuminated'
p73
aS'amod=calmer'
p74
aS'amod=ceremonial'
p75
aS'amod=civilian'
p76
aS'amod=count'
p77
aS'amod=current'
p78
aS'amod=democratic'
p79
aS'amod=deputy'
p80
aS'amod=devananda'
p81
aS'amod=egyptian-born'
p82
aS'amod=elect'
p83
aS'amod=electoral-commission'
p84
aS'amod=embattled'
p85
aS'amod=enduring'
p86
aS'amod=fellow'
p87
aS'amod=female'
p88
aS'amod=few'
p89
aS'amod=first'
p90
aS'amod=flaw'
p91
aS'amod=foreign'
p92
aS'amod=former'
p93
aS'amod=ghanaian'
p94
aS'amod=global'
p95
aS'amod=heavy'
p96
aS'amod=human'
p97
aS'amod=influential'
p98
aS'amod=iranian'
p99
aS'amod=italian'
p100
aS'amod=last'
p101
aS'amod=local'
p102
aS'amod=longest-serving'
p103
aS'amod=many'
p104
aS'amod=more'
p105
aS'amod=new'
p106
aS'amod=newly-elected'
p107
aS'amod=next'
p108
aS'amod=nominal'
p109
aS'amod=numerous'
p110
aS'amod=other'
p111
aS'amod=outgoing'
p112
aS'amod=powerful'
p113
aS'amod=previous'
p114
aS'amod=public'
p115
aS'amod=radical'
p116
aS'amod=regional'
p117
aS'amod=republican'
p118
aS'amod=responsible'
p119
aS'amod=russian'
p120
aS'amod=scandinavian'
p121
aS'amod=several'
p122
aS'amod=sit'
p123
aS'amod=spiritual'
p124
aS'amod=strong'
p125
aS'amod=titular'
p126
aS'amod=tolerant'
p127
aS'amod=ugly'
p128
aS'amod=various'
p129
aS'amod=visit'
p130
aS'amod=youngest'
p131
aS'appos=Alkitiri'
p132
aS'appos=Asamoah'
p133
aS'appos=Baddour'
p134
aS'appos=Bala'
p135
aS'appos=Baral'
p136
aS'appos=Basbug'
p137
aS'appos=Bayo'
p138
aS'appos=Bedi'
p139
aS'appos=Bellinger'
p140
aS'appos=Bernard'
p141
aS'appos=Bertolaso'
p142
aS'appos=Blatter'
p143
aS'appos=Boynton'
p144
aS'appos=Camara'
p145
aS'appos=Chamoun'
p146
aS'appos=Cherkesov'
p147
aS'appos=Chiweshe'
p148
aS'appos=Churov'
p149
aS'appos=Costa'
p150
aS'appos=Dailey'
p151
aS'appos=DalilBoubakeur'
p152
aS'appos=Dannatt'
p153
aS'appos=Diallo'
p154
aS'appos=Diomande'
p155
aS'appos=Dobriansky'
p156
aS'appos=Doss'
p157
aS'appos=ElBaradei'
p158
aS'appos=Esele'
p159
aS'appos=Fatemi'
p160
aS'appos=Fedotov'
p161
aS'appos=Forgione'
p162
aS'appos=Gandhi'
p163
aS'appos=Gaye'
p164
aS'appos=Geagea'
p165
aS'appos=Go'
p166
aS'appos=Gomes'
p167
aS'appos=Gopal'
p168
aS'appos=Guehenno'
p169
aS'appos=Gurbanov'
p170
aS'appos=Haarburger'
p171
aS'appos=Haddad-Adel'
p172
aS'appos=Hall'
p173
aS'appos=Hormeku'
p174
aS'appos=Jackstam'
p175
aS'appos=Jain'
p176
aS'appos=Jordaan'
p177
aS'appos=Karat'
p178
aS'appos=Kikwete'
p179
aS'appos=Krisnamurthi'
p180
aS'appos=Kufuor'
p181
aS'appos=Long'
p182
aS'appos=Madisha'
p183
aS'appos=Mahmud'
p184
aS'appos=Manh'
p185
aS'appos=Martin'
p186
aS'appos=Masud'
p187
aS'appos=Matsasa'
p188
aS'appos=McGhie'
p189
aS'appos=Munyeza'
p190
aS'appos=Ngige'
p191
aS"appos=O'Reilly"
p192
aS'appos=Osman'
p193
aS'appos=Oxford'
p194
aS'appos=Paochinda'
p195
aS'appos=Paynor'
p196
aS'appos=Perera'
p197
aS'appos=Perra'
p198
aS'appos=Ping'
p199
aS'appos=Prince'
p200
aS'appos=Quaqua'
p201
aS'appos=Rao'
p202
aS'appos=Salehi'
p203
aS'appos=Samiel'
p204
aS'appos=Saxena'
p205
aS'appos=Sheeran'
p206
aS'appos=Strauss-Kahn'
p207
aS'appos=Tedstrom'
p208
aS'appos=Tsvangirai'
p209
aS'appos=U.S'
p210
aS'appos=Venter'
p211
aS'appos=Yadav'
p212
aS'appos=Zia'
p213
aS'appos=Zucula'
p214
aS'appos=al-Haidari'
p215
aS'appos=al-Hakim'
p216
aS'appos=organization'
p217
aS"aux='ll"
p218
aS'aux=be'
p219
aS'aux=can'
p220
aS'aux=could'
p221
aS'aux=have'
p222
aS'aux=may'
p223
aS'aux=might'
p224
aS'aux=should'
p225
aS'aux=to'
p226
aS'aux=will'
p227
aS'aux=would'
p228
aS'auxpass=appear'
p229
aS'auxpass=be'
p230
aS'cc=and'
p231
aS'cc=but'
p232
aS'cc=or'
p233
aS'ccomp=call'
p234
aS'ccomp=calm'
p235
aS'ccomp=carry'
p236
aS'ccomp=challenge'
p237
aS'ccomp=go'
p238
aS'ccomp=lead'
p239
aS'ccomp=stress'
p240
aS'ccomp=think'
p241
aS'ccomp=win'
p242
aS'complm=that'
p243
aS'complm=whether'
p244
aS'conj=#NUMBER#'
p245
aS'conj=Council'
p246
aS'conj=Mr.'
p247
aS'conj=States'
p248
aS'conj=ask'
p249
aS'conj=be'
p250
aS'conj=blame'
p251
aS'conj=businesswoman'
p252
aS'conj=cancer'
p253
aS'conj=cap'
p254
aS'conj=chest'
p255
aS'conj=claim'
p256
aS'conj=delegate'
p257
aS'conj=demonstrate'
p258
aS'conj=do'
p259
aS'conj=expect'
p260
aS'conj=fallout'
p261
aS'conj=foot'
p262
aS'conj=fund'
p263
aS'conj=head'
p264
aS'conj=hear'
p265
aS'conj=heart'
p266
aS'conj=investor'
p267
aS'conj=involve'
p268
aS'conj=lead'
p269
aS'conj=leader'
p270
aS'conj=leg'
p271
aS'conj=minister'
p272
aS'conj=neck'
p273
aS'conj=need'
p274
aS'conj=plan'
p275
aS'conj=president'
p276
aS'conj=prevent'
p277
aS'conj=rape'
p278
aS'conj=say'
p279
aS'conj=see'
p280
aS'conj=son'
p281
aS'conj=suit'
p282
aS'conj=troubleshooter'
p283
aS'conj=work'
p284
aS'cop=be'
p285
aS'cop=become'
p286
aS'cop=remain'
p287
aS'csubj=hold'
p288
aS'dep=#NUMBER#'
p289
aS"dep='s"
p290
aS'dep=Basbug'
p291
aS'dep=Breteau'
p292
aS'dep=Centre'
p293
aS'dep=Committee'
p294
aS'dep=Commonwealth'
p295
aS'dep=Congress'
p296
aS'dep=Conte'
p297
aS'dep=Council'
p298
aS'dep=Division'
p299
aS'dep=Foundation'
p300
aS'dep=KGB'
p301
aS'dep=Militia'
p302
aS'dep=Russia'
p303
aS'dep=after'
p304
aS'dep=appear'
p305
aS'dep=as'
p306
aS'dep=be'
p307
aS'dep=composite'
p308
aS'dep=know'
p309
aS'dep=marxist'
p310
aS'dep=no'
p311
aS'dep=of'
p312
aS'dep=organization'
p313
aS'dep=oversee'
p314
aS'dep=rank'
p315
aS'dep=rely'
p316
aS'dep=s'
p317
aS'dep=search'
p318
aS'dep=state'
p319
aS'dep=that'
p320
aS'dep=walk'
p321
aS'dep=well'
p322
aS'dep=whose'
p323
aS'dep=without'
p324
aS'dep=write'
p325
aS'det=a'
p326
aS'det=all'
p327
aS'det=every'
p328
aS'det=no'
p329
aS'det=some'
p330
aS'det=that'
p331
aS'det=the'
p332
aS'dobj=#NUMBER#'
p333
aS'dobj=Affairs'
p334
aS'dobj=Agency'
p335
aS'dobj=Authority'
p336
aS'dobj=Bangladesh'
p337
aS'dobj=Bank'
p338
aS'dobj=CPP'
p339
aS'dobj=Cabinet'
p340
aS'dobj=Caucus'
p341
aS'dobj=Center'
p342
aS'dobj=Citizens'
p343
aS'dobj=Coalition'
p344
aS'dobj=Commission'
p345
aS'dobj=Committee'
p346
aS'dobj=Corporation'
p347
aS'dobj=Council'
p348
aS'dobj=Database'
p349
aS'dobj=Department'
p350
aS'dobj=Economic'
p351
aS'dobj=Fatah'
p352
aS'dobj=Foundation'
p353
aS'dobj=Group'
p354
aS'dobj=Horn'
p355
aS'dobj=Initiative'
p356
aS'dobj=Institute'
p357
aS'dobj=JI'
p358
aS'dobj=Laden'
p359
aS'dobj=League'
p360
aS'dobj=MRAP'
p361
aS'dobj=Ministry'
p362
aS'dobj=Mission'
p363
aS'dobj=Movement'
p364
aS'dobj=Museum'
p365
aS'dobj=Navy'
p366
aS'dobj=Office'
p367
aS'dobj=Party'
p368
aS'dobj=Peace'
p369
aS'dobj=Program'
p370
aS'dobj=Research'
p371
aS'dobj=RoMeLa'
p372
aS'dobj=Ropemakers'
p373
aS'dobj=Society'
p374
aS'dobj=Union'
p375
aS'dobj=University'
p376
aS'dobj=Veterans'
p377
aS'dobj=VoteVets.org'
p378
aS'dobj=a'
p379
aS'dobj=agency'
p380
aS'dobj=alliance'
p381
aS'dobj=archdiocese'
p382
aS'dobj=army'
p383
aS'dobj=association'
p384
aS'dobj=bloc'
p385
aS'dobj=bloodsucker'
p386
aS'dobj=body'
p387
aS'dobj=branch'
p388
aS'dobj=bureau'
p389
aS'dobj=campaign'
p390
aS'dobj=campaigning'
p391
aS'dobj=center'
p392
aS'dobj=chapter'
p393
aS'dobj=charity'
p394
aS'dobj=church'
p395
aS'dobj=coach'
p396
aS'dobj=coalition'
p397
aS'dobj=command'
p398
aS'dobj=commission'
p399
aS'dobj=committee'
p400
aS'dobj=company'
p401
aS'dobj=condition'
p402
aS'dobj=conference'
p403
aS'dobj=confrontation'
p404
aS'dobj=consequence'
p405
aS'dobj=consortium'
p406
aS'dobj=council'
p407
aS'dobj=country'
p408
aS'dobj=crisis'
p409
aS'dobj=delegation'
p410
aS'dobj=department'
p411
aS'dobj=division'
p412
aS'dobj=doctor'
p413
aS'dobj=dynasty'
p414
aS'dobj=effort'
p415
aS'dobj=environment'
p416
aS'dobj=epidemic'
p417
aS'dobj=faction'
p418
aS'dobj=family'
p419
aS'dobj=federation'
p420
aS'dobj=firm'
p421
aS'dobj=force'
p422
aS'dobj=foundation'
p423
aS'dobj=front'
p424
aS'dobj=government'
p425
aS'dobj=group'
p426
aS'dobj=home'
p427
aS'dobj=household'
p428
aS'dobj=hunt'
p429
aS'dobj=infestation'
p430
aS'dobj=kilometer'
p431
aS'dobj=lab'
p432
aS'dobj=list'
p433
aS'dobj=little'
p434
aS'dobj=match-up'
p435
aS'dobj=meeting'
p436
aS'dobj=militia'
p437
aS'dobj=mission'
p438
aS'dobj=movement'
p439
aS'dobj=nation'
p440
aS'dobj=office'
p441
aS'dobj=oils'
p442
aS'dobj=operation'
p443
aS'dobj=organization'
p444
aS'dobj=panel'
p445
aS'dobj=participant'
p446
aS'dobj=party'
p447
aS'dobj=path'
p448
aS'dobj=peace'
p449
aS'dobj=polity'
p450
aS'dobj=prison'
p451
aS'dobj=problem'
p452
aS'dobj=program'
p453
aS'dobj=rally'
p454
aS'dobj=right'
p455
aS'dobj=road'
p456
aS'dobj=service'
p457
aS'dobj=squad'
p458
aS'dobj=state'
p459
aS'dobj=stop'
p460
aS'dobj=strike'
p461
aS'dobj=study'
p462
aS'dobj=subcommittee'
p463
aS'dobj=summit'
p464
aS'dobj=survey'
p465
aS'dobj=talk'
p466
aS'dobj=tank'
p467
aS'dobj=team'
p468
aS'dobj=the'
p469
aS'dobj=ticket'
p470
aS'dobj=underground'
p471
aS'dobj=unit'
p472
aS'dobj=violence'
p473
aS'dobj=voyage'
p474
aS'dobj=way'
p475
aS'dobj=west'
p476
aS'dobj=which'
p477
aS'dobj=worst'
p478
aS'expl=there'
p479
aS'infmod=cope'
p480
aS'infmod=gather'
p481
aS'infmod=respond'
p482
aS'mark=about'
p483
aS'mark=after'
p484
aS'mark=although'
p485
aS'mark=as'
p486
aS'mark=because'
p487
aS'mark=before'
p488
aS'mark=while'
p489
aS'mark=with'
p490
aS'neg=not'
p491
aS'nn=#NUMBER#'
p492
aS'nn=Agency'
p493
aS'nn=Arab'
p494
aS'nn=Ark'
p495
aS'nn=CIA'
p496
aS'nn=Commonwealth'
p497
aS'nn=EU'
p498
aS'nn=I.M.F.'
p499
aS'nn=Musharraf'
p500
aS'nn=NATO'
p501
aS'nn=Programs'
p502
aS'nn=Qureshi'
p503
aS'nn=Rouge'
p504
aS'nn=Sison'
p505
aS'nn=U.N.'
p506
aS'nn=WFP'
p507
aS'nn=affair'
p508
aS'nn=bang'
p509
aS'nn=bronze'
p510
aS'nn=city'
p511
aS'nn=commerce'
p512
aS'nn=committee'
p513
aS'nn=corruption'
p514
aS'nn=council'
p515
aS'nn=country'
p516
aS'nn=day'
p517
aS'nn=deputy'
p518
aS'nn=district'
p519
aS'nn=dragon'
p520
aS'nn=latex'
p521
aS'nn=malaria'
p522
aS'nn=peacock'
p523
aS'nn=policy'
p524
aS'nn=program'
p525
aS'nn=race'
p526
aS'nn=readout'
p527
aS'nn=school'
p528
aS'nn=stone'
p529
aS'nsubj=#PRP#'
p530
aS'nsubj=Abbas'
p531
aS'nsubj=Abdullah'
p532
aS'nsubj=Abolkomsan'
p533
aS'nsubj=Abraham'
p534
aS'nsubj=Afghanistan'
p535
aS'nsubj=Afghans'
p536
aS'nsubj=Africa'
p537
aS'nsubj=Agarwal'
p538
aS'nsubj=Alex'
p539
aS'nsubj=Alon'
p540
aS'nsubj=Americans'
p541
aS'nsubj=Anderson'
p542
aS'nsubj=Bacani'
p543
aS'nsubj=Baffoe-Wilmot'
p544
aS'nsubj=Bailey'
p545
aS'nsubj=Bakir'
p546
aS'nsubj=Barroso'
p547
aS'nsubj=Bartholomew'
p548
aS'nsubj=Beckham'
p549
aS'nsubj=Bee'
p550
aS'nsubj=Benedict'
p551
aS'nsubj=Bhutto'
p552
aS'nsubj=Blase'
p553
aS'nsubj=Bowen'
p554
aS'nsubj=Brown'
p555
aS'nsubj=Bullock'
p556
aS'nsubj=Bush'
p557
aS'nsubj=Casiple'
p558
aS'nsubj=Castro'
p559
aS'nsubj=Chan'
p560
aS'nsubj=Chantha'
p561
aS'nsubj=Chisi'
p562
aS'nsubj=Clarke'
p563
aS'nsubj=Clinton'
p564
aS'nsubj=Condello'
p565
aS'nsubj=Congress'
p566
aS'nsubj=Costa'
p567
aS'nsubj=Danziger'
p568
aS'nsubj=Daschle'
p569
aS'nsubj=Dennis'
p570
aS'nsubj=Diamandis'
p571
aS'nsubj=Dizaiy'
p572
aS'nsubj=Doan'
p573
aS'nsubj=Duch'
p574
aS'nsubj=El-Erian'
p575
aS'nsubj=Ertll'
p576
aS'nsubj=Esperanza'
p577
aS'nsubj=Ethiopia'
p578
aS'nsubj=Europeans'
p579
aS'nsubj=Farooqi'
p580
aS'nsubj=Ferguson'
p581
aS'nsubj=Fong'
p582
aS'nsubj=France'
p583
aS'nsubj=Ganzer'
p584
aS'nsubj=Geelani'
p585
aS'nsubj=Georgia'
p586
aS'nsubj=Gizenga'
p587
aS'nsubj=Glenn'
p588
aS'nsubj=Greene'
p589
aS'nsubj=Gyanendra'
p590
aS'nsubj=Haldea'
p591
aS'nsubj=Hamilton'
p592
aS'nsubj=Hardi'
p593
aS'nsubj=Hariri'
p594
aS'nsubj=Hasina'
p595
aS'nsubj=Hebebrand'
p596
aS'nsubj=Henderson'
p597
aS'nsubj=Hill'
p598
aS'nsubj=Holzhausen'
p599
aS'nsubj=IAEA'
p600
aS'nsubj=Ivan'
p601
aS'nsubj=Jong'
p602
aS'nsubj=Kaba'
p603
aS'nsubj=Kadima'
p604
aS'nsubj=Keating'
p605
aS'nsubj=Kilpatrick'
p606
aS'nsubj=King'
p607
aS'nsubj=Kostunica'
p608
aS'nsubj=Kumar'
p609
aS'nsubj=Lange'
p610
aS'nsubj=League'
p611
aS'nsubj=Leterme'
p612
aS'nsubj=Levin'
p613
aS'nsubj=Lewis'
p614
aS'nsubj=Lubanga'
p615
aS'nsubj=Malik'
p616
aS'nsubj=Marchenko'
p617
aS'nsubj=Marcus'
p618
aS'nsubj=Martin'
p619
aS'nsubj=Martinez'
p620
aS'nsubj=Matsusaka'
p621
aS'nsubj=Maza'
p622
aS'nsubj=McCain'
p623
aS'nsubj=Mishel'
p624
aS'nsubj=Mitiku'
p625
aS'nsubj=Moeller'
p626
aS'nsubj=Moo-hyun'
p627
aS'nsubj=Morales'
p628
aS'nsubj=Mosola'
p629
aS'nsubj=Mujani'
p630
aS'nsubj=Musharraf'
p631
aS'nsubj=Narain'
p632
aS'nsubj=Ngudjolo'
p633
aS"nsubj=O'Brien"
p634
aS'nsubj=Obama'
p635
aS'nsubj=Olmert'
p636
aS'nsubj=Owalla'
p637
aS'nsubj=Oxburgh'
p638
aS'nsubj=Panha'
p639
aS'nsubj=Panindiker'
p640
aS'nsubj=Pasche'
p641
aS'nsubj=Perera'
p642
aS'nsubj=Power'
p643
aS'nsubj=Propeack'
p644
aS'nsubj=Ravigiole'
p645
aS'nsubj=Remy'
p646
aS'nsubj=Rice'
p647
aS'nsubj=Rong'
p648
aS'nsubj=Sabanci'
p649
aS'nsubj=Salonga'
p650
aS'nsubj=Samak'
p651
aS'nsubj=Sampaio'
p652
aS'nsubj=Sarkozy'
p653
aS'nsubj=Schalkwyk'
p654
aS'nsubj=Secretary'
p655
aS'nsubj=Service'
p656
aS'nsubj=Sharif'
p657
aS'nsubj=Sloan'
p658
aS'nsubj=Solana'
p659
aS'nsubj=Starr'
p660
aS'nsubj=States'
p661
aS'nsubj=Steinhardt'
p662
aS'nsubj=Stirrup'
p663
aS'nsubj=Syed'
p664
aS'nsubj=Taylor'
p665
aS'nsubj=Thaci'
p666
aS'nsubj=Tonwe'
p667
aS'nsubj=Trucks'
p668
aS'nsubj=Tsvangiari'
p669
aS'nsubj=U.S.'
p670
aS'nsubj=Venezuela'
p671
aS'nsubj=Vincent'
p672
aS'nsubj=Vroome'
p673
aS'nsubj=Wade'
p674
aS'nsubj=Zia'
p675
aS'nsubj=admiral'
p676
aS'nsubj=ambassador'
p677
aS'nsubj=bag'
p678
aS'nsubj=bather'
p679
aS'nsubj=campaign'
p680
aS'nsubj=car'
p681
aS'nsubj=carrier'
p682
aS'nsubj=chairman'
p683
aS'nsubj=chief'
p684
aS'nsubj=container'
p685
aS'nsubj=contest'
p686
aS'nsubj=convoy'
p687
aS'nsubj=country'
p688
aS'nsubj=customer'
p689
aS'nsubj=delegate'
p690
aS'nsubj=diplomat'
p691
aS'nsubj=director'
p692
aS'nsubj=election'
p693
aS'nsubj=engineer'
p694
aS'nsubj=fall'
p695
aS'nsubj=fighting'
p696
aS'nsubj=flame'
p697
aS'nsubj=game'
p698
aS'nsubj=general'
p699
aS'nsubj=government'
p700
aS'nsubj=group'
p701
aS'nsubj=hiker'
p702
aS'nsubj=job'
p703
aS'nsubj=kamath'
p704
aS'nsubj=lawmaker'
p705
aS'nsubj=majority'
p706
aS'nsubj=many'
p707
aS'nsubj=minister'
p708
aS'nsubj=most'
p709
aS'nsubj=nation'
p710
aS'nsubj=number'
p711
aS'nsubj=official'
p712
aS'nsubj=one-fifth'
p713
aS'nsubj=pilgrim'
p714
aS'nsubj=plane'
p715
aS'nsubj=position'
p716
aS'nsubj=president'
p717
aS'nsubj=project'
p718
aS'nsubj=rebel'
p719
aS'nsubj=relative'
p720
aS'nsubj=salmon'
p721
aS'nsubj=secretary'
p722
aS'nsubj=ship'
p723
aS'nsubj=soldier'
p724
aS'nsubj=son'
p725
aS'nsubj=spacecraft'
p726
aS'nsubj=storm'
p727
aS'nsubj=team'
p728
aS'nsubj=that'
p729
aS'nsubj=thing'
p730
aS'nsubj=this'
p731
aS'nsubj=tourist'
p732
aS'nsubj=troops'
p733
aS'nsubj=undersecretary'
p734
aS'nsubj=voter'
p735
aS'nsubj=weapon'
p736
aS'nsubj=which'
p737
aS'nsubj=who'
p738
aS'nsubj=worker'
p739
aS'nsubjpass=#NUMBER#'
p740
aS'nsubjpass=#PRP#'
p741
aS'nsubjpass=Iraq'
p742
aS'nsubjpass=Secretary'
p743
aS'nsubjpass=States'
p744
aS'nsubjpass=U.S.'
p745
aS'nsubjpass=commission'
p746
aS'nsubjpass=country'
p747
aS'nsubjpass=delegation'
p748
aS'nsubjpass=expert'
p749
aS'nsubjpass=featherweight'
p750
aS'nsubjpass=government'
p751
aS'nsubjpass=household'
p752
aS'nsubjpass=life'
p753
aS'nsubjpass=machine'
p754
aS'nsubjpass=most'
p755
aS'nsubjpass=nation'
p756
aS'nsubjpass=official'
p757
aS'nsubjpass=one-fifth'
p758
aS'nsubjpass=party'
p759
aS'nsubjpass=president'
p760
aS'nsubjpass=process'
p761
aS'nsubjpass=program'
p762
aS'nsubjpass=republic'
p763
aS'nsubjpass=soldier-son'
p764
aS'nsubjpass=statement'
p765
aS'nsubjpass=that'
p766
aS'nsubjpass=thing'
p767
aS'nsubjpass=which'
p768
aS'nsubjpass=who'
p769
aS'num=#NUMBER#'
p770
aS'num=dozen'
p771
aS'parataxis=say'
p772
aS'partmod=arm'
p773
aS'partmod=cover'
p774
aS'partmod=hear'
p775
aS'partmod=hold'
p776
aS'partmod=leave'
p777
aS'partmod=name'
p778
aS'partmod=record'
p779
aS'partmod=retire'
p780
aS'partmod=smash'
p781
aS'partmod=sneak'
p782
aS'poss=#PRP#'
p783
aS'poss=Africa'
p784
aS'poss=BBC'
p785
aS'poss=Barzan'
p786
aS'poss=Bhutto'
p787
aS'poss=DEA'
p788
aS'poss=Fretilin'
p789
aS'poss=India'
p790
aS'poss=Indonesia'
p791
aS'poss=Israel'
p792
aS'poss=Kerk'
p793
aS'poss=Lebanon'
p794
aS'poss=Russia'
p795
aS'poss=U.N.'
p796
aS'poss=Zimbabwe'
p797
aS'poss=Zoe'
p798
aS'poss=animal'
p799
aS'poss=anybody'
p800
aS'poss=citizen'
p801
aS'poss=commission'
p802
aS'poss=company'
p803
aS'poss=country'
p804
aS'poss=dockyard'
p805
aS'poss=fair'
p806
aS'poss=officer'
p807
aS'poss=opponent'
p808
aS'poss=pig'
p809
aS'poss=site'
p810
aS'poss=somebody'
p811
aS'poss=son'
p812
aS'poss=whose'
p813
aS'poss=world'
p814
aS"possessive='s"
p815
aS'preconj=both'
p816
aS'predet=all'
p817
aS'prep=about'
p818
aS'prep=above'
p819
aS'prep=across'
p820
aS'prep=after'
p821
aS'prep=amid'
p822
aS'prep=among'
p823
aS'prep=as'
p824
aS'prep=at'
p825
aS'prep=base'
p826
aS'prep=because'
p827
aS'prep=before'
p828
aS'prep=behind'
p829
aS'prep=by'
p830
aS'prep=down'
p831
aS'prep=during'
p832
aS'prep=follow'
p833
aS'prep=for'
p834
aS'prep=from'
p835
aS'prep=in'
p836
aS'prep=include'
p837
aS'prep=into'
p838
aS'prep=of'
p839
aS'prep=off'
p840
aS'prep=on'
p841
aS'prep=over'
p842
aS'prep=past'
p843
aS'prep=since'
p844
aS'prep=that'
p845
aS'prep=then'
p846
aS'prep=throughout'
p847
aS'prep=to'
p848
aS'prep=toward'
p849
aS'prep=towards'
p850
aS'prep=up'
p851
aS'prep=while'
p852
aS'prep=with'
p853
aS'prep=without'
p854
aS'prt=down'
p855
aS'prt=off'
p856
aS'prt=out'
p857
aS'prt=up'
p858
aS'rcmod=attend'
p859
aS'rcmod=cover'
p860
aS'rcmod=end'
p861
aS'rcmod=handle'
p862
aS'rcmod=have'
p863
aS'rcmod=head'
p864
aS'rcmod=host'
p865
aS'rcmod=live'
p866
aS'rcmod=maintain'
p867
aS'rcmod=make'
p868
aS'rcmod=part'
p869
aS'rcmod=run'
p870
aS'rcmod=say'
p871
aS'rcmod=send'
p872
aS'rcmod=supervise'
p873
aS'rcmod=tend'
p874
aS'rcmod=woman'
p875
aS'rel=in'
p876
aS'tmod=#DATE#'
p877
aS'tmod=Bhutto'
p878
aS'tmod=Institute'
p879
aS'tmod=Party'
p880
aS'tmod=day'
p881
aS'tmod=month'
p882
aS'tmod=offensive'
p883
aS'tmod=week'
p884
aS'tmod=year'
p885
aS"w+1='"
p886
aS"w+1='s"
p887
aS'w+1=,'
p888
aS'w+1=-lrb-'
p889
aS'w+1=.'
p890
aS'w+1=;'
p891
aS'w+1=Adnan'
p892
aS'w+1=Alan'
p893
aS'w+1=Alpha'
p894
aS'w+1=Bangladesh'
p895
aS'w+1=Belgium'
p896
aS'w+1=Chun'
p897
aS'w+1=Citizens'
p898
aS'w+1=Contract'
p899
aS'w+1=Eduardo'
p900
aS'w+1=Elliot'
p901
aS'w+1=Eric'
p902
aS'w+1=Fatah'
p903
aS'w+1=Frances'
p904
aS'w+1=Global'
p905
aS'w+1=Hong'
p906
aS'w+1=Intentional'
p907
aS'w+1=Israel'
p908
aS'w+1=JI'
p909
aS'w+1=Kennedy'
p910
aS'w+1=Khare'
p911
aS'w+1=Kim'
p912
aS'w+1=Manila'
p913
aS'w+1=Master'
p914
aS'w+1=Maurice'
p915
aS'w+1=Mazda'
p916
aS'w+1=Military'
p917
aS'w+1=Mohamed'
p918
aS'w+1=Mohammed'
p919
aS'w+1=Mr.'
p920
aS'w+1=NABE'
p921
aS'w+1=New'
p922
aS'w+1=Nobuo'
p923
aS'w+1=Nuhu'
p924
aS'w+1=Pacific'
p925
aS'w+1=Pakistan'
p926
aS'w+1=Patrick'
p927
aS'w+1=Research'
p928
aS'w+1=RoMeLa'
p929
aS'w+1=Syria'
p930
aS'w+1=Thursday'
p931
aS'w+1=Tom'
p932
aS'w+1=U.N.'
p933
aS'w+1=U.S.'
p934
aS'w+1=United'
p935
aS'w+1=Veterans'
p936
aS'w+1=Vladimir'
p937
aS'w+1=World'
p938
aS'w+1=a'
p939
aS'w+1=about'
p940
aS'w+1=above'
p941
aS'w+1=after'
p942
aS'w+1=again'
p943
aS'w+1=against'
p944
aS'w+1=and'
p945
aS'w+1=another'
p946
aS'w+1=arm'
p947
aS'w+1=as'
p948
aS'w+1=at'
p949
aS'w+1=away'
p950
aS'w+1=back'
p951
aS'w+1=base'
p952
aS'w+1=be'
p953
aS'w+1=behind'
p954
aS'w+1=by'
p955
aS'w+1=cam'
p956
aS'w+1=camera'
p957
aS'w+1=coach'
p958
aS'w+1=coaching'
p959
aS'w+1=count'
p960
aS'w+1=cover'
p961
aS'w+1=covering'
p962
aS'w+1=d1'
p963
aS'w+1=detail'
p964
aS'w+1=down'
p965
aS'w+1=east'
p966
aS'w+1=election'
p967
aS'w+1=firearm'
p968
aS'w+1=follow'
p969
aS'w+1=for'
p970
aS'w+1=from'
p971
aS'w+1=front'
p972
aS'w+1=general'
p973
aS'w+1=government'
p974
aS'w+1=have'
p975
aS'w+1=he'
p976
aS'w+1=here'
p977
aS'w+1=hold'
p978
aS'w+1=home'
p979
aS'w+1=household'
p980
aS'w+1=in'
p981
aS'w+1=injury'
p982
aS'w+1=inland'
p983
aS'w+1=instead'
p984
aS'w+1=into'
p985
aS'w+1=investigation'
p986
aS'w+1=investigator'
p987
aS'w+1=its'
p988
aS'w+1=last'
p989
aS'w+1=lead'
p990
aS'w+1=local'
p991
aS'w+1=match-up'
p992
aS'w+1=move'
p993
aS'w+1=negotiator'
p994
aS'w+1=next'
p995
aS'w+1=no'
p996
aS'w+1=northwest'
p997
aS'w+1=nurse'
p998
aS'w+1=of'
p999
aS'w+1=ofdelegation'
p1000
aS'w+1=off'
p1001
aS'w+1=on'
p1002
aS'w+1=one'
p1003
aS'w+1=or'
p1004
aS'w+1=out'
p1005
aS'w+1=over'
p1006
aS'w+1=parliament'
p1007
aS'w+1=pickler'
p1008
aS'w+1=point'
p1009
aS'w+1=price'
p1010
aS'w+1=prosecutor'
p1011
aS'w+1=right'
p1012
aS'w+1=rival'
p1013
aS'w+1=say'
p1014
aS'w+1=scarf'
p1015
aS'w+1=shave'
p1016
aS'w+1=slapping'
p1017
aS'w+1=smash'
p1018
aS'w+1=so'
p1019
aS'w+1=south'
p1020
aS'w+1=start'
p1021
aS'w+1=sugar'
p1022
aS'w+1=talk'
p1023
aS'w+1=teacher'
p1024
aS'w+1=that'
p1025
aS'w+1=the'
p1026
aS'w+1=they'
p1027
aS'w+1=this'
p1028
aS'w+1=through'
p1029
aS'w+1=throughout'
p1030
aS'w+1=to'
p1031
aS'w+1=together'
p1032
aS'w+1=toward'
p1033
aS'w+1=towards'
p1034
aS'w+1=two'
p1035
aS'w+1=underground'
p1036
aS'w+1=up'
p1037
aS'w+1=upriver'
p1038
aS'w+1=we'
p1039
aS'w+1=west'
p1040
aS'w+1=when'
p1041
aS'w+1=while'
p1042
aS'w+1=with'
p1043
aS'w+1=would'
p1044
aS"w+2=''"
p1045
aS"w+2='s"
p1046
aS'w+2=,'
p1047
aS'w+2=-'
p1048
aS'w+2=-lrb-'
p1049
aS'w+2=.'
p1050
aS'w+2=1974'
p1051
aS'w+2=2004'
p1052
aS'w+2=2007'
p1053
aS'w+2=26-person'
p1054
aS'w+2=40'
p1055
aS'w+2=?'
p1056
aS'w+2=Addis'
p1057
aS'w+2=Advertising'
p1058
aS'w+2=Afghanistan'
p1059
aS'w+2=Africa'
p1060
aS'w+2=African'
p1061
aS'w+2=Ahmadinejad'
p1062
aS'w+2=Ahmed'
p1063
aS'w+2=Alex'
p1064
aS'w+2=Ali'
p1065
aS'w+2=Alliance'
p1066
aS'w+2=America'
p1067
aS'w+2=Amnesty'
p1068
aS'w+2=Anil'
p1069
aS'w+2=Annobon'
p1070
aS'w+2=Arthur'
p1071
aS'w+2=Ashakiran'
p1072
aS'w+2=Asia'
p1073
aS'w+2=Australia'
p1074
aS'w+2=Automobile'
p1075
aS'w+2=Awami'
p1076
aS'w+2=Baghdad'
p1077
aS'w+2=Bali'
p1078
aS'w+2=Bangladesh'
p1079
aS'w+2=Bank'
p1080
aS'w+2=Beijing'
p1081
aS'w+2=Brazil'
p1082
aS'w+2=Breteau'
p1083
aS'w+2=Britain'
p1084
aS'w+2=Brussels'
p1085
aS'w+2=Buckhingham'
p1086
aS'w+2=Buckingham'
p1087
aS'w+2=CPP'
p1088
aS'w+2=Cabinet'
p1089
aS'w+2=California'
p1090
aS'w+2=Cambodia'
p1091
aS'w+2=Camp'
p1092
aS'w+2=Canada'
p1093
aS'w+2=Carana'
p1094
aS'w+2=Carlos'
p1095
aS'w+2=Center'
p1096
aS'w+2=Chad'
p1097
aS'w+2=Chandigarh'
p1098
aS'w+2=China'
p1099
aS'w+2=Colombia'
p1100
aS'w+2=Colombo'
p1101
aS'w+2=Committee'
p1102
aS'w+2=Commonwealth'
p1103
aS'w+2=Communications'
p1104
aS'w+2=Community'
p1105
aS'w+2=Craft'
p1106
aS'w+2=Cuba'
p1107
aS'w+2=Cyprus'
p1108
aS'w+2=Davos'
p1109
aS'w+2=Defense'
p1110
aS'w+2=Delhi'
p1111
aS'w+2=Democratic'
p1112
aS'w+2=Department'
p1113
aS'w+2=Doss'
p1114
aS'w+2=Douglas'
p1115
aS'w+2=Dube'
p1116
aS'w+2=EU'
p1117
aS'w+2=Economic'
p1118
aS'w+2=Edinburgh'
p1119
aS'w+2=Egypt'
p1120
aS'w+2=Ehud'
p1121
aS'w+2=El'
p1122
aS'w+2=ElBaradei'
p1123
aS'w+2=Electoral'
p1124
aS'w+2=Equal'
p1125
aS'w+2=European'
p1126
aS'w+2=FIFA'
p1127
aS'w+2=FSB'
p1128
aS'w+2=Fannie'
p1129
aS'w+2=Federal'
p1130
aS'w+2=Florida'
p1131
aS'w+2=Fortune'
p1132
aS'w+2=France'
p1133
aS'w+2=GSA'
p1134
aS'w+2=Garuda'
p1135
aS'w+2=Gaza'
p1136
aS'w+2=General'
p1137
aS'w+2=Germany'
p1138
aS'w+2=Gershon'
p1139
aS'w+2=Ghana'
p1140
aS'w+2=Goma'
p1141
aS'w+2=Gondar'
p1142
aS'w+2=Green'
p1143
aS'w+2=Greg'
p1144
aS'w+2=Guinea'
p1145
aS'w+2=Hak'
p1146
aS'w+2=Hamas'
p1147
aS'w+2=Hezbollah'
p1148
aS'w+2=Hotline'
p1149
aS'w+2=House'
p1150
aS'w+2=I'
p1151
aS'w+2=ICICI'
p1152
aS'w+2=India'
p1153
aS'w+2=Indonesia'
p1154
aS'w+2=Institute'
p1155
aS'w+2=International'
p1156
aS'w+2=Iran'
p1157
aS'w+2=Iraq'
p1158
aS'w+2=Israel'
p1159
aS'w+2=Italy'
p1160
aS'w+2=Ivory'
p1161
aS'w+2=Iwu'
p1162
aS'w+2=Jehad'
p1163
aS'w+2=Jerusalem'
p1164
aS'w+2=Johann'
p1165
aS'w+2=John'
p1166
aS'w+2=Justice'
p1167
aS'w+2=Kabul'
p1168
aS'w+2=Kenya'
p1169
aS'w+2=Kong'
p1170
aS'w+2=Kosovo'
p1171
aS'w+2=Kurdish'
p1172
aS'w+2=LaSorda'
p1173
aS'w+2=Labor'
p1174
aS'w+2=Lebanon'
p1175
aS'w+2=Liberia'
p1176
aS'w+2=London'
p1177
aS'w+2=Lounceny'
p1178
aS'w+2=Lozes'
p1179
aS'w+2=Macbeth'
p1180
aS'w+2=Manyika'
p1181
aS'w+2=Maramtu'
p1182
aS'w+2=Mars'
p1183
aS'w+2=Martin'
p1184
aS'w+2=Mauritania'
p1185
aS'w+2=Media'
p1186
aS'w+2=Mexico'
p1187
aS'w+2=Michael'
p1188
aS'w+2=Middle'
p1189
aS'w+2=Missouri'
p1190
aS'w+2=Moqtada'
p1191
aS'w+2=Mozambique'
p1192
aS'w+2=Mr.'
p1193
aS'w+2=Mukhammetnazar'
p1194
aS'w+2=Mumbai'
p1195
aS'w+2=Nabus'
p1196
aS'w+2=Namibia'
p1197
aS'w+2=Nashville'
p1198
aS'w+2=Navy'
p1199
aS'w+2=Nepal'
p1200
aS'w+2=New'
p1201
aS'w+2=Newspoll'
p1202
aS'w+2=Nigeria'
p1203
aS'w+2=Nkunda'
p1204
aS'w+2=North'
p1205
aS'w+2=OCHA'
p1206
aS'w+2=Orazmyrad'
p1207
aS'w+2=Oumar'
p1208
aS'w+2=Pacific'
p1209
aS'w+2=Pakistan'
p1210
aS'w+2=Palestinian'
p1211
aS'w+2=Pericles'
p1212
aS'w+2=Pia'
p1213
aS'w+2=President'
p1214
aS'w+2=Prime'
p1215
aS'w+2=Puntland'
p1216
aS'w+2=Qatar'
p1217
aS'w+2=Raila'
p1218
aS'w+2=Reut'
p1219
aS'w+2=Ribadu'
p1220
aS'w+2=Ropemakers'
p1221
aS'w+2=Roy'
p1222
aS'w+2=Russia'
p1223
aS'w+2=Rwanda'
p1224
aS'w+2=Security'
p1225
aS'w+2=Senate'
p1226
aS'w+2=Senior'
p1227
aS'w+2=Seoul'
p1228
aS'w+2=Smithsonian'
p1229
aS'w+2=Software'
p1230
aS'w+2=South'
p1231
aS'w+2=Southern'
p1232
aS'w+2=Spain'
p1233
aS'w+2=State'
p1234
aS'w+2=Strategic'
p1235
aS'w+2=Suharto'
p1236
aS'w+2=Sumatra'
p1237
aS'w+2=Sunday'
p1238
aS'w+2=Taleban'
p1239
aS'w+2=Tanaka'
p1240
aS'w+2=Turkey'
p1241
aS'w+2=U.N.'
p1242
aS'w+2=U.S.'
p1243
aS'w+2=UN'
p1244
aS'w+2=US'
p1245
aS'w+2=Undersecretary'
p1246
aS'w+2=Unified'
p1247
aS'w+2=United'
p1248
aS'w+2=University'
p1249
aS'w+2=Vienna'
p1250
aS'w+2=Vietnam'
p1251
aS'w+2=VoteVets.org'
p1252
aS'w+2=WFP'
p1253
aS'w+2=WMO'
p1254
aS'w+2=Wade'
p1255
aS'w+2=Washington'
p1256
aS'w+2=Wednesday'
p1257
aS'w+2=West'
p1258
aS'w+2=White'
p1259
aS'w+2=Woodrow'
p1260
aS'w+2=World'
p1261
aS'w+2=Yisrael'
p1262
aS'w+2=Yousuf'
p1263
aS'w+2=Yung-woo'
p1264
aS'w+2=Zhirinovsky'
p1265
aS'w+2=a'
p1266
aS'w+2=abdomen'
p1267
aS'w+2=about'
p1268
aS'w+2=accord'
p1269
aS'w+2=across'
p1270
aS'w+2=adjournment'
p1271
aS'w+2=aerospace'
p1272
aS'w+2=african'
p1273
aS'w+2=again'
p1274
aS'w+2=agency'
p1275
aS'w+2=air'
p1276
aS'w+2=al-Anbar'
p1277
aS'w+2=al-Dulaimi'
p1278
aS'w+2=al-Qaida'
p1279
aS'w+2=algeria-supported'
p1280
aS'w+2=all-party'
p1281
aS'w+2=american'
p1282
aS'w+2=anarchy'
p1283
aS'w+2=and'
p1284
aS'w+2=animal'
p1285
aS'w+2=another'
p1286
aS'w+2=anti-corruption'
p1287
aS'w+2=anti-syrian'
p1288
aS'w+2=any'
p1289
aS'w+2=appear'
p1290
aS'w+2=appoint'
p1291
aS'w+2=archdiocese'
p1292
aS'w+2=army'
p1293
aS'w+2=as'
p1294
aS'w+2=at'
p1295
aS'w+2=back'
p1296
aS'w+2=ban'
p1297
aS'w+2=basic'
p1298
aS'w+2=be'
p1299
aS'w+2=because'
p1300
aS'w+2=bed'
p1301
aS'w+2=beirut-based'
p1302
aS'w+2=blame'
p1303
aS'w+2=body'
p1304
aS'w+2=bomb'
p1305
aS'w+2=border'
p1306
aS'w+2=bowl'
p1307
aS'w+2=bring'
p1308
aS'w+2=british'
p1309
aS'w+2=burma'
p1310
aS'w+2=by'
p1311
aS'w+2=campaign'
p1312
aS'w+2=cattle'
p1313
aS'w+2=center'
p1314
aS'w+2=center-right'
p1315
aS'w+2=central'
p1316
aS'w+2=chest'
p1317
aS'w+2=chinese'
p1318
aS'w+2=church'
p1319
aS'w+2=civic'
p1320
aS'w+2=civil'
p1321
aS'w+2=climate'
p1322
aS'w+2=closed'
p1323
aS'w+2=coalition'
p1324
aS'w+2=collapse'
p1325
aS'w+2=combined'
p1326
aS'w+2=come'
p1327
aS'w+2=command'
p1328
aS'w+2=commission'
p1329
aS'w+2=committee'
p1330
aS'w+2=company'
p1331
aS'w+2=conference'
p1332
aS'w+2=congressional'
p1333
aS'w+2=consortium'
p1334
aS'w+2=counter-trafficking'
p1335
aS'w+2=country'
p1336
aS'w+2=crocodile'
p1337
aS'w+2=delegation'
p1338
aS'w+2=democratic'
p1339
aS'w+2=denounce'
p1340
aS'w+2=depose'
p1341
aS'w+2=dictatorship'
p1342
aS'w+2=die'
p1343
aS'w+2=disaster'
p1344
aS'w+2=disease'
p1345
aS'w+2=doctor'
p1346
aS'w+2=dos'
p1347
aS'w+2=due'
p1348
aS'w+2=dynasty'
p1349
aS'w+2=east'
p1350
aS'w+2=economic'
p1351
aS'w+2=economically'
p1352
aS'w+2=education'
p1353
aS'w+2=effort'
p1354
aS'w+2=election'
p1355
aS'w+2=employee'
p1356
aS'w+2=environment'
p1357
aS'w+2=environmental'
p1358
aS'w+2=epidemiology'
p1359
aS'w+2=exhibition'
p1360
aS'w+2=explain'
p1361
aS'w+2=faction'
p1362
aS'w+2=fall'
p1363
aS'w+2=family'
p1364
aS'w+2=fan'
p1365
aS'w+2=federal'
p1366
aS'w+2=financial'
p1367
aS'w+2=follow'
p1368
aS'w+2=foot'
p1369
aS'w+2=football'
p1370
aS'w+2=for'
p1371
aS'w+2=foreign'
p1372
aS'w+2=former'
p1373
aS'w+2=french'
p1374
aS'w+2=from'
p1375
aS'w+2=g-8'
p1376
aS'w+2=govern'
p1377
aS'w+2=government'
p1378
aS'w+2=group'
p1379
aS'w+2=grow'
p1380
aS'w+2=guidance'
p1381
aS'w+2=hand'
p1382
aS'w+2=hardline'
p1383
aS'w+2=he'
p1384
aS'w+2=head'
p1385
aS'w+2=heart'
p1386
aS'w+2=high'
p1387
aS'w+2=home'
p1388
aS'w+2=household'
p1389
aS'w+2=humanitarian'
p1390
aS'w+2=immigrant'
p1391
aS'w+2=important'
p1392
aS'w+2=in'
p1393
aS'w+2=incoming'
p1394
aS'w+2=independent'
p1395
aS'w+2=indonesian'
p1396
aS'w+2=industry'
p1397
aS'w+2=infamous'
p1398
aS'w+2=insurgent'
p1399
aS'w+2=intelligence'
p1400
aS'w+2=international'
p1401
aS'w+2=internationally-backed'
p1402
aS'w+2=into'
p1403
aS'w+2=investment'
p1404
aS'w+2=islamic'
p1405
aS'w+2=it'
p1406
aS'w+2=its'
p1407
aS'w+2=job'
p1408
aS'w+2=kinshasa-based'
p1409
aS'w+2=kurdish'
p1410
aS'w+2=land-dispute'
p1411
aS'w+2=landfall'
p1412
aS'w+2=large'
p1413
aS'w+2=leave'
p1414
aS'w+2=lebanese'
p1415
aS'w+2=legislative'
p1416
aS'w+2=libyan'
p1417
aS'w+2=list'
p1418
aS'w+2=little'
p1419
aS'w+2=live'
p1420
aS'w+2=livestock'
p1421
aS'w+2=local'
p1422
aS'w+2=lunch'
p1423
aS'w+2=main'
p1424
aS'w+2=major'
p1425
aS'w+2=man'
p1426
aS'w+2=match-up'
p1427
aS'w+2=meet'
p1428
aS'w+2=military'
p1429
aS'w+2=militia'
p1430
aS'w+2=ministry'
p1431
aS'w+2=moderate'
p1432
aS'w+2=monitor'
p1433
aS'w+2=month'
p1434
aS'w+2=more'
p1435
aS'w+2=move'
p1436
aS'w+2=much'
p1437
aS'w+2=muslim'
p1438
aS'w+2=nation'
p1439
aS'w+2=nationalist'
p1440
aS'w+2=neck'
p1441
aS'w+2=negotiator'
p1442
aS'w+2=neighbor'
p1443
aS'w+2=new'
p1444
aS'w+2=newsgathering'
p1445
aS'w+2=ngo'
p1446
aS'w+2=non-partisan'
p1447
aS'w+2=not'
p1448
aS'w+2=obtain'
p1449
aS'w+2=of'
p1450
aS'w+2=office'
p1451
aS'w+2=oils'
p1452
aS'w+2=on'
p1453
aS'w+2=once'
p1454
aS'w+2=one'
p1455
aS'w+2=one-party'
p1456
aS'w+2=operation'
p1457
aS'w+2=opposition'
p1458
aS'w+2=or'
p1459
aS'w+2=organization'
p1460
aS'w+2=other'
p1461
aS'w+2=out'
p1462
aS'w+2=over'
p1463
aS'w+2=own'
p1464
aS'w+2=palestinian'
p1465
aS'w+2=panel'
p1466
aS'w+2=parliament'
p1467
aS'w+2=parliamentary'
p1468
aS'w+2=party'
p1469
aS'w+2=past'
p1470
aS'w+2=peace'
p1471
aS'w+2=peacekeeping'
p1472
aS'w+2=people'
p1473
aS'w+2=place'
p1474
aS'w+2=plant'
p1475
aS'w+2=police'
p1476
aS'w+2=policy'
p1477
aS'w+2=politically'
p1478
aS'w+2=position'
p1479
aS'w+2=possible'
p1480
aS'w+2=powerful'
p1481
aS'w+2=practice'
p1482
aS'w+2=prayer'
p1483
aS'w+2=preservation'
p1484
aS'w+2=president'
p1485
aS'w+2=privately'
p1486
aS'w+2=pro-kremlin'
p1487
aS'w+2=project'
p1488
aS'w+2=protest'
p1489
aS'w+2=provincial'
p1490
aS'w+2=public'
p1491
aS'w+2=quick'
p1492
aS'w+2=radical'
p1493
aS'w+2=rape'
p1494
aS'w+2=rather'
p1495
aS'w+2=really'
p1496
aS'w+2=rebel'
p1497
aS'w+2=reconstruct'
p1498
aS'w+2=research'
p1499
aS'w+2=respective'
p1500
aS'w+2=retirement'
p1501
aS'w+2=right'
p1502
aS'w+2=rip'
p1503
aS'w+2=rival'
p1504
aS'w+2=ruthless'
p1505
aS'w+2=s'
p1506
aS'w+2=safer'
p1507
aS'w+2=say'
p1508
aS'w+2=security'
p1509
aS'w+2=see'
p1510
aS'w+2=sell'
p1511
aS'w+2=serious'
p1512
aS'w+2=shame'
p1513
aS'w+2=she'
p1514
aS'w+2=shift'
p1515
aS'w+2=shipkeeping'
p1516
aS'w+2=similar'
p1517
aS'w+2=since'
p1518
aS'w+2=single'
p1519
aS'w+2=soccer'
p1520
aS'w+2=social'
p1521
aS'w+2=socialism'
p1522
aS'w+2=soon'
p1523
aS'w+2=south'
p1524
aS'w+2=space'
p1525
aS'w+2=spending'
p1526
aS'w+2=stagnation'
p1527
aS'w+2=state'
p1528
aS'w+2=stubbled'
p1529
aS'w+2=subcommittee'
p1530
aS'w+2=suffer'
p1531
aS'w+2=summer'
p1532
aS'w+2=tail'
p1533
aS'w+2=talk'
p1534
aS'w+2=team'
p1535
aS'w+2=technology'
p1536
aS'w+2=that'
p1537
aS'w+2=the'
p1538
aS'w+2=theCommunist'
p1539
aS'w+2=then'
p1540
aS'w+2=these'
p1541
aS'w+2=they'
p1542
aS'w+2=think'
p1543
aS'w+2=this'
p1544
aS'w+2=those'
p1545
aS'w+2=to'
p1546
aS'w+2=toe'
p1547
aS'w+2=toward'
p1548
aS'w+2=trade'
p1549
aS'w+2=trader'
p1550
aS'w+2=traditional'
p1551
aS'w+2=traditionally'
p1552
aS'w+2=transitional'
p1553
aS'w+2=u.n.-sponsored'
p1554
aS'w+2=u.s'
p1555
aS'w+2=u.s.-backed'
p1556
aS'w+2=uneasy'
p1557
aS'w+2=unit'
p1558
aS'w+2=up'
p1559
aS'w+2=use'
p1560
aS'w+2=various'
p1561
aS'w+2=war'
p1562
aS'w+2=water'
p1563
aS'w+2=way'
p1564
aS'w+2=we'
p1565
aS'w+2=weak'
p1566
aS'w+2=wear'
p1567
aS'w+2=week'
p1568
aS'w+2=west'
p1569
aS'w+2=western-backed'
p1570
aS'w+2=what'
p1571
aS'w+2=when'
p1572
aS'w+2=which'
p1573
aS'w+2=who'
p1574
aS'w+2=winter'
p1575
aS'w+2=without'
p1576
aS'w+2=woman'
p1577
aS'w+2=work'
p1578
aS'w+2=world'
p1579
aS'w+2=you'
p1580
aS"w-1='"
p1581
aS"w-1=''"
p1582
aS"w-1='ll"
p1583
aS"w-1='s"
p1584
aS'w-1=,'
p1585
aS'w-1=-'
p1586
aS'w-1=-lrb-'
p1587
aS'w-1=.'
p1588
aS'w-1=18'
p1589
aS'w-1=200'
p1590
aS'w-1=30'
p1591
aS'w-1=350,000'
p1592
aS'w-1=40'
p1593
aS'w-1=500'
p1594
aS'w-1=53'
p1595
aS'w-1=80'
p1596
aS'w-1=825,000'
p1597
aS'w-1=Abbas'
p1598
aS'w-1=Abdullah'
p1599
aS'w-1=Abraham'
p1600
aS'w-1=Afghans'
p1601
aS'w-1=African'
p1602
aS'w-1=Agarwal'
p1603
aS'w-1=Agency'
p1604
aS'w-1=Alon'
p1605
aS'w-1=Arab'
p1606
aS'w-1=Ark'
p1607
aS'w-1=Austria'
p1608
aS'w-1=Bacani'
p1609
aS'w-1=Bailey'
p1610
aS'w-1=Bartholomew'
p1611
aS'w-1=Beckham'
p1612
aS'w-1=Bee'
p1613
aS'w-1=Blase'
p1614
aS'w-1=Bush'
p1615
aS'w-1=CIA'
p1616
aS'w-1=Carolina'
p1617
aS'w-1=Casiple'
p1618
aS'w-1=Chan'
p1619
aS'w-1=Clinton'
p1620
aS'w-1=Commonwealth'
p1621
aS'w-1=Community'
p1622
aS'w-1=Condello'
p1623
aS'w-1=Congress'
p1624
aS'w-1=Cowboys'
p1625
aS'w-1=Danziger'
p1626
aS'w-1=Diamandis'
p1627
aS'w-1=Duc'
p1628
aS'w-1=Duch'
p1629
aS'w-1=ECOWAS'
p1630
aS'w-1=EFCC'
p1631
aS'w-1=ESCAP'
p1632
aS'w-1=EU'
p1633
aS'w-1=El-Erian'
p1634
aS'w-1=Ertll'
p1635
aS'w-1=Europeans'
p1636
aS'w-1=Farooqi'
p1637
aS'w-1=Ferguson'
p1638
aS'w-1=Fong'
p1639
aS'w-1=Gaza'
p1640
aS'w-1=Geelani'
p1641
aS'w-1=Gizenga'
p1642
aS'w-1=Glenn'
p1643
aS'w-1=Group'
p1644
aS'w-1=Gyanendra'
p1645
aS'w-1=Haldea'
p1646
aS'w-1=Hardi'
p1647
aS'w-1=Hariri'
p1648
aS'w-1=Hasina'
p1649
aS'w-1=Hill'
p1650
aS'w-1=Holzhausen'
p1651
aS'w-1=House'
p1652
aS'w-1=I.M.F.'
p1653
aS'w-1=Kadima'
p1654
aS'w-1=Keating'
p1655
aS'w-1=King'
p1656
aS'w-1=Kostunica'
p1657
aS'w-1=Kumar'
p1658
aS'w-1=Lange'
p1659
aS'w-1=League'
p1660
aS'w-1=Levin'
p1661
aS'w-1=Lubanga'
p1662
aS'w-1=Marcus'
p1663
aS'w-1=Martin'
p1664
aS'w-1=Matsusaka'
p1665
aS'w-1=Mishel'
p1666
aS'w-1=Moeller'
p1667
aS'w-1=Mujani'
p1668
aS'w-1=Mukherjee'
p1669
aS'w-1=NATO'
p1670
aS'w-1=Narain'
p1671
aS'w-1=Ngudjolo'
p1672
aS'w-1=Obama'
p1673
aS'w-1=Olmert'
p1674
aS'w-1=Owalla'
p1675
aS'w-1=Panindiker'
p1676
aS'w-1=Party'
p1677
aS'w-1=Pasche'
p1678
aS'w-1=Perera'
p1679
aS'w-1=Programs'
p1680
aS'w-1=Propeack'
p1681
aS'w-1=Ravigiole'
p1682
aS'w-1=Remy'
p1683
aS'w-1=Rice'
p1684
aS'w-1=Rouge'
p1685
aS'w-1=Sabanci'
p1686
aS'w-1=Salonga'
p1687
aS'w-1=Samak'
p1688
aS'w-1=Sarkozy'
p1689
aS'w-1=Schalkwyk'
p1690
aS'w-1=Sharif'
p1691
aS'w-1=Sison'
p1692
aS'w-1=Sloan'
p1693
aS'w-1=Starr'
p1694
aS'w-1=States'
p1695
aS'w-1=Syed'
p1696
aS'w-1=Taylor'
p1697
aS'w-1=Thaci'
p1698
aS'w-1=Tray'
p1699
aS'w-1=Tsvangiari'
p1700
aS'w-1=U.N.'
p1701
aS'w-1=U.S.'
p1702
aS'w-1=Union'
p1703
aS'w-1=Vroome'
p1704
aS'w-1=WFP'
p1705
aS'w-1=Watch'
p1706
aS'w-1=Zia'
p1707
aS'w-1=a'
p1708
aS'w-1=activismThe'
p1709
aS'w-1=affair'
p1710
aS'w-1=african'
p1711
aS'w-1=after'
p1712
aS'w-1=again'
p1713
aS'w-1=agency'
p1714
aS'w-1=al-maliki'
p1715
aS'w-1=all'
p1716
aS'w-1=also'
p1717
aS'w-1=ambassador'
p1718
aS'w-1=among'
p1719
aS'w-1=and'
p1720
aS'w-1=appear'
p1721
aS'w-1=appoint'
p1722
aS'w-1=as'
p1723
aS'w-1=association'
p1724
aS'w-1=at'
p1725
aS'w-1=bang'
p1726
aS'w-1=bather'
p1727
aS'w-1=be'
p1728
aS'w-1=become'
p1729
aS'w-1=before'
p1730
aS'w-1=believe'
p1731
aS'w-1=between'
p1732
aS'w-1=bill'
p1733
aS'w-1=biologist'
p1734
aS'w-1=bloc'
p1735
aS'w-1=boat'
p1736
aS'w-1=both'
p1737
aS'w-1=bronze'
p1738
aS'w-1=but'
p1739
aS'w-1=by'
p1740
aS'w-1=calmer'
p1741
aS'w-1=can'
p1742
aS'w-1=canoe'
p1743
aS'w-1=carrier'
p1744
aS'w-1=ceremonial'
p1745
aS'w-1=chief'
p1746
aS'w-1=city'
p1747
aS'w-1=civilian'
p1748
aS'w-1=clear'
p1749
aS'w-1=clearly'
p1750
aS'w-1=commerce'
p1751
aS'w-1=commission'
p1752
aS'w-1=committee'
p1753
aS'w-1=companion'
p1754
aS'w-1=confident'
p1755
aS'w-1=container'
p1756
aS'w-1=convoy'
p1757
aS'w-1=corruption'
p1758
aS'w-1=could'
p1759
aS'w-1=council'
p1760
aS'w-1=count'
p1761
aS'w-1=country'
p1762
aS'w-1=current'
p1763
aS'w-1=currently'
p1764
aS'w-1=day'
p1765
aS'w-1=definitely'
p1766
aS'w-1=delegate'
p1767
aS'w-1=delegation'
p1768
aS'w-1=deputy'
p1769
aS'w-1=devananda'
p1770
aS'w-1=diplomat'
p1771
aS'w-1=district'
p1772
aS'w-1=dozen'
p1773
aS'w-1=dragon'
p1774
aS'w-1=draw'
p1775
aS'w-1=dress'
p1776
aS'w-1=egyptian-born'
p1777
aS'w-1=elect'
p1778
aS'w-1=election'
p1779
aS'w-1=electoral-commission'
p1780
aS'w-1=embattled'
p1781
aS'w-1=enduring'
p1782
aS'w-1=enthusiasm'
p1783
aS'w-1=entity'
p1784
aS'w-1=every'
p1785
aS'w-1=export'
p1786
aS'w-1=extensive'
p1787
aS'w-1=faction'
p1788
aS'w-1=fall'
p1789
aS'w-1=fatal'
p1790
aS'w-1=fellow'
p1791
aS'w-1=female'
p1792
aS'w-1=few'
p1793
aS'w-1=fire'
p1794
aS'w-1=fisherman'
p1795
aS'w-1=five'
p1796
aS'w-1=flame'
p1797
aS'w-1=for'
p1798
aS'w-1=force'
p1799
aS'w-1=former'
p1800
aS'w-1=from'
p1801
aS'w-1=front'
p1802
aS'w-1=g-8'
p1803
aS'w-1=get'
p1804
aS'w-1=ghanaian'
p1805
aS'w-1=global'
p1806
aS'w-1=go'
p1807
aS'w-1=goal'
p1808
aS'w-1=government'
p1809
aS'w-1=group'
p1810
aS'w-1=have'
p1811
aS'w-1=he'
p1812
aS'w-1=hiker'
p1813
aS'w-1=hope'
p1814
aS'w-1=household'
p1815
aS'w-1=how'
p1816
aS'w-1=human'
p1817
aS'w-1=in'
p1818
aS'w-1=include'
p1819
aS'w-1=influential'
p1820
aS'w-1=interim'
p1821
aS'w-1=investigation'
p1822
aS'w-1=iranian'
p1823
aS'w-1=islamic'
p1824
aS'w-1=it'
p1825
aS'w-1=italian'
p1826
aS'w-1=its'
p1827
aS'w-1=job'
p1828
aS'w-1=join'
p1829
aS'w-1=judge'
p1830
aS'w-1=last'
p1831
aS'w-1=later'
p1832
aS'w-1=latex'
p1833
aS'w-1=lawmaker'
p1834
aS'w-1=local'
p1835
aS'w-1=longest-serving'
p1836
aS'w-1=malaria'
p1837
aS'w-1=man'
p1838
aS'w-1=many'
p1839
aS'w-1=million'
p1840
aS'w-1=mission'
p1841
aS'w-1=more'
p1842
aS'w-1=musician'
p1843
aS'w-1=muslim'
p1844
aS'w-1=my'
p1845
aS'w-1=name'
p1846
aS'w-1=new'
p1847
aS'w-1=newly-elected'
p1848
aS'w-1=next'
p1849
aS'w-1=no'
p1850
aS'w-1=nominal'
p1851
aS'w-1=nominee'
p1852
aS'w-1=not'
p1853
aS'w-1=now'
p1854
aS'w-1=numerous'
p1855
aS'w-1=of'
p1856
aS'w-1=once'
p1857
aS'w-1=organization'
p1858
aS'w-1=other'
p1859
aS'w-1=outgoing'
p1860
aS'w-1=party'
p1861
aS'w-1=passenger'
p1862
aS'w-1=peacock'
p1863
aS'w-1=people'
p1864
aS'w-1=per'
p1865
aS'w-1=pilgrim'
p1866
aS'w-1=plane'
p1867
aS'w-1=policy'
p1868
aS'w-1=position'
p1869
aS'w-1=possibly'
p1870
aS'w-1=powerful'
p1871
aS'w-1=president'
p1872
aS'w-1=program'
p1873
aS'w-1=pump'
p1874
aS'w-1=race'
p1875
aS'w-1=radical'
p1876
aS'w-1=readout'
p1877
aS'w-1=rear'
p1878
aS'w-1=reduce'
p1879
aS'w-1=refugee'
p1880
aS'w-1=regional'
p1881
aS'w-1=remain'
p1882
aS'w-1=republican'
p1883
aS'w-1=rule'
p1884
aS'w-1=salmon'
p1885
aS'w-1=scandinavian'
p1886
aS'w-1=school'
p1887
aS'w-1=scientist'
p1888
aS'w-1=send'
p1889
aS'w-1=seven'
p1890
aS'w-1=sever'
p1891
aS'w-1=several'
p1892
aS'w-1=severe'
p1893
aS'w-1=shave'
p1894
aS'w-1=she'
p1895
aS'w-1=should'
p1896
aS'w-1=sit'
p1897
aS'w-1=some'
p1898
aS'w-1=soon'
p1899
aS'w-1=soviet'
p1900
aS'w-1=spiritual'
p1901
aS'w-1=still'
p1902
aS'w-1=stitch'
p1903
aS'w-1=stone'
p1904
aS'w-1=strong'
p1905
aS'w-1=talk'
p1906
aS'w-1=team'
p1907
aS'w-1=ten'
p1908
aS'w-1=that'
p1909
aS'w-1=the'
p1910
aS'w-1=then'
p1911
aS'w-1=they'
p1912
aS'w-1=this'
p1913
aS'w-1=those'
p1914
aS'w-1=time'
p1915
aS'w-1=titular'
p1916
aS'w-1=to'
p1917
aS'w-1=together'
p1918
aS'w-1=tolerant'
p1919
aS'w-1=track'
p1920
aS'w-1=train'
p1921
aS'w-1=truck'
p1922
aS'w-1=turn'
p1923
aS'w-1=ugly'
p1924
aS'w-1=unit'
p1925
aS'w-1=various'
p1926
aS'w-1=village'
p1927
aS'w-1=visit'
p1928
aS'w-1=voter'
p1929
aS'w-1=want'
p1930
aS'w-1=warship'
p1931
aS'w-1=we'
p1932
aS'w-1=weapon'
p1933
aS'w-1=wear'
p1934
aS'w-1=welcome'
p1935
aS'w-1=where'
p1936
aS'w-1=which'
p1937
aS'w-1=who'
p1938
aS'w-1=whose'
p1939
aS'w-1=will'
p1940
aS'w-1=with'
p1941
aS'w-1=worker'
p1942
aS'w-1=would'
p1943
aS'w-1=you'
p1944
aS'w-1=youngest'
p1945
aS"w-2=''"
p1946
aS"w-2='s"
p1947
aS'w-2=,'
p1948
aS'w-2=-'
p1949
aS'w-2=.'
p1950
aS'w-2=1,000'
p1951
aS'w-2=12.5'
p1952
aS'w-2=40'
p1953
aS'w-2=55-year-old'
p1954
aS'w-2=59'
p1955
aS'w-2=:'
p1956
aS'w-2=;'
p1957
aS'w-2=AKP'
p1958
aS'w-2=Abbas'
p1959
aS'w-2=Abedi'
p1960
aS'w-2=Abizaid'
p1961
aS'w-2=Abolkomsan'
p1962
aS'w-2=Accordance'
p1963
aS'w-2=Adam'
p1964
aS'w-2=Afghanistan'
p1965
aS'w-2=Africa'
p1966
aS'w-2=African'
p1967
aS'w-2=Ahmed'
p1968
aS'w-2=Ahrens'
p1969
aS'w-2=Allen'
p1970
aS'w-2=America'
p1971
aS'w-2=Anti-Doping'
p1972
aS'w-2=Aounit'
p1973
aS'w-2=Apira'
p1974
aS'w-2=Arun'
p1975
aS'w-2=Baghdad'
p1976
aS'w-2=Bakir'
p1977
aS'w-2=Bank'
p1978
aS'w-2=Baradei'
p1979
aS'w-2=Barzan'
p1980
aS'w-2=Barzani'
p1981
aS'w-2=Bears'
p1982
aS'w-2=Belarus'
p1983
aS'w-2=Benedict'
p1984
aS'w-2=Benedicto'
p1985
aS'w-2=Bhutto'
p1986
aS'w-2=Blum'
p1987
aS'w-2=Botha'
p1988
aS'w-2=Brian'
p1989
aS'w-2=Brown'
p1990
aS'w-2=Bullock'
p1991
aS'w-2=Bush'
p1992
aS'w-2=Buyukanit'
p1993
aS'w-2=Byron'
p1994
aS'w-2=California'
p1995
aS'w-2=Camara'
p1996
aS'w-2=Canadian'
p1997
aS'w-2=Carolyn'
p1998
aS'w-2=Carter'
p1999
aS'w-2=Casamance'
p2000
aS'w-2=Chatterjee'
p2001
aS'w-2=Chilura'
p2002
aS'w-2=Chisi'
p2003
aS'w-2=Chnar'
p2004
aS'w-2=Chris'
p2005
aS'w-2=Chrysler'
p2006
aS'w-2=Clinton'
p2007
aS'w-2=Colom'
p2008
aS'w-2=Congo'
p2009
aS'w-2=Cowboys'
p2010
aS'w-2=Cowher'
p2011
aS'w-2=DEA'
p2012
aS'w-2=Dallas'
p2013
aS'w-2=Daschle'
p2014
aS'w-2=David'
p2015
aS'w-2=Dean'
p2016
aS'w-2=Delta'
p2017
aS'w-2=Democrat'
p2018
aS'w-2=Democratic'
p2019
aS'w-2=Denis'
p2020
aS'w-2=Development'
p2021
aS'w-2=Diassana'
p2022
aS'w-2=Dina'
p2023
aS'w-2=Dizaiy'
p2024
aS'w-2=Doan'
p2025
aS'w-2=Dorji'
p2026
aS'w-2=Doss'
p2027
aS'w-2=Drewsen'
p2028
aS'w-2=Election'
p2029
aS'w-2=Electoral'
p2030
aS'w-2=Energy'
p2031
aS'w-2=Esperanza'
p2032
aS'w-2=Essam'
p2033
aS'w-2=Ethiopia'
p2034
aS'w-2=Ezeazu'
p2035
aS'w-2=FSB'
p2036
aS'w-2=Fallon'
p2037
aS'w-2=Flockhart'
p2038
aS'w-2=France'
p2039
aS'w-2=Fretilin'
p2040
aS'w-2=Friday'
p2041
aS'w-2=Gandhi'
p2042
aS'w-2=Ganzer'
p2043
aS'w-2=Garcia'
p2044
aS'w-2=Geoffrey'
p2045
aS'w-2=Ghys'
p2046
aS'w-2=Ging'
p2047
aS'w-2=Giuliani'
p2048
aS'w-2=Goma'
p2049
aS'w-2=Greene'
p2050
aS'w-2=Guler'
p2051
aS'w-2=Hadi'
p2052
aS'w-2=Hajian'
p2053
aS'w-2=Hall'
p2054
aS'w-2=Hebebrand'
p2055
aS'w-2=Henderson'
p2056
aS'w-2=Hill'
p2057
aS'w-2=Hoey'
p2058
aS'w-2=Holland'
p2059
aS'w-2=Holmes'
p2060
aS'w-2=House'
p2061
aS'w-2=Hudiono'
p2062
aS'w-2=IAEA'
p2063
aS'w-2=Ian'
p2064
aS'w-2=Ilan'
p2065
aS'w-2=India'
p2066
aS'w-2=Indonesia'
p2067
aS'w-2=Iraq'
p2068
aS'w-2=Islamabad'
p2069
aS'w-2=Jean-Daniel'
p2070
aS'w-2=Jehan'
p2071
aS'w-2=Jintao'
p2072
aS'w-2=John'
p2073
aS'w-2=Juba'
p2074
aS'w-2=July'
p2075
aS'w-2=Jurado'
p2076
aS'w-2=K.'
p2077
aS'w-2=Kaba'
p2078
aS'w-2=Kashan'
p2079
aS'w-2=Kassa'
p2080
aS'w-2=Kaul'
p2081
aS'w-2=Kenneth'
p2082
aS'w-2=Kerk'
p2083
aS'w-2=Khmer'
p2084
aS'w-2=Kim'
p2085
aS'w-2=King'
p2086
aS'w-2=Klau'
p2087
aS'w-2=Korean-American'
p2088
aS'w-2=Kortunov'
p2089
aS'w-2=Kothari'
p2090
aS'w-2=Lawrence'
p2091
aS'w-2=League'
p2092
aS'w-2=Letchumanan'
p2093
aS'w-2=Leterme'
p2094
aS'w-2=Maingain'
p2095
aS'w-2=Mairiga'
p2096
aS'w-2=Maksoud'
p2097
aS'w-2=Malik'
p2098
aS'w-2=Mangkusubroto'
p2099
aS'w-2=Margaret'
p2100
aS'w-2=Mario'
p2101
aS'w-2=Maza'
p2102
aS'w-2=McCain'
p2103
aS'w-2=McCartney'
p2104
aS'w-2=McKay'
p2105
aS'w-2=Melanie'
p2106
aS'w-2=Michigan'
p2107
aS'w-2=Missiroli'
p2108
aS'w-2=Mogadishu'
p2109
aS'w-2=Monday'
p2110
aS'w-2=Moni'
p2111
aS'w-2=Moo-hyun'
p2112
aS'w-2=Morales'
p2113
aS'w-2=Mr.'
p2114
aS'w-2=Mukoko'
p2115
aS'w-2=Musharraf'
p2116
aS'w-2=Nagesh'
p2117
aS'w-2=Nations'
p2118
aS'w-2=Nepal'
p2119
aS'w-2=Nguessan'
p2120
aS'w-2=Nicolas'
p2121
aS'w-2=North'
p2122
aS"w-2=O'Brien"
p2123
aS"w-2=O'Shaughnessy"
p2124
aS'w-2=Ocal'
p2125
aS'w-2=Ostapenko'
p2126
aS'w-2=Ousmane'
p2127
aS'w-2=Oxburgh'
p2128
aS'w-2=Pai'
p2129
aS'w-2=Panha'
p2130
aS'w-2=Paradias'
p2131
aS'w-2=Parr'
p2132
aS'w-2=Party'
p2133
aS'w-2=Pereira'
p2134
aS'w-2=Ponte'
p2135
aS'w-2=Prithvi'
p2136
aS'w-2=Program'
p2137
aS'w-2=Putin'
p2138
aS'w-2=Ramon'
p2139
aS'w-2=Rasheeda'
p2140
aS'w-2=Republic'
p2141
aS'w-2=Rice'
p2142
aS'w-2=Richard'
p2143
aS'w-2=Rong'
p2144
aS'w-2=Ryder'
p2145
aS'w-2=Saad'
p2146
aS'w-2=Sagar'
p2147
aS'w-2=Saiful'
p2148
aS'w-2=Sandy'
p2149
aS'w-2=Shaffat'
p2150
aS'w-2=Shah'
p2151
aS'w-2=Shapiro'
p2152
aS'w-2=Shariq'
p2153
aS'w-2=Sheikh'
p2154
aS'w-2=Sitkoff'
p2155
aS'w-2=Soccer'
p2156
aS'w-2=Somalia'
p2157
aS'w-2=Son'
p2158
aS'w-2=Soroso'
p2159
aS'w-2=South'
p2160
aS'w-2=States'
p2161
aS'w-2=Steinhardt'
p2162
aS'w-2=Suchkov'
p2163
aS'w-2=Sudan'
p2164
aS'w-2=Sulzer'
p2165
aS'w-2=Sunita'
p2166
aS'w-2=Suresh'
p2167
aS'w-2=Taylor'
p2168
aS'w-2=Ted'
p2169
aS'w-2=Thailand'
p2170
aS'w-2=Trong'
p2171
aS'w-2=Tuesday'
p2172
aS'w-2=U.N.'
p2173
aS'w-2=U.S.'
p2174
aS'w-2=Undersecretary-General'
p2175
aS'w-2=United'
p2176
aS'w-2=Van'
p2177
aS'w-2=Venezuela'
p2178
aS'w-2=Verdean'
p2179
aS'w-2=Vincent'
p2180
aS'w-2=Virendra'
p2181
aS'w-2=Vojislav'
p2182
aS'w-2=Volk'
p2183
aS'w-2=Von'
p2184
aS'w-2=Walbert'
p2185
aS'w-2=Washington'
p2186
aS'w-2=White'
p2187
aS'w-2=Wolfowitz'
p2188
aS'w-2=Zimbabwe'
p2189
aS'w-2=a'
p2190
aS'w-2=about'
p2191
aS'w-2=above'
p2192
aS'w-2=accord'
p2193
aS'w-2=activist'
p2194
aS'w-2=addition'
p2195
aS'w-2=admiral'
p2196
aS'w-2=african-american'
p2197
aS'w-2=after'
p2198
aS'w-2=again'
p2199
aS'w-2=against'
p2200
aS'w-2=agency'
p2201
aS'w-2=agree'
p2202
aS'w-2=aid'
p2203
aS'w-2=aim'
p2204
aS'w-2=al-Rubaie'
p2205
aS'w-2=al-mubarak'
p2206
aS'w-2=all'
p2207
aS'w-2=alliance'
p2208
aS'w-2=allow'
p2209
aS'w-2=along'
p2210
aS'w-2=among'
p2211
aS'w-2=and'
p2212
aS'w-2=animal'
p2213
aS'w-2=another'
p2214
aS'w-2=anybody'
p2215
aS'w-2=appoint'
p2216
aS'w-2=around'
p2217
aS'w-2=arrive'
p2218
aS'w-2=as'
p2219
aS'w-2=aside'
p2220
aS'w-2=ask'
p2221
aS'w-2=at'
p2222
aS'w-2=attack'
p2223
aS'w-2=attend'
p2224
aS'w-2=attract'
p2225
aS'w-2=bam'
p2226
aS'w-2=base'
p2227
aS'w-2=be'
p2228
aS'w-2=become'
p2229
aS'w-2=beer'
p2230
aS'w-2=before'
p2231
aS'w-2=belongings'
p2232
aS'w-2=between'
p2233
aS'w-2=black'
p2234
aS'w-2=boat'
p2235
aS'w-2=brightly-illuminated'
p2236
aS'w-2=bring'
p2237
aS'w-2=business'
p2238
aS'w-2=but'
p2239
aS'w-2=by'
p2240
aS'w-2=cabinet'
p2241
aS'w-2=candidate'
p2242
aS'w-2=car'
p2243
aS'w-2=case'
p2244
aS'w-2=cattle'
p2245
aS'w-2=chest'
p2246
aS'w-2=choice'
p2247
aS'w-2=choose'
p2248
aS'w-2=citizen'
p2249
aS'w-2=civilian'
p2250
aS'w-2=coalition'
p2251
aS'w-2=cocoa'
p2252
aS'w-2=commission'
p2253
aS'w-2=commissioner'
p2254
aS'w-2=common'
p2255
aS'w-2=community'
p2256
aS'w-2=company'
p2257
aS'w-2=conference'
p2258
aS'w-2=confirmation'
p2259
aS'w-2=could'
p2260
aS'w-2=country'
p2261
aS'w-2=cover'
p2262
aS'w-2=crash'
p2263
aS'w-2=create'
p2264
aS'w-2=criticize'
p2265
aS'w-2=customer'
p2266
aS'w-2=cut'
p2267
aS'w-2=dark'
p2268
aS'w-2=de'
p2269
aS'w-2=decline'
p2270
aS'w-2=defector'
p2271
aS'w-2=delegation'
p2272
aS'w-2=democracy'
p2273
aS'w-2=democratic'
p2274
aS'w-2=diagnose'
p2275
aS'w-2=direct'
p2276
aS'w-2=direction'
p2277
aS'w-2=disrespect'
p2278
aS'w-2=dockyard'
p2279
aS'w-2=doping'
p2280
aS'w-2=down'
p2281
aS'w-2=dress'
p2282
aS'w-2=due'
p2283
aS'w-2=ease'
p2284
aS'w-2=elect'
p2285
aS'w-2=election'
p2286
aS'w-2=elevator'
p2287
aS'w-2=emergency'
p2288
aS'w-2=end'
p2289
aS'w-2=engineer'
p2290
aS'w-2=enjoy'
p2291
aS'w-2=estimate'
p2292
aS'w-2=evacuation'
p2293
aS'w-2=eventually'
p2294
aS'w-2=expect'
p2295
aS'w-2=expert'
p2296
aS'w-2=face'
p2297
aS'w-2=facility'
p2298
aS'w-2=faction'
p2299
aS'w-2=fail'
p2300
aS'w-2=fair'
p2301
aS'w-2=family'
p2302
aS'w-2=farmer'
p2303
aS'w-2=featherweight'
p2304
aS'w-2=feel'
p2305
aS'w-2=fight'
p2306
aS'w-2=fighter'
p2307
aS'w-2=fighting'
p2308
aS'w-2=first'
p2309
aS'w-2=fit'
p2310
aS'w-2=five'
p2311
aS'w-2=foot'
p2312
aS'w-2=for'
p2313
aS'w-2=force'
p2314
aS'w-2=foreign'
p2315
aS'w-2=former'
p2316
aS'w-2=foundation'
p2317
aS'w-2=four'
p2318
aS'w-2=fourth'
p2319
aS'w-2=friend'
p2320
aS'w-2=from'
p2321
aS'w-2=get'
p2322
aS'w-2=go'
p2323
aS'w-2=government'
p2324
aS'w-2=graduate'
p2325
aS'w-2=greet'
p2326
aS'w-2=group'
p2327
aS'w-2=growth'
p2328
aS'w-2=handful'
p2329
aS'w-2=hang'
p2330
aS'w-2=have'
p2331
aS'w-2=he'
p2332
aS'w-2=head'
p2333
aS'w-2=highway'
p2334
aS'w-2=hit'
p2335
aS'w-2=hospital'
p2336
aS'w-2=household'
p2337
aS'w-2=humanity'
p2338
aS'w-2=immigrant'
p2339
aS'w-2=immunity'
p2340
aS'w-2=impact'
p2341
aS'w-2=in'
p2342
aS'w-2=include'
p2343
aS'w-2=inquiry'
p2344
aS'w-2=install'
p2345
aS'w-2=interest'
p2346
aS'w-2=iranian-made'
p2347
aS'w-2=it'
p2348
aS'w-2=its'
p2349
aS'w-2=job'
p2350
aS'w-2=judge'
p2351
aS'w-2=korean'
p2352
aS'w-2=largely'
p2353
aS'w-2=later'
p2354
aS'w-2=law'
p2355
aS'w-2=leader'
p2356
aS'w-2=leave'
p2357
aS'w-2=leg'
p2358
aS'w-2=life'
p2359
aS'w-2=long'
p2360
aS'w-2=longest'
p2361
aS'w-2=machine'
p2362
aS'w-2=main'
p2363
aS'w-2=make'
p2364
aS'w-2=many'
p2365
aS'w-2=may'
p2366
aS'w-2=meeting'
p2367
aS'w-2=member'
p2368
aS'w-2=minister'
p2369
aS'w-2=month'
p2370
aS'w-2=more'
p2371
aS'w-2=morning'
p2372
aS'w-2=most'
p2373
aS'w-2=mountain'
p2374
aS'w-2=muslim'
p2375
aS'w-2=my'
p2376
aS'w-2=name'
p2377
aS'w-2=nation'
p2378
aS'w-2=need'
p2379
aS'w-2=negotiator'
p2380
aS'w-2=new'
p2381
aS'w-2=nominee'
p2382
aS'w-2=not'
p2383
aS'w-2=now'
p2384
aS'w-2=of'
p2385
aS'w-2=off'
p2386
aS'w-2=office'
p2387
aS'w-2=officer'
p2388
aS'w-2=official'
p2389
aS'w-2=on'
p2390
aS'w-2=once'
p2391
aS'w-2=one'
p2392
aS'w-2=opponent'
p2393
aS'w-2=or'
p2394
aS'w-2=order'
p2395
aS'w-2=organize'
p2396
aS'w-2=outgoing'
p2397
aS'w-2=over'
p2398
aS'w-2=party'
p2399
aS'w-2=past'
p2400
aS'w-2=peace'
p2401
aS'w-2=percent'
p2402
aS'w-2=pig'
p2403
aS'w-2=pilgrim'
p2404
aS'w-2=plan'
p2405
aS'w-2=political'
p2406
aS'w-2=position'
p2407
aS'w-2=post'
p2408
aS'w-2=prepare'
p2409
aS'w-2=president'
p2410
aS'w-2=presidential'
p2411
aS'w-2=press'
p2412
aS'w-2=previous'
p2413
aS'w-2=proceedings'
p2414
aS'w-2=process'
p2415
aS'w-2=program'
p2416
aS'w-2=protect'
p2417
aS'w-2=protest'
p2418
aS'w-2=public'
p2419
aS'w-2=put'
p2420
aS'w-2=quality'
p2421
aS'w-2=quickly'
p2422
aS'w-2=quote'
p2423
aS'w-2=raise'
p2424
aS'w-2=ram'
p2425
aS'w-2=rank'
p2426
aS'w-2=rear'
p2427
aS'w-2=rebel'
p2428
aS'w-2=recently'
p2429
aS'w-2=recognize'
p2430
aS'w-2=reconstruction'
p2431
aS'w-2=reelection'
p2432
aS'w-2=refill'
p2433
aS'w-2=refugee'
p2434
aS'w-2=release'
p2435
aS'w-2=remain'
p2436
aS'w-2=remus'
p2437
aS'w-2=replace'
p2438
aS'w-2=republic'
p2439
aS'w-2=require'
p2440
aS'w-2=resignation'
p2441
aS'w-2=responsibility'
p2442
aS'w-2=retire'
p2443
aS'w-2=rickety'
p2444
aS'w-2=ride'
p2445
aS'w-2=road'
p2446
aS'w-2=role'
p2447
aS'w-2=rotate'
p2448
aS'w-2=russian'
p2449
aS'w-2=sack'
p2450
aS'w-2=salmon'
p2451
aS'w-2=say'
p2452
aS'w-2=scientist'
p2453
aS'w-2=seat'
p2454
aS'w-2=see'
p2455
aS'w-2=senior'
p2456
aS'w-2=serve'
p2457
aS'w-2=seven'
p2458
aS'w-2=seventh'
p2459
aS'w-2=several'
p2460
aS'w-2=shake'
p2461
aS'w-2=she'
p2462
aS'w-2=shellfish'
p2463
aS"w-2=shi'ite"
p2464
aS'w-2=ship'
p2465
aS'w-2=short'
p2466
aS'w-2=shot'
p2467
aS'w-2=site'
p2468
aS'w-2=small'
p2469
aS'w-2=smash'
p2470
aS'w-2=soldier-son'
p2471
aS'w-2=somebody'
p2472
aS'w-2=son'
p2473
aS'w-2=southern'
p2474
aS'w-2=special'
p2475
aS'w-2=splinter'
p2476
aS'w-2=start'
p2477
aS'w-2=stick'
p2478
aS'w-2=storm'
p2479
aS'w-2=strong'
p2480
aS'w-2=subsidiary'
p2481
aS'w-2=suffer'
p2482
aS'w-2=summit'
p2483
aS'w-2=support'
p2484
aS'w-2=surfacedfor'
p2485
aS'w-2=tackle'
p2486
aS'w-2=tactic'
p2487
aS'w-2=task'
p2488
aS'w-2=teaspoon'
p2489
aS'w-2=tell'
p2490
aS'w-2=ten'
p2491
aS'w-2=test'
p2492
aS'w-2=than'
p2493
aS'w-2=that'
p2494
aS'w-2=the'
p2495
aS'w-2=there'
p2496
aS'w-2=they'
p2497
aS'w-2=thing'
p2498
aS'w-2=those'
p2499
aS'w-2=thousand'
p2500
aS'w-2=through'
p2501
aS'w-2=timetable'
p2502
aS'w-2=to'
p2503
aS'w-2=traditional'
p2504
aS'w-2=trial'
p2505
aS'w-2=troops'
p2506
aS'w-2=try'
p2507
aS'w-2=twenty'
p2508
aS'w-2=two'
p2509
aS'w-2=underway'
p2510
aS'w-2=unified'
p2511
aS'w-2=union'
p2512
aS'w-2=up'
p2513
aS'w-2=upon'
p2514
aS'w-2=upside'
p2515
aS'w-2=urge'
p2516
aS'w-2=veteran'
p2517
aS'w-2=way'
p2518
aS'w-2=we'
p2519
aS'w-2=wear'
p2520
aS'w-2=week'
p2521
aS'w-2=well'
p2522
aS'w-2=west'
p2523
aS'w-2=what'
p2524
aS'w-2=when'
p2525
aS'w-2=where'
p2526
aS'w-2=which'
p2527
aS'w-2=while'
p2528
aS'w-2=who'
p2529
aS'w-2=whose'
p2530
aS'w-2=why'
p2531
aS'w-2=will'
p2532
aS'w-2=with'
p2533
aS'w-2=without'
p2534
aS'w-2=wooden'
p2535
aS'w-2=year'
p2536
aS'w-2=you'
p2537
aS'w-2=young'
p2538
aS'w-2=zanu-pf'
p2539
aS'xcomp=Alliance'
p2540
aS'xcomp=Caucus'
p2541
aS'xcomp=Der'
p2542
aS'xcomp=International'
p2543
aS'xcomp=Watch'
p2544
aS'xcomp=be'
p2545
aS'xcomp=boost'
p2546
aS'xcomp=brief'
p2547
aS'xcomp=bring'
p2548
aS'xcomp=climb'
p2549
aS'xcomp=continue'
p2550
aS'xcomp=culminate'
p2551
aS'xcomp=deal'
p2552
aS'xcomp=discuss'
p2553
aS'xcomp=evaluate'
p2554
aS'xcomp=face'
p2555
aS'xcomp=fight'
p2556
aS'xcomp=hand'
p2557
aS'xcomp=help'
p2558
aS'xcomp=implement'
p2559
aS'xcomp=inspect'
p2560
aS'xcomp=launch'
p2561
aS'xcomp=learn'
p2562
aS'xcomp=leave'
p2563
aS'xcomp=make'
p2564
aS'xcomp=mark'
p2565
aS'xcomp=mission'
p2566
aS'xcomp=open'
p2567
aS'xcomp=pass'
p2568
aS'xcomp=promote'
p2569
aS'xcomp=put'
p2570
aS'xcomp=reform'
p2571
aS'xcomp=represent'
p2572
aS'xcomp=see'
p2573
aS'xcomp=study'
p2574
aS'xcomp=survey'
p2575
aS'xcomp=try'
p2576
aS'xcomp=urge'
p2577
aS'xcomp=visit'
p2578
aS'xcomp=work'
p2579
asS'dtype'
p2580
cnumpy
float64
p2581
sS'vocabulary_'
p2582
(dp2583
g894
I885
sg2000
I1991
sg296
I287
sg57
I48
sg2158
I2149
sg1260
I1251
sg525
I516
sg1653
I1644
sg329
I320
sg160
I151
sg1261
I1252
sg1495
I1486
sg1307
I1298
sg1679
I1670
sg1481
I1472
sg2052
I2043
sg2041
I2032
sg424
I415
sg2449
I2440
sg1870
I1861
sg1814
I1805
sg728
I719
sg608
I599
sg1020
I1011
sg1738
I1729
sg1195
I1186
sg402
I393
sg1771
I1762
sg1618
I1609
sg2379
I2370
sg2108
I2099
sg2407
I2398
sg73
I64
sg684
I675
sg1805
I1796
sg1636
I1627
sg719
I710
sg538
I529
sg1656
I1647
sg267
I258
sg1310
I1301
sg1700
I1691
sg2123
I2114
sg1847
I1838
sg1633
I1624
sg1382
I1373
sg655
I646
sg531
I522
sg760
I751
sg585
I576
sg2019
I2010
sg1140
I1131
sg1940
I1931
sg198
I189
sg711
I702
sg269
I260
sg2339
I2330
sg658
I649
sg533
I524
sg1358
I1349
sg1851
I1842
sg1735
I1726
sg2500
I2491
sg2531
I2522
sg2163
I2154
sg1395
I1386
sg2231
I2222
sg2526
I2517
sg1329
I1320
sg144
I135
sg1119
I1110
sg2529
I2520
sg1160
I1151
sg999
I990
sg2541
I2532
sg1002
I993
sg2543
I2534
sg2077
I2068
sg236
I227
sg1004
I995
sg1778
I1769
sg2415
I2406
sg1288
I1279
sg2454
I2445
sg743
I734
sg1104
I1095
sg935
I926
sg2155
I2146
sg377
I368
sg1058
I1049
sg2345
I2336
sg2511
I2502
sg138
I129
sg628
I619
sg66
I57
sg2469
I2460
sg682
I673
sg1023
I1014
sg1759
I1750
sg1135
I1126
sg1580
I1571
sg463
I454
sg460
I451
sg1944
I1935
sg1446
I1437
sg2556
I2547
sg127
I118
sg1516
I1507
sg1551
I1542
sg10
I1
sg630
I621
sg924
I915
sg910
I901
sg2494
I2485
sg1026
I1017
sg2030
I2021
sg84
I75
sg2493
I2484
sg1935
I1926
sg1985
I1976
sg914
I905
sg1848
I1839
sg374
I365
sg959
I950
sg483
I474
sg155
I146
sg46
I37
sg2249
I2240
sg2356
I2347
sg2557
I2548
sg1401
I1392
sg1967
I1958
sg55
I46
sg972
I963
sg2072
I2063
sg2133
I2124
sg2381
I2372
sg937
I928
sg195
I186
sg2020
I2011
sg659
I650
sg1449
I1440
sg2287
I2278
sg2093
I2084
sg2070
I2061
sg1341
I1332
sg2395
I2386
sg2462
I2453
sg260
I251
sg2193
I2184
sg323
I314
sg287
I278
sg1133
I1124
sg124
I115
sg1896
I1887
sg729
I720
sg2568
I2559
sg2574
I2565
sg44
I35
sg1386
I1377
sg2091
I2082
sg2264
I2255
sg1630
I1621
sg1654
I1645
sg1518
I1509
sg250
I241
sg958
I949
sg1482
I1473
sg2273
I2264
sg1745
I1736
sg780
I771
sg2157
I2148
sg1874
I1865
sg69
I60
sg1410
I1401
sg1525
I1516
sg2202
I2193
sg2548
I2539
sg1373
I1364
sg1572
I1563
sg607
I598
sg599
I590
sg895
I886
sg211
I202
sg2256
I2247
sg1177
I1168
sg799
I790
sg837
I828
sg1510
I1501
sg1212
I1203
sg71
I62
sg1754
I1745
sg1439
I1430
sg249
I240
sg2559
I2550
sg1478
I1469
sg1915
I1906
sg1917
I1908
sg861
I852
sg9
I0
sg43
I34
sg2233
I2224
sg2269
I2260
sg2296
I2287
sg98
I89
sg1928
I1919
sg772
I763
sg189
I180
sg1091
I1082
sg532
I523
sg2457
I2448
sg41
I32
sg631
I622
sg758
I749
sg2172
I2163
sg77
I68
sg1354
I1345
sg1952
I1943
sg892
I883
sg1219
I1210
sg976
I967
sg2509
I2500
sg962
I953
sg1552
I1543
sg1959
I1950
sg1943
I1934
sg693
I684
sg2040
I2031
sg638
I629
sg563
I554
sg1174
I1165
sg1029
I1020
sg330
I321
sg1783
I1774
sg1300
I1291
sg1115
I1106
sg1642
I1633
sg308
I299
sg1842
I1833
sg1357
I1348
sg2175
I2166
sg2429
I2420
sg1880
I1871
sg1445
I1436
sg210
I201
sg1308
I1299
sg819
I810
sg1865
I1856
sg2121
I2112
sg1988
I1979
sg2011
I2002
sg1799
I1790
sg1784
I1775
sg685
I676
sg383
I374
sg900
I891
sg676
I667
sg1420
I1411
sg399
I390
sg663
I654
sg2119
I2110
sg983
I974
sg649
I640
sg1861
I1852
sg67
I58
sg401
I392
sg2310
I2301
sg1223
I1214
sg2092
I2083
sg518
I509
sg2308
I2299
sg717
I708
sg801
I792
sg2170
I2161
sg668
I659
sg938
I929
sg2047
I2038
sg1368
I1359
sg2048
I2039
sg522
I513
sg1412
I1403
sg839
I830
sg2306
I2297
sg2380
I2371
sg588
I579
sg1201
I1192
sg436
I427
sg1436
I1427
sg1296
I1287
sg2513
I2504
sg2499
I2490
sg354
I345
sg1722
I1713
sg1065
I1056
sg1159
I1150
sg2341
I2332
sg1491
I1482
sg1605
I1596
sg1207
I1198
sg1532
I1523
sg930
I921
sg790
I781
sg2271
I2262
sg2270
I2261
sg2563
I2554
sg1826
I1817
sg1835
I1826
sg331
I322
sg878
I869
sg1980
I1971
sg177
I168
sg629
I620
sg306
I297
sg2248
I2239
sg1374
I1365
sg2237
I2228
sg1748
I1739
sg660
I651
sg2159
I2150
sg1370
I1361
sg1513
I1504
sg1638
I1629
sg2179
I2170
sg551
I542
sg2250
I2241
sg534
I525
sg2241
I2232
sg863
I854
sg2538
I2529
sg1301
I1292
sg1658
I1649
sg174
I165
sg1774
I1765
sg784
I775
sg817
I808
sg2323
I2314
sg2360
I2351
sg1706
I1697
sg1781
I1772
sg1715
I1706
sg1999
I1990
sg1995
I1986
sg690
I681
sg297
I288
sg626
I617
sg1756
I1747
sg2046
I2037
sg2069
I2060
sg2236
I2227
sg1544
I1535
sg2208
I2199
sg2382
I2373
sg1084
I1075
sg1954
I1945
sg2220
I2211
sg391
I382
sg1891
I1882
sg1496
I1487
sg1859
I1850
sg1539
I1530
sg1649
I1640
sg245
I236
sg2295
I2286
sg157
I148
sg489
I480
sg1890
I1881
sg106
I97
sg170
I161
sg2533
I2524
sg1171
I1162
sg146
I137
sg2292
I2283
sg1444
I1435
sg559
I550
sg2352
I2343
sg417
I408
sg503
I494
sg233
I224
sg1454
I1445
sg1429
I1420
sg785
I776
sg2506
I2497
sg1376
I1367
sg1428
I1419
sg1110
I1101
sg2127
I2118
sg2342
I2333
sg797
I788
sg115
I106
sg2329
I2320
sg611
I602
sg1432
I1423
sg2124
I2115
sg1906
I1897
sg1695
I1686
sg2502
I2493
sg1343
I1334
sg1795
I1786
sg756
I747
sg936
I927
sg49
I40
sg1533
I1524
sg1200
I1191
sg1645
I1636
sg89
I80
sg2049
I2040
sg33
I24
sg2097
I2088
sg1793
I1784
sg485
I476
sg1302
I1293
sg2147
I2138
sg763
I754
sg1660
I1651
sg1000
I991
sg543
I534
sg1878
I1869
sg2161
I2152
sg2423
I2414
sg2331
I2322
sg564
I555
sg571
I562
sg2344
I2335
sg1899
I1890
sg950
I941
sg430
I421
sg196
I187
sg615
I606
sg687
I678
sg1846
I1837
sg961
I952
sg1233
I1224
sg340
I331
sg1108
I1099
sg276
I267
sg981
I972
sg1996
I1987
sg2438
I2429
sg1599
I1590
sg625
I616
sg940
I931
sg1751
I1742
sg1425
I1416
sg2358
I2349
sg922
I913
sg148
I139
sg1419
I1410
sg1520
I1511
sg1245
I1236
sg1244
I1235
sg2051
I2042
sg783
I774
sg333
I324
sg318
I309
sg1736
I1727
sg1892
I1883
sg1494
I1485
sg993
I984
sg1564
I1555
sg132
I123
sg2042
I2033
sg1562
I1553
sg1566
I1557
sg1521
I1512
sg815
I806
sg1898
I1889
sg404
I395
sg813
I804
sg2431
I2422
sg2281
I2272
sg1744
I1735
sg1396
I1387
sg1945
I1936
sg1567
I1558
sg1459
I1450
sg1810
I1801
sg1966
I1957
sg2171
I2162
sg2315
I2306
sg1275
I1266
sg484
I475
sg293
I284
sg1594
I1585
sg1690
I1681
sg1604
I1595
sg2470
I2461
sg1339
I1330
sg398
I389
sg1591
I1582
sg1624
I1615
sg528
I519
sg270
I261
sg111
I102
sg1166
I1157
sg456
I447
sg431
I422
sg1205
I1196
sg1105
I1096
sg709
I700
sg2524
I2515
sg1734
I1725
sg389
I380
sg1661
I1652
sg2212
I2203
sg2204
I2195
sg1291
I1282
sg2142
I2133
sg669
I660
sg1236
I1227
sg1031
I1022
sg683
I674
sg1665
I1656
sg1462
I1453
sg2503
I2494
sg2087
I2078
sg307
I298
sg173
I164
sg145
I136
sg133
I124
sg2439
I2430
sg23
I14
sg2284
I2275
sg215
I206
sg2332
I2323
sg1824
I1815
sg42
I33
sg844
I835
sg536
I527
sg1149
I1140
sg1253
I1244
sg1894
I1885
sg1574
I1565
sg161
I152
sg2178
I2169
sg2262
I2253
sg1490
I1481
sg1384
I1375
sg987
I978
sg1176
I1167
sg291
I282
sg334
I325
sg1349
I1340
sg147
I138
sg579
I570
sg2392
I2383
sg1141
I1132
sg176
I167
sg1292
I1283
sg194
I185
sg60
I51
sg1191
I1182
sg13
I4
sg1372
I1363
sg2504
I2495
sg565
I556
sg225
I216
sg1185
I1176
sg101
I92
sg1378
I1369
sg1911
I1902
sg965
I956
sg205
I196
sg59
I50
sg1912
I1903
sg1010
I1001
sg346
I337
sg1587
I1578
sg2192
I2183
sg880
I871
sg1963
I1954
sg2102
I2093
sg2285
I2276
sg941
I932
sg1009
I1000
sg122
I113
sg2033
I2024
sg1561
I1552
sg821
I812
sg121
I112
sg1888
I1879
sg1628
I1619
sg573
I564
sg1280
I1271
sg2551
I2542
sg1979
I1970
sg966
I957
sg1709
I1700
sg446
I437
sg406
I397
sg50
I41
sg2061
I2052
sg1500
I1491
sg92
I83
sg1416
I1407
sg865
I856
sg833
I824
sg1716
I1707
sg2333
I2324
sg2547
I2538
sg2293
I2284
sg1461
I1452
sg680
I671
sg609
I600
sg264
I255
sg1421
I1412
sg344
I335
sg2537
I2528
sg16
I7
sg1313
I1304
sg963
I954
sg1779
I1770
sg1601
I1592
sg710
I701
sg142
I133
sg2243
I2234
sg2577
I2568
sg1005
I996
sg295
I286
sg447
I438
sg2283
I2274
sg1221
I1212
sg1126
I1117
sg1936
I1927
sg443
I434
sg654
I645
sg1312
I1303
sg2291
I2282
sg1438
I1429
sg1682
I1673
sg2150
I2141
sg120
I111
sg920
I911
sg217
I208
sg378
I369
sg1314
I1305
sg1483
I1474
sg1973
I1964
sg1361
I1352
sg1175
I1166
sg2427
I2418
sg1353
I1344
sg1431
I1422
sg2186
I2177
sg2164
I2155
sg1398
I1389
sg455
I446
sg1027
I1018
sg1984
I1975
sg923
I914
sg2519
I2510
sg429
I420
sg150
I141
sg444
I435
sg764
I755
sg1222
I1213
sg2148
I2139
sg2120
I2111
sg2446
I2437
sg1489
I1480
sg540
I531
sg1375
I1366
sg358
I349
sg754
I745
sg12
I3
sg1747
I1738
sg153
I144
sg393
I384
sg327
I318
sg1524
I1515
sg604
I595
sg83
I74
sg707
I698
sg1309
I1300
sg1025
I1016
sg449
I440
sg141
I132
sg836
I827
sg1664
I1655
sg414
I405
sg2036
I2027
sg1430
I1421
sg462
I453
sg986
I977
sg348
I339
sg2232
I2223
sg1881
I1872
sg1471
I1462
sg558
I549
sg2317
I2308
sg740
I731
sg2567
I2558
sg1931
I1922
sg39
I30
sg415
I406
sg223
I214
sg1673
I1664
sg1452
I1443
sg602
I593
sg1707
I1698
sg789
I780
sg745
I736
sg566
I557
sg2253
I2244
sg2495
I2486
sg1625
I1616
sg1535
I1526
sg2008
I1999
sg1997
I1988
sg2334
I2325
sg1684
I1675
sg81
I72
sg1788
I1779
sg2365
I2356
sg2185
I2176
sg901
I892
sg732
I723
sg2035
I2026
sg1811
I1802
sg1499
I1490
sg1049
I1040
sg123
I114
sg1356
I1347
sg1393
I1384
sg2521
I2512
sg468
I459
sg261
I252
sg1216
I1207
sg1800
I1791
sg322
I313
sg1717
I1708
sg220
I211
sg1583
I1574
sg2492
I2483
sg1127
I1118
sg1741
I1732
sg1809
I1800
sg2180
I2171
sg2259
I2250
sg595
I586
sg644
I635
sg1976
I1967
sg1479
I1470
sg496
I487
sg1553
I1544
sg2263
I2254
sg793
I784
sg1285
I1276
sg970
I961
sg2054
I2045
sg2188
I2179
sg594
I585
sg1924
I1915
sg1143
I1134
sg1852
I1843
sg1806
I1797
sg1545
I1536
sg1669
I1660
sg1801
I1792
sg453
I444
sg1460
I1451
sg1637
I1628
sg578
I569
sg1902
I1893
sg2404
I2395
sg705
I696
sg1515
I1506
sg165
I156
sg1808
I1799
sg30
I21
sg1371
I1362
sg420
I411
sg1351
I1342
sg2191
I2182
sg1480
I1471
sg1530
I1521
sg2412
I2403
sg477
I468
sg2018
I2009
sg53
I44
sg1565
I1556
sg109
I100
sg997
I988
sg1497
I1488
sg1036
I1027
sg2460
I2451
sg14
I5
sg1392
I1383
sg1021
I1012
sg2169
I2160
sg1603
I1594
sg2402
I2393
sg2022
I2013
sg494
I485
sg1066
I1057
sg921
I912
sg1001
I992
sg336
I327
sg907
I898
sg1317
I1308
sg749
I740
sg2555
I2546
sg1350
I1341
sg1547
I1538
sg1068
I1059
sg332
I323
sg2238
I2229
sg239
I230
sg1304
I1295
sg1970
I1961
sg1206
I1197
sg843
I834
sg1987
I1978
sg197
I188
sg954
I945
sg876
I867
sg610
I601
sg2080
I2071
sg1942
I1933
sg1631
I1622
sg2479
I2470
sg1504
I1495
sg864
I855
sg1117
I1108
sg2012
I2003
sg1122
I1113
sg1164
I1155
sg2010
I2001
sg2335
I2326
sg349
I340
sg2337
I2328
sg2466
I2457
sg1644
I1635
sg1228
I1219
sg445
I436
sg1634
I1625
sg1094
I1085
sg2320
I2311
sg2570
I2561
sg384
I375
sg724
I715
sg1434
I1425
sg1623
I1614
sg1089
I1080
sg1589
I1580
sg2428
I2419
sg842
I833
sg1467
I1458
sg337
I328
sg465
I456
sg112
I103
sg271
I262
sg984
I975
sg1908
I1899
sg727
I718
sg766
I757
sg451
I442
sg811
I802
sg735
I726
sg350
I341
sg1962
I1953
sg664
I655
sg1389
I1380
sg1875
I1866
sg360
I351
sg1063
I1054
sg1941
I1932
sg1168
I1159
sg1464
I1455
sg1281
I1272
sg1746
I1737
sg119
I110
sg744
I735
sg428
I419
sg15
I6
sg266
I257
sg1534
I1525
sg2349
I2340
sg1338
I1329
sg1326
I1317
sg24
I15
sg1271
I1262
sg1889
I1880
sg1528
I1519
sg2481
I2472
sg1342
I1333
sg2491
I2482
sg1106
I1097
sg1668
I1659
sg2440
I2431
sg2055
I2046
sg584
I575
sg1752
I1743
sg1616
I1607
sg679
I670
sg637
I628
sg1161
I1152
sg2004
I1995
sg2274
I2265
sg1843
I1834
sg1182
I1173
sg562
I553
sg2398
I2389
sg188
I179
sg80
I71
sg2375
I2366
sg1766
I1757
sg2550
I2541
sg771
I762
sg1508
I1499
sg994
I985
sg701
I692
sg2347
I2338
sg807
I798
sg1062
I1053
sg1399
I1390
sg405
I396
sg1427
I1418
sg905
I896
sg1753
I1744
sg1600
I1591
sg151
I142
sg786
I777
sg1298
I1289
sg2029
I2020
sg1523
I1514
sg1983
I1974
sg1663
I1654
sg715
I706
sg546
I537
sg1790
I1781
sg897
I888
sg2209
I2200
sg2085
I2076
sg282
I273
sg968
I959
sg1869
I1860
sg2198
I2189
sg2187
I2178
sg2031
I2022
sg1148
I1139
sg1720
I1711
sg277
I268
sg2266
I2257
sg1705
I1696
sg1256
I1247
sg982
I973
sg1369
I1360
sg2043
I2034
sg1165
I1156
sg2463
I2454
sg2471
I2462
sg1090
I1081
sg1034
I1025
sg361
I352
sg2420
I2411
sg643
I634
sg2252
I2243
sg2346
I2337
sg1213
I1204
sg1255
I1246
sg2361
I2352
sg2197
I2188
sg2309
I2300
sg2414
I2405
sg506
I497
sg325
I316
sg1156
I1147
sg2434
I2425
sg2403
I2394
sg778
I769
sg1975
I1966
sg1082
I1073
sg2138
I2129
sg1014
I1005
sg1007
I998
sg574
I565
sg2461
I2452
sg275
I266
sg1685
I1676
sg467
I458
sg881
I872
sg381
I372
sg869
I860
sg254
I245
sg851
I842
sg255
I246
sg1501
I1492
sg2405
I2396
sg916
I907
sg2311
I2302
sg2413
I2404
sg64
I55
sg526
I517
sg904
I895
sg1536
I1527
sg720
I711
sg1051
I1042
sg427
I418
sg1242
I1233
sg1463
I1454
sg2152
I2143
sg1128
I1119
sg805
I796
sg2456
I2447
sg1727
I1718
sg752
I743
sg1098
I1089
sg2088
I2079
sg343
I334
sg1344
I1335
sg661
I652
sg973
I964
sg95
I86
sg441
I432
sg454
I445
sg2487
I2478
sg1407
I1398
sg1070
I1061
sg1610
I1601
sg1789
I1780
sg873
I864
sg2242
I2233
sg395
I386
sg619
I610
sg1831
I1822
sg470
I461
sg452
I443
sg1173
I1164
sg34
I25
sg751
I742
sg849
I840
sg1199
I1190
sg1079
I1070
sg2304
I2295
sg1011
I1002
sg2430
I2421
sg1192
I1183
sg1269
I1260
sg298
I289
sg926
I917
sg1265
I1256
sg733
I724
sg2153
I2144
sg185
I176
sg519
I510
sg2576
I2567
sg1773
I1764
sg1609
I1600
sg827
I818
sg418
I409
sg769
I760
sg286
I277
sg27
I18
sg1408
I1399
sg1072
I1063
sg903
I894
sg38
I29
sg620
I611
sg2221
I2212
sg2067
I2058
sg129
I120
sg1821
I1812
sg802
I793
sg653
I644
sg2505
I2496
sg438
I429
sg977
I968
sg1883
I1874
sg28
I19
sg712
I703
sg357
I348
sg632
I623
sg746
I737
sg2444
I2435
sg40
I31
sg1093
I1084
sg672
I663
sg1971
I1962
sg2025
I2016
sg232
I223
sg1227
I1218
sg1887
I1878
sg875
I866
sg2564
I2555
sg240
I231
sg313
I304
sg493
I484
sg575
I566
sg1024
I1015
sg21
I12
sg1733
I1724
sg2276
I2267
sg2305
I2296
sg686
I677
sg524
I515
sg459
I450
sg1085
I1076
sg1758
I1749
sg2482
I2473
sg511
I502
sg31
I22
sg2372
I2363
sg2474
I2465
sg382
I373
sg1411
I1402
sg1220
I1211
sg2376
I2367
sg1573
I1564
sg2177
I2168
sg774
I765
sg521
I512
sg2162
I2153
sg2105
I2096
sg1297
I1288
sg1081
I1072
sg1960
I1951
sg362
I353
sg1131
I1122
sg272
I263
sg1807
I1798
sg737
I728
sg614
I605
sg1780
I1771
sg1798
I1789
sg850
I841
sg290
I281
sg2137
I2128
sg193
I184
sg1769
I1760
sg450
I441
sg2359
I2350
sg576
I567
sg1100
I1091
sg1169
I1160
sg134
I125
sg1502
I1493
sg591
I582
sg207
I198
sg319
I310
sg826
I817
sg1938
I1929
sg1555
I1546
sg1559
I1550
sg1640
I1631
sg480
I471
sg390
I381
sg1163
I1154
sg1125
I1116
sg2260
I2251
sg2355
I2346
sg96
I87
sg256
I247
sg1037
I1028
sg1042
I1033
sg820
I811
sg491
I482
sg1067
I1058
sg2507
I2498
sg139
I130
sg1121
I1112
sg708
I699
sg1507
I1498
sg1876
I1867
sg1519
I1510
sg1043
I1034
sg2013
I2004
sg1714
I1705
sg2303
I2294
sg1949
I1940
sg1950
I1941
sg1918
I1909
sg2110
I2101
sg1158
I1149
sg167
I158
sg222
I213
sg1015
I1006
sg2472
I2463
sg1157
I1148
sg1956
I1947
sg180
I171
sg2498
I2489
sg2426
I2417
sg964
I955
sg617
I608
sg1345
I1336
sg2318
I2309
sg1248
I1239
sg792
I783
sg1607
I1598
sg2141
I2132
sg1257
I1248
sg2032
I2023
sg2297
I2288
sg1729
I1720
sg1477
I1468
sg678
I669
sg2540
I2531
sg2190
I2181
sg773
I764
sg1258
I1249
sg1691
I1682
sg25
I16
sg2350
I2341
sg1476
I1467
sg1032
I1023
sg495
I486
sg1277
I1268
sg2364
I2355
sg1812
I1803
sg872
I863
sg2368
I2359
sg753
I744
sg1837
I1828
sg622
I613
sg315
I306
sg2338
I2329
sg806
I797
sg554
I545
sg2441
I2432
sg1828
I1819
sg1816
I1807
sg1730
I1721
sg2006
I1997
sg1965
I1956
sg641
I632
sg1424
I1415
sg2406
I2397
sg1306
I1297
sg2255
I2246
sg1853
I1844
sg1442
I1433
sg537
I528
sg846
I837
sg2112
I2103
sg1927
I1918
sg2132
I2123
sg2130
I2121
sg1557
I1548
sg311
I302
sg507
I498
sg860
I851
sg1243
I1234
sg2144
I2135
sg1340
I1331
sg2053
I2044
sg932
I923
sg835
I826
sg893
I884
sg1016
I1007
sg1041
I1032
sg856
I847
sg294
I285
sg831
I822
sg117
I108
sg2387
I2378
sg2298
I2289
sg1181
I1172
sg1458
I1449
sg1441
I1432
sg1193
I1184
sg886
I877
sg412
I403
sg898
I889
sg884
I875
sg888
I879
sg2374
I2365
sg890
I881
sg304
I295
sg1388
I1379
sg2045
I2036
sg891
I882
sg2340
I2331
sg1415
I1406
sg1592
I1583
sg1103
I1094
sg634
I625
sg616
I607
sg1234
I1225
sg2063
I2054
sg2026
I2017
sg490
I481
sg440
I431
sg1782
I1773
sg1086
I1077
sg934
I925
sg1577
I1568
sg1840
I1831
sg1172
I1163
sg1833
I1824
sg1909
I1900
sg1710
I1701
sg2325
I2316
sg1550
I1541
sg908
I899
sg1394
I1385
sg63
I54
sg1180
I1171
sg1038
I1029
sg816
I807
sg432
I423
sg1328
I1319
sg915
I906
sg1046
I1037
sg128
I119
sg809
I800
sg263
I254
sg2109
I2100
sg516
I507
sg2468
I2459
sg2227
I2218
sg1139
I1130
sg2224
I2215
sg1711
I1702
sg426
I417
sg1612
I1603
sg2578
I2569
sg918
I909
sg1397
I1388
sg1972
I1963
sg2451
I2442
sg2401
I2392
sg544
I535
sg1218
I1209
sg502
I493
sg1230
I1221
sg2278
I2269
sg1907
I1898
sg2321
I2312
sg1768
I1759
sg107
I98
sg166
I157
sg1387
I1378
sg520
I511
sg2176
I2167
sg1484
I1475
sg2302
I2293
sg2485
I2476
sg1456
I1447
sg216
I207
sg466
I457
sg257
I248
sg1796
I1787
sg1822
I1813
sg577
I568
sg725
I716
sg1336
I1327
sg960
I951
sg2542
I2533
sg1546
I1537
sg2516
I2507
sg2277
I2268
sg1827
I1818
sg885
I876
sg1820
I1811
sg2059
I2050
sg274
I265
sg238
I229
sg1901
I1892
sg1817
I1808
sg859
I850
sg2128
I2119
sg2211
I2202
sg243
I234
sg183
I174
sg580
I571
sg1409
I1400
sg882
I873
sg2078
I2069
sg312
I303
sg812
I803
sg1579
I1570
sg472
I463
sg1921
I1912
sg1214
I1205
sg530
I521
sg1593
I1584
sg1113
I1104
sg208
I199
sg367
I358
sg589
I580
sg2313
I2304
sg1283
I1274
sg1531
I1522
sg305
I296
sg510
I501
sg1614
I1605
sg1184
I1175
sg592
I583
sg1650
I1641
sg1905
I1896
sg822
I813
sg2569
I2560
sg302
I293
sg1318
I1309
sg1862
I1853
sg2443
I2434
sg1725
I1716
sg794
I785
sg2328
I2319
sg1830
I1821
sg734
I725
sg1726
I1717
sg2367
I2358
sg1776
I1767
sg321
I312
sg1487
I1478
sg283
I274
sg1118
I1109
sg928
I919
sg1563
I1554
sg1333
I1324
sg2135
I2126
sg1689
I1680
sg539
I530
sg1825
I1816
sg2086
I2077
sg2397
I2388
sg2324
I2315
sg568
I559
sg2226
I2217
sg169
I160
sg2234
I2225
sg1146
I1137
sg1743
I1734
sg1818
I1809
sg1178
I1169
sg1196
I1187
sg2437
I2428
sg1910
I1901
sg1293
I1284
sg1749
I1740
sg90
I81
sg26
I17
sg1448
I1439
sg1154
I1145
sg1331
I1322
sg1772
I1763
sg2520
I2511
sg1677
I1668
sg1989
I1980
sg2571
I2562
sg1597
I1588
sg1839
I1830
sg209
I200
sg781
I772
sg1059
I1050
sg2396
I2387
sg156
I147
sg2229
I2220
sg497
I488
sg408
I399
sg1254
I1245
sg2501
I2492
sg262
I253
sg1632
I1623
sg1096
I1087
sg2394
I2385
sg738
I729
sg2089
I2080
sg1405
I1396
sg2385
I2376
sg956
I947
sg750
I741
sg342
I333
sg2390
I2381
sg2512
I2503
sg2377
I2368
sg2312
I2303
sg1873
I1864
sg1347
I1338
sg2535
I2526
sg2125
I2116
sg2409
I2400
sg32
I23
sg1641
I1632
sg410
I401
sg1666
I1657
sg2216
I2207
sg2539
I2530
sg2096
I2087
sg1078
I1069
sg2223
I2214
sg1879
I1870
sg2417
I2408
sg1346
I1337
sg246
I237
sg36
I27
sg948
I939
sg2214
I2205
sg949
I940
sg1994
I1985
sg1764
I1755
sg2357
I2348
sg2199
I2190
sg1367
I1358
sg2523
I2514
sg201
I192
sg1742
I1733
sg2389
I2380
sg2351
I2342
sg356
I347
sg1704
I1695
sg1570
I1561
sg1834
I1825
sg624
I615
sg1914
I1905
sg1061
I1052
sg68
I59
sg437
I428
sg175
I166
sg1377
I1368
sg636
I627
sg1360
I1351
sg435
I426
sg2552
I2543
sg2484
I2475
sg1039
I1030
sg2225
I2216
sg1383
I1374
sg1858
I1849
sg1698
I1689
sg1955
I1946
sg1977
I1968
sg2003
I1994
sg1968
I1959
sg113
I104
sg714
I705
sg289
I280
sg808
I799
sg230
I221
sg1584
I1575
sg498
I489
sg1629
I1620
sg633
I624
sg448
I439
sg605
I596
sg1652
I1643
sg51
I42
sg62
I53
sg995
I986
sg2084
I2075
sg1194
I1185
sg2183
I2174
sg1240
I1231
sg2330
I2321
sg765
I756
sg403
I394
sg992
I983
sg662
I653
sg407
I398
sg1543
I1534
sg722
I713
sg988
I979
sg1582
I1573
sg1595
I1586
sg2579
I2570
sg2071
I2062
sg2363
I2354
sg186
I177
sg1882
I1873
sg2373
I2364
sg723
I714
sg1575
I1566
sg259
I250
sg1850
I1841
sg373
I364
sg796
I787
sg1946
I1937
sg1272
I1263
sg425
I416
sg650
I641
sg1930
I1921
sg696
I687
sg1209
I1200
sg1785
I1776
sg265
I256
sg2213
I2204
sg919
I910
sg2362
I2353
sg2254
I2245
sg1380
I1371
sg567
I558
sg2496
I2487
sg1229
I1220
sg866
I857
sg2275
I2266
sg2005
I1996
sg1693
I1684
sg1282
I1273
sg413
I404
sg1167
I1158
sg1947
I1938
sg1145
I1136
sg547
I538
sg154
I145
sg152
I143
sg347
I338
sg504
I495
sg2189
I2180
sg1797
I1788
sg149
I140
sg639
I630
sg2100
I2091
sg2515
I2506
sg2146
I2137
sg1080
I1071
sg1728
I1719
sg2060
I2051
sg1231
I1222
sg2235
I2226
sg1437
I1428
sg1622
I1613
sg2126
I2117
sg627
I618
sg742
I733
sg1884
I1875
sg777
I768
sg338
I329
sg191
I182
sg2527
I2518
sg471
I462
sg1981
I1972
sg2028
I2019
sg2143
I2134
sg847
I838
sg852
I843
sg1635
I1626
sg1492
I1483
sg681
I672
sg1279
I1270
sg2094
I2085
sg1422
I1413
sg603
I594
sg2546
I2537
sg227
I218
sg810
I801
sg2140
I2131
sg163
I154
sg2480
I2471
sg204
I195
sg464
I455
sg1238
I1229
sg93
I84
sg371
I362
sg1217
I1208
sg853
I844
sg192
I183
sg2074
I2065
sg1958
I1949
sg58
I49
sg182
I173
sg1732
I1723
sg422
I413
sg79
I70
sg1069
I1060
sg461
I452
sg1611
I1602
sg2393
I2384
sg2410
I2401
sg2117
I2108
sg1829
I1820
sg1964
I1955
sg2230
I2221
sg500
I491
sg501
I492
sg2288
I2279
sg1320
I1311
sg1423
I1414
sg1498
I1489
sg1321
I1312
sg587
I578
sg1712
I1703
sg1247
I1238
sg1474
I1465
sg1554
I1545
sg416
I407
sg376
I367
sg213
I204
sg172
I163
sg179
I170
sg78
I69
sg1767
I1758
sg2518
I2509
sg171
I162
sg224
I215
sg692
I683
sg1095
I1086
sg775
I766
sg1332
I1323
sg231
I222
sg1953
I1944
sg757
I748
sg955
I946
sg1667
I1658
sg953
I944
sg1697
I1688
sg2027
I2018
sg1114
I1105
sg1885
I1876
sg279
I270
sg586
I577
sg913
I904
sg1225
I1216
sg1792
I1783
sg889
I880
sg1469
I1460
sg1755
I1746
sg2455
I2446
sg1364
I1355
sg985
I976
sg1696
I1687
sg2447
I2438
sg1322
I1313
sg2034
I2025
sg481
I472
sg601
I592
sg2422
I2413
sg387
I378
sg476
I467
sg2098
I2089
sg2399
I2390
sg221
I212
sg316
I307
sg2433
I2424
sg2386
I2377
sg1877
I1868
sg181
I172
sg292
I283
sg1076
I1067
sg1871
I1862
sg803
I794
sg1099
I1090
sg1731
I1722
sg99
I90
sg2465
I2456
sg2090
I2081
sg110
I101
sg990
I981
sg2545
I2536
sg618
I609
sg1150
I1141
sg596
I587
sg94
I85
sg1290
I1281
sg2245
I2236
sg841
I832
sg1488
I1479
sg1626
I1617
sg2560
I2551
sg2554
I2545
sg582
I573
sg1215
I1206
sg2257
I2248
sg791
I782
sg1402
I1393
sg731
I722
sg135
I126
sg1355
I1346
sg1643
I1634
sg2268
I2259
sg1337
I1328
sg1647
I1638
sg1537
I1528
sg310
I301
sg2553
I2544
sg105
I96
sg541
I532
sg1786
I1777
sg2322
I2313
sg2107
I2098
sg2113
I2104
sg1433
I1424
sg675
I666
sg199
I190
sg2104
I2095
sg1856
I1847
sg1571
I1562
sg2371
I2362
sg17
I8
sg1406
I1397
sg556
I547
sg1363
I1354
sg868
I859
sg1028
I1019
sg2024
I2015
sg542
I533
sg86
I77
sg118
I109
sg814
I805
sg1138
I1129
sg1404
I1395
sg1867
I1858
sg1403
I1394
sg2280
I2271
sg2532
I2523
sg1904
I1895
sg613
I604
sg673
I664
sg2445
I2436
sg365
I356
sg370
I361
sg1259
I1250
sg952
I943
sg1815
I1806
sg549
I540
sg823
I814
sg2383
I2374
sg2384
I2375
sg2528
I2519
sg1860
I1851
sg317
I308
sg392
I383
sg97
I88
sg2458
I2449
sg1252
I1243
sg2222
I2213
sg2219
I2210
sg2099
I2090
sg759
I750
sg1263
I1254
sg818
I809
sg2009
I2000
sg1413
I1404
sg2366
I2357
sg1385
I1376
sg1246
I1237
sg19
I10
sg867
I858
sg1978
I1969
sg375
I366
sg1657
I1648
sg2246
I2237
sg1198
I1189
sg326
I317
sg2082
I2073
sg767
I758
sg203
I194
sg1992
I1983
sg458
I449
sg2343
I2334
sg1919
I1910
sg2182
I2173
sg88
I79
sg931
I922
sg1868
I1859
sg1556
I1547
sg244
I235
sg1348
I1339
sg91
I82
sg561
I552
sg1855
I1846
sg1365
I1356
sg514
I505
sg187
I178
sg2549
I2540
sg1465
I1456
sg2307
I2298
sg1323
I1314
sg22
I13
sg1576
I1567
sg1262
I1253
sg2095
I2086
sg899
I890
sg2418
I2409
sg1447
I1438
sg1235
I1226
sg721
I712
sg974
I965
sg2184
I2175
sg572
I563
sg218
I209
sg226
I217
sg552
I543
sg1703
I1694
sg652
I643
sg1203
I1194
sg100
I91
sg1417
I1408
sg2572
I2563
sg512
I503
sg478
I469
sg253
I244
sg1179
I1170
sg56
I47
sg1486
I1477
sg1617
I1608
sg1503
I1494
sg1702
I1693
sg1948
I1939
sg832
I823
sg1033
I1024
sg1249
I1240
sg252
I243
sg162
I153
sg862
I853
sg1854
I1845
sg281
I272
sg1686
I1677
sg779
I770
sg184
I175
sg2314
I2305
sg219
I210
sg1608
I1599
sg1123
I1114
sg828
I819
sg583
I574
sg1188
I1179
sg1457
I1448
sg1844
I1835
sg1969
I1960
sg61
I52
sg517
I508
sg235
I226
sg234
I225
sg929
I920
sg2165
I2156
sg1974
I1965
sg600
I591
sg2286
I2277
sg2316
I2307
sg2195
I2186
sg845
I836
sg288
I279
sg593
I584
sg1560
I1551
sg168
I159
sg1841
I1832
sg1675
I1666
sg1957
I1948
sg482
I473
sg1197
I1188
sg2299
I2290
sg2497
I2488
sg363
I354
sg1586
I1577
sg830
I821
sg1054
I1045
sg691
I682
sg2261
I2252
sg523
I514
sg421
I412
sg700
I691
sg137
I128
sg1903
I1894
sg2038
I2029
sg2122
I2113
sg1270
I1261
sg369
I360
sg1929
I1920
sg355
I346
sg2160
I2151
sg2435
I2426
sg396
I387
sg581
I572
sg671
I662
sg2145
I2136
sg991
I982
sg1083
I1074
sg1740
I1731
sg645
I636
sg2279
I2270
sg2486
I2477
sg442
I433
sg1765
I1756
sg646
I637
sg829
I820
sg1511
I1502
sg102
I93
sg1872
I1863
sg1615
I1606
sg1922
I1913
sg487
I478
sg1335
I1326
sg2534
I2525
sg1627
I1618
sg341
I332
sg570
I561
sg697
I688
sg1676
I1667
sg2489
I2480
sg1713
I1704
sg2573
I2564
sg1893
I1884
sg550
I541
sg2425
I2416
sg439
I430
sg2201
I2192
sg52
I43
sg1937
I1928
sg300
I291
sg1162
I1153
sg1208
I1199
sg998
I989
sg946
I937
sg2075
I2066
sg1512
I1503
sg1939
I1930
sg848
I839
sg2101
I2092
sg2421
I2412
sg1311
I1302
sg1775
I1766
sg689
I680
sg2058
I2049
sg1299
I1290
sg2508
I2499
sg2327
I2318
sg1687
I1678
sg1701
I1692
sg1485
I1476
sg2272
I2263
sg741
I732
sg65
I56
sg1060
I1051
sg1017
I1008
sg228
I219
sg925
I916
sg1505
I1496
sg947
I938
sg2424
I2415
sg2173
I2164
sg1210
I1201
sg694
I685
sg665
I656
sg1097
I1088
sg469
I460
sg1900
I1891
sg1327
I1318
sg324
I315
sg612
I603
sg945
I936
sg2411
I2402
sg1124
I1115
sg278
I269
sg1334
I1325
sg1794
I1785
sg1316
I1307
sg957
I948
sg2007
I1998
sg1620
I1611
sg1670
I1661
sg299
I290
sg858
I849
sg2050
I2041
sg2475
I2466
sg1541
I1532
sg2156
I2147
sg1674
I1665
sg301
I292
sg1189
I1180
sg1366
I1357
sg2265
I2256
sg2522
I2513
sg2544
I2535
sg1273
I1264
sg1305
I1296
sg647
I638
sg140
I131
sg545
I536
sg2514
I2505
sg1186
I1177
sg1750
I1741
sg598
I589
sg2001
I1992
sg1849
I1840
sg883
I874
sg1064
I1055
sg975
I966
sg1863
I1854
sg1109
I1100
sg1190
I1181
sg2448
I2439
sg103
I94
sg1517
I1508
sg666
I657
sg1053
I1044
sg699
I690
sg125
I116
sg1052
I1043
sg1468
I1459
sg1596
I1587
sg2079
I2070
sg2467
I2458
sg2194
I2185
sg2181
I2172
sg2115
I2106
sg1435
I1426
sg2039
I2030
sg1526
I1517
sg178
I169
sg1897
I1888
sg1187
I1178
sg621
I612
sg927
I918
sg351
I342
sg1529
I1520
sg397
I388
sg590
I581
sg1920
I1911
sg718
I709
sg971
I962
sg1136
I1127
sg2116
I2107
sg857
I848
sg1352
I1343
sg1549
I1540
sg1762
I1753
sg1737
I1728
sg1933
I1924
sg364
I355
sg345
I336
sg704
I695
sg1845
I1836
sg1823
I1814
sg2354
I2345
sg1655
I1646
sg1558
I1549
sg75
I66
sg2203
I2194
sg515
I506
sg2267
I2258
sg2562
I2553
sg303
I294
sg131
I122
sg1035
I1026
sg1073
I1064
sg695
I686
sg703
I694
sg1916
I1907
sg834
I825
sg2111
I2102
sg320
I311
sg508
I499
sg978
I969
sg557
I548
sg1295
I1286
sg2021
I2012
sg2174
I2165
sg2114
I2105
sg1857
I1848
sg1044
I1035
sg648
I639
sg1120
I1111
sg237
I228
sg505
I496
sg2136
I2127
sg1813
I1804
sg1074
I1065
sg917
I908
sg2167
I2158
sg2294
I2285
sg1153
I1144
sg1993
I1984
sg1866
I1857
sg1718
I1709
sg677
I668
sg1111
I1102
sg2450
I2441
sg1472
I1463
sg2076
I2067
sg202
I193
sg190
I181
sg1144
I1135
sg1787
I1778
sg74
I65
sg366
I357
sg1390
I1381
sg787
I778
sg1514
I1505
sg748
I739
sg951
I942
sg1112
I1103
sg980
I971
sg896
I887
sg2536
I2527
sg1362
I1353
sg2336
I2327
sg1250
I1241
sg1276
I1267
sg840
I831
sg1864
I1855
sg1319
I1310
sg1012
I1003
sg1991
I1982
sg2149
I2140
sg804
I795
sg1294
I1285
sg2370
I2361
sg159
I150
sg158
I149
sg755
I746
sg2490
I2481
sg136
I127
sg1324
I1315
sg1450
I1441
sg1724
I1715
sg1683
I1674
sg1453
I1444
sg2037
I2028
sg1264
I1255
sg1155
I1146
sg1071
I1062
sg1019
I1010
sg838
I829
sg368
I359
sg434
I425
sg1982
I1973
sg726
I717
sg1268
I1259
sg854
I845
sg2166
I2157
sg1619
I1610
sg1018
I1009
sg989
I980
sg1202
I1193
sg314
I305
sg1895
I1886
sg2558
I2549
sg1426
I1417
sg2129
I2120
sg1923
I1914
sg114
I105
sg667
I658
sg48
I39
sg1763
I1754
sg1211
I1202
sg761
I752
sg2300
I2291
sg1651
I1642
sg258
I249
sg1359
I1350
sg1606
I1597
sg2044
I2035
sg2561
I2552
sg2062
I2053
sg2436
I2427
sg1006
I997
sg2301
I2292
sg1671
I1662
sg1475
I1466
sg251
I242
sg130
I121
sg2196
I2187
sg874
I865
sg606
I597
sg126
I117
sg2068
I2059
sg1662
I1653
sg2002
I1993
sg1137
I1128
sg2057
I2048
sg70
I61
sg1493
I1484
sg798
I789
sg1925
I1916
sg702
I693
sg2419
I2410
sg2066
I2057
sg2353
I2344
sg1986
I1977
sg1569
I1560
sg1381
I1372
sg479
I470
sg1147
I1138
sg1286
I1277
sg2015
I2006
sg2566
I2557
sg912
I903
sg509
I500
sg782
I773
sg788
I779
sg76
I67
sg1237
I1228
sg2464
I2455
sg1473
I1464
sg1414
I1405
sg1761
I1752
sg1075
I1066
sg1659
I1650
sg20
I11
sg871
I862
sg2378
I2369
sg2016
I2007
sg1418
I1409
sg1152
I1143
sg657
I648
sg1303
I1294
sg1183
I1174
sg1443
I1434
sg1101
I1092
sg1232
I1223
sg635
I626
sg2210
I2201
sg2348
I2339
sg1003
I994
sg1224
I1215
sg1568
I1559
sg1129
I1120
sg2575
I2566
sg116
I107
sg770
I761
sg1239
I1230
sg1330
I1321
sg1045
I1036
sg688
I679
sg1451
I1442
sg372
I363
sg1913
I1904
sg1315
I1306
sg214
I205
sg1926
I1917
sg2289
I2280
sg969
I960
sg2081
I2072
sg747
I738
sg229
I220
sg1803
I1794
sg2139
I2130
sg879
I870
sg2416
I2407
sg82
I73
sg248
I239
sg284
I275
sg2478
I2469
sg870
I861
sg212
I203
sg1107
I1098
sg352
I343
sg1022
I1013
sg2483
I2474
sg1739
I1730
sg309
I300
sg2525
I2516
sg2134
I2125
sg698
I689
sg979
I970
sg200
I191
sg2206
I2197
sg2488
I2479
sg1791
I1782
sg1466
I1457
sg1379
I1370
sg1639
I1630
sg1602
I1593
sg328
I319
sg1719
I1710
sg206
I197
sg713
I704
sg1621
I1612
sg1470
I1461
sg164
I155
sg2154
I2145
sg18
I9
sg944
I935
sg2442
I2433
sg1092
I1083
sg419
I410
sg492
I483
sg2217
I2208
sg2326
I2317
sg2103
I2094
sg776
I767
sg488
I479
sg2215
I2206
sg730
I721
sg35
I26
sg385
I376
sg339
I330
sg529
I520
sg1013
I1004
sg2014
I2005
sg108
I99
sg887
I878
sg1056
I1047
sg2228
I2219
sg1757
I1748
sg1777
I1768
sg1998
I1989
sg247
I238
sg2476
I2467
sg1548
I1539
sg1721
I1712
sg706
I697
sg2240
I2231
sg1142
I1133
sg1527
I1518
sg11
I2
sg423
I414
sg656
I647
sg906
I897
sg37
I28
sg1886
I1877
sg555
I546
sg2205
I2196
sg1134
I1125
sg394
I385
sg411
I402
sg2432
I2423
sg1770
I1761
sg1688
I1679
sg1204
I1195
sg1040
I1031
sg2565
I2556
sg560
I551
sg2200
I2191
sg674
I665
sg2459
I2450
sg1289
I1280
sg2530
I2521
sg1267
I1258
sg1934
I1925
sg280
I271
sg433
I424
sg2251
I2242
sg1598
I1589
sg379
I370
sg2118
I2109
sg996
I987
sg2151
I2142
sg642
I633
sg2258
I2249
sg268
I259
sg1284
I1275
sg877
I868
sg2400
I2391
sg359
I350
sg2073
I2064
sg285
I276
sg1646
I1637
sg2218
I2209
sg1522
I1513
sg2453
I2444
sg1274
I1265
sg2369
I2360
sg143
I134
sg1440
I1431
sg2452
I2443
sg474
I465
sg1538
I1529
sg825
I816
sg670
I661
sg824
I815
sg640
I631
sg273
I264
sg1088
I1079
sg909
I900
sg1760
I1751
sg535
I526
sg2239
I2230
sg1581
I1572
sg1951
I1942
sg1588
I1579
sg380
I371
sg1585
I1576
sg1802
I1793
sg548
I539
sg1116
I1107
sg2064
I2055
sg800
I791
sg473
I464
sg1132
I1123
sg1455
I1446
sg1077
I1068
sg1087
I1078
sg2106
I2097
sg2023
I2014
sg2244
I2235
sg569
I560
sg2282
I2273
sg242
I233
sg623
I614
sg1708
I1699
sg1990
I1981
sg72
I63
sg409
I400
sg768
I759
sg2517
I2508
sg1578
I1569
sg486
I477
sg2388
I2379
sg1509
I1500
sg457
I448
sg241
I232
sg1613
I1604
sg1678
I1669
sg943
I934
sg1057
I1048
sg29
I20
sg1961
I1952
sg527
I518
sg2473
I2464
sg1542
I1533
sg1680
I1671
sg1278
I1269
sg2083
I2074
sg1130
I1121
sg2131
I2122
sg553
I544
sg2065
I2056
sg2207
I2198
sg651
I642
sg1540
I1531
sg87
I78
sg104
I95
sg939
I930
sg386
I377
sg911
I902
sg1590
I1581
sg2391
I2382
sg1648
I1639
sg716
I707
sg597
I588
sg1681
I1672
sg2247
I2238
sg335
I326
sg2319
I2310
sg1832
I1823
sg1102
I1093
sg45
I36
sg933
I924
sg736
I727
sg54
I45
sg1170
I1161
sg2477
I2468
sg2408
I2399
sg942
I933
sg2510
I2501
sg902
I893
sg1694
I1685
sg1400
I1391
sg1932
I1923
sg1819
I1810
sg1804
I1795
sg739
I730
sg353
I344
sg47
I38
sg2168
I2159
sg1699
I1690
sg1050
I1041
sg967
I958
sg1047
I1038
sg1048
I1039
sg762
I753
sg1836
I1827
sg1692
I1683
sg1241
I1232
sg2290
I2281
sg475
I466
sg1325
I1316
sg1151
I1142
sg1008
I999
sg2056
I2047
sg1672
I1663
sg388
I379
sg855
I846
sg400
I391
sg1251
I1242
sg1506
I1497
sg1030
I1021
sg1723
I1714
sg1838
I1829
sg499
I490
sg513
I504
sg795
I786
sg2017
I2008
sg1055
I1046
sg85
I76
sg1266
I1257
sg1391
I1382
sg1226
I1217
sg1287
I1278
ssS'separator'
p2584
S'='
sS'sparse'
p2585
I01
sb.