ccopy_reg
_reconstructor
p1
(csklearn.feature_extraction.dict_vectorizer
DictVectorizer
p2
c__builtin__
object
p3
NtRp4
(dp5
S'vocabulary_'
p6
(dp7
S'amod=small'
p8
I39
sS'w-2=billion'
p9
I528
sS'amod=short-term'
p10
I38
sS'w-2=total'
p11
I606
sS'advmod=consistently'
p12
I1
sS'w+1=underwrite'
p13
I238
sS'amod=due'
p14
I12
sS'infmod=clean'
p15
I83
sS'w+2=during'
p16
I298
sS'w-1=20,000'
p17
I381
sS'w-1=bad'
p18
I395
sS'amod=adjustable'
p19
I4
sS'conj=program'
p20
I61
sS'w+2=buy'
p21
I283
sS'w-2=offer'
p22
I570
sS'w-1=overnight'
p23
I453
sS'w+2=Hungary'
p24
I253
sS'w-1=seek'
p25
I468
sS'det=all'
p26
I68
sS'nn=BOJ'
p27
I85
sS'w-2=they'
p28
I602
sS'w-2=common'
p29
I531
sS'prep=by'
p30
I135
sS'amod=leveraged'
p31
I22
sS'prep=between'
p32
I134
sS'w-1=low-interest'
p33
I435
sS'w+2=british'
p34
I277
sS'w+2=equipment'
p35
I299
sS'w+1=that'
p36
I228
sS'w-1=coop'
p37
I407
sS'nn=student'
p38
I107
sS'nsubj=government'
p39
I112
sS'amod=sub-prime'
p40
I41
sS'amod=conventional'
p41
I8
sS'nn=interest'
p42
I101
sS'infmod=build'
p43
I81
sS'conj=more'
p44
I59
sS'w+2=burma'
p45
I280
sS'w-1=new'
p46
I447
sS'amod=coop'
p47
I9
sS'w+1=scheme'
p48
I222
sS'w-1=tiny'
p49
I487
sS'w+1=give'
p50
I187
sS'w-2=dole'
p51
I536
sS'w-1=cheap'
p52
I402
sS'w-2=repayment'
p53
I586
sS'w-2=low'
p54
I561
sS'w-1=about'
p55
I388
sS'w+2=high'
p56
I316
sS'w-2=obtain'
p57
I567
sS'rcmod=start'
p58
I155
sS'w-2=receive'
p59
I579
sS'w-1=be'
p60
I397
sS'w+1=interest'
p61
I197
sS'partmod=enter'
p62
I121
sS'w+2=pay'
p63
I341
sS'w+1=program'
p64
I220
sS'w-2=investment'
p65
I554
sS'w-2=the'
p66
I600
sS'w+2=115'
p67
I250
sS'w+1=she'
p68
I225
sS'w-2=yielding'
p69
I614
sS'amod=irregular'
p70
I21
sS'w+2=build'
p71
I278
sS'rcmod=expect'
p72
I149
sS'w-1=give'
p73
I417
sS'w+1=help'
p74
I193
sS'w+2=available'
p75
I270
sS'partmod=make'
p76
I125
sS'w-2=provide'
p77
I577
sS'w+2=country'
p78
I293
sS'w-2=long'
p79
I560
sS'amod=huge'
p80
I16
sS'w+1=of'
p81
I209
sS'w-2=without'
p82
I611
sS'nn=government'
p83
I98
sS'w+2=to'
p84
I365
sS'w+1=on'
p85
I211
sS'w-2=cut'
p86
I534
sS'w-1=student'
p87
I474
sS'w+1=or'
p88
I212
sS'w-2=120'
p89
I499
sS'w-2=justify'
p90
I556
sS'w-1=its'
p91
I431
sS'w+2=appear'
p92
I267
sS'w-2=approve'
p93
I520
sS'w+2=three'
p94
I364
sS'w-2=extend'
p95
I538
sS'w+1=money'
p96
I206
sS'w+2=in'
p97
I319
sS'w-1=huge'
p98
I422
sS'w+2=it'
p99
I325
sS'nn=rate'
p100
I105
sS'w-2=all'
p101
I516
sS'w+2=who'
p102
I371
sS'infmod=buy'
p103
I82
sS'nn=access'
p104
I89
sS'amod=lowinterest'
p105
I27
sS'w+2=lend'
p106
I326
sS'complm=that'
p107
I53
sS'w+2=property'
p108
I346
sS'w-1=those'
p109
I485
sS'tmod=month'
p110
I158
sS'w+2=will'
p111
I372
sS'w-1=repayable'
p112
I460
sS'w-1=government'
p113
I418
sS'w+1=allow'
p114
I168
sS'w+2=but'
p115
I282
sS'w-1=subprime'
p116
I476
sS'w+1=payment'
p117
I216
sS'w+2=training'
p118
I366
sS'w+2=by'
p119
I284
sS'w-2=sub-prime'
p120
I593
sS'w+1=the'
p121
I229
sS'w+2=take'
p122
I359
sS'w+1=most'
p123
I207
sS'rcmod=receive'
p124
I154
sS'w-2=for'
p125
I541
sS'w+2=be'
p126
I274
sS'w+1=they'
p127
I231
sS'w+2=borrower'
p128
I276
sS'partmod=extend'
p129
I122
sS'nsubjpass=#PRP#'
p130
I117
sS'w-2=out'
p131
I574
sS'w-1=access'
p132
I389
sS'prep=in'
p133
I139
sS'w+1=problem'
p134
I218
sS'w+1=for'
p135
I184
sS'w+2=still'
p136
I358
sS'partmod=guarantee'
p137
I123
sS'w+1=immediately'
p138
I195
sS'amod=interest-free'
p139
I19
sS'prep=to'
p140
I143
sS'w+2=recover'
p141
I350
sS'w-1=bank'
p142
I396
sS'w+2=come'
p143
I288
sS'w+1=and'
p144
I169
sS'w+2=even'
p145
I300
sS'w+2=increase'
p146
I320
sS'w+1=later'
p147
I201
sS'w+2=start'
p148
I357
sS'w+2=for'
p149
I305
sS'w-2=about'
p150
I511
sS'w+2=offer'
p151
I338
sS'nsubj=that'
p152
I115
sS'w-1=such'
p153
I477
sS'w+1=issue'
p154
I199
sS'w-1=a'
p155
I387
sS'num=$'
p156
I119
sS'w-2=government'
p157
I543
sS'det=this'
p158
I73
sS'w-1=in'
p159
I424
sS'amod=subprime'
p160
I42
sS'w-1=micro-credit'
p161
I439
sS'w-2=-rrb-'
p162
I495
sS'w-1=the'
p163
I481
sS'conj=consumer'
p164
I55
sS'w-1=approve'
p165
I394
sS'w-2=2,500'
p166
I500
sS'nsubj=loan'
p167
I113
sS'amod=first'
p168
I14
sS'w+2=not'
p169
I335
sS'w+2=Indonesia'
p170
I256
sS'w+1=package'
p171
I215
sS'w+2=low'
p172
I329
sS'w-2=agree'
p173
I514
sS'w-2=initial'
p174
I550
sS'w-1=low-cost'
p175
I434
sS'w+1=have'
p176
I191
sS'w+2=higher'
p177
I318
sS'amod=micro-credit'
p178
I29
sS'det=the'
p179
I71
sS'w-2=voluntarily'
p180
I608
sS'det=these'
p181
I72
sS'w+2=Thailand'
p182
I261
sS'w-2=through'
p183
I604
sS'w-2=500'
p184
I502
sS'w-2=205,000'
p185
I501
sS'w-2=or'
p186
I573
sS'w+2=difficult'
p187
I297
sS'w-2=of'
p188
I568
sS'w-2=on'
p189
I571
sS'w-1=to'
p190
I488
sS'w-2=kind'
p191
I557
sS'w-2=85'
p192
I505
sS'w-1=first'
p193
I414
sS'w-2=80'
p194
I504
sS'nn=microcredit'
p195
I102
sS'w-2=World'
p196
I509
sS'w-2=do'
p197
I535
sS'w-2=rework'
p198
I588
sS'w-1=imf-led'
p199
I423
sS'w-1=25,000'
p200
I382
sS'infmod=bail'
p201
I80
sS'w-1=unwise'
p202
I489
sS'w-2=dollar'
p203
I537
sS'w+2=thereby'
p204
I362
sS'w-2=win'
p205
I609
sS'w-1=reduce'
p206
I457
sS'w-2=bad'
p207
I525
sS'w+2=can'
p208
I286
sS'prep=over'
p209
I142
sS'w+2=reconstruction'
p210
I349
sS'w+1=at'
p211
I170
sS'w-1=car'
p212
I401
sS'w-2=adjustable'
p213
I513
sS'w+2=force'
p214
I306
sS'w-2=than'
p215
I598
sS'w+1=nearly'
p216
I208
sS'w-1=secure'
p217
I467
sS'w+2=financial'
p218
I304
sS'w-1=lowinterest'
p219
I436
sS'w-2=refer'
p220
I580
sS'w+2=NATO'
p221
I260
sS'w+1=make'
p222
I203
sS'w-1=yen'
p223
I491
sS'w+1=through'
p224
I234
sS'w-1=short-term'
p225
I471
sS'w-2=aid'
p226
I515
sS'w-1=say'
p227
I464
sS'w-1=with'
p228
I490
sS'w+2=because'
p229
I275
sS'amod=risky'
p230
I36
sS'w+2=high-risk'
p231
I317
sS'w-2=small'
p232
I590
sS'partmod=underwrite'
p233
I128
sS'advmod=most'
p234
I2
sS'det=those'
p235
I74
sS'w-1=repay'
p236
I459
sS'w+2=bail'
p237
I272
sS'rcmod=take'
p238
I156
sS'w-2=support'
p239
I595
sS'prep=for'
p240
I136
sS'w-1=secondary'
p241
I466
sS'w-2=100'
p242
I497
sS'amod=federal'
p243
I13
sS'nn=mortgage'
p244
I104
sS'w+2=as'
p245
I268
sS'w-2=U.S.'
p246
I507
sS'w+2=return'
p247
I352
sS'w+1=would'
p248
I244
sS'w-1=direct'
p249
I409
sS'w-1=involve'
p250
I429
sS'auxpass=be'
p251
I50
sS'w-1=microcredit'
p252
I441
sS'w+2=could'
p253
I292
sS'w+2=India'
p254
I255
sS'nn=business'
p255
I92
sS'w-2=Monetary'
p256
I506
sS'w-2=over'
p257
I575
sS'w+2=good'
p258
I310
sS'nn=Bank'
p259
I86
sS'nn=housing'
p260
I100
sS'w-1=risky'
p261
I463
sS'w-2=reform'
p262
I582
sS'w+1=waiver'
p263
I239
sS'w-1=bridge'
p264
I399
sS'rcmod=depend'
p265
I148
sS'prep=of'
p266
I140
sS'w+2=she'
p267
I354
sS'w-1=interest-free'
p268
I427
sS'amod=such'
p269
I43
sS'w+2=with'
p270
I373
sS'w-1=term'
p271
I479
sS'w-2=up'
p272
I607
sS'w-2=those'
p273
I603
sS'num=zero'
p274
I120
sS'w-1=commercial'
p275
I404
sS'w+1=system'
p276
I227
sS'amod=$'
p277
I3
sS'nn=bridge'
p278
I91
sS'nn=yen'
p279
I109
sS'w-2=off'
p280
I569
sS'w-1=billion'
p281
I398
sS'w+1=guarantee'
p282
I190
sS'w-2=company'
p283
I532
sS'amod=repayable'
p284
I35
sS'amod=cheap'
p285
I6
sS'w+2=of'
p286
I337
sS'rcmod=able'
p287
I145
sS'nn=emergency'
p288
I97
sS'w+1=to'
p289
I235
sS'w+2=close'
p290
I287
sS'w-2=US'
p291
I508
sS'amod=micro-finance'
p292
I30
sS'w+2=he'
p293
I314
sS'w+2=make'
p294
I330
sS'det=any'
p295
I70
sS'w+1=total'
p296
I237
sS'w+1=so'
p297
I226
sS'dep=campaign'
p298
I65
sS'w+2=Washington'
p299
I262
sS'amod=private'
p300
I34
sS'w+2=grow'
p301
I311
sS'w+2=Congress'
p302
I252
sS'w+1=originally'
p303
I213
sS'w+2=u.s.-based'
p304
I367
sS'w-2=mortgage'
p305
I564
sS'conj=insurance'
p306
I57
sS'w-1=Bank'
p307
I384
sS'w-2=interest'
p308
I552
sS'nn=U.S.'
p309
I88
sS'w-1=she'
p310
I470
sS'xcomp=help'
p311
I615
sS'w-1=eliminate'
p312
I411
sS'dobj=Korea'
p313
I76
sS'nn=Fund'
p314
I87
sS'w+2=now'
p315
I336
sS'w+1=South'
p316
I165
sS'w+1=he'
p317
I192
sS'w+2=require'
p318
I351
sS'det=another'
p319
I69
sS'w+1=because'
p320
I173
sS'w+1=enter'
p321
I182
sS'amod=corporate'
p322
I10
sS'w+1=over'
p323
I214
sS'w+2=seed'
p324
I353
sS'w+2=small'
p325
I355
sS'w+2=receive'
p326
I348
sS'w+2=expand'
p327
I301
sS'w+1=agreement'
p328
I167
sS'w+1=between'
p329
I174
sS'w-2=rate'
p330
I578
sS'w-1=special'
p331
I473
sS'w-1=other'
p332
I451
sS'w-2=back'
p333
I524
sS'w+1=officer'
p334
I210
sS'dep=grant'
p335
I66
sS'w-2=apply'
p336
I519
sS'w+1=could'
p337
I177
sS'w-2=return'
p338
I587
sS'amod=new'
p339
I32
sS'amod=long'
p340
I23
sS'w+2=reach'
p341
I347
sS'w-2=with'
p342
I610
sS'nn=term'
p343
I108
sS'w-1=or'
p344
I450
sS'dobj=car'
p345
I77
sS'w-2=average'
p346
I523
sS'amod=imf-led'
p347
I17
sS'rcmod=overdue'
p348
I152
sS'prep=with'
p349
I144
sS'nn=bank'
p350
I90
sS'cc=or'
p351
I52
sS'w+2=bank'
p352
I273
sS'partmod=intend'
p353
I124
sS'w+2=loan'
p354
I328
sS'w-1=zero-interest'
p355
I492
sS'w-1=Fund'
p356
I385
sS'amod=commercial'
p357
I7
sS'dobj=force'
p358
I78
sS'w-1=federal'
p359
I413
sS'w-2=in'
p360
I548
sS'w+1=sector'
p361
I223
sS'w-1=irregular'
p362
I430
sS'w+1=market'
p363
I204
sS'nn=school'
p364
I106
sS'amod=tiny'
p365
I44
sS'prep=from'
p366
I137
sS'amod=low-interest'
p367
I26
sS'conj=money'
p368
I58
sS'w+2=help'
p369
I315
sS'amod=low-cost'
p370
I25
sS'num=#NUMBER#'
p371
I118
sS'w+2=account'
p372
I264
sS'nn=car'
p373
I93
sS"w+2=''"
p374
I246
sS'amod=low'
p375
I24
sS'w-1=this'
p376
I484
sS'w-2=worry'
p377
I613
sS'w-1=renegotiate'
p378
I458
sS'w+1=modification'
p379
I205
sS'w-1=monthly'
p380
I444
sS'w-2=student'
p381
I592
sS'w+2=consumer'
p382
I291
sS'rcmod=unable'
p383
I157
sS'nsubj=director'
p384
I111
sS'w+2=need'
p385
I334
sS'w+2=Japan'
p386
I257
sS'w+1=extend'
p387
I183
sS'cc=and'
p388
I51
sS'w+1=by'
p389
I175
sS'w+1=will'
p390
I242
sS'w+1=be'
p391
I172
sS'w-2=refinance'
p392
I581
sS'w-1=business'
p393
I400
sS'w+1=get'
p394
I186
sS'w+1=loss'
p395
I202
sS'nsubj=money'
p396
I114
sS'conj=cost'
p397
I56
sS'w-2=lower'
p398
I562
sS'w+2=Korea'
p399
I258
sS'w-1=home'
p400
I420
sS'w+2=some'
p401
I356
sS'w+2=hamper'
p402
I312
sS'w-2=most'
p403
I565
sS'w+1=in'
p404
I196
sS'w+1=-lrb-'
p405
I162
sS'w+2=party'
p406
I340
sS'w+1=it'
p407
I200
sS'nsubj=#PRP#'
p408
I110
sS'w+2=year'
p409
I376
sS'w-2=rely'
p410
I583
sS'w-2=remove'
p411
I584
sS'w+1=into'
p412
I198
sS'w-1=through'
p413
I486
sS'w-2=instance'
p414
I551
sS'w+1=barely'
p415
I171
sS'w-1=school'
p416
I465
sS'poss=#PRP#'
p417
I129
sS'w-1=take'
p418
I478
sS'w-1=leveraged'
p419
I433
sS'w+2=intend'
p420
I322
sS'w+1=against'
p421
I166
sS'w-2=find'
p422
I540
sS'conj=training'
p423
I63
sS'w-2=assistance'
p424
I522
sS'w-2=these'
p425
I601
sS'prep=give'
p426
I138
sS'w-1=small'
p427
I472
sS'w+2=China'
p428
I251
sS'w-1=corporate'
p429
I408
sS'w+2=bundle'
p430
I279
sS'rcmod=allow'
p431
I146
sS'w+1=prevent'
p432
I217
sS'w-1=restrict'
p433
I461
sS'w+1=today'
p434
I236
sS'w+2=crop'
p435
I295
sS'w-1=make'
p436
I437
sS'w+1=contribute'
p437
I176
sS'poss=Francisco'
p438
I130
sS'w+2=which'
p439
I370
sS'amod=zero-interest'
p440
I45
sS'w-1=mortgage'
p441
I445
sS'w+2=bad'
p442
I271
sS'w-2=be'
p443
I526
sS'rcmod=need'
p444
I151
sS'w+1=profit'
p445
I219
sS'w-1=have'
p446
I419
sS'nn=minimum'
p447
I103
sS'prep=on'
p448
I141
sS'rcmod=help'
p449
I150
sS'w+2=consistently'
p450
I289
sS'w+1=go'
p451
I188
sS'nsubj=which'
p452
I116
sS'w-2=number'
p453
I566
sS'w-1=for'
p454
I415
sS'conj=take'
p455
I62
sS'w+1=therefore'
p456
I230
sS'w-2=work'
p457
I612
sS'dobj=$'
p458
I75
sS'amod=international'
p459
I20
sS'w-2=highly'
p460
I546
sS'amod=direct'
p461
I11
sS'w-1=revolving'
p462
I462
sS'w-2=talk'
p463
I597
sS'w-1=emergency'
p464
I412
sS'w+2=less'
p465
I327
sS'rcmod=create'
p466
I147
sS'w+2=that'
p467
I360
sS'amod=initial'
p468
I18
sS'w+2=village'
p469
I369
sS'w-2=can'
p470
I530
sS'w-1=on'
p471
I449
sS'w-2=get'
p472
I542
sS'w+2=any'
p473
I266
sS'w-1=meet'
p474
I438
sS'w+2=function'
p475
I308
sS'w+2=monitor'
p476
I331
sS'w-1=Kompanion'
p477
I386
sS'w-2=subprime'
p478
I594
sS'w+2=fight'
p479
I302
sS'w-2=to'
p480
I605
sS'w+2=and'
p481
I265
sS'w-1=private'
p482
I455
sS'w-2=and'
p483
I517
sS'w-2=grant'
p484
I544
sS'w+2=more'
p485
I332
sS'w-2=finances'
p486
I539
sS'w-1=dollar'
p487
I410
sS'w+1=this'
p488
I232
sS'w-1=interest'
p489
I426
sS'cop=be'
p490
I64
sS'w-2=any'
p491
I518
sS'w+1=quota'
p492
I221
sS'w-2=he'
p493
I545
sS'w+1=shark'
p494
I224
sS'amod=secondary'
p495
I37
sS'amod=bad'
p496
I5
sS'w+1=which'
p497
I241
sS'w+2=couple'
p498
I294
sS'w-1=minimum'
p499
I443
sS'w+1=with'
p500
I243
sS'w+1=crisis'
p501
I178
sS'w-1=lender'
p502
I432
sS'appos=mortgage'
p503
I47
sS'w-2=say'
p504
I589
sS'w+2=investment'
p505
I324
sS'w-1=BOJ'
p506
I383
sS'w+2=the'
p507
I361
sS'prep=at'
p508
I133
sS'w+1=war'
p509
I240
sS'w-2=,'
p510
I494
sS'w-2=.'
p511
I496
sS'w-1=and'
p512
I392
sS'nn=home'
p513
I99
sS'w-2=$'
p514
I493
sS'w-2=access'
p515
I512
sS'aux=have'
p516
I48
sS'w-2=but'
p517
I529
sS'w+2=unsecured'
p518
I368
sS'w+2=personal'
p519
I343
sS'w-1=.'
p520
I379
sS'w-1=-'
p521
I378
sS'w-1=,'
p522
I377
sS'w-2=110'
p523
I498
sS'w-2=consist'
p524
I533
sS'w-1=rate'
p525
I456
sS'w-1=housing'
p526
I421
sS'w+2=finance'
p527
I303
sS'w-2=as'
p528
I521
sS'amod=special'
p529
I40
sS'w-1=consumer'
p530
I405
sS'w-2=start-up'
p531
I591
sS'w+1=due'
p532
I181
sS'w+2=policy'
p533
I344
sS'nn=college'
p534
I94
sS'w-1=150'
p535
I380
sS'w+2=profit-sharing'
p536
I345
sS'w+2=interest'
p537
I323
sS'w+1=threaten'
p538
I233
sS'w-1=of'
p539
I448
sS'w-2=a'
p540
I510
sS'w-1=they'
p541
I483
sS'w+2=foreclosure'
p542
I307
sS'w-1=sub-prime'
p543
I475
sS'det=a'
p544
I67
sS'nn=dollar'
p545
I96
sS'w-2=make'
p546
I563
sS'w+2=assure'
p547
I269
sS'w-2=include'
p548
I549
sS'dobj=money'
p549
I79
sS'w+1=from'
p550
I185
sS'w-2=loan'
p551
I559
sS'conj=assistance'
p552
I54
sS'w+2=they'
p553
I363
sS'w-2=issue'
p554
I555
sS'w+2=give'
p555
I309
sS'w-1=out'
p556
I452
sS'rcmod=purchase'
p557
I153
sS'partmod=offer'
p558
I126
sS'w-1=police'
p559
I454
sS'w-2=interest-free'
p560
I553
sS'conj=policy'
p561
I60
sS'amod=many'
p562
I28
sS'w+2=have'
p563
I313
sS'w-2=once'
p564
I572
sS'prep=against'
p565
I132
sS'w+2=mortgage'
p566
I333
sS'w-1=these'
p567
I482
sS'w-1=multi-tranche'
p568
I446
sS'w-1=senior'
p569
I469
sS'advmod=but'
p570
I0
sS'w+2=permit'
p571
I342
sS'w-2=650'
p572
I503
sS'amod=fixed'
p573
I15
sS'partmod=total'
p574
I127
sS'w-1=all'
p575
I391
sS'w+2=infrastructure'
p576
I321
sS'w-2=lack'
p577
I558
sS'w+1=government'
p578
I189
sS'w-2=repay'
p579
I585
sS'w+2=other'
p580
I339
sS'w-1=conventional'
p581
I406
sS'w-2=take'
p582
I596
sS'aux=to'
p583
I49
sS'w-1=million'
p584
I442
sS'w+2=would'
p585
I375
sS'w+1=holder'
p586
I194
sS'w-1=get'
p587
I416
sS'w+2=constrain'
p588
I290
sS'w+1=delinquency'
p589
I179
sS'poss=week'
p590
I131
sS'w+1=$'
p591
I159
sS'w+1=-'
p592
I161
sS'w+1=,'
p593
I160
sS'w+1=.'
p594
I163
sS'w-2=that'
p595
I599
sS'w+2=.'
p596
I249
sS'w+2=,'
p597
I247
sS'w+2=-'
p598
I248
sS'nn=consumer'
p599
I95
sS'neg=not'
p600
I84
sS'w+2=$'
p601
I245
sS'amod=multi-billion-dollar'
p602
I31
sS'amod=overnight'
p603
I33
sS'w+2=campaign'
p604
I285
sS'w+1=do'
p605
I180
sS'w-1=international'
p606
I428
sS'w-1=another'
p607
I393
sS'w+1=Hungary'
p608
I164
sS'w+2=I'
p609
I254
sS'w-2=improvement'
p610
I547
sS'w-1=college'
p611
I403
sS'appos=interest'
p612
I46
sS'w+2=demand'
p613
I296
sS'w-1=micro-finance'
p614
I440
sS'w+2=Lebanon'
p615
I259
sS'w+2=woman'
p616
I374
sS'w-1=include'
p617
I425
sS'w-2=because'
p618
I527
sS'w+2=business'
p619
I281
sS'w-1=that'
p620
I480
sS'w-1=add'
p621
I390
sS'w+2=a'
p622
I263
sS'w-2=oversee'
p623
I576
ssS'dtype'
p624
cnumpy
float64
p625
sS'feature_names_'
p626
(lp627
g570
ag12
ag234
ag277
ag19
ag496
ag285
ag357
ag41
ag47
ag322
ag461
ag14
ag243
ag168
ag573
ag80
ag347
ag468
ag139
ag459
ag70
ag31
ag340
ag375
ag370
ag367
ag105
ag562
ag178
ag292
ag602
ag339
ag603
ag300
ag284
ag230
ag495
ag10
ag8
ag529
ag40
ag160
ag269
ag365
ag440
ag612
ag503
ag516
ag583
ag251
ag388
ag351
ag107
ag552
ag164
ag397
ag306
ag368
ag44
ag561
ag20
ag455
ag423
ag490
ag298
ag335
ag544
ag26
ag319
ag295
ag179
ag181
ag158
ag235
ag458
ag313
ag345
ag358
ag549
ag201
ag43
ag103
ag15
ag600
ag27
ag259
ag314
ag309
ag104
ag350
ag278
ag255
ag373
ag534
ag599
ag545
ag288
ag83
ag513
ag260
ag42
ag195
ag447
ag244
ag100
ag364
ag38
ag343
ag279
ag408
ag384
ag39
ag167
ag396
ag152
ag452
ag130
ag371
ag156
ag274
ag62
ag129
ag137
ag353
ag76
ag558
ag574
ag233
ag417
ag438
ag590
ag565
ag508
ag32
ag30
ag240
ag366
ag426
ag133
ag266
ag448
ag209
ag140
ag349
ag287
ag431
ag466
ag265
ag72
ag449
ag444
ag348
ag557
ag124
ag58
ag238
ag383
ag110
ag591
ag593
ag592
ag405
ag594
ag608
ag316
ag421
ag328
ag114
ag144
ag211
ag415
ag391
ag320
ag329
ag389
ag437
ag337
ag501
ag589
ag605
ag532
ag321
ag387
ag135
ag550
ag394
ag50
ag451
ag578
ag282
ag176
ag317
ag74
ag586
ag138
ag404
ag61
ag412
ag154
ag407
ag147
ag395
ag222
ag363
ag379
ag96
ag123
ag216
ag81
ag334
ag85
ag88
ag303
ag323
ag171
ag117
ag432
ag134
ag445
ag64
ag492
ag48
ag361
ag494
ag68
ag297
ag276
ag36
ag121
ag456
ag127
ag488
ag538
ag224
ag289
ag434
ag296
ag13
ag263
ag509
ag497
ag390
ag500
ag248
ag601
ag374
ag597
ag598
ag596
ag67
ag428
ag302
ag24
ag609
ag254
ag170
ag386
ag399
ag615
ag221
ag182
ag299
ag622
ag372
ag481
ag473
ag92
ag245
ag547
ag75
ag442
ag237
ag352
ag126
ag229
ag128
ag34
ag71
ag430
ag45
ag619
ag115
ag21
ag119
ag604
ag208
ag290
ag143
ag450
ag588
ag382
ag253
ag78
ag498
ag435
ag613
ag187
ag16
ag35
ag145
ag327
ag479
ag527
ag218
ag149
ag214
ag542
ag475
ag555
ag258
ag301
ag402
ag563
ag293
ag369
ag56
ag231
ag177
ag97
ag146
ag576
ag420
ag537
ag505
ag99
ag106
ag465
ag354
ag172
ag294
ag476
ag485
ag566
ag385
ag169
ag315
ag286
ag151
ag580
ag406
ag63
ag571
ag519
ag533
ag536
ag108
ag341
ag326
ag210
ag141
ag318
ag247
ag324
ag267
ag325
ag401
ag148
ag136
ag122
ag467
ag507
ag204
ag553
ag94
ag84
ag118
ag304
ag518
ag469
ag439
ag102
ag111
ag270
ag616
ag585
ag409
ag522
ag521
ag520
ag535
ag17
ag200
ag506
ag307
ag356
ag477
ag155
ag55
ag132
ag621
ag575
ag512
ag607
ag165
ag18
ag142
ag60
ag281
ag264
ag393
ag212
ag52
ag611
ag275
ag530
ag581
ag37
ag429
ag249
ag487
ag312
ag464
ag359
ag193
ag454
ag587
ag73
ag113
ag446
ag400
ag526
ag98
ag199
ag159
ag617
ag489
ag268
ag606
ag250
ag362
ag91
ag502
ag419
ag175
ag33
ag219
ag436
ag474
ag161
ag614
ag252
ag584
ag499
ag380
ag441
ag568
ag46
ag539
ag471
ag344
ag332
ag556
ag23
ag559
ag482
ag525
ag206
ag378
ag236
ag112
ag433
ag462
ag261
ag227
ag416
ag241
ag217
ag25
ag569
ag310
ag225
ag427
ag331
ag87
ag543
ag116
ag153
ag418
ag271
ag620
ag163
ag567
ag541
ag376
ag109
ag413
ag49
ag190
ag202
ag228
ag223
ag355
ag514
ag510
ag162
ag511
ag242
ag523
ag89
ag166
ag185
ag184
ag572
ag194
ag192
ag256
ag246
ag291
ag196
ag540
ag150
ag515
ag213
ag173
ag226
ag101
ag483
ag491
ag336
ag93
ag528
ag424
ag346
ag333
ag207
ag443
ag618
ag9
ag517
ag470
ag29
ag283
ag524
ag86
ag197
ag51
ag203
ag95
ag486
ag422
ag125
ag472
ag157
ag484
ag493
ag460
ag610
ag360
ag548
ag174
ag414
ag308
ag560
ag65
ag554
ag90
ag191
ag577
ag551
ag79
ag54
ag398
ag546
ag305
ag403
ag453
ag57
ag188
ag280
ag22
ag189
ag564
ag186
ag131
ag257
ag623
ag77
ag330
ag59
ag220
ag392
ag262
ag410
ag411
ag579
ag53
ag338
ag198
ag504
ag232
ag531
ag381
ag120
ag478
ag239
ag582
ag463
ag215
ag595
ag66
ag425
ag28
ag273
ag183
ag480
ag11
ag272
ag180
ag205
ag342
ag82
ag457
ag377
ag69
ag311
asS'separator'
p628
S'='
sS'sparse'
p629
I01
sb.