ccopy_reg
_reconstructor
p1
(csklearn.feature_extraction.dict_vectorizer
DictVectorizer
p2
c__builtin__
object
p3
NtRp4
(dp5
S'vocabulary_'
p6
(dp7
S'w-2=you'
p8
I137
sS'w+1=they'
p9
I75
sS'xcomp=help'
p10
I138
sS'w+1=fume'
p11
I72
sS'dep=now'
p12
I28
sS'nsubjpass=people'
p13
I47
sS'w+1=all'
p14
I62
sS'ccomp=learn'
p15
I21
sS'w-2=feverish'
p16
I123
sS'w+1=because'
p17
I64
sS'nsubjpass=avenue'
p18
I45
sS'det=the'
p19
I30
sS'w-2=its'
p20
I129
sS'dep=take'
p21
I29
sS'advcl=try'
p22
I3
sS'w+1=diplomatic'
p23
I68
sS'w+2=,'
p24
I78
sS'w-2=they'
p25
I134
sS'w-2=on'
p26
I131
sS'w-1=to'
p27
I114
sS'prep=by'
p28
I53
sS'w+1=diplomacy'
p29
I67
sS'w-1=first'
p30
I106
sS'w-2=dirty'
p31
I121
sS'w+2=domestic'
p32
I86
sS'w+2=lot'
p33
I89
sS'w+1=gas'
p34
I73
sS'w-1=would'
p35
I116
sS'w+1=you'
p36
I76
sS'w-2=he'
p37
I126
sS'w-2=with'
p38
I136
sS'conj=batter'
p39
I25
sS'aux=will'
p40
I15
sS'advmod=already'
p41
I4
sS'advmod=so'
p42
I9
sS'w+2=rights'
p43
I92
sS'w-2=from'
p44
I124
sS'w+1=tank'
p45
I74
sS'w+2=can'
p46
I84
sS'advmod=just'
p47
I7
sS'w+2=effort'
p48
I87
sS'prep=at'
p49
I52
sS'advcl=ask'
p50
I0
sS'w-2=,'
p51
I117
sS'dobj=effort'
p52
I33
sS'nn=automobile'
p53
I41
sS'aux=have'
p54
I12
sS'nsubjpass=worker'
p55
I50
sS'w-1=be'
p56
I103
sS'w-1=,'
p57
I98
sS'w-1=the'
p58
I113
sS'w+1=every'
p59
I70
sS'nsubjpass=stock'
p60
I49
sS'w-2=in'
p61
I127
sS'advmod=extremely'
p62
I5
sS'advmod=soon'
p63
I10
sS'w-2=it'
p64
I128
sS'w-2=batter'
p65
I119
sS'w+1=due'
p66
I69
sS'w+2=you'
p67
I96
sS'w-2=soon'
p68
I133
sS'dobj=rights'
p69
I38
sS'w+2=to'
p70
I94
sS'conj=pollutant'
p71
I26
sS'w-1=a'
p72
I99
sS'w-1=its'
p73
I109
sS'w-1=have'
p74
I107
sS'ccomp=say'
p75
I22
sS'dep=fume'
p76
I27
sS'w+2=at'
p77
I82
sS"w+2=''"
p78
I77
sS'w+2=in'
p79
I88
sS'w-2=all'
p80
I118
sS'w+1=from'
p81
I71
sS'advmod=once'
p82
I8
sS'auxpass=be'
p83
I17
sS'complm=that'
p84
I24
sS'advcl=long'
p85
I2
sS'w+1=aftermath'
p86
I61
sS'nsubj=bill'
p87
I43
sS'dobj=wood'
p88
I39
sS'w-2=to'
p89
I135
sS'w+2=car'
p90
I85
sS'cc=and'
p91
I18
sS'dobj=remedy'
p92
I36
sS'w+1=by'
p93
I66
sS'w-1=just'
p94
I110
sS'w-2=must'
p95
I130
sS'cc=but'
p96
I19
sS'nsubjpass=possibility'
p97
I48
sS'w-1=automobile'
p98
I102
sS'w-1=but'
p99
I104
sS'w-1=extremely'
p100
I105
sS'w-1=already'
p101
I100
sS'nsubjpass=#PRP#'
p102
I44
sS'aux=would'
p103
I16
sS'w-2=have'
p104
I125
sS'w-1=see'
p105
I111
sS'w-2=be'
p106
I120
sS'w-1=so'
p107
I112
sS'nsubj=#PRP#'
p108
I42
sS'prep=from'
p109
I55
sS"w-1=''"
p110
I97
sS'w+1=after'
p111
I60
sS'dobj=lot'
p112
I35
sS'prep=to'
p113
I56
sS'w-1=we'
p114
I115
sS'aux=to'
p115
I14
sS'w+1=before'
p116
I65
sS'w+2=year'
p117
I95
sS'w+2=the'
p118
I93
sS'poss=#PRP#'
p119
I51
sS'w+1=and'
p120
I63
sS'nsubjpass=effort'
p121
I46
sS'w-2=population'
p122
I132
sS'w+1=,'
p123
I57
sS'w+1=.'
p124
I58
sS'dobj=image'
p125
I34
sS'w+2=.'
p126
I79
sS'ccomp=continue'
p127
I20
sS'w-1=inevitable'
p128
I108
sS'w+2=meager'
p129
I90
sS'prep=during'
p130
I54
sS'aux=must'
p131
I13
sS'dobj=resource'
p132
I37
sS'w-1=and'
p133
I101
sS'dobj=diplomacy'
p134
I32
sS'w+2=batter'
p135
I83
sS'w-2=duty'
p136
I122
sS'w+1=a'
p137
I59
sS'ccomp=start'
p138
I23
sS'advcl=carry'
p139
I1
sS'advmod=first'
p140
I6
sS'w+2=Patrick'
p141
I80
sS'w+2=positive'
p142
I91
sS'aux=be'
p143
I11
sS'dobj=avenue'
p144
I31
sS'mark=if'
p145
I40
sS'w+2=a'
p146
I81
ssS'dtype'
p147
cnumpy
float64
p148
sS'feature_names_'
p149
(lp150
g50
ag139
ag85
ag22
ag41
ag62
ag140
ag47
ag82
ag42
ag63
ag143
ag54
ag131
ag115
ag40
ag103
ag83
ag91
ag96
ag127
ag15
ag75
ag138
ag84
ag39
ag71
ag76
ag12
ag21
ag19
ag144
ag134
ag52
ag125
ag112
ag92
ag132
ag69
ag88
ag145
ag53
ag108
ag87
ag102
ag18
ag121
ag13
ag97
ag60
ag55
ag119
ag49
ag28
ag130
ag109
ag113
ag123
ag124
ag137
ag111
ag86
ag14
ag120
ag17
ag116
ag93
ag29
ag23
ag66
ag59
ag81
ag11
ag34
ag45
ag9
ag36
ag78
ag24
ag126
ag141
ag146
ag77
ag135
ag46
ag90
ag32
ag48
ag79
ag33
ag129
ag142
ag43
ag118
ag70
ag117
ag67
ag110
ag57
ag72
ag101
ag133
ag98
ag56
ag99
ag100
ag30
ag74
ag128
ag73
ag94
ag105
ag107
ag58
ag27
ag114
ag35
ag51
ag80
ag65
ag106
ag31
ag136
ag16
ag44
ag104
ag37
ag61
ag64
ag20
ag95
ag26
ag122
ag68
ag25
ag89
ag38
ag8
ag10
asS'separator'
p151
S'='
sS'sparse'
p152
I01
sb.