ccopy_reg
_reconstructor
p1
(csklearn.feature_extraction.dict_vectorizer
DictVectorizer
p2
c__builtin__
object
p3
NtRp4
(dp5
S'sort'
p6
I01
sS'feature_names_'
p7
(lp8
S'advcl=approach'
p9
aS'advmod=along'
p10
aS'advmod=far'
p11
aS'advmod=now'
p12
aS'advmod=presumably'
p13
aS'advmod=recently'
p14
aS'advmod=soon'
p15
aS'advmod=still'
p16
aS'advmod=there'
p17
aS'advmod=very'
p18
aS'advmod=when'
p19
aS'amod=accompany'
p20
aS'amod=accurate'
p21
aS'amod=black'
p22
aS'amod=blind'
p23
aS'amod=bottom'
p24
aS'amod=bright'
p25
aS'amod=different'
p26
aS'amod=economic'
p27
aS'amod=favorite'
p28
aS'amod=hot'
p29
aS'amod=iraqi'
p30
aS'amod=large'
p31
aS'amod=last'
p32
aS'amod=likely'
p33
aS'amod=most'
p34
aS'amod=new'
p35
aS'amod=open'
p36
aS'amod=other'
p37
aS'amod=peaceful'
p38
aS'amod=permanent'
p39
aS'amod=popular'
p40
aS'amod=prime'
p41
aS'amod=red'
p42
aS'amod=regional'
p43
aS'amod=right'
p44
aS'amod=rough'
p45
aS'amod=same'
p46
aS'amod=second-place'
p47
aS'amod=soft'
p48
aS'amod=spookiest'
p49
aS'amod=such'
p50
aS'amod=sweet'
p51
aS'amod=top'
p52
aS'amod=tough'
p53
aS'amod=ugly'
p54
aS'amod=uncomfortable'
p55
aS'amod=unstable'
p56
aS'amod=weak'
p57
aS'amod=white'
p58
aS'appos=McGee'
p59
aS'appos=both'
p60
aS'aux=can'
p61
aS'aux=have'
p62
aS'aux=to'
p63
aS'auxpass=be'
p64
aS'cc=and'
p65
aS'cc=but'
p66
aS'ccomp=tear'
p67
aS'ccomp=want'
p68
aS'conj=chase'
p69
aS'conj=foresee'
p70
aS'conj=give'
p71
aS'conj=have'
p72
aS'conj=take'
p73
aS'conj=track'
p74
aS'cop=be'
p75
aS'dep=after'
p76
aS'dep=boom'
p77
aS'dep=hear'
p78
aS'dep=know'
p79
aS'dep=the'
p80
aS'det=a'
p81
aS'det=another'
p82
aS'det=some'
p83
aS'det=that'
p84
aS'det=the'
p85
aS'det=this'
p86
aS'dobj=#NUMBER#'
p87
aS'dobj=#PRP#'
p88
aS'dobj=Loren'
p89
aS'dobj=arrival'
p90
aS'dobj=beginning'
p91
aS'dobj=boat'
p92
aS'dobj=cargo'
p93
aS'dobj=facility'
p94
aS'dobj=feature'
p95
aS'dobj=jewel'
p96
aS'dobj=location'
p97
aS'dobj=missile'
p98
aS'dobj=person'
p99
aS'dobj=shelter'
p100
aS'expl=there'
p101
aS'infmod=find'
p102
aS'mark=because'
p103
aS'mark=if'
p104
aS'mark=until'
p105
aS'neg=not'
p106
aS'nn=adventure'
p107
aS'nn=beauty'
p108
aS'nn=destination'
p109
aS'nn=downtown'
p110
aS'nn=entertainment'
p111
aS'nn=gathering'
p112
aS'nn=guest'
p113
aS'nn=number'
p114
aS'nn=piracy'
p115
aS'nn=sun'
p116
aS'nn=tourism'
p117
aS'nn=tourist'
p118
aS'nn=trouble'
p119
aS'nsubj=#PRP#'
p120
aS'nsubj=Falls'
p121
aS'nsubj=Fields'
p122
aS'nsubj=bed'
p123
aS'nsubj=crew'
p124
aS'nsubj=force'
p125
aS'nsubj=guard'
p126
aS'nsubj=jet'
p127
aS'nsubj=producer'
p128
aS'nsubj=spacecraft'
p129
aS'nsubj=this'
p130
aS'nsubj=troops'
p131
aS'nsubj=warship'
p132
aS'nsubj=who'
p133
aS'nsubj=winter'
p134
aS'nsubjpass=Bush'
p135
aS'nsubjpass=arrival'
p136
aS'nsubjpass=body'
p137
aS'nsubjpass=cloud'
p138
aS'nsubjpass=gunman'
p139
aS'nsubjpass=none'
p140
aS'nsubjpass=rebel'
p141
aS'nsubjpass=tiger'
p142
aS'num=#NUMBER#'
p143
aS'partmod=register'
p144
aS'poss=#PRP#'
p145
aS'poss=continent'
p146
aS'poss=region'
p147
aS'poss=world'
p148
aS'predet=all'
p149
aS'prep=about'
p150
aS'prep=along'
p151
aS'prep=among'
p152
aS'prep=as'
p153
aS'prep=at'
p154
aS'prep=for'
p155
aS'prep=from'
p156
aS'prep=in'
p157
aS'prep=near'
p158
aS'prep=of'
p159
aS'prep=on'
p160
aS'prep=since'
p161
aS'prep=with'
p162
aS'rcmod=address'
p163
aS'rcmod=apprehend'
p164
aS'rcmod=come'
p165
aS'rcmod=die'
p166
aS'rcmod=do'
p167
aS'rcmod=emerge'
p168
aS'rcmod=force'
p169
aS'rcmod=give'
p170
aS'rcmod=hear'
p171
aS'rcmod=hold'
p172
aS'rcmod=leave'
p173
aS'rcmod=tread'
p174
aS"w+1='"
p175
aS"w+1=''"
p176
aS'w+1=,'
p177
aS'w+1=--'
p178
aS'w+1=.'
p179
aS'w+1=?'
p180
aS'w+1=Sophia'
p181
aS'w+1=a'
p182
aS'w+1=about'
p183
aS'w+1=along'
p184
aS'w+1=among'
p185
aS'w+1=and'
p186
aS'w+1=any'
p187
aS'w+1=as'
p188
aS'w+1=be'
p189
aS'w+1=because'
p190
aS'w+1=boat'
p191
aS'w+1=by'
p192
aS'w+1=cargo'
p193
aS'w+1=continue'
p194
aS'w+1=for'
p195
aS'w+1=from'
p196
aS'w+1=have'
p197
aS'w+1=he'
p198
aS'w+1=in'
p199
aS'w+1=include'
p200
aS'w+1=leave'
p201
aS'w+1=of'
p202
aS'w+1=on'
p203
aS'w+1=one'
p204
aS'w+1=possible'
p205
aS'w+1=price'
p206
aS'w+1=recently'
p207
aS'w+1=register'
p208
aS'w+1=several'
p209
aS'w+1=show'
p210
aS'w+1=so'
p211
aS'w+1=such'
p212
aS'w+1=that'
p213
aS'w+1=the'
p214
aS'w+1=there'
p215
aS'w+1=to'
p216
aS'w+1=where'
p217
aS'w+1=with'
p218
aS'w+1=you'
p219
aS"w+2='"
p220
aS"w+2=''"
p221
aS'w+2=,'
p222
aS'w+2=-lrb-'
p223
aS'w+2=.'
p224
aS'w+2=Central'
p225
aS'w+2=Gandhi'
p226
aS'w+2=Harlem'
p227
aS'w+2=I'
p228
aS'w+2=Loren'
p229
aS'w+2=Major'
p230
aS'w+2=McGee'
p231
aS'w+2=Mr.'
p232
aS'w+2=President'
p233
aS'w+2=Reverend'
p234
aS'w+2=Sudan'
p235
aS'w+2=a'
p236
aS'w+2=about'
p237
aS'w+2=and'
p238
aS'w+2=as'
p239
aS'w+2=at'
p240
aS'w+2=be'
p241
aS'w+2=beginning'
p242
aS'w+2=both'
p243
aS'w+2=but'
p244
aS'w+2=car'
p245
aS'w+2=consumer'
p246
aS'w+2=dark'
p247
aS'w+2=destine'
p248
aS'w+2=diamond'
p249
aS'w+2=far'
p250
aS'w+2=find'
p251
aS'w+2=flashy'
p252
aS'w+2=follow'
p253
aS'w+2=football'
p254
aS'w+2=have'
p255
aS'w+2=he'
p256
aS'w+2=hear'
p257
aS'w+2=in'
p258
aS'w+2=jewel'
p259
aS'w+2=latest'
p260
aS'w+2=location'
p261
aS'w+2=mob'
p262
aS'w+2=month'
p263
aS'w+2=must'
p264
aS'w+2=near'
p265
aS'w+2=nuclear'
p266
aS'w+2=of'
p267
aS'w+2=other'
p268
aS'w+2=person'
p269
aS'w+2=potential'
p270
aS'w+2=recur'
p271
aS'w+2=since'
p272
aS'w+2=something'
p273
aS'w+2=space'
p274
aS'w+2=straw'
p275
aS'w+2=such'
p276
aS'w+2=tear'
p277
aS'w+2=the'
p278
aS'w+2=they'
p279
aS'w+2=to'
p280
aS'w+2=tourist'
p281
aS'w+2=track'
p282
aS'w+2=vacation'
p283
aS'w+2=view'
p284
aS'w+2=we'
p285
aS'w+2=whatever'
p286
aS'w+2=whenit'
p287
aS'w+2=where'
p288
aS'w+2=with'
p289
aS'w+2=without'
p290
aS'w+2=year'
p291
aS'w-1=a'
p292
aS'w-1=accurate'
p293
aS'w-1=adventure'
p294
aS'w-1=be'
p295
aS'w-1=beauty'
p296
aS'w-1=black'
p297
aS'w-1=blind'
p298
aS'w-1=bright'
p299
aS'w-1=can'
p300
aS'w-1=crew'
p301
aS'w-1=destination'
p302
aS'w-1=different'
p303
aS'w-1=downtown'
p304
aS'w-1=entertainment'
p305
aS'w-1=favorite'
p306
aS'w-1=five'
p307
aS'w-1=force'
p308
aS'w-1=gathering'
p309
aS'w-1=guard'
p310
aS'w-1=guest'
p311
aS'w-1=have'
p312
aS'w-1=hide'
p313
aS'w-1=hot'
p314
aS'w-1=in'
p315
aS'w-1=last'
p316
aS'w-1=likely'
p317
aS'w-1=my'
p318
aS'w-1=one'
p319
aS'w-1=open'
p320
aS'w-1=or'
p321
aS'w-1=other'
p322
aS'w-1=peaceful'
p323
aS'w-1=permanent'
p324
aS'w-1=presumably'
p325
aS'w-1=prime'
p326
aS'w-1=producer'
p327
aS'w-1=recently'
p328
aS'w-1=red'
p329
aS'w-1=right'
p330
aS'w-1=rough'
p331
aS'w-1=same'
p332
aS'w-1=second-place'
p333
aS'w-1=soft'
p334
aS'w-1=spookiest'
p335
aS'w-1=such'
p336
aS'w-1=sun'
p337
aS'w-1=sweet'
p338
aS'w-1=that'
p339
aS'w-1=the'
p340
aS'w-1=they'
p341
aS'w-1=this'
p342
aS'w-1=to'
p343
aS'w-1=top'
p344
aS'w-1=tough'
p345
aS'w-1=tourism'
p346
aS'w-1=tourist'
p347
aS'w-1=trend'
p348
aS'w-1=troops'
p349
aS'w-1=trouble'
p350
aS'w-1=tv'
p351
aS'w-1=ugly'
p352
aS'w-1=uncomfortable'
p353
aS'w-1=unstable'
p354
aS'w-1=very'
p355
aS'w-1=warship'
p356
aS'w-1=we'
p357
aS'w-1=weak'
p358
aS'w-1=white'
p359
aS'w-1=who'
p360
aS"w-2=''"
p361
aS"w-2='s"
p362
aS'w-2=,'
p363
aS'w-2=.'
p364
aS'w-2=27'
p365
aS'w-2=Bush'
p366
aS'w-2=`'
p367
aS'w-2=a'
p368
aS'w-2=accompany'
p369
aS'w-2=arrival'
p370
aS'w-2=at'
p371
aS'w-2=bleeding'
p372
aS'w-2=bottom'
p373
aS'w-2=clinch'
p374
aS'w-2=cloud'
p375
aS'w-2=conservative'
p376
aS'w-2=easy'
p377
aS'w-2=economic'
p378
aS'w-2=fill'
p379
aS'w-2=gunman'
p380
aS'w-2=hard'
p381
aS'w-2=have'
p382
aS'w-2=he'
p383
aS'w-2=hold'
p384
aS'w-2=in'
p385
aS'w-2=iraqi'
p386
aS'w-2=its'
p387
aS'w-2=jet'
p388
aS'w-2=know'
p389
aS'w-2=large'
p390
aS'w-2=mark'
p391
aS'w-2=member'
p392
aS'w-2=most'
p393
aS'w-2=navy'
p394
aS'w-2=near'
p395
aS'w-2=new'
p396
aS'w-2=not'
p397
aS'w-2=now'
p398
aS'w-2=number'
p399
aS'w-2=of'
p400
aS'w-2=on'
p401
aS'w-2=one'
p402
aS'w-2=or'
p403
aS'w-2=other'
p404
aS'w-2=pick'
p405
aS'w-2=pilot'
p406
aS'w-2=piracy'
p407
aS'w-2=popular'
p408
aS'w-2=regional'
p409
aS'w-2=secure'
p410
aS'w-2=security'
p411
aS'w-2=seismically'
p412
aS'w-2=sensor'
p413
aS'w-2=several'
p414
aS'w-2=soldier'
p415
aS'w-2=some'
p416
aS'w-2=style'
p417
aS'w-2=such'
p418
aS'w-2=the'
p419
aS'w-2=this'
p420
aS'w-2=to'
p421
aS'w-2=top'
p422
aS'w-2=use'
p423
aS'w-2=very'
p424
aS'w-2=when'
p425
aS'w-2=with'
p426
aS'w-2=world'
p427
aS'xcomp=disable'
p428
aS'xcomp=lurk'
p429
asS'dtype'
p430
cnumpy
float64
p431
sS'vocabulary_'
p432
(dp433
g124
I115
sg41
I32
sg271
I262
sg375
I366
sg344
I335
sg230
I221
sg54
I45
sg244
I235
sg309
I300
sg396
I387
sg353
I344
sg213
I204
sg118
I109
sg331
I322
sg348
I339
sg323
I314
sg28
I19
sg262
I253
sg96
I87
sg207
I198
sg356
I347
sg263
I254
sg429
I420
sg295
I286
sg334
I325
sg194
I185
sg419
I410
sg365
I356
sg350
I341
sg142
I133
sg307
I298
sg103
I94
sg277
I268
sg34
I25
sg202
I193
sg266
I257
sg280
I271
sg203
I194
sg304
I295
sg413
I404
sg56
I47
sg141
I132
sg264
I255
sg352
I343
sg312
I303
sg74
I65
sg223
I214
sg258
I249
sg251
I242
sg40
I31
sg150
I141
sg61
I52
sg158
I149
sg21
I12
sg233
I224
sg98
I89
sg214
I205
sg53
I44
sg241
I232
sg406
I397
sg31
I22
sg27
I18
sg399
I390
sg412
I403
sg157
I148
sg195
I186
sg297
I288
sg283
I274
sg23
I14
sg60
I51
sg306
I297
sg164
I155
sg186
I177
sg276
I267
sg33
I24
sg299
I290
sg293
I284
sg187
I178
sg327
I318
sg336
I327
sg335
I326
sg57
I48
sg86
I77
sg315
I306
sg285
I276
sg414
I405
sg272
I263
sg340
I331
sg301
I292
sg59
I50
sg104
I95
sg95
I86
sg168
I159
sg346
I337
sg372
I363
sg102
I93
sg274
I265
sg185
I176
sg347
I338
sg302
I293
sg260
I251
sg68
I59
sg69
I60
sg197
I188
sg373
I364
sg85
I76
sg394
I385
sg131
I122
sg240
I231
sg423
I414
sg351
I342
sg403
I394
sg151
I142
sg133
I124
sg171
I162
sg235
I226
sg400
I391
sg401
I392
sg343
I334
sg172
I163
sg332
I323
sg107
I98
sg219
I210
sg94
I85
sg245
I236
sg407
I398
sg119
I110
sg166
I157
sg112
I103
sg188
I179
sg198
I189
sg71
I62
sg116
I107
sg333
I324
sg300
I291
sg318
I309
sg317
I308
sg92
I83
sg83
I74
sg110
I101
sg111
I102
sg174
I165
sg217
I208
sg19
I10
sg247
I238
sg155
I146
sg261
I252
sg10
I1
sg125
I116
sg415
I406
sg279
I270
sg273
I264
sg22
I13
sg387
I378
sg308
I299
sg288
I279
sg270
I261
sg173
I164
sg239
I230
sg178
I169
sg89
I80
sg242
I233
sg314
I305
sg64
I55
sg319
I310
sg325
I316
sg52
I43
sg248
I239
sg91
I82
sg229
I220
sg408
I399
sg16
I7
sg422
I413
sg231
I222
sg354
I345
sg215
I206
sg253
I244
sg67
I58
sg127
I118
sg165
I156
sg218
I209
sg305
I296
sg410
I401
sg289
I280
sg45
I36
sg369
I360
sg329
I320
sg225
I216
sg374
I365
sg108
I99
sg393
I384
sg291
I282
sg361
I352
sg130
I121
sg267
I258
sg370
I361
sg135
I126
sg417
I408
sg216
I207
sg84
I75
sg46
I37
sg281
I272
sg256
I247
sg211
I202
sg18
I9
sg72
I63
sg257
I248
sg391
I382
sg109
I100
sg254
I245
sg200
I191
sg129
I120
sg237
I228
sg11
I2
sg362
I353
sg269
I260
sg149
I140
sg210
I201
sg82
I73
sg190
I181
sg265
I256
sg286
I277
sg313
I304
sg136
I127
sg226
I217
sg58
I49
sg388
I379
sg209
I200
sg146
I137
sg324
I315
sg349
I340
sg144
I135
sg322
I313
sg420
I411
sg17
I8
sg227
I218
sg35
I26
sg426
I417
sg93
I84
sg101
I92
sg26
I17
sg389
I380
sg311
I302
sg162
I153
sg134
I125
sg140
I131
sg320
I311
sg386
I377
sg284
I275
sg385
I376
sg328
I319
sg316
I307
sg121
I112
sg77
I68
sg204
I195
sg49
I40
sg376
I367
sg143
I134
sg221
I212
sg342
I333
sg303
I294
sg25
I16
sg310
I301
sg246
I237
sg428
I419
sg337
I328
sg359
I350
sg51
I42
sg382
I373
sg65
I56
sg192
I183
sg189
I180
sg252
I243
sg79
I70
sg191
I182
sg425
I416
sg138
I129
sg416
I407
sg275
I266
sg199
I190
sg105
I96
sg120
I111
sg183
I174
sg117
I108
sg44
I35
sg176
I167
sg42
I33
sg355
I346
sg66
I57
sg9
I0
sg145
I136
sg409
I400
sg87
I78
sg330
I321
sg380
I371
sg36
I27
sg170
I161
sg184
I175
sg29
I20
sg159
I150
sg50
I41
sg160
I151
sg208
I199
sg132
I123
sg73
I64
sg201
I192
sg243
I234
sg90
I81
sg80
I71
sg14
I5
sg37
I28
sg381
I372
sg384
I375
sg358
I349
sg100
I91
sg360
I351
sg321
I312
sg222
I213
sg70
I61
sg249
I240
sg126
I117
sg421
I412
sg238
I229
sg390
I381
sg377
I368
sg163
I154
sg137
I128
sg106
I97
sg30
I21
sg402
I393
sg75
I66
sg13
I4
sg383
I374
sg161
I152
sg88
I79
sg427
I418
sg148
I139
sg278
I269
sg154
I145
sg167
I158
sg153
I144
sg363
I354
sg364
I355
sg326
I317
sg55
I46
sg62
I53
sg259
I250
sg287
I278
sg152
I143
sg397
I388
sg398
I389
sg115
I106
sg371
I362
sg15
I6
sg378
I369
sg20
I11
sg379
I370
sg404
I395
sg32
I23
sg367
I358
sg368
I359
sg341
I332
sg206
I197
sg81
I72
sg292
I283
sg193
I184
sg282
I273
sg139
I130
sg366
I357
sg392
I383
sg196
I187
sg424
I415
sg181
I172
sg250
I241
sg234
I225
sg38
I29
sg147
I138
sg255
I246
sg122
I113
sg290
I281
sg395
I386
sg47
I38
sg97
I88
sg24
I15
sg128
I119
sg12
I3
sg113
I104
sg156
I147
sg268
I259
sg298
I289
sg43
I34
sg357
I348
sg63
I54
sg411
I402
sg212
I203
sg169
I160
sg99
I90
sg345
I336
sg232
I223
sg175
I166
sg78
I69
sg177
I168
sg179
I170
sg76
I67
sg224
I215
sg418
I409
sg296
I287
sg220
I211
sg180
I171
sg39
I30
sg405
I396
sg294
I285
sg228
I219
sg182
I173
sg48
I39
sg339
I330
sg205
I196
sg338
I329
sg123
I114
sg236
I227
sg114
I105
ssS'separator'
p434
S'='
sS'sparse'
p435
I01
sb.