ccopy_reg
_reconstructor
p1
(csklearn.feature_extraction.dict_vectorizer
DictVectorizer
p2
c__builtin__
object
p3
NtRp4
(dp5
S'vocabulary_'
p6
(dp7
S'dobj=border'
p8
I44
sS'w-1=turnout'
p9
I302
sS'w-2=bill'
p10
I324
sS'w-2=we'
p11
I376
sS'nsubj=turnout'
p12
I124
sS'w+2=mile'
p13
I231
sS'dobj=percent'
p14
I64
sS'dobj=soldier'
p15
I71
sS'w+2=number'
p16
I234
sS'w+2=president'
p17
I242
sS'w+2=international'
p18
I227
sS'w-1=driver'
p19
I274
sS'nsubj=supply'
p20
I119
sS'w-2=they'
p21
I371
sS'w-1=Russians'
p22
I260
sS'dobj=country'
p23
I47
sS'w+1=that'
p24
I182
sS'w-1=would'
p25
I307
sS'nsubj=both'
p26
I96
sS'dobj=goal'
p27
I54
sS'advmod=annually'
p28
I9
sS'nsubj=cost'
p29
I98
sS'w+2=expectation'
p30
I222
sS'w-1=will'
p31
I305
sS'dobj=shilling'
p32
I70
sS'dobj=threshold'
p33
I78
sS'w-1=drop'
p34
I275
sS'w+2=limit'
p35
I229
sS'nsubj=number'
p36
I111
sS'dobj=lifetime'
p37
I57
sS'w-1=be'
p38
I268
sS'nsubj=Congress'
p39
I89
sS'w-2=the'
p40
I370
sS'w+2=independent'
p41
I225
sS'w-1=food'
p42
I279
sS'w-1=accord'
p43
I262
sS'w-1=Bush'
p44
I257
sS'mark=because'
p45
I81
sS'w-2=today'
p46
I372
sS'w-2=2008'
p47
I313
sS'w-1=have'
p48
I282
sS'ccomp=say'
p49
I33
sS'w+2=obligation'
p50
I235
sS'w-1=Congress'
p51
I258
sS'w+2=in'
p52
I224
sS'w+2=Maris'
p53
I206
sS'w+2=Bush'
p54
I205
sS'w-1=could'
p55
I272
sS'aux=can'
p56
I19
sS'complm=that'
p57
I34
sS'dobj=whites'
p58
I80
sS'w-1=you'
p59
I308
sS'nsubj=demand'
p60
I100
sS'w-2=abroad'
p61
I322
sS'w-1=smoke'
p62
I296
sS'advcl=be'
p63
I0
sS'w-2=report'
p64
I362
sS'w-2=that'
p65
I369
sS'w+1=the'
p66
I183
sS'nsubj=lead'
p67
I109
sS'advmod=only'
p68
I15
sS'w+2=soldier'
p69
I246
sS'w+1=those'
p70
I186
sS'nsubj=request'
p71
I115
sS'dobj=record'
p72
I68
sS'w-1=already'
p73
I267
sS'w-2=number'
p74
I355
sS'prep=in'
p75
I138
sS'aux=would'
p76
I26
sS'dobj=dollar'
p77
I50
sS'nsubj=toll'
p78
I123
sS'w-2=each'
p79
I336
sS'w+2=speed'
p80
I247
sS'prep=to'
p81
I144
sS'w-1=population'
p82
I292
sS'dep=without'
p83
I39
sS'dobj=request'
p84
I69
sS'w+1=six-point-five'
p85
I179
sS'w-1=slightly'
p86
I295
sS'w+1=any'
p87
I167
sS'nsubj=that'
p88
I122
sS'w-1=it'
p89
I284
sS'w-2=unemployment'
p90
I375
sS'w+2=600'
p91
I202
sS'w-1=test'
p92
I298
sS'nsubj=influx'
p93
I107
sS'w-2=Security'
p94
I319
sS'w+1=seven'
p95
I178
sS'mark=if'
p96
I82
sS'w-2=second-hand'
p97
I364
sS'w+2=Parliament'
p98
I208
sS'nsubj=value'
p99
I125
sS'w-2=disaster'
p100
I334
sS'w-2=10'
p101
I312
sS'partmod=drive'
p102
I131
sS'prep=by'
p103
I135
sS'dobj=supply'
p104
I74
sS'prep=include'
p105
I139
sS'dobj=power'
p106
I65
sS'w-2=or'
p107
I357
sS'w-2=show'
p108
I366
sS'w+1=4,000'
p109
I152
sS'w-2=of'
p110
I356
sS'w-1=to'
p111
I301
sS'w-2=do'
p112
I335
sS'w+1=two-thousand'
p113
I188
sS'w+2=constitutional'
p114
I220
sS'w+2=shilling'
p115
I245
sS'w-1=actually'
p116
I263
sS'dobj=leave'
p117
I55
sS'w+1=he'
p118
I170
sS'w-2=cutoff'
p119
I328
sS'w-2=electricity'
p120
I338
sS'w-1=both'
p121
I270
sS'dobj=megawatt'
p122
I59
sS'w+2=cash'
p123
I219
sS'nsubj=exodus'
p124
I105
sS'advmod=already'
p125
I7
sS'auxpass=be'
p126
I27
sS'w+2=1,000'
p127
I194
sS'w+2=own'
p128
I238
sS'w+1=two'
p129
I187
sS'nsubj=emission'
p130
I103
sS'nsubj=technology'
p131
I121
sS'prep=for'
p132
I136
sS'dobj=authority'
p133
I43
sS'w+2=percent'
p134
I240
sS'w+1=we'
p135
I189
sS'nsubj=Bush'
p136
I88
sS'nsubj=average'
p137
I94
sS'w-1=force'
p138
I281
sS'w+2=61'
p139
I203
sS'w-2=U.S.'
p140
I320
sS'parataxis=say'
p141
I130
sS'w+2=initial'
p142
I226
sS'w-1=long'
p143
I285
sS'w+1=45'
p144
I155
sS'w+1=40'
p145
I154
sS'w-1=vehicle'
p146
I304
sS'nsubj=bill'
p147
I95
sS'w-2=5,000'
p148
I315
sS'nsubj=spread'
p149
I117
sS'advmod=long'
p150
I13
sS'w-2=democratic'
p151
I332
sS'w+2=million'
p152
I232
sS'w-1=case'
p153
I271
sS'nsubj=president'
p154
I113
sS'w+2=level'
p155
I228
sS'nsubj=environment'
p156
I104
sS'nsubj=#NUMBER#'
p157
I86
sS'w+2=plan'
p158
I241
sS'ccomp=get'
p159
I32
sS'nsubj=aspect'
p160
I93
sS'w-2=estimate'
p161
I339
sS'w+2=allotted'
p162
I210
sS'w+1=100,000'
p163
I150
sS'w+1=my'
p164
I175
sS'w+2=year'
p165
I254
sS'dobj=projection'
p166
I66
sS'w+1=50,000'
p167
I157
sS'nsubj=drop'
p168
I102
sS'w-2=company'
p169
I327
sS'w+2=of'
p170
I236
sS'w+2=projection'
p171
I243
sS'w+2=he'
p172
I223
sS'w+1=supply'
p173
I180
sS'conj=have'
p174
I37
sS'w+1=expectation'
p175
I168
sS'w+2=billion'
p176
I213
sS'nsubj=population'
p177
I112
sS'w-2=extension'
p178
I341
sS'advmod=far'
p179
I12
sS'w+2=budgetary'
p180
I216
sS'dobj=cash'
p181
I46
sS"w-2='s"
p182
I309
sS'w-2=death'
p183
I329
sS'w-1=never'
p184
I287
sS'w+2=budget'
p185
I215
sS'dobj=those'
p186
I77
sS'w-2=global'
p187
I344
sS'w-1=president'
p188
I293
sS'w+1=international'
p189
I172
sS'w-2=debt'
p190
I330
sS'nsubj=support'
p191
I120
sS'w+1=140'
p192
I151
sS'nsubj=deployment'
p193
I101
sS'dobj=degree'
p194
I48
sS'prep=begin'
p195
I134
sS'w-2=track'
p196
I374
sS'w-2=which'
p197
I378
sS'w-2=Iraq'
p198
I317
sS'w-2=rate'
p199
I361
sS'advmod=even'
p200
I10
sS'dobj=China'
p201
I42
sS'w-2=child'
p202
I326
sS'w+2=20'
p203
I196
sS'w-1=think'
p204
I300
sS'w-2=expect'
p205
I340
sS'dobj=limit'
p206
I58
sS'w-2=deployment'
p207
I333
sS'advmod=ever'
p208
I11
sS'advcl=direct'
p209
I3
sS'aux=do'
p210
I21
sS'w-2=with'
p211
I381
sS'aux=will'
p212
I25
sS'w+1=its'
p213
I173
sS'w-1=value'
p214
I303
sS'w+1=they'
p215
I184
sS'w+2=building'
p216
I217
sS'nsubj=work'
p217
I127
sS'w-2=influx'
p218
I347
sS'w+2=people'
p219
I239
sS'w-2=if'
p220
I346
sS'w-2=president'
p221
I360
sS'w+2=1.2'
p222
I195
sS'parataxis=$'
p223
I129
sS'w-2=television'
p224
I368
sS'dobj=obligation'
p225
I62
sS'w+1=one'
p226
I177
sS'w+2=sustainable'
p227
I249
sS'w+1=Roger'
p228
I162
sS'w-1=administration'
p229
I264
sS'w-1=after'
p230
I265
sS'w+1=4.5'
p231
I153
sS'nsubj=funding'
p232
I106
sS'advmod=also'
p233
I8
sS'dobj=estimate'
p234
I51
sS'w-1=Simferopol'
p235
I261
sS'nsubj=sale'
p236
I116
sS'w-1=work'
p237
I306
sS'advcl=change'
p238
I1
sS'w+1=whites'
p239
I191
sS'w+1=100'
p240
I149
sS'w-2=have'
p241
I345
sS'xcomp=take'
p242
I386
sS'cc=and'
p243
I28
sS'nsubj=student'
p244
I118
sS'w+2=typical'
p245
I253
sS'dobj=people'
p246
I63
sS'w+2=50'
p247
I201
sS'nsubj=money'
p248
I110
sS'advcl=set'
p249
I4
sS'w+1=50'
p250
I156
sS'dobj=standard'
p251
I72
sS'w+1=in'
p252
I171
sS'w-2=non-Muslims'
p253
I352
sS'dobj=that'
p254
I76
sS'nsubj=#PRP#'
p255
I87
sS'nsubj=kind'
p256
I108
sS'cc=but'
p257
I29
sS'dobj=#NUMBER#'
p258
I40
sS'rel=in'
p259
I145
sS'aux=could'
p260
I20
sS'w-2=fine'
p261
I342
sS'w-2=President'
p262
I318
sS'w-1=bill'
p263
I269
sS'w-1=temperature'
p264
I297
sS'nsubj=debt'
p265
I99
sS'advmod=all'
p266
I6
sS'w-2=like'
p267
I348
sS'w+2=time'
p268
I252
sS'w+2=2008'
p269
I197
sS'w+1=65'
p270
I158
sS'w-2=demand'
p271
I331
sS'prep=of'
p272
I140
sS'prep=on'
p273
I141
sS'w+1=September'
p274
I163
sS'dobj=total'
p275
I79
sS'w+1=80'
p276
I159
sS'w+2=300'
p277
I199
sS'ccomp=allow'
p278
I30
sS'w-2=population'
p279
I359
sS'nsubj=winner'
p280
I126
sS'w-1=do'
p281
I273
sS'dobj=$'
p282
I41
sS'xcomp=rank'
p283
I385
sS'w+2=minute'
p284
I233
sS'w+1=four'
p285
I169
sS'w+1=all'
p286
I166
sS'w+2=Measles'
p287
I207
sS'dobj=figure'
p288
I53
sS'w-2=economy'
p289
I337
sS'w-2=pledge'
p290
I358
sS'w-2=can'
p291
I325
sS'w+2=8,000'
p292
I204
sS'nsubj=Fernandez'
p293
I90
sS'w-1=environment'
p294
I276
sS'w-2=tb'
p295
I367
sS'dobj=expectation'
p296
I52
sS'conj=go'
p297
I36
sS'w+2=and'
p298
I211
sS'tmod=#DATE#'
p299
I146
sS'w-2=and'
p300
I323
sS'w+1=10'
p301
I148
sS'advmod=actually'
p302
I5
sS'ccomp=charge'
p303
I31
sS'w-2=residency'
p304
I363
sS'dobj=target'
p305
I75
sS'dobj=minute'
p306
I60
sS'w+1=this'
p307
I185
sS'xcomp=host'
p308
I384
sS'w-2=worker'
p309
I382
sS'dobj=level'
p310
I56
sS'prep=since'
p311
I142
sS'conj=oppose'
p312
I38
sS'advmod=now'
p313
I14
sS'w+2=the'
p314
I250
sS'prep=at'
p315
I133
sS'nsubj=U.S.'
p316
I92
sS'prep=as'
p317
I132
sS'w-2=,'
p318
I310
sS'w-2=.'
p319
I311
sS'w+1=what'
p320
I190
sS'dobj=rate'
p321
I67
sS'dobj=number'
p322
I61
sS'aux=have'
p323
I22
sS'dobj=demand'
p324
I49
sS'w-1=-'
p325
I256
sS'w-1=,'
p326
I255
sS'w-2=not'
p327
I353
sS'w-2=now'
p328
I354
sS'w+2=rate'
p329
I244
sS'w-2=I'
p330
I316
sS'w+2=United'
p331
I209
sS'w-1=rate'
p332
I294
sS'prep=through'
p333
I143
sS'w-2=may'
p334
I350
sS'aux=should'
p335
I23
sS'advmod=slightly'
p336
I16
sS'w-2=a'
p337
I321
sS'w-1=oil'
p338
I290
sS'w+2=capacity'
p339
I218
sS'w+2=standard'
p340
I248
sS'nsubj=rate'
p341
I114
sS'w-1=he'
p342
I283
sS'neg=never'
p343
I84
sS'w-2=whether'
p344
I377
sS'advmod=that'
p345
I17
sS'complm=whether'
p346
I35
sS'w+2=they'
p347
I251
sS'w+1=President'
p348
I161
sS'w+1=China'
p349
I160
sS'w-1=Fernandez'
p350
I259
sS'w+2=border'
p351
I214
sS'w+1=last'
p352
I174
sS'w-2=likely'
p353
I349
sS'nsubj=charge'
p354
I97
sS'nsubj=Russians'
p355
I91
sS'mark=since'
p356
I83
sS'w+1=sustainable'
p357
I181
sS'w-1=even'
p358
I277
sS'w-1=all'
p359
I266
sS'w+2=authority'
p360
I212
sS'prep=from'
p361
I137
sS'w+2=other'
p362
I237
sS'xcomp=equivalent'
p363
I383
sS'aux=to'
p364
I24
sS'nsubjpass=quota'
p365
I128
sS'w-2=should'
p366
I365
sS'w-2=measure'
p367
I351
sS'w+1=official'
p368
I176
sS'w-1=only'
p369
I291
sS'w+2=megawatt'
p370
I230
sS'w-2=will'
p371
I379
sS'w+1=$'
p372
I147
sS'w+2=3'
p373
I198
sS'w-1=for'
p374
I280
sS'w-2=toll'
p375
I373
sS'w-1=far'
p376
I278
sS'w+2=.'
p377
I193
sS'w+2=,'
p378
I192
sS'neg=not'
p379
I85
sS'w+2=degree'
p380
I221
sS'dobj=status'
p381
I73
sS'w-2=winner'
p382
I380
sS'dobj=capacity'
p383
I45
sS'w+1=a'
p384
I165
sS'w-1=now'
p385
I289
sS'w-1=not'
p386
I288
sS'w+1=U.S.'
p387
I164
sS'w-1=million'
p388
I286
sS'w-1=that'
p389
I299
sS'aux=be'
p390
I18
sS'w-2=for'
p391
I343
sS'w+2=40'
p392
I200
sS'advcl=decline'
p393
I2
sS'w-2=286'
p394
I314
ssS'dtype'
p395
cnumpy
float64
p396
sS'feature_names_'
p397
(lp398
g63
ag238
ag393
ag209
ag249
ag302
ag266
ag125
ag233
ag28
ag200
ag208
ag179
ag150
ag313
ag68
ag336
ag345
ag390
ag56
ag260
ag210
ag323
ag335
ag364
ag212
ag76
ag126
ag243
ag257
ag278
ag303
ag159
ag49
ag57
ag346
ag297
ag174
ag312
ag83
ag258
ag282
ag201
ag133
ag8
ag383
ag181
ag23
ag194
ag324
ag77
ag234
ag296
ag288
ag27
ag117
ag310
ag37
ag206
ag122
ag306
ag322
ag225
ag246
ag14
ag106
ag166
ag321
ag72
ag84
ag32
ag15
ag251
ag381
ag104
ag305
ag254
ag186
ag33
ag275
ag58
ag45
ag96
ag356
ag343
ag379
ag157
ag255
ag136
ag39
ag293
ag355
ag316
ag160
ag137
ag147
ag26
ag354
ag29
ag265
ag60
ag193
ag168
ag130
ag156
ag124
ag232
ag93
ag256
ag67
ag248
ag36
ag177
ag154
ag341
ag71
ag236
ag149
ag244
ag20
ag191
ag131
ag88
ag78
ag12
ag99
ag280
ag217
ag365
ag223
ag141
ag102
ag317
ag315
ag195
ag103
ag132
ag361
ag75
ag105
ag272
ag273
ag311
ag333
ag81
ag259
ag299
ag372
ag301
ag240
ag163
ag192
ag109
ag231
ag145
ag144
ag250
ag167
ag270
ag276
ag349
ag348
ag228
ag274
ag387
ag384
ag286
ag87
ag175
ag285
ag118
ag252
ag189
ag213
ag352
ag164
ag368
ag226
ag95
ag85
ag173
ag357
ag24
ag66
ag215
ag307
ag70
ag129
ag113
ag135
ag320
ag239
ag378
ag377
ag127
ag222
ag203
ag269
ag373
ag277
ag392
ag247
ag91
ag139
ag292
ag54
ag53
ag287
ag98
ag331
ag162
ag298
ag360
ag176
ag351
ag185
ag180
ag216
ag339
ag123
ag114
ag380
ag30
ag172
ag52
ag41
ag142
ag18
ag155
ag35
ag370
ag13
ag152
ag284
ag16
ag50
ag170
ag362
ag128
ag219
ag134
ag158
ag17
ag171
ag329
ag115
ag69
ag80
ag340
ag227
ag314
ag347
ag268
ag245
ag165
ag326
ag325
ag44
ag51
ag350
ag22
ag235
ag43
ag116
ag229
ag230
ag359
ag73
ag38
ag263
ag121
ag153
ag55
ag281
ag19
ag34
ag294
ag358
ag376
ag42
ag374
ag138
ag48
ag342
ag89
ag143
ag388
ag184
ag386
ag385
ag338
ag369
ag82
ag188
ag332
ag86
ag62
ag264
ag92
ag389
ag204
ag111
ag9
ag214
ag146
ag31
ag237
ag25
ag59
ag182
ag318
ag319
ag101
ag47
ag394
ag148
ag330
ag198
ag262
ag94
ag140
ag337
ag61
ag300
ag10
ag291
ag202
ag169
ag119
ag183
ag190
ag271
ag151
ag207
ag100
ag112
ag79
ag289
ag120
ag161
ag205
ag178
ag261
ag391
ag187
ag241
ag220
ag218
ag267
ag353
ag334
ag367
ag253
ag327
ag328
ag74
ag110
ag107
ag290
ag279
ag221
ag199
ag64
ag304
ag97
ag366
ag108
ag295
ag224
ag65
ag40
ag21
ag46
ag375
ag196
ag90
ag11
ag344
ag197
ag371
ag382
ag211
ag309
ag363
ag308
ag283
ag242
asS'separator'
p399
S'='
sS'sparse'
p400
I01
sb.