ccopy_reg
_reconstructor
p1
(csklearn.feature_extraction.dict_vectorizer
DictVectorizer
p2
c__builtin__
object
p3
NtRp4
(dp5
S'vocabulary_'
p6
(dp7
S'nsubj=which'
p8
I63
sS'nsubjpass=chip'
p9
I65
sS'nsubj=Ritenour'
p10
I53
sS'w-2=integration'
p11
I199
sS'w+1=NAFTA'
p12
I86
sS'dobj=element'
p13
I29
sS'w+2=from'
p14
I129
sS'dobj=those'
p15
I44
sS'w-2=later'
p16
I202
sS'w+1=islamic'
p17
I101
sS'nsubj=show'
p18
I59
sS'w-2=agree'
p19
I187
sS'advmod=often'
p20
I7
sS'w-2=respect'
p21
I205
sS'w-2=Gonthi'
p22
I183
sS'w+2=gule'
p23
I131
sS'w-2=state'
p24
I209
sS'w-2=would'
p25
I221
sS'dobj=dance'
p26
I27
sS'advmod=well'
p27
I8
sS'w+2=and'
p28
I119
sS'nsubj=Chad'
p29
I50
sS'dobj=States'
p30
I20
sS'w+2=side'
p31
I148
sS'w+2=clearly'
p32
I121
sS'w-1=already'
p33
I158
sS'w-2=show'
p34
I208
sS'nsubj=while-you-wait'
p35
I64
sS'w+1=develop'
p36
I90
sS'w-2=system'
p37
I212
sS'w+1=ecologically'
p38
I94
sS'w-1=Rockville'
p39
I157
sS'w-1=to'
p40
I177
sS'nsubj=system'
p41
I62
sS'dobj=country'
p42
I26
sS'nsubjpass=piece'
p43
I66
sS'prep=within'
p44
I81
sS'w-2=and'
p45
I188
sS'nsubjpass=principle'
p46
I67
sS'w-2=hope'
p47
I196
sS'w-1=outfit'
p48
I172
sS'w+2=lose'
p49
I137
sS'w-1=language'
p50
I167
sS'nsubj=government'
p51
I56
sS'w-1=should'
p52
I174
sS'w-1=without'
p53
I180
sS'dobj=story'
p54
I40
sS'w-1=say'
p55
I173
sS'nsubj=facility'
p56
I55
sS'w-2=begin'
p57
I190
sS'dobj=facility'
p58
I30
sS'w-2=he'
p59
I195
sS'w+2=structure'
p60
I151
sS'w+1=diverse'
p61
I93
sS'w+2=gold'
p62
I130
sS'dobj=style'
p63
I42
sS'aux=will'
p64
I13
sS'w+1=with'
p65
I112
sS'dobj=agreement'
p66
I21
sS'advmod=already'
p67
I3
sS'w+2=radar'
p68
I145
sS'w-2=say'
p69
I206
sS'nsubj=study'
p70
I61
sS'w+2=into'
p71
I133
sS'w+1=every'
p72
I96
sS'w-2=know'
p73
I200
sS'w+1=rock'
p74
I106
sS'w-1=will'
p75
I179
sS'w+1=traditional'
p76
I110
sS'w-2=.'
p77
I182
sS'prep=with'
p78
I80
sS'w-2=crisis'
p79
I192
sS'w+1=he'
p80
I98
sS'w+2=friendly'
p81
I128
sS'aux=have'
p82
I10
sS'nsubj=regime'
p83
I58
sS'w-1=by'
p84
I163
sS'w+1=remain'
p85
I105
sS'w-1=be'
p86
I162
sS'w-2=arm'
p87
I189
sS'w+2=latest'
p88
I135
sS'dobj=force'
p89
I32
sS'prep=among'
p90
I73
sS'w-1=,'
p91
I154
sS'dobj=structure'
p92
I41
sS'w+1=african'
p93
I88
sS'dobj=many'
p94
I33
sS'dep=support'
p95
I18
sS'dobj=center'
p96
I23
sS'dobj=technology'
p97
I43
sS'w+2=United'
p98
I117
sS'w-2=in'
p99
I198
sS'tmod=today'
p100
I83
sS'nsubj=leader'
p101
I57
sS'w-1=also'
p102
I159
sS'w-2=how'
p103
I197
sS'w-2=text'
p104
I213
sS'w+2=control'
p105
I123
sS'w+2=country'
p106
I124
sS'w+1=foreign'
p107
I97
sS'aux=should'
p108
I11
sS'w+2=policy'
p109
I142
sS'advmod=off'
p110
I6
sS'dep=test'
p111
I19
sS'w-2=millennium'
p112
I204
sS'advcl=sense'
p113
I1
sS'w-2=Ocean'
p114
I184
sS'w-2=she'
p115
I207
sS'w-1=Kristian'
p116
I156
sS'w-2=chip'
p117
I191
sS'w+1=element'
p118
I95
sS'w-1=have'
p119
I165
sS'dobj=practice'
p120
I37
sS'w+1=dignitary'
p121
I91
sS"w+2=''"
p122
I114
sS'w-1=he'
p123
I166
sS'w+2=it'
p124
I134
sS'w+1=many'
p125
I103
sS'parataxis=say'
p126
I70
sS'advmod=also'
p127
I4
sS'w-2=suggest'
p128
I211
sS'auxpass=be'
p129
I15
sS'w-1=which'
p130
I178
sS'complm=that'
p131
I17
sS'w-2=landscape'
p132
I201
sS'w+2=single'
p133
I149
sS'parataxis=part'
p134
I69
sS'prep=after'
p135
I72
sS'w-2=strategy'
p136
I210
sS'dobj=community'
p137
I24
sS'nsubj=Singapore'
p138
I54
sS'dobj=fighter'
p139
I31
sS'w-2=to'
p140
I215
sS'w-2=have'
p141
I194
sS'w+2=product'
p142
I144
sS'prep=under'
p143
I79
sS'w+2=the'
p144
I152
sS'w-2=Ritenour'
p145
I185
sS'w+1=the'
p146
I107
sS'w+2=long'
p147
I136
sS'w-2=try'
p148
I216
sS'w-1=off'
p149
I169
sS'advcl=make'
p150
I0
sS'w+2=community'
p151
I122
sS'nsubj=Johnson'
p152
I52
sS'nsubj=#NUMBER#'
p153
I48
sS'w+2=plan'
p154
I141
sS'w-1=Johnson'
p155
I155
sS'w+2=dna'
p156
I125
sS'prep=in'
p157
I75
sS'nsubj=structure'
p158
I60
sS'advmod=how'
p159
I5
sS'aux=would'
p160
I14
sS'xcomp=similar'
p161
I223
sS'w+1=in'
p162
I99
sS'w-2=Togo'
p163
I186
sS'w-2=leader'
p164
I203
sS'partmod=know'
p165
I71
sS'w+1=it'
p166
I102
sS'xcomp=more'
p167
I222
sS'nsubj=#PRP#'
p168
I49
sS'w+2=pricing'
p169
I143
sS'prep=from'
p170
I74
sS'dobj=bioscience'
p171
I22
sS'nsubj=Jennifer'
p172
I51
sS'w-1=at'
p173
I161
sS'dobj=principle'
p174
I38
sS'w-2=want'
p175
I217
sS'w+1=into'
p176
I100
sS'w+1=within'
p177
I113
sS'aux=to'
p178
I12
sS'dobj=voice'
p179
I46
sS'w+1=those'
p180
I108
sS'w-1=nautilus'
p181
I168
sS'w+2=bioscience'
p182
I120
sS'dobj=dignitary'
p183
I28
sS'ccomp=envision'
p184
I16
sS'w+2=10-year-old'
p185
I116
sS'w+1=and'
p186
I89
sS'w+2=senegal'
p187
I147
sS'w-2=will'
p188
I220
sS'dobj=plan'
p189
I36
sS'dobj=treaty'
p190
I45
sS'prep=like'
p191
I77
sS"w-2=''"
p192
I181
sS'w-2=the'
p193
I214
sS'w+2=how'
p194
I132
sS'w+1=.'
p195
I84
sS'w+2=of'
p196
I140
sS'dobj=party'
p197
I35
sS'w-2=way'
p198
I218
sS'w+2=,'
p199
I115
sS'w-1=often'
p200
I170
sS'w+1=:'
p201
I85
sS'w+2=evacuation'
p202
I126
sS'dobj=music'
p203
I34
sS'w-1=and'
p204
I160
sS'w+2=make'
p205
I138
sS'w-2=government'
p206
I193
sS'w+2=muslim'
p207
I139
sS'prep=into'
p208
I76
sS'w+1=today'
p209
I109
sS'w+1=traffic'
p210
I111
sS'dobj=which'
p211
I47
sS'dobj=result'
p212
I39
sS'w-1=on'
p213
I171
sS'w+2=story'
p214
I150
sS'w-1=test'
p215
I176
sS'dobj=control'
p216
I25
sS'w+1=a'
p217
I87
sS'advcl=use'
p218
I2
sS'w+2=a'
p219
I118
sS'w-1=further'
p220
I164
sS'w+2=result'
p221
I146
sS'prep=without'
p222
I82
sS'w+2=force'
p223
I127
sS'prep=on'
p224
I78
sS'w+1=dim'
p225
I92
sS'aux=be'
p226
I9
sS'w-1=suggest'
p227
I175
sS'nsubjpass=some'
p228
I68
sS'w-2=well'
p229
I219
sS'w+2=voice'
p230
I153
sS'w+1=modern'
p231
I104
ssS'dtype'
p232
cnumpy
float64
p233
sS'feature_names_'
p234
(lp235
g150
ag113
ag218
ag67
ag127
ag159
ag110
ag20
ag27
ag226
ag82
ag108
ag178
ag64
ag160
ag129
ag184
ag131
ag95
ag111
ag30
ag66
ag171
ag96
ag137
ag216
ag42
ag26
ag183
ag13
ag58
ag139
ag89
ag94
ag203
ag197
ag189
ag120
ag174
ag212
ag54
ag92
ag63
ag97
ag15
ag190
ag179
ag211
ag153
ag168
ag29
ag172
ag152
ag10
ag138
ag56
ag51
ag101
ag83
ag18
ag158
ag70
ag41
ag8
ag35
ag9
ag43
ag46
ag228
ag134
ag126
ag165
ag135
ag90
ag170
ag157
ag208
ag191
ag224
ag143
ag78
ag44
ag222
ag100
ag195
ag201
ag12
ag217
ag93
ag186
ag36
ag121
ag225
ag61
ag38
ag118
ag72
ag107
ag80
ag162
ag176
ag17
ag166
ag125
ag231
ag85
ag74
ag146
ag180
ag209
ag76
ag210
ag65
ag177
ag122
ag199
ag185
ag98
ag219
ag28
ag182
ag32
ag151
ag105
ag106
ag156
ag202
ag223
ag81
ag14
ag62
ag23
ag194
ag71
ag124
ag88
ag147
ag49
ag205
ag207
ag196
ag154
ag109
ag169
ag142
ag68
ag221
ag187
ag31
ag133
ag214
ag60
ag144
ag230
ag91
ag155
ag116
ag39
ag33
ag102
ag204
ag173
ag86
ag84
ag220
ag119
ag123
ag50
ag181
ag149
ag200
ag213
ag48
ag55
ag52
ag227
ag215
ag40
ag130
ag75
ag53
ag192
ag77
ag22
ag114
ag145
ag163
ag19
ag45
ag87
ag57
ag117
ag79
ag206
ag141
ag59
ag47
ag103
ag99
ag11
ag73
ag132
ag16
ag164
ag112
ag21
ag69
ag115
ag34
ag24
ag136
ag128
ag37
ag104
ag193
ag140
ag148
ag175
ag198
ag229
ag188
ag25
ag167
ag161
asS'separator'
p236
S'='
sS'sparse'
p237
I01
sb.