ccopy_reg
_reconstructor
p1
(csklearn.feature_extraction.dict_vectorizer
DictVectorizer
p2
c__builtin__
object
p3
NtRp4
(dp5
S'vocabulary_'
p6
(dp7
S'w+2=hardship'
p8
I173
sS'w+2=decision'
p9
I170
sS'w-1=express'
p10
I219
sS'nsubj=Rice'
p11
I83
sS'w+2=loss'
p12
I178
sS'w-2=my'
p13
I271
sS'w+1=sometimes'
p14
I130
sS'w-2=resignation'
p15
I277
sS'det=no'
p16
I55
sS'ccomp=hold'
p17
I31
sS'w-2=reluctance'
p18
I275
sS'w-2=we'
p19
I285
sS'w+2=and'
p20
I157
sS'w+1=.'
p21
I111
sS'w+2=call'
p22
I164
sS'w-1=little'
p23
I225
sS'w+1=current'
p24
I119
sS'conj=hope'
p25
I46
sS'w+2=investigator'
p26
I176
sS'rcmod=carry'
p27
I105
sS'w-1=-lrb-'
p28
I206
sS'w-2=or'
p29
I274
sS'det=the'
p30
I56
sS"w+2='s"
p31
I144
sS'w+1=very'
p32
I140
sS'w+2=at'
p33
I159
sS'w+2=that'
p34
I190
sS'w+2=North'
p35
I151
sS'w-2=of'
p36
I273
sS'xcomp=take'
p37
I293
sS'w+2=civilian'
p38
I168
sS'w-2=Gates'
p39
I247
sS'w+1=over'
p40
I129
sS'dobj=delay'
p41
I66
sS'w+2=much'
p42
I181
sS'w-1=she'
p43
I232
sS'w+2=any'
p44
I158
sS'w+2=delay'
p45
I171
sS'w+2=Congress'
p46
I146
sS'w-2=and'
p47
I256
sS'w-2=show'
p48
I279
sS'w+2=Macedonia'
p49
I150
sS'amod=deep'
p50
I12
sS'advmod=deeply'
p51
I7
sS'w+2=this'
p52
I193
sS'w-2=general'
p53
I263
sS'w-2=alliance'
p54
I254
sS'nsubj=attacker'
p55
I87
sS'w-1=absolutely'
p56
I210
sS'amod=little'
p57
I15
sS'w-1=authority'
p58
I213
sS'advcl=say'
p59
I1
sS'w-2=Nations'
p60
I250
sS'nsubj=member'
p61
I90
sS'w+2=brutally'
p62
I163
sS'w+2=what'
p63
I201
sS'w-2=to'
p64
I284
sS'nsubj=Americans'
p65
I81
sS'conj=begin'
p66
I42
sS'w-1=would'
p67
I239
sS'dobj=decision'
p68
I65
sS'w-2=country'
p69
I259
sS'aux=do'
p70
I17
sS'w+1=that'
p71
I132
sS'dobj=loss'
p72
I69
sS'conj=call'
p73
I43
sS'dobj=#PRP#'
p74
I57
sS'w-2=Monday'
p75
I249
sS'w+1=any'
p76
I115
sS'w-1=survivor'
p77
I233
sS'nsubj=authority'
p78
I88
sS'w-2=express'
p79
I261
sS'dobj=attempt'
p80
I59
sS'ccomp=take'
p81
I37
sS'ccomp=know'
p82
I32
sS'mark=while'
p83
I78
sS'w+1=you'
p84
I142
sS'dep=so'
p85
I51
sS'dobj=circumstance'
p86
I63
sS'w-2=he'
p87
I265
sS'w-2=if'
p88
I266
sS'w-1=Seoul'
p89
I209
sS'rcmod=continue'
p90
I106
sS'xcomp=decide'
p91
I288
sS'dobj=nothing'
p92
I70
sS'w-2=also'
p93
I255
sS'aux=will'
p94
I19
sS'ccomp=get'
p95
I29
sS'advmod=really'
p96
I10
sS'w-2=say'
p97
I278
sS'w-2=do'
p98
I260
sS'w+2=can'
p99
I165
sS'w+2=several'
p100
I186
sS'w+2=the'
p101
I191
sS'prep=at'
p102
I98
sS'prep=as'
p103
I97
sS'w-1=will'
p104
I237
sS'w-2=,'
p105
I242
sS'w-2=.'
p106
I243
sS'w+2=United'
p107
I153
sS'w+1=he'
p108
I124
sS'w+2=all'
p109
I156
sS'conj=stand'
p110
I47
sS'dobj=passing'
p111
I71
sS'nsubj=agency'
p112
I86
sS'w-2=but'
p113
I258
sS'w+1=nothing'
p114
I126
sS'w-2=in'
p115
I267
sS'w+2=measure'
p116
I180
sS'w+2=Iran'
p117
I149
sS'det=any'
p118
I54
sS'advmod=because'
p119
I6
sS'conj=express'
p120
I44
sS'xcomp=have'
p121
I290
sS'ccomp=track'
p122
I38
sS'partmod=say'
p123
I92
sS'w-2=not'
p124
I272
sS'w-1=deepest'
p125
I217
sS'dep=vote'
p126
I52
sS'w-1=my'
p127
I227
sS'nsubj=family'
p128
I89
sS'w-2=I'
p129
I248
sS'ccomp=regulate'
p130
I35
sS'w+1=Switzerland'
p131
I112
sS'w-1=,'
p132
I205
sS'ccomp=be'
p133
I23
sS'w-1=feel'
p134
I220
sS'w-2=so'
p135
I280
sS'advmod=absolutely'
p136
I4
sS'w-1=with'
p137
I238
sS'prep=about'
p138
I95
sS'w+2=because'
p139
I162
sS'amod=sincere'
p140
I16
sS'xcomp=unable'
p141
I295
sS'w+1=about'
p142
I113
sS'w-1=I'
p143
I207
sS'w+1=of'
p144
I127
sS'w+1=have'
p145
I123
sS'w+2=to'
p146
I194
sS'w+1=on'
p147
I128
sS'w-1=of'
p148
I230
sS'ccomp=make'
p149
I33
sS'dobj=hardship'
p150
I68
sS'w-2=a'
p151
I252
sS'w-1=they'
p152
I235
sS'w-2=spokesman'
p153
I281
sS'prep=for'
p154
I99
sS'det=a'
p155
I53
sS'dep=for'
p156
I50
sS'dobj=casualty'
p157
I61
sS'conj=apologize'
p158
I41
sS'xcomp=say'
p159
I292
sS'w-2=repent'
p160
I276
sS'w-2=member'
p161
I270
sS'ccomp=say'
p162
I36
sS'w-2=Americans'
p163
I244
sS'w+1=at'
p164
I116
sS'advmod=about'
p165
I3
sS'dobj=view'
p166
I75
sS'nsubj=Bush'
p167
I82
sS'ccomp=become'
p168
I24
sS"w+2=''"
p169
I143
sS'w+1=this'
p170
I137
sS'ccomp=buy'
p171
I25
sS'w-1=he'
p172
I222
sS'nsubj=Surma'
p173
I85
sS'dobj=ban'
p174
I60
sS'ccomp=divide'
p175
I28
sS'w+1=to'
p176
I138
sS'dobj=failure'
p177
I67
sS'w-2=all'
p178
I253
sS'w+1=try'
p179
I139
sS'advcl=violate'
p180
I2
sS'w-1=no'
p181
I228
sS'ccomp=have'
p182
I30
sS'w+2=view'
p183
I198
sS'w+2=passing'
p184
I183
sS'conj=think'
p185
I48
sS'w-1=and'
p186
I211
sS'complm=that'
p187
I40
sS'w-1=really'
p188
I231
sS"w-1='s"
p189
I204
sS'w-2=with'
p190
I286
sS'xcomp=try'
p191
I294
sS'rcmod=measure'
p192
I107
sS'dobj=area'
p193
I58
sS'advmod=at'
p194
I5
sS'w-1=heartfelt'
p195
I223
sS'w-1=you'
p196
I240
sS'w+2=will'
p197
I202
sS'w+1=fight'
p198
I121
sS'w-2=have'
p199
I264
sS'w+2=President'
p200
I152
sS'advmod=merely'
p201
I8
sS'cc=and'
p202
I21
sS'w+2=sleep'
p203
I189
sS'w+2=have'
p204
I174
sS'poss=country'
p205
I94
sS'w+2=no'
p206
I182
sS'advmod=much'
p207
I9
sS'w+1=the'
p208
I133
sS'prep=against'
p209
I96
sS'w+1=be'
p210
I117
sS'w+1=there'
p211
I134
sS'w+2=be'
p212
I161
sS'cc=but'
p213
I22
sS'w+1=they'
p214
I135
sS'dobj=comment'
p215
I64
sS'w-2=expression'
p216
I262
sS'w-1=but'
p217
I215
sS'amod=deepest'
p218
I13
sS'dobj=choice'
p219
I62
sS'w-1=Rice'
p220
I208
sS'w+2=many'
p221
I179
sS'xcomp=fight'
p222
I289
sS'w+2=tragic'
p223
I195
sS'w+2=she'
p224
I188
sS'prep=in'
p225
I100
sS'aux=would'
p226
I20
sS'w+1=for'
p227
I122
sS'dobj=suffering'
p228
I72
sS'nsubj=Seoul'
p229
I84
sS'w+1=it'
p230
I125
sS'w+1=thing'
p231
I136
sS'nsubj=#PRP#'
p232
I80
sS'dobj=thing'
p233
I74
sS"w-1=''"
p234
I203
sS'w-2=korean'
p235
I268
sS'w+2=back'
p236
I160
sS'w+2=sexual'
p237
I187
sS'w+2=circumstance'
p238
I167
sS'w+2=reckless'
p239
I184
sS"w+1=''"
p240
I108
sS'conj=want'
p241
I49
sS'w-2=storm'
p242
I283
sS'w-1=we'
p243
I236
sS'w-2=statement'
p244
I282
sS'aux=to'
p245
I18
sS'w-2=Department'
p246
I246
sS'w+2=comment'
p247
I169
sS'w-1=merely'
p248
I226
sS'prep=on'
p249
I102
sS'w-1=deeply'
p250
I218
sS'w+2=trust'
p251
I196
sS'xcomp=vote'
p252
I296
sS'poss=#PRP#'
p253
I93
sS'w-1=biggest'
p254
I214
sS'w+1=and'
p255
I114
sS'w-2=attacker'
p256
I257
sS'w+1=decide'
p257
I120
sS'w-2=Power'
p258
I251
sS'advcl=report'
p259
I0
sS"w-2=''"
p260
I241
sS'w+1=,'
p261
I109
sS'w+2=choice'
p262
I166
sS'w+1=-rrb-'
p263
I110
sS'w+2=for'
p264
I172
sS'rcmod=able'
p265
I103
sS'w+2=way'
p266
I199
sS'w+2=,'
p267
I145
sS'xcomp=come'
p268
I287
sS'amod=great'
p269
I14
sS'w+2=European'
p270
I147
sS'ccomp=regret'
p271
I34
sS'neg=not'
p272
I79
sS'w-1=deep'
p273
I216
sS'w-1=it'
p274
I224
sS'w+1=come'
p275
I118
sS'w+1=take'
p276
I131
sS'w+2=he'
p277
I175
sS'dobj=way'
p278
I76
sS'rcmod=call'
p279
I104
sS'amod=biggest'
p280
I11
sS'conj=have'
p281
I45
sS'w-1=any'
p282
I212
sS'xcomp=manufacture'
p283
I291
sS'w+2=I'
p284
I148
sS'ccomp=come'
p285
I27
sS'w+2=these'
p286
I192
sS'ccomp=turn'
p287
I39
sS'w+2=we'
p288
I200
sS'ccomp=change'
p289
I26
sS'w+2=it'
p290
I177
sS'w-1=not'
p291
I229
sS'prep=of'
p292
I101
sS'w+2=say'
p293
I185
sS'w-1=great'
p294
I221
sS'w+2=about'
p295
I155
sS'w-1=the'
p296
I234
sS'w-2=matter'
p297
I269
sS'dobj=tension'
p298
I73
sS'w+1=vote'
p299
I141
sS'w+2=unable'
p300
I197
sS'mark=if'
p301
I77
sS'w-2=Biden'
p302
I245
sS'nsubj=move'
p303
I91
sS'w+2=a'
p304
I154
ssS'dtype'
p305
cnumpy
float64
p306
sS'feature_names_'
p307
(lp308
g259
ag59
ag180
ag165
ag136
ag194
ag119
ag51
ag201
ag207
ag96
ag280
ag50
ag218
ag269
ag57
ag140
ag70
ag245
ag94
ag226
ag202
ag213
ag133
ag168
ag171
ag289
ag285
ag175
ag95
ag182
ag17
ag82
ag149
ag271
ag130
ag162
ag81
ag122
ag287
ag187
ag158
ag66
ag73
ag120
ag281
ag25
ag110
ag185
ag241
ag156
ag85
ag126
ag155
ag118
ag16
ag30
ag74
ag193
ag80
ag174
ag157
ag219
ag86
ag215
ag68
ag41
ag177
ag150
ag72
ag92
ag111
ag228
ag298
ag233
ag166
ag278
ag301
ag83
ag272
ag232
ag65
ag167
ag11
ag229
ag173
ag112
ag55
ag78
ag128
ag61
ag303
ag123
ag253
ag205
ag138
ag209
ag103
ag102
ag154
ag225
ag292
ag249
ag265
ag279
ag27
ag90
ag192
ag240
ag261
ag263
ag21
ag131
ag142
ag255
ag76
ag164
ag210
ag275
ag24
ag257
ag198
ag227
ag145
ag108
ag230
ag114
ag144
ag147
ag40
ag14
ag276
ag71
ag208
ag211
ag214
ag231
ag170
ag176
ag179
ag32
ag299
ag84
ag169
ag31
ag267
ag46
ag270
ag284
ag117
ag49
ag35
ag200
ag107
ag304
ag295
ag109
ag20
ag44
ag33
ag236
ag212
ag139
ag62
ag22
ag99
ag262
ag238
ag38
ag247
ag9
ag45
ag264
ag8
ag204
ag277
ag26
ag290
ag12
ag221
ag116
ag42
ag206
ag184
ag239
ag293
ag100
ag237
ag224
ag203
ag34
ag101
ag286
ag52
ag146
ag223
ag251
ag300
ag183
ag266
ag288
ag63
ag197
ag234
ag189
ag132
ag28
ag143
ag220
ag89
ag56
ag186
ag282
ag58
ag254
ag217
ag273
ag125
ag250
ag10
ag134
ag294
ag172
ag195
ag274
ag23
ag248
ag127
ag181
ag291
ag148
ag188
ag43
ag77
ag296
ag152
ag243
ag104
ag137
ag67
ag196
ag260
ag105
ag106
ag163
ag302
ag246
ag39
ag129
ag75
ag60
ag258
ag151
ag178
ag54
ag93
ag47
ag256
ag113
ag69
ag98
ag79
ag216
ag53
ag199
ag87
ag88
ag115
ag235
ag297
ag161
ag13
ag124
ag36
ag29
ag18
ag160
ag15
ag97
ag48
ag135
ag153
ag244
ag242
ag64
ag19
ag190
ag268
ag91
ag222
ag121
ag283
ag159
ag37
ag191
ag141
ag252
asS'separator'
p309
S'='
sS'sparse'
p310
I01
sb.