ccopy_reg
_reconstructor
p1
(csklearn.feature_extraction.dict_vectorizer
DictVectorizer
p2
c__builtin__
object
p3
NtRp4
(dp5
S'vocabulary_'
p6
(dp7
S'dobj=right'
p8
I146
sS'w+1=become'
p9
I246
sS'w-2=indoors'
p10
I635
sS'w-2=we'
p11
I709
sS'w-2=people'
p12
I667
sS'w+2=among'
p13
I345
sS'advcl=explain'
p14
I3
sS'dobj=sort'
p15
I148
sS'rcmod=conduct'
p16
I233
sS'dep=add'
p17
I107
sS'w+2=but'
p18
I358
sS'conj=diet'
p19
I85
sS'w+2=responsibility'
p20
I425
sS'w-2=behind'
p21
I589
sS'w-2=frequent'
p22
I620
sS'w-2=cancel'
p23
I593
sS'w-2=just'
p24
I639
sS'amod=clean-up'
p25
I30
sS'w-2=need'
p26
I658
sS'w-1=military-to-military'
p27
I504
sS'w+2=freedom'
p28
I382
sS'w-1=physical'
p29
I517
sS'prep=by'
p30
I220
sS'dobj=option'
p31
I140
sS'w+1=that'
p32
I306
sS'w+2=not'
p33
I411
sS'w-1=study'
p34
I530
sS'w-2=corridor'
p35
I602
sS'w+1=schedule'
p36
I300
sS'w-2=intense'
p37
I636
sS'w-1=would'
p38
I554
sS'w-2=food'
p39
I618
sS'w+1=regularly'
p40
I297
sS'w-2=guinean'
p41
I624
sS'w+2=burma'
p42
I357
sS'aux=would'
p43
I76
sS'w-2=kick'
p44
I640
sS'w+2=educate'
p45
I375
sS'w-2=mind'
p46
I654
sS'w+1=these'
p47
I308
sS'w+1=only'
p48
I287
sS'w-2=from'
p49
I621
sS'w+1=too'
p50
I317
sS'w-2=routine'
p51
I682
sS'advmod=just'
p52
I11
sS'w-1=relation'
p53
I521
sS'w+2=Security'
p54
I336
sS'w+1=recently'
p55
I295
sS'w-1=about'
p56
I457
sS'w-2=price'
p57
I675
sS'w+2=futility'
p58
I386
sS'w+2=begin'
p59
I353
sS'conj=stop'
p60
I98
sS'w-1=by'
p61
I467
sS'w+1=seriously'
p62
I302
sS'w-1=be'
p63
I464
sS'nsubjpass=rule'
p64
I204
sS'partmod=reflect'
p65
I215
sS'nsubj=Congress'
p66
I177
sS'w-2=at'
p67
I583
sS'w-2=Turks'
p68
I572
sS'w-2=able'
p69
I574
sS'w-2=time'
p70
I700
sS'w+2=internationally'
p71
I398
sS'advcl=come'
p72
I1
sS'nsubj=#PRP#'
p73
I176
sS'w-2=will'
p74
I712
sS'w-2=poor'
p75
I671
sS'w+1=help'
p76
I264
sS'w-2=who'
p77
I711
sS'advmod=unilaterally'
p78
I21
sS'w+1=of'
p79
I285
sS'w-1=massive'
p80
I502
sS'tmod=morning'
p81
I236
sS'w+2=to'
p82
I438
sS'w+1=on'
p83
I286
sS'w+2=compile'
p84
I362
sS'w+2=unilaterally'
p85
I440
sS'w-1=some'
p86
I528
sS'w+2=foreign'
p87
I381
sS'w-1=have'
p88
I492
sS'w-1=consultation'
p89
I474
sS'w+2=obligation'
p90
I412
sS'amod=regular'
p91
I54
sS'w+1=carana'
p92
I248
sS'amod=five-day'
p93
I37
sS'nn=consultation'
p94
I163
sS'w+2=in'
p95
I395
sS'amod=military-to-military'
p96
I45
sS'advmod=#PRP#'
p97
I6
sS'w-2=confidence'
p98
I600
sS'w+2=faith'
p99
I377
sS'w+1=maximum'
p100
I278
sS'w-1=modeling'
p101
I506
sS'xcomp=advocate'
p102
I716
sS'w+2=test'
p103
I433
sS'w+2=control'
p104
I366
sS'aux=can'
p105
I70
sS'complm=that'
p106
I82
sS'w-2=yoga'
p107
I714
sS'dobj=primacy'
p108
I143
sS'nsubj=visitor'
p109
I199
sS'nsubj=training'
p110
I198
sS'w-1=combat'
p111
I470
sS'amod=outdoor'
p112
I48
sS'advmod=as'
p113
I7
sS'w-1=you'
p114
I555
sS'nn=premier'
p115
I171
sS'w-1=government'
p116
I491
sS'amod=aerobic'
p117
I25
sS'w+1=now'
p118
I284
sS'infmod=clear'
p119
I153
sS'w+2=by'
p120
I359
sS'w+1=the'
p121
I307
sS'w+2=produce'
p122
I422
sS'w-2=than'
p123
I693
sS'w-2=for'
p124
I619
sS'w+2=be'
p125
I352
sS'w+1=they'
p126
I309
sS'nsubj=Israel'
p127
I179
sS'w-2=how'
p128
I629
sS'w+2=fiscal'
p129
I378
sS'w+1=dvd'
p130
I255
sS'w-2=out'
p131
I663
sS'prep=in'
p132
I223
sS'nsubj=threat'
p133
I197
sS'w-2=reason'
p134
I680
sS'w+1=for'
p135
I260
sS'nsubjpass=mind'
p136
I203
sS'w-1=artillery'
p137
I462
sS'partmod=know'
p138
I214
sS'conj=type'
p139
I103
sS'w+1=immense'
p140
I266
sS'w+2=mostly'
p141
I407
sS'w+1=overall'
p142
I289
sS'amod=schedule'
p143
I56
sS'w-1=from'
p144
I486
sS'w-2=portion'
p145
I672
sS'w-2=a'
p146
I573
sS'w+1=proper'
p147
I292
sS'ccomp=undertake'
p148
I81
sS'w-2=Turkey'
p149
I571
sS'w-2=eligible'
p150
I612
sS'dobj=restraint'
p151
I145
sS'w+2=caution'
p152
I361
sS'nn=theater'
p153
I174
sS'w+1=and'
p154
I242
sS'conj=joke'
p155
I87
sS'w-2=combat'
p156
I598
sS'w-2=level'
p157
I646
sS'w+2=prompt'
p158
I423
sS'w+1=later'
p159
I271
sS'dobj=more'
p160
I138
sS'w-1=should'
p161
I525
sS'dobj=mind'
p162
I137
sS'w-2=party'
p163
I666
sS'nsubj=that'
p164
I195
sS'w-1=it'
p165
I496
sS'w-1=similar'
p166
I526
sS'w-2=government'
p167
I623
sS'num=than'
p168
I206
sS'det=this'
p169
I122
sS'dobj=which'
p170
I152
sS'nsubj=Pakistanis'
p171
I181
sS'w-1=in'
p172
I494
sS'w+2=we'
p173
I444
sS'w+2=bring'
p174
I356
sS'poss=#DATE#'
p175
I216
sS'w+2=counter-terrorism'
p176
I367
sS'w+1=like'
p177
I274
sS'advcl=safe'
p178
I4
sS'w-2=treatment'
p179
I704
sS'w+1=caution'
p180
I249
sS'w+1=know'
p181
I270
sS'w+2=practice'
p182
I421
sS'partmod=assign'
p183
I209
sS'conj=careful'
p184
I84
sS'w-1=theater'
p185
I536
sS'mark=if'
p186
I155
sS'w+2=power'
p187
I420
sS'w+2=inform'
p188
I397
sS'amod=watchingthe'
p189
I64
sS'w-2=syrian'
p190
I689
sS'w-1=military'
p191
I503
sS'w+2=ghost'
p192
I387
sS'advmod=where'
p193
I23
sS'w-2=rule'
p194
I683
sS'dep=control'
p195
I111
sS'w-2=they'
p196
I697
sS'conj=activity'
p197
I83
sS'w+2=call'
p198
I360
sS'amod=#NUMBER#'
p199
I24
sS'w-1=counterterrorism'
p200
I475
sS'advcl=contribute'
p201
I2
sS'w+1=have'
p202
I262
sS'w-2=particularly'
p203
I665
sS'w-2=traditional'
p204
I702
sS'nsubj=way'
p205
I200
sS'w-1=surveillance'
p206
I533
sS'dep=combat'
p207
I110
sS'nsubj=Turkey'
p208
I183
sS'w-2=benefit'
p209
I590
sS'det=these'
p210
I121
sS'w-1=amputee'
p211
I459
sS'w+2=Thailand'
p212
I337
sS'w-2=through'
p213
I699
sS'conj=pressure'
p214
I95
sS'w-1=repeatedly'
p215
I522
sS'w-1=crisis-response'
p216
I476
sS'dobj=power'
p217
I142
sS'amod=anti-terrorism'
p218
I28
sS'nsubj=who'
p219
I201
sS'w-1=unprecedented'
p220
I546
sS'nn=training'
p221
I175
sS'nsubj=Wilcox'
p222
I184
sS'dobj=activity'
p223
I125
sS'w+2=set'
p224
I430
sS'w-2=of'
p225
I660
sS'w+1=can'
p226
I247
sS'nn=building'
p227
I160
sS'w-2=country'
p228
I603
sS'w-2=on'
p229
I661
sS'w-1=to'
p230
I542
sS'w-1=undertake'
p231
I545
sS'w-2=own'
p232
I664
sS'w-1=much'
p233
I508
sS'dobj=#PRP#'
p234
I124
sS'w+2=strengthen'
p235
I432
sS'w-2=do'
p236
I609
sS'amod=massive'
p237
I43
sS'w-2=prepare'
p238
I673
sS'w+2=constitutional'
p239
I365
sS'w+2=Uganda'
p240
I338
sS'w+1=you'
p241
I325
sS'w-2=about'
p242
I575
sS'amod=daily'
p243
I33
sS'amod=live-fire'
p244
I41
sS'w+2=rights'
p245
I428
sS'w-1=such'
p246
I532
sS'w-1=anti-terrorism'
p247
I461
sS'w-2=neurotransmitter'
p248
I659
sS'w-2=take'
p249
I691
sS'w+2=morning'
p250
I406
sS'prep=over'
p251
I229
sS'dep=because'
p252
I108
sS'nsubj=Russia'
p253
I182
sS'conj=seek'
p254
I96
sS'w-1=successful'
p255
I531
sS'amod=political'
p256
I52
sS'amod=crisis-response'
p257
I32
sS'w-2=zimbabwean'
p258
I715
sS'partmod=fund'
p259
I212
sS'advmod=frequently'
p260
I9
sS'w-2=military'
p261
I653
sS'nsubj=election'
p262
I188
sS'nsubj=account'
p263
I185
sS'w+1=mentally'
p264
I279
sS'w-1=can'
p265
I468
sS'w-2=joint'
p266
I638
sS'w+1=make'
p267
I277
sS'w-2=air'
p268
I576
sS'w+2=much-delayed'
p269
I408
sS'w+1=through'
p270
I312
sS'w-2=chance'
p271
I595
sS'w-1=building'
p272
I466
sS'det=some'
p273
I119
sS'w+1=vigilance'
p274
I319
sS'w-2=continue'
p275
I601
sS'w-2=Ivorians'
p276
I568
sS'w-1=comfortable'
p277
I471
sS'w-1=those'
p278
I540
sS'w-2=amount'
p279
I578
sS'advmod=when'
p280
I22
sS'det=those'
p281
I123
sS'advmod=repeatedly'
p282
I18
sS'advmod=that'
p283
I19
sS'w-2=annual'
p284
I580
sS'w-2=kitchenette'
p285
I641
sS'prep=for'
p286
I221
sS'w-2=maintain'
p287
I649
sS'amod=live-firing'
p288
I42
sS'dep=that'
p289
I117
sS'w+1=we'
p290
I321
sS'amod=similar'
p291
I57
sS'w+2=when'
p292
I446
sS'w-1=--'
p293
I452
sS'w-1=Congress'
p294
I454
sS'nsubj=amendment'
p295
I186
sS'w+2=at'
p296
I349
sS'advcl=want'
p297
I5
sS'w-2=eager'
p298
I611
sS'w+2=as'
p299
I348
sS'w+2=expect'
p300
I376
sS'nn=surveillance'
p301
I173
sS'w-2=desk-top'
p302
I605
sS'w-2=fiber'
p303
I616
sS'w-2=create'
p304
I604
sS'w+2=mind'
p305
I405
sS'auxpass=be'
p306
I77
sS'w-2=engage'
p307
I613
sS'w+2=amid'
p308
I344
sS'w+1=highly'
p309
I265
sS'w-1=more'
p310
I507
sS'nn=relation'
p311
I172
sS'w+2=avoid'
p312
I351
sS'w-2=leadership'
p313
I645
sS'nsubj=neurotransmitter'
p314
I190
sS'rcmod=view'
p315
I235
sS'w+2=good'
p316
I388
sS'conj=improve'
p317
I86
sS'nsubj=president'
p318
I192
sS'w-2=seeker'
p319
I685
sS'w-1=fully'
p320
I488
sS'w-1=pen-to-paper'
p321
I515
sS'w-1=voter'
p322
I547
sS'w+1=soft'
p323
I304
sS'w-1=defense'
p324
I479
sS'w+2=follow'
p325
I379
sS'amod=constitution-writing'
p326
I31
sS'w+1=machine'
p327
I276
sS'w+2=fundamental'
p328
I385
sS'w+1=near'
p329
I282
sS'w+1=its'
p330
I269
sS'w-1=game'
p331
I490
sS'xcomp=show'
p332
I719
sS'w+2=with'
p333
I448
sS"w-1=''"
p334
I450
sS'w+1=extra'
p335
I258
sS'w-2=those'
p336
I698
sS'nsubj=individual'
p337
I189
sS'w-1=the'
p338
I535
sS'w-1=people'
p339
I516
sS'w+2=have'
p340
I390
sS'conj=part'
p341
I92
sS'amod=naval'
p342
I47
sS'conj=sense'
p343
I97
sS'w+2=although'
p344
I342
sS'w+1=provide'
p345
I293
sS"w-2=''"
p346
I556
sS'nsubj=this'
p347
I196
sS'w+2=fund'
p348
I384
sS'w+2=conduct'
p349
I364
sS'w+2=on'
p350
I414
sS'w+1=to'
p351
I315
sS'w-1=literary'
p352
I499
sS'nn=modeling'
p353
I170
sS'w+2=he'
p354
I391
sS'dobj=authority'
p355
I126
sS'w-2=desperately'
p356
I606
sS'w+2=along'
p357
I340
sS'w-2=percent'
p358
I668
sS'w+2=self-delusion'
p359
I429
sS'parataxis=continue'
p360
I207
sS'w+2=grow'
p361
I389
sS'w+2=part'
p362
I416
sS'w+2=heat'
p363
I392
sS'amod=wonderful'
p364
I66
sS'prep=without'
p365
I232
sS'w-2=attempt'
p366
I584
sS'advmod=far'
p367
I8
sS'w-1=constitution-writing'
p368
I473
sS'w+1=assign'
p369
I243
sS"w-2='s"
p370
I557
sS'w-2=first'
p371
I617
sS'xcomp=help'
p372
I717
sS'w-2=conduct'
p373
I599
sS'dobj=ghost'
p374
I133
sS'w+2=planner'
p375
I419
sS'csubj=get'
p376
I106
sS'w+2=particularly'
p377
I417
sS'w+2=necessary'
p378
I409
sS'w-2=naval'
p379
I657
sS'amod=successful'
p380
I60
sS'dobj=caution'
p381
I128
sS'w-2=go'
p382
I622
sS'w+1=he'
p383
I263
sS'w+1=show'
p384
I303
sS'nsubj=Iraqis'
p385
I178
sS'w-1=whole'
p386
I551
sS'w+1=because'
p387
I245
sS'acomp=little'
p388
I0
sS'conj=sure'
p389
I99
sS'w+1=over'
p390
I288
sS'w-2=side'
p391
I686
sS'conj=participate'
p392
I93
sS'w+2=this'
p393
I437
sS'w-1=schedule'
p394
I524
sS'w+2=Afghan'
p395
I331
sS'nn=combat'
p396
I161
sS'amod=joint'
p397
I39
sS'advmod=particularly'
p398
I13
sS'partmod=involve'
p399
I213
sS'w-1=live-firing'
p400
I501
sS'w-1=training'
p401
I544
sS'w-2=Chad'
p402
I566
sS'w-1=special'
p403
I529
sS'w-1=aerobic'
p404
I458
sS'w+1=need'
p405
I283
sS'dep=resist'
p406
I115
sS'dep=bit'
p407
I109
sS'w+2=undertake'
p408
I439
sS'w+2=both'
p409
I354
sS'w-2=the'
p410
I695
sS'aux=do'
p411
I71
sS'w+2=over'
p412
I415
sS'amod=train'
p413
I62
sS'w-2=public'
p414
I677
sS'w-2=with'
p415
I713
sS'aux=will'
p416
I75
sS'w+2=forbid'
p417
I380
sS'dobj=democracy'
p418
I130
sS'w-1=rough-and-tumble'
p419
I523
sS'partmod=conduct'
p420
I210
sS'w+1=less'
p421
I272
sS'w+2=Mali'
p422
I334
sS'w-2=smoking'
p423
I687
sS'w+1=extreme'
p424
I259
sS'w+2=another'
p425
I347
sS'nsubj=people'
p426
I191
sS'prep=with'
p427
I231
sS'w+2=sort'
p428
I431
sS'w+2=military'
p429
I404
sS'amod=much'
p430
I46
sS'conj=travel'
p431
I101
sS'w+2=its'
p432
I400
sS'amod=whole'
p433
I65
sS'dobj=patience'
p434
I141
sS'advmod=therefore'
p435
I20
sS'w-2=if'
p436
I630
sS'w-2=in'
p437
I633
sS'w-2=president'
p438
I674
sS'w-1=naval'
p439
I509
sS'amod=public'
p440
I53
sS'w+2=ambiguous'
p441
I343
sS'conj=persuade'
p442
I94
sS'w-2=it'
p443
I637
sS'w-1=woman'
p444
I552
sS'amod=unprecedented'
p445
I63
sS'w-2=such'
p446
I688
sS'w+2=do'
p447
I373
sS'w+2=democracy'
p448
I369
sS'w-2=trauma'
p449
I703
sS'dobj=idea'
p450
I134
sS'dobj=freedom'
p451
I132
sS'w-2=message'
p452
I652
sS'dobj=obligation'
p453
I139
sS'w+1=self'
p454
I301
sS'w-1=for'
p455
I485
sS'w+1=walk'
p456
I320
sS'w+1=director'
p457
I254
sS'w+2=normal'
p458
I410
sS'w+2=week'
p459
I445
sS'w+2=help'
p460
I393
sS'num=#NUMBER#'
p461
I205
sS"w+2=''"
p462
I326
sS'w-1=this'
p463
I539
sS'w-1=outdoor'
p464
I513
sS'det=the'
p465
I120
sS'w-2=disease'
p466
I608
sS'w-1=elaborate'
p467
I483
sS'conj=try'
p468
I102
sS'w-2=way'
p469
I708
sS'w-1=peacefully'
p470
I514
sS'w-2=program'
p471
I676
sS'w+1=design'
p472
I253
sS'prep=because'
p473
I219
sS'w-2=plan'
p474
I669
sS'conj=work'
p475
I104
sS'w-1=these'
p476
I537
sS'w+2=frequently'
p477
I383
sS'w-2=have'
p478
I625
sS'cc=and'
p479
I78
sS'amod=elaborate'
p480
I36
sS'w-1=simulated'
p481
I527
sS'dobj=brain'
p482
I127
sS'w+1=will'
p483
I323
sS'w+1=be'
p484
I244
sS'amod=further'
p485
I38
sS'w+1=enormous'
p486
I256
sS'w-2=therefore'
p487
I696
sS'nn=front'
p488
I167
sS'w-2=when'
p489
I710
sS'w-2=war'
p490
I707
sS'w+2=legitimate'
p491
I402
sS'w+1=in'
p492
I267
sS'w-2=impact'
p493
I631
sS'amod=democratic'
p494
I34
sS'w+1=aim'
p495
I241
sS'w-2=excite'
p496
I615
sS'w+1=little'
p497
I275
sS'w+2=little'
p498
I403
sS'w+1=restraint'
p499
I298
sS'advmod=mentally'
p500
I12
sS'w-1=wonderful'
p501
I553
sS'cc=but'
p502
I79
sS'w-2=role'
p503
I681
sS'w+1=involve'
p504
I268
sS'amod=own'
p505
I49
sS'w-1=democratic'
p506
I480
sS'poss=#PRP#'
p507
I217
sS'nn=commencement'
p508
I162
sS'w+2=restraint'
p509
I426
sS'w-2=korean'
p510
I642
sS'w+2=involve'
p511
I399
sS'prep=like'
p512
I225
sS'w+2=religious'
p513
I424
sS'w-2=diet'
p514
I607
sS'w+2=physical'
p515
I418
sS'w-1=regular'
p516
I520
sS'w-1=detailed'
p517
I481
sS'w-1=Wilcox'
p518
I455
sS'w-2=begin'
p519
I588
sS'w-2=Pakistanis'
p520
I569
sS'w+2=China'
p521
I332
sS'w-2=home'
p522
I628
sS'w-2=like'
p523
I647
sS'w+2=concern'
p524
I363
sS'w-2=allow'
p525
I577
sS'w-2=Russia'
p526
I570
sS'w+2=which'
p527
I447
sS'w-2=authority'
p528
I585
sS'w-1=into'
p529
I495
sS'w-2=35'
p530
I562
sS'w+2=--'
p531
I328
sS'w-2=be'
p532
I587
sS'w+1=mode'
p533
I280
sS'prep=of'
p534
I227
sS'w-1=further'
p535
I489
sS'amod=such'
p536
I61
sS'w-2=central'
p537
I594
sS'amod=rough-and-tumble'
p538
I55
sS'w+1=three'
p539
I311
sS'prep=on'
p540
I228
sS'nsubj=Ivorians'
p541
I180
sS'appos=drill'
p542
I67
sS'dobj=faith'
p543
I131
sS'amod=military'
p544
I44
sS'amod=simulated'
p545
I58
sS'w+2=they'
p546
I436
sS'w-1=do'
p547
I482
sS'nn=game'
p548
I168
sS'w+2=democratic'
p549
I370
sS'dobj=influence'
p550
I135
sS'dobj=leverage'
p551
I136
sS'w+2=deal'
p552
I368
sS'nn=defense'
p553
I165
sS'w+2=voting'
p554
I443
sS'w-2=avoid'
p555
I586
sS'nsubj=citizen'
p556
I187
sS'w+2=of'
p557
I413
sS'xcomp=understand'
p558
I720
sS'w-2=platform'
p559
I670
sS'nsubj=woman'
p560
I202
sS'w-2=talk'
p561
I692
sS'conj=member'
p562
I89
sS'w+2=right'
p563
I427
sS'dobj=veto'
p564
I150
sS'w+2=that'
p565
I434
sS'w+2=also'
p566
I341
sS'w-2=to'
p567
I701
sS'w+1=some'
p568
I305
sS'w-1=who'
p569
I550
sS'w+2=destroy'
p570
I371
sS'w-2=want'
p571
I706
sS'w-1=through'
p572
I541
sS'w+1=underscore'
p573
I318
sS'nn=mind'
p574
I169
sS'w-2=and'
p575
I579
sS'w-2=system'
p576
I690
sS'mark=so'
p577
I156
sS'w-1=of'
p578
I512
sS'w+1=reflect'
p579
I296
sS'w-2=more'
p580
I655
sS'w+1=class'
p581
I251
sS'w+2=useless'
p582
I441
sS'w+2=and'
p583
I346
sS'conj=maintain'
p584
I88
sS'w-1=political'
p585
I518
sS'partmod=aim'
p586
I208
sS'prep=near'
p587
I226
sS'w-2=try'
p588
I705
sS'w-2=1,662'
p589
I561
sS'w-2=anti-terrorism'
p590
I581
sS'w-2=one'
p591
I662
sS'w+1=this'
p592
I310
sS'cop=be'
p593
I105
sS'dep=for'
p594
I112
sS'w-2=he'
p595
I626
sS'nn=counterterrorism'
p596
I164
sS'w+1=more'
p597
I281
sS'w+1=with'
p598
I324
sS'w-1=evacuation'
p599
I484
sS'w+2=veto'
p600
I442
sS'advmod=fully'
p601
I10
sS'w-2=say'
p602
I684
sS'w-2=much'
p603
I656
sS'w+2=the'
p604
I435
sS'w+1=range'
p605
I294
sS'rcmod=do'
p606
I234
sS'advmod=peacefully'
p607
I14
sS'w-2=,'
p608
I558
sS'w-2=-'
p609
I559
sS'w-2=.'
p610
I560
sS'w-1=and'
p611
I460
sS'w+1=patience'
p612
I290
sS'w+1=what'
p613
I322
sS'aux=have'
p614
I72
sS'w-2=but'
p615
I591
sS'amod=annual'
p616
I27
sS'w-1=clean-up'
p617
I469
sS'w-2=;'
p618
I564
sS'w-1=.'
p619
I453
sS'w-1=,'
p620
I451
sS'w-1=front'
p621
I487
sS'w+2=Gulf'
p622
I333
sS'w+1=every'
p623
I257
sS'amod=detailed'
p624
I35
sS'amod=ambiguous'
p625
I26
sS'w+2=idea'
p626
I394
sS'w-2=as'
p627
I582
sS'amod=special'
p628
I59
sS'nsubj=side'
p629
I194
sS'prep=through'
p630
I230
sS'w+1=full'
p631
I261
sS'w-2=large-scale'
p632
I644
sS'w+2=you'
p633
I449
sS'aux=should'
p634
I73
sS'w-1=premier'
p635
I519
sS'dobj=rights'
p636
I147
sS'w+2=influence'
p637
I396
sS'amod=pen-to-paper'
p638
I50
sS'dobj=time'
p639
I149
sS'ccomp=promise'
p640
I80
sS'w-1=they'
p641
I538
sS'det=a'
p642
I118
sS'w-1=a'
p643
I456
sS'w-2=Israel'
p644
I567
sS'w+1=together'
p645
I316
sS'w-2=massive'
p646
I651
sS'w+1=leverage'
p647
I273
sS'partmod=design'
p648
I211
sS'mark=as'
p649
I154
sS'xcomp=provide'
p650
I718
sS'w-1=he'
p651
I493
sS'w+2=legal'
p652
I401
sS'w-2=include'
p653
I634
sS'nn=artillery'
p654
I158
sS'w-1=watchingthe'
p655
I548
sS'amod=civil'
p656
I29
sS'w+2=diabetes'
p657
I372
sS'w-2=major'
p658
I650
sS'amod=physical'
p659
I51
sS'advmod=regularly'
p660
I17
sS'w+1=center'
p661
I250
sS'dep=more'
p662
I113
sS'w-1=commencement'
p663
I472
sS'w-1=train'
p664
I543
sS'w-2=live-fire'
p665
I648
sS'nn=budget'
p666
I159
sS'w-1=normal'
p667
I510
sS'w-2=Caroly'
p668
I565
sS'w-2=during'
p669
I610
sS'dep=on'
p670
I114
sS'dobj=responsibility'
p671
I144
sS'w-2=rather'
p672
I678
sS'nsubj=seeker'
p673
I193
sS'dep=strengthen'
p674
I116
sS'appos=program'
p675
I68
sS'nn=evacuation'
p676
I166
sS'w-2=civil'
p677
I597
sS'w-2=lack'
p678
I643
sS'w+2=authority'
p679
I350
sS'prep=from'
p680
I222
sS'w-2=54-hour'
p681
I563
sS'w-2=help'
p682
I627
sS'advmod=rather'
p683
I16
sS'w+2=Platt'
p684
I335
sS'w-1=we'
p685
I549
sS'aux=to'
p686
I74
sS'prep=at'
p687
I218
sS'w+2=eat'
p688
I374
sS'w+2=:'
p689
I330
sS'w-2=can'
p690
I592
sS'w-1=budget'
p691
I465
sS'w-2=really'
p692
I679
sS'w+1=control'
p693
I252
sS'w+1=-'
p694
I238
sS'w+1=,'
p695
I237
sS'w+1=.'
p696
I239
sS'w-2=that'
p697
I694
sS'advmod=perhaps'
p698
I15
sS'w+2=.'
p699
I329
sS'w+2=,'
p700
I327
sS'w-2=importance'
p701
I632
sS'neg=not'
p702
I157
sS'w-1=cut'
p703
I477
sS'w-2=chief'
p704
I596
sS'w+1=tighter'
p705
I314
sS'w+1=routine'
p706
I299
sS'w-2=enjoy'
p707
I614
sS'w-1=joint'
p708
I497
sS'dobj=vigilance'
p709
I151
sS'w+2=brain'
p710
I355
sS'conj=monitor'
p711
I90
sS'amod=literary'
p712
I40
sS'w-1=daily'
p713
I478
sS'w-1=mind'
p714
I505
sS'dobj=control'
p715
I129
sS'w+1=a'
p716
I240
sS'w-1=just'
p717
I498
sS'w-1=not'
p718
I511
sS'conj=suspension'
p719
I100
sS'conj=painkiller'
p720
I91
sS'w+1=throughout'
p721
I313
sS'w-1=as'
p722
I463
sS'w-1=live-fire'
p723
I500
sS'w-1=that'
p724
I534
sS'aux=be'
p725
I69
sS'w+1=power'
p726
I291
sS'w+2=a'
p727
I339
sS'prep=involve'
p728
I224
ssS'dtype'
p729
cnumpy
float64
p730
sS'feature_names_'
p731
(lp732
g388
ag72
ag201
ag14
ag178
ag297
ag97
ag113
ag367
ag260
ag601
ag52
ag500
ag398
ag607
ag698
ag683
ag660
ag282
ag283
ag435
ag78
ag280
ag193
ag199
ag117
ag625
ag616
ag218
ag656
ag25
ag326
ag257
ag243
ag494
ag624
ag480
ag93
ag485
ag397
ag712
ag244
ag288
ag237
ag544
ag96
ag430
ag342
ag112
ag505
ag638
ag659
ag256
ag440
ag91
ag538
ag143
ag291
ag545
ag628
ag380
ag536
ag413
ag445
ag189
ag433
ag364
ag542
ag675
ag725
ag105
ag411
ag614
ag634
ag686
ag416
ag43
ag306
ag479
ag502
ag640
ag148
ag106
ag197
ag184
ag19
ag317
ag155
ag584
ag562
ag711
ag720
ag341
ag392
ag442
ag214
ag254
ag343
ag60
ag389
ag719
ag431
ag468
ag139
ag475
ag593
ag376
ag17
ag252
ag407
ag207
ag195
ag594
ag662
ag670
ag406
ag674
ag289
ag642
ag273
ag465
ag210
ag169
ag281
ag234
ag223
ag355
ag482
ag381
ag715
ag418
ag543
ag451
ag374
ag450
ag550
ag551
ag162
ag160
ag453
ag31
ag434
ag217
ag108
ag671
ag151
ag8
ag636
ag15
ag639
ag564
ag709
ag170
ag119
ag649
ag186
ag577
ag702
ag654
ag666
ag227
ag396
ag508
ag94
ag596
ag553
ag676
ag488
ag548
ag574
ag353
ag115
ag311
ag301
ag153
ag221
ag73
ag66
ag385
ag127
ag541
ag171
ag253
ag208
ag222
ag263
ag295
ag556
ag262
ag337
ag314
ag426
ag318
ag673
ag629
ag164
ag347
ag133
ag110
ag109
ag205
ag219
ag560
ag136
ag64
ag461
ag168
ag360
ag586
ag183
ag420
ag648
ag259
ag399
ag138
ag65
ag175
ag507
ag687
ag473
ag30
ag286
ag680
ag132
ag728
ag512
ag587
ag534
ag540
ag251
ag630
ag427
ag365
ag16
ag606
ag315
ag81
ag695
ag694
ag696
ag716
ag495
ag154
ag369
ag484
ag387
ag9
ag226
ag92
ag180
ag661
ag581
ag693
ag472
ag457
ag130
ag486
ag623
ag335
ag424
ag135
ag631
ag202
ag383
ag76
ag309
ag140
ag492
ag504
ag330
ag181
ag159
ag421
ag647
ag177
ag497
ag327
ag267
ag100
ag264
ag533
ag597
ag329
ag405
ag118
ag79
ag83
ag48
ag390
ag142
ag612
ag726
ag147
ag345
ag605
ag55
ag579
ag40
ag499
ag706
ag36
ag454
ag62
ag384
ag323
ag568
ag32
ag121
ag47
ag126
ag592
ag539
ag270
ag721
ag705
ag351
ag645
ag50
ag573
ag274
ag456
ag290
ag613
ag483
ag598
ag241
ag462
ag700
ag531
ag699
ag689
ag395
ag521
ag622
ag422
ag684
ag54
ag212
ag240
ag727
ag357
ag566
ag344
ag441
ag308
ag13
ag583
ag425
ag299
ag296
ag679
ag312
ag125
ag59
ag409
ag710
ag174
ag42
ag18
ag120
ag198
ag152
ag84
ag524
ag349
ag239
ag104
ag176
ag552
ag448
ag549
ag570
ag657
ag447
ag688
ag45
ag300
ag99
ag129
ag325
ag417
ag87
ag28
ag477
ag348
ag328
ag58
ag192
ag316
ag361
ag340
ag354
ag363
ag460
ag626
ag95
ag637
ag188
ag71
ag511
ag432
ag652
ag491
ag498
ag429
ag305
ag250
ag141
ag269
ag378
ag458
ag33
ag90
ag557
ag350
ag412
ag362
ag377
ag515
ag375
ag187
ag182
ag122
ag158
ag513
ag20
ag509
ag563
ag245
ag359
ag224
ag428
ag235
ag103
ag565
ag604
ag546
ag393
ag82
ag408
ag85
ag582
ag600
ag554
ag173
ag459
ag292
ag527
ag333
ag633
ag334
ag620
ag293
ag619
ag294
ag518
ag643
ag56
ag404
ag211
ag611
ag247
ag137
ag722
ag63
ag691
ag272
ag61
ag265
ag617
ag111
ag277
ag663
ag368
ag89
ag200
ag216
ag703
ag713
ag324
ag506
ag517
ag547
ag467
ag599
ag455
ag144
ag621
ag320
ag535
ag331
ag116
ag88
ag651
ag172
ag529
ag165
ag708
ag717
ag352
ag723
ag400
ag80
ag191
ag27
ag714
ag101
ag310
ag233
ag439
ag667
ag718
ag578
ag464
ag470
ag321
ag339
ag29
ag585
ag635
ag516
ag53
ag215
ag419
ag394
ag161
ag166
ag481
ag86
ag403
ag34
ag255
ag246
ag206
ag724
ag338
ag185
ag476
ag641
ag463
ag278
ag572
ag230
ag664
ag401
ag231
ag220
ag322
ag655
ag685
ag569
ag386
ag444
ag501
ag38
ag114
ag346
ag370
ag608
ag609
ag610
ag589
ag530
ag681
ag618
ag668
ag402
ag644
ag276
ag520
ag526
ag149
ag68
ag146
ag69
ag242
ag268
ag525
ag279
ag575
ag284
ag590
ag627
ag67
ag366
ag528
ag555
ag532
ag519
ag21
ag209
ag615
ag690
ag23
ag537
ag271
ag704
ag677
ag156
ag373
ag98
ag275
ag35
ag228
ag304
ag302
ag356
ag514
ag466
ag236
ag669
ag298
ag150
ag307
ag707
ag496
ag303
ag371
ag39
ag124
ag22
ag49
ag382
ag167
ag41
ag478
ag595
ag682
ag522
ag128
ag436
ag493
ag701
ag437
ag653
ag10
ag37
ag443
ag266
ag24
ag44
ag285
ag510
ag678
ag632
ag313
ag157
ag523
ag665
ag287
ag658
ag646
ag452
ag261
ag46
ag580
ag603
ag379
ag26
ag248
ag225
ag229
ag591
ag131
ag232
ag203
ag163
ag12
ag358
ag474
ag559
ag75
ag145
ag238
ag438
ag57
ag471
ag414
ag672
ag692
ag134
ag503
ag51
ag194
ag602
ag319
ag391
ag423
ag446
ag190
ag576
ag249
ag561
ag123
ag697
ag410
ag487
ag196
ag336
ag213
ag70
ag567
ag204
ag449
ag179
ag588
ag571
ag490
ag469
ag11
ag489
ag77
ag74
ag415
ag107
ag258
ag102
ag372
ag650
ag332
ag558
asS'separator'
p733
S'='
sS'sparse'
p734
I01
sb.