ccopy_reg
_reconstructor
p1
(csklearn.feature_extraction.dict_vectorizer
DictVectorizer
p2
c__builtin__
object
p3
NtRp4
(dp5
S'vocabulary_'
p6
(dp7
S'advmod=then'
p8
I9
sS'nsubj=value'
p9
I67
sS'w-1=up'
p10
I187
sS'nsubj=crew'
p11
I61
sS'nsubj=astronaut'
p12
I59
sS'w-1=be'
p13
I159
sS'xcomp=leave'
p14
I247
sS'advmod=where'
p15
I12
sS'w-1=nurse'
p16
I174
sS'w+2=precondition'
p17
I140
sS'nsubj=Brown'
p18
I52
sS'w-2=have'
p19
I215
sS'w+2=hiv'
p20
I131
sS'advmod=apparently'
p21
I3
sS'w-2=no'
p22
I222
sS'w+2=call'
p23
I124
sS'advmod=often'
p24
I6
sS'w+1=amendment'
p25
I89
sS'w+1=all'
p26
I88
sS'w-1=consider'
p27
I164
sS'w+2=replacement'
p28
I142
sS'w+1=because'
p29
I92
sS'dobj=transmitter'
p30
I45
sS'w-2=surgery'
p31
I234
sS'nsubj=legal'
p32
I63
sS'w+1=in'
p33
I98
sS'w-2=to'
p34
I240
sS'w+1=condition'
p35
I94
sS'nsubj=coral'
p36
I60
sS'prep=include'
p37
I78
sS'w+1=unrelated'
p38
I110
sS'rel=in'
p39
I81
sS'w-2=or'
p40
I225
sS'w-2=importance'
p41
I217
sS'w+2=this'
p42
I147
sS'w-2=then'
p43
I238
sS'w-2=of'
p44
I223
sS'w-1=brain'
p45
I161
sS'w+2=importance'
p46
I132
sS'w-2=they'
p47
I239
sS'w-1=to'
p48
I186
sS'advmod=particularly'
p49
I8
sS'w-1=judgment'
p50
I171
sS'w+2=and'
p51
I121
sS'w-2=democrat'
p52
I210
sS'w-2=and'
p53
I200
sS'dobj=rebar'
p54
I42
sS'w+2=domestic'
p55
I127
sS'w-2=crew'
p56
I209
sS'w+2=Somalia'
p57
I116
sS'dobj=#PRP#'
p58
I27
sS'w-2=condition'
p59
I207
sS'w+1=any'
p60
I90
sS'w-2=try'
p61
I241
sS'conj=infuse'
p62
I24
sS'dobj=amendment'
p63
I28
sS'w-2=which'
p64
I244
sS'w-2=value'
p65
I243
sS'aux=do'
p66
I15
sS'w-2=he'
p67
I216
sS'nsubjpass=feather'
p68
I71
sS'nsubj=Union'
p69
I57
sS'w+1=at'
p70
I91
sS'w+1=great'
p71
I97
sS'w+2=a'
p72
I118
sS'nsubj=Washington'
p73
I58
sS'w+1=these'
p74
I106
sS'w+2=new'
p75
I137
sS'nsubjpass=pancreas'
p76
I72
sS'w-2=do'
p77
I212
sS'w+1=language'
p78
I101
sS'w+2=the'
p79
I145
sS'prep=at'
p80
I76
sS'nsubj=U.S.'
p81
I56
sS'nsubj=Russia'
p82
I54
sS'nsubj=States'
p83
I55
sS'w-2=I'
p84
I195
sS'w-1=or'
p85
I177
sS'w-2=.'
p86
I190
sS'w-1=car'
p87
I162
sS'advmod=finally'
p88
I5
sS'nsubj=House'
p89
I53
sS'w-1=cost'
p90
I166
sS'w+1=themselves'
p91
I105
sS'w+2=timetable'
p92
I148
sS'aux=have'
p93
I16
sS'w-2=end'
p94
I213
sS'w-2=few'
p95
I214
sS'nsubjpass=that'
p96
I73
sS'w-1=,'
p97
I152
sS'w-2=the'
p98
I237
sS'w-2=able'
p99
I199
sS'w+2=bucket'
p100
I123
sS'w-1=criticism'
p101
I167
sS'dobj=language'
p102
I36
sS'w+2=abroad'
p103
I119
sS'dobj=timetable'
p104
I44
sS'w+2=political'
p105
I139
sS'nsubj=surgery'
p106
I65
sS'w+2=blood'
p107
I122
sS'advmod=whatsoever'
p108
I11
sS'dobj=bucket'
p109
I29
sS'w-1=security'
p110
I179
sS'aux=can'
p111
I14
sS'w-2=other'
p112
I226
sS'w-2=cabin'
p113
I204
sS'mark=because'
p114
I46
sS'w-1=States'
p115
I154
sS'w-2=scary'
p116
I230
sS'w-1=Washington'
p117
I157
sS'mark=unless'
p118
I48
sS'w-2=major'
p119
I220
sS'w-1=then'
p120
I184
sS'w+2=to'
p121
I149
sS'nsubj=nurse'
p122
I64
sS'w-1=stigma'
p123
I180
sS'w-2=a'
p124
I198
sS'w-1=they'
p125
I185
sS'dep=station'
p126
I26
sS'w-2=restriction'
p127
I228
sS'w+2=gun'
p128
I128
sS'w-1=string'
p129
I182
sS'w-2=Brown'
p130
I192
sS'dobj=spending'
p131
I43
sS'w-2=stigma'
p132
I232
sS'nsubj=democrat'
p133
I62
sS'w-1=cord'
p134
I165
sS'dobj=laboratory'
p135
I35
sS'w-2=spacewalk'
p136
I231
sS'dobj=gene'
p137
I32
sS'w+2=legislation'
p138
I134
sS"w+2=''"
p139
I112
sS'w-2=device'
p140
I211
sS'w-2=House'
p141
I194
sS'w-1=he'
p142
I170
sS'w+2=it'
p143
I133
sS'parataxis=say'
p144
I74
sS'w-2=cell'
p145
I206
sS'w-2=oppose'
p146
I224
sS'w-1=once'
p147
I176
sS'partmod=take'
p148
I75
sS'w-1=-rrb-'
p149
I153
sS'w-2=be'
p150
I201
sS'w-1=condition'
p151
I163
sS'advmod=once'
p152
I7
sS'auxpass=be'
p153
I18
sS'advcl=common'
p154
I1
sS'w+2=seek'
p155
I143
sS'w-2=mark'
p156
I221
sS'w-1=particularly'
p157
I178
sS'w+2=they'
p158
I146
sS'nsubjpass=condition'
p159
I69
sS'w-2=United'
p160
I197
sS'w-1=from'
p161
I168
sS'cc=and'
p162
I19
sS'w+2=59'
p163
I115
sS'dobj=gyroscope'
p164
I33
sS'w+2=hinge'
p165
I130
sS'w-2=that'
p166
I236
sS'w+1=externally'
p167
I96
sS'w+1=by'
p168
I93
sS'w-1=legal'
p169
I172
sS'w+2=South'
p170
I117
sS'w+1=they'
p171
I107
sS'w+2=,'
p172
I113
sS'nsubj=#NUMBER#'
p173
I50
sS'w+2=remain'
p174
I141
sS'nsubjpass=device'
p175
I70
sS'w-2=strong'
p176
I233
sS'acomp=wide'
p177
I0
sS'nsubjpass=#PRP#'
p178
I68
sS'dep=call'
p179
I25
sS'w-2=without'
p180
I246
sS'prep=in'
p181
I77
sS'ccomp=Director'
p182
I20
sS'w-1=Union'
p183
I156
sS'tmod=year'
p184
I82
sS'w-2=Congress'
p185
I193
sS'dobj=legislation'
p186
I37
sS'w+2=condition'
p187
I125
sS'w-2=African'
p188
I191
sS'nsubj=#PRP#'
p189
I51
sS'w-2=wing'
p190
I245
sS'w+2=liver'
p191
I135
sS'w+2=sexual'
p192
I144
sS"w+1=''"
p193
I83
sS'w+2=transmitter'
p194
I151
sS'prep=to'
p195
I80
sS'w-1=we'
p196
I188
sS'aux=to'
p197
I17
sS'w+2=together'
p198
I150
sS'w+2=amendment'
p199
I120
sS'w-1=story'
p200
I181
sS'w-2=because'
p201
I202
sS'dobj=condition'
p202
I30
sS'w-2=kidney'
p203
I219
sS'w-2=can'
p204
I205
sS'dobj=part'
p205
I40
sS'w+1=itself'
p206
I100
sS'w-2=passenger'
p207
I227
sS"w-2=''"
p208
I189
sS'w+1=electrode'
p209
I95
sS'w+1=,'
p210
I84
sS'w+1=.'
p211
I85
sS'w-2=umbilical'
p212
I242
sS'w+2=deal'
p213
I126
sS'w+2=.'
p214
I114
sS'dobj=liver'
p215
I38
sS'w-1=often'
p216
I175
sS'w+2=on'
p217
I138
sS'w+1=to'
p218
I108
sS'w+1=:'
p219
I86
sS'w+1=the'
p220
I104
sS'neg=not'
p221
I49
sS'w+2=$'
p222
I111
sS'w-1=U.S.'
p223
I155
sS'nsubj=that'
p224
I66
sS'w+1=station'
p225
I103
sS'w-1=bomber'
p226
I160
sS'w+1=iraq-related'
p227
I99
sS'w+2=he'
p228
I129
sS'advmod=externally'
p229
I4
sS'w+2=modify'
p230
I136
sS'conj=have'
p231
I23
sS'advcl=part'
p232
I2
sS'w-2=coral'
p233
I208
sS'conj=grow'
p234
I22
sS'w-2=big'
p235
I203
sS'ccomp=spray'
p236
I21
sS'w-2=it'
p237
I218
sS'w+1=tough'
p238
I109
sS'w-2=terrible'
p239
I235
sS'dobj=electrode'
p240
I31
sS'w+1=a'
p241
I87
sS'w-1=not'
p242
I173
sS'advmod=together'
p243
I10
sS'w-2=Station'
p244
I196
sS'w-2=right'
p245
I229
sS'w-1=have'
p246
I169
sS'w-1=apparently'
p247
I158
sS'prep=on'
p248
I79
sS'dobj=module'
p249
I39
sS'w-1=that'
p250
I183
sS'aux=be'
p251
I13
sS'dobj=precondition'
p252
I41
sS'mark=if'
p253
I47
sS'w+1=rebar'
p254
I102
sS'dobj=importance'
p255
I34
ssS'dtype'
p256
cnumpy
float64
p257
sS'feature_names_'
p258
(lp259
g177
ag154
ag232
ag21
ag229
ag88
ag24
ag152
ag49
ag8
ag243
ag108
ag15
ag251
ag111
ag66
ag93
ag197
ag153
ag162
ag182
ag236
ag234
ag231
ag62
ag179
ag126
ag58
ag63
ag109
ag202
ag240
ag137
ag164
ag255
ag135
ag102
ag186
ag215
ag249
ag205
ag252
ag54
ag131
ag104
ag30
ag114
ag253
ag118
ag221
ag173
ag189
ag18
ag89
ag82
ag83
ag81
ag69
ag73
ag12
ag36
ag11
ag133
ag32
ag122
ag106
ag224
ag9
ag178
ag159
ag175
ag68
ag76
ag96
ag144
ag148
ag80
ag181
ag37
ag248
ag195
ag39
ag184
ag193
ag210
ag211
ag219
ag241
ag26
ag25
ag60
ag70
ag29
ag168
ag35
ag209
ag167
ag71
ag33
ag227
ag206
ag78
ag254
ag225
ag220
ag91
ag74
ag171
ag218
ag238
ag38
ag222
ag139
ag172
ag214
ag163
ag57
ag170
ag72
ag103
ag199
ag51
ag107
ag100
ag23
ag187
ag213
ag55
ag128
ag228
ag165
ag20
ag46
ag143
ag138
ag191
ag230
ag75
ag217
ag105
ag17
ag174
ag28
ag155
ag192
ag79
ag158
ag42
ag92
ag121
ag198
ag194
ag97
ag149
ag115
ag223
ag183
ag117
ag247
ag13
ag226
ag45
ag87
ag151
ag27
ag134
ag90
ag101
ag161
ag246
ag142
ag50
ag169
ag242
ag16
ag216
ag147
ag85
ag157
ag110
ag123
ag200
ag129
ag250
ag120
ag125
ag48
ag10
ag196
ag208
ag86
ag188
ag130
ag185
ag141
ag84
ag244
ag160
ag124
ag99
ag53
ag150
ag201
ag235
ag113
ag204
ag145
ag59
ag233
ag56
ag52
ag140
ag77
ag94
ag95
ag19
ag67
ag41
ag237
ag203
ag119
ag156
ag22
ag44
ag146
ag40
ag112
ag207
ag127
ag245
ag116
ag136
ag132
ag176
ag31
ag239
ag166
ag98
ag43
ag47
ag34
ag61
ag212
ag65
ag64
ag190
ag180
ag14
asS'separator'
p260
S'='
sS'sparse'
p261
I01
sb.