ccopy_reg
_reconstructor
p1
(csklearn.feature_extraction.dict_vectorizer
DictVectorizer
p2
c__builtin__
object
p3
NtRp4
(dp5
S'sort'
p6
I01
sS'feature_names_'
p7
(lp8
S'acomp=greater'
p9
aS'advcl=active'
p10
aS'advcl=be'
p11
aS'advcl=effective'
p12
aS'advcl=expert'
p13
aS'advcl=help'
p14
aS'advcl=leave'
p15
aS'advcl=possible'
p16
aS'advcl=successful'
p17
aS'advmod=alone'
p18
aS'advmod=already'
p19
aS'advmod=also'
p20
aS'advmod=definitely'
p21
aS'advmod=ever'
p22
aS'advmod=further'
p23
aS'advmod=instead'
p24
aS'advmod=just'
p25
aS'advmod=now'
p26
aS'advmod=often'
p27
aS'advmod=only'
p28
aS'advmod=secondly'
p29
aS'advmod=so'
p30
aS'advmod=strongly'
p31
aS'advmod=why'
p32
aS'aux=be'
p33
aS'aux=can'
p34
aS'aux=do'
p35
aS'aux=have'
p36
aS'aux=may'
p37
aS'aux=might'
p38
aS'aux=to'
p39
aS'aux=will'
p40
aS'aux=would'
p41
aS'auxpass=be'
p42
aS'cc=and'
p43
aS'cc=but'
p44
aS'ccomp=accept'
p45
aS'ccomp=add'
p46
aS'ccomp=adjust'
p47
aS'ccomp=announce'
p48
aS'ccomp=ask'
p49
aS'ccomp=breastfeed'
p50
aS'ccomp=change'
p51
aS'ccomp=contain'
p52
aS'ccomp=continue'
p53
aS'ccomp=engage'
p54
aS'ccomp=face'
p55
aS'ccomp=feed'
p56
aS'ccomp=follow'
p57
aS'ccomp=forget'
p58
aS'ccomp=function'
p59
aS'ccomp=get'
p60
aS'ccomp=have'
p61
aS'ccomp=hold'
p62
aS'ccomp=impose'
p63
aS'ccomp=initiate'
p64
aS'ccomp=meet'
p65
aS'ccomp=move'
p66
aS'ccomp=negotiate'
p67
aS'ccomp=outlaw'
p68
aS'ccomp=pause'
p69
aS'ccomp=prescribe'
p70
aS'ccomp=prevent'
p71
aS'ccomp=refrain'
p72
aS'ccomp=remain'
p73
aS'ccomp=renew'
p74
aS'ccomp=resign'
p75
aS'ccomp=say'
p76
aS'ccomp=stay'
p77
aS'ccomp=step'
p78
aS'ccomp=support'
p79
aS'ccomp=treat'
p80
aS'ccomp=try'
p81
aS'ccomp=use'
p82
aS'ccomp=veto'
p83
aS'ccomp=weigh'
p84
aS'ccomp=work'
p85
aS'complm=that'
p86
aS'complm=whether'
p87
aS'conj=acknowledge'
p88
aS'conj=agree'
p89
aS'conj=announce'
p90
aS'conj=appear'
p91
aS'conj=bring'
p92
aS'conj=call'
p93
aS'conj=hold'
p94
aS'conj=name'
p95
aS'conj=offer'
p96
aS'conj=recommend'
p97
aS'conj=refocus'
p98
aS'conj=say'
p99
aS'conj=seek'
p100
aS'conj=sharpen'
p101
aS'conj=support'
p102
aS'dep=before'
p103
aS'dep=compromise'
p104
aS'dep=condition'
p105
aS'dep=give'
p106
aS'dep=intensify'
p107
aS'dep=maintain'
p108
aS'dep=so'
p109
aS'dep=that'
p110
aS'dep=who'
p111
aS'dobj=#PRP#'
p112
aS'dobj=Corps'
p113
aS'dobj=Fallon'
p114
aS'dobj=abortion'
p115
aS'dobj=action'
p116
aS'dobj=administration'
p117
aS'dobj=amnesty'
p118
aS'dobj=amount'
p119
aS'dobj=analysis'
p120
aS'dobj=argument'
p121
aS'dobj=ban'
p122
aS'dobj=change'
p123
aS'dobj=citation'
p124
aS'dobj=commission'
p125
aS'dobj=coordination'
p126
aS'dobj=creation'
p127
aS'dobj=cut'
p128
aS'dobj=dialogue'
p129
aS'dobj=diet'
p130
aS'dobj=drawdown'
p131
aS'dobj=drug'
p132
aS'dobj=emphasis'
p133
aS'dobj=end'
p134
aS'dobj=engagement'
p135
aS'dobj=establishment'
p136
aS'dobj=firing'
p137
aS'dobj=force'
p138
aS'dobj=increase'
p139
aS'dobj=independence'
p140
aS'dobj=indictment'
p141
aS'dobj=initiative'
p142
aS'dobj=investigation'
p143
aS'dobj=labeling'
p144
aS'dobj=legislation'
p145
aS'dobj=measure'
p146
aS'dobj=month'
p147
aS'dobj=move'
p148
aS'dobj=period'
p149
aS'dobj=presence'
p150
aS'dobj=reduction'
p151
aS'dobj=reform'
p152
aS'dobj=relocation'
p153
aS'dobj=remedy'
p154
aS'dobj=strategy'
p155
aS'dobj=strengthening'
p156
aS'dobj=surveillance'
p157
aS'dobj=talk'
p158
aS'dobj=test'
p159
aS'dobj=testing'
p160
aS'dobj=use'
p161
aS'dobj=vaccination'
p162
aS'dobj=what'
p163
aS'dobj=withdrawal'
p164
aS'iobj=vaccine'
p165
aS'mark=after'
p166
aS'mark=as'
p167
aS'mark=because'
p168
aS'neg=not'
p169
aS'nsubj=#NUMBER#'
p170
aS'nsubj=#PRP#'
p171
aS'nsubj=Ban'
p172
aS'nsubj=Commission'
p173
aS'nsubj=Corps'
p174
aS'nsubj=Department'
p175
aS'nsubj=EU'
p176
aS'nsubj=Fauci'
p177
aS'nsubj=France'
p178
aS'nsubj=Group'
p179
aS'nsubj=Ki-moon'
p180
aS'nsubj=Mohammed'
p181
aS'nsubj=Petraeus'
p182
aS'nsubj=Service'
p183
aS'nsubj=Weitzel'
p184
aS'nsubj=agency'
p185
aS'nsubj=army'
p186
aS'nsubj=author'
p187
aS'nsubj=authority'
p188
aS'nsubj=board'
p189
aS'nsubj=cardinal'
p190
aS'nsubj=club'
p191
aS'nsubj=commander'
p192
aS'nsubj=commission'
p193
aS'nsubj=committee'
p194
aS'nsubj=dermatologist'
p195
aS'nsubj=doctor'
p196
aS'nsubj=education'
p197
aS'nsubj=everybody'
p198
aS'nsubj=expert'
p199
aS'nsubj=festival'
p200
aS'nsubj=force'
p201
aS'nsubj=group'
p202
aS'nsubj=guideline'
p203
aS'nsubj=immediate'
p204
aS'nsubj=inspector'
p205
aS'nsubj=mediator'
p206
aS'nsubj=military'
p207
aS'nsubj=ministry'
p208
aS'nsubj=official'
p209
aS'nsubj=organization'
p210
aS'nsubj=other'
p211
aS'nsubj=panel'
p212
aS'nsubj=participant'
p213
aS'nsubj=proposal'
p214
aS'nsubj=report'
p215
aS'nsubj=secretary-general'
p216
aS'nsubj=selling'
p217
aS'nsubj=study'
p218
aS'nsubj=team'
p219
aS'nsubj=that'
p220
aS'nsubj=warning'
p221
aS'nsubj=which'
p222
aS'nsubjpass=#PRP#'
p223
aS'nsubjpass=Gardisil'
p224
aS'nsubjpass=drug'
p225
aS'nsubjpass=estrogen'
p226
aS'nsubjpass=policy'
p227
aS'nsubjpass=purification'
p228
aS'partmod=cite'
p229
aS'partmod=say'
p230
aS'prep=and'
p231
aS'prep=as'
p232
aS'prep=base'
p233
aS'prep=by'
p234
aS'prep=follow'
p235
aS'prep=for'
p236
aS'prep=from'
p237
aS'prep=in'
p238
aS'prep=include'
p239
aS'prep=on'
p240
aS'prep=over'
p241
aS'prep=that'
p242
aS'prep=to'
p243
aS'prep=with'
p244
aS'purpcl=guard'
p245
aS'purpcl=stem'
p246
aS'tmod=week'
p247
aS'w+1=,'
p248
aS'w+1=.'
p249
aS'w+1=a'
p250
aS'w+1=abortion'
p251
aS'w+1=admiral'
p252
aS'w+1=agricultural'
p253
aS'w+1=allow'
p254
aS'w+1=american'
p255
aS'w+1=amnesty'
p256
aS'w+1=baby'
p257
aS'w+1=ban'
p258
aS'w+1=better'
p259
aS'w+1=build'
p260
aS'w+1=by'
p261
aS'w+1=change'
p262
aS'w+1=close'
p263
aS'w+1=continue'
p264
aS'w+1=creation'
p265
aS'w+1=cut'
p266
aS'w+1=delay'
p267
aS'w+1=dialogue'
p268
aS'w+1=direct'
p269
aS'w+1=disband'
p270
aS'w+1=dose'
p271
aS'w+1=double'
p272
aS'w+1=establish'
p273
aS'w+1=establishment'
p274
aS'w+1=five'
p275
aS'w+1=focus'
p276
aS'w+1=for'
p277
aS'w+1=further'
p278
aS'w+1=genetic'
p279
aS'w+1=get'
p280
aS'w+1=greater'
p281
aS'w+1=in'
p282
aS'w+1=independence'
p283
aS'w+1=intensify'
p284
aS'w+1=it'
p285
aS'w+1=legislation'
p286
aS'w+1=limit'
p287
aS'w+1=low'
p288
aS'w+1=maintain'
p289
aS'w+1=make'
p290
aS'w+1=minimal'
p291
aS'w+1=much'
p292
aS'w+1=new'
p293
aS'w+1=offer'
p294
aS'w+1=people'
p295
aS'w+1=possible'
p296
aS'w+1=put'
p297
aS'w+1=reach'
p298
aS'w+1=reform'
p299
aS'w+1=remedy'
p300
aS'w+1=remove'
p301
aS'w+1=replace'
p302
aS'w+1=root'
p303
aS'w+1=scrap'
p304
aS'w+1=screening'
p305
aS'w+1=send'
p306
aS'w+1=set'
p307
aS'w+1=several'
p308
aS'w+1=shift'
p309
aS'w+1=shut'
p310
aS'w+1=special'
p311
aS'w+1=speed'
p312
aS'w+1=strengthening'
p313
aS'w+1=supplement'
p314
aS'w+1=suspend'
p315
aS'w+1=that'
p316
aS'w+1=the'
p317
aS'w+1=they'
p318
aS'w+1=this'
p319
aS'w+1=time'
p320
aS'w+1=to'
p321
aS'w+1=two'
p322
aS'w+1=vaccine'
p323
aS'w+1=vote'
p324
aS'w+1=we'
p325
aS'w+1=widespread'
p326
aS"w+2=''"
p327
aS'w+2=,'
p328
aS'w+2=.'
p329
aS'w+2=45-day'
p330
aS'w+2=Fallon'
p331
aS'w+2=General'
p332
aS'w+2=Iran'
p333
aS'w+2=Kenya'
p334
aS'w+2=Marine'
p335
aS'w+2=President'
p336
aS'w+2=U.S.'
p337
aS'w+2=UN'
p338
aS'w+2=a'
p339
aS'w+2=action'
p340
aS'w+2=additional'
p341
aS'w+2=african'
p342
aS'w+2=all'
p343
aS'w+2=amount'
p344
aS'w+2=analysis'
p345
aS'w+2=and'
p346
aS'w+2=anyone'
p347
aS'w+2=as'
p348
aS'w+2=attorney'
p349
aS'w+2=ban'
p350
aS'w+2=be'
p351
aS'w+2=before'
p352
aS'w+2=clearance'
p353
aS'w+2=contempt'
p354
aS'w+2=control'
p355
aS'w+2=coordination'
p356
aS'w+2=country'
p357
aS'w+2=diet'
p358
aS'w+2=disciplinary'
p359
aS'w+2=doctor'
p360
aS'w+2=down'
p361
aS'w+2=drawdown'
p362
aS'w+2=drug'
p363
aS'w+2=effort'
p364
aS'w+2=emphasis'
p365
aS'w+2=end'
p366
aS'w+2=ex-cium'
p367
aS'w+2=exposure'
p368
aS'w+2=food'
p369
aS'w+2=for'
p370
aS'w+2=force'
p371
aS'w+2=funding'
p372
aS'w+2=genetic'
p373
aS'w+2=girl'
p374
aS'w+2=gradual'
p375
aS'w+2=greater'
p376
aS'w+2=he'
p377
aS'w+2=heart'
p378
aS'w+2=hiv'
p379
aS'w+2=human'
p380
aS'w+2=immediate'
p381
aS'w+2=indictment'
p382
aS'w+2=initiative'
p383
aS'w+2=international'
p384
aS'w+2=investigation'
p385
aS'w+2=it'
p386
aS'w+2=its'
p387
aS'w+2=labeling'
p388
aS'w+2=mother'
p389
aS'w+2=move'
p390
aS'w+2=my'
p391
aS'w+2=new'
p392
aS'w+2=not'
p393
aS'w+2=of'
p394
aS'w+2=off'
p395
aS'w+2=official'
p396
aS'w+2=older'
p397
aS'w+2=on'
p398
aS'w+2=out'
p399
aS'w+2=peacekeeper'
p400
aS'w+2=policy'
p401
aS'w+2=prevent'
p402
aS'w+2=protection'
p403
aS'w+2=province'
p404
aS'w+2=radical'
p405
aS'w+2=reconstruction'
p406
aS'w+2=reduction'
p407
aS'w+2=relocation'
p408
aS'w+2=school'
p409
aS'w+2=sect'
p410
aS'w+2=several'
p411
aS'w+2=severe'
p412
aS'w+2=she'
p413
aS'w+2=should'
p414
aS'w+2=snack'
p415
aS'w+2=soda'
p416
aS'w+2=some'
p417
aS'w+2=specific'
p418
aS'w+2=talk'
p419
aS'w+2=temporary'
p420
aS'w+2=testing'
p421
aS'w+2=the'
p422
aS'w+2=this'
p423
aS'w+2=those'
p424
aS'w+2=to'
p425
aS'w+2=troop'
p426
aS'w+2=up'
p427
aS'w+2=use'
p428
aS'w+2=vaccination'
p429
aS'w+2=we'
p430
aS'w+2=who'
p431
aS'w+2=with'
p432
aS'w+2=withdrawal'
p433
aS'w+2=year'
p434
aS'w+2=you'
p435
aS'w-1=,'
p436
aS'w-1=64'
p437
aS'w-1=Arbour'
p438
aS'w-1=Ban'
p439
aS'w-1=Commission'
p440
aS'w-1=December'
p441
aS'w-1=Department'
p442
aS'w-1=EU'
p443
aS'w-1=General'
p444
aS'w-1=I'
p445
aS'w-1=Ki-moon'
p446
aS'w-1=Studies'
p447
aS'w-1=Thursday'
p448
aS'w-1=Weitzel'
p449
aS'w-1=a'
p450
aS'w-1=adopt'
p451
aS'w-1=agency'
p452
aS'w-1=already'
p453
aS'w-1=also'
p454
aS'w-1=and'
p455
aS'w-1=any'
p456
aS'w-1=army'
p457
aS'w-1=as'
p458
aS'w-1=author'
p459
aS'w-1=be'
p460
aS'w-1=board'
p461
aS'w-1=but'
p462
aS'w-1=can'
p463
aS'w-1=club'
p464
aS'w-1=committee'
p465
aS'w-1=definitely'
p466
aS'w-1=dermatologist'
p467
aS'w-1=doctor'
p468
aS'w-1=education'
p469
aS'w-1=ever'
p470
aS'w-1=everybody'
p471
aS'w-1=expert'
p472
aS'w-1=festival'
p473
aS'w-1=for'
p474
aS'w-1=force'
p475
aS'w-1=further'
p476
aS'w-1=ground'
p477
aS'w-1=group'
p478
aS'w-1=guideline'
p479
aS'w-1=have'
p480
aS'w-1=he'
p481
aS'w-1=inspector'
p482
aS'w-1=it'
p483
aS'w-1=job'
p484
aS'w-1=may'
p485
aS'w-1=might'
p486
aS'w-1=not'
p487
aS'w-1=now'
p488
aS'w-1=official'
p489
aS'w-1=often'
p490
aS'w-1=only'
p491
aS'w-1=or'
p492
aS'w-1=other'
p493
aS'w-1=panel'
p494
aS'w-1=report'
p495
aS'w-1=resolution'
p496
aS'w-1=she'
p497
aS'w-1=something'
p498
aS'w-1=strongly'
p499
aS'w-1=study'
p500
aS'w-1=team'
p501
aS'w-1=than'
p502
aS'w-1=that'
p503
aS'w-1=the'
p504
aS'w-1=they'
p505
aS'w-1=to'
p506
aS'w-1=treatment'
p507
aS'w-1=warning'
p508
aS'w-1=we'
p509
aS'w-1=will'
p510
aS'w-1=would'
p511
aS"w-2=''"
p512
aS"w-2='s"
p513
aS'w-2=,'
p514
aS'w-2=.'
p515
aS'w-2=1'
p516
aS'w-2=11'
p517
aS'w-2=9\\/11'
p518
aS'w-2=Afghanistan'
p519
aS'w-2=April'
p520
aS'w-2=Baghdad'
p521
aS'w-2=Ban'
p522
aS'w-2=Council'
p523
aS'w-2=Dr.'
p524
aS'w-2=Engineers'
p525
aS'w-2=Gardisil'
p526
aS'w-2=General'
p527
aS'w-2=Group'
p528
aS'w-2=I'
p529
aS'w-2=Inspector'
p530
aS'w-2=Ki-moon'
p531
aS'w-2=Kosovo'
p532
aS'w-2=Louis'
p533
aS'w-2=Petraeus'
p534
aS'w-2=State'
p535
aS'w-2=Strategic'
p536
aS'w-2=U.N.'
p537
aS'w-2=U.S.'
p538
aS'w-2=allow'
p539
aS'w-2=and'
p540
aS'w-2=authority'
p541
aS'w-2=be'
p542
aS'w-2=bigger'
p543
aS'w-2=but'
p544
aS'w-2=can'
p545
aS'w-2=combination'
p546
aS'w-2=commander'
p547
aS'w-2=commission'
p548
aS'w-2=country'
p549
aS'w-2=deny'
p550
aS'w-2=disposal'
p551
aS'w-2=do'
p552
aS'w-2=doctor'
p553
aS'w-2=drug'
p554
aS'w-2=evidence'
p555
aS'w-2=expect'
p556
aS'w-2=film'
p557
aS'w-2=football'
p558
aS'w-2=force'
p559
aS'w-2=further'
p560
aS'w-2=governor'
p561
aS'w-2=have'
p562
aS'w-2=he'
p563
aS'w-2=health'
p564
aS'w-2=higher'
p565
aS'w-2=however'
p566
aS'w-2=in'
p567
aS'w-2=incline'
p568
aS'w-2=inclusive'
p569
aS'w-2=investigation'
p570
aS'w-2=it'
p571
aS'w-2=likely'
p572
aS'w-2=line'
p573
aS'w-2=many'
p574
aS'w-2=mediator'
p575
aS'w-2=medical'
p576
aS'w-2=militant'
p577
aS'w-2=military'
p578
aS'w-2=ministry'
p579
aS'w-2=not'
p580
aS'w-2=panel'
p581
aS'w-2=participant'
p582
aS'w-2=place'
p583
aS'w-2=policy'
p584
aS'w-2=provider'
p585
aS'w-2=report'
p586
aS'w-2=responsible'
p587
aS'w-2=say'
p588
aS'w-2=secretary-general'
p589
aS'w-2=security'
p590
aS'w-2=step'
p591
aS'w-2=study'
p592
aS'w-2=the'
p593
aS'w-2=they'
p594
aS'w-2=to'
p595
aS'w-2=travel'
p596
aS'w-2=trip'
p597
aS'w-2=use'
p598
aS'w-2=victim'
p599
aS'w-2=war'
p600
aS'w-2=we'
p601
aS'w-2=who'
p602
aS'w-2=with'
p603
aS'w-2=would'
p604
aS'xcomp=adopt'
p605
aS'xcomp=allow'
p606
aS'xcomp=ban'
p607
aS'xcomp=build'
p608
aS'xcomp=close'
p609
aS'xcomp=cut'
p610
aS'xcomp=delay'
p611
aS'xcomp=determine'
p612
aS'xcomp=disband'
p613
aS'xcomp=end'
p614
aS'xcomp=ensure'
p615
aS'xcomp=establish'
p616
aS'xcomp=examine'
p617
aS'xcomp=focus'
p618
aS'xcomp=follow'
p619
aS'xcomp=get'
p620
aS'xcomp=limit'
p621
aS'xcomp=maintain'
p622
aS'xcomp=make'
p623
aS'xcomp=monitor'
p624
aS'xcomp=offer'
p625
aS'xcomp=prevent'
p626
aS'xcomp=put'
p627
aS'xcomp=reach'
p628
aS'xcomp=replace'
p629
aS'xcomp=root'
p630
aS'xcomp=scrap'
p631
aS'xcomp=send'
p632
aS'xcomp=set'
p633
aS'xcomp=shut'
p634
aS'xcomp=speed'
p635
aS'xcomp=stay'
p636
aS'xcomp=strengthen'
p637
aS'xcomp=supplement'
p638
aS'xcomp=suspend'
p639
aS'xcomp=vote'
p640
asS'dtype'
p641
cnumpy
float64
p642
sS'vocabulary_'
p643
(dp644
g531
I522
sg302
I293
sg178
I169
sg518
I509
sg172
I163
sg462
I453
sg443
I434
sg601
I592
sg141
I132
sg570
I561
sg391
I382
sg216
I207
sg383
I374
sg507
I498
sg116
I107
sg256
I247
sg384
I375
sg333
I324
sg242
I233
sg428
I419
sg140
I131
sg226
I217
sg594
I585
sg584
I575
sg234
I225
sg126
I117
sg196
I187
sg316
I307
sg410
I401
sg93
I84
sg500
I491
sg433
I424
sg516
I507
sg99
I90
sg577
I568
sg511
I502
sg313
I304
sg227
I218
sg139
I130
sg496
I487
sg501
I492
sg429
I420
sg235
I226
sg212
I203
sg30
I21
sg498
I489
sg218
I209
sg547
I538
sg25
I16
sg411
I402
sg56
I47
sg412
I403
sg510
I501
sg148
I139
sg74
I65
sg37
I28
sg459
I450
sg294
I285
sg460
I451
sg264
I255
sg593
I584
sg523
I514
sg105
I96
sg15
I6
sg597
I588
sg587
I578
sg158
I149
sg359
I350
sg98
I89
sg168
I159
sg38
I29
sg602
I593
sg65
I56
sg425
I416
sg574
I565
sg372
I363
sg409
I400
sg579
I570
sg536
I527
sg472
I463
sg546
I537
sg480
I471
sg76
I67
sg633
I624
sg64
I55
sg347
I338
sg331
I322
sg386
I377
sg190
I181
sg90
I81
sg299
I290
sg431
I422
sg621
I612
sg61
I52
sg31
I22
sg454
I445
sg34
I25
sg86
I77
sg295
I286
sg473
I464
sg527
I518
sg156
I147
sg147
I138
sg288
I279
sg275
I266
sg617
I608
sg336
I327
sg608
I599
sg491
I482
sg586
I577
sg317
I308
sg154
I145
sg619
I610
sg210
I201
sg28
I19
sg351
I342
sg318
I309
sg121
I112
sg219
I210
sg232
I223
sg453
I444
sg223
I214
sg287
I278
sg306
I297
sg238
I229
sg159
I150
sg41
I32
sg277
I268
sg161
I152
sg184
I175
sg84
I75
sg634
I625
sg537
I528
sg440
I431
sg243
I234
sg592
I583
sg616
I607
sg408
I399
sg482
I473
sg272
I263
sg260
I251
sg289
I280
sg197
I188
sg164
I155
sg53
I44
sg370
I361
sg55
I46
sg181
I172
sg220
I211
sg314
I305
sg305
I296
sg23
I14
sg561
I552
sg110
I101
sg378
I369
sg162
I153
sg195
I186
sg344
I335
sg430
I421
sg202
I193
sg50
I41
sg85
I76
sg535
I526
sg504
I495
sg59
I50
sg396
I387
sg526
I517
sg286
I277
sg414
I405
sg342
I333
sg179
I170
sg375
I366
sg393
I384
sg11
I2
sg214
I205
sg146
I137
sg525
I516
sg62
I53
sg558
I549
sg104
I95
sg517
I508
sg66
I57
sg598
I589
sg239
I230
sg606
I597
sg532
I523
sg297
I288
sg71
I62
sg204
I195
sg549
I540
sg506
I497
sg24
I15
sg303
I294
sg225
I216
sg112
I103
sg552
I543
sg188
I179
sg367
I358
sg150
I141
sg215
I206
sg106
I97
sg96
I87
sg627
I618
sg128
I119
sg310
I301
sg483
I474
sg360
I351
sg14
I5
sg364
I355
sg406
I397
sg340
I331
sg68
I59
sg100
I91
sg363
I354
sg628
I619
sg371
I362
sg343
I334
sg468
I459
sg607
I598
sg464
I455
sg174
I165
sg578
I569
sg463
I454
sg217
I208
sg290
I281
sg636
I627
sg127
I118
sg420
I411
sg551
I542
sg258
I249
sg315
I306
sg618
I609
sg69
I60
sg322
I313
sg564
I555
sg368
I359
sg585
I576
sg236
I227
sg447
I438
sg18
I9
sg325
I316
sg201
I192
sg165
I156
sg605
I596
sg419
I410
sg475
I466
sg348
I339
sg143
I134
sg538
I529
sg265
I256
sg125
I116
sg484
I475
sg42
I33
sg137
I128
sg142
I133
sg307
I298
sg231
I222
sg117
I108
sg613
I604
sg466
I457
sg446
I437
sg554
I545
sg180
I171
sg170
I161
sg213
I204
sg60
I51
sg255
I246
sg413
I404
sg365
I356
sg312
I303
sg465
I456
sg432
I423
sg390
I381
sg292
I283
sg624
I615
sg80
I71
sg58
I49
sg389
I380
sg630
I621
sg583
I574
sg434
I425
sg582
I573
sg78
I69
sg403
I394
sg49
I40
sg291
I282
sg335
I326
sg194
I185
sg512
I503
sg394
I385
sg102
I93
sg398
I389
sg321
I312
sg199
I190
sg193
I184
sg477
I468
sg369
I360
sg455
I446
sg638
I629
sg21
I12
sg543
I534
sg135
I126
sg456
I447
sg51
I42
sg207
I198
sg495
I486
sg160
I151
sg251
I242
sg252
I243
sg513
I504
sg47
I38
sg497
I488
sg253
I244
sg205
I196
sg111
I102
sg208
I199
sg508
I499
sg228
I219
sg573
I564
sg349
I340
sg107
I98
sg27
I18
sg373
I364
sg67
I58
sg635
I626
sg622
I613
sg441
I432
sg631
I622
sg604
I595
sg609
I600
sg424
I415
sg119
I110
sg101
I92
sg79
I70
sg268
I259
sg130
I121
sg423
I414
sg596
I587
sg308
I299
sg489
I480
sg152
I143
sg493
I484
sg612
I603
sg625
I616
sg332
I323
sg63
I54
sg267
I258
sg405
I396
sg556
I547
sg132
I123
sg22
I13
sg581
I572
sg629
I620
sg109
I100
sg449
I440
sg35
I26
sg589
I580
sg382
I373
sg270
I261
sg603
I594
sg40
I31
sg19
I10
sg392
I383
sg524
I515
sg415
I406
sg191
I182
sg77
I68
sg244
I235
sg421
I412
sg113
I104
sg283
I274
sg97
I88
sg192
I183
sg479
I470
sg185
I176
sg136
I127
sg639
I630
sg387
I378
sg138
I129
sg404
I395
sg520
I511
sg467
I458
sg395
I386
sg567
I558
sg133
I124
sg599
I590
sg571
I562
sg198
I189
sg437
I428
sg81
I72
sg361
I352
sg163
I154
sg557
I548
sg354
I345
sg469
I460
sg103
I94
sg229
I220
sg151
I142
sg327
I318
sg326
I317
sg122
I113
sg20
I11
sg451
I442
sg155
I146
sg257
I248
sg73
I64
sg550
I541
sg9
I0
sg246
I237
sg16
I7
sg357
I348
sg528
I519
sg32
I23
sg134
I125
sg562
I553
sg620
I611
sg43
I34
sg416
I407
sg261
I252
sg187
I178
sg280
I271
sg274
I265
sg94
I85
sg610
I601
sg600
I591
sg590
I581
sg614
I605
sg417
I408
sg209
I200
sg10
I1
sg499
I490
sg282
I273
sg566
I557
sg266
I257
sg285
I276
sg171
I162
sg177
I168
sg200
I191
sg259
I250
sg89
I80
sg284
I275
sg44
I35
sg52
I43
sg358
I349
sg48
I39
sg338
I329
sg82
I73
sg278
I269
sg279
I270
sg623
I614
sg352
I343
sg362
I353
sg341
I332
sg448
I439
sg568
I559
sg427
I418
sg457
I448
sg129
I120
sg153
I144
sg330
I321
sg75
I66
sg293
I284
sg115
I106
sg539
I530
sg486
I477
sg144
I135
sg541
I532
sg478
I469
sg542
I533
sg476
I467
sg350
I341
sg575
I566
sg240
I231
sg166
I157
sg29
I20
sg626
I617
sg471
I462
sg281
I272
sg189
I180
sg222
I213
sg380
I371
sg176
I167
sg474
I465
sg224
I215
sg576
I567
sg379
I370
sg46
I37
sg439
I430
sg426
I417
sg461
I452
sg637
I628
sg311
I302
sg399
I390
sg334
I325
sg13
I4
sg263
I254
sg376
I367
sg374
I365
sg329
I320
sg565
I556
sg203
I194
sg492
I483
sg345
I336
sg241
I232
sg118
I109
sg298
I289
sg595
I586
sg346
I337
sg540
I531
sg366
I357
sg533
I524
sg114
I105
sg563
I554
sg397
I388
sg26
I17
sg588
I579
sg269
I260
sg422
I413
sg452
I443
sg514
I505
sg515
I506
sg530
I521
sg377
I368
sg206
I197
sg131
I122
sg36
I27
sg544
I535
sg17
I8
sg304
I295
sg436
I427
sg230
I221
sg580
I571
sg529
I520
sg548
I539
sg615
I606
sg319
I310
sg355
I346
sg445
I436
sg435
I426
sg401
I392
sg534
I525
sg45
I36
sg353
I344
sg262
I253
sg569
I560
sg221
I212
sg323
I314
sg505
I496
sg92
I83
sg450
I441
sg123
I114
sg70
I61
sg320
I311
sg54
I45
sg149
I140
sg301
I292
sg385
I376
sg167
I158
sg481
I472
sg519
I510
sg157
I148
sg494
I485
sg95
I86
sg560
I551
sg175
I166
sg87
I78
sg407
I398
sg211
I202
sg381
I372
sg442
I433
sg173
I164
sg12
I3
sg72
I63
sg640
I631
sg182
I173
sg418
I409
sg273
I264
sg632
I623
sg572
I563
sg444
I435
sg402
I393
sg611
I602
sg438
I429
sg470
I461
sg337
I328
sg83
I74
sg186
I177
sg145
I136
sg254
I245
sg237
I228
sg233
I224
sg356
I347
sg91
I82
sg509
I500
sg39
I30
sg276
I267
sg120
I111
sg388
I379
sg555
I546
sg88
I79
sg108
I99
sg559
I550
sg522
I513
sg521
I512
sg247
I238
sg248
I239
sg249
I240
sg57
I48
sg545
I536
sg328
I319
sg490
I481
sg553
I544
sg591
I582
sg169
I160
sg124
I115
sg309
I300
sg250
I241
sg488
I479
sg487
I478
sg400
I391
sg245
I236
sg485
I476
sg502
I493
sg458
I449
sg183
I174
sg324
I315
sg503
I494
sg33
I24
sg296
I287
sg271
I262
sg300
I291
sg339
I330
ssS'separator'
p645
S'='
sS'sparse'
p646
I01
sb.