ccopy_reg
_reconstructor
p1
(csklearn.feature_extraction.dict_vectorizer
DictVectorizer
p2
c__builtin__
object
p3
NtRp4
(dp5
S'vocabulary_'
p6
(dp7
S'w-2=start'
p8
I29
sS'w-1=from'
p9
I20
sS'w+1=with'
p10
I12
sS'w-2=write'
p11
I31
sS'dobj=surface'
p12
I5
sS'w+1=and'
p13
I10
sS'w+2=redo'
p14
I17
sS'aux=can'
p15
I2
sS'w-2=film'
p16
I25
sS'w-2=song'
p17
I28
sS'w+2=all'
p18
I14
sS'w+1=,'
p19
I7
sS'w+1=.'
p20
I8
sS'advmod=always'
p21
I0
sS'w-1=you'
p22
I21
sS'w-2=can'
p23
I23
sS'w-2=when'
p24
I30
sS'w+2=case'
p25
I16
sS'w+1=the'
p26
I11
sS'w-2=almost'
p27
I22
sS'w-2=it'
p28
I26
sS'w+2=I'
p29
I13
sS'w+2=surface'
p30
I18
sS'w-2=create'
p31
I24
sS'w+2=and'
p32
I15
sS'w+1=a'
p33
I9
sS'advmod=when'
p34
I1
sS'w-2=salon'
p35
I27
sS'w-1=always'
p36
I19
sS'dobj=case'
p37
I4
sS'dep=that'
p38
I3
sS'nsubj=#PRP#'
p39
I6
ssS'dtype'
p40
cnumpy
float64
p41
sS'feature_names_'
p42
(lp43
g21
ag34
ag15
ag38
ag37
ag12
ag39
ag19
ag20
ag33
ag13
ag26
ag10
ag29
ag18
ag32
ag25
ag14
ag30
ag36
ag9
ag22
ag27
ag23
ag31
ag16
ag28
ag35
ag17
ag8
ag24
ag11
asS'separator'
p44
S'='
sS'sparse'
p45
I01
sb.