ccopy_reg
_reconstructor
p1
(csklearn.feature_extraction.dict_vectorizer
DictVectorizer
p2
c__builtin__
object
p3
NtRp4
(dp5
S'vocabulary_'
p6
(dp7
S'w+2=educational'
p8
I6
sS'w-1=propose'
p9
I7
sS'dobj=system'
p10
I1
sS'w+1=the'
p11
I4
sS'w-2=a'
p12
I9
sS'w+1=jetty'
p13
I3
sS'w-1=reform'
p14
I8
sS'w-2=company'
p15
I10
sS'xcomp=include'
p16
I11
sS'prep=like'
p17
I2
sS'dobj=jetty'
p18
I0
sS'w+2=and'
p19
I5
ssS'dtype'
p20
cnumpy
float64
p21
sS'feature_names_'
p22
(lp23
g18
ag10
ag17
ag13
ag11
ag19
ag8
ag9
ag14
ag12
ag15
ag16
asS'separator'
p24
S'='
sS'sparse'
p25
I01
sb.