ccopy_reg
_reconstructor
p1
(csklearn.feature_extraction.dict_vectorizer
DictVectorizer
p2
c__builtin__
object
p3
NtRp4
(dp5
S'vocabulary_'
p6
(dp7
S'w-2=he'
p8
I23
sS'dobj=map'
p9
I8
sS'w+2=multiplication'
p10
I16
sS'cc=but'
p11
I4
sS'advmod=just'
p12
I1
sS'w+2=1994'
p13
I15
sS"w-2=''"
p14
I22
sS'aux=have'
p15
I2
sS'w+1=.'
p16
I11
sS'conj=learn'
p17
I5
sS'cc=and'
p18
I3
sS'dobj=koran'
p19
I7
sS'dep=ready'
p20
I6
sS'w+1=the'
p21
I13
sS'w-1=just'
p22
I20
sS'w-2=than'
p23
I24
sS'w+1=they'
p24
I14
sS'w+1=a'
p25
I12
sS'dobj=table'
p26
I9
sS'advmod=even'
p27
I0
sS'w-1=they'
p28
I21
sS'w-1=even'
p29
I18
sS'nsubj=#PRP#'
p30
I10
sS'w-1=have'
p31
I19
sS'w+2=whole'
p32
I17
ssS'dtype'
p33
cnumpy
float64
p34
sS'feature_names_'
p35
(lp36
g27
ag12
ag15
ag18
ag11
ag17
ag20
ag19
ag9
ag26
ag30
ag16
ag25
ag21
ag24
ag13
ag10
ag32
ag29
ag31
ag22
ag28
ag14
ag8
ag23
asS'separator'
p37
S'='
sS'sparse'
p38
I01
sb.