ccopy_reg
_reconstructor
p1
(csklearn.feature_extraction.dict_vectorizer
DictVectorizer
p2
c__builtin__
object
p3
NtRp4
(dp5
S'sort'
p6
I01
sS'feature_names_'
p7
(lp8
S'advcl=appear'
p9
aS'advcl=continue'
p10
aS'advcl=diminish'
p11
aS'advcl=face'
p12
aS'advcl=get'
p13
aS'advcl=know'
p14
aS'advcl=reach'
p15
aS'advcl=release'
p16
aS'advcl=take'
p17
aS'advcl=welcome'
p18
aS'advmod=again'
p19
aS'advmod=apparently'
p20
aS'advmod=briefly'
p21
aS'advmod=here'
p22
aS'advmod=more'
p23
aS'advmod=much'
p24
aS'advmod=otherwise'
p25
aS'advmod=temporarily'
p26
aS'advmod=visibly'
p27
aS'aux=be'
p28
aS'aux=can'
p29
aS'aux=do'
p30
aS'aux=have'
p31
aS'aux=might'
p32
aS'aux=stay'
p33
aS'aux=to'
p34
aS'aux=would'
p35
aS'auxpass=appear'
p36
aS'auxpass=be'
p37
aS'auxpass=become'
p38
aS'auxpass=seem'
p39
aS'cc=and'
p40
aS'ccomp=find'
p41
aS'complm=that'
p42
aS'conj=allow'
p43
aS'conj=enjoy'
p44
aS'conj=friendly'
p45
aS'conj=give'
p46
aS'conj=keep'
p47
aS'conj=moderate'
p48
aS'conj=promote'
p49
aS'conj=quit'
p50
aS'conj=resume'
p51
aS'conj=talk'
p52
aS'conj=trim'
p53
aS'conj=visit'
p54
aS'cop=be'
p55
aS'dep=dry'
p56
aS'dobj=advisory'
p57
aS'dobj=burden'
p58
aS'dobj=condition'
p59
aS'dobj=cordon'
p60
aS'dobj=law'
p61
aS'dobj=measure'
p62
aS'dobj=minute'
p63
aS'dobj=part'
p64
aS'dobj=report'
p65
aS'dobj=requirement'
p66
aS'dobj=restriction'
p67
aS'dobj=some'
p68
aS'dobj=standard'
p69
aS'dobj=style'
p70
aS'dobj=tip'
p71
aS'neg=not'
p72
aS'nsubj=#PRP#'
p73
aS'nsubj=Africans'
p74
aS'nsubj=Police'
p75
aS'nsubj=astronaut'
p76
aS'nsubj=authority'
p77
aS'nsubj=brand'
p78
aS'nsubj=country'
p79
aS'nsubj=government'
p80
aS'nsubj=guard'
p81
aS'nsubj=lender'
p82
aS'nsubj=official'
p83
aS'nsubj=who'
p84
aS'nsubjpass=Mugabe'
p85
aS'nsubjpass=child'
p86
aS'nsubjpass=curfew'
p87
aS'nsubjpass=fight'
p88
aS'nsubjpass=leader'
p89
aS'nsubjpass=mood'
p90
aS'nsubjpass=restriction'
p91
aS'nsubjpass=rule'
p92
aS'nsubjpass=situation'
p93
aS'prep=against'
p94
aS'prep=as'
p95
aS'prep=at'
p96
aS'prep=before'
p97
aS'prep=but'
p98
aS'prep=by'
p99
aS'prep=during'
p100
aS'prep=for'
p101
aS'prep=from'
p102
aS'prep=in'
p103
aS'prep=on'
p104
aS'prep=over'
p105
aS'prep=than'
p106
aS'prep=to'
p107
aS'prep=with'
p108
aS'tmod=day'
p109
aS'tmod=morning'
p110
aS'w+1=!'
p111
aS'w+1=,'
p112
aS'w+1=-rrb-'
p113
aS'w+1=.'
p114
aS'w+1=Clinton'
p115
aS'w+1=a'
p116
aS'w+1=and'
p117
aS'w+1=as'
p118
aS'w+1=at'
p119
aS'w+1=but'
p120
aS'w+1=by'
p121
aS'w+1=condition'
p122
aS'w+1=curfew'
p123
aS'w+1=environment'
p124
aS'w+1=import'
p125
aS'w+1=in'
p126
aS'w+1=many'
p127
aS'w+1=over'
p128
aS'w+1=part'
p129
aS'w+1=quite'
p130
aS'w+1=restriction'
p131
aS'w+1=scene'
p132
aS'w+1=security'
p133
aS'w+1=some'
p134
aS'w+1=standard'
p135
aS'w+1=style'
p136
aS'w+1=tax'
p137
aS'w+1=than'
p138
aS'w+1=the'
p139
aS'w+1=they'
p140
aS'w+1=those'
p141
aS'w+1=tight'
p142
aS'w+1=way'
p143
aS'w+1=when'
p144
aS'w+1=with'
p145
aS"w+2=''"
p146
aS'w+2=.'
p147
aS'w+2=Mitrovica'
p148
aS'w+2=a'
p149
aS'w+2=again'
p150
aS'w+2=and'
p151
aS'w+2=as'
p152
aS'w+2=at'
p153
aS'w+2=burden'
p154
aS'w+2=canadian'
p155
aS'w+2=candid'
p156
aS'w+2=enjoy'
p157
aS'w+2=even'
p158
aS'w+2=few'
p159
aS'w+2=for'
p160
aS'w+2=gossip'
p161
aS'w+2=greet'
p162
aS'w+2=he'
p163
aS'w+2=home'
p164
aS'w+2=hour'
p165
aS'w+2=immigration'
p166
aS'w+2=key'
p167
aS'w+2=know'
p168
aS'w+2=measure'
p169
aS'w+2=moderate'
p170
aS'w+2=of'
p171
aS'w+2=on'
p172
aS'w+2=personally'
p173
aS'w+2=political'
p174
aS'w+2=quit'
p175
aS'w+2=requirement'
p176
aS'w+2=restriction'
p177
aS'w+2=security'
p178
aS'w+2=so'
p179
aS'w+2=talk'
p180
aS'w+2=that'
p181
aS'w+2=the'
p182
aS'w+2=there'
p183
aS'w+2=they'
p184
aS'w+2=those'
p185
aS'w+2=to'
p186
aS'w+2=travel'
p187
aS'w+2=vineyard'
p188
aS'w+2=visit'
p189
aS'w+2=we'
p190
aS'w+2=what'
p191
aS'w+2=where'
p192
aS'w+2=with'
p193
aS'w-1=,'
p194
aS'w-1=-lrb-'
p195
aS'w-1=I'
p196
aS'w-1=Police'
p197
aS'w-1=a'
p198
aS'w-1=and'
p199
aS'w-1=apparently'
p200
aS'w-1=appear'
p201
aS'w-1=astronaut'
p202
aS'w-1=be'
p203
aS'w-1=briefly'
p204
aS'w-1=feel'
p205
aS'w-1=have'
p206
aS'w-1=he'
p207
aS'w-1=include'
p208
aS'w-1=lender'
p209
aS'w-1=look'
p210
aS'w-1=more'
p211
aS'w-1=not'
p212
aS'w-1=official'
p213
aS'w-1=orjust'
p214
aS'w-1=seem'
p215
aS'w-1=stay'
p216
aS'w-1=temporarily'
p217
aS'w-1=the'
p218
aS'w-1=they'
p219
aS'w-1=to'
p220
aS'w-1=visibly'
p221
aS'w-1=who'
p222
aS'w-1=would'
p223
aS'w-1=yourself'
p224
aS'w-2=,'
p225
aS'w-2=.'
p226
aS'w-2=Africans'
p227
aS'w-2=Mugabe'
p228
aS'w-2=Putin'
p229
aS'w-2=Taylor'
p230
aS'w-2=a'
p231
aS'w-2=accustomed'
p232
aS'w-2=authority'
p233
aS'w-2=be'
p234
aS'w-2=become'
p235
aS'w-2=burma'
p236
aS'w-2=can'
p237
aS'w-2=chance'
p238
aS'w-2=convert'
p239
aS'w-2=country'
p240
aS'w-2=create'
p241
aS'w-2=do'
p242
aS'w-2=effort'
p243
aS'w-2=executive'
p244
aS'w-2=experienced'
p245
aS'w-2=find'
p246
aS'w-2=friend'
p247
aS'w-2=government'
p248
aS'w-2=have'
p249
aS'w-2=he'
p250
aS'w-2=here'
p251
aS'w-2=how'
p252
aS'w-2=in'
p253
aS'w-2=inherently'
p254
aS'w-2=it'
p255
aS'w-2=leader'
p256
aS'w-2=let'
p257
aS'w-2=make'
p258
aS'w-2=might'
p259
aS'w-2=mood'
p260
aS'w-2=mortgage'
p261
aS'w-2=music'
p262
aS'w-2=nazi'
p263
aS'w-2=need'
p264
aS'w-2=new'
p265
aS'w-2=now'
p266
aS'w-2=of'
p267
aS'w-2=official'
p268
aS'w-2=out'
p269
aS'w-2=place'
p270
aS'w-2=private'
p271
aS'w-2=ready'
p272
aS'w-2=ruler'
p273
aS'w-2=seem'
p274
aS'w-2=shop'
p275
aS'w-2=situation'
p276
aS'w-2=something'
p277
aS'w-2=spectator'
p278
aS'w-2=the'
p279
aS'w-2=to'
p280
aS'w-2=want'
p281
aS'w-2=you'
p282
aS'xcomp=accommodate'
p283
aS'xcomp=allow'
p284
asS'dtype'
p285
cnumpy
float64
p286
sS'vocabulary_'
p287
(dp288
g21
I12
sg61
I52
sg76
I67
sg125
I116
sg43
I34
sg259
I250
sg23
I14
sg179
I170
sg167
I158
sg155
I146
sg88
I79
sg20
I11
sg159
I150
sg187
I178
sg106
I97
sg33
I24
sg204
I195
sg86
I77
sg87
I78
sg202
I193
sg195
I186
sg11
I2
sg235
I226
sg181
I172
sg126
I117
sg91
I82
sg122
I113
sg258
I249
sg65
I56
sg128
I119
sg50
I41
sg222
I213
sg135
I126
sg57
I48
sg185
I176
sg284
I275
sg98
I89
sg115
I106
sg59
I50
sg84
I75
sg109
I100
sg53
I44
sg251
I242
sg245
I236
sg275
I266
sg74
I65
sg267
I258
sg264
I255
sg81
I72
sg44
I35
sg220
I211
sg213
I204
sg280
I271
sg151
I142
sg39
I30
sg283
I274
sg240
I231
sg67
I58
sg127
I118
sg228
I219
sg262
I253
sg71
I62
sg177
I168
sg77
I68
sg223
I214
sg63
I54
sg183
I174
sg55
I46
sg279
I270
sg138
I129
sg30
I21
sg250
I241
sg247
I238
sg150
I141
sg265
I256
sg41
I32
sg70
I61
sg145
I136
sg209
I200
sg217
I208
sg69
I60
sg143
I134
sg182
I173
sg118
I109
sg85
I76
sg119
I110
sg148
I139
sg239
I230
sg225
I216
sg226
I217
sg108
I99
sg199
I190
sg171
I162
sg232
I223
sg60
I51
sg31
I22
sg278
I269
sg248
I239
sg254
I245
sg203
I194
sg169
I160
sg92
I83
sg113
I104
sg175
I166
sg194
I185
sg266
I257
sg130
I121
sg268
I259
sg89
I80
sg253
I244
sg238
I229
sg205
I196
sg80
I71
sg255
I246
sg38
I29
sg252
I243
sg45
I36
sg133
I124
sg17
I8
sg32
I23
sg196
I187
sg211
I202
sg123
I114
sg271
I262
sg78
I69
sg269
I260
sg110
I101
sg186
I177
sg272
I263
sg16
I7
sg231
I222
sg161
I152
sg219
I210
sg12
I3
sg101
I92
sg198
I189
sg15
I6
sg13
I4
sg156
I147
sg206
I197
sg201
I192
sg277
I268
sg129
I120
sg180
I171
sg153
I144
sg146
I137
sg79
I70
sg192
I183
sg132
I123
sg178
I169
sg162
I153
sg27
I18
sg9
I0
sg229
I220
sg188
I179
sg224
I215
sg134
I125
sg276
I267
sg236
I227
sg173
I164
sg14
I5
sg37
I28
sg29
I20
sg42
I33
sg36
I27
sg131
I122
sg184
I175
sg137
I128
sg216
I207
sg46
I37
sg47
I38
sg263
I254
sg273
I264
sg260
I251
sg62
I53
sg25
I16
sg249
I240
sg97
I88
sg40
I31
sg243
I234
sg24
I15
sg124
I115
sg139
I130
sg94
I85
sg214
I205
sg212
I203
sg170
I161
sg210
I201
sg168
I159
sg34
I25
sg140
I131
sg282
I273
sg141
I132
sg95
I86
sg176
I167
sg103
I94
sg83
I74
sg35
I26
sg257
I248
sg166
I157
sg152
I143
sg256
I247
sg193
I184
sg73
I64
sg102
I93
sg82
I73
sg164
I155
sg215
I206
sg48
I39
sg154
I145
sg144
I135
sg51
I42
sg281
I272
sg107
I98
sg10
I1
sg208
I199
sg191
I182
sg270
I261
sg174
I165
sg105
I96
sg142
I133
sg197
I188
sg96
I87
sg233
I224
sg117
I108
sg237
I228
sg64
I55
sg68
I59
sg246
I237
sg112
I103
sg114
I105
sg230
I221
sg93
I84
sg147
I138
sg121
I112
sg58
I49
sg172
I163
sg160
I151
sg165
I156
sg72
I63
sg19
I10
sg111
I102
sg100
I91
sg157
I148
sg163
I154
sg158
I149
sg227
I218
sg22
I13
sg99
I90
sg54
I45
sg189
I180
sg56
I47
sg244
I235
sg90
I81
sg26
I17
sg241
I232
sg207
I198
sg116
I107
sg234
I225
sg120
I111
sg274
I265
sg200
I191
sg221
I212
sg218
I209
sg261
I252
sg104
I95
sg18
I9
sg28
I19
sg49
I40
sg75
I66
sg136
I127
sg149
I140
sg52
I43
sg242
I233
sg190
I181
sg66
I57
ssS'separator'
p289
S'='
sS'sparse'
p290
I01
sb.