ccopy_reg
_reconstructor
p1
(csklearn.feature_extraction.dict_vectorizer
DictVectorizer
p2
c__builtin__
object
p3
NtRp4
(dp5
S'vocabulary_'
p6
(dp7
S'dobj=right'
p8
I78
sS'amod=small'
p9
I36
sS'nn=energy'
p10
I94
sS'det=no'
p11
I70
sS'w-2=bill'
p12
I463
sS'w+2=problem'
p13
I306
sS'w-2=total'
p14
I532
sS'w-1=nature'
p15
I398
sS'amod=remain'
p16
I35
sS'w+2=my'
p17
I296
sS'amod=natural'
p18
I29
sS'w+2=but'
p19
I261
sS'w+2=very'
p20
I338
sS'dobj=water'
p21
I81
sS'w+2=use'
p22
I337
sS'nn=Pakistan'
p23
I86
sS'w+2=royalty'
p24
I316
sS'w+2=belong'
p25
I260
sS'w-2=need'
p26
I503
sS'det=all'
p27
I68
sS'w-2=they'
p28
I527
sS'prep=than'
p29
I161
sS'w+1=requirement'
p30
I215
sS'prep=by'
p31
I154
sS'nsubj=Gupta'
p32
I116
sS'w-1=would'
p33
I434
sS'rcmod=prevent'
p34
I166
sS'w+1=than'
p35
I222
sS'nn=food'
p36
I96
sS'dep=right'
p37
I65
sS'partmod=discover'
p38
I137
sS'w-1=gas'
p39
I377
sS'w-1=huge'
p40
I385
sS'w-2=from'
p41
I482
sS'w-2=we'
p42
I535
sS'amod=monetary'
p43
I27
sS'w-1=will'
p44
I433
sS'w+2=sovereign'
p45
I321
sS'w-1=usually'
p46
I430
sS'appos=Delta'
p47
I46
sS'poss=Somalia'
p48
I147
sS'w-1=be'
p49
I359
sS'w+1=continue'
p50
I189
sS'w+2=run'
p51
I317
sS'w-2=25'
p52
I440
sS'w-2=where'
p53
I536
sS'w-1=food'
p54
I373
sS'poss=Iraq'
p55
I143
sS'nsubj=what'
p56
I126
sS'dobj=one-quarter'
p57
I77
sS'mark=because'
p58
I85
sS'w-2=natural'
p59
I502
sS'w-2=largest'
p60
I494
sS'amod=huge'
p61
I19
sS'w+1=of'
p62
I205
sS'w+2=to'
p63
I333
sS'w+1=on'
p64
I207
sS'nn=percent'
p65
I108
sS'w+2=last'
p66
I288
sS'conj=another'
p67
I55
sS'w-1=some'
p68
I416
sS'w+2=slow'
p69
I320
sS'w-1=have'
p70
I381
sS'w-1=vast'
p71
I431
sS'w+2=if'
p72
I280
sS'nsubjpass=afternoon'
p73
I127
sS'w+2=it'
p74
I285
sS'w+2=one'
p75
I301
sS'w-2=all'
p76
I452
sS'amod=offshore'
p77
I30
sS'w-1=those'
p78
I424
sS'w+1=food'
p79
I194
sS'w+2=will'
p80
I341
sS'w-2=fisherman'
p81
I480
sS'w+2=President'
p82
I243
sS'nn=rice'
p83
I110
sS'w+2=by'
p84
I262
sS'w+1=the'
p85
I223
sS'w+2=long'
p86
I291
sS'w-1=Washington'
p87
I351
sS'w+2=be'
p88
I258
sS'poss=Afghanistan'
p89
I140
sS'w-2=group'
p90
I483
sS'amod=large'
p91
I22
sS'w-2=addition'
p92
I449
sS'w-2=number'
p93
I505
sS'prep=in'
p94
I157
sS'aux=would'
p95
I51
sS'w+1=for'
p96
I195
sS'amod=own'
p97
I32
sS'w-1=percent'
p98
I405
sS'poss=kingdom'
p99
I151
sS'advmod=yet'
p100
I6
sS'w-2=behind'
p101
I460
sS'w-1=bank'
p102
I358
sS'w-2=applause'
p103
I455
sS'advcl=fail'
p104
I1
sS'w+2=prompt'
p105
I308
sS'w+1=and'
p106
I178
sS'w-2=low'
p107
I495
sS'w+1=judgment'
p108
I203
sS'nn=tiger'
p109
I112
sS'nsubj=college'
p110
I119
sS'w+2=lower'
p111
I292
sS'w+2=for'
p112
I273
sS'w+2=ever'
p113
I271
sS'w-1=it'
p114
I389
sS'w-1=helium-3'
p115
I383
sS'w+2=keep'
p116
I287
sS'w+2=these'
p117
I329
sS'w-1=in'
p118
I387
sS'w-2=control'
p119
I468
sS'w+2=Ranthambhore'
p120
I245
sS'w-2=strict'
p121
I522
sS'nsubj=group'
p122
I123
sS'w-1=proven'
p123
I410
sS'w+1=estimate'
p124
I193
sS'w-1=the'
p125
I421
sS'conj=guarantee'
p126
I59
sS'w-1=position'
p127
I408
sS'w-1=uranium'
p128
I429
sS'nn=sariska'
p129
I111
sS'amod=first'
p130
I16
sS'w+2=attract'
p131
I255
sS'w-1=Gupta'
p132
I347
sS'amod=vast'
p133
I45
sS'amod=#NUMBER#'
p134
I7
sS'w+2=work'
p135
I342
sS'w+1=have'
p136
I199
sS'w-1=quota'
p137
I411
sS'w-1=organization'
p138
I404
sS'det=the'
p139
I72
sS'w+1=soldier'
p140
I218
sS'det=these'
p141
I73
sS'dobj=judgment'
p142
I76
sS'w-2=vast'
p143
I534
sS'prep=include'
p144
I158
sS'w-1=citizen'
p145
I365
sS'w-2=or'
p146
I508
sS'w-2=college'
p147
I466
sS'w-1=channel'
p148
I364
sS'w-2=of'
p149
I506
sS'w-2=two-third'
p150
I533
sS'w+2=region'
p151
I310
sS'nn=uranium'
p152
I113
sS'w-1=to'
p153
I426
sS'w-2=own'
p154
I510
sS'w-1=two'
p155
I427
sS'amod=massive'
p156
I25
sS'w+2=bauxite'
p157
I257
sS'w-1=small'
p158
I415
sS'w-2=dollar'
p159
I472
sS'w+2=allow'
p160
I249
sS'w+2=substantive'
p161
I326
sS'w-1=biosphere'
p162
I360
sS'w+1=as'
p163
I180
sS'w+1=at'
p164
I181
sS'w-1=known'
p165
I390
sS'nn=nature'
p166
I106
sS'conj=give'
p167
I58
sS'conj=system'
p168
I62
sS'w+2=under'
p169
I335
sS'nsubjpass=that'
p170
I131
sS'w+1=discover'
p171
I191
sS'w-2=huge'
p172
I487
sS'w+2=cash'
p173
I263
sS'w-1=grow'
p174
I380
sS'nn=currency'
p175
I93
sS'w+1=through'
p176
I224
sS'w+2=Project'
p177
I244
sS'amod=untapped'
p178
I44
sS'w+2=three'
p179
I331
sS'w-1=gold'
p180
I378
sS'w+1=where'
p181
I230
sS'det=those'
p182
I74
sS'nsubj=draft'
p183
I120
sS'w-2=rights'
p184
I516
sS'w-1=currency'
p185
I368
sS'prep=for'
p186
I155
sS'w+2=base'
p187
I256
sS'dep=that'
p188
I66
sS'w+2=believe'
p189
I259
sS'w+2=oil'
p190
I299
sS'w+2=1932'
p191
I240
sS'w+2=alleviate'
p192
I248
sS'amod=federal'
p193
I15
sS'w+2=at'
p194
I254
sS'w+2=where'
p195
I339
sS'w-2=U.S.'
p196
I444
sS'parataxis=say'
p197
I135
sS'w+2=erode'
p198
I269
sS'w+2=return'
p199
I312
sS'rcmod=reduce'
p200
I167
sS'nn=hydrocarbon'
p201
I103
sS'amod=brazilian'
p202
I10
sS'w-2=adequate'
p203
I450
sS'w-2=deposit'
p204
I470
sS'auxpass=be'
p205
I52
sS'amod=strategic'
p206
I38
sS'w-2=double'
p207
I473
sS'w+2=uranium'
p208
I336
sS"w-1='s"
p209
I343
sS'w+1=component'
p210
I188
sS'w+1=chairman'
p211
I186
sS'w+2=seat'
p212
I319
sS'w-1=Munene'
p213
I348
sS'rcmod=mean'
p214
I165
sS'w+2=stop'
p215
I323
sS'nsubj=parliament'
p216
I124
sS'w+1=landing'
p217
I204
sS'w-1=cash'
p218
I362
sS'w+2=say'
p219
I318
sS'w-2=replenish'
p220
I515
sS'w+2=rich'
p221
I313
sS'nn=Petroleum'
p222
I87
sS'w-2=strong'
p223
I523
sS'w-2=foreign'
p224
I481
sS'w-1=sariska'
p225
I413
sS'w+1=back'
p226
I182
sS'w+1=under'
p227
I228
sS'nn=wildlife'
p228
I114
sS'w-2=-rrb-'
p229
I438
sS'w-2=third-largest'
p230
I529
sS'nn=exchange'
p231
I95
sS'w+2=discover'
p232
I267
sS'w-2=biggest'
p233
I462
sS'w-1=marine'
p234
I392
sS'amod=adequate'
p235
I8
sS'w-1=no'
p236
I400
sS'amod=proven'
p237
I34
sS'w+2=tight'
p238
I332
sS'w+2=or'
p239
I302
sS'w-1=colossal'
p240
I367
sS"w-2=''"
p241
I435
sS'w+2=fund'
p242
I276
sS'w+2=rock'
p243
I315
sS'nn=forest'
p244
I97
sS'w-1=protected'
p245
I409
sS'nsubjpass=woman'
p246
I133
sS'w+2=on'
p247
I300
sS'w+1=to'
p248
I226
sS'det=that'
p249
I71
sS'nn=household'
p250
I102
sS'w+2=close'
p251
I264
sS'w-1=and'
p252
I356
sS'det=any'
p253
I69
sS'w-2=brazilian'
p254
I465
sS'w+2=apartment'
p255
I253
sS'w+2=least'
p256
I289
sS'poss=planet'
p257
I152
sS'w+2=part'
p258
I304
sS'nn=gas'
p259
I99
sS'w-2=exploit'
p260
I477
sS'w-2=boost'
p261
I464
sS'w+2=adopt'
p262
I247
sS'nn=U.S.'
p263
I88
sS'amod=military'
p264
I26
sS'w+1=yet'
p265
I234
sS'w-2=first'
p266
I479
sS'infmod=stop'
p267
I84
sS'w+2=from'
p268
I274
sS'w+2=man'
p269
I293
sS'nsubjpass=two-third'
p270
I132
sS'w+2=Laird'
p271
I242
sS'w+1=bank'
p272
I183
sS'w-1=Watch'
p273
I352
sS'w+2=not'
p274
I297
sS'w+2=lie'
p275
I290
sS'dobj=seat'
p276
I79
sS'w+1=say'
p277
I217
sS'w-2=remain'
p278
I514
sS'nn=petroleum'
p279
I109
sS'advmod=close'
p280
I2
sS'infmod=slow'
p281
I83
sS'poss=government'
p282
I150
sS'w-2=its'
p283
I492
sS'amod=temporary'
p284
I41
sS'amod=known'
p285
I21
sS'nn=oil'
p286
I107
sS'w+1=primarily'
p287
I212
sS'w-1=seat'
p288
I414
sS'w+2=protect'
p289
I309
sS'w-1=special'
p290
I417
sS'w+1=officer'
p291
I206
sS'poss=Cameroon'
p292
I141
sS'w-2=international'
p293
I490
sS'poss=Nigeria'
p294
I144
sS'w-2=the'
p295
I526
sS'w-1=deplete'
p296
I369
sS'w-1=natural'
p297
I397
sS'w-2=with'
p298
I538
sS'w+2=response'
p299
I311
sS'aux=will'
p300
I50
sS'poss=Seoul'
p301
I146
sS'w-2=accumulate'
p302
I446
sS'nn=gold'
p303
I100
sS'w+2=another'
p304
I252
sS'prep=with'
p305
I163
sS'w-1=energy'
p306
I370
sS'w+2=military'
p307
I295
sS'w-2=Ankit'
p308
I441
sS'w-1=temporary'
p309
I419
sS'w+2=gas'
p310
I277
sS'w-2=though'
p311
I530
sS'w+2=fake'
p312
I272
sS'advcl=complete'
p313
I0
sS'w+2=its'
p314
I286
sS'w-1=federal'
p315
I372
sS'conj=network'
p316
I60
sS'nn=grain'
p317
I101
sS'w-1=petroleum'
p318
I406
sS'w-2=secularism'
p319
I518
sS'w-2=in'
p320
I488
sS'w-2=agenda'
p321
I451
sS'poss=Sudan'
p322
I148
sS'w-1=offshore'
p323
I402
sS'w+2=commit'
p324
I265
sS'w+2=fuel'
p325
I275
sS'w+2=1.5'
p326
I239
sS'w-2=any'
p327
I454
sS'w-2=declare'
p328
I469
sS'w-1=forest'
p329
I375
sS'amod=famous'
p330
I14
sS'w-2=parliament'
p331
I511
sS'w+1=one'
p332
I208
sS'w+1=water'
p333
I229
sS'w-1=untapped'
p334
I428
sS'w+2=impoverished'
p335
I282
sS'amod=national'
p336
I28
sS'w+2=help'
p337
I279
sS'w+2=production'
p338
I307
sS'w-1=after'
p339
I354
sS'num=#NUMBER#'
p340
I134
sS'w-2=meet'
p341
I498
sS'nsubj=Venezuela'
p342
I118
sS"w+2=''"
p343
I235
sS'w-2=asian'
p344
I457
sS'w-2=exist'
p345
I476
sS'w-2=strategic'
p346
I521
sS'w-1=national'
p347
I396
sS'w-2=accuse'
p348
I447
sS'w-1=exchange'
p349
I371
sS'infmod=protect'
p350
I82
sS'w-2=Mara'
p351
I442
sS'w-2=hold'
p352
I486
sS'w-1=these'
p353
I422
sS'w-2=have'
p354
I484
sS'cc=and'
p355
I53
sS'w-2=discover'
p356
I471
sS'w-2=substantial'
p357
I524
sS'prep=under'
p358
I162
sS'w+1=by'
p359
I185
sS'poss=Ethiopia'
p360
I142
sS'w+1=will'
p361
I231
sS'w+1=be'
p362
I184
sS'w-1=but'
p363
I361
sS'conj=say'
p364
I61
sS'w+1=in'
p365
I200
sS'w+2=strong'
p366
I325
sS'amod=marine'
p367
I24
sS'nsubj=rights'
p368
I125
sS'nsubj=#PRP#'
p369
I115
sS'w-2=active'
p370
I448
sS'w+1=into'
p371
I201
sS'nn=isotope'
p372
I104
sS'cc=but'
p373
I54
sS'dep=portion'
p374
I64
sS'amod=substantial'
p375
I40
sS'w-2=atop'
p376
I458
sS'poss=#PRP#'
p377
I139
sS'w+2=third'
p378
I330
sS'w-1=Petroleum'
p379
I350
sS'w-2=third'
p380
I528
sS'w+1=-rrb-'
p381
I171
sS'w+2=cut'
p382
I266
sS'w-1=Pakistan'
p383
I349
sS'w+1=currency'
p384
I190
sS'w+1=account'
p385
I177
sS'w+1=still'
p386
I221
sS'w-1=nine'
p387
I399
sS'w+2=drop'
p388
I268
sS'w-2=month'
p389
I499
sS'w+1=today'
p390
I227
sS'w-2=reduce'
p391
I513
sS"w-2='s"
p392
I436
sS'w+2=which'
p393
I340
sS'w-2=be'
p394
I459
sS'w+2=intimacy'
p395
I283
sS'prep=of'
p396
I159
sS'w-1=game'
p397
I376
sS'prep=on'
p398
I160
sS'w-1=certain'
p399
I363
sS'amod=colossal'
p400
I12
sS'nsubjpass=some'
p401
I130
sS'w+2=stock'
p402
I322
sS'nn=game'
p403
I98
sS'amod=international'
p404
I20
sS'w+1=out'
p405
I210
sS'w-2=on'
p406
I507
sS'w+2=of'
p407
I298
sS'w+1=force'
p408
I196
sS'amod=gold'
p409
I18
sS'amod=other'
p410
I31
sS'w-2=more'
p411
I500
sS'w+1=without'
p412
I233
sS'w+2=right'
p413
I314
sS'w+2=also'
p414
I250
sS'w-1=pool'
p415
I407
sS'w+1=some'
p416
I219
sS'w-1=grain'
p417
I379
sS'w-2=large'
p418
I493
sS'nsubj=fisherman'
p419
I122
sS'w-1=of'
p420
I401
sS'w+2=out'
p421
I303
sS'w-2=to'
p422
I531
sS'w+2=and'
p423
I251
sS'tmod=#DATE#'
p424
I168
sS'w-2=and'
p425
I453
sS'w+1=harbor'
p426
I198
sS'w+1=10'
p427
I173
sS'w-2=isotope'
p428
I491
sS'w-2=national'
p429
I501
sS'w-1=tiger'
p430
I425
sS'nsubj=Munene'
p431
I117
sS'cop=be'
p432
I63
sS'w-1=monetary'
p433
I395
sS'w+2=troops'
p434
I334
sS'w+1=quota'
p435
I213
sS'w-2=he'
p436
I485
sS'w-1=rice'
p437
I412
sS'w-1=military'
p438
I393
sS'w+1=with'
p439
I232
sS'advmod=now'
p440
I3
sS'w-2=say'
p441
I517
sS'w+2=into'
p442
I284
sS'w-2=Seoul'
p443
I443
sS'w+2=the'
p444
I327
sS'w+1=itself'
p445
I202
sS'w-1=foreign'
p446
I374
sS'w-2=,'
p447
I437
sS'w-2=.'
p448
I439
sS'w+1=stand'
p449
I220
sS'aux=have'
p450
I47
sS'w+2=import'
p451
I281
sS'w+1=remain'
p452
I214
sS'w-1=household'
p453
I384
sS'amod=largest'
p454
I23
sS'rcmod=last'
p455
I164
sS'w-1=,'
p456
I344
sS'w-2=now'
p457
I504
sS'amod=exist'
p458
I13
sS'nn=mineral'
p459
I105
sS'nn=Washington'
p460
I89
sS'w+1=colonel'
p461
I187
sS'w-2=enter'
p462
I475
sS'w-2=as'
p463
I456
sS'amod=special'
p464
I37
sS'w-1=hydrocarbon'
p465
I386
sS'dobj=apartment'
p466
I75
sS'w-2=other'
p467
I509
sS'amod=third-largest'
p468
I43
sS'w+1=another'
p469
I179
sS'aux=should'
p470
I48
sS'w+1=down'
p471
I192
sS'w-1=wildlife'
p472
I432
sS'w-2=a'
p473
I445
sS'w-1=they'
p474
I423
sS'w-1=oil'
p475
I403
sS'w+1=price'
p476
I211
sS'det=a'
p477
I67
sS'w-1=a'
p478
I353
sS'w+1=one-quarter'
p479
I209
sS'w+1=time'
p480
I225
sS'w-2=massive'
p481
I497
sS'partmod=publish'
p482
I138
sS'nn=biosphere'
p483
I90
sS'w-2=make'
p484
I496
sS'w-1=he'
p485
I382
sS'w+2=there'
p486
I328
sS'w-1=Army'
p487
I346
sS'w-2=bicycle'
p488
I461
sS'w+1=from'
p489
I197
sS'nn=coal'
p490
I92
sS'w+2=360'
p491
I241
sS'w-1=mineral'
p492
I394
sS'w-2=draft'
p493
I474
sS'amod=third'
p494
I42
sS'amod=strict'
p495
I39
sS'w+2=have'
p496
I278
sS'poss=country'
p497
I149
sS'w+2=strip'
p498
I324
sS'conj=capacity'
p499
I56
sS'poss=world'
p500
I153
sS'w-1=largest'
p501
I391
sS'amod=foreign'
p502
I17
sS'w+1=run'
p503
I216
sS'nn=cash'
p504
I91
sS'w-2=significant'
p505
I520
sS'w-1=all'
p506
I355
sS'w-2=put'
p507
I512
sS'w-1=12-hectare'
p508
I345
sS'prep=from'
p509
I156
sS'w-1=coal'
p510
I366
sS'amod=protected'
p511
I33
sS'aux=to'
p512
I49
sS'w-2=should'
p513
I519
sS'nsubj=fifth'
p514
I121
sS'partmod=appoint'
p515
I136
sS'w-2=famous'
p516
I478
sS'w-2=will'
p517
I537
sS'dobj=some'
p518
I80
sS'nsubjpass=future'
p519
I129
sS'w+1=-'
p520
I170
sS'w+1=,'
p521
I169
sS'w+1=.'
p522
I172
sS'w-2=that'
p523
I525
sS'w+2=.'
p524
I238
sS'w-2=increase'
p525
I489
sS'w+2=,'
p526
I236
sS'w+2=-'
p527
I237
sS'w+1=?'
p528
I174
sS'w+2=printing'
p529
I305
sS'amod=asian'
p530
I9
sS'w-1=international'
p531
I388
sS'w+2=mean'
p532
I294
sS'w-1=strategic'
p533
I418
sS'advmod=usually'
p534
I5
sS'w-2=constitution'
p535
I467
sS'w+1=a'
p536
I176
sS'w+2=especially'
p537
I270
sS'w+1=U.S.'
p538
I175
sS'w-1=as'
p539
I357
sS'advmod=primarily'
p540
I4
sS'conj=cash'
p541
I57
sS'w-1=that'
p542
I420
sS'nsubjpass=all'
p543
I128
sS'amod=certain'
p544
I11
sS'w+2=a'
p545
I246
sS'poss=Russia'
p546
I145
ssS'dtype'
p547
cnumpy
float64
p548
sS'feature_names_'
p549
(lp550
g313
ag104
ag280
ag440
ag540
ag534
ag100
ag134
ag235
ag530
ag202
ag544
ag400
ag458
ag330
ag193
ag130
ag502
ag409
ag61
ag404
ag285
ag91
ag454
ag367
ag156
ag264
ag43
ag336
ag18
ag77
ag410
ag97
ag511
ag237
ag16
ag9
ag464
ag206
ag495
ag375
ag284
ag494
ag468
ag178
ag133
ag47
ag450
ag470
ag512
ag300
ag95
ag205
ag355
ag373
ag67
ag499
ag541
ag167
ag126
ag316
ag364
ag168
ag432
ag374
ag37
ag188
ag477
ag27
ag253
ag11
ag249
ag139
ag141
ag182
ag466
ag142
ag57
ag8
ag276
ag518
ag21
ag350
ag281
ag267
ag58
ag23
ag222
ag263
ag460
ag483
ag504
ag490
ag175
ag10
ag231
ag36
ag244
ag403
ag259
ag303
ag317
ag250
ag201
ag372
ag459
ag166
ag286
ag65
ag279
ag83
ag129
ag109
ag152
ag228
ag369
ag32
ag431
ag342
ag110
ag183
ag514
ag419
ag122
ag216
ag368
ag56
ag73
ag543
ag519
ag401
ag170
ag270
ag246
ag340
ag197
ag515
ag38
ag482
ag377
ag89
ag292
ag360
ag55
ag294
ag546
ag301
ag48
ag322
ag497
ag282
ag99
ag257
ag500
ag31
ag186
ag509
ag94
ag144
ag396
ag398
ag29
ag358
ag305
ag455
ag214
ag34
ag200
ag424
ag521
ag520
ag381
ag522
ag427
ag528
ag538
ag536
ag385
ag106
ag469
ag163
ag164
ag226
ag272
ag362
ag359
ag211
ag461
ag210
ag50
ag384
ag171
ag471
ag124
ag79
ag96
ag408
ag489
ag426
ag136
ag365
ag371
ag445
ag108
ag217
ag62
ag291
ag64
ag332
ag479
ag405
ag476
ag287
ag435
ag452
ag30
ag503
ag277
ag140
ag416
ag449
ag386
ag35
ag85
ag176
ag480
ag248
ag390
ag227
ag333
ag181
ag361
ag439
ag412
ag265
ag343
ag526
ag527
ag524
ag326
ag191
ag491
ag271
ag82
ag177
ag120
ag545
ag262
ag192
ag160
ag414
ag423
ag304
ag255
ag194
ag131
ag187
ag157
ag88
ag189
ag25
ag19
ag84
ag173
ag251
ag324
ag382
ag232
ag388
ag198
ag537
ag113
ag312
ag112
ag268
ag325
ag242
ag310
ag496
ag337
ag72
ag451
ag335
ag395
ag442
ag74
ag314
ag116
ag66
ag256
ag275
ag86
ag111
ag269
ag532
ag307
ag17
ag274
ag407
ag190
ag247
ag75
ag239
ag421
ag258
ag529
ag13
ag338
ag105
ag289
ag151
ag299
ag199
ag221
ag413
ag243
ag24
ag51
ag219
ag212
ag69
ag45
ag402
ag215
ag498
ag366
ag161
ag444
ag486
ag117
ag378
ag179
ag238
ag63
ag434
ag169
ag208
ag22
ag20
ag195
ag393
ag80
ag135
ag209
ag456
ag508
ag487
ag132
ag213
ag383
ag379
ag87
ag273
ag478
ag339
ag506
ag252
ag539
ag102
ag49
ag162
ag363
ag218
ag399
ag148
ag145
ag510
ag240
ag185
ag296
ag306
ag349
ag315
ag54
ag446
ag329
ag397
ag39
ag180
ag417
ag174
ag70
ag485
ag115
ag453
ag40
ag465
ag118
ag531
ag114
ag165
ag501
ag234
ag438
ag492
ag433
ag347
ag297
ag15
ag387
ag236
ag420
ag323
ag475
ag138
ag98
ag318
ag415
ag127
ag245
ag123
ag137
ag437
ag225
ag288
ag158
ag68
ag290
ag533
ag309
ag542
ag125
ag353
ag474
ag78
ag430
ag153
ag155
ag334
ag128
ag46
ag71
ag472
ag44
ag33
ag241
ag392
ag447
ag229
ag448
ag52
ag308
ag351
ag443
ag196
ag473
ag302
ag348
ag370
ag92
ag203
ag321
ag76
ag425
ag327
ag103
ag463
ag344
ag376
ag394
ag101
ag488
ag233
ag12
ag261
ag254
ag147
ag535
ag119
ag328
ag204
ag356
ag159
ag207
ag493
ag462
ag345
ag260
ag516
ag266
ag81
ag224
ag41
ag90
ag354
ag436
ag352
ag172
ag320
ag525
ag293
ag428
ag283
ag418
ag60
ag107
ag484
ag481
ag341
ag389
ag411
ag429
ag59
ag26
ag457
ag93
ag149
ag406
ag146
ag467
ag154
ag331
ag507
ag391
ag278
ag220
ag184
ag441
ag319
ag513
ag505
ag346
ag121
ag223
ag357
ag523
ag295
ag28
ag380
ag230
ag311
ag422
ag14
ag150
ag143
ag42
ag53
ag517
ag298
asS'separator'
p551
S'='
sS'sparse'
p552
I01
sb.