ccopy_reg
_reconstructor
p1
(csklearn.feature_extraction.dict_vectorizer
DictVectorizer
p2
c__builtin__
object
p3
NtRp4
(dp5
S'vocabulary_'
p6
(dp7
S'nsubj=which'
p8
I15
sS'partmod=hit'
p9
I16
sS'w-2=capture'
p10
I44
sS'aux=to'
p11
I3
sS'nn=people'
p12
I13
sS'det=the'
p13
I8
sS'w+2=World'
p14
I25
sS'w-2=character'
p15
I45
sS'w+2=the'
p16
I29
sS'w+1=at'
p17
I21
sS'w+1=and'
p18
I20
sS'w-2=which'
p19
I52
sS'aux=can'
p20
I2
sS'conj=play'
p21
I6
sS'mark=because'
p22
I11
sS'dobj=web'
p23
I10
sS'w+2=web'
p24
I32
sS'w-1=be'
p25
I35
sS'w+1=hit'
p26
I22
sS'dobj=internet'
p27
I9
sS'w-1=.'
p28
I34
sS'w-1=,'
p29
I33
sS'w-2=not'
p30
I47
sS'w-1=can'
p31
I36
sS'cc=and'
p32
I4
sS'w+2=internet'
p33
I26
sS"possessive='s"
p34
I17
sS'nn=ocean'
p35
I12
sS'w+2=up'
p36
I31
sS'w+1=the'
p37
I24
sS'w-2=able'
p38
I43
sS'w+2=this'
p39
I30
sS'w-1=resist'
p40
I39
sS'w-2=Brannon'
p41
I42
sS'w+2=land'
p42
I27
sS'w-1=ocean'
p43
I37
sS'w-1=to'
p44
I41
sS"w+1='s"
p45
I19
sS'w-2=they'
p46
I50
sS'w-1=people'
p47
I38
sS'w+1=on'
p48
I23
sS'conj=look'
p49
I5
sS'w-1=the'
p50
I40
sS'w-2=of'
p51
I48
sS'prep=on'
p52
I18
sS'w-2=computer'
p53
I46
sS'w-2=try'
p54
I51
sS'aux=be'
p55
I1
sS'dep=up'
p56
I7
sS'w+2=play'
p57
I28
sS'nsubj=#PRP#'
p58
I14
sS'w-2=the'
p59
I49
sS'advmod=properly'
p60
I0
ssS'dtype'
p61
cnumpy
float64
p62
sS'feature_names_'
p63
(lp64
g60
ag55
ag20
ag11
ag32
ag49
ag21
ag56
ag13
ag27
ag23
ag22
ag35
ag12
ag58
ag8
ag9
ag34
ag52
ag45
ag18
ag17
ag26
ag48
ag37
ag14
ag33
ag42
ag57
ag16
ag39
ag36
ag24
ag29
ag28
ag25
ag31
ag43
ag47
ag40
ag50
ag44
ag41
ag38
ag10
ag15
ag53
ag30
ag51
ag59
ag46
ag54
ag19
asS'separator'
p65
S'='
sS'sparse'
p66
I01
sb.