ccopy_reg
_reconstructor
p1
(csklearn.feature_extraction.dict_vectorizer
DictVectorizer
p2
c__builtin__
object
p3
NtRp4
(dp5
S'vocabulary_'
p6
(dp7
S'w+2=violence'
p8
I26
sS'nsubjpass=Bangladesh'
p9
I12
sS'w+2=certain'
p10
I21
sS'advmod=simply'
p11
I1
sS'cc=but'
p12
I4
sS'nsubj=country'
p13
I11
sS'conj=divide'
p14
I7
sS'w+2=annual'
p15
I20
sS'nsubjpass=people'
p16
I16
sS'w-1=region'
p17
I31
sS'auxpass=be'
p18
I2
sS'complm=that'
p19
I5
sS'w-2=Paw'
p20
I35
sS'conj=expect'
p21
I8
sS'w-1=be'
p22
I27
sS'w+1=to'
p23
I18
sS'prep=to'
p24
I17
sS'w-2=Bangladesh'
p25
I33
sS'cc=and'
p26
I3
sS'conj=describe'
p27
I6
sS'w+2=Russian'
p28
I19
sS'w-2=that'
p29
I39
sS'w-2=for'
p30
I38
sS'advmod=here'
p31
I0
sS'w-2=Palestinians'
p32
I34
sS'w-2=be'
p33
I37
sS'nsubjpass=Ukrainians'
p34
I15
sS'w-1=country'
p35
I28
sS'w+2=just'
p36
I22
sS'w-1=official'
p37
I30
sS'w-1=not'
p38
I29
sS'w+2=natural'
p39
I23
sS'neg=not'
p40
I10
sS'w-2=a'
p41
I36
sS'nsubjpass=Palestinians'
p42
I13
sS'w+2=such'
p43
I25
sS'w+2=provide'
p44
I24
sS'w-1=simply'
p45
I32
sS'nsubjpass=Paw'
p46
I14
sS'mark=in'
p47
I9
ssS'dtype'
p48
cnumpy
float64
p49
sS'feature_names_'
p50
(lp51
g31
ag11
ag18
ag26
ag12
ag19
ag27
ag14
ag21
ag47
ag40
ag13
ag9
ag42
ag46
ag34
ag16
ag24
ag23
ag28
ag15
ag10
ag36
ag39
ag44
ag43
ag8
ag22
ag35
ag38
ag37
ag17
ag45
ag25
ag32
ag20
ag41
ag33
ag30
ag29
asS'separator'
p52
S'='
sS'sparse'
p53
I01
sb.