ccopy_reg
_reconstructor
p1
(csklearn.feature_extraction.dict_vectorizer
DictVectorizer
p2
c__builtin__
object
p3
NtRp4
(dp5
S'sort'
p6
I01
sS'feature_names_'
p7
(lp8
S'advcl=agree'
p9
aS'advcl=attach'
p10
aS'advcl=develop'
p11
aS'advcl=get'
p12
aS'advcl=halt'
p13
aS'advcl=implement'
p14
aS'advcl=lead'
p15
aS'advcl=make'
p16
aS'advcl=pledge'
p17
aS'advcl=say'
p18
aS'advcl=spend'
p19
aS'advcl=vote'
p20
aS'advcl=will'
p21
aS'advmod=actually'
p22
aS'advmod=also'
p23
aS'advmod=earlier'
p24
aS'advmod=early'
p25
aS'advmod=even'
p26
aS'advmod=however'
p27
aS'advmod=hurriedly'
p28
aS'advmod=immediately'
p29
aS'advmod=now'
p30
aS'advmod=off'
p31
aS'advmod=once'
p32
aS'advmod=only'
p33
aS'advmod=out'
p34
aS'advmod=partially'
p35
aS'advmod=probably'
p36
aS'advmod=quickly'
p37
aS'advmod=recently'
p38
aS'advmod=since'
p39
aS'advmod=single'
p40
aS'advmod=soon'
p41
aS'advmod=sooner'
p42
aS'advmod=temporarily'
p43
aS'advmod=then'
p44
aS'advmod=therefore'
p45
aS'advmod=when'
p46
aS'aux=be'
p47
aS'aux=can'
p48
aS'aux=could'
p49
aS'aux=do'
p50
aS'aux=have'
p51
aS'aux=must'
p52
aS'aux=should'
p53
aS'aux=to'
p54
aS'aux=will'
p55
aS'aux=would'
p56
aS'auxpass=be'
p57
aS'cc=and'
p58
aS'cc=but'
p59
aS'cc=or'
p60
aS'ccomp=appear'
p61
aS'ccomp=describe'
p62
aS'ccomp=essential'
p63
aS'ccomp=follow-through'
p64
aS'ccomp=fulfil'
p65
aS'ccomp=help'
p66
aS'ccomp=levy'
p67
aS'ccomp=mean'
p68
aS'ccomp=news'
p69
aS'ccomp=step'
p70
aS'ccomp=take'
p71
aS'complm=that'
p72
aS'complm=whether'
p73
aS'conj=allow'
p74
aS'conj=amend'
p75
aS'conj=create'
p76
aS'conj=end'
p77
aS'conj=engage'
p78
aS'conj=follow'
p79
aS'conj=grant'
p80
aS'conj=head'
p81
aS'conj=hinder'
p82
aS'conj=impose'
p83
aS'conj=keep'
p84
aS'conj=let'
p85
aS'conj=lift'
p86
aS'conj=long'
p87
aS'conj=make'
p88
aS'conj=mean'
p89
aS'conj=reduce'
p90
aS'conj=reinstate'
p91
aS'conj=remove'
p92
aS'conj=resign'
p93
aS'conj=restore'
p94
aS'conj=resume'
p95
aS'conj=return'
p96
aS'conj=say'
p97
aS'conj=schedule'
p98
aS'conj=see'
p99
aS'conj=slump'
p100
aS'conj=soar'
p101
aS'conj=take'
p102
aS'conj=wear'
p103
aS'csubjpass=target'
p104
aS'dep=able'
p105
aS'dep=after'
p106
aS'dep=curse'
p107
aS'dep=if'
p108
aS'dep=protest'
p109
aS'dep=say'
p110
aS'dep=state'
p111
aS'dep=that'
p112
aS'det=a'
p113
aS'det=the'
p114
aS'dobj=#NUMBER#'
p115
aS'dobj=#PRP#'
p116
aS'dobj=Afghans'
p117
aS'dobj=achievement'
p118
aS'dobj=all'
p119
aS'dobj=amendment'
p120
aS'dobj=author'
p121
aS'dobj=ban'
p122
aS'dobj=barrier'
p123
aS'dobj=blackout'
p124
aS'dobj=blockade'
p125
aS'dobj=bundle'
p126
aS'dobj=burden'
p127
aS'dobj=candle'
p128
aS'dobj=cease-fire'
p129
aS'dobj=censorship'
p130
aS'dobj=child'
p131
aS'dobj=country'
p132
aS'dobj=curb'
p133
aS'dobj=curfew'
p134
aS'dobj=decree'
p135
aS'dobj=dollar'
p136
aS'dobj=economy'
p137
aS'dobj=embargo'
p138
aS'dobj=folk'
p139
aS'dobj=fortune'
p140
aS'dobj=hold'
p141
aS'dobj=immunity'
p142
aS'dobj=law'
p143
aS'dobj=life'
p144
aS'dobj=limit'
p145
aS'dobj=measure'
p146
aS'dobj=monopoly'
p147
aS'dobj=moratorium'
p148
aS'dobj=occupation'
p149
aS'dobj=order'
p150
aS'dobj=part'
p151
aS'dobj=people'
p152
aS'dobj=pole'
p153
aS'dobj=pressure'
p154
aS'dobj=price'
p155
aS'dobj=productivity'
p156
aS'dobj=range'
p157
aS'dobj=restriction'
p158
aS'dobj=rifle'
p159
aS'dobj=rule'
p160
aS'dobj=sanction'
p161
aS'dobj=siege'
p162
aS'dobj=sight'
p163
aS'dobj=society'
p164
aS'dobj=spirit'
p165
aS'dobj=state'
p166
aS'dobj=stay'
p167
aS'dobj=subsidy'
p168
aS'dobj=tariff'
p169
aS'dobj=tax'
p170
aS'dobj=the'
p171
aS'dobj=travel'
p172
aS'mark=after'
p173
aS'mark=although'
p174
aS'mark=as'
p175
aS'mark=before'
p176
aS'mark=for'
p177
aS'mark=if'
p178
aS'mark=once'
p179
aS'mark=since'
p180
aS'mark=unless'
p181
aS'mark=until'
p182
aS'mark=while'
p183
aS'neg=never'
p184
aS'neg=not'
p185
aS'nn=States'
p186
aS'nsubj=#NUMBER#'
p187
aS'nsubj=#PRP#'
p188
aS'nsubj=Atlantis'
p189
aS'nsubj=Council'
p190
aS'nsubj=Endeavour'
p191
aS'nsubj=Islamabad'
p192
aS'nsubj=Israel'
p193
aS'nsubj=Japan'
p194
aS'nsubj=Musharraf'
p195
aS'nsubj=Nations'
p196
aS'nsubj=Obama'
p197
aS'nsubj=States'
p198
aS'nsubj=U.N.'
p199
aS'nsubj=U.S.'
p200
aS'nsubj=Washington'
p201
aS'nsubj=Whitson'
p202
aS'nsubj=administration'
p203
aS'nsubj=authority'
p204
aS'nsubj=bill'
p205
aS'nsubj=decree'
p206
aS'nsubj=earthquake'
p207
aS'nsubj=government'
p208
aS'nsubj=gunman'
p209
aS'nsubj=hair'
p210
aS'nsubj=judge'
p211
aS'nsubj=lack'
p212
aS'nsubj=office'
p213
aS'nsubj=policy'
p214
aS'nsubj=rocket'
p215
aS'nsubj=sanction'
p216
aS'nsubj=spacecraft'
p217
aS'nsubj=that'
p218
aS'nsubj=thing'
p219
aS'nsubj=who'
p220
aS'nsubj=woman'
p221
aS'nsubjpass=#NUMBER#'
p222
aS'nsubjpass=#PRP#'
p223
aS'nsubjpass=back'
p224
aS'nsubjpass=ban'
p225
aS'nsubjpass=blockade'
p226
aS'nsubjpass=curb'
p227
aS'nsubjpass=curfew'
p228
aS'nsubjpass=emergency'
p229
aS'nsubjpass=media'
p230
aS'nsubjpass=order'
p231
aS'nsubjpass=provision'
p232
aS'nsubjpass=reporter'
p233
aS'nsubjpass=restriction'
p234
aS'nsubjpass=rule'
p235
aS'nsubjpass=sanction'
p236
aS'nsubjpass=siege'
p237
aS'nsubjpass=spirit'
p238
aS'nsubjpass=state'
p239
aS'nsubjpass=veil'
p240
aS'parataxis=seem'
p241
aS'partmod=allow'
p242
aS'partmod=cause'
p243
aS'partmod=cite'
p244
aS'partmod=reject'
p245
aS'prep=aboard'
p246
aS'prep=after'
p247
aS'prep=against'
p248
aS'prep=as'
p249
aS'prep=at'
p250
aS'prep=because'
p251
aS'prep=before'
p252
aS'prep=by'
p253
aS'prep=follow'
p254
aS'prep=for'
p255
aS'prep=from'
p256
aS'prep=in'
p257
aS'prep=into'
p258
aS'prep=of'
p259
aS'prep=on'
p260
aS'prep=out'
p261
aS'prep=to'
p262
aS'prep=under'
p263
aS'prep=until'
p264
aS'prep=within'
p265
aS'prt=off'
p266
aS'prt=up'
p267
aS'tmod=#DATE#'
p268
aS'tmod=December'
p269
aS'tmod=month'
p270
aS'tmod=night'
p271
aS'tmod=priority'
p272
aS'tmod=time'
p273
aS'w+1=,'
p274
aS'w+1=.'
p275
aS'w+1=Afghans'
p276
aS'w+1=Areva'
p277
aS'w+1=Labor'
p278
aS'w+1=a'
p279
aS'w+1=after'
p280
aS'w+1=all'
p281
aS'w+1=and'
p282
aS'w+1=anytime'
p283
aS'w+1=as'
p284
aS'w+1=at'
p285
aS'w+1=before'
p286
aS'w+1=bundle'
p287
aS'w+1=by'
p288
aS'w+1=capacity'
p289
aS'w+1=censorship'
p290
aS'w+1=civic'
p291
aS'w+1=crippling'
p292
aS'w+1=curb'
p293
aS'w+1=curfew'
p294
aS'w+1=emergency'
p295
aS'w+1=expert'
p296
aS'w+1=financial'
p297
aS'w+1=folk'
p298
aS'w+1=follow'
p299
aS'w+1=for'
p300
aS'w+1=he'
p301
aS'w+1=human'
p302
aS'w+1=hundred'
p303
aS'w+1=if'
p304
aS'w+1=immediately'
p305
aS'w+1=import'
p306
aS'w+1=in'
p307
aS'w+1=individual'
p308
aS'w+1=international'
p309
aS'w+1=it'
p310
aS'w+1=its'
p311
aS'w+1=last'
p312
aS'w+1=martial'
p313
aS'w+1=my'
p314
aS'w+1=needless'
p315
aS'w+1=off'
p316
aS'w+1=on'
p317
aS'w+1=once'
p318
aS'w+1=out'
p319
aS'w+1=parliamentary'
p320
aS'w+1=part'
p321
aS'w+1=penalty'
p322
aS'w+1=people'
p323
aS'w+1=poor'
p324
aS'w+1=productivity'
p325
aS'w+1=restriction'
p326
aS'w+1=sanction'
p327
aS'w+1=so'
p328
aS'w+1=society'
p329
aS'w+1=some'
p330
aS'w+1=soon'
p331
aS'w+1=student'
p332
aS'w+1=term'
p333
aS'w+1=terrorism-related'
p334
aS'w+1=the'
p335
aS'w+1=themselves'
p336
aS'w+1=these'
p337
aS'w+1=they'
p338
aS'w+1=those'
p339
aS'w+1=to'
p340
aS'w+1=trade'
p341
aS'w+1=up'
p342
aS'w+1=we'
p343
aS'w+1=weight'
p344
aS'w+1=what'
p345
aS"w+2=''"
p346
aS"w+2='s"
p347
aS'w+2=,'
p348
aS'w+2=-lrb-'
p349
aS'w+2=.'
p350
aS'w+2=December'
p351
aS'w+2=Jackson-Vanik'
p352
aS'w+2=Saturday'
p353
aS'w+2=Taliban'
p354
aS'w+2=U.N.'
p355
aS'w+2=U.S.'
p356
aS'w+2=a'
p357
aS'w+2=aboard'
p358
aS'w+2=achievement'
p359
aS'w+2=after'
p360
aS'w+2=against'
p361
aS'w+2=allow'
p362
aS'w+2=along'
p363
aS'w+2=anchor'
p364
aS'w+2=and'
p365
aS'w+2=ban'
p366
aS'w+2=barrier'
p367
aS'w+2=be'
p368
aS'w+2=blackout'
p369
aS'w+2=blockade'
p370
aS'w+2=burden'
p371
aS'w+2=but'
p372
aS'w+2=candle'
p373
aS'w+2=cease-fire'
p374
aS'w+2=child'
p375
aS'w+2=condition'
p376
aS'w+2=country'
p377
aS'w+2=crippling'
p378
aS'w+2=curb'
p379
aS'w+2=current'
p380
aS'w+2=do'
p381
aS'w+2=dollar'
p382
aS'w+2=downtown'
p383
aS'w+2=early'
p384
aS'w+2=economic'
p385
aS'w+2=economy'
p386
aS'w+2=effective'
p387
aS'w+2=election'
p388
aS'w+2=emergency'
p389
aS'w+2=ensure'
p390
aS'w+2=financial'
p391
aS'w+2=flimsy'
p392
aS'w+2=from'
p393
aS'w+2=gag'
p394
aS'w+2=gas'
p395
aS'w+2=government'
p396
aS'w+2=he'
p397
aS'w+2=headscarf'
p398
aS'w+2=hold'
p399
aS'w+2=immunity'
p400
aS'w+2=impose'
p401
aS'w+2=in'
p402
aS'w+2=informal'
p403
aS'w+2=into'
p404
aS'w+2=israeli'
p405
aS'w+2=it'
p406
aS'w+2=law'
p407
aS'w+2=least'
p408
aS'w+2=life'
p409
aS'w+2=lift'
p410
aS'w+2=limit'
p411
aS'w+2=martial'
p412
aS'w+2=measure'
p413
aS'w+2=month'
p414
aS'w+2=moratorium'
p415
aS'w+2=newly'
p416
aS'w+2=occupation'
p417
aS'w+2=of'
p418
aS'w+2=on'
p419
aS'w+2=or'
p420
aS'w+2=out'
p421
aS'w+2=part'
p422
aS'w+2=people'
p423
aS'w+2=pre-election'
p424
aS'w+2=pressure'
p425
aS'w+2=price'
p426
aS'w+2=range'
p427
aS'w+2=restriction'
p428
aS'w+2=result'
p429
aS'w+2=rifle'
p430
aS'w+2=rule'
p431
aS'w+2=sanction'
p432
aS'w+2=siege'
p433
aS'w+2=sight'
p434
aS'w+2=soon'
p435
aS'w+2=soviet-era'
p436
aS'w+2=spirit'
p437
aS'w+2=state'
p438
aS'w+2=subsidy'
p439
aS'w+2=tariff'
p440
aS'w+2=temporary'
p441
aS'w+2=that'
p442
aS'w+2=the'
p443
aS'w+2=three-year'
p444
aS'w+2=trade'
p445
aS'w+2=travel'
p446
aS'w+2=up'
p447
aS'w+2=veil'
p448
aS'w+2=we'
p449
aS'w+2=while'
p450
aS'w-1=,'
p451
aS'w-1=.'
p452
aS'w-1=Atlantis'
p453
aS'w-1=Council'
p454
aS'w-1=I'
p455
aS'w-1=Indonesia'
p456
aS'w-1=Islamabad'
p457
aS'w-1=Israel'
p458
aS'w-1=Musharraf'
p459
aS'w-1=Nations'
p460
aS'w-1=Senate'
p461
aS'w-1=States'
p462
aS'w-1=Thursday'
p463
aS'w-1=U.N.'
p464
aS'w-1=U.S.'
p465
aS'w-1=Washington'
p466
aS'w-1=a'
p467
aS'w-1=about'
p468
aS'w-1=actually'
p469
aS'w-1=agency'
p470
aS'w-1=also'
p471
aS'w-1=and'
p472
aS'w-1=be'
p473
aS'w-1=before'
p474
aS'w-1=burden'
p475
aS'w-1=by'
p476
aS'w-1=can'
p477
aS'w-1=decree'
p478
aS'w-1=during'
p479
aS'w-1=even'
p480
aS'w-1=experience'
p481
aS'w-1=favor'
p482
aS'w-1=for'
p483
aS'w-1=from'
p484
aS'w-1=government'
p485
aS'w-1=gunman'
p486
aS'w-1=have'
p487
aS'w-1=he'
p488
aS'w-1=heavy'
p489
aS'w-1=help'
p490
aS'w-1=hurriedly'
p491
aS'w-1=immediately'
p492
aS'w-1=include'
p493
aS'w-1=it'
p494
aS'w-1=make'
p495
aS'w-1=million'
p496
aS'w-1=never'
p497
aS'w-1=not'
p498
aS'w-1=of'
p499
aS'w-1=office'
p500
aS'w-1=on'
p501
aS'w-1=or'
p502
aS'w-1=partially'
p503
aS'w-1=provision'
p504
aS'w-1=quickly'
p505
aS'w-1=recently'
p506
aS'w-1=risk'
p507
aS'w-1=rule'
p508
aS'w-1=sanction'
p509
aS'w-1=say'
p510
aS'w-1=support'
p511
aS'w-1=temporarily'
p512
aS'w-1=that'
p513
aS'w-1=they'
p514
aS'w-1=thing'
p515
aS'w-1=to'
p516
aS'w-1=toward'
p517
aS'w-1=traveler'
p518
aS'w-1=veil'
p519
aS'w-1=we'
p520
aS'w-1=will'
p521
aS'w-1=would'
p522
aS"w-2=''"
p523
aS"w-2='s"
p524
aS'w-2=,'
p525
aS'w-2=-rrb-'
p526
aS'w-2=.'
p527
aS'w-2=2001'
p528
aS'w-2=2005'
p529
aS'w-2=Bangladesh'
p530
aS'w-2=Congress'
p531
aS'w-2=Endeavour'
p532
aS'w-2=Gaza'
p533
aS'w-2=Georgia'
p534
aS'w-2=Iraq'
p535
aS'w-2=Israel'
p536
aS'w-2=Japan'
p537
aS'w-2=Musharraf'
p538
aS'w-2=Nations'
p539
aS'w-2=Palestinians'
p540
aS'w-2=President'
p541
aS'w-2=Salazar'
p542
aS'w-2=Security'
p543
aS'w-2=States'
p544
aS'w-2=Thursday'
p545
aS'w-2=United'
p546
aS'w-2=Whitson'
p547
aS'w-2=a'
p548
aS'w-2=acrobatics'
p549
aS'w-2=action'
p550
aS'w-2=administration'
p551
aS'w-2=afford'
p552
aS'w-2=after'
p553
aS'w-2=ago'
p554
aS'w-2=also'
p555
aS'w-2=and'
p556
aS'w-2=another'
p557
aS'w-2=area'
p558
aS'w-2=as'
p559
aS'w-2=authority'
p560
aS'w-2=ban'
p561
aS'w-2=be'
p562
aS'w-2=by'
p563
aS'w-2=call'
p564
aS'w-2=can'
p565
aS'w-2=care'
p566
aS'w-2=community'
p567
aS'w-2=concession'
p568
aS'w-2=condition'
p569
aS'w-2=constitution'
p570
aS'w-2=continue'
p571
aS'w-2=could'
p572
aS'w-2=crucial'
p573
aS'w-2=curfew'
p574
aS'w-2=deadline'
p575
aS'w-2=debt'
p576
aS'w-2=decision'
p577
aS'w-2=demand'
p578
aS'w-2=do'
p579
aS'w-2=economy'
p580
aS'w-2=effort'
p581
aS'w-2=embargo'
p582
aS'w-2=emergency'
p583
aS'w-2=facility'
p584
aS'w-2=fail'
p585
aS'w-2=figure'
p586
aS'w-2=financial'
p587
aS'w-2=go'
p588
aS'w-2=good'
p589
aS'w-2=government'
p590
aS'w-2=hand'
p591
aS'w-2=have'
p592
aS'w-2=he'
p593
aS'w-2=help'
p594
aS'w-2=hope'
p595
aS'w-2=immediate'
p596
aS'w-2=in'
p597
aS'w-2=introduce'
p598
aS'w-2=it'
p599
aS'w-2=joy'
p600
aS'w-2=judge'
p601
aS'w-2=key'
p602
aS'w-2=land'
p603
aS'w-2=law'
p604
aS'w-2=least'
p605
aS'w-2=lift'
p606
aS'w-2=loose'
p607
aS'w-2=movement'
p608
aS'w-2=must'
p609
aS'w-2=nation'
p610
aS'w-2=need'
p611
aS'w-2=not'
p612
aS'w-2=now'
p613
aS'w-2=offer'
p614
aS'w-2=official'
p615
aS'w-2=on'
p616
aS'w-2=only'
p617
aS'w-2=parliament'
p618
aS'w-2=people'
p619
aS'w-2=plan'
p620
aS'w-2=pledge'
p621
aS'w-2=policy'
p622
aS'w-2=potential'
p623
aS'w-2=prepare'
p624
aS'w-2=pressure'
p625
aS'w-2=probably'
p626
aS'w-2=proposal'
p627
aS'w-2=prospect'
p628
aS'w-2=rate'
p629
aS'w-2=refuse'
p630
aS'w-2=roadblock'
p631
aS'w-2=rule'
p632
aS'w-2=run'
p633
aS'w-2=sanction'
p634
aS'w-2=say'
p635
aS'w-2=secularism'
p636
aS'w-2=should'
p637
aS'w-2=siege'
p638
aS'w-2=since'
p639
aS'w-2=space'
p640
aS'w-2=spending'
p641
aS'w-2=spirit'
p642
aS'w-2=step'
p643
aS'w-2=stress'
p644
aS'w-2=territory'
p645
aS'w-2=that'
p646
aS'w-2=the'
p647
aS'w-2=these'
p648
aS'w-2=they'
p649
aS'w-2=think'
p650
aS'w-2=those'
p651
aS'w-2=to'
p652
aS'w-2=tolerance'
p653
aS'w-2=try'
p654
aS'w-2=unless'
p655
aS'w-2=unlikely'
p656
aS'w-2=veil'
p657
aS'w-2=vote'
p658
aS'w-2=we'
p659
aS'w-2=week'
p660
aS'w-2=while'
p661
aS'w-2=will'
p662
aS'w-2=woman'
p663
aS'w-2=work'
p664
aS'w-2=would'
p665
aS'w-2=x-1'
p666
aS'w-2=yet'
p667
aS'w-2=zero'
p668
aS'xcomp=allow'
p669
aS'xcomp=carry'
p670
aS'xcomp=ensure'
p671
aS'xcomp=expand'
p672
aS'xcomp=put'
p673
aS'xcomp=show'
p674
aS'xcomp=step'
p675
aS'xcomp=target'
p676
asS'dtype'
p677
cnumpy
float64
p678
sS'vocabulary_'
p679
(dp680
g44
I35
sg252
I243
sg453
I444
sg416
I407
sg292
I283
sg607
I598
sg143
I134
sg551
I542
sg619
I610
sg295
I286
sg497
I488
sg653
I644
sg202
I193
sg352
I343
sg347
I338
sg321
I312
sg372
I363
sg614
I605
sg298
I289
sg676
I667
sg154
I145
sg611
I602
sg649
I640
sg639
I630
sg622
I613
sg253
I244
sg457
I448
sg265
I256
sg165
I156
sg241
I232
sg630
I621
sg208
I199
sg97
I88
sg479
I470
sg522
I513
sg240
I231
sg375
I366
sg542
I533
sg254
I245
sg582
I573
sg337
I328
sg417
I408
sg222
I213
sg549
I540
sg521
I512
sg566
I557
sg534
I525
sg446
I437
sg411
I402
sg608
I599
sg476
I467
sg269
I260
sg473
I464
sg83
I74
sg235
I226
sg383
I374
sg15
I6
sg293
I284
sg530
I521
sg647
I638
sg191
I182
sg532
I523
sg645
I636
sg189
I180
sg559
I550
sg585
I576
sg327
I318
sg377
I368
sg528
I519
sg155
I146
sg42
I33
sg207
I198
sg181
I172
sg317
I308
sg401
I392
sg35
I26
sg487
I478
sg243
I234
sg215
I206
sg349
I340
sg402
I393
sg660
I651
sg631
I622
sg406
I397
sg595
I586
sg192
I183
sg627
I618
sg617
I608
sg330
I321
sg32
I23
sg471
I462
sg48
I39
sg72
I63
sg160
I151
sg87
I78
sg512
I503
sg270
I261
sg667
I658
sg84
I75
sg262
I253
sg581
I572
sg646
I637
sg335
I326
sg540
I531
sg466
I457
sg378
I369
sg20
I11
sg33
I24
sg430
I421
sg448
I439
sg338
I329
sg193
I184
sg464
I455
sg339
I330
sg37
I28
sg223
I214
sg90
I81
sg278
I269
sg257
I248
sg56
I47
sg136
I127
sg300
I291
sg468
I459
sg668
I659
sg77
I68
sg424
I415
sg199
I190
sg82
I73
sg305
I296
sg24
I15
sg600
I591
sg484
I475
sg171
I162
sg148
I139
sg117
I108
sg63
I54
sg282
I273
sg458
I449
sg623
I614
sg283
I274
sg88
I79
sg128
I119
sg36
I27
sg127
I118
sg218
I209
sg494
I485
sg179
I170
sg445
I436
sg561
I552
sg267
I258
sg112
I103
sg475
I466
sg320
I311
sg432
I423
sg43
I34
sg449
I440
sg119
I110
sg547
I538
sg11
I2
sg526
I517
sg435
I426
sg461
I452
sg543
I534
sg178
I169
sg664
I655
sg306
I297
sg632
I623
sg316
I307
sg605
I596
sg606
I597
sg110
I101
sg228
I219
sg261
I252
sg19
I10
sg519
I510
sg567
I558
sg554
I545
sg152
I143
sg634
I625
sg669
I660
sg76
I67
sg586
I577
sg374
I365
sg220
I211
sg170
I161
sg444
I435
sg616
I607
sg516
I507
sg436
I427
sg212
I203
sg659
I650
sg116
I107
sg579
I570
sg204
I195
sg624
I615
sg628
I619
sg17
I8
sg325
I316
sg194
I185
sg195
I186
sg673
I664
sg93
I84
sg362
I353
sg644
I635
sg569
I560
sg373
I364
sg509
I500
sg27
I18
sg450
I441
sg472
I463
sg284
I275
sg557
I548
sg105
I96
sg469
I460
sg361
I352
sg147
I138
sg301
I292
sg425
I416
sg336
I327
sg538
I529
sg177
I168
sg391
I382
sg413
I404
sg85
I76
sg460
I451
sg225
I216
sg477
I468
sg615
I606
sg601
I592
sg441
I432
sg132
I123
sg214
I205
sg133
I124
sg351
I342
sg162
I153
sg571
I562
sg169
I160
sg13
I4
sg233
I224
sg46
I37
sg294
I285
sg103
I94
sg334
I325
sg376
I367
sg255
I246
sg602
I593
sg12
I3
sg343
I334
sg290
I281
sg109
I100
sg353
I344
sg291
I282
sg438
I429
sg57
I48
sg94
I85
sg125
I116
sg205
I196
sg360
I351
sg331
I322
sg546
I537
sg596
I587
sg638
I629
sg609
I600
sg296
I287
sg641
I632
sg510
I501
sg187
I178
sg625
I616
sg31
I22
sg311
I302
sg674
I665
sg587
I578
sg10
I1
sg371
I362
sg314
I305
sg65
I56
sg289
I280
sg271
I262
sg123
I114
sg656
I647
sg626
I617
sg70
I61
sg242
I233
sg415
I406
sg420
I411
sg403
I394
sg523
I514
sg209
I200
sg190
I181
sg418
I409
sg553
I544
sg419
I410
sg340
I331
sg400
I391
sg121
I112
sg236
I227
sg232
I223
sg397
I388
sg328
I319
sg258
I249
sg156
I147
sg324
I315
sg408
I399
sg422
I413
sg367
I358
sg217
I208
sg157
I148
sg98
I89
sg524
I515
sg275
I266
sg393
I384
sg537
I528
sg96
I87
sg130
I121
sg489
I480
sg348
I339
sg573
I564
sg433
I424
sg588
I579
sg149
I140
sg309
I300
sg140
I131
sg576
I567
sg234
I225
sg665
I656
sg341
I332
sg102
I93
sg507
I498
sg385
I376
sg276
I267
sg390
I381
sg511
I502
sg508
I499
sg287
I278
sg640
I631
sg535
I526
sg45
I36
sg66
I57
sg629
I620
sg264
I255
sg26
I17
sg315
I306
sg428
I419
sg150
I141
sg167
I158
sg145
I136
sg183
I174
sg355
I346
sg50
I41
sg515
I506
sg126
I117
sg454
I445
sg555
I546
sg55
I46
sg28
I19
sg431
I422
sg568
I559
sg558
I549
sg64
I55
sg198
I189
sg369
I360
sg60
I51
sg226
I217
sg395
I386
sg423
I414
sg620
I611
sg394
I385
sg517
I508
sg40
I31
sg636
I627
sg439
I430
sg80
I71
sg597
I588
sg506
I497
sg69
I60
sg389
I380
sg610
I601
sg599
I590
sg39
I30
sg381
I372
sg382
I373
sg440
I431
sg251
I242
sg470
I461
sg197
I188
sg318
I309
sg618
I609
sg244
I235
sg78
I69
sg79
I70
sg206
I197
sg346
I337
sg666
I657
sg122
I113
sg651
I642
sg23
I14
sg114
I105
sg139
I130
sg266
I257
sg299
I290
sg663
I654
sg144
I135
sg580
I571
sg544
I535
sg462
I453
sg564
I555
sg592
I583
sg58
I49
sg358
I349
sg263
I254
sg129
I120
sg380
I371
sg288
I279
sg332
I323
sg354
I345
sg118
I109
sg153
I144
sg574
I565
sg529
I520
sg286
I277
sg297
I288
sg141
I132
sg239
I230
sg584
I575
sg384
I375
sg304
I295
sg277
I268
sg313
I304
sg386
I377
sg91
I82
sg307
I298
sg531
I522
sg172
I163
sg310
I301
sg182
I173
sg188
I179
sg101
I92
sg25
I16
sg642
I633
sg500
I491
sg104
I95
sg59
I50
sg227
I218
sg89
I80
sg456
I447
sg115
I106
sg490
I481
sg49
I40
sg463
I454
sg541
I532
sg99
I90
sg108
I99
sg166
I157
sg672
I663
sg648
I639
sg176
I167
sg603
I594
sg219
I210
sg52
I43
sg322
I313
sg333
I324
sg495
I486
sg459
I450
sg344
I335
sg560
I551
sg575
I566
sg562
I553
sg578
I569
sg259
I250
sg398
I389
sg366
I357
sg260
I251
sg173
I164
sg186
I177
sg427
I418
sg518
I509
sg272
I263
sg399
I390
sg61
I52
sg563
I554
sg18
I9
sg590
I581
sg486
I477
sg572
I563
sg74
I65
sg550
I541
sg159
I150
sg392
I383
sg388
I379
sg38
I29
sg9
I0
sg281
I272
sg633
I624
sg583
I574
sg221
I212
sg75
I66
sg67
I58
sg442
I433
sg652
I643
sg437
I428
sg111
I102
sg501
I492
sg591
I582
sg164
I155
sg502
I493
sg203
I194
sg447
I438
sg503
I494
sg163
I154
sg387
I378
sg539
I530
sg655
I646
sg604
I595
sg421
I412
sg621
I612
sg365
I356
sg268
I259
sg556
I547
sg492
I483
sg342
I333
sg158
I149
sg22
I13
sg658
I649
sg654
I645
sg120
I111
sg71
I62
sg142
I133
sg533
I524
sg100
I91
sg273
I264
sg124
I115
sg593
I584
sg552
I543
sg231
I222
sg30
I21
sg635
I626
sg92
I83
sg404
I395
sg137
I128
sg443
I434
sg250
I241
sg662
I653
sg249
I240
sg525
I516
sg527
I518
sg675
I666
sg161
I152
sg426
I417
sg345
I336
sg51
I42
sg650
I641
sg452
I443
sg451
I442
sg612
I603
sg613
I604
sg661
I652
sg21
I12
sg238
I229
sg138
I129
sg671
I662
sg405
I396
sg41
I32
sg577
I568
sg134
I125
sg491
I482
sg370
I361
sg455
I446
sg53
I44
sg16
I7
sg396
I387
sg14
I5
sg499
I490
sg323
I314
sg670
I661
sg548
I539
sg514
I505
sg211
I202
sg113
I104
sg467
I458
sg536
I527
sg363
I354
sg285
I276
sg481
I472
sg175
I166
sg488
I479
sg478
I469
sg474
I465
sg29
I20
sg184
I175
sg359
I350
sg168
I159
sg326
I317
sg73
I64
sg657
I648
sg589
I580
sg247
I238
sg237
I228
sg570
I561
sg146
I137
sg379
I370
sg229
I220
sg86
I77
sg245
I236
sg248
I239
sg201
I192
sg224
I215
sg312
I303
sg414
I405
sg434
I425
sg180
I171
sg135
I126
sg356
I347
sg429
I420
sg480
I471
sg485
I476
sg256
I247
sg34
I25
sg594
I585
sg280
I271
sg95
I86
sg81
I72
sg412
I403
sg520
I511
sg54
I45
sg496
I487
sg637
I628
sg407
I398
sg62
I53
sg504
I495
sg565
I556
sg151
I142
sg200
I191
sg329
I320
sg483
I474
sg274
I265
sg319
I310
sg598
I589
sg106
I97
sg350
I341
sg302
I293
sg643
I634
sg185
I176
sg465
I456
sg308
I299
sg230
I221
sg505
I496
sg545
I536
sg409
I400
sg174
I165
sg213
I204
sg246
I237
sg131
I122
sg410
I401
sg279
I270
sg196
I187
sg498
I489
sg303
I294
sg216
I207
sg364
I355
sg68
I59
sg493
I484
sg513
I504
sg47
I38
sg107
I98
sg368
I359
sg357
I348
sg210
I201
sg482
I473
ssS'separator'
p681
S'='
sS'sparse'
p682
I01
sb.