ccopy_reg
_reconstructor
p1
(csklearn.feature_extraction.dict_vectorizer
DictVectorizer
p2
c__builtin__
object
p3
NtRp4
(dp5
S'sort'
p6
I01
sS'feature_names_'
p7
(lp8
S'advcl=begin'
p9
aS'advmod=rapidly'
p10
aS'advmod=up'
p11
aS'amod=leftward'
p12
aS'amod=pro-western'
p13
aS'aux=could'
p14
aS'cc=and'
p15
aS'ccomp=reveal'
p16
aS'conj=not'
p17
aS'conj=pull'
p18
aS'det=a'
p19
aS'dobj=cabin'
p20
aS'dobj=scale'
p21
aS'nsubj=#PRP#'
p22
aS'nsubj=clutch'
p23
aS'nsubj=worker'
p24
aS'prep=before'
p25
aS'prep=in'
p26
aS'prep=include'
p27
aS'prep=of'
p28
aS'prep=toward'
p29
aS'prep=towards'
p30
aS'w+1=,'
p31
aS'w+1=in'
p32
aS'w+1=rotor'
p33
aS'w+1=the'
p34
aS'w+1=to'
p35
aS'w+1=toward'
p36
aS'w+1=towards'
p37
aS'w+2=America'
p38
aS'w+2=aircraft'
p39
aS'w+2=build'
p40
aS'w+2=cabin'
p41
aS'w+2=include'
p42
aS'w+2=motor'
p43
aS'w+2=one'
p44
aS'w+2=scale'
p45
aS'w+2=the'
p46
aS'w-1=a'
p47
aS'w-1=and'
p48
aS'w-1=as'
p49
aS'w-1=begin'
p50
aS'w-1=commercial'
p51
aS'w-1=could'
p52
aS'w-1=leftward'
p53
aS'w-1=pro-western'
p54
aS'w-1=smaller'
p55
aS'w-1=we'
p56
aS'w-1=worker'
p57
aS'w-2=.'
p58
aS'w-2=a'
p59
aS'w-2=and'
p60
aS'w-2=camp'
p61
aS'w-2=larger'
p62
aS'w-2=much'
p63
aS'w-2=party'
p64
aS'w-2=see'
p65
aS'w-2=very'
p66
aS'w-2=where'
p67
asS'dtype'
p68
cnumpy
float64
p69
sS'vocabulary_'
p70
(dp71
g21
I12
sg65
I56
sg25
I16
sg9
I0
sg17
I8
sg11
I2
sg49
I40
sg30
I21
sg39
I30
sg56
I47
sg43
I34
sg20
I11
sg51
I42
sg42
I33
sg29
I20
sg63
I54
sg46
I37
sg13
I4
sg66
I57
sg64
I55
sg16
I7
sg58
I49
sg18
I9
sg24
I15
sg14
I5
sg31
I22
sg41
I32
sg62
I53
sg55
I46
sg35
I26
sg27
I18
sg15
I6
sg52
I43
sg36
I27
sg48
I39
sg34
I25
sg10
I1
sg67
I58
sg57
I48
sg53
I44
sg40
I31
sg33
I24
sg44
I35
sg45
I36
sg23
I14
sg60
I51
sg37
I28
sg50
I41
sg28
I19
sg26
I17
sg12
I3
sg59
I50
sg32
I23
sg38
I29
sg61
I52
sg19
I10
sg47
I38
sg22
I13
sg54
I45
ssS'separator'
p72
S'='
sS'sparse'
p73
I01
sb.