ccopy_reg
_reconstructor
p1
(csklearn.feature_extraction.dict_vectorizer
DictVectorizer
p2
c__builtin__
object
p3
NtRp4
(dp5
S'vocabulary_'
p6
(dp7
S'advmod=then'
p8
I7
sS'amod=small'
p9
I20
sS'w+1=earlier'
p10
I155
sS'w+2=consider'
p11
I225
sS'w-1=jetliner'
p12
I312
sS'nsubj=currency'
p13
I84
sS'nsubj=wave'
p14
I102
sS'dobj=percent'
p15
I52
sS'w-2=Friday'
p16
I348
sS'w-2=road'
p17
I406
sS'w-1=Airbus'
p18
I278
sS'w+2=Paris'
p19
I207
sS'w+2=takeoff'
p20
I260
sS'nn=share'
p21
I71
sS'nn=France'
p22
I61
sS'w-2=open'
p23
I400
sS'ccomp=first'
p24
I32
sS'nsubj=dollar'
p25
I86
sS'w+2=mark'
p26
I244
sS'w+1=that'
p27
I179
sS'w-2=computer'
p28
I366
sS'w-1=market'
p29
I315
sS'w+1=investigation'
p30
I162
sS'nsubj=hijacker'
p31
I91
sS'w-1=France'
p32
I280
sS'w+2=recent'
p33
I253
sS'w+1=only'
p34
I170
sS'w-2=from'
p35
I380
sS'w+2=well'
p36
I270
sS'tmod=year'
p37
I130
sS'w+2=train'
p38
I268
sS'w-2=Air'
p39
I344
sS'w-1=result'
p40
I320
sS'w+2=approximately'
p41
I220
sS'w+1=continue'
p42
I150
sS'w-2=the'
p43
I419
sS'w+1=she'
p44
I174
sS'advmod=earlier'
p45
I5
sS'w-1=dignitary'
p46
I300
sS'w-2=where'
p47
I427
sS'w-2=largest'
p48
I392
sS'w+2=Italy'
p49
I202
sS'amod=huge'
p50
I14
sS'w+1=of'
p51
I168
sS'w+2=technical'
p52
I261
sS'w-1=airplane'
p53
I284
sS'tmod=morning'
p54
I128
sS'w+2=to'
p55
I266
sS'w+1=on'
p56
I169
sS'w+2=cause'
p57
I223
sS'w+2=last'
p58
I242
sS'w+1=or'
p59
I171
sS'w-2=fatal'
p60
I376
sS'w-1=have'
p61
I308
sS'nsubj=rocket'
p62
I95
sS'w+2=in'
p63
I236
sS'w+1=victim'
p64
I184
sS'w+2=it'
p65
I239
sS'nsubj=saucer'
p66
I97
sS'w-1=com'
p67
I293
sS'w-1=could'
p68
I297
sS'prep=about'
p69
I109
sS'w-1=which'
p70
I336
sS'w+1=aboard'
p71
I134
sS'w+2=Sao'
p72
I209
sS'w+1=alien'
p73
I139
sS'conj=fire'
p74
I37
sS'nn=wave'
p75
I75
sS'w-1=train'
p76
I333
sS'w+1=tell'
p77
I178
sS'w-2=that'
p78
I418
sS'w+1=the'
p79
I180
sS'w-2=dot'
p80
I373
sS'w+2=take'
p81
I259
sS'w-2=for'
p82
I379
sS'w+2=be'
p83
I222
sS'w-2=indonesian'
p84
I387
sS'w-2=balloon'
p85
I360
sS'prep=in'
p86
I115
sS'w-2=into'
p87
I388
sS'w+2=still'
p88
I257
sS'w-2=saucer'
p89
I410
sS'dep=into'
p90
I44
sS'w+2=top'
p91
I267
sS'w-2=Liberia'
p92
I351
sS'w-2=investigate'
p93
I389
sS'prep=to'
p94
I122
sS'nn=airplane'
p95
I63
sS'w-2=suicide'
p96
I416
sS'advmod=ago'
p97
I3
sS'w+1=and'
p98
I141
sS'w+2=fog'
p99
I230
sS'w-2=1987'
p100
I341
sS'w+2=for'
p101
I231
sS'w-2=currency'
p102
I368
sS'nsubj=that'
p103
I100
sS'w-1=it'
p104
I311
sS'poss=#DATE#'
p105
I105
sS'w-2=several'
p106
I412
sS'w-2=164'
p107
I340
sS'w-2=third'
p108
I421
sS'w-1=the'
p109
I328
sS'w-2=confirm'
p110
I367
sS'mark=if'
p111
I58
sS'w+2=power'
p112
I252
sS'w+2=Indonesia'
p113
I200
sS'w-2=disaster'
p114
I370
sS'advmod=where'
p115
I9
sS'w-2=cause'
p116
I365
sS'w-1=explosive'
p117
I303
sS'w-2=they'
p118
I420
sS'w-1=Antonov'
p119
I279
sS'dep=say'
p120
I45
sS'w+1=death'
p121
I152
sS'amod=result'
p122
I18
sS'w+1=have'
p123
I158
sS'dobj=plane'
p124
I53
sS'det=the'
p125
I49
sS'dobj=head'
p126
I50
sS'w+2=kill'
p127
I240
sS'w+2=cover'
p128
I226
sS'w-2=of'
p129
I399
sS'nn=system'
p130
I72
sS'nn=traffic'
p131
I73
sS'w-1=to'
p132
I330
sS'w-1=supporter'
p133
I325
sS'w-2=do'
p134
I371
sS'w-1=wave'
p135
I335
sS'w+2=here'
p136
I234
sS'w-2=attack'
p137
I359
sS'w+1=as'
p138
I143
sS'w+1=at'
p139
I144
sS'w-1=car'
p140
I292
sS'w+1=he'
p141
I159
sS'w+2=all'
p142
I217
sS'amod=fatal'
p143
I11
sS'w-2=Airways'
p144
I345
sS'w-2=huge'
p145
I385
sS'w-2=palestinian'
p146
I403
sS'w+1=through'
p147
I182
sS'conj=harm'
p148
I38
sS'w-2=small'
p149
I413
sS'advmod=when'
p150
I8
sS'nn=air'
p151
I62
sS'w-1=hijacker'
p152
I310
sS'nn=market'
p153
I68
sS'w+2=percent'
p154
I251
sS'nsubj=force'
p155
I88
sS'w+2=Saturday'
p156
I210
sS'w+2=as'
p157
I221
sS'w-2=survive'
p158
I417
sS'w+2=include'
p159
I237
sS'nsubj=bus'
p160
I83
sS'w+2=Madrid'
p161
I204
sS'w+2=amid'
p162
I218
sS"w-1='s"
p163
I275
sS'dep=#DATE#'
p164
I42
sS'w+2=after'
p165
I216
sS'xcomp=explode'
p166
I429
sS'nsubj=jetliner'
p167
I93
sS'w+1=landing'
p168
I164
sS'w+2=Thursday'
p169
I213
sS'w+1=plane'
p170
I173
sS'nsubj=#NUMBER#'
p171
I76
sS'w+1=near'
p172
I166
sS'w+2=New'
p173
I205
sS'w+2=with'
p174
I272
sS'advcl=sleep'
p175
I1
sS'w+2=Earth'
p176
I198
sS'w+2=sport'
p177
I256
sS'w-2=local'
p178
I393
sS'w-2=up'
p179
I425
sS'w-1=road'
p180
I321
sS'w-2=Belarus'
p181
I346
sS'w-1=rocket'
p182
I322
sS'w+2=unprecedented'
p183
I269
sS'w+2=Israel'
p184
I201
sS'nsubj=plane'
p185
I94
sS'w-1=kingship'
p186
I313
sS'w+2=year'
p187
I273
sS'w-2=antonov-26'
p188
I356
sS'dobj=vehicle'
p189
I55
sS'w-1=fatal'
p190
I304
sS'w-2=land'
p191
I391
sS'w-2=month'
p192
I395
sS'w+1=shortly'
p193
I175
sS'w-1=air'
p194
I283
sS'w-2=Wednesday'
p195
I352
sS'nsubj=this'
p196
I101
sS'w-2=uh-60'
p197
I424
sS'w+2=of'
p198
I249
sS'w-2=after'
p199
I354
sS'w+2=on'
p200
I250
sS'w+1=to'
p201
I183
sS'det=that'
p202
I48
sS'w+2=close'
p203
I224
sS'amod=major'
p204
I16
sS'w-1=and'
p205
I285
sS'prep=into'
p206
I116
sS'w+2=head'
p207
I233
sS'nsubj=another'
p208
I82
sS'w-1=come'
p209
I294
sS'w+2=about'
p210
I215
sS'w-1=cyclone'
p211
I299
sS'w+2=September'
p212
I212
sS"w-2='s"
p213
I337
sS'w-2=when'
p214
I426
sS'nsubj=satellite'
p215
I96
sS'w-2=overloaded'
p216
I402
sS'nn=plane'
p217
I69
sS'w-1=automobile'
p218
I287
sS'w+1=kill'
p219
I163
sS'amod=tragic'
p220
I22
sS'w+1=because'
p221
I146
sS'w+2=Brazil'
p222
I197
sS'w-1=be'
p223
I288
sS'w-2=23-year-old'
p224
I343
sS'w+1=over'
p225
I172
sS'amod=fiery'
p226
I12
sS'nsubj=accident'
p227
I80
sS'w+2=craft'
p228
I227
sS'xcomp=kill'
p229
I430
sS'w+2=this'
p230
I265
sS'w+1=since'
p231
I176
sS'w-2=2020'
p232
I342
sS'w-2=expect'
p233
I375
sS'prep=while'
p234
I123
sS'aux=do'
p235
I26
sS'w+2=landing'
p236
I241
sS'w+2=local'
p237
I243
sS'nsubj=index'
p238
I92
sS'w-2=with'
p239
I428
sS'w+2=rescue'
p240
I255
sS'w-2=three'
p241
I422
sS'w-1=blast'
p242
I290
sS'dobj=summit'
p243
I54
sS'amod=global'
p244
I13
sS'prep=with'
p245
I124
sS'cc=or'
p246
I31
sS'w-1=most'
p247
I316
sS'w-2=recover'
p248
I405
sS'w+2=minute'
p249
I246
sS'w+1=area'
p250
I142
sS'w-2=in'
p251
I386
sS'w-2=day'
p252
I369
sS'dep=year'
p253
I46
sS'nsubj=Airbus'
p254
I78
sS'w-1=computer'
p255
I296
sS'prep=because'
p256
I112
sS'w+2=neighbor'
p257
I247
sS'nsubj=airplane'
p258
I81
sS'w+2=northern'
p259
I248
sS'w+2=Schwarz'
p260
I211
sS'w+2=January'
p261
I203
sS'nn=car'
p262
I64
sS'w-1=various'
p263
I334
sS'w-1=helicopter'
p264
I309
sS'w-2=transport'
p265
I423
sS'w-1=crewmember'
p266
I298
sS'dep=explode'
p267
I43
sS'advmod=why'
p268
I10
sS'w-2=have'
p269
I381
sS'cc=and'
p270
I29
sS'amod=most'
p271
I17
sS'w-2=runway'
p272
I408
sS'w-2=January'
p273
I350
sS'w+1=by'
p274
I148
sS'w+1=will'
p275
I188
sS'w+1=be'
p276
I145
sS'tmod=night'
p277
I129
sS'w-1=but'
p278
I291
sS'w+2=remain'
p279
I254
sS'w-1=fiery'
p280
I305
sS'nsubj=flight'
p281
I87
sS'w+1=in'
p282
I160
sS'nn=com'
p283
I65
sS'nsubj=#PRP#'
p284
I77
sS'w-1=latest'
p285
I314
sS'w+1=about'
p286
I135
sS'advmod=early'
p287
I6
sS'poss=month'
p288
I108
sS'w+1=into'
p289
I161
sS'w-2=fiery'
p290
I377
sS'nsubj=tank'
p291
I99
sS'cc=but'
p292
I30
sS'poss=#PRP#'
p293
I106
sS'w+1=against'
p294
I138
sS'aux=could'
p295
I25
sS'w-1=company'
p296
I295
sS'w-1=share'
p297
I323
sS'advcl=slide'
p298
I2
sS'w+1=account'
p299
I136
sS'w+1=come'
p300
I149
sS'w-2=stock'
p301
I414
sS'w-2=rocket'
p302
I407
sS'w-1=site'
p303
I324
sS'appos=worker'
p304
I23
sS'w-2=hijack'
p305
I384
sS'w-1=traffic'
p306
I331
sS'w-2=be'
p307
I361
sS'prep=of'
p308
I118
sS'prep=on'
p309
I119
sS'mark=after'
p310
I57
sS'w-1=economy'
p311
I301
sS'nn=computer'
p312
I67
sS'nsubj=fuel'
p313
I89
sS'w-2=street'
p314
I415
sS'w-1=Strip'
p315
I281
sS'w-2=by'
p316
I363
sS'nsubj=which'
p317
I103
sS'poss=Indonesia'
p318
I107
sS'conj=take'
p319
I39
sS'num=#NUMBER#'
p320
I104
sS'w-2=escape'
p321
I374
sS'w+1=10.4'
p322
I133
sS'w+2=hit'
p323
I235
sS'nsubj=Antonov'
p324
I79
sS'conj=act'
p325
I34
sS'w+2=that'
p326
I262
sS'nn=company'
p327
I66
sS'w+1=course'
p328
I151
sS'w-1=tragic'
p329
I332
sS'nn=#DATE#'
p330
I60
sS'w+2=eastern'
p331
I229
sS'w-1=flight'
p332
I306
sS'nsubj=system'
p333
I98
sS'w+1=site'
p334
I177
sS'w+2=and'
p335
I219
sS'tmod=#DATE#'
p336
I127
sS'w-2=and'
p337
I355
sS'w+1=while'
p338
I187
sS'neg=not'
p339
I59
sS'dobj=minute'
p340
I51
sS'w+1=this'
p341
I181
sS'cop=be'
p342
I41
sS'amod=latest'
p343
I15
sS'w-2=he'
p344
I382
sS'prep=since'
p345
I120
sS'w+1=with'
p346
I189
sS'w-2=say'
p347
I411
sS'w+1=occur'
p348
I167
sS'w+2=into'
p349
I238
sS'w+2=Nigeria'
p350
I206
sS'prep=at'
p351
I111
sS'w-2=,'
p352
I338
sS'w-2=.'
p353
I339
sS'w-1=1'
p354
I277
sS'aux=have'
p355
I27
sS'w+2=18'
p356
I193
sS'w-1=explosion'
p357
I302
sS'w-1=,'
p358
I276
sS'w-2=not'
p359
I398
sS'conj=explode'
p360
I36
sS'w+1=every'
p361
I157
sS'w-2=at'
p362
I358
sS'w-2=as'
p363
I357
sS'w-2=nepali'
p364
I397
sS'w-2=Gaza'
p365
I349
sS'prep=through'
p366
I121
sS'w-2=follow'
p367
I378
sS'nn=train'
p368
I74
sS'w-2=other'
p369
I401
sS'w+2=1987'
p370
I195
sS'w+2=1986'
p371
I194
sS'complm=that'
p372
I33
sS'w+1=during'
p373
I154
sS'w-1=system'
p374
I326
sS'w+2=199'
p375
I196
sS'w+1=down'
p376
I153
sS'w-2=a'
p377
I353
sS'det=a'
p378
I47
sS'w-1=a'
p379
I282
sS'w-2=job'
p380
I390
sS'w-2=plane'
p381
I404
sS'w-1=before'
p382
I289
sS'conj=cover-up'
p383
I35
sS'w-2=major'
p384
I394
sS'dobj=wave'
p385
I56
sS'w+2=describe'
p386
I228
sS'w+2=they'
p387
I264
sS'amod=several'
p388
I19
sS'amod=third'
p389
I21
sS'w-2=satellite'
p390
I409
sS'prep=after'
p391
I110
sS'w+1=wave'
p392
I185
sS'w+2=have'
p393
I232
sS'w-2=near'
p394
I396
sS'nn=road'
p395
I70
sS'w-1=thunder'
p396
I329
sS'w+1=last'
p397
I165
sS'w+2=will'
p398
I271
sS'advmod=before'
p399
I4
sS'nsubj=cyclone'
p400
I85
sS'w+2=you'
p401
I274
sS'w+2=summit'
p402
I258
sS'prep=from'
p403
I114
sS'w-1=plane'
p404
I319
sS'w+1=after'
p405
I137
sS'w+1=when'
p406
I186
sS'aux=to'
p407
I28
sS'w+1=before'
p408
I147
sS'w+2=the'
p409
I263
sS'w-2=car'
p410
I364
sS'rcmod=kill'
p411
I126
sS'w-1=for'
p412
I307
sS'w+1=,'
p413
I131
sS'w+1=alive'
p414
I140
sS'w+1=.'
p415
I132
sS'w-1=old'
p416
I318
sS'w+2=.'
p417
I192
sS'w+2=,'
p418
I190
sS'w+2=-'
p419
I191
sS'w-2=helicopter'
p420
I383
sS'nsubj=helicopter'
p421
I90
sS'prep=near'
p422
I117
sS'prep=during'
p423
I113
sS'advcl=attempt'
p424
I0
sS'w-2=East'
p425
I347
sS'w-2=dollar'
p426
I372
sS'w-1=another'
p427
I286
sS'w+2=Pennsylvania'
p428
I208
sS'w+2=mean'
p429
I245
sS'w+2=I'
p430
I199
sS'w+1=early'
p431
I156
sS'w-1=not'
p432
I317
sS'prt=down'
p433
I125
sS'w-2=because'
p434
I362
sS'w-1=that'
p435
I327
sS'aux=be'
p436
I24
sS'w+2=a'
p437
I214
sS'conj=talk'
p438
I40
ssS'dtype'
p439
cnumpy
float64
p440
sS'feature_names_'
p441
(lp442
g424
ag175
ag298
ag97
ag399
ag45
ag287
ag8
ag150
ag115
ag268
ag143
ag226
ag244
ag50
ag343
ag204
ag271
ag122
ag388
ag9
ag389
ag220
ag304
ag436
ag295
ag235
ag355
ag407
ag270
ag292
ag246
ag24
ag372
ag325
ag383
ag360
ag74
ag148
ag319
ag438
ag342
ag164
ag267
ag90
ag120
ag253
ag378
ag202
ag125
ag126
ag340
ag15
ag124
ag243
ag189
ag385
ag310
ag111
ag339
ag330
ag22
ag151
ag95
ag262
ag283
ag327
ag312
ag153
ag217
ag395
ag21
ag130
ag131
ag368
ag75
ag171
ag284
ag254
ag324
ag227
ag258
ag208
ag160
ag13
ag400
ag25
ag281
ag155
ag313
ag421
ag31
ag238
ag167
ag185
ag62
ag215
ag66
ag333
ag291
ag103
ag196
ag14
ag317
ag320
ag105
ag293
ag318
ag288
ag69
ag391
ag351
ag256
ag423
ag403
ag86
ag206
ag422
ag308
ag309
ag345
ag366
ag94
ag234
ag245
ag433
ag411
ag336
ag54
ag277
ag37
ag413
ag415
ag322
ag71
ag286
ag299
ag405
ag294
ag73
ag414
ag98
ag250
ag138
ag139
ag276
ag221
ag408
ag274
ag300
ag42
ag328
ag121
ag376
ag373
ag10
ag431
ag361
ag123
ag141
ag282
ag289
ag30
ag219
ag168
ag397
ag172
ag348
ag51
ag56
ag34
ag59
ag225
ag170
ag44
ag193
ag231
ag334
ag77
ag27
ag79
ag341
ag147
ag201
ag64
ag392
ag406
ag338
ag275
ag346
ag418
ag419
ag417
ag356
ag371
ag370
ag375
ag222
ag176
ag430
ag113
ag184
ag49
ag261
ag161
ag173
ag350
ag19
ag428
ag72
ag156
ag260
ag212
ag169
ag437
ag210
ag165
ag142
ag162
ag335
ag41
ag157
ag83
ag57
ag203
ag11
ag128
ag228
ag386
ag331
ag99
ag101
ag393
ag207
ag136
ag323
ag63
ag159
ag349
ag65
ag127
ag236
ag58
ag237
ag26
ag429
ag249
ag257
ag259
ag198
ag200
ag154
ag112
ag33
ag279
ag240
ag177
ag88
ag402
ag81
ag20
ag52
ag326
ag409
ag387
ag230
ag55
ag91
ag38
ag183
ag36
ag398
ag174
ag187
ag401
ag163
ag358
ag354
ag18
ag119
ag32
ag315
ag379
ag194
ag53
ag205
ag427
ag218
ag223
ag382
ag242
ag278
ag140
ag67
ag209
ag296
ag255
ag68
ag266
ag211
ag46
ag311
ag357
ag117
ag190
ag280
ag332
ag412
ag61
ag264
ag152
ag104
ag12
ag186
ag285
ag29
ag247
ag432
ag416
ag404
ag40
ag180
ag182
ag297
ag303
ag133
ag374
ag435
ag109
ag396
ag132
ag306
ag329
ag76
ag263
ag135
ag70
ag213
ag352
ag353
ag107
ag100
ag232
ag224
ag39
ag144
ag181
ag425
ag16
ag365
ag273
ag92
ag195
ag377
ag199
ag337
ag188
ag363
ag362
ag137
ag85
ag307
ag434
ag316
ag410
ag116
ag28
ag110
ag102
ag252
ag114
ag134
ag426
ag80
ag321
ag233
ag60
ag290
ag367
ag82
ag35
ag269
ag344
ag420
ag305
ag145
ag251
ag84
ag87
ag93
ag380
ag191
ag48
ag178
ag384
ag192
ag394
ag364
ag359
ag129
ag23
ag369
ag216
ag146
ag381
ag248
ag17
ag302
ag272
ag390
ag89
ag347
ag106
ag149
ag301
ag314
ag96
ag158
ag78
ag43
ag118
ag108
ag241
ag265
ag197
ag179
ag214
ag47
ag239
ag166
ag229
asS'separator'
p443
S'='
sS'sparse'
p444
I01
sb.