ccopy_reg
_reconstructor
p1
(csklearn.feature_extraction.dict_vectorizer
DictVectorizer
p2
c__builtin__
object
p3
NtRp4
(dp5
S'vocabulary_'
p6
(dp7
S'w+2=lack'
p8
I96
sS'w+2=rigor'
p9
I109
sS'w-1=ice'
p10
I138
sS'w+2=they'
p11
I113
sS'w+2=rainy'
p12
I108
sS'w+2=day'
p13
I84
sS'w+1=clammy'
p14
I44
sS'w-2=transportation'
p15
I204
sS'w-1=winter'
p16
I161
sS'w+1=out'
p17
I58
sS'advmod=quite'
p18
I2
sS'w+2=pattern'
p19
I107
sS'w+1=glacial'
p20
I50
sS'w+1=medication'
p21
I54
sS'w-2=receive'
p22
I197
sS'w+1=water'
p23
I69
sS'det=the'
p24
I26
sS'w+1=crater'
p25
I45
sS'appos=lack'
p26
I11
sS'w-2=Texas'
p27
I166
sS'w+1=finger'
p28
I48
sS'w+2=cough'
p29
I83
sS'w-1=or'
p30
I145
sS'w+1=blooded'
p31
I41
sS'w-2=such'
p32
I200
sS'w-2=or'
p33
I194
sS'w-2=of'
p34
I191
sS'conj=infection'
p35
I20
sS'w-2=have'
p36
I185
sS'w-1=of'
p37
I144
sS'w-2=that'
p38
I201
sS'w-2=influence'
p39
I188
sS'w-2=on'
p40
I193
sS'w+1=peace'
p41
I59
sS'w+2=feeling'
p42
I88
sS'w-2=to'
p43
I203
sS'w+2=and'
p44
I79
sS'w-2=and'
p45
I169
sS'advmod=even'
p46
I1
sS'w+1=that'
p47
I67
sS'w-2=catch'
p48
I175
sS'w+1=hand'
p49
I51
sS'w+1=dark'
p50
I46
sS'w+2=matter'
p51
I100
sS'appos=Australia'
p52
I10
sS'w-1=go'
p53
I137
sS'w+1=January'
p54
I36
sS'cop=be'
p55
I24
sS'appos=malaria'
p56
I12
sS'w+1=room'
p57
I60
sS'w+2=flooding'
p58
I89
sS'w-1=so'
p59
I151
sS'w+1=with'
p60
I73
sS'w-1=freezing'
p61
I135
sS'w+2=many'
p62
I99
sS'advmod=so'
p63
I4
sS'w-2=from'
p64
I184
sS'w-1=and'
p65
I125
sS'w+2=the'
p66
I112
sS'w-2=know'
p67
I190
sS'w-2=drought'
p68
I179
sS'w+1=war'
p69
I68
sS'w-2=,'
p70
I162
sS'w-2=-'
p71
I163
sS'w-1=bitter'
p72
I127
sS'prep=with'
p73
I33
sS'conj=seem'
p74
I23
sS'w+2=he'
p75
I93
sS'w-2=analysis'
p76
I168
sS'w-2=die'
p77
I178
sS'w+2=so'
p78
I110
sS'w+1=morning'
p79
I56
sS'advmod=seasonably'
p80
I3
sS'ccomp=preserve'
p81
I16
sS'conj=dry'
p82
I18
sS'conj=lack'
p83
I21
sS'w+1=snap'
p84
I64
sS'w-1=,'
p85
I123
sS'w-2=the'
p86
I202
sS'w-1=my'
p87
I142
sS'w-2=in'
p88
I187
sS'w-2=before'
p89
I171
sS'amod=severe'
p90
I9
sS'ccomp=be'
p91
I15
sS'w-1=feel'
p92
I134
sS'nsubj=#PRP#'
p93
I30
sS'w-1=perhaps'
p94
I146
sS'w-1=to'
p95
I157
sS'w-2=except'
p96
I180
sS'w-2=dead'
p97
I177
sS'w+2=one'
p98
I104
sS'mark=because'
p99
I27
sS'w-1=more'
p100
I141
sS'w+2=to'
p101
I114
sS'w-2=a'
p102
I167
sS'w-1=extreme'
p103
I133
sS'w+1=June'
p104
I37
sS'w+1=or'
p105
I57
sS'w+2=noodle'
p106
I103
sS'w+1=medicine'
p107
I55
sS'w-2=turn'
p108
I205
sS'w+2=dead'
p109
I85
sS'w+1=sandwich'
p110
I61
sS"w+2=''"
p111
I74
sS'w+2=in'
p112
I94
sS'w-2=hot'
p113
I186
sS'w-1=this'
p114
I155
sS'w-1=severe'
p115
I150
sS'w+1=winter'
p116
I72
sS'w+1=cement'
p117
I43
sS'w+2=which'
p118
I117
sS'w-2=so-called'
p119
I199
sS'w+2=while'
p120
I118
sS'w+1=welcome'
p121
I71
sS'w+1=shoulder'
p122
I63
sS'w-1=quite'
p123
I147
sS'w-1=those'
p124
I156
sS'appos=sweat'
p125
I13
sS'w-1=catch'
p126
I130
sS'w-1=common'
p127
I132
sS'nn=freezing'
p128
I28
sS'w-2=call'
p129
I174
sS'w+2=floor'
p130
I90
sS'w+2=will'
p131
I119
sS'nn=winter'
p132
I29
sS'w-1=very'
p133
I159
sS'cc=and'
p134
I14
sS'w-2=pneumonia'
p135
I196
sS'w+2=insist'
p136
I95
sS'w+1=weather'
p137
I70
sS'w-2=brave'
p138
I172
sS'w+2=without'
p139
I121
sS'w-2=warm'
p140
I206
sS'w-2=for'
p141
I183
sS'w+2=usually'
p142
I115
sS'w+1=be'
p143
I40
sS'w-1=look'
p144
I140
sS'w+2=be'
p145
I80
sS'w-2=revive'
p146
I198
sS'w-1=build'
p147
I129
sS"w+2='s"
p148
I75
sS'w-1=cause'
p149
I131
sS'advmod=too'
p150
I5
sS'w+1=air'
p151
I38
sS'prep=in'
p152
I32
sS'w+1=home'
p153
I52
sS'w-2=peace'
p154
I195
sS'w-2=experience'
p155
I181
sS'w+1=in'
p156
I53
sS'conj=cough'
p157
I17
sS'w+1=storage'
p158
I65
sS'w+2=with'
p159
I120
sS'w+2=dry'
p160
I86
sS'w+1=front'
p161
I49
sS'w+1=season'
p162
I62
sS'w+2=move'
p163
I101
sS'w+1=buckwheat'
p164
I42
sS"w-1=''"
p165
I122
sS'w+2=other'
p166
I106
sS'w+1=temperature'
p167
I66
sS'w-1=icy'
p168
I139
sS'w-1=the'
p169
I154
sS'w-1=from'
p170
I136
sS'w-1=we'
p171
I160
sS'w+2=sweat'
p172
I111
sS'w+2=have'
p173
I92
sS'w+2=get'
p174
I91
sS'w+2=come'
p175
I81
sS'w-1=take'
p176
I152
sS'w-1=no'
p177
I143
sS'w-1=sell'
p178
I149
sS'w+1=and'
p179
I39
sS'w+2=or'
p180
I105
sS'w-2=.'
p181
I165
sS'w+1=,'
p182
I34
sS'w+1=.'
p183
I35
sS'w-2=far'
p184
I182
sS'w+2=water'
p185
I116
sS'w+2=.'
p186
I77
sS'w+2=,'
p187
I76
sS'det=a'
p188
I25
sS'w-2=keep'
p189
I189
sS'w-2=cough'
p190
I176
sS'nsubj=that'
p191
I31
sS'w-1=a'
p192
I124
sS'advmod=bitterly'
p193
I0
sS'w+2=concern'
p194
I82
sS'w-1=bitterly'
p195
I128
sS'w+2=facility'
p196
I87
sS'w-1=too'
p197
I158
sS'advmod=very'
p198
I6
sS'w+2=Washington'
p199
I78
sS'conj=flooding'
p200
I19
sS'amod=bitter'
p201
I7
sS'w+2=line'
p202
I97
sS'w+2=night'
p203
I102
sS'amod=common'
p204
I8
sS'w+2=malaria'
p205
I98
sS'conj=rainy'
p206
I22
sS'w-2=be'
p207
I170
sS'w-2=-rrb-'
p208
I164
sS'w-1=as'
p209
I126
sS'w-1=that'
p210
I153
sS'w-1=seasonably'
p211
I148
sS'w-2=offense'
p212
I192
sS'w+1=day'
p213
I47
sS'w-2=by'
p214
I173
ssS'dtype'
p215
cnumpy
float64
p216
sS'feature_names_'
p217
(lp218
g193
ag46
ag18
ag80
ag63
ag150
ag198
ag201
ag204
ag90
ag52
ag26
ag56
ag125
ag134
ag91
ag81
ag157
ag82
ag200
ag35
ag83
ag206
ag74
ag55
ag188
ag24
ag99
ag128
ag132
ag93
ag191
ag152
ag73
ag182
ag183
ag54
ag104
ag151
ag179
ag143
ag31
ag164
ag117
ag14
ag25
ag50
ag213
ag28
ag161
ag20
ag49
ag153
ag156
ag21
ag107
ag79
ag105
ag17
ag41
ag57
ag110
ag162
ag122
ag84
ag158
ag167
ag47
ag69
ag23
ag137
ag121
ag116
ag60
ag111
ag148
ag187
ag186
ag199
ag44
ag145
ag175
ag194
ag29
ag13
ag109
ag160
ag196
ag42
ag58
ag130
ag174
ag173
ag75
ag112
ag136
ag8
ag202
ag205
ag62
ag51
ag163
ag203
ag106
ag98
ag180
ag166
ag19
ag12
ag9
ag78
ag172
ag66
ag11
ag101
ag142
ag185
ag118
ag120
ag131
ag159
ag139
ag165
ag85
ag192
ag65
ag209
ag72
ag195
ag147
ag126
ag149
ag127
ag103
ag92
ag61
ag170
ag53
ag10
ag168
ag144
ag100
ag87
ag177
ag37
ag30
ag94
ag123
ag211
ag178
ag115
ag59
ag176
ag210
ag169
ag114
ag124
ag95
ag197
ag133
ag171
ag16
ag70
ag71
ag208
ag181
ag27
ag102
ag76
ag45
ag207
ag89
ag138
ag214
ag129
ag48
ag190
ag97
ag77
ag68
ag96
ag155
ag184
ag141
ag64
ag36
ag113
ag88
ag39
ag189
ag67
ag34
ag212
ag40
ag33
ag154
ag135
ag22
ag146
ag119
ag32
ag38
ag86
ag43
ag15
ag108
ag140
asS'separator'
p219
S'='
sS'sparse'
p220
I01
sb.