ccopy_reg
_reconstructor
p1
(csklearn.feature_extraction.dict_vectorizer
DictVectorizer
p2
c__builtin__
object
p3
NtRp4
(dp5
S'vocabulary_'
p6
(dp7
S'w-1=avoid'
p8
I43
sS'w-1=judge'
p9
I46
sS'w+1=sentence'
p10
I29
sS'w+2=at'
p11
I32
sS'w-2=eager'
p12
I53
sS'w-2=Lindsey'
p13
I51
sS'aux=to'
p14
I3
sS'nsubj=observer'
p15
I21
sS'conj=spark'
p16
I6
sS'dobj=sentence'
p17
I13
sS'w+2=the'
p18
I38
sS'w+1=as'
p19
I24
sS'w+2=election'
p20
I34
sS'prep=as'
p21
I22
sS'w+2=libyan'
p22
I36
sS'conj=seek'
p23
I5
sS'w-1=to'
p24
I48
sS'dobj=effort'
p25
I10
sS'w+1=dead'
p26
I25
sS'nsubj=OSCE'
p27
I18
sS'w-2=Sunday'
p28
I52
sS'advmod=later'
p29
I1
sS'aux=have'
p30
I2
sS'w-1=court'
p31
I44
sS'dobj=hour'
p32
I12
sS'w+2=presidential'
p33
I37
sS'w-1=Graham'
p34
I40
sS'w+1=it'
p35
I26
sS'cc=and'
p36
I4
sS'w-1=observer'
p37
I47
sS'w+2=verdict'
p38
I39
sS'w-1=and'
p39
I42
sS'xcomp=failure'
p40
I56
sS'w+1=the'
p41
I30
sS'advmod=earlier'
p42
I0
sS'dep=flawed'
p43
I8
sS'w+2=dead'
p44
I33
sS'nsubj=judge'
p45
I20
sS'dobj=concept'
p46
I9
sS'w+2=just'
p47
I35
sS'w-2=the'
p48
I54
sS'w-2=to'
p49
I55
sS'w-1=OSCE'
p50
I41
sS'w+2=a'
p51
I31
sS'dobj=election'
p52
I11
sS'nsubj=court'
p53
I19
sS'w+1=on'
p54
I28
sS'w+1=its'
p55
I27
sS'prep=on'
p56
I23
sS'w-2=Kikwete'
p57
I50
sS'nsubj=Graham'
p58
I16
sS'dep=find'
p59
I7
sS'mark=if'
p60
I15
sS'w-2=International'
p61
I49
sS'dobj=verdict'
p62
I14
sS'w-1=have'
p63
I45
sS'nsubj=Kikwete'
p64
I17
ssS'dtype'
p65
cnumpy
float64
p66
sS'feature_names_'
p67
(lp68
g42
ag29
ag30
ag14
ag36
ag23
ag16
ag59
ag43
ag46
ag25
ag52
ag32
ag17
ag62
ag60
ag58
ag64
ag27
ag53
ag45
ag15
ag21
ag56
ag19
ag26
ag35
ag55
ag54
ag10
ag41
ag51
ag11
ag44
ag20
ag47
ag22
ag33
ag18
ag38
ag34
ag50
ag39
ag8
ag31
ag63
ag9
ag37
ag24
ag61
ag57
ag13
ag28
ag12
ag48
ag49
ag40
asS'separator'
p69
S'='
sS'sparse'
p70
I01
sb.