ccopy_reg
_reconstructor
p1
(csklearn.feature_extraction.dict_vectorizer
DictVectorizer
p2
c__builtin__
object
p3
NtRp4
(dp5
S'sort'
p6
I01
sS'feature_names_'
p7
(lp8
S'aux=to'
p9
aS'dobj=project'
p10
aS'dobj=responsibility'
p11
aS'mark=as'
p12
aS'nsubj=Shyu'
p13
aS'prep=as'
p14
aS'w+1=many'
p15
aS'w+1=she'
p16
aS'w+2=project'
p17
aS'w+2=responsibility'
p18
aS'w-1=Shyu'
p19
aS'w-1=to'
p20
aS'w-2=as'
p21
aS'w-2=have'
p22
asS'dtype'
p23
cnumpy
float64
p24
sS'vocabulary_'
p25
(dp26
g14
I5
sg16
I7
sg13
I4
sg12
I3
sg21
I12
sg9
I0
sg18
I9
sg15
I6
sg22
I13
sg19
I10
sg17
I8
sg20
I11
sg11
I2
sg10
I1
ssS'separator'
p27
S'='
sS'sparse'
p28
I01
sb.