ccopy_reg
_reconstructor
p1
(csklearn.feature_extraction.dict_vectorizer
DictVectorizer
p2
c__builtin__
object
p3
NtRp4
(dp5
S'vocabulary_'
p6
(dp7
S'advmod=then'
p8
I29
sS'advmod=briefly'
p9
I14
sS'prep=before'
p10
I167
sS'w+1=cost'
p11
I204
sS'w-1=remember'
p12
I379
sS'ccomp=call'
p13
I49
sS'dobj=shipment'
p14
I112
sS'w-2=haze'
p15
I434
sS'w-2=administration'
p16
I404
sS'advmod=deeper'
p17
I17
sS'dobj=anything'
p18
I84
sS'dobj=datum'
p19
I92
sS'xcomp=evade'
p20
I493
sS'w+2=evade'
p21
I281
sS'advmod=well'
p22
I31
sS'w+2=civilian'
p23
I274
sS'w+1=view'
p24
I242
sS'w-2=safe'
p25
I466
sS'w+1=criminal'
p26
I207
sS'w+1=beauty'
p27
I199
sS'w+1=evidence'
p28
I210
sS'w-2=need'
p29
I450
sS'w-2=they'
p30
I477
sS'w-2=organize'
p31
I457
sS'prep=by'
p32
I169
sS'w+2=determine'
p33
I278
sS'nsubj=rebel'
p34
I147
sS'nsubj=government'
p35
I140
sS'w-2=not'
p36
I451
sS'w-2=militant'
p37
I448
sS'w-2=burial'
p38
I414
sS'w+1=talent'
p39
I233
sS'w+2=movement'
p40
I300
sS'ccomp=feel'
p41
I53
sS'advmod=really'
p42
I26
sS'w+1=deeper'
p43
I208
sS'w-2=commander'
p44
I418
sS'advmod=just'
p45
I20
sS'w+2=shock'
p46
I314
sS'w-1=will'
p47
I391
sS'advmod=anymore'
p48
I12
sS'conj=show'
p49
I69
sS'w-1=by'
p50
I348
sS'w+1=how'
p51
I215
sS'w-1=be'
p52
I347
sS'w-2=the'
p53
I475
sS'prep=behind'
p54
I168
sS'w+2=activity'
p55
I257
sS'conj=detract'
p56
I62
sS'w+1=earmark'
p57
I209
sS'nsubj=leader'
p58
I143
sS'w-2=where'
p59
I481
sS'purpcl=get'
p60
I183
sS'mark=because'
p61
I122
sS'w-2=who'
p62
I484
sS'w+2=nuclear'
p63
I305
sS'nsubj=Remy'
p64
I132
sS'w+1=on'
p65
I223
sS'w+1=crime'
p66
I206
sS'w+2=last'
p67
I296
sS'w+1=or'
p68
I225
sS'w-1=have'
p69
I361
sS'ccomp=say'
p70
I54
sS'w-2=something'
p71
I472
sS'w+2=in'
p72
I293
sS'w+2=it'
p73
I294
sS'dobj=failure'
p74
I97
sS'w+2=identity'
p75
I292
sS'dobj=movement'
p76
I105
sS'w-1=could'
p77
I354
sS'w-1=also'
p78
I345
sS'aux=can'
p79
I36
sS'complm=that'
p80
I55
sS'w+2=woe'
p81
I334
sS'w-1=really'
p82
I377
sS'dobj=area'
p83
I85
sS'w-2=blame'
p84
I413
sS'w-1=from'
p85
I359
sS'w+2=but'
p86
I269
sS'advcl=be'
p87
I0
sS'w+2=by'
p88
I270
sS'dobj=program'
p89
I111
sS'w+1=the'
p90
I234
sS'w+2=take'
p91
I317
sS'advmod=allegedly'
p92
I9
sS'w+2=be'
p93
I267
sS'xcomp=avoid'
p94
I489
sS'w+1=they'
p95
I237
sS'dobj=shock'
p96
I113
sS'nsubjpass=#PRP#'
p97
I154
sS'prep=in'
p98
I173
sS'w+1=for'
p99
I211
sS'w-2=leader'
p100
I444
sS'w+1=arm'
p101
I196
sS'dobj=beauty'
p102
I87
sS'advmod=largely'
p103
I21
sS'prep=to'
p104
I179
sS'w+2=Pakistan'
p105
I254
sS'dobj=poverty'
p106
I108
sS'w-1=still'
p107
I383
sS'w+1=and'
p108
I193
sS'w+2=laptop'
p109
I295
sS'advcl=receive'
p110
I4
sS'advmod=probably'
p111
I25
sS'ccomp=continue'
p112
I51
sS'xcomp=come'
p113
I491
sS'w+2=for'
p114
I285
sS'nsubj=fear'
p115
I138
sS'dobj=trace'
p116
I117
sS'w-1=it'
p117
I366
sS'w+1=inside'
p118
I217
sS'advmod=here'
p119
I18
sS'w-1=in'
p120
I363
sS'w-2=kurdish'
p121
I443
sS'w-1=insurgent'
p122
I364
sS'nsubj=insurgent'
p123
I142
sS'w-2=-rrb-'
p124
I396
sS'w-1=the'
p125
I385
sS'w+2=Baluchistan'
p126
I251
sS'dobj=crime'
p127
I91
sS'w+2=program'
p128
I310
sS'w-2=work'
p129
I487
sS'w+2=not'
p130
I304
sS'conj=protect'
p131
I68
sS'advmod=where'
p132
I33
sS'w+1=among'
p133
I192
sS'advmod=wherever'
p134
I34
sS'conj=clean'
p135
I60
sS'w-2=which'
p136
I483
sS'conj=hope'
p137
I65
sS'w+2=loved'
p138
I298
sS'w-2=believe'
p139
I412
sS'w-2=Pyongyang'
p140
I401
sS'w-2=ago'
p141
I406
sS'dobj=people'
p142
I106
sS'w+1=behind'
p143
I200
sS'w-2=or'
p144
I456
sS'nsubj=who'
p145
I152
sS'xcomp=play'
p146
I494
sS'dobj=activity'
p147
I81
sS'w-2=survivor'
p148
I473
sS'nsubj=Mehsud'
p149
I130
sS'w-1=fighter'
p150
I357
sS'w-1=to'
p151
I387
sS'w+2=Somalia'
p152
I255
sS'dobj=#PRP#'
p153
I79
sS'w-2=do'
p154
I422
sS'w+1=any'
p155
I194
sS'w+2=truth'
p156
I324
sS'advmod=completely'
p157
I16
sS'dobj=facility'
p158
I95
sS'w+1=creative'
p159
I205
sS'w+2=can'
p160
I271
sS'w-1=completely'
p161
I353
sS'prep=over'
p162
I176
sS'nsubj=rest'
p163
I148
sS'w-1=actually'
p164
I341
sS'w+2=against'
p165
I260
sS'w+1=he'
p166
I213
sS'w-2=custom'
p167
I420
sS'w+1=themselves'
p168
I235
sS'w+2=so'
p169
I315
sS'prt=out'
p170
I182
sS'w+2=under'
p171
I326
sS'nsubjpass=secret'
p172
I158
sS'nsubjpass=that'
p173
I159
sS'w+2=remote'
p174
I311
sS'w-1=find'
p175
I358
sS'w-2=may'
p176
I446
sS'ccomp=be'
p177
I47
sS'conj=inneighbor'
p178
I66
sS'w+2=because'
p179
I268
sS'advmod=when'
p180
I32
sS'w-2=nothing'
p181
I452
sS'prep=for'
p182
I171
sS'advcl=get'
p183
I2
sS'w+1=we'
p184
I243
sS'dobj=spot'
p185
I114
sS'w-1=allegedly'
p186
I344
sS'dep=from'
p187
I76
sS'w+2=as'
p188
I264
sS'dobj=cost'
p189
I90
sS'auxpass=be'
p190
I43
sS"w-1='s"
p191
I336
sS'advmod=abroad'
p192
I6
sS'dep=due'
p193
I74
sS'advmod=long'
p194
I22
sS'advmod=always'
p195
I11
sS'w+2=avoid'
p196
I265
sS'w-1=case'
p197
I350
sS'advmod=still'
p198
I28
sS'nsubj=Korea'
p199
I128
sS'w-2=be'
p200
I411
sS'dep=wait'
p201
I77
sS'w-2=drug'
p202
I425
sS'w+1=there'
p203
I236
sS'w-2=mine'
p204
I449
sS'dobj=woe'
p205
I121
sS'w+1=near'
p206
I222
sS'w+1=its'
p207
I220
sS'w+1=under'
p208
I239
sS'advmod=carefully'
p209
I15
sS'nsubjpass=Washington'
p210
I155
sS'w+2=with'
p211
I333
sS"w-1=''"
p212
I335
sS'dobj=whereabouts'
p213
I120
sS'w+2=clean'
p214
I275
sS'w-2=plenty'
p215
I459
sS'w-2=off'
p216
I455
sS'nsubj=owner'
p217
I145
sS'w+2=or'
p218
I307
sS'w+1=across'
p219
I189
sS"w-2=''"
p220
I394
sS'w+2=of'
p221
I306
sS'advmod=sometimes'
p222
I27
sS'w+2=cave'
p223
I272
sS'w-1=Remy'
p224
I339
sS'w+1=to'
p225
I238
sS'w-2=keep'
p226
I442
sS'nsubjpass=conflict'
p227
I156
sS'w-2=Hutu'
p228
I399
sS'w+2=he'
p229
I289
sS'w-2=scare'
p230
I468
sS'dobj=identity'
p231
I101
sS'w-1=cash'
p232
I351
sS'w+1=abroad'
p233
I188
sS'w-2=there'
p234
I476
sS'w-2=attempt'
p235
I409
sS'xcomp=border'
p236
I490
sS'w+2=fortune'
p237
I286
sS'prep=inside'
p238
I174
sS'w-1=she'
p239
I381
sS'w-1=never'
p240
I370
sS'conj=not'
p241
I67
sS'advcl=have'
p242
I3
sS'w+2=from'
p243
I287
sS'w+2=poverty'
p244
I309
sS'w+1=spot'
p245
I232
sS'nsubjpass=relationship'
p246
I157
sS'w-2=go'
p247
I432
sS'dobj=fortune'
p248
I98
sS'w-2=Mehsud'
p249
I400
sS'w+2=seek'
p250
I312
sS'ccomp=bring'
p251
I48
sS'w-2=remain'
p252
I464
sS'dobj=evidence'
p253
I94
sS'dobj=Jews'
p254
I80
sS'dep=clear'
p255
I73
sS'w-2=might'
p256
I447
sS'dobj=misconduct'
p257
I104
sS'dobj=supernova'
p258
I115
sS'w-1=militant'
p259
I369
sS'conj=cover'
p260
I61
sS'w+1=since'
p261
I231
sS'advmod=particularly'
p262
I24
sS'w+2=anger'
p263
I262
sS'xcomp=determine'
p264
I492
sS'advmod=there'
p265
I30
sS'mark=while'
p266
I123
sS'aux=do'
p267
I38
sS'w-2=problem'
p268
I460
sS'w-2=with'
p269
I486
sS'w-1=rest'
p270
I380
sS'aux=will'
p271
I42
sS'conj=difficult'
p272
I63
sS'dobj=place'
p273
I107
sS'nsubj=people'
p274
I146
sS'prep=with'
p275
I181
sS'cc=or'
p276
I46
sS'nsubj=beauty'
p277
I135
sS'nsubj=commander'
p278
I136
sS'w+2=people'
p279
I308
sS'nsubj=Pyongyang'
p280
I131
sS'dep=easy'
p281
I75
sS'w-2=charm'
p282
I417
sS'dobj=city'
p283
I89
sS'w-1=terrorist'
p284
I384
sS'w+2=view'
p285
I328
sS'w-2=in'
p286
I438
sS'w-2=insurgent'
p287
I440
sS'w-2=either'
p288
I427
sS'advmod=away'
p289
I13
sS'nsubj=haze'
p290
I141
sS'w+2=nearly'
p291
I301
sS'w+2=Afghanistan'
p292
I249
sS'w+1=islamist'
p293
I218
sS'nsubj=militant'
p294
I144
sS'w-2=it'
p295
I441
sS'w+1=one'
p296
I224
sS'nsubj=search'
p297
I149
sS'w+2=address'
p298
I258
sS'dobj=truth'
p299
I118
sS'w-1=administration'
p300
I342
sS'w-2=al-Dulaymi'
p301
I407
sS'w+2=northern'
p302
I303
sS'w-2=Harare'
p303
I398
sS'w-1=after'
p304
I343
sS'w+2=deeper'
p305
I277
sS'dobj=bag'
p306
I86
sS"w+2=''"
p307
I246
sS'w+2=distant'
p308
I279
sS'advmod=also'
p309
I10
sS'w+2=Alzheimer'
p310
I250
sS'w-1=600,000'
p311
I338
sS'conj=try'
p312
I72
sS'w+2=villager'
p313
I330
sS'w-2=document'
p314
I423
sS'w+2=neighbor'
p315
I302
sS'w+2=veil'
p316
I327
sS'cc=and'
p317
I44
sS'w+2=whereabouts'
p318
I332
sS'prep=under'
p319
I180
sS'w+1=away'
p320
I198
sS'w+2=Kantar'
p321
I252
sS'dobj=material'
p322
I103
sS'w-1=just'
p323
I367
sS'w+1=here'
p324
I214
sS'w-2=some'
p325
I471
sS'w+2=some'
p326
I316
sS'w+1=in'
p327
I216
sS'w+2=to'
p328
I323
sS'w+1=it'
p329
I219
sS'nsubj=#PRP#'
p330
I127
sS'nsubj=al-Dulaymi'
p331
I134
sS'w-2=secret'
p332
I469
sS'cc=but'
p333
I45
sS'w-1=or'
p334
I375
sS'w-2=away'
p335
I410
sS'poss=#PRP#'
p336
I162
sS'dobj=#NUMBER#'
p337
I78
sS'w+2=admiration'
p338
I259
sS'aux=could'
p339
I37
sS'w-2=could'
p340
I419
sS'w-2=genocide'
p341
I431
sS'w+1=along'
p342
I191
sS'dobj=earmark'
p343
I93
sS'w+1=place'
p344
I228
sS'w+2=weak'
p345
I331
sS'advmod=all'
p346
I8
sS'nsubj=terrorist'
p347
I150
sS'w-2=down'
p348
I424
sS'dobj=fact'
p349
I96
sS'w-1=worker'
p350
I392
sS'w-1=into'
p351
I365
sS'w-2=wherever'
p352
I482
sS'w+2=bag'
p353
I266
sS'w-1=perpetrator'
p354
I376
sS'prep=of'
p355
I175
sS'w+2=try'
p356
I325
sS'w+1=profit'
p357
I229
sS'w-2=cattle'
p358
I416
sS'w-2=of'
p359
I454
sS'w-1=largely'
p360
I368
sS'w-1=ground'
p361
I360
sS'w-1=trafficker'
p362
I388
sS'nsubj=which'
p363
I151
sS'w-1=carefully'
p364
I349
sS'w+2=human'
p365
I291
sS'w+2=failure'
p366
I283
sS'conj=take'
p367
I70
sS'conj=allow'
p368
I58
sS'w-1=cocaine'
p369
I352
sS'w-2=length'
p370
I445
sS'w+1=out'
p371
I226
sS'w-2=run'
p372
I465
sS'nsubj=woman'
p373
I153
sS'w+2=cloud'
p374
I276
sS'w+2=that'
p375
I319
sS'w-2=against'
p376
I405
sS'w+2=village'
p377
I329
sS'w-2=can'
p378
I415
sS'w-2=want'
p379
I480
sS'dobj=admiration'
p380
I82
sS'nsubj=administration'
p381
I133
sS'w+1=charm'
p382
I203
sS'w-1=of'
p383
I373
sS'dobj=talent'
p384
I116
sS'w-2=to'
p385
I478
sS'w+2=and'
p386
I261
sS'w-2=easy'
p387
I426
sS'advmod=actually'
p388
I7
sS'w-1=officer'
p389
I374
sS'w-2=relationship'
p390
I463
sS'neg=not'
p391
I126
sS'w-2=destroy'
p392
I421
sS'w-2=try'
p393
I479
sS'dobj=anger'
p394
I83
sS'w-2=freedom'
p395
I430
sS'w-2=enough'
p396
I428
sS'w-2=he'
p397
I435
sS'prep=since'
p398
I177
sS'w+2=fact'
p399
I282
sS'w-2=say'
p400
I467
sS'advmod=optically'
p401
I23
sS'advcl=brandish'
p402
I1
sS'w+2=the'
p403
I320
sS'prep=at'
p404
I166
sS'w+1=itself'
p405
I221
sS'w-2=,'
p406
I395
sS'w-2=.'
p407
I397
sS'w+2=leader'
p408
I297
sS'w-1=and'
p409
I346
sS'w-2=$'
p410
I393
sS'w+1=what'
p411
I244
sS'aux=have'
p412
I39
sS'dobj=guitar'
p413
I99
sS'w+2=shipment'
p414
I313
sS'prep=among'
p415
I165
sS'w+2=talent'
p416
I318
sS'w-1=,'
p417
I337
sS'w+2=flee'
p418
I284
sS'w-2=now'
p419
I453
sS'w-1=rebel'
p420
I378
sS'dobj=center'
p421
I88
sS'w-1=trait'
p422
I389
sS'w-2=how'
p423
I437
sS'prep=through'
p424
I178
sS'w+2=guitar'
p425
I288
sS'w+2=highly'
p426
I290
sS'aux=should'
p427
I40
sS'dobj=hat'
p428
I100
sS'w-2=out'
p429
I458
sS'dobj=loved'
p430
I102
sS'w+1=people'
p431
I227
sS'w-1=they'
p432
I386
sS'w-1=`'
p433
I340
sS'nsubjpass=which'
p434
I160
sS'nsubj=fighter'
p435
I139
sS'w+1=at'
p436
I197
sS'dobj=view'
p437
I119
sS'w-1=easy'
p438
I355
sS'w-1=he'
p439
I362
sS'w+2=economic'
p440
I280
sS'advcl=seek'
p441
I5
sS'w+1=anything'
p442
I195
sS'conj=ashamed'
p443
I59
sS'dobj=profit'
p444
I110
sS'w+1=from'
p445
I212
sS'neg=never'
p446
I125
sS'nsubj=Laden'
p447
I129
sS'w+2=misconduct'
p448
I299
sS'w-2=innocent'
p449
I439
sS'complm=whether'
p450
I56
sS'w+2=they'
p451
I322
sS'prep=after'
p452
I163
sS'xcomp=address'
p453
I488
sS'w-2=tape'
p454
I474
sS'w+2=then'
p455
I321
sS'ccomp=do'
p456
I52
sS'parataxis=intend'
p457
I161
sS'prep=against'
p458
I164
sS'w-1=not'
p459
I371
sS'w-2=rebellion'
p460
I462
sS'w-1=face'
p461
I356
sS'w-1=sometimes'
p462
I382
sS'conj=travel'
p463
I71
sS'advmod=how'
p464
I19
sS'w+1=rice'
p465
I230
sS'w-2=have'
p466
I433
sS'prep=from'
p467
I172
sS'w+1=urban'
p468
I241
sS'w-2=help'
p469
I436
sS'w+1=after'
p470
I190
sS'dobj=precaution'
p471
I109
sS'w-1=we'
p472
I390
sS'aux=to'
p473
I41
sS'w-2=should'
p474
I470
sS'w-2=rebel'
p475
I461
sS'w+2=Mogadishu'
p476
I253
sS'w+2=anymore'
p477
I263
sS'conj=acknowledge'
p478
I57
sS'conj=flee'
p479
I64
sS'w-2=will'
p480
I485
sS'w+1=,'
p481
I184
sS'w+1=.'
p482
I185
sS'w+2=.'
p483
I248
sS'w+2=,'
p484
I247
sS'w+1=briefly'
p485
I201
sS"w+2='"
p486
I245
sS'w+1=?'
p487
I186
sS'w-2=all'
p488
I408
sS'w-2=Taleban'
p489
I402
sS'prep=during'
p490
I170
sS'w+1=by'
p491
I202
sS'ccomp=come'
p492
I50
sS'w+2=center'
p493
I273
sS'mark=with'
p494
I124
sS'w+1=a'
p495
I187
sS'w-1=now'
p496
I372
sS'nsubj=construction'
p497
I137
sS'w-2=Washington'
p498
I403
sS'w+1=unflattering'
p499
I240
sS'w-2=force'
p500
I429
sS'aux=be'
p501
I35
sS'w+2=a'
p502
I256
ssS'dtype'
p503
cnumpy
float64
p504
sS'feature_names_'
p505
(lp506
g87
ag402
ag183
ag242
ag110
ag441
ag192
ag388
ag346
ag92
ag309
ag195
ag48
ag289
ag9
ag209
ag157
ag17
ag119
ag464
ag45
ag103
ag194
ag401
ag262
ag111
ag42
ag222
ag198
ag8
ag265
ag22
ag180
ag132
ag134
ag501
ag79
ag339
ag267
ag412
ag427
ag473
ag271
ag190
ag317
ag333
ag276
ag177
ag251
ag13
ag492
ag112
ag456
ag41
ag70
ag80
ag450
ag478
ag368
ag443
ag135
ag260
ag56
ag272
ag479
ag137
ag178
ag241
ag131
ag49
ag367
ag463
ag312
ag255
ag193
ag281
ag187
ag201
ag337
ag153
ag254
ag147
ag380
ag394
ag18
ag83
ag306
ag102
ag421
ag283
ag189
ag127
ag19
ag343
ag253
ag158
ag349
ag74
ag248
ag413
ag428
ag231
ag430
ag322
ag257
ag76
ag142
ag273
ag106
ag471
ag444
ag89
ag14
ag96
ag185
ag258
ag384
ag116
ag299
ag437
ag213
ag205
ag61
ag266
ag494
ag446
ag391
ag330
ag199
ag447
ag149
ag280
ag64
ag381
ag331
ag277
ag278
ag497
ag115
ag435
ag35
ag290
ag123
ag58
ag294
ag217
ag274
ag34
ag163
ag297
ag347
ag363
ag145
ag373
ag97
ag210
ag227
ag246
ag172
ag173
ag434
ag457
ag336
ag452
ag458
ag415
ag404
ag10
ag54
ag32
ag490
ag182
ag467
ag98
ag238
ag355
ag162
ag398
ag424
ag104
ag319
ag275
ag170
ag60
ag481
ag482
ag487
ag495
ag233
ag219
ag470
ag342
ag133
ag108
ag155
ag442
ag101
ag436
ag320
ag27
ag143
ag485
ag491
ag382
ag11
ag159
ag66
ag26
ag43
ag57
ag28
ag99
ag445
ag166
ag324
ag51
ag327
ag118
ag293
ag329
ag207
ag405
ag206
ag65
ag296
ag68
ag371
ag431
ag344
ag357
ag465
ag261
ag245
ag39
ag90
ag168
ag203
ag95
ag225
ag208
ag499
ag468
ag24
ag184
ag411
ag486
ag307
ag484
ag483
ag292
ag310
ag126
ag321
ag476
ag105
ag152
ag502
ag55
ag298
ag338
ag165
ag386
ag263
ag477
ag188
ag196
ag353
ag93
ag179
ag86
ag88
ag160
ag223
ag493
ag23
ag214
ag374
ag305
ag33
ag308
ag440
ag21
ag399
ag366
ag418
ag114
ag237
ag243
ag425
ag229
ag426
ag365
ag75
ag72
ag73
ag109
ag67
ag408
ag138
ag448
ag40
ag291
ag315
ag302
ag130
ag63
ag221
ag218
ag279
ag244
ag128
ag174
ag250
ag414
ag46
ag169
ag326
ag91
ag416
ag375
ag403
ag455
ag451
ag328
ag156
ag356
ag171
ag316
ag285
ag377
ag313
ag345
ag318
ag211
ag81
ag212
ag191
ag417
ag311
ag224
ag433
ag164
ag300
ag304
ag186
ag78
ag409
ag52
ag50
ag364
ag197
ag232
ag369
ag161
ag77
ag438
ag461
ag150
ag175
ag85
ag361
ag69
ag439
ag120
ag122
ag351
ag117
ag323
ag360
ag259
ag240
ag459
ag496
ag383
ag389
ag334
ag354
ag82
ag420
ag12
ag270
ag239
ag462
ag107
ag284
ag125
ag432
ag151
ag362
ag422
ag472
ag47
ag350
ag410
ag220
ag406
ag124
ag407
ag303
ag228
ag249
ag140
ag489
ag498
ag16
ag376
ag141
ag301
ag488
ag235
ag335
ag200
ag139
ag84
ag38
ag378
ag358
ag282
ag44
ag340
ag167
ag392
ag154
ag314
ag348
ag202
ag387
ag288
ag396
ag500
ag395
ag341
ag247
ag466
ag15
ag397
ag469
ag423
ag286
ag449
ag287
ag295
ag226
ag121
ag100
ag370
ag176
ag256
ag37
ag204
ag29
ag36
ag181
ag419
ag359
ag216
ag144
ag31
ag429
ag215
ag268
ag475
ag460
ag390
ag252
ag372
ag25
ag400
ag230
ag332
ag474
ag325
ag71
ag148
ag454
ag53
ag234
ag30
ag385
ag393
ag379
ag59
ag352
ag136
ag62
ag480
ag269
ag129
ag453
ag94
ag236
ag113
ag264
ag20
ag146
asS'separator'
p507
S'='
sS'sparse'
p508
I01
sb.