ccopy_reg
_reconstructor
p1
(csklearn.feature_extraction.dict_vectorizer
DictVectorizer
p2
c__builtin__
object
p3
NtRp4
(dp5
S'sort'
p6
I01
sS'feature_names_'
p7
(lp8
S'acomp=hard'
p9
aS'advcl=#NUMBER#'
p10
aS'advcl=back'
p11
aS'advcl=be'
p12
aS'advcl=choose'
p13
aS'advcl=continue'
p14
aS'advcl=crucial'
p15
aS'advcl=go'
p16
aS'advcl=produce'
p17
aS'advcl=say'
p18
aS'advmod=again'
p19
aS'advmod=aggressively'
p20
aS'advmod=ahead'
p21
aS'advmod=almost'
p22
aS'advmod=alone'
p23
aS'advmod=along'
p24
aS'advmod=also'
p25
aS'advmod=diplomatically'
p26
aS'advmod=elsewhere'
p27
aS'advmod=forward'
p28
aS'advmod=further'
p29
aS'advmod=hard'
p30
aS'advmod=however'
p31
aS'advmod=increasingly'
p32
aS'advmod=long'
p33
aS'advmod=more'
p34
aS'advmod=now'
p35
aS'advmod=other'
p36
aS'advmod=privately'
p37
aS'advmod=recently'
p38
aS'advmod=relatively'
p39
aS'advmod=respectively'
p40
aS'advmod=successfully'
p41
aS'advmod=then'
p42
aS'advmod=too'
p43
aS'advmod=well'
p44
aS'advmod=when'
p45
aS'amod=assemble'
p46
aS'amod=associated'
p47
aS'amod=cheap'
p48
aS'amod=cuban'
p49
aS'amod=diplomatic'
p50
aS'amod=egyptian'
p51
aS'amod=european'
p52
aS'amod=favorable'
p53
aS'amod=foreign'
p54
aS'amod=free'
p55
aS'amod=full-court'
p56
aS'amod=hard'
p57
aS'amod=independent'
p58
aS'amod=indian'
p59
aS'amod=islamic'
p60
aS'amod=local'
p61
aS'amod=military'
p62
aS'amod=national'
p63
aS'amod=own'
p64
aS'amod=private'
p65
aS'amod=prolong'
p66
aS'amod=russian'
p67
aS'amod=state-owned'
p68
aS'amod=written'
p69
aS'appos=freedom'
p70
aS'appos=judiciary'
p71
aS'aux=be'
p72
aS'aux=could'
p73
aS'aux=have'
p74
aS'aux=may'
p75
aS'aux=must'
p76
aS'aux=should'
p77
aS'aux=to'
p78
aS'aux=will'
p79
aS'aux=would'
p80
aS'auxpass=be'
p81
aS'cc=and'
p82
aS'cc=but'
p83
aS'cc=instead'
p84
aS'cc=or'
p85
aS'ccomp=be'
p86
aS'ccomp=begin'
p87
aS'ccomp=detain'
p88
aS'ccomp=extend'
p89
aS'ccomp=issue'
p90
aS'ccomp=rape'
p91
aS'ccomp=reconcile'
p92
aS'ccomp=restore'
p93
aS'ccomp=take'
p94
aS'ccomp=testify'
p95
aS'complm=that'
p96
aS'complm=whether'
p97
aS'conj=achieve'
p98
aS'conj=appear'
p99
aS'conj=believe'
p100
aS'conj=confident'
p101
aS'conj=corner'
p102
aS'conj=decline'
p103
aS'conj=endorse'
p104
aS'conj=establish'
p105
aS'conj=expand'
p106
aS'conj=fulfill'
p107
aS'conj=go'
p108
aS'conj=government'
p109
aS'conj=highlight'
p110
aS'conj=hold'
p111
aS'conj=indicate'
p112
aS'conj=lead'
p113
aS'conj=legislator'
p114
aS'conj=mention'
p115
aS'conj=political'
p116
aS'conj=public'
p117
aS'conj=pursue'
p118
aS'conj=rights'
p119
aS'conj=seek'
p120
aS'conj=society'
p121
aS'conj=speak'
p122
aS'conj=spread'
p123
aS'conj=summons'
p124
aS'conj=tissue'
p125
aS'conj=transfer'
p126
aS'cop=be'
p127
aS'dep=#PRP#'
p128
aS'dep=Pakistan'
p129
aS'dep=agency'
p130
aS'dep=and'
p131
aS'dep=child'
p132
aS'dep=difficult'
p133
aS'dep=free'
p134
aS'dep=lift'
p135
aS'dep=more'
p136
aS'dep=other'
p137
aS'dep=resolve'
p138
aS'dep=want'
p139
aS'det=a'
p140
aS'det=any'
p141
aS'det=no'
p142
aS'det=some'
p143
aS'det=the'
p144
aS'dobj=#PRP#'
p145
aS'dobj=Ankara'
p146
aS'dobj=China'
p147
aS'dobj=Clyburn'
p148
aS'dobj=Gates'
p149
aS'dobj=Gbagbo'
p150
aS'dobj=Gonzales'
p151
aS'dobj=Iraqis'
p152
aS'dobj=Koreans'
p153
aS'dobj=Moscow'
p154
aS'dobj=Nations'
p155
aS'dobj=Obama'
p156
aS'dobj=Olmert'
p157
aS'dobj=Paulson'
p158
aS'dobj=Rice'
p159
aS'dobj=Syria'
p160
aS'dobj=Union'
p161
aS'dobj=administration'
p162
aS'dobj=advantage'
p163
aS'dobj=agenda'
p164
aS'dobj=al-Maliki'
p165
aS'dobj=ally'
p166
aS'dobj=assault'
p167
aS'dobj=authority'
p168
aS'dobj=bishop'
p169
aS'dobj=body'
p170
aS'dobj=burma'
p171
aS'dobj=button'
p172
aS'dobj=case'
p173
aS'dobj=cause'
p174
aS'dobj=charge'
p175
aS'dobj=checkpoint'
p176
aS'dobj=colleague'
p177
aS'dobj=concern'
p178
aS'dobj=country'
p179
aS'dobj=demand'
p180
aS'dobj=face'
p181
aS'dobj=faction'
p182
aS'dobj=fight'
p183
aS'dobj=firm'
p184
aS'dobj=freedom'
p185
aS'dobj=government'
p186
aS'dobj=investigator'
p187
aS'dobj=issue'
p188
aS'dobj=leader'
p189
aS'dobj=leadership'
p190
aS'dobj=legacy'
p191
aS'dobj=legislation'
p192
aS'dobj=legislator'
p193
aS'dobj=man'
p194
aS'dobj=matter'
p195
aS'dobj=measure'
p196
aS'dobj=military'
p197
aS'dobj=nation'
p198
aS'dobj=need'
p199
aS'dobj=new'
p200
aS'dobj=official'
p201
aS'dobj=people'
p202
aS'dobj=president'
p203
aS'dobj=problem'
p204
aS'dobj=regime'
p205
aS'dobj=report'
p206
aS'dobj=rights'
p207
aS'dobj=secretary'
p208
aS'dobj=state'
p209
aS'dobj=troops'
p210
aS'dobj=truck'
p211
aS'infmod=investigate'
p212
aS'infmod=operate'
p213
aS'mark=as'
p214
aS'mark=if'
p215
aS'mark=while'
p216
aS'neg=not'
p217
aS'nn=Adua'
p218
aS'nn=Arab'
p219
aS'nn=Democrats'
p220
aS'nn=Union'
p221
aS'nn=class'
p222
aS'nn=coalition'
p223
aS'nn=government'
p224
aS'nn=group'
p225
aS'nn=labor'
p226
aS'nn=opposition'
p227
aS'nn=print'
p228
aS'nn=printing'
p229
aS'nn=state'
p230
aS'nsubj=#PRP#'
p231
aS'nsubj=ASEAN'
p232
aS'nsubj=Accord'
p233
aS'nsubj=Ankara'
p234
aS'nsubj=Ban'
p235
aS'nsubj=Beirut'
p236
aS'nsubj=Bingham'
p237
aS'nsubj=Bryza'
p238
aS'nsubj=Bush'
p239
aS'nsubj=COSATU'
p240
aS'nsubj=Cheney'
p241
aS'nsubj=Clinton'
p242
aS'nsubj=Court'
p243
aS'nsubj=Democrats'
p244
aS'nsubj=Ellison'
p245
aS'nsubj=Erdogan'
p246
aS'nsubj=Gates'
p247
aS'nsubj=Georgia'
p248
aS'nsubj=Hill'
p249
aS'nsubj=India'
p250
aS'nsubj=Ki-Moon'
p251
aS'nsubj=Lantos'
p252
aS'nsubj=Levin'
p253
aS'nsubj=Lin'
p254
aS'nsubj=Malaysia'
p255
aS'nsubj=Nelson'
p256
aS'nsubj=Pakistan'
p257
aS'nsubj=Republicans'
p258
aS'nsubj=Rice'
p259
aS'nsubj=Richardson'
p260
aS'nsubj=Secretary'
p261
aS'nsubj=States'
p262
aS'nsubj=Sundhage'
p263
aS'nsubj=U.S.'
p264
aS'nsubj=Union'
p265
aS'nsubj=Venezuela'
p266
aS'nsubj=Washington'
p267
aS'nsubj=action'
p268
aS'nsubj=activist'
p269
aS'nsubj=administration'
p270
aS'nsubj=ambassador'
p271
aS'nsubj=brother'
p272
aS'nsubj=chairman'
p273
aS'nsubj=coalition'
p274
aS'nsubj=conservative'
p275
aS'nsubj=country'
p276
aS'nsubj=democrat'
p277
aS'nsubj=donor'
p278
aS'nsubj=environmentalist'
p279
aS'nsubj=family'
p280
aS'nsubj=fellow'
p281
aS'nsubj=government'
p282
aS'nsubj=group'
p283
aS'nsubj=lawmaker'
p284
aS'nsubj=leader'
p285
aS'nsubj=member'
p286
aS'nsubj=nation'
p287
aS'nsubj=need'
p288
aS'nsubj=obstacle'
p289
aS'nsubj=official'
p290
aS'nsubj=other'
p291
aS'nsubj=party'
p292
aS'nsubj=president'
p293
aS'nsubj=producer'
p294
aS'nsubj=rebel'
p295
aS'nsubj=reporter'
p296
aS'nsubj=republican'
p297
aS'nsubj=rescuer'
p298
aS'nsubj=senator'
p299
aS'nsubj=sightsaver'
p300
aS'nsubj=that'
p301
aS'nsubj=troops'
p302
aS'nsubj=unionist'
p303
aS'nsubj=which'
p304
aS'nsubjpass=#PRP#'
p305
aS'nsubjpass=Clinton'
p306
aS'nsubjpass=Hayden'
p307
aS'nsubjpass=Mueller'
p308
aS'nsubjpass=Musharraf'
p309
aS'nsubjpass=administration'
p310
aS'nsubjpass=each'
p311
aS'parataxis=remain'
p312
aS'partmod=demand'
p313
aS'partmod=guarantee'
p314
aS'partmod=note'
p315
aS'poss=Singh'
p316
aS'prep=about'
p317
aS'prep=above'
p318
aS'prep=after'
p319
aS'prep=against'
p320
aS'prep=around'
p321
aS'prep=as'
p322
aS'prep=at'
p323
aS'prep=before'
p324
aS'prep=by'
p325
aS'prep=despite'
p326
aS'prep=during'
p327
aS'prep=for'
p328
aS'prep=in'
p329
aS'prep=include'
p330
aS'prep=into'
p331
aS'prep=of'
p332
aS'prep=on'
p333
aS'prep=since'
p334
aS'prep=through'
p335
aS'prep=to'
p336
aS'prep=toward'
p337
aS'prep=with'
p338
aS'rcmod=embrace'
p339
aS'rcmod=espouse'
p340
aS'rcmod=free'
p341
aS'tmod=blow'
p342
aS'tmod=today'
p343
aS'tmod=year'
p344
aS"w+1=''"
p345
aS'w+1=,'
p346
aS'w+1=-'
p347
aS'w+1=--'
p348
aS'w+1=.'
p349
aS'w+1=Ankara'
p350
aS'w+1=Arab'
p351
aS'w+1=Bowen'
p352
aS'w+1=China'
p353
aS'w+1=Congress'
p354
aS'w+1=Cuba'
p355
aS'w+1=Egypt'
p356
aS'w+1=Fatah'
p357
aS'w+1=Friday'
p358
aS'w+1=Gates'
p359
aS'w+1=General'
p360
aS'w+1=Georgia'
p361
aS'w+1=Gonzales'
p362
aS'w+1=Iran'
p363
aS'w+1=Iraq'
p364
aS'w+1=Israel'
p365
aS'w+1=Khartoum'
p366
aS'w+1=Moscow'
p367
aS'w+1=Mr.'
p368
aS'w+1=Mugabe'
p369
aS'w+1=NATO'
p370
aS'w+1=New'
p371
aS'w+1=North'
p372
aS'w+1=OPEC'
p373
aS'w+1=Paulson'
p374
aS'w+1=President'
p375
aS'w+1=Rice'
p376
aS'w+1=Rove'
p377
aS'w+1=Saudi'
p378
aS'w+1=Secretary'
p379
aS'w+1=State'
p380
aS'w+1=Sudan'
p381
aS'w+1=Syria'
p382
aS'w+1=Turkey'
p383
aS'w+1=U.S.'
p384
aS'w+1=YouTube'
p385
aS'w+1=a'
p386
aS'w+1=about'
p387
aS'w+1=account'
p388
aS'w+1=advocate'
p389
aS'w+1=after'
p390
aS'w+1=again'
p391
aS'w+1=against'
p392
aS'w+1=agency'
p393
aS'w+1=ahead'
p394
aS'w+1=al-Bashir'
p395
aS'w+1=all'
p396
aS'w+1=alliance'
p397
aS'w+1=along'
p398
aS'w+1=among'
p399
aS'w+1=and'
p400
aS'w+1=another'
p401
aS'w+1=appearance'
p402
aS'w+1=as'
p403
aS'w+1=at'
p404
aS'w+1=attache'
p405
aS'w+1=be'
p406
aS'w+1=because'
p407
aS'w+1=bishop'
p408
aS'w+1=briefing'
p409
aS'w+1=burma'
p410
aS'w+1=by'
p411
aS'w+1=card'
p412
aS'w+1=censorship'
p413
aS'w+1=center'
p414
aS'w+1=central'
p415
aS'w+1=charge'
p416
aS'w+1=club'
p417
aS'w+1=concern'
p418
aS'w+1=condition'
p419
aS'w+1=conference'
p420
aS'w+1=congressman'
p421
aS'w+1=corps'
p422
aS'w+1=could'
p423
aS'w+1=criminal'
p424
aS'w+1=daily'
p425
aS'w+1=diplomatically'
p426
aS'w+1=director'
p427
aS'w+1=economic'
p428
aS'w+1=event'
p429
aS'w+1=federal'
p430
aS'w+1=fellow'
p431
aS'w+1=for'
p432
aS'w+1=forward'
p433
aS'w+1=freedom'
p434
aS'w+1=further'
p435
aS'w+1=gathering'
p436
aS'w+1=georgian'
p437
aS'w+1=government'
p438
aS'w+1=guarantee'
p439
aS'w+1=hard'
p440
aS'w+1=have'
p441
aS'w+1=he'
p442
aS'w+1=human'
p443
aS'w+1=if'
p444
aS'w+1=in'
p445
aS'w+1=infrastructure'
p446
aS'w+1=international'
p447
aS'w+1=into'
p448
aS'w+1=iraqi'
p449
aS'w+1=israeli'
p450
aS'w+1=issue'
p451
aS'w+1=its'
p452
aS'w+1=just'
p453
aS'w+1=law'
p454
aS'w+1=leader'
p455
aS'w+1=legislation'
p456
aS'w+1=lesser'
p457
aS'w+1=local'
p458
aS'w+1=macro'
p459
aS'w+1=must'
p460
aS'w+1=nation'
p461
aS'w+1=need'
p462
aS'w+1=neighbor'
p463
aS'w+1=now'
p464
aS'w+1=of'
p465
aS'w+1=offens'
p466
aS'w+1=officer'
p467
aS'w+1=on'
p468
aS'w+1=once'
p469
aS'w+1=or'
p470
aS'w+1=ordinance'
p471
aS'w+1=organization'
p472
aS'w+1=other'
p473
aS'w+1=people'
p474
aS'w+1=pickup'
p475
aS'w+1=plane'
p476
aS'w+1=priority'
p477
aS'w+1=problem'
p478
aS'w+1=prove'
p479
aS'w+1=rank'
p480
aS'w+1=rebel'
p481
aS'w+1=regional'
p482
aS'w+1=regulation'
p483
aS'w+1=regulatory'
p484
aS'w+1=release'
p485
aS'w+1=report'
p486
aS'w+1=roll-out'
p487
aS'w+1=run'
p488
aS'w+1=secretary'
p489
aS'w+1=she'
p490
aS'w+1=spokeswoman'
p491
aS'w+1=statement'
p492
aS'w+1=syndicate'
p493
aS'w+1=tattered'
p494
aS'w+1=that'
p495
aS'w+1=the'
p496
aS'w+1=they'
p497
aS'w+1=this'
p498
aS'w+1=to'
p499
aS'w+1=too'
p500
aS'w+1=tour'
p501
aS'w+1=toward'
p502
aS'w+1=try'
p503
aS'w+1=very'
p504
aS'w+1=watchdog'
p505
aS'w+1=will'
p506
aS'w+1=would'
p507
aS'w+1=young'
p508
aS"w+2='"
p509
aS"w+2=''"
p510
aS"w+2='s"
p511
aS'w+2=,'
p512
aS'w+2=--'
p513
aS'w+2=-lrb-'
p514
aS'w+2=.'
p515
aS'w+2=:'
p516
aS'w+2=Arab'
p517
aS'w+2=Arabia'
p518
aS'w+2=Bush'
p519
aS'w+2=Clinton'
p520
aS'w+2=Committee'
p521
aS'w+2=Dana'
p522
aS'w+2=European'
p523
aS'w+2=Friday'
p524
aS'w+2=Gates'
p525
aS'w+2=Gbagbo'
p526
aS'w+2=India'
p527
aS'w+2=International'
p528
aS'w+2=Iraqis'
p529
aS'w+2=Israelis'
p530
aS'w+2=Jim'
p531
aS'w+2=Kampala'
p532
aS'w+2=Korea'
p533
aS'w+2=Mam'
p534
aS'w+2=Monday'
p535
aS'w+2=Ms.'
p536
aS'w+2=Mugabe'
p537
aS'w+2=Musharraf'
p538
aS'w+2=NATO'
p539
aS'w+2=New'
p540
aS'w+2=North'
p541
aS'w+2=Obama'
p542
aS'w+2=Palestinians'
p543
aS'w+2=Prime'
p544
aS'w+2=Reporters'
p545
aS'w+2=Scott'
p546
aS'w+2=Senegal'
p547
aS'w+2=Somalia'
p548
aS'w+2=Syria'
p549
aS'w+2=Tony'
p550
aS'w+2=Tuesday'
p551
aS'w+2=United'
p552
aS'w+2=Washington'
p553
aS'w+2=Waxman'
p554
aS'w+2=York'
p555
aS'w+2=a'
p556
aS'w+2=about'
p557
aS'w+2=administration'
p558
aS'w+2=after'
p559
aS'w+2=afternoon'
p560
aS'w+2=again'
p561
aS'w+2=against'
p562
aS'w+2=agency'
p563
aS'w+2=all'
p564
aS'w+2=allow'
p565
aS'w+2=ally'
p566
aS'w+2=along'
p567
aS'w+2=also'
p568
aS'w+2=among'
p569
aS'w+2=and'
p570
aS'w+2=announce'
p571
aS'w+2=another'
p572
aS'w+2=answer'
p573
aS'w+2=approval'
p574
aS'w+2=around'
p575
aS'w+2=as'
p576
aS'w+2=asian'
p577
aS'w+2=at'
p578
aS'w+2=authority'
p579
aS'w+2=autonomy'
p580
aS'w+2=award'
p581
aS'w+2=ban'
p582
aS'w+2=bank'
p583
aS'w+2=be'
p584
aS'w+2=because'
p585
aS'w+2=before'
p586
aS'w+2=bishop'
p587
aS'w+2=blame'
p588
aS'w+2=body'
p589
aS'w+2=both'
p590
aS'w+2=burmese'
p591
aS'w+2=but'
p592
aS'w+2=button'
p593
aS'w+2=by'
p594
aS'w+2=case'
p595
aS'w+2=cause'
p596
aS'w+2=chairman'
p597
aS'w+2=change'
p598
aS'w+2=characterize'
p599
aS'w+2=charge'
p600
aS'w+2=civil'
p601
aS'w+2=clarify'
p602
aS'w+2=come'
p603
aS'w+2=committee'
p604
aS'w+2=communist-led'
p605
aS'w+2=condition'
p606
aS'w+2=continue'
p607
aS'w+2=could'
p608
aS'w+2=country'
p609
aS'w+2=crack'
p610
aS'w+2=defend'
p611
aS'w+2=defuse'
p612
aS'w+2=demand'
p613
aS'w+2=democratic'
p614
aS'w+2=despite'
p615
aS'w+2=domestic'
p616
aS'w+2=down'
p617
aS'w+2=downplay'
p618
aS'w+2=during'
p619
aS'w+2=economic'
p620
aS'w+2=embrace'
p621
aS'w+2=even'
p622
aS'w+2=even-starker'
p623
aS'w+2=evident'
p624
aS'w+2=exist'
p625
aS'w+2=express'
p626
aS'w+2=face'
p627
aS'w+2=faction'
p628
aS'w+2=fight'
p629
aS'w+2=follow'
p630
aS'w+2=for'
p631
aS'w+2=foreign'
p632
aS'w+2=former'
p633
aS'w+2=free'
p634
aS'w+2=freedom'
p635
aS'w+2=from'
p636
aS'w+2=full'
p637
aS'w+2=further'
p638
aS'w+2=general'
p639
aS'w+2=get'
p640
aS'w+2=go'
p641
aS'w+2=government'
p642
aS'w+2=group'
p643
aS'w+2=hard'
p644
aS'w+2=harder'
p645
aS'w+2=have'
p646
aS'w+2=he'
p647
aS'w+2=head'
p648
aS'w+2=here'
p649
aS'w+2=how'
p650
aS'w+2=human'
p651
aS'w+2=implementation'
p652
aS'w+2=important'
p653
aS'w+2=improve'
p654
aS'w+2=in'
p655
aS'w+2=increase'
p656
aS'w+2=into'
p657
aS'w+2=investigate'
p658
aS'w+2=investigator'
p659
aS'w+2=ipy'
p660
aS'w+2=iraqi'
p661
aS'w+2=issue'
p662
aS'w+2=justify'
p663
aS'w+2=kenyan'
p664
aS'w+2=last'
p665
aS'w+2=launch'
p666
aS'w+2=leader'
p667
aS'w+2=legislation'
p668
aS'w+2=local'
p669
aS'w+2=long'
p670
aS'w+2=man'
p671
aS'w+2=matter'
p672
aS'w+2=measure'
p673
aS'w+2=military'
p674
aS'w+2=month'
p675
aS'w+2=more'
p676
aS'w+2=nation'
p677
aS'w+2=need'
p678
aS'w+2=new'
p679
aS'w+2=no'
p680
aS'w+2=non-existent'
p681
aS'w+2=not'
p682
aS'w+2=objection'
p683
aS'w+2=of'
p684
aS'w+2=official'
p685
aS'w+2=on'
p686
aS'w+2=operate'
p687
aS'w+2=opposition'
p688
aS'w+2=organization'
p689
aS'w+2=other'
p690
aS'w+2=peaceful'
p691
aS'w+2=pessimistic'
p692
aS'w+2=pick'
p693
aS'w+2=political'
p694
aS'w+2=president'
p695
aS'w+2=prevent'
p696
aS'w+2=pro-democracy'
p697
aS'w+2=problem'
p698
aS'w+2=progress'
p699
aS'w+2=provide'
p700
aS'w+2=public'
p701
aS'w+2=quite'
p702
aS'w+2=rank'
p703
aS'w+2=recent'
p704
aS'w+2=record'
p705
aS'w+2=refuse'
p706
aS'w+2=remain'
p707
aS'w+2=report'
p708
aS'w+2=reporter'
p709
aS'w+2=restore'
p710
aS'w+2=rights'
p711
aS'w+2=sanction'
p712
aS'w+2=say'
p713
aS'w+2=secretary'
p714
aS'w+2=seek'
p715
aS'w+2=she'
p716
aS'w+2=short-term'
p717
aS'w+2=side'
p718
aS'w+2=so'
p719
aS'w+2=south'
p720
aS'w+2=speculate'
p721
aS'w+2=state'
p722
aS'w+2=storefront'
p723
aS'w+2=story'
p724
aS'w+2=substantial'
p725
aS'w+2=such'
p726
aS'w+2=symbolic'
p727
aS'w+2=that'
p728
aS'w+2=the'
p729
aS'w+2=there'
p730
aS'w+2=this'
p731
aS'w+2=to'
p732
aS'w+2=tough'
p733
aS'w+2=tougher'
p734
aS'w+2=tourist'
p735
aS'w+2=truck'
p736
aS'w+2=ultimately'
p737
aS'w+2=unborn'
p738
aS'w+2=unity'
p739
aS'w+2=universal'
p740
aS'w+2=voter'
p741
aS'w+2=voting'
p742
aS'w+2=watchdog'
p743
aS'w+2=we'
p744
aS'w+2=where'
p745
aS'w+2=which'
p746
aS'w+2=widely'
p747
aS'w+2=with'
p748
aS'w+2=work'
p749
aS'w+2=wrap'
p750
aS'w+2=yesterday'
p751
aS"w-1='s"
p752
aS'w-1=,'
p753
aS'w-1=.'
p754
aS'w-1=1999'
p755
aS'w-1=19th'
p756
aS'w-1=2004'
p757
aS'w-1=2009'
p758
aS'w-1=:'
p759
aS'w-1=Adua'
p760
aS'w-1=Ankara'
p761
aS'w-1=Arab'
p762
aS'w-1=Bingham'
p763
aS'w-1=Bush'
p764
aS'w-1=COSATU'
p765
aS'w-1=Clinton'
p766
aS'w-1=Congress'
p767
aS'w-1=Democrats'
p768
aS'w-1=Department'
p769
aS'w-1=Deputy'
p770
aS'w-1=Ellison'
p771
aS'w-1=House'
p772
aS'w-1=I'
p773
aS'w-1=January'
p774
aS'w-1=Lantos'
p775
aS'w-1=Lin'
p776
aS'w-1=Murrow'
p777
aS'w-1=Pentagon'
p778
aS'w-1=U.S.'
p779
aS'w-1=Union'
p780
aS'w-1=`'
p781
aS'w-1=a'
p782
aS'w-1=abuse'
p783
aS'w-1=afternoon'
p784
aS'w-1=again'
p785
aS'w-1=against'
p786
aS'w-1=aggressively'
p787
aS'w-1=also'
p788
aS'w-1=ambassador'
p789
aS'w-1=and'
p790
aS'w-1=another'
p791
aS'w-1=any'
p792
aS'w-1=as'
p793
aS'w-1=assemble'
p794
aS'w-1=associated'
p795
aS'w-1=at'
p796
aS'w-1=be'
p797
aS'w-1=begin'
p798
aS'w-1=brief'
p799
aS'w-1=but'
p800
aS'w-1=by'
p801
aS'w-1=child'
p802
aS'w-1=class'
p803
aS'w-1=closing'
p804
aS'w-1=coalition'
p805
aS'w-1=confirm'
p806
aS'w-1=continue'
p807
aS'w-1=could'
p808
aS'w-1=cuban'
p809
aS'w-1=curb'
p810
aS'w-1=deny'
p811
aS'w-1=deputy'
p812
aS'w-1=discuss'
p813
aS'w-1=egyptian'
p814
aS'w-1=employ'
p815
aS'w-1=especially'
p816
aS'w-1=european'
p817
aS'w-1=favorable'
p818
aS'w-1=five'
p819
aS'w-1=for'
p820
aS'w-1=foreign'
p821
aS'w-1=free'
p822
aS'w-1=french'
p823
aS'w-1=full-court'
p824
aS'w-1=get'
p825
aS'w-1=government'
p826
aS'w-1=greater'
p827
aS'w-1=group'
p828
aS'w-1=guarantee'
p829
aS'w-1=hamas-issued'
p830
aS'w-1=hard'
p831
aS'w-1=harm'
p832
aS'w-1=have'
p833
aS'w-1=he'
p834
aS'w-1=hold'
p835
aS'w-1=if'
p836
aS'w-1=improve'
p837
aS'w-1=in'
p838
aS'w-1=increasingly'
p839
aS'w-1=independent'
p840
aS'w-1=indian'
p841
aS'w-1=international'
p842
aS'w-1=it'
p843
aS'w-1=its'
p844
aS'w-1=joint'
p845
aS'w-1=keep'
p846
aS'w-1=labor'
p847
aS'w-1=local'
p848
aS'w-1=main'
p849
aS'w-1=many'
p850
aS'w-1=may'
p851
aS'w-1=member'
p852
aS'w-1=militant'
p853
aS'w-1=military'
p854
aS'w-1=more'
p855
aS'w-1=most'
p856
aS'w-1=must'
p857
aS'w-1=national'
p858
aS'w-1=new'
p859
aS'w-1=no'
p860
aS'w-1=not'
p861
aS'w-1=now'
p862
aS'w-1=of'
p863
aS'w-1=on'
p864
aS'w-1=opening'
p865
aS'w-1=opposition'
p866
aS'w-1=osce'
p867
aS'w-1=other'
p868
aS'w-1=own'
p869
aS'w-1=particular'
p870
aS'w-1=policymaker'
p871
aS'w-1=power'
p872
aS'w-1=pre-fight'
p873
aS'w-1=presidential'
p874
aS'w-1=prime-time'
p875
aS'w-1=print'
p876
aS'w-1=printing'
p877
aS'w-1=private'
p878
aS'w-1=privately'
p879
aS'w-1=promote'
p880
aS'w-1=recent'
p881
aS'w-1=regard'
p882
aS'w-1=repeatedly'
p883
aS'w-1=reporter'
p884
aS'w-1=require'
p885
aS'w-1=rescuer'
p886
aS'w-1=respect'
p887
aS'w-1=resume'
p888
aS'w-1=russian'
p889
aS'w-1=say'
p890
aS'w-1=senator'
p891
aS'w-1=separate'
p892
aS'w-1=several'
p893
aS'w-1=she'
p894
aS'w-1=should'
p895
aS'w-1=so-called'
p896
aS'w-1=solve'
p897
aS'w-1=state'
p898
aS'w-1=state-owned'
p899
aS'w-1=successfully'
p900
aS'w-1=support'
p901
aS'w-1=than'
p902
aS'w-1=that'
p903
aS'w-1=the'
p904
aS'w-1=then'
p905
aS'w-1=these'
p906
aS'w-1=they'
p907
aS'w-1=those'
p908
aS'w-1=to'
p909
aS'w-1=toward'
p910
aS'w-1=troops'
p911
aS'w-1=venezuelan'
p912
aS'w-1=vietnamese'
p913
aS'w-1=when'
p914
aS'w-1=where'
p915
aS'w-1=will'
p916
aS'w-1=would'
p917
aS'w-1=written'
p918
aS"w-2=''"
p919
aS"w-2='s"
p920
aS'w-2=,'
p921
aS'w-2=.'
p922
aS'w-2=Accord'
p923
aS'w-2=Beirut'
p924
aS'w-2=Bush'
p925
aS'w-2=Clinton'
p926
aS'w-2=Congressman'
p927
aS'w-2=Council'
p928
aS'w-2=Court'
p929
aS'w-2=Courts'
p930
aS'w-2=Democrat'
p931
aS'w-2=Department'
p932
aS'w-2=East'
p933
aS'w-2=Ford'
p934
aS'w-2=France'
p935
aS'w-2=Gambia'
p936
aS'w-2=Georgia'
p937
aS'w-2=Hayden'
p938
aS'w-2=Hill'
p939
aS'w-2=House'
p940
aS'w-2=Htein'
p941
aS'w-2=Keith'
p942
aS'w-2=Ki-Moon'
p943
aS'w-2=Levin'
p944
aS'w-2=March'
p945
aS'w-2=Moore'
p946
aS'w-2=Moriarity'
p947
aS'w-2=Mueller'
p948
aS'w-2=Musharraf'
p949
aS'w-2=Pakistan'
p950
aS'w-2=Party'
p951
aS'w-2=President'
p952
aS'w-2=R.'
p953
aS'w-2=Republicans'
p954
aS'w-2=Rice'
p955
aS'w-2=Richardson'
p956
aS'w-2=Somalia'
p957
aS'w-2=State'
p958
aS'w-2=States'
p959
aS'w-2=Sundhage'
p960
aS'w-2=Thailand'
p961
aS'w-2=Thursday'
p962
aS'w-2=Tuesday'
p963
aS'w-2=Union'
p964
aS'w-2=Washington'
p965
aS'w-2=Weiner'
p966
aS'w-2=White'
p967
aS'w-2=Zimbabwe'
p968
aS'w-2=`'
p969
aS'w-2=a'
p970
aS'w-2=accord'
p971
aS'w-2=action'
p972
aS'w-2=active'
p973
aS'w-2=activist'
p974
aS'w-2=administration'
p975
aS'w-2=advantage'
p976
aS'w-2=after'
p977
aS'w-2=against'
p978
aS'w-2=agent'
p979
aS'w-2=aim'
p980
aS'w-2=ally'
p981
aS'w-2=amid'
p982
aS'w-2=among'
p983
aS'w-2=and'
p984
aS'w-2=approach'
p985
aS'w-2=arm'
p986
aS'w-2=as'
p987
aS'w-2=association'
p988
aS'w-2=at'
p989
aS'w-2=attend'
p990
aS'w-2=backslider'
p991
aS'w-2=bank'
p992
aS'w-2=be'
p993
aS'w-2=because'
p994
aS'w-2=believe'
p995
aS'w-2=bid'
p996
aS'w-2=billion'
p997
aS'w-2=board'
p998
aS'w-2=body'
p999
aS'w-2=but'
p1000
aS'w-2=by'
p1001
aS'w-2=call'
p1002
aS'w-2=campaign'
p1003
aS'w-2=cheap'
p1004
aS'w-2=citizen'
p1005
aS'w-2=climate'
p1006
aS'w-2=combination'
p1007
aS'w-2=come'
p1008
aS'w-2=commit'
p1009
aS'w-2=company'
p1010
aS'w-2=conservative'
p1011
aS'w-2=constitution'
p1012
aS'w-2=continue'
p1013
aS'w-2=control'
p1014
aS'w-2=country'
p1015
aS'w-2=crackdown'
p1016
aS'w-2=decision'
p1017
aS'w-2=defend'
p1018
aS'w-2=democrat'
p1019
aS'w-2=diplomatic'
p1020
aS'w-2=director'
p1021
aS'w-2=do'
p1022
aS'w-2=down'
p1023
aS'w-2=during'
p1024
aS'w-2=each'
p1025
aS'w-2=earlier'
p1026
aS'w-2=environmentalist'
p1027
aS'w-2=expect'
p1028
aS'w-2=family'
p1029
aS'w-2=far'
p1030
aS'w-2=fight'
p1031
aS'w-2=follow'
p1032
aS'w-2=for'
p1033
aS'w-2=forward'
p1034
aS'w-2=freedom'
p1035
aS'w-2=gaggle'
p1036
aS'w-2=gauge'
p1037
aS'w-2=go'
p1038
aS'w-2=government'
p1039
aS'w-2=group'
p1040
aS'w-2=have'
p1041
aS'w-2=he'
p1042
aS'w-2=hold'
p1043
aS'w-2=if'
p1044
aS'w-2=ignore'
p1045
aS'w-2=impediment'
p1046
aS'w-2=in'
p1047
aS'w-2=index'
p1048
aS'w-2=influence'
p1049
aS'w-2=infringement'
p1050
aS'w-2=inspire'
p1051
aS'w-2=intend'
p1052
aS'w-2=intent'
p1053
aS'w-2=intention'
p1054
aS'w-2=interest'
p1055
aS'w-2=into'
p1056
aS'w-2=issue'
p1057
aS'w-2=it'
p1058
aS'w-2=its'
p1059
aS'w-2=lack'
p1060
aS'w-2=lawmaker'
p1061
aS'w-2=leader'
p1062
aS'w-2=limit'
p1063
aS'w-2=lively'
p1064
aS'w-2=look'
p1065
aS'w-2=mainstream'
p1066
aS'w-2=many'
p1067
aS'w-2=measure'
p1068
aS'w-2=meeting'
p1069
aS'w-2=month'
p1070
aS'w-2=move'
p1071
aS'w-2=must'
p1072
aS'w-2=muzzle'
p1073
aS'w-2=nation'
p1074
aS'w-2=necessary'
p1075
aS'w-2=need'
p1076
aS'w-2=neighbor'
p1077
aS'w-2=network'
p1078
aS'w-2=newly'
p1079
aS'w-2=ngo'
p1080
aS'w-2=no'
p1081
aS'w-2=not'
p1082
aS'w-2=now'
p1083
aS'w-2=obstacle'
p1084
aS'w-2=of'
p1085
aS'w-2=official'
p1086
aS'w-2=on'
p1087
aS'w-2=open'
p1088
aS'w-2=opponent'
p1089
aS'w-2=opportunity'
p1090
aS'w-2=opposition'
p1091
aS'w-2=or'
p1092
aS'w-2=other'
p1093
aS'w-2=outside'
p1094
aS'w-2=part'
p1095
aS'w-2=past'
p1096
aS'w-2=picture'
p1097
aS'w-2=pledge'
p1098
aS'w-2=point'
p1099
aS'w-2=precede'
p1100
aS'w-2=prepare'
p1101
aS'w-2=president'
p1102
aS'w-2=pressure'
p1103
aS'w-2=principle'
p1104
aS'w-2=privately'
p1105
aS'w-2=prolong'
p1106
aS'w-2=prosecution'
p1107
aS'w-2=public'
p1108
aS'w-2=quickly'
p1109
aS'w-2=quote'
p1110
aS'w-2=rather'
p1111
aS'w-2=read'
p1112
aS'w-2=ready'
p1113
aS'w-2=rebel'
p1114
aS'w-2=recently'
p1115
aS'w-2=reduction'
p1116
aS'w-2=regression'
p1117
aS'w-2=relatively'
p1118
aS'w-2=reply'
p1119
aS'w-2=report'
p1120
aS'w-2=reporter'
p1121
aS'w-2=republican'
p1122
aS'w-2=respond'
p1123
aS'w-2=restriction'
p1124
aS'w-2=role'
p1125
aS'w-2=ruling'
p1126
aS'w-2=say'
p1127
aS'w-2=seize'
p1128
aS'w-2=set'
p1129
aS'w-2=she'
p1130
aS'w-2=speak'
p1131
aS'w-2=stability'
p1132
aS'w-2=state'
p1133
aS'w-2=statistics'
p1134
aS'w-2=strike'
p1135
aS'w-2=strong'
p1136
aS'w-2=support'
p1137
aS'w-2=survey'
p1138
aS'w-2=suspend'
p1139
aS'w-2=take'
p1140
aS'w-2=tell'
p1141
aS'w-2=term'
p1142
aS'w-2=that'
p1143
aS'w-2=the'
p1144
aS'w-2=then'
p1145
aS'w-2=there'
p1146
aS'w-2=they'
p1147
aS'w-2=though'
p1148
aS'w-2=threat'
p1149
aS'w-2=time'
p1150
aS'w-2=to'
p1151
aS'w-2=toward'
p1152
aS'w-2=underscore'
p1153
aS'w-2=unlikely'
p1154
aS'w-2=upbeat'
p1155
aS'w-2=use'
p1156
aS'w-2=vibrant'
p1157
aS'w-2=violation'
p1158
aS'w-2=vow'
p1159
aS'w-2=want'
p1160
aS'w-2=way'
p1161
aS'w-2=we'
p1162
aS'w-2=week'
p1163
aS'w-2=when'
p1164
aS'w-2=whether'
p1165
aS'w-2=while'
p1166
aS'w-2=will'
p1167
aS'w-2=willing'
p1168
aS'w-2=with'
p1169
aS'w-2=world'
p1170
aS'w-2=would'
p1171
aS'w-2=year'
p1172
aS'w-2=yet'
p1173
aS'xcomp=Reporters'
p1174
aS'xcomp=abandon'
p1175
aS'xcomp=accept'
p1176
aS'xcomp=act'
p1177
aS'xcomp=agree'
p1178
aS'xcomp=allow'
p1179
aS'xcomp=appear'
p1180
aS'xcomp=approve'
p1181
aS'xcomp=assertive'
p1182
aS'xcomp=begin'
p1183
aS'xcomp=believe'
p1184
aS'xcomp=carry'
p1185
aS'xcomp=change'
p1186
aS'xcomp=clarify'
p1187
aS'xcomp=come'
p1188
aS'xcomp=compel'
p1189
aS'xcomp=confirm'
p1190
aS'xcomp=contribute'
p1191
aS'xcomp=cooperate'
p1192
aS'xcomp=declare'
p1193
aS'xcomp=defend'
p1194
aS'xcomp=delay'
p1195
aS'xcomp=dismantle'
p1196
aS'xcomp=do'
p1197
aS'xcomp=drop'
p1198
aS'xcomp=end'
p1199
aS'xcomp=expand'
p1200
aS'xcomp=expel'
p1201
aS'xcomp=explain'
p1202
aS'xcomp=fight'
p1203
aS'xcomp=find'
p1204
aS'xcomp=follow'
p1205
aS'xcomp=give'
p1206
aS'xcomp=halt'
p1207
aS'xcomp=hard'
p1208
aS'xcomp=hold'
p1209
aS'xcomp=honor'
p1210
aS'xcomp=increase'
p1211
aS'xcomp=investigate'
p1212
aS'xcomp=keep'
p1213
aS'xcomp=live'
p1214
aS'xcomp=make'
p1215
aS'xcomp=meet'
p1216
aS'xcomp=move'
p1217
aS'xcomp=name'
p1218
aS'xcomp=open'
p1219
aS'xcomp=pass'
p1220
aS'xcomp=peacekeep'
p1221
aS'xcomp=prevent'
p1222
aS'xcomp=produce'
p1223
aS'xcomp=protect'
p1224
aS'xcomp=provide'
p1225
aS'xcomp=push'
p1226
aS'xcomp=reach'
p1227
aS'xcomp=remove'
p1228
aS'xcomp=renew'
p1229
aS'xcomp=reopen'
p1230
aS'xcomp=say'
p1231
aS'xcomp=secure'
p1232
aS'xcomp=send'
p1233
aS'xcomp=settle'
p1234
aS'xcomp=speed'
p1235
aS'xcomp=stop'
p1236
aS'xcomp=strengthen'
p1237
aS'xcomp=submit'
p1238
aS'xcomp=support'
p1239
aS'xcomp=take'
p1240
aS'xcomp=testify'
p1241
aS'xcomp=turn'
p1242
aS'xcomp=unify'
p1243
aS'xcomp=use'
p1244
aS'xcomp=work'
p1245
asS'dtype'
p1246
cnumpy
float64
p1247
sS'vocabulary_'
p1248
(dp1249
g42
I33
sg714
I705
sg621
I612
sg324
I315
sg637
I628
sg997
I988
sg725
I716
sg1118
I1109
sg475
I466
sg34
I25
sg235
I226
sg382
I373
sg142
I133
sg885
I876
sg1036
I1027
sg27
I18
sg1162
I1153
sg975
I966
sg32
I23
sg569
I560
sg128
I119
sg604
I595
sg37
I28
sg710
I701
sg1030
I1021
sg619
I610
sg1027
I1018
sg555
I546
sg44
I35
sg902
I893
sg1121
I1112
sg1097
I1088
sg220
I211
sg1244
I1235
sg1115
I1106
sg946
I937
sg424
I415
sg59
I50
sg247
I238
sg28
I19
sg691
I682
sg1076
I1067
sg644
I635
sg754
I745
sg1147
I1138
sg635
I626
sg990
I981
sg179
I170
sg132
I123
sg821
I812
sg26
I17
sg525
I516
sg1015
I1006
sg877
I868
sg495
I486
sg190
I181
sg184
I175
sg160
I151
sg706
I697
sg282
I273
sg825
I816
sg1199
I1190
sg598
I589
sg917
I908
sg125
I116
sg890
I881
sg41
I32
sg717
I708
sg56
I47
sg222
I213
sg1086
I1077
sg859
I850
sg156
I147
sg750
I741
sg1159
I1150
sg1053
I1044
sg198
I189
sg934
I925
sg261
I252
sg704
I695
sg803
I794
sg484
I475
sg377
I368
sg1017
I1008
sg1238
I1229
sg134
I125
sg1052
I1043
sg1219
I1210
sg1161
I1152
sg163
I154
sg916
I907
sg489
I480
sg420
I411
sg937
I928
sg1094
I1085
sg876
I867
sg1175
I1166
sg458
I449
sg765
I756
sg1134
I1125
sg366
I357
sg801
I792
sg797
I788
sg983
I974
sg587
I578
sg911
I902
sg430
I421
sg1029
I1020
sg1144
I1135
sg191
I182
sg928
I919
sg545
I536
sg490
I481
sg1206
I1197
sg1150
I1141
sg815
I806
sg177
I168
sg285
I276
sg692
I683
sg962
I953
sg61
I52
sg154
I145
sg764
I755
sg205
I196
sg819
I810
sg1045
I1036
sg873
I864
sg240
I231
sg370
I361
sg387
I378
sg609
I600
sg155
I146
sg465
I456
sg898
I889
sg286
I277
sg224
I215
sg732
I723
sg468
I459
sg1067
I1058
sg596
I587
sg1018
I1009
sg112
I103
sg84
I75
sg703
I694
sg585
I576
sg299
I290
sg1007
I998
sg833
I824
sg344
I335
sg335
I326
sg500
I491
sg951
I942
sg407
I398
sg767
I758
sg1135
I1126
sg514
I505
sg15
I6
sg10
I1
sg655
I646
sg1163
I1154
sg785
I776
sg485
I476
sg829
I820
sg519
I510
sg808
I799
sg317
I308
sg932
I923
sg96
I87
sg661
I652
sg474
I465
sg195
I186
sg941
I932
sg116
I107
sg137
I128
sg1173
I1164
sg795
I786
sg113
I104
sg773
I764
sg1149
I1140
sg1203
I1194
sg736
I727
sg826
I817
sg311
I302
sg77
I68
sg464
I455
sg12
I3
sg157
I148
sg1120
I1111
sg594
I585
sg373
I364
sg496
I487
sg670
I661
sg1205
I1196
sg91
I82
sg1197
I1188
sg1033
I1024
sg584
I575
sg313
I304
sg497
I488
sg1040
I1031
sg760
I751
sg1107
I1098
sg666
I657
sg695
I686
sg888
I879
sg689
I680
sg602
I593
sg305
I296
sg260
I251
sg524
I515
sg794
I785
sg329
I320
sg478
I469
sg80
I71
sg432
I423
sg1062
I1053
sg845
I836
sg131
I122
sg1019
I1010
sg314
I305
sg197
I188
sg953
I944
sg638
I629
sg71
I62
sg550
I541
sg379
I370
sg1051
I1042
sg449
I440
sg1025
I1016
sg88
I79
sg1185
I1176
sg336
I327
sg138
I129
sg268
I259
sg457
I448
sg1034
I1025
sg443
I434
sg694
I685
sg529
I520
sg837
I828
sg884
I875
sg705
I696
sg603
I594
sg1061
I1052
sg678
I669
sg400
I391
sg726
I717
sg1213
I1204
sg971
I962
sg249
I240
sg1208
I1199
sg656
I647
sg793
I784
sg650
I641
sg165
I156
sg284
I275
sg535
I526
sg392
I383
sg737
I728
sg1188
I1179
sg631
I622
sg811
I802
sg473
I464
sg926
I917
sg766
I757
sg168
I159
sg1105
I1096
sg199
I190
sg301
I292
sg843
I834
sg451
I442
sg782
I773
sg29
I20
sg1220
I1211
sg1039
I1030
sg880
I871
sg164
I155
sg1090
I1081
sg228
I219
sg471
I462
sg836
I827
sg712
I703
sg1223
I1214
sg1145
I1136
sg931
I922
sg433
I424
sg838
I829
sg744
I735
sg1231
I1222
sg1174
I1165
sg901
I892
sg369
I360
sg283
I274
sg536
I527
sg958
I949
sg385
I376
sg93
I84
sg1154
I1145
sg461
I452
sg653
I644
sg831
I822
sg685
I676
sg662
I653
sg256
I247
sg1153
I1144
sg215
I206
sg832
I823
sg456
I447
sg211
I202
sg957
I948
sg359
I350
sg219
I210
sg259
I250
sg1133
I1124
sg952
I943
sg436
I427
sg978
I969
sg1189
I1180
sg399
I390
sg939
I930
sg668
I659
sg257
I248
sg39
I30
sg720
I711
sg1078
I1069
sg976
I967
sg281
I272
sg850
I841
sg1236
I1227
sg1230
I1221
sg683
I674
sg264
I255
sg749
I740
sg441
I432
sg492
I483
sg144
I135
sg109
I100
sg504
I495
sg578
I569
sg1240
I1231
sg202
I193
sg1156
I1147
sg930
I921
sg330
I321
sg68
I59
sg699
I690
sg592
I583
sg883
I874
sg1179
I1170
sg159
I150
sg1092
I1083
sg95
I86
sg414
I405
sg476
I467
sg1217
I1208
sg974
I965
sg295
I286
sg381
I372
sg925
I916
sg123
I114
sg1085
I1076
sg518
I509
sg1064
I1055
sg188
I179
sg881
I872
sg1087
I1078
sg909
I900
sg1200
I1191
sg263
I254
sg1178
I1169
sg453
I444
sg348
I339
sg212
I203
sg676
I667
sg783
I774
sg935
I926
sg1142
I1133
sg292
I283
sg827
I818
sg145
I136
sg1022
I1013
sg895
I886
sg46
I37
sg151
I142
sg956
I947
sg1101
I1092
sg553
I544
sg809
I800
sg126
I117
sg733
I724
sg1099
I1090
sg265
I256
sg437
I428
sg252
I243
sg963
I954
sg675
I666
sg565
I556
sg711
I702
sg31
I22
sg227
I218
sg76
I67
sg403
I394
sg1138
I1129
sg404
I395
sg776
I767
sg120
I111
sg1227
I1218
sg806
I797
sg442
I433
sg564
I555
sg365
I356
sg949
I940
sg1046
I1037
sg438
I429
sg135
I126
sg673
I664
sg1168
I1159
sg915
I906
sg607
I598
sg813
I804
sg409
I400
sg539
I530
sg1023
I1014
sg1165
I1156
sg595
I586
sg343
I334
sg86
I77
sg167
I158
sg298
I289
sg143
I134
sg665
I656
sg1013
I1004
sg980
I971
sg1048
I1039
sg45
I36
sg1005
I996
sg258
I249
sg481
I472
sg1214
I1205
sg1113
I1104
sg1241
I1232
sg1212
I1203
sg1137
I1128
sg1130
I1121
sg761
I752
sg328
I319
sg24
I15
sg23
I14
sg1239
I1230
sg784
I775
sg810
I801
sg200
I191
sg681
I672
sg743
I734
sg597
I588
sg358
I349
sg239
I230
sg1059
I1050
sg129
I120
sg745
I736
sg189
I180
sg1224
I1215
sg608
I599
sg1157
I1148
sg899
I890
sg326
I317
sg605
I596
sg507
I498
sg722
I713
sg1009
I1000
sg66
I57
sg350
I341
sg81
I72
sg372
I363
sg1108
I1099
sg752
I743
sg340
I331
sg558
I549
sg1014
I1005
sg493
I484
sg622
I613
sg527
I518
sg559
I550
sg755
I746
sg325
I316
sg575
I566
sg440
I431
sg772
I763
sg759
I750
sg1123
I1114
sg271
I262
sg769
I760
sg463
I454
sg610
I601
sg136
I127
sg993
I984
sg408
I399
sg713
I704
sg961
I952
sg1196
I1187
sg30
I21
sg1079
I1070
sg630
I621
sg234
I225
sg985
I976
sg1242
I1233
sg1103
I1094
sg308
I299
sg612
I603
sg927
I918
sg452
I443
sg118
I109
sg556
I547
sg1193
I1184
sg310
I301
sg830
I821
sg986
I977
sg1122
I1113
sg748
I739
sg426
I417
sg580
I571
sg181
I172
sg378
I369
sg770
I761
sg360
I351
sg98
I89
sg506
I497
sg1021
I1012
sg1106
I1097
sg1210
I1201
sg1204
I1195
sg628
I619
sg904
I895
sg724
I715
sg250
I241
sg654
I645
sg14
I5
sg431
I422
sg841
I832
sg367
I358
sg101
I92
sg701
I692
sg624
I615
sg847
I838
sg193
I184
sg860
I851
sg950
I941
sg153
I144
sg491
I482
sg1070
I1061
sg293
I284
sg439
I430
sg306
I297
sg488
I479
sg1141
I1132
sg919
I910
sg186
I177
sg48
I39
sg684
I675
sg977
I968
sg967
I958
sg686
I677
sg499
I490
sg848
I839
sg771
I762
sg187
I178
sg966
I957
sg1016
I1007
sg647
I638
sg494
I485
sg660
I651
sg141
I132
sg115
I106
sg1003
I994
sg331
I322
sg652
I643
sg13
I4
sg1095
I1086
sg1218
I1209
sg1201
I1192
sg1100
I1091
sg567
I558
sg371
I362
sg65
I56
sg792
I783
sg1037
I1028
sg774
I765
sg1146
I1137
sg223
I214
sg230
I221
sg817
I808
sg557
I548
sg1187
I1178
sg221
I212
sg229
I220
sg667
I658
sg960
I951
sg75
I66
sg574
I565
sg1055
I1046
sg942
I933
sg1139
I1130
sg920
I911
sg1181
I1172
sg894
I885
sg1190
I1181
sg659
I650
sg1184
I1175
sg246
I237
sg636
I627
sg393
I384
sg671
I662
sg968
I959
sg1216
I1207
sg1221
I1212
sg723
I714
sg1081
I1072
sg528
I519
sg913
I904
sg747
I738
sg1038
I1029
sg52
I43
sg886
I877
sg1235
I1226
sg447
I438
sg762
I753
sg682
I673
sg756
I747
sg1176
I1167
sg718
I709
sg715
I706
sg1050
I1041
sg944
I935
sg763
I754
sg206
I197
sg719
I710
sg1171
I1162
sg104
I95
sg1056
I1047
sg739
I730
sg169
I160
sg380
I371
sg731
I722
sg352
I343
sg698
I689
sg178
I169
sg709
I700
sg721
I712
sg853
I844
sg316
I307
sg122
I113
sg288
I279
sg708
I699
sg616
I607
sg147
I138
sg868
I859
sg634
I625
sg90
I81
sg467
I458
sg462
I453
sg54
I45
sg954
I945
sg972
I963
sg1028
I1019
sg114
I105
sg216
I207
sg423
I414
sg397
I388
sg532
I523
sg394
I385
sg866
I857
sg870
I861
sg67
I58
sg669
I660
sg537
I528
sg1169
I1160
sg992
I983
sg1117
I1108
sg79
I70
sg741
I732
sg517
I508
sg218
I209
sg1136
I1127
sg633
I624
sg679
I670
sg896
I887
sg402
I393
sg998
I989
sg40
I31
sg505
I496
sg786
I777
sg262
I253
sg576
I567
sg867
I858
sg572
I563
sg338
I329
sg85
I76
sg583
I574
sg674
I665
sg865
I856
sg149
I140
sg540
I531
sg87
I78
sg1148
I1139
sg856
I847
sg702
I693
sg47
I38
sg171
I162
sg910
I901
sg1026
I1017
sg1044
I1035
sg1182
I1173
sg376
I367
sg1089
I1080
sg645
I636
sg1047
I1038
sg1088
I1079
sg768
I759
sg1102
I1093
sg166
I157
sg1074
I1065
sg146
I137
sg1058
I1049
sg70
I61
sg943
I934
sg480
I471
sg466
I457
sg121
I112
sg105
I96
sg1006
I997
sg204
I195
sg185
I176
sg534
I525
sg617
I608
sg999
I990
sg874
I865
sg618
I609
sg716
I707
sg1207
I1198
sg472
I463
sg337
I328
sg119
I110
sg566
I557
sg269
I260
sg1124
I1115
sg124
I115
sg799
I790
sg1155
I1146
sg601
I592
sg158
I149
sg395
I386
sg690
I681
sg923
I914
sg339
I330
sg266
I257
sg510
I501
sg276
I267
sg300
I291
sg417
I408
sg150
I141
sg1066
I1057
sg1245
I1236
sg25
I16
sg1031
I1022
sg225
I216
sg362
I353
sg789
I780
sg175
I166
sg244
I235
sg1234
I1225
sg383
I374
sg152
I143
sg588
I579
sg918
I909
sg1192
I1183
sg238
I229
sg1073
I1064
sg663
I654
sg541
I532
sg1229
I1220
sg959
I950
sg237
I228
sg1080
I1071
sg422
I413
sg1002
I993
sg182
I173
sg459
I450
sg1228
I1219
sg1041
I1032
sg589
I580
sg82
I73
sg822
I813
sg577
I568
sg242
I233
sg419
I410
sg520
I511
sg1128
I1119
sg89
I80
sg411
I402
sg289
I280
sg356
I347
sg406
I397
sg707
I698
sg78
I69
sg92
I83
sg482
I473
sg800
I791
sg511
I502
sg1164
I1155
sg111
I102
sg364
I355
sg533
I524
sg444
I435
sg672
I663
sg290
I281
sg1054
I1045
sg780
I771
sg982
I973
sg445
I436
sg1226
I1217
sg351
I342
sg297
I288
sg606
I597
sg231
I222
sg573
I564
sg549
I540
sg643
I634
sg363
I354
sg1069
I1060
sg641
I632
sg973
I964
sg677
I668
sg1160
I1151
sg345
I336
sg448
I439
sg787
I778
sg639
I630
sg83
I74
sg1125
I1116
sg11
I2
sg194
I185
sg1129
I1120
sg640
I631
sg21
I12
sg1109
I1100
sg170
I161
sg435
I426
sg730
I721
sg591
I582
sg1215
I1206
sg270
I261
sg450
I441
sg280
I271
sg302
I293
sg892
I883
sg73
I64
sg1119
I1110
sg893
I884
sg274
I265
sg20
I11
sg586
I577
sg279
I270
sg599
I590
sg1126
I1117
sg69
I60
sg1131
I1122
sg1209
I1200
sg804
I795
sg209
I200
sg303
I294
sg454
I445
sg1098
I1089
sg19
I10
sg470
I461
sg388
I379
sg538
I529
sg738
I729
sg611
I602
sg213
I204
sg658
I649
sg1008
I999
sg133
I124
sg839
I830
sg106
I97
sg936
I927
sg446
I437
sg307
I298
sg879
I870
sg746
I737
sg828
I819
sg513
I504
sg751
I742
sg844
I835
sg332
I323
sg814
I805
sg486
I477
sg1077
I1068
sg560
I551
sg582
I573
sg1072
I1063
sg333
I324
sg758
I749
sg1222
I1213
sg62
I53
sg757
I748
sg232
I223
sg1001
I992
sg544
I535
sg49
I40
sg1010
I1001
sg651
I642
sg412
I403
sg347
I338
sg1116
I1107
sg530
I521
sg614
I605
sg522
I513
sg590
I581
sg315
I306
sg1020
I1011
sg36
I27
sg742
I733
sg979
I970
sg812
I803
sg309
I300
sg396
I387
sg425
I416
sg469
I460
sg427
I418
sg275
I266
sg174
I165
sg543
I534
sg818
I809
sg341
I332
sg728
I719
sg554
I545
sg568
I559
sg107
I98
sg233
I224
sg60
I51
sg864
I855
sg248
I239
sg802
I793
sg203
I194
sg413
I404
sg1084
I1075
sg1004
I995
sg398
I389
sg991
I982
sg955
I946
sg693
I684
sg625
I616
sg807
I798
sg563
I554
sg1152
I1143
sg18
I9
sg863
I854
sg273
I264
sg1049
I1040
sg1043
I1034
sg629
I620
sg1194
I1185
sg1151
I1142
sg570
I561
sg878
I869
sg984
I975
sg897
I888
sg1198
I1189
sg479
I470
sg531
I522
sg148
I139
sg208
I199
sg64
I55
sg509
I500
sg1158
I1149
sg546
I537
sg94
I85
sg1180
I1171
sg254
I245
sg498
I489
sg680
I671
sg1225
I1216
sg548
I539
sg1042
I1033
sg1063
I1054
sg816
I807
sg561
I552
sg243
I234
sg374
I365
sg1170
I1161
sg267
I258
sg840
I831
sg35
I26
sg100
I91
sg1127
I1118
sg846
I837
sg102
I93
sg657
I648
sg63
I54
sg729
I720
sg323
I314
sg1167
I1158
sg322
I313
sg253
I244
sg921
I912
sg922
I913
sg735
I726
sg1243
I1234
sg790
I781
sg805
I796
sg416
I407
sg9
I0
sg74
I65
sg180
I171
sg1000
I991
sg664
I655
sg571
I562
sg912
I903
sg1035
I1026
sg753
I744
sg108
I99
sg1082
I1073
sg1083
I1074
sg1166
I1157
sg626
I617
sg858
I849
sg1177
I1168
sg649
I640
sg995
I986
sg43
I34
sg552
I543
sg988
I979
sg687
I678
sg989
I980
sg987
I978
sg938
I929
sg581
I572
sg875
I866
sg788
I779
sg632
I623
sg945
I936
sg1032
I1023
sg1191
I1182
sg872
I863
sg33
I24
sg1093
I1084
sg648
I639
sg127
I118
sg401
I392
sg508
I499
sg623
I614
sg1183
I1174
sg226
I217
sg1104
I1095
sg321
I312
sg642
I633
sg905
I896
sg57
I48
sg161
I152
sg969
I960
sg970
I961
sg1065
I1056
sg907
I898
sg130
I121
sg361
I352
sg140
I131
sg245
I236
sg914
I905
sg781
I772
sg117
I108
sg277
I268
sg929
I920
sg139
I130
sg593
I584
sg526
I517
sg110
I101
sg882
I873
sg58
I49
sg418
I409
sg176
I167
sg214
I205
sg940
I931
sg834
I825
sg103
I94
sg824
I815
sg296
I287
sg428
I419
sg620
I611
sg421
I412
sg503
I494
sg1132
I1123
sg429
I420
sg410
I401
sg835
I826
sg996
I987
sg334
I325
sg1140
I1131
sg97
I88
sg854
I845
sg1057
I1048
sg251
I242
sg355
I346
sg291
I282
sg375
I366
sg319
I310
sg353
I344
sg162
I153
sg236
I227
sg460
I451
sg196
I187
sg857
I848
sg615
I606
sg1172
I1163
sg981
I972
sg646
I637
sg1091
I1082
sg51
I42
sg1186
I1177
sg320
I311
sg210
I201
sg501
I492
sg1024
I1015
sg1071
I1062
sg1110
I1101
sg318
I309
sg50
I41
sg53
I44
sg38
I29
sg1202
I1193
sg906
I897
sg1233
I1224
sg294
I285
sg521
I512
sg1111
I1102
sg908
I899
sg272
I263
sg696
I687
sg697
I688
sg1195
I1186
sg183
I174
sg851
I842
sg192
I183
sg391
I382
sg405
I396
sg1060
I1051
sg579
I570
sg855
I846
sg734
I725
sg551
I542
sg852
I843
sg1232
I1223
sg1011
I1002
sg547
I538
sg390
I381
sg775
I766
sg627
I618
sg99
I90
sg434
I425
sg487
I478
sg172
I163
sg542
I533
sg600
I591
sg1114
I1105
sg1068
I1059
sg304
I295
sg16
I7
sg354
I345
sg55
I46
sg924
I915
sg17
I8
sg455
I446
sg287
I278
sg688
I679
sg516
I507
sg483
I474
sg871
I862
sg278
I269
sg173
I164
sg207
I198
sg357
I348
sg820
I811
sg346
I337
sg349
I340
sg1237
I1228
sg1143
I1134
sg947
I938
sg700
I691
sg515
I506
sg512
I503
sg887
I878
sg823
I814
sg523
I514
sg1096
I1087
sg777
I768
sg217
I208
sg1075
I1066
sg779
I770
sg241
I232
sg327
I318
sg502
I493
sg778
I769
sg933
I924
sg964
I955
sg889
I880
sg842
I833
sg791
I782
sg201
I192
sg22
I13
sg389
I380
sg368
I359
sg255
I246
sg948
I939
sg1012
I1003
sg562
I553
sg386
I377
sg862
I853
sg861
I852
sg965
I956
sg798
I789
sg613
I604
sg849
I840
sg900
I891
sg384
I375
sg796
I787
sg342
I333
sg727
I718
sg994
I985
sg1211
I1202
sg903
I894
sg72
I63
sg891
I882
sg740
I731
sg869
I860
sg477
I468
sg1112
I1103
sg415
I406
sg312
I303
ssS'separator'
p1250
S'='
sS'sparse'
p1251
I01
sb.