ccopy_reg
_reconstructor
p1
(csklearn.feature_extraction.dict_vectorizer
DictVectorizer
p2
c__builtin__
object
p3
NtRp4
(dp5
S'vocabulary_'
p6
(dp7
S'w+2=minimum'
p8
I424
sS'w+1=pressure'
p9
I327
sS'dobj=law'
p10
I112
sS'w+1=logic'
p11
I316
sS'w-2=engagement'
p12
I639
sS'w+1=face'
p13
I304
sS'w+2=science'
p14
I459
sS'ccomp=call'
p15
I66
sS'w-1=resolution'
p16
I549
sS'w+2=few'
p17
I394
sS'w-2=people'
p18
I676
sS'w-2=Israel'
p19
I592
sS'w-1=consider'
p20
I513
sS'advmod=generally'
p21
I31
sS'w+2=my'
p22
I427
sS'w-2=rule'
p23
I689
sS'dep=diagnose'
p24
I95
sS'w+2=winner-take-all'
p25
I484
sS'w-1=certainly'
p26
I508
sS'advmod=well'
p27
I45
sS'w-2=hormone'
p28
I646
sS'w+2=from'
p29
I398
sS'nsubj=ltte'
p30
I195
sS'w-2=when'
p31
I723
sS'w+2=target'
p32
I466
sS'w-2=new'
p33
I669
sS'w+1=diplomatic'
p34
I299
sS'w-2=police'
p35
I679
sS'w-2=islamic'
p36
I653
sS'dobj=pressure'
p37
I122
sS'w-2=need'
p38
I668
sS'w+1=evenly'
p39
I302
sS'w-2=they'
p40
I710
sS'w-2=policy'
p41
I680
sS'w-2=affair'
p42
I602
sS'nsubj=anybody'
p43
I167
sS'prep=within'
p44
I271
sS'w-2=country'
p45
I626
sS'w+2=asylum'
p46
I375
sS'w+2=not'
p47
I430
sS'nsubj=wife'
p48
I235
sS'nsubj=government'
p49
I186
sS'w-2=not'
p50
I670
sS'w+2=experience'
p51
I392
sS'w-1=would'
p52
I573
sS'w+2=physically'
p53
I444
sS'w-1=say'
p54
I555
sS'advmod=certainly'
p55
I22
sS'w+2=across'
p56
I368
sS'dobj=fiberglass'
p57
I109
sS'w-1=voter'
p58
I569
sS'advcl=declare'
p59
I8
sS'w+1=only'
p60
I322
sS'w+2=Central'
p61
I351
sS'nsubj=Europeans'
p62
I157
sS'tmod=year'
p63
I277
sS'w+2=absolutely'
p64
I366
sS'w-1=will'
p65
I572
sS'w+2=everybody'
p66
I391
sS'w+1=penalty'
p67
I324
sS'w-1=about'
p68
I496
sS'advcl=arrive'
p69
I1
sS'nsubj=rule'
p70
I221
sS'dobj=make-up'
p71
I115
sS'aux=may'
p72
I54
sS'xcomp=join'
p73
I739
sS'nsubj=republican'
p74
I216
sS'w+2=Pentagon'
p75
I361
sS'w-2=current'
p76
I628
sS'w-1=be'
p77
I503
sS'w-2=I'
p78
I590
sS'dobj=penalty'
p79
I120
sS'advmod=correctly'
p80
I23
sS'w-2=court'
p81
I627
sS'w-2=the'
p82
I708
sS'nsubj=standard'
p83
I227
sS'w-2=Council'
p84
I586
sS'dobj=that'
p85
I134
sS'ccomp=be'
p86
I65
sS'nsubj=leader'
p87
I192
sS'advcl=come'
p88
I4
sS'w-2=go'
p89
I641
sS'w+1=sanction'
p90
I329
sS'mark=because'
p91
I143
sS'aux=might'
p92
I55
sS'w-2=who'
p93
I725
sS'dobj=expertise'
p94
I108
sS'w+2=to'
p95
I476
sS'w+1=on'
p96
I320
sS'w-2=decide'
p97
I630
sS'ccomp=carry'
p98
I67
sS'w-1=Adams'
p99
I488
sS'w+2=school'
p100
I458
sS'nsubj=Adams'
p101
I151
sS'nsubj=specialist'
p102
I226
sS'w-2=how'
p103
I647
sS'w-1=have'
p104
I526
sS'ccomp=say'
p105
I74
sS'nsubj=chapter'
p106
I176
sS'w+2=if'
p107
I406
sS'dobj=lesson'
p108
I113
sS'dep=though'
p109
I101
sS'w+2=in'
p110
I407
sS'w+2=compensation'
p111
I384
sS'w+2=it'
p112
I409
sS'w+2=perform'
p113
I442
sS'w+1=pesticide'
p114
I325
sS'w+2=turn-of-the-century'
p115
I477
sS'w-2=journalist'
p116
I656
sS'w-1=could'
p117
I514
sS'w+1=solitary'
p118
I332
sS'w-1=also'
p119
I498
sS'csubj=say'
p120
I92
sS'complm=that'
p121
I75
sS'nsubj=correlation'
p122
I180
sS'w-1=those'
p123
I566
sS'w+2=averaging'
p124
I376
sS'tmod=month'
p125
I275
sS'w+1=lesson'
p126
I314
sS'w-2=standard'
p127
I702
sS'w+1=everywhere'
p128
I303
sS'w+2=become'
p129
I378
sS'dep=while'
p130
I103
sS'w+2=habeas'
p131
I399
sS'nsubj=person'
p132
I207
sS'dobj=thinking'
p133
I135
sS'w-2=effort'
p134
I635
sS'advcl=be'
p135
I2
sS'w+2=resolution'
p136
I453
sS'w-2=that'
p137
I707
sS'w+1=the'
p138
I335
sS'nsubj=organization'
p139
I200
sS'w-2=hesitate'
p140
I645
sS'advmod=only'
p141
I36
sS'w+2=be'
p142
I377
sS'w+1=they'
p143
I337
sS'nsubj=Israel'
p144
I160
sS'w-2=principle'
p145
I682
sS'w+2=accreditation'
p146
I367
sS'nsubjpass=#PRP#'
p147
I236
sS'w-2=can'
p148
I618
sS'w-2=19,800'
p149
I581
sS'prep=in'
p150
I261
sS'mark=about'
p151
I141
sS'dep=benefit'
p152
I94
sS'aux=would'
p153
I60
sS'w+1=for'
p154
I305
sS'nsubj=Roadmap'
p155
I163
sS'w-1=Americans'
p156
I489
sS'conj=prohibit'
p157
I88
sS'xcomp=perform'
p158
I745
sS'w-1=and'
p159
I499
sS'w-2=U.N.'
p160
I597
sS'w+2=recognition'
p161
I450
sS'prep=to'
p162
I267
sS'nsubj=observer'
p163
I199
sS'w+2=political'
p164
I445
sS'w-1=inconsistently'
p165
I530
sS'w+2=unemployment'
p166
I478
sS'w+2=come'
p167
I383
sS'w-2=eligible'
p168
I636
sS'prep=on'
p169
I265
sS'advmod=ago'
p170
I18
sS'w-2=convention'
p171
I623
sS'w+2=slovenian'
p172
I460
sS'w+1=and'
p173
I288
sS'w-1=they'
p174
I564
sS'nsubj=national'
p175
I197
sS'w+2=hamas-issued'
p176
I400
sS'nsubj=Centre'
p177
I154
sS'conj=deploy'
p178
I82
sS'w-1=restriction'
p179
I550
sS'ccomp=continue'
p180
I68
sS'w-2=just'
p181
I657
sS'xcomp=come'
p182
I731
sS'w+2=for'
p183
I396
sS'xcomp=improve'
p184
I737
sS'w+1=any'
p185
I289
sS'dobj=mind'
p186
I116
sS'w-2=pilgrim'
p187
I677
sS'w+1=weaver'
p188
I340
sS'w-1=it'
p189
I531
sS'w-1=simply'
p190
I558
sS'w+2=paint'
p191
I438
sS'w-2=government'
p192
I642
sS'w-2=ban'
p193
I613
sS'w-2=arrangement'
p194
I608
sS'w-2=opportunity'
p195
I674
sS'nsubj=evidence'
p196
I185
sS'w-2=encourage'
p197
I638
sS'advcl=part'
p198
I14
sS'w-2=remedy'
p199
I686
sS'dobj=which'
p200
I139
sS'w+2=these'
p201
I471
sS'w-1=in'
p202
I529
sS'w+2=we'
p203
I480
sS'w-2=terrorism'
p204
I706
sS'dobj=husbandry'
p205
I111
sS'w-2=successful'
p206
I704
sS'w+1=ourselves'
p207
I323
sS'conj=be'
p208
I78
sS'nsubj=crime'
p209
I182
sS'dobj=pesticide'
p210
I121
sS'aux=could'
p211
I51
sS'advmod=everywhere'
p212
I28
sS'w-1=Zimbabweans'
p213
I495
sS'mark=if'
p214
I145
sS'dobj=blowtorch'
p215
I106
sS'mark=in'
p216
I146
sS'dep=much'
p217
I98
sS'w-2=theory'
p218
I709
sS'advmod=directly'
p219
I24
sS'w-1=patent'
p220
I547
sS'advmod=where'
p221
I47
sS'w-2=immigrant'
p222
I650
sS'w+2=low'
p223
I419
sS'w+2=diversity'
p224
I388
sS'w-2=human'
p225
I648
sS'w+2=when'
p226
I482
sS'conj=cover'
p227
I81
sS'xcomp=stop'
p228
I750
sS'dep=say'
p229
I100
sS'w+2=Afghanistan'
p230
I349
sS'dep=learn'
p231
I97
sS'w+2=national'
p232
I428
sS'nsubj=Stream'
p233
I165
sS'nsubj=troops'
p234
I231
sS'w+2=death'
p235
I386
sS'w-2=offens'
p236
I673
sS'prep=by'
p237
I258
sS'w+2=through'
p238
I475
sS'prep=include'
p239
I262
sS'w-2=refine'
p240
I685
sS'nsubj=truce'
p241
I232
sS'dobj=confinement'
p242
I107
sS'nsubj=who'
p243
I234
sS'w+2=Sudan'
p244
I363
sS'nsubj=ruling'
p245
I222
sS'advmod=equally'
p246
I25
sS'w-2=astronaut'
p247
I612
sS'dobj=paint'
p248
I119
sS'w-2=have'
p249
I643
sS'w+1=gentle'
p250
I307
sS'w-1=to'
p251
I567
sS'nsubj=band'
p252
I172
sS'advmod=specifically'
p253
I42
sS'w+2=more'
p254
I425
sS'nsubj=percent'
p255
I206
sS'w+2=Jerusalem'
p256
I358
sS'w-2=legislation'
p257
I659
sS'nsubj=party'
p258
I204
sS'dobj=#PRP#'
p259
I104
sS'w-2=do'
p260
I632
sS'w-1=should'
p261
I557
sS'xcomp=candidate'
p262
I730
sS'xcomp=include'
p263
I738
sS'advmod=again'
p264
I17
sS'nsubj=scenario'
p265
I224
sS'w-1=actually'
p266
I497
sS'w-2=ability'
p267
I599
sS'nsubjpass=lesson'
p268
I242
sS'xcomp=put'
p269
I748
sS'nsubjpass=technique'
p270
I247
sS'conj=helpless'
p271
I84
sS'advmod=simply'
p272
I40
sS'nsubj=some'
p273
I225
sS'w+2=residency'
p274
I452
sS'nsubj=line'
p275
I193
sS'w-2=doctrine'
p276
I633
sS'advcl=capital'
p277
I3
sS'nsubj=commitment'
p278
I177
sS'w+1=as'
p279
I292
sS'w+2=expertise'
p280
I393
sS'nsubj=link'
p281
I194
sS'nsubj=town'
p282
I230
sS'w+2=diagnostic'
p283
I387
sS'nsubj=company'
p284
I178
sS'w+1=he'
p285
I309
sS'w+2=pressure'
p286
I447
sS'w+2=all'
p287
I370
sS'w+1=themselves'
p288
I336
sS'nsubj=arrangement'
p289
I169
sS'nsubjpass=that'
p290
I249
sS'w-2=assist'
p291
I611
sS'nsubjpass=plan'
p292
I244
sS'w-1=can'
p293
I506
sS'w+1=counterinsurgency'
p294
I297
sS'w+2=case'
p295
I382
sS'w-2=able'
p296
I600
sS'w+1=through'
p297
I338
sS'auxpass=be'
p298
I61
sS'w-2=continue'
p299
I622
sS'w+1=retroactively'
p300
I328
sS'w+2=most'
p301
I426
sS'w+1=where'
p302
I344
sS'nsubj=anyone'
p303
I168
sS'w+2=whereby'
p304
I483
sS'advmod=when'
p305
I46
sS'w-2=scenario'
p306
I693
sS'xcomp=live'
p307
I741
sS'w+2=sanction'
p308
I457
sS'w-2=punitive'
p309
I683
sS'w-2=she'
p310
I695
sS'prep=for'
p311
I259
sS'w+1=ahead'
p312
I287
sS'w+2=May'
p313
I359
sS'w+2=oil'
p314
I432
sS'w-1=maybe'
p315
I535
sS'w-1=unfairly'
p316
I568
sS'advmod=evenly'
p317
I27
sS'w-1=organization'
p318
I544
sS'w-2=convict'
p319
I624
sS'advcl=want'
p320
I16
sS'w-1=Iraqis'
p321
I492
sS'w-2=U.S.'
p322
I598
sS'parataxis=say'
p323
I251
sS'w+1=judicious'
p324
I312
sS'advcl=violate'
p325
I15
sS'nsubj=pilgrim'
p326
I209
sS'w+2=live'
p327
I417
sS'w-1=condition'
p328
I512
sS'conj=think'
p329
I91
sS'w+2=terrorism'
p330
I467
sS'w-1=generally'
p331
I522
sS'w-2=visitor'
p332
I721
sS'w-2=traditional'
p333
I716
sS'w-2=&'
p334
I576
sS'w-2=approach'
p335
I607
sS'nsubj=president'
p336
I212
sS'w-1=fully'
p337
I521
sS'xcomp=place'
p338
I746
sS'w-2=must'
p339
I667
sS'nsubj=effort'
p340
I184
sS'nsubj=#NUMBER#'
p341
I148
sS'w-2=simply'
p342
I697
sS'nsubj=map'
p343
I196
sS'w-2=pressure'
p344
I681
sS'nsubj=same'
p345
I223
sS'w-1=directly'
p346
I516
sS'w+2=art'
p347
I374
sS'w-2=right'
p348
I688
sS'w-2=republican'
p349
I687
sS'w-2=ask'
p350
I610
sS'nsubjpass=community'
p351
I238
sS'nsubj=Cambodia'
p352
I153
sS"w-1=''"
p353
I486
sS'w-2=those'
p354
I714
sS'nsubj=individual'
p355
I189
sS'w-2=charge'
p356
I619
sS'w+2=Israel'
p357
I356
sS'dep=estrogen'
p358
I96
sS'w-1=rights'
p359
I551
sS'w-2=soil'
p360
I699
sS'w-2=wife'
p361
I726
sS'w-2=month'
p362
I665
sS'w-2=allow'
p363
I603
sS'w+2=or'
p364
I436
sS'parataxis=require'
p365
I250
sS'nsubj=States'
p366
I164
sS'w+2=of'
p367
I431
sS'w-2=anyone'
p368
I606
sS'w-1=decision'
p369
I515
sS'w+2=on'
p370
I433
sS'w+1=to'
p371
I339
sS'nsubjpass=sanction'
p372
I246
sS'w-1=charter'
p373
I509
sS'ccomp=fight'
p374
I69
sS'w+2=he'
p375
I401
sS'w-1=logic'
p376
I533
sS'w+1=so'
p377
I331
sS'w+2=formulum'
p378
I397
sS'nsubj=that'
p379
I228
sS'w-1=McKinlay'
p380
I493
sS'advmod=objectively'
p381
I35
sS'w-1=parent'
p382
I546
sS'prep=without'
p383
I272
sS'w+2=Croatia'
p384
I352
sS'w-2=same'
p385
I690
sS'w+2=permission'
p386
I443
sS'nsubj=number'
p387
I198
sS'w-2=Clarence'
p388
I585
sS'advmod=far'
p389
I29
sS'w+1=political'
p390
I326
sS'dobj=tactic'
p391
I131
sS'advcl=need'
p392
I13
sS'w+2=September'
p393
I362
sS'w+2=Eric'
p394
I353
sS"w-2='s"
p395
I577
sS'w-1=she'
p396
I556
sS'advcl=have'
p397
I11
sS'nsubj=McKinlay'
p398
I161
sS'nsubj=AT'
p399
I150
sS'w+2=party'
p400
I439
sS'w+2=hued'
p401
I403
sS'w+2=loan'
p402
I418
sS'w-2=soup'
p403
I701
sS'w-2=fail'
p404
I640
sS'w-2=usual'
p405
I719
sS'nsubj=Iraqis'
p406
I159
sS'dep=to'
p407
I102
sS'w+1=because'
p408
I293
sS'w+2=every'
p409
I390
sS'nsubj=Gaza'
p410
I158
sS'w+1=liberal'
p411
I315
sS'w-2=would'
p412
I728
sS'nsubjpass=law'
p413
I241
sS'w+2=those'
p414
I474
sS'w+2=people'
p415
I441
sS'w-2=likely'
p416
I661
sS'w+2=this'
p417
I473
sS'w-2=different'
p418
I631
sS'nsubj=instruction'
p419
I190
sS'nsubj=artist'
p420
I170
sS'w-1=rule'
p421
I552
sS'prep=begin'
p422
I257
sS'nsubj=immigrant'
p423
I188
sS'advmod=wrongly'
p424
I48
sS'w-2=which'
p425
I724
sS'w+1=agreement'
p426
I286
sS'advmod=even'
p427
I26
sS'w+1=directly'
p428
I300
sS'nsubj=court'
p429
I181
sS'ccomp=recognize'
p430
I73
sS'w-1=wrongly'
p431
I574
sS'dobj=procedure'
p432
I124
sS'w+2=restriction'
p433
I454
sS'w-2=international'
p434
I652
sS'prep=while'
p435
I269
sS'nsubjpass=pressure'
p436
I245
sS'w+2=aide'
p437
I369
sS'aux=do'
p438
I52
sS'w-1=thing'
p439
I565
sS'w-2=double'
p440
I634
sS'w-2=also'
p441
I604
sS'aux=will'
p442
I59
sS'w+2=new'
p443
I429
sS'w+2=mind'
p444
I423
sS'nsubj=bedfellow'
p445
I173
sS'nsubj=decision'
p446
I183
sS'nsubj=Council'
p447
I155
sS'nsubj=people'
p448
I205
sS'prep=with'
p449
I270
sS'cc=or'
p450
I64
sS'w+2=military'
p451
I422
sS'w+1=well'
p452
I341
sS'w-1=guideline'
p453
I525
sS'w-2=troops'
p454
I717
sS'w+2=infant'
p455
I408
sS'w+1=technology'
p456
I334
sS'w+2=its'
p457
I410
sS'w-2=plan'
p458
I678
sS'w-2=if'
p459
I649
sS'nsubj=body'
p460
I174
sS'w+2=rule'
p461
I455
sS'w-2=combatant'
p462
I620
sS'w-2=in'
p463
I651
sS'w-2=day'
p464
I629
sS'w-2=embassy'
p465
I637
sS'w-2=it'
p466
I655
sS'w+1=oil'
p467
I319
sS'advcl=necessary'
p468
I12
sS'dobj=what'
p469
I138
sS'advmod=physically'
p470
I37
sS'nsubj=Amendment'
p471
I152
sS'w+1=gradually-increasing'
p472
I308
sS'rel=on'
p473
I273
sS'nsubj=Cubans'
p474
I156
sS'ccomp=gain'
p475
I70
sS"w+2=''"
p476
I345
sS'w-2=organization'
p477
I675
sS'nsubj=remedy'
p478
I215
sS'conj=change'
p479
I79
sS'w+1=when'
p480
I343
sS'w+1=critical'
p481
I298
sS'w-1=pact'
p482
I545
sS'w-1=clown'
p483
I510
sS'w-2=softball'
p484
I698
sS'w-2=Afghan'
p485
I583
sS'w-2=States'
p486
I596
sS'w-1=ruling'
p487
I553
sS'w+2=wealth'
p488
I481
sS'w+2=Japan'
p489
I357
sS'w+2=icy'
p490
I405
sS'w+1=online'
p491
I321
sS'cc=and'
p492
I62
sS'prep=under'
p493
I268
sS'w-1=soon'
p494
I559
sS'w-1=Centre'
p495
I490
sS'dobj=oil'
p496
I118
sS'w+1=by'
p497
I295
sS'nsubj=law'
p498
I191
sS'nsubj=principle'
p499
I213
sS'w+2=reinstatement'
p500
I451
sS'w-1=law'
p501
I532
sS'dobj=science'
p502
I129
sS'w-2=some'
p503
I700
sS'conj=say'
p504
I90
sS'w+2=some'
p505
I461
sS'dobj=standard'
p506
I130
sS'w+1=in'
p507
I310
sS'w+1=-lrb-'
p508
I280
sS'nsubj=restriction'
p509
I218
sS'w+1=it'
p510
I311
sS'nsubj=rights'
p511
I219
sS'nsubj=#PRP#'
p512
I149
sS'w-1=from'
p513
I520
sS'nsubjpass=capacity'
p514
I237
sS'w+2=fiberglass'
p515
I395
sS'dobj=principle'
p516
I123
sS'w+2=2006'
p517
I348
sS"w+1=''"
p518
I278
sS'conj=leave'
p519
I86
sS'cc=but'
p520
I63
sS'w+1=selectively'
p521
I330
sS'advmod=ahead'
p522
I19
sS'w-1=cease-fire'
p523
I507
sS'nsubj=parent'
p524
I203
sS'nsubj=recommendation'
p525
I214
sS'w+1=against'
p526
I285
sS'advmod=anywhere'
p527
I21
sS'ccomp=insist'
p528
I71
sS'w-1=company'
p529
I511
sS'advcl=determine'
p530
I9
sS'prep=like'
p531
I263
sS'w+1=anywhere'
p532
I290
sS'w-1=immigrant'
p533
I528
sS'w-2=consortium'
p534
I621
sS'xcomp=hold'
p535
I736
sS'w+2=blowtorch'
p536
I380
sS'mark=before'
p537
I144
sS'w-1=education'
p538
I518
sS'nsubj=thing'
p539
I229
sS'aux=must'
p540
I56
sS'xcomp=conduct'
p541
I732
sS'w-1=might'
p542
I538
sS'xcomp=operate'
p543
I744
sS'w-1=discipline'
p544
I517
sS'advcl=concern'
p545
I6
sS'w-2=be'
p546
I614
sS'prep=of'
p547
I264
sS'xcomp=prompt'
p548
I747
sS'w-2=save'
p549
I691
sS'w-2=of'
p550
I672
sS'w+1=correctly'
p551
I296
sS'w-1=mean'
p552
I536
sS'w+2=stock'
p553
I464
sS'w-1=Rights'
p554
I494
sS'w+2=hold'
p555
I402
sS'w-2=by'
p556
I617
sS'nsubj=which'
p557
I233
sS'advmod=later'
p558
I33
sS'w-2=could'
p559
I625
sS'dobj=minimum'
p560
I117
sS'w-2=might'
p561
I664
sS'w+2=presidential'
p562
I446
sS'w+2=both'
p563
I381
sS'w-2=actually'
p564
I601
sS'w+2=same'
p565
I456
sS'w+2=that'
p566
I468
sS'w+2=maximum'
p567
I420
sS'w+2=.'
p568
I347
sS'w+2=and'
p569
I371
sS'w-1=who'
p570
I571
sS'nsubj=guideline'
p571
I187
sS'w-2=want'
p572
I722
sS'w+2=any'
p573
I373
sS'advcl=control'
p574
I7
sS'w-2=such'
p575
I705
sS'w+2=ant'
p576
I372
sS'nsubj=roadmap'
p577
I220
sS'dobj=wealth'
p578
I137
sS'w-2=Nations'
p579
I594
sS'w-1=of'
p580
I542
sS'nsubj=police'
p581
I210
sS'w-2=law'
p582
I658
sS'w-2=more'
p583
I666
sS'w+2=Bacar'
p584
I350
sS'w-2=to'
p585
I715
sS'dobj=process'
p586
I125
sS'tmod=#DATE#'
p587
I274
sS'w-2=and'
p588
I605
sS'conj=intend'
p589
I85
sS'xcomp=demonstrate'
p590
I734
sS'nsubj=organizer'
p591
I201
sS'nsubj=Nega'
p592
I162
sS'xcomp=migrate'
p593
I743
sS'w-2=Sisay'
p594
I595
sS'prep=across'
p595
I252
sS'w+2=real'
p596
I449
sS'w+2=only'
p597
I435
sS'dobj=target'
p598
I132
sS'nsubj=phrase'
p599
I208
sS'advmod=also'
p600
I20
sS'w+2=black'
p601
I379
sS'w+2=passenger'
p602
I440
sS'w-2=he'
p603
I644
sS'w-1=same'
p604
I554
sS'w+2=join'
p605
I412
sS'advmod=now'
p606
I34
sS'advmod=fully'
p607
I30
sS'w-2=say'
p608
I692
sS'w+2=law'
p609
I414
sS'w+2=the'
p610
I469
sS'prep=at'
p611
I256
sS'nsubj=U.S.'
p612
I166
sS'w-2=34'
p613
I582
sS'prep=as'
p614
I255
sS'w-2=,'
p615
I578
sS'conj=evidence'
p616
I83
sS'w-2=.'
p617
I580
sS'dobj=approach'
p618
I105
sS'dobj=sanction'
p619
I128
sS'w-2=try'
p620
I718
sS'w+1=what'
p621
I342
sS'advmod=selectively'
p622
I39
sS'aux=have'
p623
I53
sS'w+2=voluntary'
p624
I479
sS'w-2=but'
p625
I616
sS'w-2=think'
p626
I712
sS'xcomp=legal'
p627
I740
sS'w-2=thing'
p628
I711
sS'w-1=therapy'
p629
I563
sS'w-1=,'
p630
I487
sS'w-2=lesson'
p631
I660
sS'w-2=now'
p632
I671
sS'nsubj=resolution'
p633
I217
sS'dep=necessary'
p634
I99
sS'dobj=technology'
p635
I133
sS'w+2=principle'
p636
I448
sS'xcomp=manufacture'
p637
I742
sS'w+1=military'
p638
I317
sS'w-2=Ian'
p639
I591
sS'w-2=bedfellow'
p640
I615
sS'w-2=as'
p641
I609
sS'w-2=man'
p642
I662
sS'w+2=migrate'
p643
I421
sS'advmod=soon'
p644
I41
sS'w-2=Gaza'
p645
I589
sS'w-1=authority'
p646
I502
sS'prep=through'
p647
I266
sS'w+2=one'
p648
I434
sS'aux=can'
p649
I50
sS'w-1=standard'
p650
I560
sS'w-1=I'
p651
I491
sS'aux=should'
p652
I57
sS'conj=Kosovo'
p653
I77
sS'w-1=t'
p654
I561
sS'w+2=OPEC'
p655
I360
sS'w+2=Friday'
p656
I354
sS'dobj=rule'
p657
I127
sS'nsubj=ban'
p658
I171
sS'w+2=such'
p659
I465
sS'nsubj=pact'
p660
I202
sS'w-1=pressure'
p661
I548
sS'w+2=licens'
p662
I416
sS'w+2=kosovo-type'
p663
I413
sS'w-2=Court'
p664
I587
sS'xcomp=counselor'
p665
I733
sS'w-2=serious'
p666
I694
sS'w+2=standard'
p667
I463
sS'nsubjpass=technology'
p668
I248
sS'conj=receive'
p669
I89
sS'mark=as'
p670
I142
sS'w-1=he'
p671
I527
sS'w+2=legal'
p672
I415
sS'w+2=there'
p673
I470
sS'w-1=before'
p674
I504
sS'w+1=Monday'
p675
I282
sS'w-2=member'
p676
I663
sS'ccomp=matter'
p677
I72
sS'w+2=drug'
p678
I389
sS'w+1=from'
p679
I306
sS'w-2=very'
p680
I720
sS'w+1=again'
p681
I284
sS'w-2=should'
p682
I696
sS'xcomp=re-open'
p683
I749
sS'complm=whether'
p684
I76
sS'w+2=they'
p685
I472
sS'xcomp=drop'
p686
I735
sS'advcl=concede'
p687
I5
sS'w+2=confinement'
p688
I385
sS'w+1=brightly'
p689
I294
sS'prep=after'
p690
I253
sS'w-2=strategy'
p691
I703
sS'w-1=must'
p692
I539
sS'w-2=Cambodia'
p693
I584
sS'w+1=equally'
p694
I301
sS'prep=against'
p695
I254
sS'w-1=you'
p696
I575
sS'w-1=while'
p697
I570
sS'dobj=formulum'
p698
I110
sS'w+1=late'
p699
I313
sS'nsubjpass=doctrine'
p700
I240
sS'advmod=unfairly'
p701
I44
sS'w-2=this'
p702
I713
sS'advmod=how'
p703
I32
sS'nsubjpass=current'
p704
I239
sS'w+2=U.S.'
p705
I364
sS'nsubjpass=penalty'
p706
I243
sS'w-1=even'
p707
I519
sS'w-2=Enterprise'
p708
I588
sS'w-1=government'
p709
I524
sS'w+2=Gerry'
p710
I355
sS'prep=from'
p711
I260
sS'w+2=within'
p712
I485
sS'w+2=other'
p713
I437
sS'advcl=allude'
p714
I0
sS'dobj=who'
p715
I140
sS'w-2=issue'
p716
I654
sS'w-1=artist'
p717
I500
sS'aux=to'
p718
I58
sS'w-2=you'
p719
I729
sS'dobj=voice'
p720
I136
sS'w+2=hundred'
p721
I404
sS'advcl=go'
p722
I10
sS'w-1=only'
p723
I543
sS'nsubj=convention'
p724
I179
sS'w-2=Legal'
p725
I593
sS'w-1=get'
p726
I523
sS'w+1=new'
p727
I318
sS'w-2=will'
p728
I727
sS'w-2=really'
p729
I684
sS'advmod=twice'
p730
I43
sS'w-1=measure'
p731
I537
sS'w+1=appropriate'
p732
I291
sS'tmod=week'
p733
I276
sS'w+1=,'
p734
I279
sS'w+1=.'
p735
I281
sS'w-1=by'
p736
I505
sS'advmod=retroactively'
p737
I38
sS'dobj=logic'
p738
I114
sS'w+2=,'
p739
I346
sS'conj=collect'
p740
I80
sS'neg=not'
p741
I147
sS'w-2=-'
p742
I579
sS'w+2=job'
p743
I411
sS'conj=monitor'
p744
I87
sS'csubjpass=say'
p745
I93
sS'w+1=a'
p746
I283
sS'w-1=now'
p747
I541
sS'w-1=not'
p748
I540
sS'nsubj=cease-fire'
p749
I175
sS'w+1=tactic'
p750
I333
sS'w-1=may'
p751
I534
sS'w-1=as'
p752
I501
sS'w-1=that'
p753
I562
sS'aux=be'
p754
I49
sS'dobj=resolution'
p755
I126
sS'w+2=a'
p756
I365
sS'nsubj=precedent'
p757
I211
sS'w+2=specifically'
p758
I462
ssS'dtype'
p759
cnumpy
float64
p760
sS'feature_names_'
p761
(lp762
g714
ag69
ag135
ag277
ag88
ag687
ag545
ag574
ag59
ag530
ag722
ag397
ag468
ag392
ag198
ag325
ag320
ag264
ag170
ag522
ag600
ag527
ag55
ag80
ag219
ag246
ag427
ag317
ag212
ag389
ag607
ag21
ag703
ag558
ag606
ag381
ag141
ag470
ag737
ag622
ag272
ag644
ag253
ag730
ag701
ag27
ag305
ag221
ag424
ag754
ag649
ag211
ag438
ag623
ag72
ag92
ag540
ag652
ag718
ag442
ag153
ag298
ag492
ag520
ag450
ag86
ag15
ag98
ag180
ag374
ag475
ag528
ag677
ag430
ag105
ag121
ag684
ag653
ag208
ag479
ag740
ag227
ag178
ag616
ag271
ag589
ag519
ag744
ag157
ag669
ag504
ag329
ag120
ag745
ag152
ag24
ag358
ag231
ag217
ag634
ag229
ag109
ag407
ag130
ag259
ag618
ag215
ag242
ag94
ag57
ag698
ag205
ag10
ag108
ag738
ag71
ag186
ag560
ag496
ag248
ag79
ag210
ag37
ag516
ag432
ag586
ag755
ag657
ag619
ag502
ag506
ag391
ag598
ag635
ag85
ag133
ag720
ag578
ag469
ag200
ag715
ag151
ag670
ag91
ag537
ag214
ag216
ag741
ag341
ag512
ag399
ag101
ag471
ag352
ag177
ag447
ag474
ag62
ag410
ag406
ag144
ag398
ag592
ag155
ag366
ag233
ag612
ag43
ag303
ag289
ag420
ag658
ag252
ag445
ag460
ag749
ag106
ag278
ag284
ag724
ag122
ag429
ag209
ag446
ag340
ag196
ag49
ag571
ag423
ag355
ag419
ag498
ag87
ag275
ag281
ag30
ag343
ag175
ag387
ag163
ag139
ag591
ag660
ag524
ag258
ag448
ag255
ag132
ag599
ag326
ag581
ag757
ag336
ag499
ag525
ag478
ag74
ag633
ag509
ag511
ag577
ag70
ag245
ag345
ag265
ag273
ag102
ag83
ag379
ag539
ag282
ag234
ag241
ag557
ag243
ag48
ag147
ag514
ag351
ag704
ag700
ag413
ag268
ag706
ag292
ag436
ag372
ag270
ag668
ag290
ag365
ag323
ag595
ag690
ag695
ag614
ag611
ag422
ag237
ag311
ag711
ag150
ag239
ag531
ag547
ag169
ag647
ag162
ag493
ag435
ag449
ag44
ag383
ag473
ag587
ag125
ag733
ag63
ag518
ag734
ag508
ag735
ag675
ag746
ag681
ag526
ag426
ag312
ag173
ag185
ag532
ag732
ag279
ag408
ag689
ag497
ag551
ag294
ag481
ag34
ag428
ag694
ag39
ag128
ag13
ag154
ag679
ag250
ag472
ag285
ag507
ag510
ag324
ag699
ag126
ag411
ag11
ag638
ag727
ag467
ag96
ag491
ag60
ag207
ag67
ag114
ag390
ag9
ag300
ag90
ag521
ag377
ag118
ag750
ag456
ag138
ag288
ag143
ag297
ag371
ag188
ag452
ag621
ag480
ag302
ag476
ag739
ag568
ag517
ag230
ag584
ag61
ag384
ag394
ag656
ag710
ag357
ag489
ag256
ag313
ag655
ag75
ag393
ag244
ag705
ag756
ag64
ag146
ag56
ag437
ag287
ag569
ag576
ag573
ag347
ag46
ag124
ag142
ag129
ag601
ag536
ag563
ag295
ag167
ag111
ag688
ag235
ag283
ag224
ag678
ag409
ag66
ag51
ag280
ag17
ag515
ag183
ag378
ag29
ag131
ag176
ag375
ag555
ag401
ag721
ag490
ag107
ag110
ag455
ag112
ag457
ag743
ag605
ag663
ag609
ag672
ag662
ag327
ag402
ag223
ag567
ag643
ag451
ag444
ag8
ag254
ag301
ag22
ag232
ag443
ag47
ag367
ag314
ag370
ag648
ag597
ag364
ag713
ag191
ag400
ag602
ag415
ag113
ag386
ag53
ag164
ag562
ag286
ag636
ag596
ag161
ag500
ag274
ag136
ag433
ag461
ag565
ag308
ag100
ag14
ag172
ag505
ag758
ag667
ag553
ag659
ag32
ag330
ag566
ag610
ag673
ag201
ag685
ag417
ag414
ag238
ag95
ag115
ag166
ag624
ag203
ag488
ag226
ag304
ag25
ag712
ag353
ag630
ag99
ag156
ag495
ag651
ag321
ag380
ag554
ag213
ag68
ag266
ag119
ag159
ag717
ag752
ag646
ag77
ag674
ag736
ag293
ag523
ag26
ag373
ag483
ag529
ag328
ag20
ag117
ag369
ag346
ag544
ag538
ag707
ag513
ag337
ag331
ag726
ag709
ag453
ag104
ag671
ag533
ag202
ag165
ag189
ag501
ag376
ag751
ag315
ag552
ag731
ag542
ag692
ag748
ag747
ag580
ag723
ag318
ag482
ag382
ag220
ag661
ag16
ag179
ag359
ag421
ag487
ag604
ag54
ag396
ag261
ag190
ag494
ag650
ag654
ag753
ag629
ag174
ag439
ag123
ag251
ag316
ag58
ag697
ag570
ag65
ag52
ag431
ag696
ag334
ag395
ag615
ag742
ag617
ag149
ag613
ag485
ag693
ag388
ag84
ag664
ag708
ag645
ag78
ag639
ag19
ag725
ag579
ag594
ag486
ag160
ag322
ag267
ag296
ag564
ag42
ag363
ag441
ag588
ag368
ag335
ag194
ag641
ag350
ag291
ag247
ag193
ag546
ag640
ag625
ag556
ag148
ag356
ag462
ag534
ag299
ag171
ag319
ag559
ag45
ag81
ag76
ag464
ag97
ag418
ag260
ag276
ag440
ag134
ag168
ag465
ag197
ag12
ag404
ag89
ag192
ag249
ag603
ag140
ag28
ag103
ag225
ag459
ag222
ag463
ag434
ag36
ag716
ag466
ag116
ag181
ag582
ag257
ag631
ag416
ag642
ag676
ag561
ag362
ag583
ag339
ag38
ag33
ag50
ag632
ag550
ag236
ag195
ag477
ag18
ag187
ag458
ag35
ag41
ag344
ag145
ag309
ag729
ag240
ag199
ag349
ag348
ag23
ag385
ag549
ag608
ag306
ag666
ag310
ag682
ag342
ag484
ag360
ag503
ag403
ag127
ag691
ag206
ag575
ag204
ag137
ag82
ag218
ag40
ag628
ag626
ag702
ag354
ag585
ag333
ag454
ag620
ag405
ag680
ag332
ag572
ag31
ag425
ag93
ag361
ag728
ag412
ag719
ag262
ag182
ag541
ag665
ag590
ag686
ag535
ag184
ag263
ag73
ag627
ag307
ag637
ag593
ag543
ag158
ag338
ag548
ag269
ag683
ag228
asS'separator'
p763
S'='
sS'sparse'
p764
I01
sb.