ccopy_reg
_reconstructor
p1
(csklearn.feature_extraction.dict_vectorizer
DictVectorizer
p2
c__builtin__
object
p3
NtRp4
(dp5
S'sort'
p6
I01
sS'feature_names_'
p7
(lp8
S'advmod=often'
p9
aS'aux=have'
p10
aS'aux=to'
p11
aS'aux=will'
p12
aS'cc=and'
p13
aS'ccomp=attend'
p14
aS'conj=have'
p15
aS'conj=help'
p16
aS'dep=whether'
p17
aS'nsubj=Calder'
p18
aS'nsubj=Medvedev'
p19
aS'nsubj=lead'
p20
aS'nsubj=master'
p21
aS'nsubj=president'
p22
aS'poss=#PRP#'
p23
aS'prep=at'
p24
aS'prep=for'
p25
aS'prep=in'
p26
aS'prep=through'
p27
aS'prep=with'
p28
aS'w+1=,'
p29
aS'w+1=.'
p30
aS'w+1=for'
p31
aS'w+1=in'
p32
aS'w+1=through'
p33
aS'w+1=with'
p34
aS"w+2=''"
p35
aS'w+2=and'
p36
aS'w+2=gain'
p37
aS'w+2=month'
p38
aS'w+2=often'
p39
aS'w+2=the'
p40
aS'w+2=they'
p41
aS'w-1=Calder'
p42
aS'w-1=Mani'
p43
aS'w-1=Medvedev'
p44
aS'w-1=have'
p45
aS'w-1=in'
p46
aS'w-1=she'
p47
aS'w-1=to'
p48
aS'w-1=will'
p49
aS'w-2=Hadizatou'
p50
aS'w-2=President'
p51
aS'w-2=able'
p52
aS'w-2=but'
p53
aS'w-2=diligent'
p54
aS'w-2=help'
p55
aS'w-2=lead'
p56
aS'w-2=president'
p57
aS'w-2=try'
p58
aS'w-2=way'
p59
asS'dtype'
p60
cnumpy
float64
p61
sS'vocabulary_'
p62
(dp63
g55
I46
sg47
I38
sg35
I26
sg12
I3
sg34
I25
sg11
I2
sg10
I1
sg38
I29
sg39
I30
sg40
I31
sg23
I14
sg32
I23
sg24
I15
sg49
I40
sg28
I19
sg41
I32
sg51
I42
sg50
I41
sg30
I21
sg59
I50
sg9
I0
sg18
I9
sg54
I45
sg14
I5
sg13
I4
sg20
I11
sg22
I13
sg19
I10
sg57
I48
sg52
I43
sg33
I24
sg15
I6
sg56
I47
sg27
I18
sg16
I7
sg46
I37
sg48
I39
sg36
I27
sg21
I12
sg26
I17
sg42
I33
sg44
I35
sg31
I22
sg43
I34
sg37
I28
sg58
I49
sg25
I16
sg29
I20
sg17
I8
sg45
I36
sg53
I44
ssS'separator'
p64
S'='
sS'sparse'
p65
I01
sb.