ccopy_reg
_reconstructor
p1
(csklearn.feature_extraction.dict_vectorizer
DictVectorizer
p2
c__builtin__
object
p3
NtRp4
(dp5
S'vocabulary_'
p6
(dp7
S'w-2=disagreement'
p8
I217
sS'nsubj=which'
p9
I77
sS"w-2=''"
p10
I203
sS'w-1=which'
p11
I201
sS'w-2=tension'
p12
I238
sS'w-1=do'
p13
I177
sS'nsubj=tension'
p14
I72
sS'w+1=,'
p15
I97
sS'w-1=question'
p16
I194
sS'nsubj=fact'
p17
I59
sS'w-2=disciplinary'
p18
I218
sS'w-2=they'
p19
I241
sS'nsubj=intent'
p20
I61
sS'w+1=out'
p21
I118
sS'nsubj=vulnerability'
p22
I76
sS'w-2=court'
p23
I213
sS'xcomp=face'
p24
I247
sS'nsubj=difference'
p25
I57
sS'w+1=because'
p26
I104
sS'w+2=that'
p27
I153
sS'w-1=occasion'
p28
I190
sS'w+1=primarily'
p29
I120
sS'nsubj=issue'
p30
I62
sS'prep=despite'
p31
I84
sS'w+1=between'
p32
I105
sS'w-2=new'
p33
I228
sS'conj=create'
p34
I35
sS'rel=in'
p35
I94
sS'w-1=burma'
p36
I170
sS'w-1=first'
p37
I179
sS'mark=from'
p38
I46
sS'dep=lead'
p39
I40
sS'w-2=of'
p40
I229
sS'w-2=difference'
p41
I215
sS'w-1=of'
p42
I191
sS'ccomp=resolution'
p43
I32
sS'w+2=instability'
p44
I143
sS'w-1=to'
p45
I199
sS'prep=by'
p46
I83
sS'nsubj=Americans'
p47
I50
sS'tmod=#DATE#'
p48
I95
sS'ccomp=ill'
p49
I30
sS'prep=between'
p50
I82
sS'w+2=talk'
p51
I152
sS'w-2=dispute'
p52
I219
sS'w+1=that'
p53
I122
sS'w-1=action'
p54
I167
sS'nsubj=problem'
p55
I69
sS'nsubj=concern'
p56
I54
sS'nsubj=possibility'
p57
I68
sS'nsubj=cholera'
p58
I53
sS'nsubj=paralysis'
p59
I67
sS'w-1=interest'
p60
I182
sS'parataxis=say'
p61
I79
sS'w-2=the'
p62
I240
sS'w-1=consequence'
p63
I174
sS'aux=do'
p64
I19
sS'nsubj=allegation'
p65
I52
sS'nsubj=Union'
p66
I51
sS'dep=court'
p67
I39
sS'w-2=situation'
p68
I236
sS'nsubj=dispute'
p69
I58
sS'w-1=controversy'
p70
I175
sS'advcl=start'
p71
I4
sS'aux=will'
p72
I25
sS'nsubj=that'
p73
I73
sS'w-1=Hariri'
p74
I165
sS'w-2=industry'
p75
I224
sS'advmod=now'
p76
I12
sS'w-1=issue'
p77
I183
sS'w-2=flashpoint'
p78
I221
sS'w-2=and'
p79
I209
sS'w+2=morning'
p80
I147
sS'prep=over'
p81
I91
sS'w-1=2008'
p82
I163
sS'w+1=at'
p83
I103
sS'w-1=will'
p84
I202
sS'w-2=,'
p85
I204
sS'w-2=.'
p86
I205
sS'prep=with'
p87
I92
sS'w-2=crisis'
p88
I214
sS'aux=may'
p89
I21
sS'nsubj=confirmation'
p90
I55
sS'dobj=understanding'
p91
I44
sS'aux=have'
p92
I20
sS'prt=out'
p93
I93
sS'w-1=be'
p94
I169
sS'w+2=its'
p95
I146
sS'w-2=after'
p96
I208
sS'dep=#NUMBER#'
p97
I37
sS'w-1=situation'
p98
I197
sS'w-1=can'
p99
I171
sS'w-2=thousand'
p100
I243
sS'w+2=whether'
p101
I161
sS'w+1=again'
p102
I100
sS'w+2=direct'
p103
I139
sS'w-2=it'
p104
I226
sS'nsubj=uncertainty'
p105
I75
sS'w+1=just'
p106
I113
sS'xcomp=regard'
p107
I248
sS'w-1=concern'
p108
I173
sS'w-1=risk'
p109
I196
sS'w+1=where'
p110
I124
sS'aux=might'
p111
I22
sS'prep=because'
p112
I81
sS'aux=should'
p113
I23
sS'advmod=when'
p114
I15
sS'w-2=primate'
p115
I233
sS'w+2=government'
p116
I140
sS'dep=mean'
p117
I41
sS'w+1=whether'
p118
I125
sS'w-2=many'
p119
I227
sS'w-2=a'
p120
I207
sS'nsubj=flashpoint'
p121
I60
sS'w-2=paralysis'
p122
I230
sS'w-2=question'
p123
I235
sS'w+2=because'
p124
I137
sS'w-1=have'
p125
I180
sS'ccomp=say'
p126
I33
sS'w+1=regard'
p127
I121
sS'nsubj=occasion'
p128
I65
sS'w-2=vulnerability'
p129
I246
sS'w+2=something'
p130
I150
sS'nsubj=letter'
p131
I63
sS'w+2=at'
p132
I136
sS"w+2=''"
p133
I126
sS'advmod=whenever'
p134
I16
sS'w+1=each'
p135
I108
sS'w-1=responsibility'
p136
I195
sS'advcl=suspicious'
p137
I5
sS'w-2=problem'
p138
I234
sS'w+2=there'
p139
I155
sS'w-1=need'
p140
I188
sS'w+1=mean'
p141
I115
sS'w+1=when'
p142
I123
sS'w-1=millennium'
p143
I187
sS'w+1=during'
p144
I107
sS'w+1=from'
p145
I111
sS'ccomp=have'
p146
I29
sS'parataxis=do'
p147
I78
sS'w-2=point'
p148
I231
sS'aux=can'
p149
I18
sS'complm=that'
p150
I34
sS'prep=around'
p151
I80
sS'w+1=even'
p152
I109
sS'w+2=Hill'
p153
I131
sS'w+2=they'
p154
I156
sS'w-2=issue'
p155
I225
sS'w+2=uncertainty'
p156
I159
sS'advmod=at'
p157
I8
sS'nsubj=time'
p158
I74
sS'ccomp=encounter'
p159
I28
sS'w+2=Christ'
p160
I129
sS'w-2=to'
p161
I244
sS'w-2=have'
p162
I223
sS'w+2=Saudi'
p163
I133
sS'cc=and'
p164
I26
sS'w-1=letter'
p165
I184
sS'w+1=now'
p166
I116
sS'advcl=be'
p167
I1
sS'w-2=sure'
p168
I237
sS'advcl=admit'
p169
I0
sS'w-2=that'
p170
I239
sS'nsubj=need'
p171
I64
sS'w-2=emission'
p172
I220
sS'w+2=suspicion'
p173
I151
sS'w-1=health'
p174
I181
sS'w-2=for'
p175
I222
sS'cc=but'
p176
I27
sS'w+1=over'
p177
I119
sS'nsubj=#NUMBER#'
p178
I48
sS'w-1=opportunity'
p179
I192
sS'w+2=she'
p180
I149
sS'w-2=this'
p181
I242
sS'prep=in'
p182
I88
sS'tmod=morning'
p183
I96
sS'w-1=dispute'
p184
I176
sS'w+1=for'
p185
I110
sS'w+1=in'
p186
I112
sS'w+2=to'
p187
I158
sS'w-1=Americans'
p188
I164
sS'nsubj=situation'
p189
I71
sS'nsubj=#PRP#'
p190
I49
sS'prep=from'
p191
I87
sS'advmod=out'
p192
I13
sS"w-1=''"
p193
I162
sS'w+1=of'
p194
I117
sS'w-2=confirmation'
p195
I212
sS'w+2=violence'
p196
I160
sS'w-2=Rafik'
p197
I206
sS'dep=cause'
p198
I38
sS'w-2=biggest'
p199
I211
sS'dep=over'
p200
I42
sS'w-2=possibility'
p201
I232
sS'ccomp=increase'
p202
I31
sS'aux=to'
p203
I24
sS'xcomp=suppress'
p204
I249
sS'w-1=problem'
p205
I193
sS'w-1=Union'
p206
I166
sS'w+2=intellectual'
p207
I144
sS'advcl=go'
p208
I2
sS'w+2=though'
p209
I157
sS'w+2=the'
p210
I154
sS'w-2=troubling'
p211
I245
sS'advmod=ago'
p212
I7
sS'w+2=Africa'
p213
I128
sS'w+1=around'
p214
I102
sS'w+1=and'
p215
I101
sS'mark=after'
p216
I45
sS'w+2=Mr.'
p217
I132
sS'nsubj=opportunity'
p218
I66
sS'advmod=later'
p219
I11
sS'nsubj=question'
p220
I70
sS'w+1=.'
p221
I98
sS'w+2=of'
p222
I148
sS'prep=for'
p223
I86
sS'w+2=,'
p224
I127
sS'w+2=border'
p225
I138
sS'advmod=frankly'
p226
I10
sS'advmod=again'
p227
I6
sS'prep=during'
p228
I85
sS'w+2=he'
p229
I141
sS'w+2=Cyclone'
p230
I130
sS'w-1=allegation'
p231
I168
sS'w+1=do'
p232
I106
sS'w+1=lead'
p233
I114
sS'w-1=might'
p234
I186
sS'conj=grow'
p235
I36
sS'w-1=cholera'
p236
I172
sS'w+1=a'
p237
I99
sS'w-1=now'
p238
I189
sS'w-2=be'
p239
I210
sS'w-1=fear'
p240
I178
sS'w-1=tragedy'
p241
I200
sS'prep=of'
p242
I89
sS'advmod=first'
p243
I9
sS'w-1=may'
p244
I185
sS'w-2=director'
p245
I216
sS'advmod=primarily'
p246
I14
sS'prep=on'
p247
I90
sS'nsubj=controversy'
p248
I56
sS'w-1=that'
p249
I198
sS'aux=be'
p250
I17
sS'w+2=issue'
p251
I145
sS'dobj=manager'
p252
I43
sS'mark=if'
p253
I47
sS'w+2=all'
p254
I135
sS'advcl=sell'
p255
I3
sS'w+2=a'
p256
I134
sS'w+2=implement'
p257
I142
ssS'dtype'
p258
cnumpy
float64
p259
sS'feature_names_'
p260
(lp261
g169
ag167
ag208
ag255
ag71
ag137
ag227
ag212
ag157
ag243
ag226
ag219
ag76
ag192
ag246
ag114
ag134
ag250
ag149
ag64
ag92
ag89
ag111
ag113
ag203
ag72
ag164
ag176
ag159
ag146
ag49
ag202
ag43
ag126
ag150
ag34
ag235
ag97
ag198
ag67
ag39
ag117
ag200
ag252
ag91
ag216
ag38
ag253
ag178
ag190
ag47
ag66
ag65
ag58
ag56
ag90
ag248
ag25
ag69
ag17
ag121
ag20
ag30
ag131
ag171
ag128
ag218
ag59
ag57
ag55
ag220
ag189
ag14
ag73
ag158
ag105
ag22
ag9
ag147
ag61
ag151
ag112
ag50
ag46
ag31
ag228
ag223
ag191
ag182
ag242
ag247
ag81
ag87
ag93
ag35
ag48
ag183
ag15
ag221
ag237
ag102
ag215
ag214
ag83
ag26
ag32
ag232
ag144
ag135
ag152
ag185
ag145
ag186
ag106
ag233
ag141
ag166
ag194
ag21
ag177
ag29
ag127
ag53
ag142
ag110
ag118
ag133
ag224
ag213
ag160
ag230
ag153
ag217
ag163
ag256
ag254
ag132
ag124
ag225
ag103
ag116
ag229
ag257
ag44
ag207
ag251
ag95
ag80
ag222
ag180
ag130
ag173
ag51
ag27
ag210
ag139
ag154
ag209
ag187
ag156
ag196
ag101
ag193
ag82
ag188
ag74
ag206
ag54
ag231
ag94
ag36
ag99
ag236
ag108
ag63
ag70
ag184
ag13
ag240
ag37
ag125
ag174
ag60
ag77
ag165
ag244
ag234
ag143
ag140
ag238
ag28
ag42
ag179
ag205
ag16
ag136
ag109
ag98
ag249
ag45
ag241
ag11
ag84
ag10
ag85
ag86
ag197
ag120
ag96
ag79
ag239
ag199
ag195
ag23
ag88
ag41
ag245
ag8
ag18
ag52
ag172
ag78
ag175
ag162
ag75
ag155
ag104
ag119
ag33
ag40
ag122
ag148
ag201
ag115
ag138
ag123
ag68
ag168
ag12
ag170
ag62
ag19
ag181
ag100
ag161
ag211
ag129
ag24
ag107
ag204
asS'separator'
p262
S'='
sS'sparse'
p263
I01
sb.