ccopy_reg
_reconstructor
p1
(csklearn.feature_extraction.dict_vectorizer
DictVectorizer
p2
c__builtin__
object
p3
NtRp4
(dp5
S'sort'
p6
I01
sS'feature_names_'
p7
(lp8
S'advcl=say'
p9
aS'advmod=#PRP#'
p10
aS'amod=best'
p11
aS'amod=false'
p12
aS'amod=little'
p13
aS'amod=same'
p14
aS'amod=suburban'
p15
aS'auxpass=be'
p16
aS'cc=and'
p17
aS'cc=but'
p18
aS'conj=Mercy'
p19
aS'conj=aid'
p20
aS'conj=need'
p21
aS'conj=strength'
p22
aS'conj=support'
p23
aS'cop=be'
p24
aS'dep=daughter'
p25
aS'dep=have'
p26
aS'dep=ship'
p27
aS'dep=those'
p28
aS'det=no'
p29
aS'det=some'
p30
aS'det=the'
p31
aS'dobj=#PRP#'
p32
aS'dobj=family'
p33
aS'infmod=have'
p34
aS'nn=U.S.S.'
p35
aS'nn=USNS'
p36
aS'nn=ship'
p37
aS'nsubj=#PRP#'
p38
aS'nsubj=man'
p39
aS'nsubj=that'
p40
aS'nsubj=this'
p41
aS'nsubjpass=#PRP#'
p42
aS'poss=#PRP#'
p43
aS'poss=children'
p44
aS"possessive='s"
p45
aS'prep=as'
p46
aS'prep=at'
p47
aS'prep=for'
p48
aS'prep=in'
p49
aS'prep=of'
p50
aS'prep=to'
p51
aS"w+1='s"
p52
aS'w+1=,'
p53
aS'w+1=-'
p54
aS'w+1=.'
p55
aS'w+1=Rey'
p56
aS'w+1=and'
p57
aS'w+1=as'
p58
aS'w+1=be'
p59
aS'w+1=for'
p60
aS'w+1=have'
p61
aS'w+1=he'
p62
aS'w+1=in'
p63
aS'w+1=narh'
p64
aS'w+1=of'
p65
aS'w+1=that'
p66
aS'w+1=the'
p67
aS'w+1=themselves'
p68
aS'w+1=they'
p69
aS'w+1=those'
p70
aS'w+1=to'
p71
aS'w+1=visit'
p72
aS'w+1=woman'
p73
aS'w+1=zone'
p74
aS"w+2=''"
p75
aS'w+2=,'
p76
aS'w+2=.'
p77
aS'w+2=Peru'
p78
aS'w+2=Sandy'
p79
aS'w+2=a'
p80
aS'w+2=aid'
p81
aS'w+2=all'
p82
aS'w+2=and'
p83
aS'w+2=appeasement'
p84
aS'w+2=at'
p85
aS'w+2=be'
p86
aS'w+2=crew'
p87
aS'w+2=current'
p88
aS'w+2=do'
p89
aS'w+2=doctor'
p90
aS'w+2=endure'
p91
aS'w+2=family'
p92
aS'w+2=grow'
p93
aS'w+2=home'
p94
aS'w+2=know'
p95
aS'w+2=latest'
p96
aS'w+2=medical'
p97
aS'w+2=mission'
p98
aS'w+2=not'
p99
aS'w+2=other'
p100
aS'w+2=pack'
p101
aS'w+2=passenger'
p102
aS'w+2=people'
p103
aS'w+2=population'
p104
aS'w+2=routine'
p105
aS'w+2=say'
p106
aS'w+2=sister'
p107
aS'w+2=some'
p108
aS'w+2=strength'
p109
aS'w+2=support'
p110
aS'w+2=the'
p111
aS'w+2=they'
p112
aS'w+2=time'
p113
aS'w+2=to'
p114
aS'w+2=two'
p115
aS'w+2=who'
p116
aS"w-1='"
p117
aS"w-1=''"
p118
aS'w-1=.'
p119
aS'w-1=U.S.S.'
p120
aS'w-1=USNS'
p121
aS'w-1=and'
p122
aS'w-1=as'
p123
aS'w-1=be'
p124
aS'w-1=can'
p125
aS'w-1=false'
p126
aS'w-1=find'
p127
aS'w-1=for'
p128
aS'w-1=in'
p129
aS'w-1=it'
p130
aS'w-1=little'
p131
aS'w-1=my'
p132
aS'w-1=no'
p133
aS'w-1=provide'
p134
aS'w-1=same'
p135
aS'w-1=ship'
p136
aS'w-1=some'
p137
aS'w-1=suburban'
p138
aS'w-1=the'
p139
aS'w-1=they'
p140
aS'w-1=this'
p141
aS'w-1=to'
p142
aS'w-1=we'
p143
aS'w-1=whatever'
p144
aS'w-2=,'
p145
aS'w-2=.'
p146
aS'w-2=God'
p147
aS'w-2=addiction'
p148
aS'w-2=altogether'
p149
aS'w-2=american'
p150
aS'w-2=and'
p151
aS'w-2=authorize'
p152
aS'w-2=be'
p153
aS'w-2=best'
p154
aS'w-2=but'
p155
aS'w-2=campus'
p156
aS'w-2=can'
p157
aS'w-2=children'
p158
aS'w-2=close'
p159
aS'w-2=day'
p160
aS'w-2=for'
p161
aS'w-2=from'
p162
aS'w-2=give'
p163
aS'w-2=have'
p164
aS'w-2=hospital'
p165
aS'w-2=knowledge'
p166
aS'w-2=live'
p167
aS'w-2=lose'
p168
aS'w-2=much'
p169
aS'w-2=of'
p170
aS'w-2=offer'
p171
aS'w-2=other'
p172
aS'w-2=say'
p173
aS'w-2=she'
p174
aS'w-2=shelter'
p175
aS'w-2=so-called'
p176
aS'w-2=take'
p177
aS'w-2=the'
p178
aS'w-2=they'
p179
aS'w-2=to'
p180
aS'w-2=where'
p181
aS'w-2=woman'
p182
asS'dtype'
p183
cnumpy
float64
p184
sS'vocabulary_'
p185
(dp186
g123
I114
sg44
I35
sg99
I90
sg147
I138
sg115
I106
sg41
I32
sg29
I20
sg26
I17
sg107
I98
sg74
I65
sg154
I145
sg174
I165
sg61
I52
sg144
I135
sg31
I22
sg149
I140
sg10
I1
sg23
I14
sg171
I162
sg167
I158
sg157
I148
sg156
I147
sg170
I161
sg13
I4
sg9
I0
sg179
I170
sg87
I78
sg142
I133
sg180
I171
sg83
I74
sg136
I127
sg151
I142
sg27
I18
sg66
I57
sg138
I129
sg102
I93
sg19
I10
sg135
I126
sg73
I64
sg11
I2
sg72
I63
sg33
I24
sg24
I15
sg125
I116
sg127
I118
sg159
I150
sg32
I23
sg28
I19
sg116
I107
sg173
I164
sg60
I51
sg177
I168
sg169
I160
sg111
I102
sg58
I49
sg63
I54
sg46
I37
sg145
I136
sg146
I137
sg110
I101
sg62
I53
sg82
I73
sg68
I59
sg155
I146
sg117
I108
sg124
I115
sg105
I96
sg96
I87
sg103
I94
sg119
I110
sg15
I6
sg158
I149
sg178
I169
sg175
I166
sg132
I123
sg126
I117
sg160
I151
sg181
I172
sg30
I21
sg89
I80
sg172
I163
sg65
I56
sg114
I105
sg166
I157
sg48
I39
sg137
I128
sg152
I143
sg35
I26
sg78
I69
sg37
I28
sg101
I92
sg21
I12
sg85
I76
sg75
I66
sg141
I132
sg121
I112
sg131
I122
sg150
I141
sg176
I167
sg77
I68
sg182
I173
sg16
I7
sg52
I43
sg112
I103
sg164
I155
sg98
I89
sg17
I8
sg64
I55
sg67
I58
sg88
I79
sg109
I100
sg106
I97
sg161
I152
sg95
I86
sg69
I60
sg70
I61
sg43
I34
sg84
I75
sg79
I70
sg49
I40
sg108
I99
sg42
I33
sg104
I95
sg34
I25
sg162
I153
sg47
I38
sg38
I29
sg97
I88
sg118
I109
sg100
I91
sg91
I82
sg92
I83
sg165
I156
sg51
I42
sg56
I47
sg143
I134
sg18
I9
sg36
I27
sg81
I72
sg148
I139
sg133
I124
sg57
I48
sg140
I131
sg54
I45
sg128
I119
sg53
I44
sg55
I46
sg163
I154
sg94
I85
sg76
I67
sg71
I62
sg14
I5
sg40
I31
sg130
I121
sg45
I36
sg120
I111
sg122
I113
sg113
I104
sg20
I11
sg134
I125
sg90
I81
sg129
I120
sg93
I84
sg153
I144
sg50
I41
sg59
I50
sg139
I130
sg22
I13
sg168
I159
sg12
I3
sg39
I30
sg86
I77
sg80
I71
sg25
I16
ssS'separator'
p187
S'='
sS'sparse'
p188
I01
sb.