ccopy_reg
_reconstructor
p1
(csklearn.feature_extraction.dict_vectorizer
DictVectorizer
p2
c__builtin__
object
p3
NtRp4
(dp5
S'vocabulary_'
p6
(dp7
S'prep=before'
p8
I181
sS'dobj=migrant'
p9
I110
sS'w+1=require'
p10
I228
sS'w-2=we'
p11
I445
sS'w-2=people'
p12
I423
sS'ccomp=defend'
p13
I47
sS'nsubjpass=people'
p14
I172
sS'w+2=overcome'
p15
I290
sS'w+1=decision'
p16
I209
sS'w-2=send'
p17
I428
sS'advmod=well'
p18
I27
sS'w-2=English'
p19
I371
sS'w-2=suspect'
p20
I431
sS'dobj=Sarma'
p21
I96
sS'xcomp=use'
p22
I450
sS'w-2=happy'
p23
I406
sS'w-2=police'
p24
I425
sS'w-2=just'
p25
I413
sS'w-2=they'
p26
I435
sS'w+2=european'
p27
I268
sS'w+1=that'
p28
I232
sS'prep=by'
p29
I182
sS'advcl=affect'
p30
I1
sS'w+2=nation'
p31
I284
sS'w-1=Center'
p32
I313
sS'w+2=change'
p33
I262
sS'w+2=superior'
p34
I298
sS'dobj=national'
p35
I112
sS'dep=disconnect'
p36
I84
sS'dobj=immigrant'
p37
I107
sS'advmod=so'
p38
I25
sS'w-1=initially'
p39
I338
sS'w+2=well'
p40
I306
sS'advmod=just'
p41
I19
sS'nsubjpass=consumer'
p42
I163
sS'cc=nor'
p43
I41
sS'w-2=way'
p44
I444
sS'w-1=will'
p45
I361
sS'w+2=train'
p46
I304
sS'dobj=other'
p47
I114
sS'aux=may'
p48
I33
sS'dep=admit'
p49
I81
sS'w-1=Obama'
p50
I317
sS'w-1=by'
p51
I327
sS'w-1=well'
p52
I360
sS'w-1=be'
p53
I325
sS'w-2=family'
p54
I402
sS'w-2=the'
p55
I434
sS'nsubj=spokesman'
p56
I152
sS'nsubj=Slovenia'
p57
I140
sS'ccomp=be'
p58
I44
sS'w-2=go'
p59
I405
sS'ccomp=prepare'
p60
I55
sS'nsubjpass=pope'
p61
I173
sS'w-1=stay'
p62
I356
sS'w-2=utmost'
p63
I441
sS'w+1=of'
p64
I221
sS'w+1=whether'
p65
I238
sS'w+1=on'
p66
I223
sS'xcomp=function'
p67
I447
sS'w-1=have'
p68
I334
sS'ccomp=say'
p69
I60
sS'w+2=anyone'
p70
I258
sS'ccomp=go'
p71
I51
sS'dobj=team'
p72
I122
sS'w+2=what'
p73
I307
sS'w+2=it'
p74
I277
sS'w+2=Bush'
p75
I247
sS'prep=about'
p76
I179
sS'aux=can'
p77
I31
sS'complm=that'
p78
I66
sS'nsubjpass=standard'
p79
I176
sS'w-1=really'
p80
I355
sS'w-1=you'
p81
I365
sS'nsubj=Center'
p82
I134
sS'w+2=President'
p83
I250
sS'w+1=government'
p84
I213
sS'advcl=be'
p85
I2
sS'w-2=that'
p86
I433
sS'w+1=the'
p87
I233
sS'nsubj=organization'
p88
I150
sS'w-2=for'
p89
I403
sS'w+2=be'
p90
I260
sS'w+1=they'
p91
I234
sS'w-2=pope'
p92
I426
sS'advcl=submit'
p93
I7
sS'advmod=quickly'
p94
I23
sS'w-1=already'
p95
I321
sS'nsubjpass=#PRP#'
p96
I155
sS'prep=in'
p97
I184
sS'w-1=properly'
p98
I353
sS'w+1=south'
p99
I230
sS'prep=to'
p100
I189
sS'w+1=potential'
p101
I226
sS'conj=make'
p102
I76
sS'w+1=and'
p103
I201
sS'dobj=work'
p104
I127
sS'dobj=#DATE#'
p105
I88
sS'w-2=consumer'
p106
I395
sS'nsubj=that'
p107
I153
sS'w+1=woman'
p108
I239
sS'w+1=traveler'
p109
I236
sS'advmod=here'
p110
I14
sS'w-2=opportunity'
p111
I422
sS'w-2=here'
p112
I409
sS'dobj=all'
p113
I99
sS'nsubjpass=embassy'
p114
I164
sS'dobj=making'
p115
I108
sS'nsubj=key'
p116
I148
sS'ccomp=option'
p117
I54
sS'mark=if'
p118
I130
sS'dobj=yourselve'
p119
I128
sS'dobj=refugee'
p120
I119
sS'w+2=african'
p121
I256
sS'w+2=nor'
p122
I286
sS'nsubj=UNHCR'
p123
I142
sS'w+2=regular'
p124
I293
sS'w-2=court'
p125
I397
sS'dep=say'
p126
I86
sS'w+2=national'
p127
I285
sS'w-2=educate'
p128
I399
sS'w-2=community'
p129
I394
sS'dobj=people'
p130
I117
sS'w-2=through'
p131
I438
sS'nsubjpass=Hungwe'
p132
I158
sS'w-1=world'
p133
I364
sS'nsubj=perspective'
p134
I151
sS'dep=if'
p135
I85
sS'w-2=Bush'
p136
I370
sS'conj=inform'
p137
I73
sS'nsubjpass=child'
p138
I161
sS'w-1=first'
p139
I331
sS'w+2=suspect'
p140
I299
sS'dobj=#PRP#'
p141
I90
sS'w-2=do'
p142
I398
sS'nsubj=authority'
p143
I143
sS'dobj=suspect'
p144
I121
sS'w+2=boy'
p145
I261
sS'w+1=you'
p146
I240
sS'w-2=child'
p147
I391
sS'w-2=serve'
p148
I429
sS'advmod=personally'
p149
I21
sS'ccomp=give'
p150
I50
sS'w-1=it'
p151
I339
sS'advmod=however'
p152
I15
sS'w+1=as'
p153
I202
sS'w+1=at'
p154
I203
sS'dobj=official'
p155
I113
sS'w+1=he'
p156
I214
sS'w-1=currently'
p157
I329
sS'w+2=so'
p158
I296
sS'w-2=artifact'
p159
I382
sS'w-1=can'
p160
I328
sS'w-2=official'
p161
I421
sS'w+2=whether'
p162
I309
sS'w-2=air'
p163
I378
sS'w+2=Abbas'
p164
I245
sS'conj=circulate'
p165
I68
sS'w+1=through'
p166
I235
sS'w-1=ever-broader'
p167
I330
sS'advmod=when'
p168
I28
sS'dobj=superior'
p169
I120
sS'prep=for'
p170
I183
sS'dobj=authority'
p171
I100
sS'ccomp=wait'
p172
I65
sS'dep=that'
p173
I87
sS'w+2=whole'
p174
I310
sS'w-1=organization'
p175
I351
sS'w+2=where'
p176
I308
sS'parataxis=say'
p177
I177
sS'w+2=state'
p178
I297
sS'advmod=initially'
p179
I18
sS'auxpass=be'
p180
I38
sS'conj=alloweed'
p181
I67
sS'dobj=community'
p182
I102
sS'dobj=company'
p183
I103
sS'advmod=officially'
p184
I20
sS'w+1=neighbor'
p185
I220
sS'w-1=fully'
p186
I333
sS'w+2=via'
p187
I305
sS'w-2=cn'
p188
I393
sS'nsubj=karadzic'
p189
I147
sS'advmod=really'
p190
I24
sS'ccomp=agree'
p191
I43
sS'nsubjpass=community'
p192
I162
sS'w+2=mainstream'
p193
I280
sS'dep=counseling'
p194
I83
sS'w-2=charge'
p195
I390
sS'w-2=William'
p196
I376
sS'w+2=several'
p197
I295
sS'w+2=public'
p198
I292
sS'w+1=commuter'
p199
I207
sS'w+1=immigrant'
p200
I217
sS'ccomp=right'
p201
I59
sS'w+2=or'
p202
I288
sS"w-2=''"
p203
I366
sS'dobj=government'
p204
I106
sS'w+2=of'
p205
I287
sS'nsubjpass=Bush'
p206
I156
sS'w-1=local'
p207
I343
sS'w-1=immediately'
p208
I336
sS'w-2=keep'
p209
I414
sS'nsubjpass=public'
p210
I175
sS'w+2=he'
p211
I274
sS'w+2=facility'
p212
I270
sS'w+1=so'
p213
I229
sS'conj=issue'
p214
I75
sS'w-1=loudspeaker'
p215
I344
sS'advmod=first'
p216
I12
sS'w+2=about'
p217
I255
sS'w-2=Sunday'
p218
I375
sS'ccomp=settle'
p219
I61
sS'w-2=campaign'
p220
I388
sS'w-1=karadzic'
p221
I341
sS'nsubjpass=force'
p222
I166
sS'conj=return'
p223
I78
sS'w-2=pleased'
p224
I424
sS'w+1=sudanese'
p225
I231
sS'w-2=fail'
p226
I401
sS'w-2=test'
p227
I432
sS'conj=consult'
p228
I69
sS'w-2=skill'
p229
I430
sS'ccomp=ready'
p230
I57
sS'advmod=variously'
p231
I26
sS'w+2=this'
p232
I303
sS'conj=explain'
p233
I70
sS'xcomp=neighbor'
p234
I448
sS'dobj=U.N.'
p235
I98
sS'dobj=decision'
p236
I105
sS'advmod=imperfectly'
p237
I17
sS'ccomp=recognize'
p238
I58
sS'w-2=this'
p239
I437
sS'ccomp=end'
p240
I48
sS'w-2=international'
p241
I411
sS'w+2=U.N.'
p242
I252
sS'w+2=local'
p243
I279
sS'aux=will'
p244
I37
sS'advmod=already'
p245
I9
sS'w-2=Rajapaksa'
p246
I374
sS'cc=or'
p247
I42
sS'w+2=decision'
p248
I266
sS'w-1=imperfectly'
p249
I337
sS'w+1=discussion'
p250
I210
sS'ccomp=observe'
p251
I53
sS'w+2=its'
p252
I278
sS'conj=in'
p253
I72
sS'partmod=sit'
p254
I178
sS'w+1=refugee'
p255
I227
sS'dobj=public'
p256
I118
sS'w-2=it'
p257
I412
sS'w+1=SAARC'
p258
I198
sS'dobj=Ahearn'
p259
I92
sS'dobj=member'
p260
I109
sS'advcl=unfold'
p261
I8
sS'w-1=personally'
p262
I352
sS'w+1=foreign'
p263
I212
sS'nsubj=Obama'
p264
I138
sS'nsubjpass=government'
p265
I167
sS'nsubjpass=family'
p266
I165
sS'w-2=already'
p267
I380
sS'w+1=yourself'
p268
I241
sS'w-2=hiv\\/aids'
p269
I410
sS'w-1=woman'
p270
I363
sS'w-1=after'
p271
I320
sS'xcomp=underscore'
p272
I449
sS"w+2=''"
p273
I243
sS'conj=worried'
p274
I79
sS'advmod=also'
p275
I10
sS'nsubj=lawyer'
p276
I149
sS'acomp=sudanese'
p277
I0
sS'advmod=why'
p278
I29
sS'nsubj=exercise'
p279
I146
sS'w-2=have'
p280
I407
sS'dobj=parent'
p281
I115
sS'cc=and'
p282
I39
sS'nsubjpass=official'
p283
I171
sS'advmod=currently'
p284
I11
sS'w+1=by'
p285
I205
sS'w-1=just'
p286
I340
sS'w-2=exercise'
p287
I400
sS'nsubj=b'
p288
I144
sS'w+2=community'
p289
I263
sS'nsubj=Commission'
p290
I135
sS'prep=include'
p291
I185
sS'w-2=bind'
p292
I387
sS'w+1=in'
p293
I218
sS'w+1=-lrb-'
p294
I192
sS'nsubj=#PRP#'
p295
I133
sS'w+1=about'
p296
I199
sS'w+1=health'
p297
I215
sS'ccomp=situation'
p298
I63
sS'w+2=family'
p299
I271
sS'cc=but'
p300
I40
sS'w-2=role'
p301
I427
sS'w-2=away'
p302
I385
sS'dobj=#NUMBER#'
p303
I89
sS'w+2=involve'
p304
I276
sS'w-2=President'
p305
I373
sS'w+1=citizen'
p306
I206
sS'w-1=without'
p307
I362
sS'w+2=Musharraf'
p308
I249
sS'aux=must'
p309
I34
sS'w-2=like'
p310
I415
sS'w-1=make'
p311
I345
sS'w-2=my'
p312
I417
sS'w-1=better'
p313
I326
sS'ccomp=turn'
p314
I64
sS'w-2=authority'
p315
I384
sS'w-2=be'
p316
I386
sS'prep=of'
p317
I186
sS'w-2=obligate'
p318
I420
sS'w+2=Ahearn'
p319
I246
sS'prep=on'
p320
I187
sS'mark=after'
p321
I129
sS'w-2=counseling'
p322
I396
sS'dobj=court'
p323
I104
sS'nsubj=Karadzic'
p324
I137
sS'w-1=of'
p325
I348
sS'advcl=inform'
p326
I4
sS'nsubjpass=group'
p327
I168
sS'w+2=hiv'
p328
I275
sS'csubj=be'
p329
I80
sS'dobj=citizen'
p330
I101
sS'w+1=all'
p331
I200
sS'w-1=to'
p332
I359
sS'nsubj=woman'
p333
I154
sS'aux=stay'
p334
I35
sS'w+2=that'
p335
I300
sS'w-2=to'
p336
I439
sS'w-2=can'
p337
I389
sS'dobj=States'
p338
I97
sS'w-1=or'
p339
I350
sS'w-2=almost'
p340
I379
sS'dobj=woman'
p341
I126
sS'advcl=say'
p342
I5
sS'nsubjpass=population'
p343
I174
sS'nsubjpass=member'
p344
I169
sS'conj=involve'
p345
I74
sS'w+2=and'
p346
I257
sS'tmod=#DATE#'
p347
I190
sS'w-2=and'
p348
I381
sS'w+1=Lena'
p349
I195
sS'w+2=member'
p350
I282
sS'w-1=Karadzic'
p351
I316
sS'mark=so'
p352
I131
sS'w-2=try'
p353
I440
sS'dobj=Musharraf'
p354
I95
sS'nsubjpass=office'
p355
I170
sS'dep=by'
p356
I82
sS'w-2=he'
p357
I408
sS'w+1=more'
p358
I219
sS'advmod=fully'
p359
I13
sS'w+2=making'
p360
I281
sS'nsubjpass=attempt'
p361
I159
sS'prep=at'
p362
I180
sS'nsubj=U.S.'
p363
I141
sS'w-2=,'
p364
I367
sS'w-2=-'
p365
I368
sS'w-2=.'
p366
I369
sS'w-1=and'
p367
I323
sS'w+2=development'
p368
I267
sS'aux=have'
p369
I32
sS'ccomp=have'
p370
I52
sS'w-2=thing'
p371
I436
sS'w-1=,'
p372
I312
sS'w-2=not'
p373
I419
sS'w-2=I'
p374
I372
sS'w+2=United'
p375
I253
sS'ccomp=citizen'
p376
I45
sS'w-2=as'
p377
I383
sS'w-1=also'
p378
I322
sS'prep=through'
p379
I188
sS'w+1=consensus'
p380
I208
sS'w-1=I'
p381
I315
sS'dobj=Abbas'
p382
I91
sS'w+2=government'
p383
I273
sS'w+1=people'
p384
I225
sS'w-2=a'
p385
I377
sS'ccomp=consider'
p386
I46
sS'w-1=a'
p387
I319
sS'w+2=police'
p388
I291
sS'dobj=train'
p389
I123
sS'dobj=Bush'
p390
I93
sS'w+2=work'
p391
I311
sS'w-1=he'
p392
I335
sS'w+1=each'
p393
I211
sS'dobj=Mbeki'
p394
I94
sS'w+2=Secretary'
p395
I251
sS'advcl=seek'
p396
I6
sS'w-2=member'
p397
I416
sS'dobj=traveler'
p398
I124
sS'advmod=immediately'
p399
I16
sS'w+1=Defense'
p400
I194
sS'w-2=very'
p401
I442
sS'conj=movement'
p402
I77
sS'w+2=they'
p403
I302
sS'w+1=President'
p404
I197
sS'w+2=give'
p405
I272
sS'dobj=whole'
p406
I125
sS'w-2=voluntary'
p407
I443
sS'nsubj=Fallon'
p408
I136
sS'nsubj=Petraeus'
p409
I139
sS'w-1=Fallon'
p410
I314
sS'nsubjpass=authority'
p411
I160
sS'w+2=court'
p412
I265
sS'w+2=consult'
p413
I264
sS'w+2=send'
p414
I294
sS'w+1=yourselve'
p415
I242
sS'w+2=authority'
p416
I259
sS'nsubjpass=Congress'
p417
I157
sS'w+2=other'
p418
I289
sS'nsubj=campaign'
p419
I145
sS'w+1=when'
p420
I237
sS'aux=to'
p421
I36
sS'w+1=before'
p422
I204
sS'w+2=migrant'
p423
I283
sS'w+1=official'
p424
I222
sS'advcl=go'
p425
I3
sS'w+2=the'
p426
I301
sS'conj=hear'
p427
I71
sS'w-2=will'
p428
I446
sS'w+2=Mr.'
p429
I248
sS'w-2=force'
p430
I404
sS'w-1=officially'
p431
I349
sS'w-1=for'
p432
I332
sS'w+1=,'
p433
I191
sS'w+1=.'
p434
I193
sS'dobj=party'
p435
I116
sS'w-1=lawyer'
p436
I342
sS'w+2=,'
p437
I244
sS'ccomp=expel'
p438
I49
sS'neg=not'
p439
I132
sS'ccomp=proceed'
p440
I56
sS'w-1=U.S.'
p441
I318
sS'w-1=quickly'
p442
I354
sS'w+1=parent'
p443
I224
sS'w+1=Mr.'
p444
I196
sS'w-1=step'
p445
I357
sS'w-2=class'
p446
I392
sS'dobj=nation'
p447
I111
sS'w-1=not'
p448
I347
sS'w+1=hundred'
p449
I216
sS'w-1=nor'
p450
I346
sS'w+2=explain'
p451
I269
sS'w-1=as'
p452
I324
sS'w-1=that'
p453
I358
sS'aux=be'
p454
I30
sS'w-2=necessary'
p455
I418
sS'w+2=a'
p456
I254
sS'ccomp=shock'
p457
I62
sS'advmod=properly'
p458
I22
ssS'dtype'
p459
cnumpy
float64
p460
sS'feature_names_'
p461
(lp462
g277
ag30
ag85
ag425
ag326
ag342
ag396
ag93
ag261
ag245
ag275
ag284
ag216
ag359
ag110
ag152
ag399
ag237
ag179
ag41
ag184
ag149
ag458
ag94
ag190
ag38
ag231
ag18
ag168
ag278
ag454
ag77
ag369
ag48
ag309
ag334
ag421
ag244
ag180
ag282
ag300
ag43
ag247
ag191
ag58
ag376
ag386
ag13
ag240
ag438
ag150
ag71
ag370
ag251
ag117
ag60
ag440
ag230
ag238
ag201
ag69
ag219
ag457
ag298
ag314
ag172
ag78
ag181
ag165
ag228
ag233
ag427
ag253
ag137
ag345
ag214
ag102
ag402
ag223
ag274
ag329
ag49
ag356
ag194
ag36
ag135
ag126
ag173
ag105
ag303
ag141
ag382
ag259
ag390
ag394
ag354
ag21
ag338
ag235
ag113
ag171
ag330
ag182
ag183
ag323
ag236
ag204
ag37
ag115
ag260
ag9
ag447
ag35
ag155
ag47
ag281
ag435
ag130
ag256
ag120
ag169
ag144
ag72
ag389
ag398
ag406
ag341
ag104
ag119
ag321
ag118
ag352
ag439
ag295
ag82
ag290
ag408
ag324
ag264
ag409
ag57
ag363
ag123
ag143
ag288
ag419
ag279
ag189
ag116
ag276
ag88
ag134
ag56
ag107
ag333
ag96
ag206
ag417
ag132
ag361
ag411
ag138
ag192
ag42
ag114
ag266
ag222
ag265
ag327
ag344
ag355
ag283
ag14
ag61
ag343
ag210
ag79
ag177
ag254
ag76
ag362
ag8
ag29
ag170
ag97
ag291
ag317
ag320
ag379
ag100
ag347
ag433
ag294
ag434
ag400
ag349
ag444
ag404
ag258
ag296
ag331
ag103
ag153
ag154
ag422
ag285
ag306
ag199
ag380
ag16
ag250
ag393
ag263
ag84
ag156
ag297
ag449
ag200
ag293
ag358
ag185
ag64
ag424
ag66
ag443
ag384
ag101
ag255
ag10
ag213
ag99
ag225
ag28
ag87
ag91
ag166
ag109
ag420
ag65
ag108
ag146
ag268
ag415
ag273
ag437
ag164
ag319
ag75
ag429
ag308
ag83
ag395
ag242
ag375
ag456
ag217
ag121
ag346
ag70
ag416
ag90
ag145
ag33
ag289
ag413
ag412
ag248
ag368
ag27
ag451
ag212
ag299
ag405
ag383
ag211
ag328
ag304
ag74
ag252
ag243
ag193
ag360
ag350
ag423
ag31
ag127
ag122
ag205
ag202
ag418
ag15
ag388
ag198
ag124
ag414
ag197
ag158
ag178
ag34
ag140
ag335
ag426
ag403
ag232
ag46
ag187
ag40
ag73
ag176
ag162
ag174
ag391
ag372
ag32
ag410
ag381
ag351
ag50
ag441
ag387
ag271
ag95
ag378
ag367
ag452
ag53
ag313
ag51
ag160
ag157
ag167
ag139
ag432
ag186
ag68
ag392
ag208
ag249
ag39
ag151
ag286
ag221
ag436
ag207
ag215
ag311
ag450
ag448
ag325
ag431
ag339
ag175
ag262
ag98
ag442
ag80
ag62
ag445
ag453
ag332
ag52
ag45
ag307
ag270
ag133
ag81
ag203
ag364
ag365
ag366
ag136
ag19
ag374
ag305
ag246
ag218
ag196
ag385
ag163
ag340
ag267
ag348
ag159
ag377
ag315
ag302
ag316
ag292
ag220
ag337
ag195
ag147
ag446
ag188
ag129
ag106
ag322
ag125
ag142
ag128
ag287
ag226
ag54
ag89
ag430
ag59
ag23
ag280
ag357
ag112
ag269
ag241
ag257
ag25
ag209
ag310
ag397
ag312
ag455
ag373
ag318
ag161
ag111
ag12
ag224
ag24
ag92
ag301
ag17
ag148
ag229
ag20
ag227
ag86
ag55
ag26
ag371
ag239
ag131
ag336
ag353
ag63
ag401
ag407
ag44
ag11
ag428
ag67
ag234
ag272
ag22
asS'separator'
p463
S'='
sS'sparse'
p464
I01
sb.