ccopy_reg
_reconstructor
p1
(csklearn.feature_extraction.dict_vectorizer
DictVectorizer
p2
c__builtin__
object
p3
NtRp4
(dp5
S'sort'
p6
I01
sS'feature_names_'
p7
(lp8
S'advcl=conduct'
p9
aS'advcl=receive'
p10
aS'advcl=take'
p11
aS'advmod=at'
p12
aS'advmod=straight'
p13
aS'aux=to'
p14
aS'aux=will'
p15
aS'dobj=#NUMBER#'
p16
aS'dobj=#PRP#'
p17
aS'dobj=Soda'
p18
aS'dobj=child'
p19
aS'dobj=girl'
p20
aS'nsubj=doctor'
p21
aS'nsubj=student'
p22
aS'prep=at'
p23
aS'prep=for'
p24
aS'prep=in'
p25
aS'prep=into'
p26
aS'w+1=Soda'
p27
aS'w+1=at'
p28
aS'w+1=child'
p29
aS'w+1=girl'
p30
aS'w+1=hundred'
p31
aS'w+1=in'
p32
aS'w+1=she'
p33
aS'w+1=they'
p34
aS'w+2=.'
p35
aS'w+2=Kenya'
p36
aS'w+2=child'
p37
aS'w+2=college'
p38
aS'w+2=cram-school'
p39
aS'w+2=from'
p40
aS'w+2=in'
p41
aS'w+2=into'
p42
aS'w+2=of'
p43
aS'w+2=school'
p44
aS'w+2=the'
p45
aS'w-1=exam'
p46
aS'w-1=help'
p47
aS'w-1=to'
p48
aS'w-1=will'
p49
aS'w-2=allow'
p50
aS'w-2=aspire'
p51
aS'w-2=choose'
p52
aS'w-2=doctor'
p53
aS'w-2=effort'
p54
aS'w-2=entrance'
p55
aS'w-2=need'
p56
aS'w-2=order'
p57
aS'w-2=seek'
p58
aS'w-2=time'
p59
aS'w-2=try'
p60
aS'w-2=woman'
p61
asS'dtype'
p62
cnumpy
float64
p63
sS'vocabulary_'
p64
(dp65
g40
I31
sg41
I32
sg15
I6
sg14
I5
sg10
I1
sg18
I9
sg42
I33
sg45
I36
sg23
I14
sg58
I49
sg28
I19
sg49
I40
sg47
I38
sg57
I48
sg43
I34
sg61
I52
sg50
I41
sg27
I18
sg11
I2
sg36
I27
sg29
I20
sg12
I3
sg30
I21
sg24
I15
sg35
I26
sg16
I7
sg53
I44
sg9
I0
sg13
I4
sg22
I13
sg39
I30
sg54
I45
sg33
I24
sg46
I37
sg59
I50
sg55
I46
sg26
I17
sg52
I43
sg31
I22
sg34
I25
sg48
I39
sg19
I10
sg38
I29
sg20
I11
sg21
I12
sg25
I16
sg17
I8
sg32
I23
sg60
I51
sg44
I35
sg51
I42
sg56
I47
sg37
I28
ssS'separator'
p66
S'='
sS'sparse'
p67
I01
sb.