ccopy_reg
_reconstructor
p1
(csklearn.feature_extraction.dict_vectorizer
DictVectorizer
p2
c__builtin__
object
p3
NtRp4
(dp5
S'vocabulary_'
p6
(dp7
S'nsubj=part'
p8
I1257
sS'w+2=penalty'
p9
I2464
sS'nsubj=Cross'
p10
I1000
sS'w+2=newly'
p11
I2430
sS'w+1=ammunition'
p12
I1554
sS'w-2=wire'
p13
I3819
sS'advmod=more'
p14
I111
sS'conj=give'
p15
I263
sS'w-1=Bartlett'
p16
I2691
sS'w+1=much-needed'
p17
I1823
sS'advmod=certainly'
p18
I83
sS'xcomp=store'
p19
I3920
sS'w+1=decent'
p20
I1628
sS'w-2=runoff'
p21
I3680
sS'w+1=enormous'
p22
I1656
sS'nsubj=poll'
p23
I1272
sS'w-2=42'
p24
I3053
sS'nsubj=reactor'
p25
I1285
sS'dobj=percent'
p26
I747
sS'w+2=solution'
p27
I2559
sS'advcl=return'
p28
I51
sS'w+1=defendant'
p29
I1629
sS'w+2=survivor'
p30
I2588
sS'w+2=health'
p31
I2312
sS'w-2=motive'
p32
I3557
sS'w+2=margin'
p33
I2390
sS'w-1=certainly'
p34
I2803
sS'w+2=but'
p35
I2156
sS'w-2=try'
p36
I3790
sS'w-1=than'
p37
I2998
sS'csubj=implement'
p38
I324
sS'w-1=should'
p39
I2979
sS'w-2=offer'
p40
I3585
sS'dobj=water'
p41
I914
sS'w-2=new'
p42
I3569
sS'w-2=net'
p43
I3567
sS'ccomp=trade'
p44
I219
sS'dobj=condition'
p45
I507
sS'w+1=500,000'
p46
I1499
sS'nsubj=agenda'
p47
I1097
sS'ccomp=secure'
p48
I211
sS'w+1=protection'
p49
I1874
sS'w+1=evidence'
p50
I1666
sS'w-2=need'
p51
I3565
sS'w-2=position'
p52
I3627
sS'w+2=Korea'
p53
I2072
sS'w+1=benefit'
p54
I1579
sS'w-1=athlete'
p55
I2781
sS'w-2=military'
p56
I3538
sS'dobj=machine'
p57
I680
sS'purpcl=increase'
p58
I1472
sS'w-1=Pyongyang'
p59
I2736
sS'dobj=computer'
p60
I505
sS'dobj=coordination'
p61
I521
sS'nsubj=superdelegate'
p62
I1325
sS'w-1=create'
p63
I2819
sS'w-2=grow'
p64
I3442
sS'w-2=Miami-Dade'
p65
I3138
sS'advcl=meet'
p66
I42
sS'w-1=ultimately'
p67
I3015
sS'nsubj=Nations'
p68
I1047
sS'w-2=world'
p69
I3826
sS'w-2=comment'
p70
I3302
sS'w+2=entry'
p71
I2246
sS'w-2=cleaner'
p72
I3294
sS'w+2=Orang'
p73
I2076
sS'nsubj=station'
p74
I1320
sS'w-2=funding'
p75
I3429
sS'w-1=drive'
p76
I2832
sS'w+1=refuge'
p77
I1885
sS'w+2=nuclear'
p78
I2440
sS'w-2=well'
p79
I3810
sS'ccomp=feel'
p80
I191
sS'w-1=event'
p81
I2842
sS'w-2=focus'
p82
I3415
sS'w-2=class'
p83
I3292
sS'w-2=Bryan'
p84
I3073
sS'w+1=in'
p85
I1746
sS'advmod=better'
p86
I82
sS'w-1=will'
p87
I3032
sS'nsubjpass=detail'
p88
I1377
sS'w+1=salary'
p89
I1900
sS'w-2=administration'
p90
I3205
sS'nsubjpass=news'
p91
I1388
sS'w-2=Congress'
p92
I3081
sS'w-2=representative'
p93
I3665
sS'nsubj=nature'
p94
I1243
sS'nsubj=delegate'
p95
I1149
sS'w-2=appointment'
p96
I3232
sS'nsubj=attraction'
p97
I1108
sS'w-1=tent'
p98
I2997
sS'w-1=Iran'
p99
I2720
sS'dobj=shot'
p100
I829
sS'w+1=universal'
p101
I1995
sS'xcomp=oil'
p102
I3897
sS'w+2=promote'
p103
I2497
sS'dobj=springboard'
p104
I847
sS'w-2=time'
p105
I3773
sS'w-1=library'
p106
I2900
sS'w+2=independent'
p107
I2336
sS'w-2=before'
p108
I3256
sS'w-1=food'
p109
I2853
sS'w+1=real'
p110
I1879
sS'xcomp=conduct'
p111
I3855
sS'w+2=quality'
p112
I2501
sS'dobj=near'
p113
I715
sS'w-2=Ramadan'
p114
I3161
sS'w-2=natural'
p115
I3563
sS'w-2=who'
p116
I3816
sS'w-2=finding'
p117
I3412
sS'dobj=material'
p118
I688
sS'w+2=lawyer'
p119
I2367
sS'w-2=2005'
p120
I3051
sS'w+2=skill'
p121
I2552
sS'w-2=North'
p122
I3150
sS'w+1=health'
p123
I1721
sS'w+1=high-powered'
p124
I1725
sS'w+2=last'
p125
I2363
sS'conj=dependent'
p126
I246
sS'ccomp=carry'
p127
I177
sS'w+1=practical'
p128
I1867
sS'w+1=or'
p129
I1849
sS'w+2=my'
p130
I2421
sS'w-2=continue'
p131
I3317
sS'w-1=edition'
p132
I2836
sS'ccomp=say'
p133
I210
sS'w-2=Red'
p134
I3162
sS'ccomp=prove'
p135
I205
sS'dep=produce'
p136
I366
sS'w+2=appropriate'
p137
I2121
sS'dep=submit'
p138
I374
sS'w-1=fossil'
p139
I2857
sS'dobj=deterrence'
p140
I539
sS'dobj=comfort'
p141
I501
sS'w+2=Tehran'
p142
I2084
sS'w+2=stereoscopic'
p143
I2574
sS'w+2=sanitary'
p144
I2534
sS'dobj=stimulus'
p145
I853
sS'xcomp=shore'
p146
I3917
sS'w-2=longer'
p147
I3525
sS'ccomp=have'
p148
I196
sS'w-1=could'
p149
I2816
sS'xcomp=ensure'
p150
I3864
sS'nsubj=centrifuge'
p151
I1123
sS'prep=around'
p152
I1436
sS'nsubj=bicycle'
p153
I1113
sS'w+1=docking'
p154
I1635
sS'w+2=rare'
p155
I2503
sS'w+1=two'
p156
I1992
sS'w+1=food'
p157
I1687
sS'w-1=you'
p158
I3039
sS'xcomp=attack'
p159
I3838
sS'w-1=yet'
p160
I3038
sS'nsubjpass=percent'
p161
I1389
sS'w+2=fund'
p162
I2294
sS'advcl=be'
p163
I11
sS'dobj=Americans'
p164
I390
sS'w-2=that'
p165
I3760
sS'w+1=the'
p166
I1966
sS'w+1=genocide-denial'
p167
I1700
sS'w+1=insulation'
p168
I1756
sS'w-2=than'
p169
I3759
sS'w-2=health'
p170
I3450
sS'w+2=soldier'
p171
I2558
sS'w+2=encouraging'
p172
I2242
sS'w+1=good'
p173
I1701
sS'w+1=private'
p174
I1870
sS'dobj=innovation'
p175
I641
sS'nsubjpass=helmet'
p176
I1380
sS'ccomp=something'
p177
I212
sS'w+1=education'
p178
I1645
sS'w+1=transitional'
p179
I1985
sS'dobj=brigade'
p180
I482
sS'w-2=supply'
p181
I3739
sS'conj=without'
p182
I319
sS'w-2=citizen'
p183
I3289
sS'w-1=shelter'
p184
I2978
sS'advcl=topic'
p185
I58
sS'w+2=detailed'
p186
I2217
sS'w+2=further'
p187
I2296
sS'nsubj=U.N.'
p188
I1075
sS'w+1=something'
p189
I1927
sS'conj=mean'
p190
I277
sS'w-2=year'
p191
I3828
sS'w+1=iraqi'
p192
I1764
sS'w-2=record'
p193
I3652
sS'w+1=plenty'
p194
I1862
sS'w-2=differently'
p195
I3353
sS'acomp=ready'
p196
I3
sS'w+1=livelihood'
p197
I1791
sS'xcomp=use'
p198
I3929
sS'xcomp=battle'
p199
I3843
sS'w-2=six-party'
p200
I3709
sS'w+1=urgent'
p201
I2001
sS'dobj=worker'
p202
I923
sS'nsubj=Srikantam'
p203
I1065
sS'w+2=record'
p204
I2511
sS'w-2=labor'
p205
I3503
sS'w-1=America'
p206
I2689
sS'w-2=order'
p207
I3598
sS'dobj=combatant'
p208
I500
sS'dobj=work'
p209
I922
sS'nsubjpass=medication'
p210
I1383
sS'w+2=43-billion'
p211
I2043
sS'w+2=technology'
p212
I2594
sS'dep=whose'
p213
I385
sS'dobj=transition'
p214
I888
sS'w+2=brief'
p215
I2151
sS'w+2=clearest'
p216
I2176
sS'w+1=direct'
p217
I1634
sS'dep=certify'
p218
I334
sS'w+2=picture'
p219
I2474
sS'nsubj=member'
p220
I1230
sS'nsubj=tax'
p221
I1332
sS'w+2=technological'
p222
I2593
sS'dobj=viewpoint'
p223
I908
sS'nsubj=Gadhafi'
p224
I1022
sS'w-1=technician'
p225
I2996
sS'w-2=sanitation'
p226
I3682
sS'advmod=here'
p227
I96
sS'dobj=redress'
p228
I786
sS'w+2=baby'
p229
I2132
sS'dobj=input'
p230
I642
sS'dobj=justice'
p231
I654
sS'parataxis=be'
p232
I1402
sS'nsubj=growth'
p233
I1194
sS'w+2=widespread'
p234
I2663
sS'w-1=Cup'
p235
I2706
sS'nsubj=Irbil'
p236
I1035
sS'ccomp=comply'
p237
I178
sS'dobj=feeding'
p238
I576
sS'w+2=customer'
p239
I2207
sS'conj=be'
p240
I236
sS'conj=conduct'
p241
I241
sS'dobj=reminder'
p242
I791
sS'w-2=exist'
p243
I3393
sS'w+1=70'
p244
I1500
sS'dobj=trial'
p245
I892
sS'partmod=lead'
p246
I1414
sS'dep=like'
p247
I357
sS'w+2=power'
p248
I2486
sS'w-2=find'
p249
I3411
sS'nsubj=horse'
p250
I1197
sS'w+1=monthly'
p251
I1818
sS'w-2=send'
p252
I3696
sS'conj=conspire'
p253
I242
sS"w-2='67"
p254
I3041
sS'w+2=smooth'
p255
I2555
sS'dobj=livelihood'
p256
I676
sS'w-2=Aviano'
p257
I3067
sS'w+1=write'
p258
I2021
sS'advmod=where'
p259
I141
sS'w+2=space'
p260
I2563
sS'w-2=agree'
p261
I3211
sS'w+2=incentive'
p262
I2333
sS'xcomp=bring'
p263
I3846
sS'w-2=network'
p264
I3568
sS'w+2=when'
p265
I2660
sS'w-2=penalize'
p266
I3613
sS'conj=unprecedented'
p267
I317
sS'w-1=charter'
p268
I2804
sS'w-2=gap'
p269
I3431
sS'w+2=insurgent'
p270
I2343
sS'dobj=intelligence'
p271
I649
sS'nsubj=way'
p272
I1360
sS'w-2=salary'
p273
I3681
sS'dep=pick'
p274
I365
sS'w-2=export'
p275
I3397
sS'nsubj=troops'
p276
I1347
sS'w+2=at'
p277
I2129
sS'w-2=community'
p278
I3307
sS'w-1=mining'
p279
I2918
sS'w+2=lesion'
p280
I2371
sS'dobj=ingredient'
p281
I640
sS'advcl=try'
p282
I59
sS'rel=for'
p283
I1473
sS'prep=include'
p284
I1451
sS'w-2=border'
p285
I3267
sS'dep=rebuild'
p286
I367
sS'w-1=army'
p287
I2777
sS'advcl=exit'
p288
I25
sS'w-2=munitions'
p289
I3559
sS'w-1=footage'
p290
I2854
sS'parataxis=discuss'
p291
I1403
sS'w+1=grant'
p292
I1703
sS'w-1=moped'
p293
I2920
sS'nsubj=charter'
p294
I1124
sS'w+1=healthful'
p295
I1723
sS'w+2=cover'
p296
I2201
sS'w-2=inability'
p297
I3473
sS'w+2=flight'
p298
I2280
sS'nsubj=Ahmed'
p299
I976
sS'w-2=ground'
p300
I3440
sS'dobj=North'
p301
I407
sS'dobj=option'
p302
I733
sS'w-1=to'
p303
I3007
sS'w+2=mercenary'
p304
I2402
sS'dobj=fuel'
p305
I596
sS'nsubj=lack'
p306
I1212
sS'w+1=law'
p307
I1776
sS'w-1=Japan'
p308
I2722
sS'w-2=legislation'
p309
I3516
sS'w-1=visit'
p310
I3022
sS'dobj=#PRP#'
p311
I387
sS'w-2=do'
p312
I3360
sS'nsubj=groupshave'
p313
I1193
sS'nsubj=wind'
p314
I1365
sS'nsubj=report'
p315
I1290
sS'dobj=concession'
p316
I506
sS'nsubj=farmer'
p317
I1171
sS'dep=give'
p318
I346
sS'acomp=much'
p319
I1
sS'w+2=voiceover'
p320
I2651
sS'nsubj=Japan'
p321
I1036
sS'w-2=daily'
p322
I3334
sS'conj=rebuild'
p323
I296
sS'w-2=delay'
p324
I3343
sS'ccomp=resolve'
p325
I207
sS'w+1=safe'
p326
I1898
sS'w-1=exercise'
p327
I2843
sS'w-2=and'
p328
I3226
sS'w+2=flexibility'
p329
I2279
sS'dobj=housing'
p330
I625
sS'w+2=room'
p331
I2529
sS'nsubj=performance'
p332
I1263
sS'nsubj=company'
p333
I1138
sS'w+1=he'
p334
I1719
sS'w+1=cheap'
p335
I1598
sS'w+1=space'
p336
I1929
sS'w-2=judgment'
p337
I3502
sS'w+1=follow-up'
p338
I1686
sS'w+2=under'
p339
I2634
sS'w+2=perfect'
p340
I2467
sS'w-2=Abbas'
p341
I3057
sS'w-1=would'
p342
I3036
sS'dobj=passage'
p343
I740
sS'w-2=-rrb-'
p344
I3046
sS'w-2=Russia'
p345
I3166
sS'w-2=zone'
p346
I3832
sS'w+2=themselves'
p347
I2601
sS'w+1=through'
p348
I1974
sS'w+2=perspective'
p349
I2471
sS'w-2=datum'
p350
I3335
sS'w+2=because'
p351
I2137
sS'w+2=Voice'
p352
I2090
sS'w+1=assistance'
p353
I1567
sS'w+2=real-time'
p354
I2507
sS'w-2=Quds'
p355
I3160
sS'dobj=bus'
p356
I484
sS'w+1=filmmaker'
p357
I1681
sS'w-2=of'
p358
I3584
sS'xcomp=be'
p359
I3844
sS'w+2=all'
p360
I2113
sS'w-1=-rrb-'
p361
I2681
sS'w+2=time'
p362
I2614
sS'dobj=authority'
p363
I461
sS'w+2=percent'
p364
I2466
sS'w-2=decision'
p365
I3337
sS'prep=above'
p366
I1430
sS'dobj=net'
p367
I719
sS'w+1=full'
p368
I1695
sS'w-1=allegedly'
p369
I2767
sS'w-1=attack'
p370
I2782
sS'advmod=normally'
p371
I113
sS'xcomp=flee'
p372
I3870
sS'w+2=boat'
p373
I2147
sS'w-2=Rwanda'
p374
I3167
sS'w-1=force'
p375
I2856
sS'dep=continue'
p376
I339
sS'w-1=entity'
p377
I2840
sS'prep=despite'
p378
I1443
sS'dobj=contraception'
p379
I516
sS'w-2=duty'
p380
I3366
sS'w-1=investigator'
p381
I2885
sS'advcl=give'
p382
I34
sS'conj=register'
p383
I299
sS'w+2=notice'
p384
I2438
sS'w+1=fund'
p385
I1696
sS'w+1=housing'
p386
I1732
sS'w+1=capital'
p387
I1591
sS'dep=arrive'
p388
I329
sS'dobj=community'
p389
I503
sS'w-2=vaccine'
p390
I3798
sS'dobj=shape'
p391
I825
sS'w+1=hard'
p392
I1717
sS'w-2=intend'
p393
I3487
sS'w-2=League'
p394
I3130
sS'w+2=application'
p395
I2120
sS'dobj=region'
p396
I789
sS'nsubj=Korea'
p397
I1040
sS'w-2=should'
p398
I3707
sS'w-2=lunar'
p399
I3527
sS'w-2=Thailand'
p400
I3180
sS'dobj=rebate'
p401
I782
sS'w+2=,'
p402
I2027
sS'w+2=rich'
p403
I2528
sS'w-2=Giuliani'
p404
I3106
sS'w+2=poor'
p405
I2482
sS'w+1=significant'
p406
I1916
sS'w-2=camp'
p407
I3277
sS'nsubj=encouragement'
p408
I1162
sS'w+1=near'
p409
I1826
sS'w-2=refusal'
p410
I3653
sS'w+1=micro-financing'
p411
I1812
sS'w+2=arm'
p412
I2122
sS'w-2=from'
p413
I3426
sS'nsubj=echo'
p414
I1157
sS'w+2=shot'
p415
I2547
sS'w-2=trafficking'
p416
I3782
sS'w-2=up'
p417
I3795
sS'w+2=blueprint'
p418
I2146
sS'w-1=strategy'
p419
I2989
sS'dobj=few'
p420
I578
sS'conj=recognize'
p421
I297
sS'w-1=Colombia'
p422
I2701
sS'nsubj=India'
p423
I1031
sS'prep=such'
p424
I1459
sS'w-1=case'
p425
I2800
sS'w+2=Israel'
p426
I2070
sS'w+2=lifeline'
p427
I2373
sS'conj=part'
p428
I285
sS'w+2=shine'
p429
I2546
sS'dobj=vehicle'
p430
I904
sS'nsubj=tree'
p431
I1345
sS'dobj=tour'
p432
I884
sS'ccomp=step'
p433
I214
sS'w-1=facility'
p434
I2844
sS'w+2=protection'
p435
I2499
sS'dobj=contrast'
p436
I517
sS'dobj=access'
p437
I427
sS'w+1=mutual'
p438
I1824
sS'w-2=decline'
p439
I3339
sS'w-1=Caritas'
p440
I2696
sS'dobj=Bharti'
p441
I392
sS'dobj=stability'
p442
I848
sS'w+1=grim'
p443
I1706
sS'w+2=linkage'
p444
I2377
sS'dobj=Voice'
p445
I422
sS'conj=feel'
p446
I259
sS'nsubj=gang'
p447
I1188
sS'w-2=non-profit'
p448
I3574
sS'nsubj=year'
p449
I1369
sS'w+2=immunity'
p450
I2329
sS'nsubj=commission'
p451
I1134
sS'xcomp=prevent'
p452
I3903
sS'w+1=device'
p453
I1633
sS'w+1=vaccination'
p454
I2004
sS'w+1=justification'
p455
I1770
sS'w+1=unlawful'
p456
I1996
sS'xcomp=launch'
p457
I3887
sS'dobj=prisoner'
p458
I766
sS'w-2=repair'
p459
I3661
sS'conj=send'
p460
I303
sS'w+2=marketing'
p461
I2393
sS'nsubj=Navy'
p462
I1048
sS'w+1=ideological'
p463
I1741
sS'w+2=least'
p464
I2369
sS'conj=carry'
p465
I238
sS'w-2=Richard'
p466
I3164
sS'w+2=Congress'
p467
I2062
sS'w+1=unreliable'
p468
I1997
sS'w+1=tour'
p469
I1982
sS'dobj=girl'
p470
I604
sS'nsubj=victory'
p471
I1354
sS'w-2=model'
p472
I3547
sS'w-2=attempt'
p473
I3246
sS'dep=kit'
p474
I355
sS'nsubj=military'
p475
I1233
sS'dep=meet'
p476
I361
sS'advmod=far'
p477
I91
sS'w+1=political'
p478
I1864
sS'w+1=stability'
p479
I1934
sS'w-2=Koreans'
p480
I3129
sS'w+2=promise'
p481
I2496
sS'w-1=Britain'
p482
I2694
sS'w-1=up'
p483
I3017
sS'w+1=moral'
p484
I1819
sS'nsubj=Nigeria'
p485
I1049
sS'advmod=up'
p486
I137
sS'dobj=medicine'
p487
I693
sS'w-2=islamic'
p488
I3494
sS'rel=that'
p489
I1476
sS'w+2=money'
p490
I2410
sS'w+2=north'
p491
I2436
sS'dobj=sorghum'
p492
I840
sS'w-2=instead'
p493
I3483
sS'w+2=bed'
p494
I2138
sS'w+2=necessary'
p495
I2424
sS'conj=dismantle'
p496
I249
sS'w+2=travel'
p497
I2625
sS'w-1=g8'
p498
I2861
sS'nsubjpass=quarter'
p499
I1392
sS'w-2=long'
p500
I3524
sS'dobj=recommendation'
p501
I783
sS'w+2=prisoner'
p502
I2491
sS'w-1=center'
p503
I2801
sS'nsubj=chicken'
p504
I1125
sS'w-2=terrorist'
p505
I3756
sS'w-2=mission'
p506
I3545
sS'w-2=legal'
p507
I3515
sS'w-2=resolve'
p508
I3669
sS'dobj=date'
p509
I529
sS'w-2=Blackwater'
p510
I3071
sS'w-2=would'
p511
I3827
sS'dobj=nutrient'
p512
I727
sS'w-2=comfortable'
p513
I3300
sS'w+1=Ukraine'
p514
I1529
sS'w-1=million'
p515
I2917
sS'w+2=this'
p516
I2605
sS'dobj=degree'
p517
I535
sS'dobj=payment'
p518
I744
sS'nsubj=skill'
p519
I1313
sS'w-2=alert'
p520
I3218
sS'w+2=ability'
p521
I2093
sS'advmod=particularly'
p522
I118
sS'w+1=considerably'
p523
I1613
sS'nsubj=spokesman'
p524
I1318
sS'w+1=false'
p525
I1671
sS'pcomp=by'
p526
I1423
sS'nsubj=court'
p527
I1146
sS'w+2=logistics'
p528
I2384
sS'conj=#NUMBER#'
p529
I229
sS'advcl=correct'
p530
I20
sS'advmod=traditionally'
p531
I133
sS'w+2=24'
p532
I2038
sS'w+1=drinking'
p533
I1639
sS'w+2=wealthier'
p534
I2656
sS'mark=while'
p535
I966
sS'w+1=anti-malarial'
p536
I1558
sS'dep=so'
p537
I373
sS'dobj=daughter'
p538
I531
sS'dobj=item'
p539
I652
sS'w-2=secretary-general'
p540
I3691
sS'nsubj=area'
p541
I1105
sS'w-2=fuel'
p542
I3427
sS'w-2=protection'
p543
I3643
sS'dobj=nothing'
p544
I723
sS'w+2=response'
p545
I2523
sS'w-2=bank'
p546
I3250
sS'w-1=groupshave'
p547
I2867
sS'ccomp=believe'
p548
I172
sS'w+1=habitat'
p549
I1714
sS'dobj=place'
p550
I755
sS'w+2=net'
p551
I2428
sS'dobj=photo'
p552
I752
sS'nsubj=factory'
p553
I1169
sS'w-2=area'
p554
I3234
sS'w+2=adequate'
p555
I2100
sS'w+1=she'
p556
I1912
sS'w+2=detail'
p557
I2216
sS'w+1=cell'
p558
I1595
sS'w+1=sufficient'
p559
I1944
sS'w-1=prize'
p560
I2954
sS'cc=or'
p561
I159
sS'dobj=detainee'
p562
I538
sS'dobj=experience'
p563
I569
sS'w+2=means'
p564
I2397
sS'nsubj=community'
p565
I1137
sS'xcomp=give'
p566
I3874
sS'dobj=testimony'
p567
I872
sS'w-2=troops'
p568
I3788
sS'w+1=force'
p569
I1689
sS'w-2=exchange'
p570
I3392
sS'w-2=fear'
p571
I3404
sS'w+1=low-tech'
p572
I1798
sS'w-2=journalist'
p573
I3501
sS'advmod=therefore'
p574
I130
sS'w-1=toward'
p575
I3010
sS'nsubj=peacekeeper'
p576
I1261
sS'dobj=attendant'
p577
I460
sS'dobj=psychologist'
p578
I776
sS'ccomp=coordinate'
p579
I182
sS'conj=fail'
p580
I257
sS'w-2=in'
p581
I3472
sS'w+2=supervised'
p582
I2583
sS'w-2=theory'
p583
I3762
sS'w+2=opportunity'
p584
I2451
sS'dobj=basis'
p585
I470
sS'w+2=3.4'
p586
I2040
sS'w-2=it'
p587
I3497
sS'dobj=fodder'
p588
I589
sS'w+1=pick-up'
p589
I1859
sS'w+1=market'
p590
I1802
sS'conj=fair'
p591
I258
sS'w+2=1.2'
p592
I2029
sS'dobj=humanity'
p593
I626
sS'dobj=freedom'
p594
I595
sS'w+1=far'
p595
I1673
sS'nsubj=code'
p596
I1131
sS'advcl=attend'
p597
I10
sS'w+2=nearly'
p598
I2423
sS'w+1=it'
p599
I1765
sS'iobj=perspective'
p600
I943
sS'w+2=fissile'
p601
I2277
sS'w+2=academic'
p602
I2095
sS'w+1=promised'
p603
I1871
sS'dobj=uniform'
p604
I899
sS'w+2=firm'
p605
I2275
sS'w-2=tarpaulin'
p606
I3747
sS'ccomp=win'
p607
I224
sS'ccomp=allow'
p608
I169
sS'nsubj=commissioner'
p609
I1135
sS'w+2=nutrient'
p610
I2441
sS'w+2=framework'
p611
I2286
sS'w+2=unspecified'
p612
I2638
sS'w-2=moroccan'
p613
I3554
sS'nsubj=trafficking'
p614
I1343
sS'ccomp=convincing'
p615
I181
sS'advmod=also'
p616
I76
sS'w-2=Vedder'
p617
I3188
sS'w-2=disease'
p618
I3357
sS'dobj=condom'
p619
I509
sS'nsubj=designation'
p620
I1150
sS'w-2=crossing'
p621
I3332
sS'w-1=Gomez'
p622
I2717
sS'dobj=political'
p623
I762
sS'w+2=kit'
p624
I2357
sS'dobj=Iran'
p625
I401
sS'nsubj=region'
p626
I1288
sS'nsubjpass=funding'
p627
I1379
sS'nsubj=time'
p628
I1340
sS'nsubj=prosecution'
p629
I1282
sS'dobj=guarantee'
p630
I611
sS'w-1=protection'
p631
I2956
sS'dobj=income'
p632
I635
sS'w+2=clear'
p633
I2175
sS'w+1=none'
p634
I1838
sS'w-2=bazaar'
p635
I3253
sS'w-2=have'
p636
I3448
sS'acomp=produce'
p637
I2
sS'dobj=analysis'
p638
I446
sS'w+1=light'
p639
I1788
sS'w+1=locally'
p640
I1792
sS'w+1=treatment'
p641
I1988
sS'w+2=hint'
p642
I2318
sS'nsubj=hearing'
p643
I1195
sS'nsubj=radio'
p644
I1283
sS'nsubj=border'
p645
I1118
sS'w-1=meeting'
p646
I2910
sS'w+1=healthcare'
p647
I1722
sS'advcl=defy'
p648
I21
sS'nsubj=law'
p649
I1216
sS'w-1=they'
p650
I3004
sS'w-1=law'
p651
I2897
sS'w+1=insight'
p652
I1755
sS'dobj=meal'
p653
I689
sS'w+1=air'
p654
I1548
sS'w-2=library'
p655
I3518
sS'w+1=humanitarian'
p656
I1734
sS'w+2=Investigative'
p657
I2067
sS'w+1=actually'
p658
I1539
sS'w+1=objective'
p659
I1842
sS'w+1=aid'
p660
I1547
sS'dobj=assessment'
p661
I455
sS'dobj=that'
p662
I873
sS'w+1=on'
p663
I1844
sS'nsubj=#PRP#'
p664
I970
sS'w+2=answer'
p665
I2117
sS'w+1=about'
p666
I1534
sS'w+2=little'
p667
I2379
sS'dobj=convoy'
p668
I519
sS'ccomp=submit'
p669
I215
sS'w-2=assign'
p670
I3242
sS'advcl=update'
p671
I61
sS'w+1=material'
p672
I1804
sS'advmod=ahead'
p673
I71
sS'w+2=critical'
p674
I2204
sS'w+2=permanent'
p675
I2469
sS'dobj=#NUMBER#'
p676
I386
sS'nsubj=policy'
p677
I1271
sS'w+1=development'
p678
I1632
sS'w+1=school'
p679
I1905
sS'w-2=third'
p680
I3769
sS'nsubj=opportunity'
p681
I1252
sS'w-2=Carolina'
p682
I3076
sS'w-1=court'
p683
I2818
sS'dobj=Turkey'
p684
I418
sS'w-1=breast-feeding'
p685
I2792
sS'w+2=way'
p686
I2654
sS'w+1=memory'
p687
I1810
sS'dep=haven'
p688
I350
sS'conj=provide'
p689
I290
sS'w-2=forum'
p690
I3421
sS'w-2=violence'
p691
I3801
sS'w+2=social'
p692
I2557
sS'w-2=another'
p693
I3228
sS'advcl=do'
p694
I24
sS'dobj=capability'
p695
I486
sS'w-2=down'
p696
I3364
sS'w+2=exam'
p697
I2252
sS'w-1=material'
p698
I2907
sS'w-2=therefore'
p699
I3764
sS'w+1=integrated'
p700
I1759
sS'xcomp=happen'
p701
I3876
sS'nsubjpass=voting'
p702
I1398
sS'w+2=defendant'
p703
I2212
sS'w+1=solar'
p704
I1923
sS'w-2=Africa'
p705
I3060
sS'w-2=foreign'
p706
I3420
sS'xcomp=incentivize'
p707
I3883
sS'xcomp=buy'
p708
I3848
sS'w-2=shortage'
p709
I3705
sS'advmod=illegally'
p710
I100
sS'nsubjpass=alternative'
p711
I1372
sS'w-1=economy'
p712
I2835
sS'w-2=evolution'
p713
I3390
sS'w+1=resource'
p714
I1893
sS'dep=transport'
p715
I379
sS'w+2=oversight'
p716
I2458
sS'dobj=import'
p717
I631
sS'w-2=Ghana'
p718
I3104
sS'w+1=greater'
p719
I1704
sS'w-1=municipality'
p720
I2922
sS'xcomp=look'
p721
I3890
sS'w+1=care'
p722
I1592
sS'w+2=Somali'
p723
I2081
sS'w-1=do'
p724
I2829
sS'conj=allow'
p725
I231
sS'dobj=divorce'
p726
I545
sS'w+2=breeding'
p727
I2150
sS'w+1=strong'
p728
I1938
sS'w+2=justice'
p729
I2353
sS'w+2=extra'
p730
I2259
sS'w-1=image'
p731
I2876
sS'w+1=anti-retroviral'
p732
I1559
sS'w-2=school'
p733
I3686
sS'w-1=generosity'
p734
I2864
sS'dobj=exam'
p735
I566
sS'nsubj=NATO'
p736
I1046
sS'w+1=special'
p737
I1930
sS'dobj=conflict'
p738
I510
sS'w+1=water'
p739
I2012
sS'w-2=more'
p740
I3552
sS'dobj=Chavez'
p741
I393
sS'csubj=harness'
p742
I323
sS'xcomp=hire'
p743
I3881
sS'w-2=integrity'
p744
I3485
sS'dobj=future'
p745
I600
sS'w+2=North'
p746
I2074
sS'w+2=independence'
p747
I2335
sS'w+1=money'
p748
I1817
sS'nsubj=most'
p749
I1240
sS'w+1=tb'
p750
I1954
sS'dobj=States'
p751
I414
sS'w-2=market'
p752
I3530
sS'w+2=side'
p753
I2548
sS'w+1=immunity'
p754
I1743
sS'dep=be'
p755
I331
sS'w-2=teacher'
p756
I3750
sS'w+2=each'
p757
I2228
sS'w+1=detail'
p758
I1630
sS'xcomp=run'
p759
I3912
sS'w+2=vaccine'
p760
I2642
sS'dobj=backdrop'
p761
I464
sS'w+2=Quds'
p762
I2079
sS'w+2=medicine'
p763
I2400
sS'w+2=agency'
p764
I2107
sS'w+1=breathing'
p765
I1585
sS'w-1=Taylor'
p766
I2740
sS'w-2=to'
p767
I3775
sS'w-2=diet'
p768
I3352
sS'conj=maintain'
p769
I275
sS'w-2=field'
p770
I3407
sS'w-2=easy'
p771
I3367
sS'w+1=10'
p772
I1490
sS'dobj=aircraft'
p773
I438
sS'w+1=16'
p774
I1493
sS'w+2=price'
p775
I2487
sS'w-2=one'
p776
I3590
sS'dobj=immunity'
p777
I630
sS'w-2=phone'
p778
I3615
sS'w+1=datum'
p779
I1627
sS'w-2=worker'
p780
I3824
sS'w-2=any'
p781
I3229
sS'pcomp=agree'
p782
I1422
sS'w-2=he'
p783
I3449
sS'w+1=12'
p784
I1492
sS'xcomp=lead'
p785
I3888
sS'prep=since'
p786
I1457
sS'w+2=atmosphere'
p787
I2130
sS'nsubj=Baghdad'
p788
I981
sS'dobj=ration'
p789
I779
sS'nsubj=case'
p790
I1121
sS'ccomp=alive'
p791
I168
sS'w-2=only'
p792
I3591
sS'xcomp=fight'
p793
I3868
sS'w+2=food'
p794
I2282
sS'xcomp=reaffirm'
p795
I3908
sS'w-2=opposition'
p796
I3596
sS'w-1=hospital'
p797
I2873
sS'w-1=and'
p798
I2772
sS'w+2=real'
p799
I2506
sS'w+1=simple'
p800
I1917
sS'w+1=what'
p801
I2018
sS'nsubj=First'
p802
I1015
sS'w+2=accountability'
p803
I2097
sS'nsubj=Americas'
p804
I979
sS'nsubj=hospital'
p805
I1198
sS'dobj=consumer'
p806
I513
sS'w-2=somewhat'
p807
I3718
sS'w+2=firepower'
p808
I2274
sS'iobj=only'
p809
I942
sS'w+2=fair'
p810
I2263
sS'dobj=prosthetic'
p811
I773
sS'w+2=haven'
p812
I2310
sS'nsubj=solution'
p813
I1315
sS'w+2=cooperation'
p814
I2195
sS'advmod=urgently'
p815
I138
sS'w-2=boom'
p816
I3266
sS'w-1=tool'
p817
I3009
sS'w-2=amendment'
p818
I3224
sS'w-2=Force'
p819
I3097
sS'w-1=gang'
p820
I2862
sS'w-2=moon'
p821
I3551
sS'w-2=March'
p822
I3132
sS'w-1=security'
p823
I2974
sS'w-2=other'
p824
I3601
sS'nsubj=Hadley'
p825
I1027
sS'w-2=film'
p826
I3409
sS'aux=should'
p827
I152
sS'w+1=live'
p828
I1790
sS'w-2=council'
p829
I3326
sS'dobj=hydropower'
p830
I627
sS'w-1=then'
p831
I3001
sS'w-2=recent'
p832
I3651
sS'w-1=agreement'
p833
I2765
sS'iobj=lawmaker'
p834
I938
sS'xcomp=exchange'
p835
I3867
sS'xcomp=help'
p836
I3880
sS'nsubj=finding'
p837
I1176
sS'dobj=forum'
p838
I592
sS'dobj=crew'
p839
I527
sS'dobj=trail'
p840
I885
sS'w+2=Taylor'
p841
I2083
sS'w+1=tax'
p842
I1952
sS'dobj=stage'
p843
I849
sS'dobj=employment'
p844
I556
sS'w+1=each'
p845
I1641
sS'w+1=poor'
p846
I1865
sS'w+2=unmonitored'
p847
I2636
sS'w+1=meal'
p848
I1805
sS'dobj=surveillance'
p849
I862
sS'w-2=festival'
p850
I3405
sS'w-2=stability'
p851
I3721
sS'w+1=up-to-date'
p852
I1999
sS'w-1=period'
p853
I2946
sS'w+1=balanced'
p854
I1573
sS'w-1=university'
p855
I3016
sS'dobj=subsidy'
p856
I855
sS'w-1=surgeon'
p857
I2992
sS'nsubj=UNRWA'
p858
I1078
sS'w-2=issue'
p859
I3496
sS'prep=after'
p860
I1432
sS'w+2=trial'
p861
I2627
sS'dep=more'
p862
I362
sS'w+2=maritime'
p863
I2391
sS'w-1=film'
p864
I2848
sS'w+1=lawyer'
p865
I1778
sS'w-1=Stalin'
p866
I2738
sS'w-2=ally'
p867
I3219
sS'w-2=thing'
p868
I3767
sS'dobj=transparency'
p869
I890
sS'w-2=unit'
p870
I3793
sS'w-2=for'
p871
I3418
sS'dobj=signal'
p872
I831
sS'xcomp=evacuate'
p873
I3866
sS'dep=reject'
p874
I368
sS'dep=believe'
p875
I333
sS'dep=send'
p876
I372
sS'w+2=will'
p877
I2664
sS'cc=well'
p878
I160
sS'w-2=although'
p879
I3222
sS'dobj=police'
p880
I761
sS'dobj=kit'
p881
I659
sS'w+1=surgical'
p882
I1949
sS'w+2=urgently'
p883
I2640
sS'w-2=Spain'
p884
I3173
sS'w-1=busy'
p885
I2793
sS'w-2=resolution'
p886
I3668
sS'dobj=kid'
p887
I657
sS'xcomp=counteract'
p888
I3857
sS'nsubj=Road'
p889
I1058
sS'w-2=Guinea-Bissau'
p890
I3109
sS'ccomp=threat-specific'
p891
I216
sS'nsubj=legislation'
p892
I1219
sS'w+2=other'
p893
I2455
sS'dep=suggest'
p894
I375
sS'nsubjpass=housing'
p895
I1381
sS'dep=train'
p896
I378
sS'dobj=map'
p897
I683
sS'nsubj=Fidel'
p898
I1013
sS'w+1=before'
p899
I1578
sS'w-1=incident'
p900
I2880
sS'ccomp=describe'
p901
I183
sS'dobj=al-qaida'
p902
I441
sS'advcl=go'
p903
I35
sS'w-2=America'
p904
I3063
sS'w+2=100'
p905
I2033
sS'dobj=man'
p906
I681
sS'w+1=particularly'
p907
I1853
sS'w-1=show'
p908
I2980
sS'w-1=election'
p909
I2838
sS'w+1=teacher'
p910
I1955
sS'nsubj=nation'
p911
I1242
sS'dobj=escort'
p912
I563
sS'w+1=new'
p913
I1833
sS'dobj=entry'
p914
I560
sS'nsubj=negotiation'
p915
I1245
sS'nsubjpass=information'
p916
I1382
sS'w+1=surveillance'
p917
I1950
sS'w-2=report'
p918
I3662
sS'dobj=indication'
p919
I638
sS'w-2=confession'
p920
I3311
sS'w-2=mortality'
p921
I3555
sS'dobj=party'
p922
I739
sS'w-2=can'
p923
I3279
sS'w-2=step'
p924
I3726
sS'w-1=Cross'
p925
I2705
sS'nsubj=Peter'
p926
I1054
sS'neg=not'
p927
I967
sS'w-1=Basra'
p928
I2692
sS'nsubj=tape'
p929
I1331
sS'dobj=scrutiny'
p930
I818
sS'w+2=campaign'
p931
I2158
sS'w+2=personal'
p932
I2470
sS'dobj=teacher'
p933
I866
sS'w-2=Tripoli'
p934
I3182
sS'w+1=prenatal'
p935
I1868
sS'w+1=Mr.'
p936
I1520
sS'nsubj=internet'
p937
I1205
sS'w+1=Kosovo'
p938
I1515
sS'w+2=leader'
p939
I2368
sS'dobj=child'
p940
I496
sS'w+1=telephone'
p941
I1958
sS'w-2=training'
p942
I3784
sS'w+1=early'
p943
I1642
sS'w+2=living'
p944
I2380
sS'w+1=comfort'
p945
I1606
sS'w+2=explain'
p946
I2256
sS'xcomp=promote'
p947
I3904
sS'w-2=Ryan'
p948
I3168
sS'w+2=business'
p949
I2155
sS'w+2=education'
p950
I2234
sS'dobj=sound'
p951
I842
sS'w+2=unique'
p952
I2635
sS'w+1=power'
p953
I1866
sS'conj=inject'
p954
I271
sS'dep=whether'
p955
I382
sS'nsubj=operative'
p956
I1251
sS'nsubj=Video'
p957
I1082
sS'w-2=Sudan'
p958
I3176
sS'dobj=project'
p959
I771
sS'dobj=right'
p960
I806
sS'w+2=vivid'
p961
I2649
sS'nsubj=reserve'
p962
I1293
sS'dobj=understanding'
p963
I898
sS'w-1=ammunition'
p964
I2771
sS'dobj=knowledge'
p965
I660
sS'w+2=counseling'
p966
I2199
sS'dobj=information'
p967
I639
sS'w-1=colleague'
p968
I2810
sS'parataxis=assert'
p969
I1401
sS'w-2=we'
p970
I3808
sS'w-1=war'
p971
I3024
sS'iobj=time'
p972
I948
sS'nsubjpass=returnee'
p973
I1394
sS'w-1=upheaval'
p974
I3018
sS'w+1=insurgent'
p975
I1758
sS'w-1=item'
p976
I2888
sS'dobj=glimpse'
p977
I605
sS'dobj=sort'
p978
I841
sS'dobj=much'
p979
I712
sS'nsubj=secretary-general'
p980
I1307
sS'w+1=improved'
p981
I1745
sS'w-2=representation'
p982
I3664
sS'w-2=road'
p983
I3676
sS'w+2=between'
p984
I2142
sS'xcomp=know'
p985
I3886
sS'w+2=next'
p986
I2432
sS'w-2=important'
p987
I3470
sS'dobj=incentive'
p988
I633
sS'w+2=very'
p989
I2646
sS'w-1=gathering'
p990
I2863
sS'xcomp=safe-haven'
p991
I3913
sS'nsubj=breast-feeding'
p992
I1119
sS'advcl=build'
p993
I14
sS'prep=if'
p994
I1449
sS'w+2=win-win'
p995
I2666
sS'nsubj=process'
p996
I1279
sS'w-2=Japan'
p997
I3123
sS'w-2=supplies'
p998
I3738
sS'w-2=accustom'
p999
I3201
sS'nsubj=attack'
p1000
I1107
sS'w-2=envoy'
p1001
I3383
sS'w+2=freedom'
p1002
I2288
sS'w-2=Roscoe'
p1003
I3165
sS'w+1=support'
p1004
I1948
sS'prep=within'
p1005
I1469
sS'dobj=Korea'
p1006
I403
sS'dobj=Republicans'
p1007
I411
sS'nsubj=doctor'
p1008
I1154
sS'w+1=that'
p1009
I1965
sS'w-1=Meter'
p1010
I2729
sS'w+2=10'
p1011
I2032
sS'w-1=contractor'
p1012
I2814
sS'w+2=iaea'
p1013
I2324
sS'w-2=associate'
p1014
I3244
sS'dobj=sanitation'
p1015
I813
sS'ccomp=sponsor'
p1016
I213
sS'ccomp=know'
p1017
I202
sS'conj=more'
p1018
I279
sS'w+2=cross-border'
p1019
I2205
sS'dobj=therapy'
p1020
I874
sS'w-1=arcade'
p1021
I2775
sS'w+2=specifics'
p1022
I2566
sS'w+1=result'
p1023
I1894
sS'w+1=around-the-clock'
p1024
I1565
sS'nsubj=hybrid'
p1025
I1199
sS'w+1=consumer'
p1026
I1615
sS'advcl=finance'
p1027
I29
sS'w+2=broadcasting'
p1028
I2153
sS'dobj=food'
p1029
I590
sS'nsubj=reaction'
p1030
I1284
sS'w-1=detainee'
p1031
I2828
sS'w-2=young'
p1032
I3831
sS'dobj=dollar'
p1033
I547
sS'w+1=24'
p1034
I1496
sS'advmod=so'
p1035
I122
sS'nsubj=study'
p1036
I1323
sS'w-2=commander'
p1037
I3301
sS'advmod=just'
p1038
I104
sS'w+1=recently'
p1039
I1882
sS'nsubj=Maryland'
p1040
I1045
sS'w-2=Chiefs'
p1041
I3079
sS'nsubj=Agriculture'
p1042
I975
sS'dobj=effort'
p1043
I552
sS'w+1=ground'
p1044
I1707
sS'aux=may'
p1045
I149
sS'w-2=association'
p1046
I3245
sS'w-2=purpose'
p1047
I3646
sS'w-2=leader'
p1048
I3511
sS'w+2=stage'
p1049
I2568
sS'dobj=supplement'
p1050
I857
sS'w-2=humanitarian'
p1051
I3463
sS'w+2=insurance'
p1052
I2342
sS'advcl=lead'
p1053
I40
sS'w-2=cost'
p1054
I3324
sS'w-2=commission'
p1055
I3303
sS'nsubjpass=aircraft'
p1056
I1371
sS'nsubj=Weaver'
p1057
I1086
sS'xcomp=necessary'
p1058
I3895
sS'nsubjpass=service'
p1059
I1395
sS'advcl=leave'
p1060
I41
sS'nsubj=vaccine'
p1061
I1351
sS'w+1=job'
p1062
I1767
sS'nsubj=leader'
p1063
I1218
sS'advcl=come'
p1064
I16
sS'dobj=Richman'
p1065
I412
sS'w-2=Tehran'
p1066
I3179
sS'nsubj=Cup'
p1067
I1001
sS'w+1=non-combat'
p1068
I1836
sS'w+1=help'
p1069
I1724
sS'w+1=just'
p1070
I1768
sS'w+2=status'
p1071
I2571
sS'nsubj=mission'
p1072
I1237
sS'w+1=enable'
p1073
I1654
sS'w-2=Leoneans'
p1074
I3131
sS'w-2=stunt'
p1075
I3731
sS'w+2=farm'
p1076
I2266
sS'mark=unless'
p1077
I964
sS'dep=determine'
p1078
I343
sS'w+2=nightmarish'
p1079
I2433
sS'w+1=sanctuary'
p1080
I1901
sS'w+2=first'
p1081
I2276
sS'w+2=land'
p1082
I2359
sS'w-2=Foundation'
p1083
I3098
sS'w-1=Australia'
p1084
I2690
sS'w-1=have'
p1085
I2868
sS'w-2=United'
p1086
I3187
sS'w+2=if'
p1087
I2326
sS'dobj=tool'
p1088
I882
sS'w+1=mainly'
p1089
I1800
sS'w-2=unflattering'
p1090
I3792
sS'w+2=employee'
p1091
I2239
sS'w+2=in'
p1092
I2332
sS'w-2=week'
p1093
I3809
sS'dobj=team'
p1094
I867
sS'w-2=hope'
p1095
I3457
sS'dobj=statistics'
p1096
I851
sS'w+1=shia'
p1097
I1914
sS'w+1=India'
p1098
I1510
sS'w-2=may'
p1099
I3531
sS'w+2=grounds'
p1100
I2304
sS'w-1=document'
p1101
I2830
sS'dep=well'
p1102
I381
sS'w+2=loan'
p1103
I2381
sS'prep=about'
p1104
I1429
sS'aux=can'
p1105
I145
sS'dobj=inspection'
p1106
I644
sS'w+1=urgency'
p1107
I2000
sS'dobj=area'
p1108
I452
sS'advmod=at'
p1109
I81
sS'w-2=image'
p1110
I3468
sS'nsubj=night'
p1111
I1247
sS'dobj=account'
p1112
I428
sS'dobj=treatment'
p1113
I891
sS'advmod=as'
p1114
I80
sS'w+2=force'
p1115
I2284
sS'iobj=citizen'
p1116
I931
sS'w-1=government'
p1117
I2865
sS'w+2=primary'
p1118
I2488
sS'w+1=government'
p1119
I1702
sS'nsubj=contractor'
p1120
I1141
sS'nsubj=decisionwill'
p1121
I1148
sS'w+2=thousand'
p1122
I2609
sS'w-1=tally'
p1123
I2995
sS'w+1=racial'
p1124
I1877
sS'w+2=review'
p1125
I2526
sS'dobj=technological'
p1126
I868
sS'w+2=nutrition'
p1127
I2442
sS'nsubj=organization'
p1128
I1254
sS'advmod=only'
p1129
I116
sS'w+2=fuller'
p1130
I2293
sS'w+2=combat'
p1131
I2179
sS'w+1=detailed'
p1132
I1631
sS'dobj=set-aside'
p1133
I823
sS'w-2=capacity'
p1134
I3281
sS'w-2=overdue'
p1135
I3604
sS'nsubj=request'
p1136
I1291
sS'w-1=agent'
p1137
I2764
sS'w+2=government'
p1138
I2303
sS'w+1=income'
p1139
I1750
sS'dobj=living'
p1140
I677
sS'w+1=for'
p1141
I1688
sS'w+2=boost'
p1142
I2148
sS'w+2=agree'
p1143
I2108
sS'w+2=point'
p1144
I2479
sS'w-2=Bank'
p1145
I3069
sS'dobj=military'
p1146
I700
sS'nsubj=micro-credit'
p1147
I1232
sS'w-1=improve'
p1148
I2878
sS'w-1=deny'
p1149
I2826
sS'w-2=Green'
p1150
I3108
sS'w-2=million'
p1151
I3539
sS'dobj=India'
p1152
I399
sS'prep=to'
p1153
I1463
sS'dobj=program'
p1154
I770
sS'w+1=retroactive'
p1155
I1895
sS'dobj=amount'
p1156
I445
sS'w+2=480,000'
p1157
I2044
sS'w+1=option'
p1158
I1848
sS'iobj=emergency'
p1159
I934
sS'w-2=meeting'
p1160
I3535
sS'nsubj=Ethiopia'
p1161
I1010
sS'ccomp=admit'
p1162
I165
sS'conj=normalize'
p1163
I282
sS'w-2=lawmaker'
p1164
I3508
sS'conj=make'
p1165
I276
sS'w-1=still'
p1166
I2988
sS'w+1=federal'
p1167
I1675
sS'dobj=plan'
p1168
I756
sS'w+2=increase'
p1169
I2334
sS'dobj=ton'
p1170
I881
sS'w-2=project'
p1171
I3639
sS'advmod=strictly'
p1172
I125
sS'nsubj=lawmaker'
p1173
I1217
sS'w-1=clinic'
p1174
I2807
sS'w+2=forum'
p1175
I2285
sS'w+2=for'
p1176
I2283
sS'advmod=unintentionally'
p1177
I136
sS'dobj=Indonesia'
p1178
I400
sS'dobj=need'
p1179
I717
sS'w-2=science'
p1180
I3687
sS'dobj=hardware'
p1181
I617
sS'dobj=function'
p1182
I597
sS'csubj=electrify'
p1183
I322
sS'dobj=guidance'
p1184
I612
sS'w-2=unable'
p1185
I3791
sS'dobj=oversight'
p1186
I735
sS'nsubj=job'
p1187
I1209
sS'dobj=which'
p1188
I920
sS'w-1=--'
p1189
I2680
sS'w-2=Food'
p1190
I3096
sS'w+2=we'
p1191
I2655
sS'w-2=indian'
p1192
I3476
sS'dobj=all'
p1193
I442
sS'w-2=Fund'
p1194
I3100
sS'dobj=election'
p1195
I553
sS'nsubj=day'
p1196
I1147
sS'w-2=ied'
p1197
I3466
sS'advmod=overseas'
p1198
I117
sS'w+2=important'
p1199
I2330
sS'w-2=confirm'
p1200
I3312
sS'dobj=weapon'
p1201
I916
sS'w+1=fertile'
p1202
I1676
sS'nsubj=display'
p1203
I1153
sS'nsubj=Police'
p1204
I1056
sS'conj=waver'
p1205
I318
sS'w-1=organization'
p1206
I2941
sS'dobj=truck'
p1207
I894
sS'nsubj=initiative'
p1208
I1204
sS'w-1=session'
p1209
I2976
sS'w+2=termination'
p1210
I2597
sS'nsubj=Koreans'
p1211
I1041
sS'w-2=travel'
p1212
I3786
sS'iobj=#PRP#'
p1213
I927
sS'w-2=armored'
p1214
I3235
sS'nsubj=Britain'
p1215
I985
sS'w-2=operation'
p1216
I3593
sS'nsubj=urgency'
p1217
I1350
sS'w+2=procedure'
p1218
I2492
sS'w+1=AIDS'
p1219
I1501
sS'dobj=response'
p1220
I799
sS'w-2=court'
p1221
I3329
sS'dobj=link'
p1222
I673
sS'w+1=testing'
p1223
I1964
sS'dobj=Ulaanbaatar'
p1224
I420
sS'w-2=civilian'
p1225
I3291
sS'w+2=easy'
p1226
I2231
sS'dobj=port'
p1227
I763
sS'w-2=Metro'
p1228
I3136
sS'w+1=very'
p1229
I2006
sS'w-2=business'
p1230
I3272
sS'dobj=nutrition'
p1231
I728
sS'ccomp=lead'
p1232
I203
sS'dobj=people'
p1233
I746
sS'w+2=through'
p1234
I2612
sS'nsubj=theory'
p1235
I1337
sS'w-2=sunlight'
p1236
I3735
sS'w+2=figure'
p1237
I2269
sS'conj=assist'
p1238
I234
sS'dobj=support'
p1239
I860
sS'nsubj=SouthWings'
p1240
I1063
sS'ccomp=put'
p1241
I206
sS'w-2=progress'
p1242
I3638
sS'dobj=funding'
p1243
I599
sS'advmod=meanwhile'
p1244
I110
sS'dobj=activity'
p1245
I432
sS'w-2=involve'
p1246
I3491
sS'w-1=plan'
p1247
I2949
sS'conj=spread'
p1248
I306
sS'iobj=defendant'
p1249
I933
sS'w+2=variety'
p1250
I2644
sS'w-2=storm'
p1251
I3727
sS'prep=until'
p1252
I1466
sS'w-2=declassify'
p1253
I3338
sS'w+2=law-based'
p1254
I2366
sS'dobj=distributor'
p1255
I544
sS'nsubj=vessel'
p1256
I1352
sS'w+2=surgery'
p1257
I2587
sS'w+2=eye'
p1258
I2261
sS'w-2=1952'
p1259
I3049
sS'w-2=term'
p1260
I3755
sS'w-2=pride'
p1261
I3634
sS'dobj=lawyer'
p1262
I665
sS'nsubj=pledge'
p1263
I1269
sS'w+2=truth'
p1264
I2631
sS'w-2=indirectly'
p1265
I3477
sS'dobj=means'
p1266
I690
sS'dobj=presence'
p1267
I765
sS'w+2=here'
p1268
I2314
sS'w+1=pilgrim'
p1269
I1860
sS'conj=read'
p1270
I294
sS'w+1=additional'
p1271
I1540
sS'w-2=serious'
p1272
I3699
sS'w-2=arrive'
p1273
I3237
sS'w-2=asset'
p1274
I3241
sS'w-2=fan'
p1275
I3402
sS'nsubj=that'
p1276
I1335
sS'nsubj=soldier'
p1277
I1314
sS'w+2=month'
p1278
I2412
sS'dobj=marketing'
p1279
I686
sS'w+1=supplement'
p1280
I1945
sS'w-2=responsibility'
p1281
I3671
sS'w+2=access'
p1282
I2096
sS'w-2=actually'
p1283
I3203
sS'prep=over'
p1284
I1456
sS'dobj=protection'
p1285
I774
sS'w-1=always'
p1286
I2770
sS'nsubj=Russia'
p1287
I1059
sS'advmod=immediately'
p1288
I101
sS'dobj=cooperation'
p1289
I520
sS'dep=likely'
p1290
I358
sS'w+1=young'
p1291
I2023
sS'w+1=passenger'
p1292
I1854
sS'w+1=tutoring'
p1293
I1991
sS'dobj=room'
p1294
I810
sS'dobj=mini-dvd'
p1295
I701
sS'dobj=tv'
p1296
I896
sS'w+2=obvious'
p1297
I2444
sS'nsubjpass=that'
p1298
I1396
sS'w+2=measure'
p1299
I2398
sS'w-2=passion'
p1300
I3609
sS'w+2=rebate'
p1301
I2510
sS'dobj=plenty'
p1302
I759
sS'dobj=Department'
p1303
I396
sS'xcomp=have'
p1304
I3877
sS'w+2=escort'
p1305
I2248
sS'w+2=tool'
p1306
I2619
sS'nsubjpass=place'
p1307
I1390
sS'dobj=backup'
p1308
I466
sS'w-1=water'
p1309
I3025
sS'nsubj=clinic'
p1310
I1129
sS'nsubj=image'
p1311
I1200
sS'w+2=fresh'
p1312
I2289
sS'w-2=able'
p1313
I3198
sS'ccomp=be'
p1314
I171
sS'xcomp=take'
p1315
I3925
sS'dobj=boat'
p1316
I474
sS'nsubj=brigade'
p1317
I1120
sS'w-1=with'
p1318
I3033
sS'w+1=explosive'
p1319
I1668
sS'w+1=headquarters'
p1320
I1720
sS'w-1=bomb'
p1321
I2791
sS'w+2=own'
p1322
I2459
sS'w+2=tax'
p1323
I2591
sS'w+2=weaponry'
p1324
I2657
sS'nsubj=draft'
p1325
I1156
sS'conj=educate'
p1326
I252
sS'dobj=surgery'
p1327
I861
sS'w+1=authority'
p1328
I1569
sS'w+2=950'
p1329
I2053
sS'w-2=game'
p1330
I3430
sS'dobj=patient'
p1331
I743
sS'conj=implement'
p1332
I268
sS'xcomp=present'
p1333
I3901
sS'nsubj=Organization'
p1334
I1053
sS'nsubj=technology'
p1335
I1334
sS'dobj=Ivorians'
p1336
I402
sS'advmod=along'
p1337
I74
sS'conj=facilitate'
p1338
I256
sS'advmod=alone'
p1339
I73
sS'advcl=get'
p1340
I33
sS'w-1=reportedly'
p1341
I2964
sS'dobj=total'
p1342
I883
sS'dobj=research'
p1343
I795
sS'nsubj=jatropha'
p1344
I1208
sS'w-2=whether'
p1345
I3813
sS'w+2=far'
p1346
I2265
sS'dobj=figure'
p1347
I581
sS'nsubj=Day'
p1348
I1003
sS'nsubj=Tourism'
p1349
I1073
sS'w-2=northern'
p1350
I3575
sS'w-1=lodgings'
p1351
I2902
sS'w+2=statement'
p1352
I2570
sS'parataxis=say'
p1353
I1408
sS'w+2=initial'
p1354
I2339
sS'w-1=Korea'
p1355
I2725
sS'w+2=throughout'
p1356
I2613
sS'w-2=create'
p1357
I3330
sS'conj=interfere'
p1358
I272
sS'w+1=Ankara'
p1359
I1504
sS'w-1=involve'
p1360
I2886
sS'conj=think'
p1361
I313
sS'w+1=North'
p1362
I1521
sS'w-1=aid'
p1363
I2766
sS'w-1=one'
p1364
I2935
sS'nsubjpass=assistance'
p1365
I1373
sS'w-2=distance'
p1366
I3358
sS'w-2=democratic'
p1367
I3345
sS'conj=tend'
p1368
I311
sS'w-2=leadership'
p1369
I3512
sS'w+2=million'
p1370
I2405
sS'w-1=the'
p1371
I3000
sS'w-2=night'
p1372
I3572
sS'conj=designate'
p1373
I247
sS'w+2=good'
p1374
I2301
sS'w-1=Fewsnet'
p1375
I2712
sS'w-2=devastate'
p1376
I3350
sS'w-2=emission'
p1377
I3375
sS'xcomp=address'
p1378
I3835
sS'w+2=skilled'
p1379
I2553
sS'w-1=Program'
p1380
I2735
sS'w+2=cellular'
p1381
I2167
sS'w-2=malaria'
p1382
I3528
sS'dobj=light'
p1383
I671
sS'nsubj=group'
p1384
I1192
sS'w-1=treaty'
p1385
I3011
sS'nsubj=evolution'
p1386
I1166
sS'nsubj=appeal'
p1387
I1103
sS'nsubjpass=care'
p1388
I1375
sS'w-2=land-locked'
p1389
I3504
sS'nsubj=effort'
p1390
I1160
sS'w+1=generator'
p1391
I1699
sS'mark=till'
p1392
I963
sS'dobj=recreation'
p1393
I785
sS'w+2=proof'
p1394
I2498
sS'xcomp=finance'
p1395
I3869
sS'w-2=company'
p1396
I3308
sS'xcomp=pursue'
p1397
I3906
sS'w+2=secret'
p1398
I2536
sS'w+2=copy'
p1399
I2196
sS'nsubj=agreement'
p1400
I1099
sS'dobj=source'
p1401
I843
sS'nsubj=Office'
p1402
I1052
sS'mark=except'
p1403
I955
sS'dobj=resident'
p1404
I796
sS'w+1=resident'
p1405
I1892
sS'w-2=spray'
p1406
I3720
sS'conj=achieve'
p1407
I230
sS'nsubj=plant'
p1408
I1268
sS'w+2=basic'
p1409
I2134
sS'w+2=emotional'
p1410
I2238
sS'nsubj=firing'
p1411
I1177
sS'w+1=internet'
p1412
I1762
sS'dobj=lot'
p1413
I679
sS'dobj=framework'
p1414
I594
sS'w-2=charge'
p1415
I3286
sS'xcomp=accomplish'
p1416
I3834
sS'w-2=Department'
p1417
I3089
sS'expl=there'
p1418
I926
sS'w+2=basis'
p1419
I2135
sS'w-2=shortcoming'
p1420
I3706
sS'w+2=year'
p1421
I2674
sS'dobj=success'
p1422
I856
sS'nsubj=Fewsnet'
p1423
I1012
sS'nsubj=experience'
p1424
I1168
sS'w-1=billion'
p1425
I2790
sS'w-2=Pacific'
p1426
I3154
sS'w+1=guarantee'
p1427
I1710
sS'dobj=education'
p1428
I551
sS'w-1=Jhuwani'
p1429
I2723
sS'w-2=presidential'
p1430
I3632
sS'w+2=reason'
p1431
I2509
sS'conj=support'
p1432
I309
sS'w+2=perfectly'
p1433
I2468
sS'w+1=to'
p1434
I1977
sS'xcomp=defend'
p1435
I3860
sS'nsubj=seal'
p1436
I1304
sS'w-2=everywhere'
p1437
I3389
sS'advcl=displace'
p1438
I23
sS'prep=against'
p1439
I1433
sS'dobj=investor'
p1440
I651
sS'w+2=he'
p1441
I2311
sS'nsubj=XLII'
p1442
I1089
sS'w+1=shelter'
p1443
I1913
sS'nsubj=event'
p1444
I1165
sS'w-2=struggle'
p1445
I3730
sS'dobj=backing'
p1446
I465
sS'nsubj=means'
p1447
I1226
sS'conj=enable'
p1448
I253
sS'w+1=Georgia'
p1449
I1509
sS'w+1=immediate'
p1450
I1742
sS'w+1=Bangkok'
p1451
I1505
sS'pcomp=free'
p1452
I1425
sS'w-2=commit'
p1453
I3304
sS'xcomp=come'
p1454
I3853
sS'w-2=capable'
p1455
I3280
sS'nsubj=staff'
p1456
I1319
sS'w-1=statute'
p1457
I2987
sS'advmod=first'
p1458
I94
sS'w+2=supplies'
p1459
I2585
sS'w-1=Peter'
p1460
I2733
sS'w+1=easy'
p1461
I1643
sS'w+2=monitoring'
p1462
I2411
sS'dobj=case'
p1463
I490
sS'conj=promote'
p1464
I288
sS'advcl=need'
p1465
I43
sS'xcomp=encourage'
p1466
I3863
sS'nsubj=loan'
p1467
I1222
sS'dobj=cash'
p1468
I491
sS'w+1=contract'
p1469
I1618
sS'ccomp=break'
p1470
I173
sS'ccomp=torture'
p1471
I218
sS'w+1=Ulaanbaatar'
p1472
I1530
sS'w-2=first'
p1473
I3413
sS'w+1=news'
p1474
I1834
sS'w+1=set-aside'
p1475
I1910
sS'dobj=those'
p1476
I876
sS'w+2=ivorian'
p1477
I2351
sS'dobj=integrity'
p1478
I648
sS'dobj=justification'
p1479
I655
sS'nsubj=maker'
p1480
I1224
sS'w-2=example'
p1481
I3391
sS'xcomp=way'
p1482
I3931
sS'w+2=useful'
p1483
I2641
sS'w+2=30-fold'
p1484
I2041
sS'dobj=haircut'
p1485
I615
sS'w-2=shopping'
p1486
I3704
sS'nsubj=generosity'
p1487
I1190
sS'w+2=better'
p1488
I2141
sS'w+2=require'
p1489
I2520
sS'w-2=obligated'
p1490
I3581
sS'w-2=jatropha'
p1491
I3499
sS'w-2=state'
p1492
I3723
sS"w-1='ll"
p1493
I2677
sS'advmod=ultimately'
p1494
I135
sS'w+2=company'
p1495
I2182
sS'w-1=group'
p1496
I2866
sS'dobj=vaccine'
p1497
I901
sS'w-2=AIDS'
p1498
I3056
sS'w-2=skill'
p1499
I3710
sS'w+2=those'
p1500
I2607
sS'w-2=statement'
p1501
I3724
sS'w+2=people'
p1502
I2465
sS'tmod=day'
p1503
I1478
sS'dep=clear'
p1504
I335
sS'w+1=Vietnam'
p1505
I1531
sS'w-2=bombardment'
p1506
I3265
sS'nsubj=personnel'
p1507
I1265
sS'w+2=assurance'
p1508
I2128
sS'w+1=Bharti'
p1509
I1506
sS'w+2=chlorine'
p1510
I2173
sS'w+1=since'
p1511
I1918
sS'w+1=complete'
p1512
I1608
sS'w-2=adult'
p1513
I3206
sS'w-1=Africa'
p1514
I2686
sS'advcl=weapon'
p1515
I65
sS'w-2=Chad'
p1516
I3078
sS'w+2=service'
p1517
I2541
sS'advmod=there'
p1518
I129
sS'w+1=Liberia'
p1519
I1516
sS'w+1=need'
p1520
I1829
sS'dobj=latitude'
p1521
I663
sS'w+2=welfare'
p1522
I2659
sS'dobj=boy'
p1523
I478
sS'w+2=temporary'
p1524
I2595
sS'dobj=home'
p1525
I622
sS'w+1=could'
p1526
I1619
sS'w+2=U.N.'
p1527
I2086
sS'dobj=tent'
p1528
I870
sS'w+2=over'
p1529
I2456
sS'w+2=reach'
p1530
I2505
sS'nsubj=ocean'
p1531
I1248
sS'w+2=resistance'
p1532
I2521
sS'w+2=connectivity'
p1533
I2188
sS'w-1=resource'
p1534
I2965
sS'conj=testament'
p1535
I312
sS'w+2=many'
p1536
I2389
sS'w+2=lasting'
p1537
I2364
sS'csubj=under'
p1538
I325
sS'dobj=car'
p1539
I488
sS'w+1=less'
p1540
I1782
sS'conj=pave'
p1541
I286
sS'nsubj=States'
p1542
I1066
sS'conj=diminish'
p1543
I248
sS'dobj=monitoring'
p1544
I706
sS'w-1=act'
p1545
I2758
sS'dobj=scientist'
p1546
I817
sS'w+2=papers'
p1547
I2460
sS'dobj=motivation'
p1548
I711
sS'w+1=technology'
p1549
I1957
sS'partmod=employ'
p1550
I1411
sS'dobj=change'
p1551
I493
sS'dobj=route'
p1552
I811
sS'w-2=plan'
p1553
I3616
sS'w+2=mosaic'
p1554
I2414
sS'w+1=area'
p1555
I1562
sS'w-2=henze'
p1556
I3452
sS'w+2=backdrop'
p1557
I2133
sS'w-2=transparency'
p1558
I3785
sS'w-2=day'
p1559
I3336
sS'w+2=teacher'
p1560
I2592
sS'ccomp=urge'
p1561
I221
sS'conj=put'
p1562
I292
sS'w+1=oil'
p1563
I1843
sS'w-2=Elaine'
p1564
I3093
sS'dobj=member'
p1565
I695
sS'w+2=cruise'
p1566
I2206
sS'dobj=manpower'
p1567
I682
sS'w+2=down'
p1568
I2224
sS'w-2=consultant'
p1569
I3315
sS'w-2=service'
p1570
I3700
sS'w-2=Cabinet'
p1571
I3075
sS'w+1=adequate'
p1572
I1541
sS'prep=toward'
p1573
I1464
sS'dobj=benefit'
p1574
I471
sS'w+1=public'
p1575
I1876
sS'w-2=already'
p1576
I3220
sS'w-2=inflate'
p1577
I3480
sS'w-2=come'
p1578
I3299
sS'dobj=bulk'
p1579
I483
sS'w+1=rescue'
p1580
I1891
sS'nsubj=EU'
p1581
I1008
sS'dobj=mercenary'
p1582
I697
sS'w-2=part'
p1583
I3606
sS'nsubj=Fil'
p1584
I1014
sS'nsubj=North'
p1585
I1050
sS'nsubj=discovery'
p1586
I1152
sS'conj=continue'
p1587
I244
sS'nsubj=$'
p1588
I971
sS'w-2=opinion'
p1589
I3595
sS'w-1=designation'
p1590
I2827
sS'w-1=toll'
p1591
I3008
sS'w-2=West'
p1592
I3191
sS'w+2=dollar'
p1593
I2222
sS'dobj=density'
p1594
I536
sS'xcomp=prepare'
p1595
I3900
sS'w-1=pact'
p1596
I2944
sS'w-2=Musharraf'
p1597
I3146
sS'w-1=coalition'
p1598
I2809
sS'w-2=conflict'
p1599
I3313
sS'w+2=control'
p1600
I2192
sS'w-2=framework'
p1601
I3424
sS'w+1=experience'
p1602
I1667
sS'xcomp=try'
p1603
I3927
sS'iobj=Mauritania'
p1604
I929
sS'w-2=concern'
p1605
I3310
sS'w-1=ocean'
p1606
I2930
sS'w+1=breed'
p1607
I1586
sS'advcl=possible'
p1608
I47
sS'dobj=focus'
p1609
I588
sS'w+1=hiv'
p1610
I1728
sS'dobj=revenue'
p1611
I802
sS'w+1=100'
p1612
I1491
sS'w-2=mining'
p1613
I3541
sS'w+2=job'
p1614
I2352
sS'w+2=poorest'
p1615
I2483
sS'dep=help'
p1616
I351
sS'advmod=currently'
p1617
I84
sS'w+1=vital'
p1618
I2008
sS'w-2=ask'
p1619
I3239
sS'w+1=student'
p1620
I1940
sS'w+1=chinese-made'
p1621
I1600
sS'w+2=ead'
p1622
I2229
sS'dobj=package'
p1623
I736
sS'w-2=you'
p1624
I3830
sS'nsubj=Commission'
p1625
I997
sS'w-1=apartment'
p1626
I2773
sS'dobj=field'
p1627
I579
sS'w+2=constant'
p1628
I2189
sS'w+1=broad'
p1629
I1587
sS'nsubj=official'
p1630
I1249
sS'dobj=step'
p1631
I852
sS'advcl=active'
p1632
I5
sS'w-2=York'
p1633
I3194
sS'w+2=improved'
p1634
I2331
sS'w+1=fodder'
p1635
I1685
sS'dobj=ring'
p1636
I808
sS'advcl=see'
p1637
I52
sS'w+1=training'
p1638
I1984
sS'advmod=early'
p1639
I88
sS'dep=develop'
p1640
I344
sS'nsubj=festival'
p1641
I1172
sS'dobj=history'
p1642
I621
sS'w-2=Cross'
p1643
I3083
sS'advcl=promise'
p1644
I48
sS'w-1=mall'
p1645
I2905
sS'cc=but'
p1646
I158
sS'nsubj=victim'
p1647
I1353
sS'advcl=expect'
p1648
I26
sS'w+2=supplement'
p1649
I2584
sS'w-2=skin'
p1650
I3711
sS'w-2=away'
p1651
I3248
sS'w+2=convincing'
p1652
I2193
sS'w+1=further'
p1653
I1698
sS'w-1=who'
p1654
I3031
sS'xcomp=make'
p1655
I3892
sS'w-1=help'
p1656
I2870
sS'nsubj=storm'
p1657
I1321
sS'conj=neighbor'
p1658
I281
sS'w-2=together'
p1659
I3777
sS'advcl=play'
p1660
I46
sS'w+2=motivation'
p1661
I2417
sS'w-2=advantage'
p1662
I3207
sS'w-1=bill'
p1663
I2789
sS'w-2=american'
p1664
I3225
sS'dep=guarantee'
p1665
I347
sS'w+2=warning'
p1666
I2652
sS'xcomp=clean'
p1667
I3851
sS'w-2=Harun'
p1668
I3111
sS'dobj=music'
p1669
I713
sS'w+1=account'
p1670
I1537
sS'w-2=morning'
p1671
I3553
sS'w-2=ngo'
p1672
I3571
sS'w+1=net'
p1673
I1832
sS'w+1=today'
p1674
I1978
sS'dobj=reporting'
p1675
I793
sS'w+2=energy'
p1676
I2244
sS'w+2=she'
p1677
I2543
sS'w-1=better'
p1678
I2788
sS'partmod=adopt'
p1679
I1410
sS'w-1=momentum'
p1680
I2919
sS'dobj=copy'
p1681
I522
sS'w+2=logistical'
p1682
I2383
sS'nsubj=trade'
p1683
I1342
sS'w-1=year'
p1684
I3037
sS'nsubj=Uribe'
p1685
I1080
sS'advmod=mainly'
p1686
I108
sS'nsubj=Lafayette'
p1687
I1042
sS'w-2=teaching'
p1688
I3751
sS'w+2=focus'
p1689
I2281
sS'w-1=itself'
p1690
I2889
sS'nsubj=pro'
p1691
I1277
sS'nsubj=man'
p1692
I1225
sS'iobj=flexibility'
p1693
I935
sS'w+2=much-needed'
p1694
I2419
sS'ccomp=hamper'
p1695
I195
sS'w-2=Mauritania'
p1696
I3135
sS'nsubj=which'
p1697
I1363
sS'w-1=for'
p1698
I2855
sS'conj=take'
p1699
I310
sS'iobj=something'
p1700
I945
sS'w-2=Program'
p1701
I3158
sS'w-2=Veolia'
p1702
I3189
sS'dobj=leverage'
p1703
I669
sS'w+2=key'
p1704
I2355
sS'w-2=corruption'
p1705
I3323
sS'advmod=apparently'
p1706
I79
sS'nsubj=Force'
p1707
I1016
sS'advmod=recently'
p1708
I120
sS'xcomp=raise'
p1709
I3907
sS'w+1=bomb-making'
p1710
I1582
sS'nsubj=Waddoups'
p1711
I1083
sS'xcomp=regroup'
p1712
I3911
sS'dobj=method'
p1713
I699
sS'w+1=service'
p1714
I1909
sS'w-2=UNHCR'
p1715
I3185
sS'conj=constitutional'
p1716
I243
sS'w+1=small'
p1717
I1920
sS'w-2=hold'
p1718
I3455
sS'w+2=girl'
p1719
I2300
sS'w-2=importantly'
p1720
I3471
sS'w-2=Hamas'
p1721
I3110
sS'nsubj=Georgia'
p1722
I1024
sS'dobj=disagreement'
p1723
I542
sS'w-2=default'
p1724
I3340
sS'nsubj=income'
p1725
I1202
sS'w+2=aircraft'
p1726
I2111
sS'w-1=first'
p1727
I2851
sS'w-1=service'
p1728
I2975
sS'parataxis=insist'
p1729
I1405
sS'w+1=habeas'
p1730
I1713
sS'w-2=between'
p1731
I3260
sS'nsubj=Forces'
p1732
I1017
sS'w-1=lane'
p1733
I2895
sS'w-1=continue'
p1734
I2813
sS'w+2=housing'
p1735
I2320
sS'w-2=could'
p1736
I3325
sS'w+1=life-saving'
p1737
I1786
sS'nsubj=system'
p1738
I1328
sS'w-2=preparation'
p1739
I3630
sS'w+2=high-powered'
p1740
I2316
sS'dobj=shelter'
p1741
I827
sS'w+2=sympathy'
p1742
I2589
sS'w-1=laser'
p1743
I2896
sS'dobj=reassurance'
p1744
I781
sS'w+1=up'
p1745
I1998
sS'w-1=talk'
p1746
I2994
sS'w-1=start'
p1747
I2984
sS'w-2=until'
p1748
I3794
sS'xcomp=realize'
p1749
I3909
sS'nsubj=in'
p1750
I1201
sS'w+2=America'
p1751
I2059
sS'w+2=ton'
p1752
I2618
sS'w+1=planner'
p1753
I1861
sS'conj=drive'
p1754
I251
sS'ccomp=responsibility'
p1755
I208
sS'nsubj=Tolimir'
p1756
I1072
sS'dobj=America'
p1757
I389
sS'w-1=history'
p1758
I2871
sS'w-2=event'
p1759
I3388
sS'w+2=safer'
p1760
I2531
sS'conj=apply'
p1761
I233
sS'dobj=level'
p1762
I668
sS'w+1=more'
p1763
I1820
sS'w-2=World'
p1764
I3192
sS'w-2=purebred'
p1765
I3645
sS'w-2=consumption'
p1766
I3316
sS'w+1=with'
p1767
I2019
sS'w-2=goal'
p1768
I3437
sS'dobj=administrator'
p1769
I433
sS'xcomp=go'
p1770
I3875
sS'dep=demonstrator'
p1771
I340
sS'partmod=power'
p1772
I1417
sS'w-1=agency'
p1773
I2763
sS'w-2=,'
p1774
I3043
sS'w-2=-'
p1775
I3044
sS'w-2=.'
p1776
I3047
sS'w+1=key'
p1777
I1771
sS'w+2=Iraq'
p1778
I2069
sS'dobj=number'
p1779
I726
sS'aux=have'
p1780
I148
sS'w-2=think'
p1781
I3768
sS'w+2=Iran'
p1782
I2068
sS'w-2=;'
p1783
I3055
sS'w+1=continuity'
p1784
I1617
sS'w+2=talent'
p1785
I2590
sS'nsubj=Teachers'
p1786
I1069
sS'w+2=advice'
p1787
I2102
sS'w-2=I'
p1788
I3114
sS'dobj=memory'
p1789
I696
sS'w+1=military'
p1790
I1814
sS'w-2=lesion'
p1791
I3517
sS'w-2=cooperative'
p1792
I3321
sS'w+2=datum'
p1793
I2209
sS'w+1=equipment'
p1794
I1660
sS'w-2=press'
p1795
I3633
sS'w-2=Republic'
p1796
I3163
sS'nsubj=Kennedy'
p1797
I1038
sS'w-1=Uribe'
p1798
I2748
sS'conj=help'
p1799
I265
sS'nsubj=Iranians'
p1800
I1033
sS'nsubj=video'
p1801
I1355
sS'w+1=secure'
p1802
I1907
sS'w+2=sanctuary'
p1803
I2533
sS'w-1=personnel'
p1804
I2947
sS'nsubj=Spain'
p1805
I1064
sS'dobj=rights'
p1806
I807
sS'w+1=Mali'
p1807
I1517
sS'nsubj=action'
p1808
I1093
sS'w+1=fuel'
p1809
I1694
sS'w+1=Poland'
p1810
I1522
sS'advcl=term'
p1811
I57
sS'w+2=generate'
p1812
I2298
sS'w-2=peacekeeper'
p1813
I3612
sS'w-2=job'
p1814
I3500
sS'w-2=venue'
p1815
I3800
sS'xcomp=enable'
p1816
I3862
sS'w+2=police'
p1817
I2480
sS'w+2=program'
p1818
I2495
sS'ccomp=fail'
p1819
I190
sS'w-2=Act'
p1820
I3058
sS'w+2=corpus'
p1821
I2197
sS'w+1=leverage'
p1822
I1784
sS'w+2=standard'
p1823
I2569
sS'w+1=anydetail'
p1824
I1561
sS'w-1=Kenya'
p1825
I2724
sS'w-1=he'
p1826
I2869
sS'xcomp=assist'
p1827
I3837
sS'dobj=displaced'
p1828
I543
sS'advmod=financially'
p1829
I93
sS'w-2=member'
p1830
I3536
sS'w-2=society'
p1831
I3714
sS'dobj=proof'
p1832
I772
sS'nsubj=water'
p1833
I1359
sS'nsubj=plan'
p1834
I1267
sS'w-1=thereby'
p1835
I3003
sS'w+1=back-up'
p1836
I1570
sS'dobj=visitor'
p1837
I909
sS'dobj=governance'
p1838
I606
sS'dobj=terrain'
p1839
I871
sS'w-1=job'
p1840
I2890
sS'w-2=political'
p1841
I3625
sS'w+2=immediate'
p1842
I2328
sS'w-2=ourselves'
p1843
I3602
sS'dobj=measure'
p1844
I691
sS'nsubjpass=condition'
p1845
I1376
sS'dobj=fighter'
p1846
I580
sS'w+2=triple'
p1847
I2628
sS'iobj=ivorian'
p1848
I937
sS'w+1=enough'
p1849
I1657
sS'w-2=contract'
p1850
I3318
sS'dobj=veteran'
p1851
I906
sS'w-1=now'
p1852
I2928
sS'dobj=troops'
p1853
I893
sS'dobj=republic'
p1854
I794
sS'w+1=hundred'
p1855
I1735
sS'nsubj=Africa'
p1856
I973
sS'w+2=nationality'
p1857
I2422
sS'dobj=habitat'
p1858
I614
sS'w-2=yet'
p1859
I3829
sS'w-1=fish'
p1860
I2852
sS'dobj=book'
p1861
I476
sS'w-2=likely'
p1862
I3519
sS'nsubj=exercise'
p1863
I1167
sS'w+1=social'
p1864
I1922
sS'w-1=opportunity'
p1865
I2939
sS'xcomp=preserve'
p1866
I3902
sS'w-2=this'
p1867
I3770
sS'mark=since'
p1868
I959
sS'w+1=medical'
p1869
I1807
sS'dobj=hope'
p1870
I623
sS'w-2=corporation'
p1871
I3322
sS'w-2=battlefield'
p1872
I3252
sS'dobj=point'
p1873
I760
sS'w-2=lawyer'
p1874
I3509
sS'conj=force'
p1875
I262
sS'prep=from'
p1876
I1448
sS'xcomp=stabilize'
p1877
I3918
sS'w-2=urgent'
p1878
I3796
sS'w+2=chance'
p1879
I2169
sS'w+2=AEY'
p1880
I2054
sS'nsubj=freeze'
p1881
I1185
sS'w-1=poll'
p1882
I2953
sS'nsubj=information'
p1883
I1203
sS'ccomp=act'
p1884
I163
sS'dobj=snapshot'
p1885
I836
sS'w-2=office'
p1886
I3586
sS'dobj=voice'
p1887
I910
sS'w-2=security'
p1888
I3693
sS'dobj=Stearns'
p1889
I415
sS'w+1=Congress'
p1890
I1508
sS'nsubj=Estimate'
p1891
I1009
sS'nsubj=convention'
p1892
I1142
sS'w+1=fixed-wing'
p1893
I1684
sS'w+1=original'
p1894
I1850
sS'w-2=mall'
p1895
I3529
sS'dobj=voter'
p1896
I913
sS'ccomp=affordable'
p1897
I166
sS'w-2=detail'
p1898
I3348
sS'w+2=accurate'
p1899
I2098
sS'dobj=some'
p1900
I839
sS'w-2=force'
p1901
I3419
sS'w+2=safeguard'
p1902
I2530
sS'dobj=moment'
p1903
I703
sS'w+1=-'
p1904
I1487
sS'aux=be'
p1905
I144
sS'w-2=mountain'
p1906
I3558
sS'w+1=.'
p1907
I1489
sS'dobj=lifeline'
p1908
I670
sS'w+1=4'
p1909
I1498
sS'w-2=such'
p1910
I3734
sS'w-1=kingdom'
p1911
I2893
sS'w+2=tent'
p1912
I2596
sS'w+2=insight'
p1913
I2341
sS'w-2=expect'
p1914
I3394
sS'xcomp=bolster'
p1915
I3845
sS'w+1=legal'
p1916
I1781
sS'xcomp=offset'
p1917
I3896
sS'w-2=high'
p1918
I3454
sS'w-1=capital'
p1919
I2797
sS'w+2=game'
p1920
I2297
sS'w-2=Society'
p1921
I3172
sS'w+2=Richman'
p1922
I2080
sS'dobj=energy'
p1923
I558
sS'w-1=California'
p1924
I2695
sS'dobj=Tehran'
p1925
I417
sS'w+2=complete'
p1926
I2183
sS'dobj=loan'
p1927
I678
sS'dobj=Mexico'
p1928
I406
sS'dobj=control'
p1929
I518
sS'w+1=a'
p1930
I1533
sS'w-1=Tourism'
p1931
I2742
sS'w-2=Washington'
p1932
I3190
sS'w+2=really'
p1933
I2508
sS'w+1=context'
p1934
I1616
sS'nsubj=Society'
p1935
I1062
sS'w-1=opponent'
p1936
I2938
sS'nsubj=Diallo'
p1937
I1006
sS'nsubj=poverty'
p1938
I1273
sS'w+2=intelligence'
p1939
I2345
sS'nsubjpass=portion'
p1940
I1391
sS'w-2=because'
p1941
I3255
sS'w-1=that'
p1942
I2999
sS'w-2=tb'
p1943
I3749
sS'w+2=Wisconsin'
p1944
I2091
sS'dobj=answer'
p1945
I447
sS'w+2=structural'
p1946
I2578
sS'w+1=fingerprint'
p1947
I1683
sS'w+1=energy'
p1948
I1655
sS'dobj=law'
p1949
I664
sS'w+2=vehicle'
p1950
I2645
sS'w-1=benchmark'
p1951
I2787
sS'w-1=Ethiopia'
p1952
I2710
sS'w+1=transparency'
p1953
I1986
sS'nsubj=figure'
p1954
I1174
sS'w-2=people'
p1955
I3614
sS'w+2=afp'
p1956
I2103
sS'nsubj=France'
p1957
I1019
sS'iobj=loan'
p1958
I939
sS'w+2=during'
p1959
I2227
sS'nsubj=Commonwealth'
p1960
I998
sS'w+2=high-technology'
p1961
I2317
sS'w+1=reassurance'
p1962
I1881
sS'w+1=conclusive'
p1963
I1610
sS'nsubj=child'
p1964
I1126
sS'w-2=Tolimir'
p1965
I3181
sS'w+2=needed-remedy'
p1966
I2427
sS'w-2=billion'
p1967
I3262
sS'nsubj=shelter'
p1968
I1309
sS'w-2=regulator'
p1969
I3657
sS'nsubj=investigator'
p1970
I1206
sS'dobj=Ukraine'
p1971
I419
sS'w-1=figure'
p1972
I2847
sS'xcomp=combat'
p1973
I3852
sS'nsubj=Leoneans'
p1974
I1043
sS'dobj=explanation'
p1975
I571
sS'xcomp=treat'
p1976
I3926
sS'w-1=Gates'
p1977
I2716
sS'w-2=open'
p1978
I3592
sS'dobj=accounting'
p1979
I430
sS'nsubj=Durbin'
p1980
I1007
sS'advcl=worry'
p1981
I66
sS'w-2=hurry'
p1982
I3465
sS'w-2=electricity'
p1983
I3374
sS'dobj=key'
p1984
I656
sS'w-2=effect'
p1985
I3371
sS'w+2=mini-dvd'
p1986
I2406
sS'nsubj=procedure'
p1987
I1278
sS'w-1=just'
p1988
I2892
sS'w-2=relief'
p1989
I3659
sS'ccomp=activity'
p1990
I164
sS'dobj=group'
p1991
I610
sS'w+1=specific'
p1992
I1931
sS'w-1=Lu'
p1993
I2728
sS'dobj=Syria'
p1994
I416
sS'w-1=normally'
p1995
I2926
sS'w+2=superior'
p1996
I2582
sS'dobj=basics'
p1997
I469
sS'nsubj=partner'
p1998
I1258
sS'w+2=child'
p1999
I2172
sS'nsubj=council'
p2000
I1143
sS'advmod=home'
p2001
I97
sS'w-2=reliable'
p2002
I3658
sS'w-2=volunteer'
p2003
I3803
sS'conj=suggest'
p2004
I308
sS'w+1=intelligence'
p2005
I1760
sS'dobj=airplane'
p2006
I440
sS'w-2=huge'
p2007
I3462
sS'w+1=these'
p2008
I1968
sS'w-2=bill'
p2009
I3261
sS'w+1=only'
p2010
I1846
sS'dobj=meeting'
p2011
I694
sS'w+1=too'
p2012
I1980
sS'dobj=dossier'
p2013
I548
sS'w+2=latitude'
p2014
I2365
sS'dobj=advantage'
p2015
I434
sS'conj=encourage'
p2016
I254
sS'w-1=Chairman'
p2017
I2699
sS'conj=prepare'
p2018
I287
sS'w+2=high'
p2019
I2315
sS'w+2=strong'
p2020
I2576
sS'w-1=car'
p2021
I2798
sS'dobj=penalty'
p2022
I745
sS'dobj=sanctuary'
p2023
I812
sS'w-1=troops'
p2024
I3013
sS'w+1=family'
p2025
I1672
sS'w+1=advance'
p2026
I1543
sS'w-2=Council'
p2027
I3082
sS'w+1=taxpayer'
p2028
I1953
sS'w-2=power'
p2029
I3629
sS'w+2=humanity'
p2030
I2323
sS'w-1=video'
p2031
I3021
sS'w+2=emergency'
p2032
I2237
sS'w-2=resource'
p2033
I3670
sS'w-1=accord'
p2034
I2757
sS'w-1=employer'
p2035
I2839
sS'w-2=dentist'
p2036
I3346
sS'conj=challenge'
p2037
I240
sS'w-2=Millan'
p2038
I3140
sS'nsubj=kingdom'
p2039
I1211
sS'dobj=everything'
p2040
I564
sS'w-2=these'
p2041
I3765
sS'advmod=someday'
p2042
I123
sS'advcl=take'
p2043
I56
sS'w+2=country'
p2044
I2200
sS'w-2=today'
p2045
I3776
sS'dobj=platform'
p2046
I758
sS'tmod=morning'
p2047
I1481
sS'w+2=to'
p2048
I2617
sS'w+2=identification'
p2049
I2325
sS'w+2=funding'
p2050
I2295
sS'dobj=aid'
p2051
I437
sS'xcomp=back'
p2052
I3842
sS'w+2=message'
p2053
I2403
sS'advcl=yield'
p2054
I67
sS'w-2=home'
p2055
I3456
sS'w-1=Whitman'
p2056
I2753
sS'w-1=Agriculture'
p2057
I2687
sS'advcl=discuss'
p2058
I22
sS'w-2=police'
p2059
I3624
sS'w-1=Act'
p2060
I2685
sS'dobj=professional'
p2061
I769
sS'w-1=Congress'
p2062
I2704
sS'nsubj=price'
p2063
I1276
sS'w+2=financing'
p2064
I2273
sS'nsubj=period'
p2065
I1264
sS'w+1=replacement'
p2066
I1889
sS'w+2=who'
p2067
I2662
sS'w+2=convoy'
p2068
I2194
sS'dobj=genocide-denial'
p2069
I603
sS'w-2=August'
p2070
I3066
sS'w+1=unbalanced'
p2071
I1993
sS'dobj=IMF'
p2072
I398
sS'w-2=act'
p2073
I3202
sS'complm=that'
p2074
I227
sS'w+2=iraqi'
p2075
I2347
sS'w-1=really'
p2076
I2958
sS'advmod=successfully'
p2077
I126
sS'tmod=month'
p2078
I1480
sS'advmod=faster'
p2079
I92
sS'nsubj=visitor'
p2080
I1358
sS'w+1=better'
p2081
I1580
sS'w-2=role'
p2082
I3678
sS'w-2=strategy'
p2083
I3728
sS'w+1=low'
p2084
I1796
sS'w+1=lot'
p2085
I1795
sS'w+1=stronger'
p2086
I1939
sS'dep=while'
p2087
I383
sS'dobj=Vietnam'
p2088
I421
sS'dep=order'
p2089
I364
sS'dobj=flexibility'
p2090
I586
sS'w+1=not'
p2091
I1840
sS'w-2=Iowa'
p2092
I3118
sS'w-2=Diamond'
p2093
I3090
sS'w-2=election'
p2094
I3373
sS'w+2=long'
p2095
I2385
sS'w+1=ice'
p2096
I1738
sS'w+1=low-cost'
p2097
I1797
sS'w+1=most'
p2098
I1821
sS'dobj=atmosphere'
p2099
I459
sS'nsubj=forum'
p2100
I1183
sS'w+1=they'
p2101
I1969
sS'w-2=independence'
p2102
I3475
sS'w+1=those'
p2103
I1971
sS'dobj=record'
p2104
I784
sS'advmod=daily'
p2105
I85
sS'conj=reduce'
p2106
I298
sS'prep=in'
p2107
I1450
sS'w-1=about'
p2108
I2756
sS'w+1=hope'
p2109
I1731
sS'pcomp=for'
p2110
I1424
sS'dep=answer'
p2111
I328
sS'w+2=mostly'
p2112
I2416
sS'w+1=funding'
p2113
I1697
sS'advmod=yet'
p2114
I142
sS'w-1=community'
p2115
I2811
sS'w+2=port'
p2116
I2484
sS'prep=amid'
p2117
I1435
sS'w+1=scientist'
p2118
I1906
sS'w-2=slow'
p2119
I3712
sS'w+1=grow'
p2120
I1708
sS'w+2=trained'
p2121
I2621
sS'nsubj=God'
p2122
I1025
sS'nsubj=view'
p2123
I1356
sS'w-1=at'
p2124
I2780
sS'dobj=declaration'
p2125
I532
sS'w+2=political'
p2126
I2481
sS'w-2=growth'
p2127
I3443
sS'conj=time'
p2128
I314
sS'iobj=Palestinians'
p2129
I930
sS'nsubj=the'
p2130
I1336
sS'ccomp=essential'
p2131
I188
sS'w+1=safety'
p2132
I1899
sS'w+2=trainer'
p2133
I2622
sS'dobj=specifics'
p2134
I846
sS'dobj=result'
p2135
I801
sS'w-2=Secretary'
p2136
I3170
sS'w+2=steady'
p2137
I2572
sS'w+1=essential'
p2138
I1661
sS'w-2=figure'
p2139
I3408
sS'nsubj=all'
p2140
I1100
sS'nsubjpass=victim'
p2141
I1397
sS'w+2=water'
p2142
I2653
sS'dobj=more'
p2143
I708
sS'w-2=returnee'
p2144
I3674
sS'w+1=other'
p2145
I1851
sS'w-1=successfully'
p2146
I2991
sS'w-2=Iran'
p2147
I3119
sS'w+1=haircut'
p2148
I1715
sS'ccomp=free'
p2149
I192
sS'w-2=government'
p2150
I3438
sS'w+1=book'
p2151
I1583
sS'w+2=filmmaker'
p2152
I2270
sS'dobj=vaccination'
p2153
I900
sS'w+2=winner'
p2154
I2668
sS'w-2=350,000'
p2155
I3052
sS'w+1=increasingly'
p2156
I1752
sS'w-1=in'
p2157
I2879
sS'w+1=thousand'
p2158
I1972
sS'nsubj=minimum'
p2159
I1234
sS'w+2=music'
p2160
I2420
sS'w+1=logistical'
p2161
I1793
sS'advcl=use'
p2162
I62
sS'ccomp=work'
p2163
I225
sS'nsubj=Cashin'
p2164
I991
sS'w+2=reporting'
p2165
I2519
sS'w-1=apparently'
p2166
I2774
sS'w+1=lasting'
p2167
I1775
sS'parataxis=eclipse'
p2168
I1404
sS'w+2=army'
p2169
I2123
sS'advmod=likely'
p2170
I105
sS'w-2=Security'
p2171
I3171
sS'w-2=target'
p2172
I3746
sS'mark=if'
p2173
I957
sS'w-2=album'
p2174
I3217
sS'dobj=Palestinians'
p2175
I408
sS'dobj=role'
p2176
I809
sS'mark=in'
p2177
I958
sS'w+2=thorough'
p2178
I2606
sS'w-2=soldier'
p2179
I3715
sS'w-2=work'
p2180
I3823
sS'w-2=right'
p2181
I3675
sS'w+2=not'
p2182
I2437
sS'dobj=counseling'
p2183
I523
sS'nsubj=patrol'
p2184
I1260
sS'w-1=internet'
p2185
I2883
sS'w-2=concentrate'
p2186
I3309
sS'w+2=lot'
p2187
I2386
sS'w-2=sector'
p2188
I3692
sS'w+2=provision'
p2189
I2500
sS'dobj=news'
p2190
I720
sS'w+2=resource'
p2191
I2522
sS'prep=than'
p2192
I1460
sS'csubj=do'
p2193
I321
sS'w+2=pleasant'
p2194
I2478
sS'dep=say'
p2195
I370
sS'w+2=Afghanistan'
p2196
I2058
sS'w-2=ethic'
p2197
I3386
sS'w-2=believe'
p2198
I3258
sS'w-1=fantasy'
p2199
I2845
sS'w-2=Pyongyang'
p2200
I3159
sS'w-1=chicken'
p2201
I2805
sS'prep=by'
p2202
I1441
sS'dobj=supply'
p2203
I859
sS'nsubj=issue'
p2204
I1207
sS'w+1=economic'
p2205
I1644
sS'parataxis=lead'
p2206
I1406
sS'w-2=module'
p2207
I3548
sS'w+2=regional'
p2208
I2514
sS'w+2=where'
p2209
I2661
sS'dobj=power'
p2210
I764
sS'w-2=or'
p2211
I3597
sS'nsubj=who'
p2212
I1364
sS'dobj=needed-remedy'
p2213
I718
sS'w+1=citizen'
p2214
I1602
sS'w-2=superdelegate'
p2215
I3737
sS'w+2=islamic'
p2216
I2348
sS'dep=secure'
p2217
I371
sS'w+1=specifics'
p2218
I1932
sS'nsubj=bank'
p2219
I1111
sS'w-1=equipment'
p2220
I2841
sS'w+1=long-term'
p2221
I1794
sS'w-2=energy'
p2222
I3379
sS'w-2=on'
p2223
I3588
sS'w-2=around'
p2224
I3236
sS'advmod=instead'
p2225
I102
sS'w+2=governance'
p2226
I2302
sS'w+1=police'
p2227
I1863
sS'w-1=program'
p2228
I2955
sS'nsubj=authority'
p2229
I1109
sS'w-2=instance'
p2230
I3482
sS'w-2=prepare'
p2231
I3631
sS'w+1=domestic'
p2232
I1637
sS'advmod=again'
p2233
I69
sS'w+2=boy'
p2234
I2149
sS'w-2=refuse'
p2235
I3654
sS'w+1=micronutrient'
p2236
I1813
sS'w+1=farmer'
p2237
I1674
sS'w-1=Webb'
p2238
I2752
sS'nsubj=university'
p2239
I1348
sS'w-1=actually'
p2240
I2759
sS'dep=close'
p2241
I336
sS'w+2=transparency'
p2242
I2624
sS'w-2=ability'
p2243
I3197
sS'w-2=agreement'
p2244
I3212
sS'dobj=Congress'
p2245
I395
sS'dep=consolidate'
p2246
I338
sS'dobj=this'
p2247
I875
sS'w+2=certain'
p2248
I2168
sS'w-2=U.S.'
p2249
I3184
sS'w-2=dollar'
p2250
I3361
sS'w+1=steady'
p2251
I1936
sS'advmod=however'
p2252
I99
sS'nsubj=commitment'
p2253
I1136
sS'w+1=as'
p2254
I1566
sS'w+2=reminder'
p2255
I2517
sS'w+2=like'
p2256
I2374
sS'w+1=at'
p2257
I1568
sS'dobj=momentum'
p2258
I704
sS'w+1=sound'
p2259
I1928
sS'dobj=Poland'
p2260
I410
sS'dobj=insurance'
p2261
I646
sS'nsubj=House'
p2262
I1029
sS'nsubj=meeting'
p2263
I1229
sS'dobj=sympathy'
p2264
I863
sS'w-1=currently'
p2265
I2820
sS'nsubj=biodiversity'
p2266
I1115
sS'w+2=so'
p2267
I2556
sS'w-2=staff'
p2268
I3722
sS'w-2=itself'
p2269
I3498
sS'mark=for'
p2270
I956
sS'w-1=club'
p2271
I2808
sS'w+2=financial'
p2272
I2272
sS'dobj=hint'
p2273
I620
sS'dobj=independence'
p2274
I637
sS'w+2=explanation'
p2275
I2257
sS'nsubj=west'
p2276
I1362
sS'w-1=can'
p2277
I2796
sS'w-2=official'
p2278
I3587
sS'w+1=input'
p2279
I1754
sS'w+2=innovation'
p2280
I2340
sS'w+2=cash'
p2281
I2166
sS'w-2=Paris'
p2282
I3155
sS'w+1=everything'
p2283
I1665
sS'advmod=earlier'
p2284
I87
sS'nsubj=power'
p2285
I1274
sS'w-1=say'
p2286
I2972
sS'w+2=legal'
p2287
I2370
sS'w-1=lawmaker'
p2288
I2898
sS'w+2=fuel'
p2289
I2291
sS'xcomp=people'
p2290
I3899
sS'w-1=those'
p2291
I3006
sS'w-2=peace'
p2292
I3611
sS'xcomp=write'
p2293
I3933
sS'advmod=when'
p2294
I140
sS'w+1=weapon'
p2295
I2014
sS'dobj=ship'
p2296
I828
sS'xcomp=able'
p2297
I3833
sS'w+2=condition'
p2298
I2185
sS'nsubj=season'
p2299
I1305
sS'w-1=convention'
p2300
I2815
sS'xcomp=deal'
p2301
I3859
sS'w-2=support'
p2302
I3740
sS'w-1=Force'
p2303
I2714
sS'w-2=housing'
p2304
I3459
sS'dep=attempt'
p2305
I330
sS'w+1=medicine'
p2306
I1808
sS'w+1=we'
p2307
I2013
sS'w+2=oil'
p2308
I2446
sS'advcl=provide'
p2309
I49
sS'parataxis=play'
p2310
I1407
sS'w-1=care'
p2311
I2799
sS'w-2=insurance'
p2312
I3484
sS'dobj=edge'
p2313
I550
sS'w+1=donate'
p2314
I1638
sS'nsubj=technician'
p2315
I1333
sS'w+2=non-food'
p2316
I2435
sS'dobj=provision'
p2317
I775
sS'w-1=milk'
p2318
I2916
sS'w-2=burma'
p2319
I3270
sS'w+1=Russia'
p2320
I1525
sS'w-2=nutrition'
p2321
I3580
sS'auxpass=be'
p2322
I156
sS'w-1=plastic-sheeting'
p2323
I2951
sS'w-2=burden'
p2324
I3269
sS'w-2=Commission'
p2325
I3080
sS'w-1=decisionwill'
p2326
I2823
sS'w+2=success'
p2327
I2580
sS'w+1=supplementary'
p2328
I1946
sS'nsubj=bill'
p2329
I1114
sS'w-1=longer'
p2330
I2904
sS'w+2=after'
p2331
I2105
sS'advcl=fluctuate'
p2332
I31
sS'dobj=path'
p2333
I741
sS'dobj=transmission'
p2334
I889
sS'dobj=business'
p2335
I485
sS'dobj=company'
p2336
I504
sS'w-1=horse'
p2337
I2872
sS'advmod=still'
p2338
I124
sS'w+1=incentive'
p2339
I1748
sS'w-2=seeker'
p2340
I3695
sS'w+2=filter'
p2341
I2271
sS'w+2=georgian'
p2342
I2299
sS'dobj=setting'
p2343
I824
sS'w-2=establish'
p2344
I3384
sS'w+1=there'
p2345
I1967
sS'w-2=how'
p2346
I3460
sS'w-2=Minneapolis'
p2347
I3142
sS'w-2=defray'
p2348
I3342
sS'w-1=system'
p2349
I2993
sS'nsubj=Australia'
p2350
I980
sS'nsubj=operation'
p2351
I1250
sS'dobj=phone'
p2352
I751
sS'nsubj=ally'
p2353
I1101
sS'nsubj=#NUMBER#'
p2354
I969
sS'dobj=lead'
p2355
I666
sS'ccomp=eliminate'
p2356
I186
sS'w-2=1995'
p2357
I3050
sS'w+1=massive'
p2358
I1803
sS'nsubj=secretary'
p2359
I1306
sS'w+1=its'
p2360
I1766
sS'conj=cater'
p2361
I239
sS'w+2=cheap'
p2362
I2171
sS'conj=share'
p2363
I305
sS'dobj=space'
p2364
I844
sS'w-2=employee'
p2365
I3376
sS'ccomp=agree'
p2366
I167
sS'dobj=what'
p2367
I919
sS'partmod=explain'
p2368
I1412
sS'w-2=local'
p2369
I3523
sS"w-1=''"
p2370
I2676
sS'w+1=extra'
p2371
I1670
sS'xcomp=work'
p2372
I3932
sS'nsubj=resource'
p2373
I1295
sS'dobj=citizenship'
p2374
I498
sS'w-1=safety'
p2375
I2969
sS'w+1=reasonable'
p2376
I1880
sS'nsubj=Cervarix'
p2377
I993
sS'dobj=barrier'
p2378
I467
sS'dobj=pathway'
p2379
I742
sS'w+1=Americans'
p2380
I1503
sS'w-2=Girodelle'
p2381
I3105
sS'dobj=personnel'
p2382
I748
sS'conj=do'
p2383
I250
sS'w-2=playground'
p2384
I3619
sS'w+2=nutritional'
p2385
I2443
sS'w+2=island'
p2386
I2349
sS'w-2=conspire'
p2387
I3314
sS'dobj=sister'
p2388
I832
sS'nsubj=this'
p2389
I1338
sS'dobj=government'
p2390
I607
sS'nsubj=ICRC'
p2391
I1030
sS'nsubjpass=bulk'
p2392
I1374
sS'w+2=shelter'
p2393
I2544
sS'w+1=non-food'
p2394
I1837
sS'nsubj=fighting'
p2395
I1173
sS'w+1=impartial'
p2396
I1744
sS'w+1=incitement'
p2397
I1749
sS'w-1=area'
p2398
I2776
sS'w-2=animal'
p2399
I3227
sS'conj=mention'
p2400
I278
sS'w+1=useful'
p2401
I2003
sS'nsubj=#DATE#'
p2402
I968
sS'w+2=Article'
p2403
I2060
sS'conj=have'
p2404
I264
sS'nsubj=Chairman'
p2405
I994
sS'w+2=condom'
p2406
I2187
sS'dobj=bomb'
p2407
I475
sS'w-2=volatile'
p2408
I3802
sS'w+2=win'
p2409
I2665
sS'w+2=grow'
p2410
I2306
sS'xcomp=loyal'
p2411
I3891
sS'advcl=become'
p2412
I12
sS'dobj=pilgrim'
p2413
I754
sS'w-1=2003'
p2414
I2684
sS'dobj=blueprint'
p2415
I473
sS'ccomp=safe'
p2416
I209
sS'dobj=grant'
p2417
I608
sS'w+2=Justice'
p2418
I2071
sS'w-2=must'
p2419
I3560
sS'w-2=necessary'
p2420
I3564
sS'w-1=respite'
p2421
I2966
sS'w-2=enemy'
p2422
I3378
sS'w+2=rice'
p2423
I2527
sS'dobj=datum'
p2424
I530
sS'w-1=measure'
p2425
I2909
sS'w-2=german'
p2426
I3434
sS'w+1=armed'
p2427
I1564
sS'xcomp=military'
p2428
I3894
sS'w+1=alternative'
p2429
I1553
sS'advcl=fast'
p2430
I28
sS'w-2=Zimbabwe'
p2431
I3195
sS'w-2=GIA'
p2432
I3101
sS'w-2=trip'
p2433
I3787
sS'w-2=workshop'
p2434
I3825
sS'w+1=employment'
p2435
I1653
sS'nsubj=Festival'
p2436
I1011
sS'nsubj=Deputy'
p2437
I1005
sS'w+2=coverage'
p2438
I2202
sS'w-2=Margaret'
p2439
I3133
sS'w+1=clean'
p2440
I1603
sS'w-2=encyclopedia'
p2441
I3377
sS'w-2=port'
p2442
I3626
sS'nsubj=comment'
p2443
I1133
sS'w-1=movement'
p2444
I2921
sS'iobj=survivor'
p2445
I947
sS'nsubj=palyja'
p2446
I1256
sS'w-1=result'
p2447
I2967
sS'w+1=insurance'
p2448
I1757
sS'dobj=accuracy'
p2449
I431
sS'w+1=hydropower'
p2450
I1737
sS'w-2=expire'
p2451
I3396
sS'dobj=report'
p2452
I792
sS'w+1=clear'
p2453
I1604
sS'w-2=process'
p2454
I3636
sS'w-2=boat'
p2455
I3264
sS'dobj=evidence'
p2456
I565
sS'w-1=reactor'
p2457
I2957
sS'w-1=Nigeria'
p2458
I2730
sS'w+2=95'
p2459
I2052
sS'w+2=small'
p2460
I2554
sS'w-2=Cup'
p2461
I3084
sS'nsubj=network'
p2462
I1246
sS'w+1=Mauritania'
p2463
I1518
sS'w+2=agreement'
p2464
I2109
sS'advcl=request'
p2465
I50
sS'nsubj=Foundation'
p2466
I1018
sS'dobj=spacecraft'
p2467
I845
sS'dobj=value'
p2468
I902
sS'nsubj=Odierno'
p2469
I1051
sS'nsubj=Tripoli'
p2470
I1074
sS'nsubj=accord'
p2471
I1091
sS'w-1=official'
p2472
I2932
sS'xcomp=turn'
p2473
I3928
sS'dobj=most'
p2474
I710
sS'nsubj=Congress'
p2475
I999
sS'advmod=even'
p2476
I89
sS'w-2=education'
p2477
I3370
sS'ccomp=involve'
p2478
I200
sS'nsubj=some'
p2479
I1316
sS'prep=throughout'
p2480
I1462
sS'dobj=job'
p2481
I653
sS'w-2=Phillips'
p2482
I3157
sS'dobj=drug'
p2483
I549
sS'dep=come'
p2484
I337
sS'w-2=means'
p2485
I3532
sS'w+2=quick'
p2486
I2502
sS'iobj=group'
p2487
I936
sS'w+2=local'
p2488
I2382
sS'w-2=interested'
p2489
I3488
sS'w-1=typically'
p2490
I3014
sS'w+1=labor'
p2491
I1773
sS'w-2=Syria'
p2492
I3177
sS'w+2=care'
p2493
I2164
sS'aux=will'
p2494
I154
sS'w-2=Darfur'
p2495
I3086
sS'ccomp=get'
p2496
I193
sS'w+1=ready'
p2497
I1878
sS'conj=increase'
p2498
I270
sS'w-2=strongly'
p2499
I3729
sS'w+1=2.5'
p2500
I1495
sS'w-2=crop'
p2501
I3331
sS'nsubj=club'
p2502
I1130
sS'w+1=guidance'
p2503
I1711
sS'xcomp=cover'
p2504
I3858
sS'w-2=Paterson'
p2505
I3156
sS'prep=with'
p2506
I1468
sS'w-2=cooperate'
p2507
I3320
sS'nsubj=agency'
p2508
I1096
sS'xcomp=suspend'
p2509
I3923
sS'w+1=figure'
p2510
I1680
sS'dobj=force'
p2511
I591
sS'nsubj=Pyongyang'
p2512
I1057
sS'w+2=AK-47'
p2513
I2056
sS'w-2=suppose'
p2514
I3741
sS'w+1=historical'
p2515
I1727
sS'w-2=code'
p2516
I3297
sS'w-1=review'
p2517
I2968
sS'w-2=Federal'
p2518
I3095
sS'w+1=vitamin'
p2519
I2009
sS'w+2=benefit'
p2520
I2139
sS'w-1=recently'
p2521
I2960
sS'w-1=military'
p2522
I2915
sS'w+1=cash'
p2523
I1593
sS'w-2=succeed'
p2524
I3733
sS'w-2=operative'
p2525
I3594
sS'w-1=season'
p2526
I2973
sS'w+2=do'
p2527
I2221
sS'dep=request'
p2528
I369
sS'nsubj=boom'
p2529
I1117
sS'w-2=vehicle'
p2530
I3799
sS'w+1=various'
p2531
I2005
sS'w-2=begin'
p2532
I3257
sS'w-1=Lafayette'
p2533
I2726
sS'w+2=step'
p2534
I2573
sS'dobj=financing'
p2535
I583
sS'w+1=America'
p2536
I1502
sS'w+2=relief'
p2537
I2516
sS'w-2=rancher'
p2538
I3649
sS'w+1=recreation'
p2539
I1884
sS'w-2=plantation'
p2540
I3618
sS'dobj=truth'
p2541
I895
sS'w+2=context'
p2542
I2190
sS'nsubj=bamboo'
p2543
I1110
sS'w+2=revenue'
p2544
I2525
sS'w+2=deterrence'
p2545
I2218
sS'dobj=opening'
p2546
I731
sS'w-1=after'
p2547
I2761
sS'w+2=place'
p2548
I2475
sS'w+2=largest'
p2549
I2362
sS'w+2=cancer'
p2550
I2160
sS'dobj=environment'
p2551
I561
sS'w-2=Meylor'
p2552
I3137
sS'w-1=assistance'
p2553
I2779
sS'w-2=living'
p2554
I3522
sS'w-2=those'
p2555
I3771
sS'w+2=option'
p2556
I2452
sS'w+2=Palestinians'
p2557
I2078
sS'w+1=clue'
p2558
I1605
sS'w+1=critical'
p2559
I1624
sS'dobj=detail'
p2560
I537
sS'xcomp=settle'
p2561
I3915
sS'nsubj=upheaval'
p2562
I1349
sS'w+2=enable'
p2563
I2240
sS'dobj=flight'
p2564
I587
sS'w+1=drug'
p2565
I1640
sS'partmod=make'
p2566
I1415
sS'w+1=ten'
p2567
I1960
sS'w-2=economy'
p2568
I3369
sS'dep=interrogate'
p2569
I354
sS'advmod=necessarily'
p2570
I112
sS'nsubj=director'
p2571
I1151
sS'xcomp=heal'
p2572
I3879
sS'nsubj=Fund'
p2573
I1021
sS'nsubj=navy'
p2574
I1244
sS'w-2=news'
p2575
I3570
sS'xcomp=head'
p2576
I3878
sS'nsubj=Tanzania'
p2577
I1067
sS'w+2=capital'
p2578
I2163
sS'w-2=groom'
p2579
I3439
sS'w+2=ration'
p2580
I2504
sS'cc=and'
p2581
I157
sS'w+2=February'
p2582
I2063
sS'w+1=handicap-accessible'
p2583
I1716
sS'nsubj=reverence'
p2584
I1297
sS'dobj=oil'
p2585
I730
sS'w+1=by'
p2586
I1590
sS'nsubjpass=mission'
p2587
I1384
sS'w-1=fatality'
p2588
I2846
sS'w+2=community'
p2589
I2181
sS'nsubj=employer'
p2590
I1161
sS'w-2=provision'
p2591
I3644
sS'nsubj=footage'
p2592
I1181
sS'nsubj=money'
p2593
I1239
sS'w+1=crew'
p2594
I1623
sS'w+1=financial'
p2595
I1682
sS'w-2=ineffective'
p2596
I3479
sS'w+2=meaningful'
p2597
I2396
sS'w-2=team'
p2598
I3752
sS'nsubjpass=fund'
p2599
I1378
sS'w-2=statute'
p2600
I3725
sS'nsubj=California'
p2601
I988
sS'conj=say'
p2602
I301
sS'nsubj=flight'
p2603
I1180
sS'w-2=solution'
p2604
I3716
sS'w-2=most'
p2605
I3556
sS'tmod=year'
p2606
I1483
sS'w+1=-lrb-'
p2607
I1488
sS'w+2=party'
p2608
I2461
sS'nsubj=Sloan'
p2609
I1061
sS'ccomp=update'
p2610
I220
sS'w+2=information'
p2611
I2338
sS'nsubj=rights'
p2612
I1300
sS'w-2=super'
p2613
I3736
sS'w+2=50,000'
p2614
I2047
sS'nsubj=life'
p2615
I1221
sS'w+1=Iran'
p2616
I1512
sS'w-2=fund'
p2617
I3428
sS'w-2=tanker'
p2618
I3745
sS'w+2=landslide'
p2619
I2360
sS'w+1=little'
p2620
I1789
sS'w+2=family'
p2621
I2264
sS'w-2=promise'
p2622
I3640
sS'w+1=into'
p2623
I1763
sS'dobj=chance'
p2624
I492
sS'w+1=fighter'
p2625
I1679
sS'nsubj=rotor'
p2626
I1301
sS'w-1=station'
p2627
I2985
sS'w+2=climate'
p2628
I2177
sS'w+1=voter'
p2629
I2011
sS'w-2=race'
p2630
I3648
sS'nsubj=agent'
p2631
I1098
sS'w-2=quickly'
p2632
I3647
sS'w+1=Syria'
p2633
I1526
sS'w-2=N.R.A.'
p2634
I3147
sS'w-1=Police'
p2635
I2734
sS'nsubj=presence'
p2636
I1275
sS'w-1=region'
p2637
I2962
sS'w+1=Chavez'
p2638
I1507
sS'w-2=schedule'
p2639
I3685
sS'nsubj=Blackwater'
p2640
I983
sS'w+1=cd-4'
p2641
I1594
sS'aux=could'
p2642
I146
sS'w-1=company'
p2643
I2812
sS'w+2=necessity'
p2644
I2425
sS'prep=like'
p2645
I1453
sS'w-1=journalist'
p2646
I2891
sS'w-2=the'
p2647
I3761
sS'w-2=Mohamad'
p2648
I3144
sS'w-2=echo'
p2649
I3368
sS'w+2=level'
p2650
I2372
sS'w-1=attraction'
p2651
I2783
sS'w+1=conflict'
p2652
I1611
sS'dobj=hour'
p2653
I624
sS'dobj=thought'
p2654
I877
sS'w-2=withdrawal'
p2655
I3821
sS'advcl=achieve'
p2656
I4
sS'dep=in'
p2657
I352
sS'w+2=rest'
p2658
I2524
sS'xcomp=attract'
p2659
I3839
sS'dobj=explosive'
p2660
I572
sS'w+1=recommendation'
p2661
I1883
sS'w+1=lead'
p2662
I1779
sS'w-2=Office'
p2663
I3152
sS'w-2=shipping'
p2664
I3703
sS'nsubj=Africans'
p2665
I974
sS'w-1=earlier'
p2666
I2833
sS'w+2=truck'
p2667
I2630
sS'w+1=greatly'
p2668
I1705
sS'nsubj=photo'
p2669
I1266
sS'nsubj=program'
p2670
I1280
sS'w+2=educational'
p2671
I2235
sS'nsubj=Whitman'
p2672
I1088
sS'prep=of'
p2673
I1454
sS'w-2=lead'
p2674
I3510
sS'w+1=educational'
p2675
I1646
sS'w+2=spacecraft'
p2676
I2564
sS'w+2=IMF'
p2677
I2066
sS'prep=on'
p2678
I1455
sS'advcl=charge'
p2679
I15
sS'w-1=Iranians'
p2680
I2721
sS'dobj=fertilizer'
p2681
I577
sS'nsubj=fuel'
p2682
I1187
sS'w-1=west'
p2683
I3028
sS'w+1=sanitation'
p2684
I1902
sS'w+2=effective'
p2685
I2236
sS'nsubj=Lord'
p2686
I1044
sS"w-2=''"
p2687
I3040
sS'w+1=needed'
p2688
I1830
sS'dobj=security'
p2689
I819
sS'w-2=Amendment'
p2690
I3062
sS'dobj=excuse'
p2691
I568
sS'w-2=timeline'
p2692
I3774
sS'w+1=computer'
p2693
I1609
sS'w+1=2-hundred'
p2694
I1494
sS'dep=have'
p2695
I349
sS'w+1=communication'
p2696
I1607
sS'w+2=clue'
p2697
I2178
sS'w-2=agent'
p2698
I3209
sS'w-2=law'
p2699
I3507
sS'partmod=reduce'
p2700
I1419
sS'pcomp=pick'
p2701
I1427
sS'nsubj=citizen'
p2702
I1127
sS'w+1=four'
p2703
I1691
sS'w+2=evidence'
p2704
I2251
sS'nsubj=appointment'
p2705
I1104
sS'w-2=failure'
p2706
I3401
sS'w-2=tale'
p2707
I3744
sS'nsubj=woman'
p2708
I1366
sS'xcomp=continue'
p2709
I3856
sS'w+2=same'
p2710
I2532
sS'w-2=surgery'
p2711
I3742
sS'w-2=when'
p2712
I3812
sS'w+2=that'
p2713
I2599
sS'nsubj=and'
p2714
I1102
sS'w+2=and'
p2715
I2115
sS'w-2=al-qaida'
p2716
I3216
sS'w-2=get'
p2717
I3435
sS'w-1=child'
p2718
I2806
sS'dobj=enemy'
p2719
I557
sS'w-1=or'
p2720
I2940
sS'nsubj=administration'
p2721
I1094
sS'dobj=size'
p2722
I834
sS'w-2=Initiative'
p2723
I3116
sS'w-2=Affairs'
p2724
I3059
sS'w-2=involvement'
p2725
I3492
sS'w-2=no'
p2726
I3573
sS'w-2=general'
p2727
I3432
sS'w+2=update'
p2728
I2639
sS'dobj=situation'
p2729
I833
sS'w+2=different'
p2730
I2220
sS'w-1=of'
p2731
I2931
sS'nsubj=police'
p2732
I1270
sS'w+2=unreliable'
p2733
I2637
sS'dobj=talent'
p2734
I865
sS'w-2=pledge'
p2735
I3620
sS'w-1=on'
p2736
I2934
sS'w-2=plus-up'
p2737
I3621
sS'w+1=front-line'
p2738
I1693
sS'w-2=assert'
p2739
I3240
sS'w+2=advantage'
p2740
I2101
sS'advmod=actually'
p2741
I68
sS'xcomp=opportunity'
p2742
I3898
sS'xcomp=install'
p2743
I3884
sS'w+2=editorial'
p2744
I2233
sS'w-1=1244'
p2745
I2683
sS'dobj=defendant'
p2746
I534
sS'nsubj=Carolina'
p2747
I990
sS'w-1=necessarily'
p2748
I2924
sS'w+1=this'
p2749
I1970
sS'w-2=General'
p2750
I3103
sS'w+1=substantial'
p2751
I1942
sS'w-2=enough'
p2752
I3382
sS'w-2=Kenya'
p2753
I3127
sS'w-2=scramble'
p2754
I3689
sS'w-1=plant'
p2755
I2950
sS'w+2=frankly'
p2756
I2287
sS'xcomp=useful'
p2757
I3930
sS'advmod=now'
p2758
I114
sS'w-2=result'
p2759
I3673
sS'conj=quadruple'
p2760
I293
sS'prep=across'
p2761
I1431
sS'w+2=into'
p2762
I2346
sS'nsubj=those'
p2763
I1339
sS'w-2=will'
p2764
I3817
sS'ccomp=develop'
p2765
I184
sS'w+2=path'
p2766
I2463
sS'dobj=quarter'
p2767
I777
sS'w-2=technology'
p2768
I3753
sS'w+2=secure'
p2769
I2537
sS'w+2=development'
p2770
I2219
sS'dobj=coverage'
p2771
I526
sS'w+1=billion'
p2772
I1581
sS'w-2=Tanzania'
p2773
I3178
sS'w-2=island'
p2774
I3495
sS'w+2=justification'
p2775
I2354
sS'dobj=impression'
p2776
I632
sS'w-2=Irbil'
p2777
I3121
sS'dobj=kind'
p2778
I658
sS'partmod=say'
p2779
I1420
sS'w-2=not'
p2780
I3576
sS'w-2=now'
p2781
I3577
sS'w-2=while'
p2782
I3815
sS'nsubj=resolution'
p2783
I1294
sS'dobj=review'
p2784
I803
sS'advcl=normalize'
p2785
I44
sS'dobj=grounds'
p2786
I609
sS'w+2=platform'
p2787
I2477
sS'dobj=leadership'
p2788
I667
sS'w-2=flight'
p2789
I3414
sS'w-2=as'
p2790
I3238
sS'w-2=train'
p2791
I3783
sS'dobj=venue'
p2792
I905
sS'w-2=Gaza'
p2793
I3102
sS'w-1=also'
p2794
I2769
sS'advcl=fall'
p2795
I27
sS'w+2=large'
p2796
I2361
sS'dobj=fund'
p2797
I598
sS'w+1=crucial'
p2798
I1625
sS'dobj=perspective'
p2799
I749
sS'dobj=boost'
p2800
I477
sS'w+2=phone'
p2801
I2472
sS'w-2=principle'
p2802
I3635
sS'nsubj=sort'
p2803
I1317
sS'w-2=out'
p2804
I3603
sS'w+1=timely'
p2805
I1976
sS'w+2=troops'
p2806
I2629
sS'w-2=plant'
p2807
I3617
sS'dobj=time'
p2808
I878
sS'ccomp=consider'
p2809
I179
sS'conj=bring'
p2810
I237
sS'w+2=enemy'
p2811
I2243
sS'w+1=time'
p2812
I1975
sS'w+2=passage'
p2813
I2462
sS'nsubj=enthusiast'
p2814
I1164
sS'w-2=approach'
p2815
I3233
sS'dobj=line'
p2816
I672
sS'w-2=Bush'
p2817
I3074
sS'w+1=charity'
p2818
I1597
sS'w-2=include'
p2819
I3474
sS'w-2=obligation'
p2820
I3582
sS'w+2=there'
p2821
I2603
sS'nsubj=Wagner'
p2822
I1084
sS'dobj=nationality'
p2823
I714
sS'w+2=new'
p2824
I2429
sS'w-2=voting'
p2825
I3804
sS'dobj=money'
p2826
I705
sS'w+2=drug'
p2827
I2226
sS'nsubj=economy'
p2828
I1158
sS'w-1=log'
p2829
I2903
sS'w-2=request'
p2830
I3666
sS'w+2=farmer'
p2831
I2267
sS'nsubj=ride'
p2832
I1299
sS'w-1=Festival'
p2833
I2711
sS'w-1=policy'
p2834
I2952
sS'nsubj=Department'
p2835
I1004
sS'complm=whether'
p2836
I228
sS'w+1=document'
p2837
I1636
sS'dobj=Kosovars'
p2838
I404
sS'w+2=best'
p2839
I2140
sS'w-1=SouthWings'
p2840
I2737
sS'w-2=EU'
p2841
I3092
sS'w-2=once'
p2842
I3589
sS'w+2=window'
p2843
I2667
sS'w+1=temporary'
p2844
I1959
sS'w-1=must'
p2845
I2923
sS'w+2=explosive'
p2846
I2258
sS'nsubj=Gomez'
p2847
I1026
sS'w-1=tree'
p2848
I3012
sS'w+2=have'
p2849
I2309
sS'dobj=care'
p2850
I489
sS'w-2=patrol'
p2851
I3610
sS'w+2=without'
p2852
I2672
sS'w-2=information'
p2853
I3481
sS'dobj=north'
p2854
I722
sS'w-2=delivery'
p2855
I3344
sS'w-2=there'
p2856
I3763
sS'w-2=Odierno'
p2857
I3151
sS'w+1=construction'
p2858
I1614
sS'dobj=conditioning'
p2859
I508
sS'w-2=prosecution'
p2860
I3642
sS'w-2=Damascus'
p2861
I3085
sS'w+2=sophisticated'
p2862
I2560
sS'dobj=picture'
p2863
I753
sS'ccomp=assume'
p2864
I170
sS'w+2=than'
p2865
I2598
sS'w+1=nonhumanitarian'
p2866
I1839
sS'nsubj=patient'
p2867
I1259
sS'w-2=negotiator'
p2868
I3566
sS'dobj=window'
p2869
I921
sS'dobj=relief'
p2870
I790
sS'nsubj=salmon'
p2871
I1303
sS'w-2=ethanol'
p2872
I3385
sS'w-2=experience'
p2873
I3395
sS'w+2=full'
p2874
I2292
sS'dobj=anydetail'
p2875
I449
sS'w-2=donor'
p2876
I3362
sS'w+2=within'
p2877
I2671
sS'w-1=likely'
p2878
I2901
sS'w-2=reporter'
p2879
I3663
sS'xcomp=build'
p2880
I3847
sS"aux='ll"
p2881
I143
sS'xcomp=rebuild'
p2882
I3910
sS'aux=to'
p2883
I153
sS'w-2=haste'
p2884
I3447
sS'w+2=750'
p2885
I2051
sS'dobj=baby'
p2886
I463
sS'w-1=Union'
p2887
I2747
sS'w+2=AFP'
p2888
I2055
sS'w+1=true'
p2889
I1990
sS'nsubj=gathering'
p2890
I1189
sS'nsubj=surge'
p2891
I1326
sS'dobj=part'
p2892
I738
sS'w+1=million'
p2893
I1815
sS'w+2=type'
p2894
I2632
sS'nsubj=donor'
p2895
I1155
sS'dobj=market'
p2896
I685
sS'w+2=training'
p2897
I2623
sS'w+2=setting'
p2898
I2542
sS'w+2=bulk'
p2899
I2154
sS'w-2=region'
p2900
I3655
sS'dobj=connection'
p2901
I511
sS'w+2=most'
p2902
I2415
sS'dobj=accountability'
p2903
I429
sS'w-1=Carolina'
p2904
I2697
sS'dobj=document'
p2905
I546
sS'w+2=about'
p2906
I2094
sS'w-1=U.S.'
p2907
I2744
sS'w-2=farmer'
p2908
I3403
sS'prep=during'
p2909
I1444
sS'w-1=earnings'
p2910
I2834
sS'dobj=help'
p2911
I619
sS'dobj=firepower'
p2912
I585
sS'w+2=degree'
p2913
I2213
sS'w+2=meal'
p2914
I2395
sS'ccomp=hurt'
p2915
I199
sS'w+1=higher'
p2916
I1726
sS'w-2=combate'
p2917
I3298
sS'w-1=oversight'
p2918
I2942
sS'w+2=moment'
p2919
I2408
sS'w+1=electricity'
p2920
I1651
sS'w+2=produce'
p2921
I2493
sS'w-1=not'
p2922
I2927
sS'w-1=begin'
p2923
I2786
sS'w+2=significant'
p2924
I2550
sS'w+2=example'
p2925
I2253
sS'w-2=David'
p2926
I3087
sS'w-1=reason'
p2927
I2959
sS'w-2=difficult'
p2928
I3354
sS'w-1=lady'
p2929
I2894
sS'w+1=huge'
p2930
I1733
sS'dobj=respite'
p2931
I798
sS'w-1=there'
p2932
I3002
sS'dobj=half'
p2933
I616
sS'w+1=proof'
p2934
I1872
sS'w+2=be'
p2935
I2136
sS"w-2='s"
p2936
I3042
sS'dobj=blanket'
p2937
I472
sS'w-1=fuel'
p2938
I2860
sS'w+2=shiite'
p2939
I2545
sS'w+1=become'
p2940
I1577
sS'prep=before'
p2941
I1439
sS'dobj=clue'
p2942
I499
sS'w+2=original'
p2943
I2454
sS'iobj=nation'
p2944
I941
sS'nsubj=show'
p2945
I1310
sS'ccomp=call'
p2946
I176
sS'w-2=organization'
p2947
I3600
sS'w+2=airlift'
p2948
I2112
sS'w-2=research'
p2949
I3667
sS'w+1=liability'
p2950
I1785
sS'w+1=emergency'
p2951
I1652
sS'w-1=partner'
p2952
I2945
sS'w-1=operation'
p2953
I2937
sS'w+2=welcome'
p2954
I2658
sS'w-1=U.N.'
p2955
I2743
sS'dobj=marketplace'
p2956
I687
sS'ccomp=enter'
p2957
I187
sS'w+2=hardware'
p2958
I2308
sS'w+2=essential'
p2959
I2249
sS'advcl=have'
p2960
I37
sS'w+1=lethal'
p2961
I1783
sS'dobj=reactor'
p2962
I780
sS'w+1=chlorination'
p2963
I1601
sS'advmod=well'
p2964
I139
sS'nsubj=fantasy'
p2965
I1170
sS'w-2=count'
p2966
I3327
sS'w-1=Boehner'
p2967
I2693
sS'w-2=addition'
p2968
I3204
sS'nsubj=misdeed'
p2969
I1236
sS'dobj=Plan'
p2970
I409
sS'w-1=UNRWA'
p2971
I2746
sS'w-1=nurse'
p2972
I2929
sS'w-1=urgently'
p2973
I3019
sS'dobj=training'
p2974
I887
sS'nsubj=Gates'
p2975
I1023
sS'advmod=forward'
p2976
I95
sS'w+1=scholarship'
p2977
I1904
sS'w-2=polar'
p2978
I3622
sS'w+1=terrorist'
p2979
I1962
sS'w-2=faction'
p2980
I3399
sS'w-1=.'
p2981
I2682
sS'w-2=they'
p2982
I3766
sS'nsubj=tournament'
p2983
I1341
sS'w+1=within'
p2984
I2020
sS'w-1=-'
p2985
I2679
sS'dobj=country'
p2986
I524
sS'w-2=engagement'
p2987
I3380
sS'w+1=undocumented'
p2988
I1994
sS'w-1=,'
p2989
I2678
sS'w-2=country'
p2990
I3328
sS'w+2=equipment'
p2991
I2247
sS'w-2=foot'
p2992
I3417
sS'w+1=technical'
p2993
I1956
sS'w+2=time-lapse'
p2994
I2615
sS'w-2=organism'
p2995
I3599
sS'nsubj=government'
p2996
I1191
sS'w+1=member'
p2997
I1809
sS'w+2=change'
p2998
I2170
sS'w-2=defense'
p2999
I3341
sS'w-1=legislation'
p3000
I2899
sS'w+1=counseling'
p3001
I1620
sS'w-2=NATO'
p3002
I3148
sS'w-2=Intelligence'
p3003
I3117
sS'xcomp=meet'
p3004
I3893
sS'dobj=increase'
p3005
I636
sS'w-1=TeenAIDS'
p3006
I2741
sS'w+1=Ivorians'
p3007
I1513
sS'w-2=misdeed'
p3008
I3543
sS'iobj=water'
p3009
I949
sS'w+1=Republicans'
p3010
I1524
sS'w-2=enhance'
p3011
I3381
sS'prep=follow'
p3012
I1446
sS'w-2=burmese'
p3013
I3271
sS'w+1=gruesome'
p3014
I1709
sS'advmod=really'
p3015
I119
sS'w+2=therapy'
p3016
I2602
sS'advcl=ask'
p3017
I9
sS'nsubj=center'
p3018
I1122
sS'dep=unacceptable'
p3019
I380
sS'pcomp=in'
p3020
I1426
sS'w+2=United'
p3021
I2089
sS'dobj=Kosovo'
p3022
I405
sS'w-2=campaign'
p3023
I3278
sS'conj=reassure'
p3024
I295
sS'w-1=by'
p3025
I2795
sS'xcomp=sustain'
p3026
I3924
sS'w-2=French'
p3027
I3099
sS'w-1=be'
p3028
I2785
sS'advmod=eventually'
p3029
I90
sS'w+1=advanced'
p3030
I1544
sS'w-1=day'
p3031
I2821
sS'w+2=eagle'
p3032
I2230
sS'w+2=115'
p3033
I2034
sS'nsubj=visit'
p3034
I1357
sS'w+2=70'
p3035
I2050
sS'dobj=trainer'
p3036
I886
sS'w-2=final'
p3037
I3410
sS'w-2=Monday'
p3038
I3145
sS'w-2=go'
p3039
I3436
sS'w+1=effective'
p3040
I1647
sS'dobj=refuge'
p3041
I787
sS'advcl=blame'
p3042
I13
sS'mark=because'
p3043
I953
sS'aux=might'
p3044
I150
sS'dobj=expertise'
p3045
I570
sS'dobj=series'
p3046
I821
sS'advcl=stop'
p3047
I53
sS'nsubj=runoff'
p3048
I1302
sS'w-1=salmon'
p3049
I2970
sS'w-1=donor'
p3050
I2831
sS'w+2=assessment'
p3051
I2125
sS'w-2=sensor'
p3052
I3697
sS'dobj=context'
p3053
I514
sS'w+2=ugandan'
p3054
I2633
sS'w-2=ministry'
p3055
I3542
sS'dobj=statement'
p3056
I850
sS'nsubj=record'
p3057
I1287
sS'conj=find'
p3058
I260
sS'w-1=authority'
p3059
I2784
sS'advcl=stretch'
p3060
I54
sS'w+2=treatment'
p3061
I2626
sS'w+1=because'
p3062
I1576
sS'dep=though'
p3063
I377
sS'w-1=again'
p3064
I2762
sS'w+2=200'
p3065
I2036
sS'w+1=few'
p3066
I1678
sS'w-1=photo'
p3067
I2948
sS'prep=depend'
p3068
I1442
sS'w-2=agency'
p3069
I3208
sS'w-2=post-conflict'
p3070
I3628
sS'dobj=notice'
p3071
I724
sS'w-1=which'
p3072
I3029
sS'w+1=people'
p3073
I1857
sS'w+1=nuclear'
p3074
I1841
sS'w+2=can'
p3075
I2159
sS'dobj=Zimbabwe'
p3076
I423
sS'dep=include'
p3077
I353
sS'dobj=month'
p3078
I707
sS'w-2=commitment'
p3079
I3305
sS'w-1=from'
p3080
I2859
sS'w-2=leather-bound'
p3081
I3514
sS'w-2=effort'
p3082
I3372
sS'w-1=only'
p3083
I2936
sS'w+2=by'
p3084
I2157
sS'dobj=solution'
p3085
I838
sS'dobj=electricity'
p3086
I554
sS'advmod=allegedly'
p3087
I72
sS'dobj=Russia'
p3088
I413
sS'conj=prove'
p3089
I289
sS'w+2=South'
p3090
I2082
sS'w-2=group'
p3091
I3441
sS'dobj=break'
p3092
I479
sS'w-2=benefit'
p3093
I3259
sS'w+2=sense'
p3094
I2539
sS'nsubjpass=#PRP#'
p3095
I1370
sS'advmod=too'
p3096
I132
sS'w+2=huge'
p3097
I2321
sS'w-2=Djibouti'
p3098
I3091
sS'dobj=ability'
p3099
I425
sS'aux=would'
p3100
I155
sS'dobj=anti-retroviral'
p3101
I448
sS'w-1=it'
p3102
I2887
sS'w+1=Indonesia'
p3103
I1511
sS'w+2=much'
p3104
I2418
sS'dobj=website'
p3105
I918
sS'w+1=credible'
p3106
I1622
sS'w+1=arm'
p3107
I1563
sS'conj=provision'
p3108
I291
sS'nsubj=French'
p3109
I1020
sS'nsubj=method'
p3110
I1231
sS'w-1=adjust'
p3111
I2760
sS'w-1=UNHCR'
p3112
I2745
sS'nsubj=clean'
p3113
I1128
sS'w-2=U.N.'
p3114
I3183
sS'xcomp=fortify'
p3115
I3871
sS'w+2=Pakistan'
p3116
I2077
sS'w-2=pole'
p3117
I3623
sS'nsubj=Taylor'
p3118
I1068
sS'w-2=a'
p3119
I3196
sS'w+1=proper'
p3120
I1873
sS'w+1=scant'
p3121
I1903
sS'w-2=Korea'
p3122
I3128
sS'w-2=nurse'
p3123
I3578
sS'w-1=Day'
p3124
I2707
sS'w-2=immediately'
p3125
I3469
sS'advmod=ago'
p3126
I70
sS'w+2=need'
p3127
I2426
sS'w-2=way'
p3128
I3807
sS'w-1=method'
p3129
I2912
sS'w+1=and'
p3130
I1555
sS'w+1=subsidy'
p3131
I1941
sS'dobj=base'
p3132
I468
sS'w+1=interim'
p3133
I1761
sS'mark=though'
p3134
I962
sS'w+2=candid'
p3135
I2161
sS'w+2=thought'
p3136
I2608
sS'dobj=check'
p3137
I495
sS'w+2=conditioning'
p3138
I2186
sS'w-2=facility'
p3139
I3398
sS'w-2=lot'
p3140
I3526
sS'w+1=backup'
p3141
I1572
sS'ccomp=continue'
p3142
I180
sS'w-2=guilty'
p3143
I3445
sS'xcomp=improve'
p3144
I3882
sS'w-1=illegally'
p3145
I2875
sS'w+1=any'
p3146
I1560
sS'w+2=even'
p3147
I2250
sS'prt=up'
p3148
I1471
sS'w-2=late'
p3149
I3505
sS'w-1=firm'
p3150
I2850
sS'w+1=almost'
p3151
I1552
sS'w-2=media'
p3152
I3533
sS'nsubj=Kenya'
p3153
I1039
sS'w+2=line'
p3154
I2376
sS'w+2=drinking'
p3155
I2225
sS'w-2=live'
p3156
I3521
sS'w+2=capability'
p3157
I2162
sS'conj=lot'
p3158
I274
sS'advmod=together'
p3159
I131
sS'w+1=identity'
p3160
I1740
sS'w-2=State'
p3161
I3174
sS'w-1=micro-credit'
p3162
I2913
sS'w-1=Cervarix'
p3163
I2698
sS'w+2=Afghan'
p3164
I2057
sS'w+1=accountability'
p3165
I1538
sS'dobj=ice'
p3166
I629
sS'w+2=Ukraine'
p3167
I2088
sS'dobj=sense'
p3168
I820
sS'w-1=owner'
p3169
I2943
sS'w-2=building'
p3170
I3268
sS'w+1=trainer'
p3171
I1983
sS'dobj=refugee'
p3172
I788
sS'parataxis=add'
p3173
I1400
sS'partmod=promote'
p3174
I1418
sS'w+2=african'
p3175
I2104
sS'dobj=insulation'
p3176
I645
sS'nsubj=UNHCR'
p3177
I1077
sS'advmod=directly'
p3178
I86
sS'dobj=continuity'
p3179
I515
sS'w-2=intelligence'
p3180
I3486
sS'w-2=mind'
p3181
I3540
sS'w-2=difficulty'
p3182
I3355
sS'w-2=SLP'
p3183
I3169
sS'nsubj=talk'
p3184
I1329
sS'w-1=Fil'
p3185
I2713
sS'advmod=internally'
p3186
I103
sS'w-2=least'
p3187
I3513
sS'dobj=ammunition'
p3188
I444
sS'dobj=scenario'
p3189
I814
sS'w+1=solution'
p3190
I1925
sS'w-1=network'
p3191
I2925
sS'w+2=work'
p3192
I2673
sS'w+1=have'
p3193
I1718
sS'w-2=particularly'
p3194
I3607
sS'w+1=efficient'
p3195
I1648
sS'w-1=Industries'
p3196
I2719
sS'mark=than'
p3197
I961
sS'w-2=ago'
p3198
I3210
sS'iobj=security'
p3199
I944
sS'w+2=similar'
p3200
I2551
sS'w-2=clearly'
p3201
I3295
sS'dobj=guideline'
p3202
I613
sS'w-2=folk'
p3203
I3416
sS'w+2=concrete'
p3204
I2184
sS'w+2=2004'
p3205
I2037
sS'w+2=report'
p3206
I2518
sS'w-2=show'
p3207
I3708
sS'xcomp=provide'
p3208
I3905
sS'w+2=extremely'
p3209
I2260
sS'xcomp=call'
p3210
I3849
sS'w+2=vital'
p3211
I2648
sS'w+1=tool'
p3212
I1981
sS'w-2=tax'
p3213
I3748
sS'w-2=tetanus'
p3214
I3758
sS'w+1=peacekeeping'
p3215
I1856
sS'w+2=security'
p3216
I2538
sS'w+1=patient'
p3217
I1855
sS'w-2=guideline'
p3218
I3444
sS'w-2=fossilized'
p3219
I3423
sS'w+2=total'
p3220
I2620
sS'conj=imbue'
p3221
I267
sS'w+2=more'
p3222
I2413
sS'w+1=many'
p3223
I1801
sS'w-2=trust'
p3224
I3789
sS'dobj=assistance'
p3225
I457
sS'w+1=reliable'
p3226
I1886
sS'nsubj=friend'
p3227
I1186
sS'w+2=birthing'
p3228
I2143
sS'dobj=school'
p3229
I816
sS'nsubj=survey'
p3230
I1327
sS'w-1=deal'
p3231
I2822
sS'w+2=criterion'
p3232
I2203
sS'dobj=worth'
p3233
I924
sS'w+2=possible'
p3234
I2485
sS'dobj=game'
p3235
I601
sS'nsubj=site'
p3236
I1311
sS'conj=offer'
p3237
I284
sS'nsubj=land'
p3238
I1213
sS'nsubj=lane'
p3239
I1214
sS'w-1=Zone'
p3240
I2754
sS'conj=ameliorate'
p3241
I232
sS'w-2=600'
p3242
I3054
sS'w+1=ideal'
p3243
I1739
sS'ccomp=give'
p3244
I194
sS'dobj=incitement'
p3245
I634
sS'dobj=insight'
p3246
I643
sS'nsubj=benchmark'
p3247
I1112
sS'dobj=skill'
p3248
I835
sS'dep=because'
p3249
I332
sS'dep=able'
p3250
I326
sS'w-2=Delhi'
p3251
I3088
sS'nsubj=project'
p3252
I1281
sS'w+2=against'
p3253
I2106
sS'w+2=20'
p3254
I2035
sS'w-1=freeze'
p3255
I2858
sS'w+1=well-paid'
p3256
I2016
sS'iobj=winner'
p3257
I950
sS'w+1=nearly'
p3258
I1827
sS'advcl=focus'
p3259
I32
sS'w-2=communist'
p3260
I3306
sS'ccomp=worse'
p3261
I226
sS'w-1=country'
p3262
I2817
sS'w-1=record'
p3263
I2961
sS'w-1=Estimate'
p3264
I2709
sS'w-2=international'
p3265
I3489
sS'w-2=Kennedy'
p3266
I3126
sS'w-2=list'
p3267
I3520
sS'w-1=weapon'
p3268
I3027
sS'w+1=extensive'
p3269
I1669
sS'w+2=momentum'
p3270
I2409
sS'w-2=shelter'
p3271
I3702
sS'w-2=challenge'
p3272
I3284
sS'dobj=mechanism'
p3273
I692
sS'advcl=analyze'
p3274
I7
sS'w-2=Central'
p3275
I3077
sS'tmod=today'
p3276
I1482
sS'prep=while'
p3277
I1467
sS'w-2=city'
p3278
I3290
sS'w-2=traditionally'
p3279
I3781
sS'dobj=cover'
p3280
I525
sS'w-2=aid'
p3281
I3213
sS'dobj=model'
p3282
I702
sS'w-2=Union'
p3283
I3186
sS'w+2=three'
p3284
I2611
sS'w-2=generator'
p3285
I3433
sS'w-2=properly'
p3286
I3641
sS'w-2=aim'
p3287
I3214
sS'w+1=leadership'
p3288
I1780
sS'dobj=side'
p3289
I830
sS'dobj=alternative'
p3290
I443
sS'dobj=asset'
p3291
I456
sS'w-1=Washington'
p3292
I2751
sS'w-1=education'
p3293
I2837
sS'xcomp=live'
p3294
I3889
sS'dep=mean'
p3295
I360
sS'w-2=ready'
p3296
I3650
sS'dobj=application'
p3297
I450
sS'nsubj=result'
p3298
I1296
sS'w+2=opening'
p3299
I2450
sS'xcomp=investigate'
p3300
I3885
sS'w+1=considerable'
p3301
I1612
sS'w+1=visitor'
p3302
I2007
sS'prep=for'
p3303
I1447
sS'dep=that'
p3304
I376
sS'dobj=student'
p3305
I854
sS'nsubj=force'
p3306
I1182
sS'dobj=iaea'
p3307
I628
sS'w-2=appeal'
p3308
I3230
sS'w-2=season'
p3309
I3690
sS'nsubj=Bush'
p3310
I987
sS'nsubj=african'
p3311
I1095
sS'w+2=au'
p3312
I2131
sS'advcl=want'
p3313
I63
sS'w+2=ap'
p3314
I2119
sS'w+2=60'
p3315
I2048
sS'nsubj=media'
p3316
I1228
sS'w+2=as'
p3317
I2124
sS'w-2=Asia'
p3318
I3065
sS'ccomp=earn'
p3319
I185
sS'prep=start'
p3320
I1458
sS'w+2=prioritization'
p3321
I2490
sS'w-2=appear'
p3322
I3231
sS'w-2=satellite'
p3323
I3683
sS'dobj=outcome'
p3324
I734
sS'iobj=Liberia'
p3325
I928
sS'w-2=137'
p3326
I3048
sS'xcomp=equip'
p3327
I3865
sS'nsubj=stunt'
p3328
I1324
sS'w-2=with'
p3329
I3820
sS'dobj=army'
p3330
I454
sS'w-2=irrelevant'
p3331
I3493
sS'advmod=long'
p3332
I106
sS'advmod=always'
p3333
I77
sS'pcomp=to'
p3334
I1428
sS'w-2=also'
p3335
I3221
sS'nsubj=couple'
p3336
I1145
sS'w-2=some'
p3337
I3717
sS'conj=improve'
p3338
I269
sS'w+2=refuge'
p3339
I2512
sS'parataxis=understand'
p3340
I1409
sS'iobj=support'
p3341
I946
sS'w-1=information'
p3342
I2882
sS'w-2=investment'
p3343
I3490
sS'w-2=drug'
p3344
I3365
sS'dobj=Clinton'
p3345
I394
sS'w+1=advice'
p3346
I1545
sS'nsubj=Colombia'
p3347
I996
sS'dobj=assurance'
p3348
I458
sS'dobj=choice'
p3349
I497
sS'w+1=short-term'
p3350
I1915
sS'w+2=plan'
p3351
I2476
sS'w+2=humanitarian'
p3352
I2322
sS'nsubj=TeenAIDS'
p3353
I1070
sS'w+2=blackwater'
p3354
I2144
sS'nsubj=treaty'
p3355
I1344
sS'w-2=tournament'
p3356
I3778
sS'w+1=urgently'
p3357
I2002
sS'dobj=development'
p3358
I540
sS'dobj=device'
p3359
I541
sS'nsubj=mining'
p3360
I1235
sS'nsubj=Hooper'
p3361
I1028
sS'w+2=with'
p3362
I2669
sS'conj=enforce'
p3363
I255
sS'w-2=testify'
p3364
I3757
sS'w+2=medical'
p3365
I2399
sS'w+1=much'
p3366
I1822
sS'w+2=model'
p3367
I2407
sS'nsubj=Venezuela'
p3368
I1081
sS'w+1=certain'
p3369
I1596
sS'tmod=friend'
p3370
I1479
sS'w-1=include'
p3371
I2881
sS'w-2=subsidize'
p3372
I3732
sS'w+2=withfuel'
p3373
I2670
sS'dobj=vote'
p3374
I912
sS'w-2=hospital'
p3375
I3458
sS'dobj=breeding'
p3376
I480
sS'nsubj=encyclopedia'
p3377
I1163
sS'advcl=continue'
p3378
I19
sS'conj=augment'
p3379
I235
sS'advcl=allow'
p3380
I6
sS'ccomp=use'
p3381
I222
sS'w+2=aid'
p3382
I2110
sS'w-2=seek'
p3383
I3694
sS'w-1=Pakistan'
p3384
I2732
sS'nsubj=Jatropha'
p3385
I1037
sS'w-2=month'
p3386
I3550
sS'w+2=or'
p3387
I2453
sS'iobj=map'
p3388
I940
sS'w+1=hydroelectric'
p3389
I1736
sS'w+2=Marine'
p3390
I2073
sS'nsubjpass=most'
p3391
I1386
sS'w+2=signal'
p3392
I2549
sS'w+1=tangible'
p3393
I1951
sS'w+1=vocational'
p3394
I2010
sS'w+2=of'
p3395
I2445
sS'w+1=testimony'
p3396
I1963
sS'dobj=example'
p3397
I567
sS'w+2=market'
p3398
I2392
sS'w+2=on'
p3399
I2447
sS'w-2=forward'
p3400
I3422
sS'w-1=immediately'
p3401
I2877
sS'nsubj=skeleton'
p3402
I1312
sS'dobj=resource'
p3403
I797
sS'w+2=facility'
p3404
I2262
sS'dobj=advice'
p3405
I435
sS'w+1=so'
p3406
I1921
sS'prep=into'
p3407
I1452
sS'w-1=Henry'
p3408
I2718
sS'dobj=connectivity'
p3409
I512
sS'w+2=series'
p3410
I2540
sS'dobj=labor'
p3411
I661
sS'nsubj=research'
p3412
I1292
sS'w+1=information'
p3413
I1753
sS'w+2=stability'
p3414
I2567
sS'w+1=administrator'
p3415
I1542
sS'w+1=Zimbabwe'
p3416
I1532
sS'w-1=while'
p3417
I3030
sS'nsubjpass=model'
p3418
I1385
sS'w-2=chaos'
p3419
I3285
sS'prep=without'
p3420
I1470
sS'dobj=fingerprint'
p3421
I584
sS'w+2=military'
p3422
I2404
sS'w-1=report'
p3423
I2963
sS'w+1=acceptance'
p3424
I1535
sS'w-1=Chan'
p3425
I2700
sS'w+1=welfare'
p3426
I2015
sS'w+2=voice'
p3427
I2650
sS'advcl=way'
p3428
I64
sS'w-2=bail'
p3429
I3249
sS'nsubj=history'
p3430
I1196
sS'w+2=five'
p3431
I2278
sS'w-1=she'
p3432
I2977
sS'conj=not'
p3433
I283
sS'w+2=from'
p3434
I2290
sS'w+2=man'
p3435
I2388
sS'w+2=half'
p3436
I2307
sS'w+2=excuse'
p3437
I2254
sS'nsubj=work'
p3438
I1367
sS'iobj=contrast'
p3439
I932
sS'w-2=Bollywood'
p3440
I3072
sS'w+2=dossier'
p3441
I2223
sS'advmod=often'
p3442
I115
sS'dobj=variety'
p3443
I903
sS'xcomp=aid'
p3444
I3836
sS'w-2=responsible'
p3445
I3672
sS'w-2=fail'
p3446
I3400
sS'w-2=partner'
p3447
I3608
sS'w-2=basis'
p3448
I3251
sS'conj=demonstrate'
p3449
I245
sS'w+1=psychological'
p3450
I1875
sS'w+2=case'
p3451
I2165
sS'w+1=reminder'
p3452
I1888
sS'w+1=negotiation'
p3453
I1831
sS'ccomp=need'
p3454
I204
sS'w+1=coverage'
p3455
I1621
sS'w+2=indication'
p3456
I2337
sS'w+1=over'
p3457
I1852
sS'w-2=disaster'
p3458
I3356
sS'dobj=arm'
p3459
I453
sS'dobj=tip'
p3460
I879
sS'conj=strong'
p3461
I307
sS'xcomp=aware'
p3462
I3841
sS'w-2=here'
p3463
I3453
sS'conj=treat'
p3464
I315
sS'nsubj=Damascus'
p3465
I1002
sS'nsubj=Tehran'
p3466
I1071
sS'w-1=Committee'
p3467
I2702
sS'w+2=kind'
p3468
I2356
sS'w-1=statue'
p3469
I2986
sS'w-2=space'
p3470
I3719
sS'w+1=several'
p3471
I1911
sS'w-2=Iraq'
p3472
I3120
sS'w-2=Yemen'
p3473
I3193
sS'nsubj=Burton'
p3474
I986
sS'ccomp=help'
p3475
I197
sS'w+2=encouragement'
p3476
I2241
sS'nsubj=edition'
p3477
I1159
sS'dobj=planner'
p3478
I757
sS'w-2=aircraft'
p3479
I3215
sS'w-2=child'
p3480
I3287
sS'dobj=procedure'
p3481
I767
sS'w-2=nut'
p3482
I3579
sS'w+1=broader'
p3483
I1588
sS'aux=do'
p3484
I147
sS'w-2=if'
p3485
I3467
sS'w+2=news'
p3486
I2431
sS'nsubj=firm'
p3487
I1178
sS'w-2=India'
p3488
I3115
sS'w-2=ocean'
p3489
I3583
sS'w+1=either'
p3490
I1649
sS'w+1=eventual'
p3491
I1663
sS'w-2=Bhutto'
p3492
I3070
sS'advmod=already'
p3493
I75
sS'advcl=consume'
p3494
I18
sS'dobj=product'
p3495
I768
sS'ccomp=build'
p3496
I174
sS'dobj=capital'
p3497
I487
sS'w+1=preventive'
p3498
I1869
sS'w+2=U.S.'
p3499
I2087
sS'w+2=another'
p3500
I2116
sS'nsubj=people'
p3501
I1262
sS'w+2=sort'
p3502
I2561
sS'w-2=mobilize'
p3503
I3546
sS'w+1=Tehran'
p3504
I1527
sS'w-1=Video'
p3505
I2749
sS'nsubj=commander'
p3506
I1132
sS'dobj=employee'
p3507
I555
sS'w+1=tent'
p3508
I1961
sS'nsubj=foundation'
p3509
I1184
sS'w-2=design'
p3510
I3347
sS'advcl=complete'
p3511
I17
sS'dobj=rider'
p3512
I804
sS'w-1=sanctuary'
p3513
I2971
sS'xcomp=start'
p3514
I3919
sS'w-1=vaccine'
p3515
I3020
sS'ccomp=highlight'
p3516
I198
sS'w-2=States'
p3517
I3175
sS'nsubj=reconciliation'
p3518
I1286
sS'w+2=citizenship'
p3519
I2174
sS'w-2=cycle'
p3520
I3333
sS'w-2=--'
p3521
I3045
sS'w-2=though'
p3522
I3772
sS'conj=like'
p3523
I273
sS'w-2=dose'
p3524
I3363
sS'w+2=tip'
p3525
I2616
sS'w-2=nation'
p3526
I3561
sS'dobj=Ankara'
p3527
I391
sS'w+2=dental'
p3528
I2215
sS'w+2=list'
p3529
I2378
sS'advmod=longer'
p3530
I107
sS'w+2=democratic'
p3531
I2214
sS'w+1=foreign'
p3532
I1690
sS'nsubj=concept'
p3533
I1139
sS'w-2=television'
p3534
I3754
sS'w+2=knowledge'
p3535
I2358
sS'nsubj=assistance'
p3536
I1106
sS'w+2=asset'
p3537
I2126
sS'nsubj=tanker'
p3538
I1330
sS'w+1=one'
p3539
I1845
sS'w-2=determine'
p3540
I3349
sS'rel=of'
p3541
I1475
sS'w+2=help'
p3542
I2313
sS'w+2=production'
p3543
I2494
sS'w+2=sub-saharan'
p3544
I2579
sS'nsubj=act'
p3545
I1092
sS'w+1=relief'
p3546
I1887
sS'w+1=daily'
p3547
I1626
sS'w+2=committee'
p3548
I2180
sS"w+2=''"
p3549
I2025
sS'nsubj=country'
p3550
I1144
sS'w-2=help'
p3551
I3451
sS'w-1=this'
p3552
I3005
sS'w+2=1.3'
p3553
I2030
sS'w+2=November'
p3554
I2075
sS'w+2=strict'
p3555
I2575
sS'dep=whoever'
p3556
I384
sS'w+1=Turkey'
p3557
I1528
sS'w-2=accuse'
p3558
I3200
sS'conj=try'
p3559
I316
sS'nsubj=struggle'
p3560
I1322
sS'w+1=even'
p3561
I1662
sS'w+2=1.7'
p3562
I2031
sS'w-2=program'
p3563
I3637
sS'w+2=threat'
p3564
I2610
sS'w-2=separate'
p3565
I3698
sS'dobj=briefing'
p3566
I481
sS'ccomp=burnt'
p3567
I175
sS'w-1=States'
p3568
I2739
sS'conj=work'
p3569
I320
sS'dobj=weaponry'
p3570
I917
sS'dobj=autonomy'
p3571
I462
sS'xcomp=get'
p3572
I3873
sS'w+2=notification'
p3573
I2439
sS'w+1=statistics'
p3574
I1935
sS"xcomp=shi'ite"
p3575
I3916
sS'dobj=margin'
p3576
I684
sS'prep=under'
p3577
I1465
sS'w+2=Clinton'
p3578
I2061
sS'w+2=50'
p3579
I2046
sS'w+2=Tsvangirai'
p3580
I2085
sS'w-2=use'
p3581
I3797
sS'w+1=al-qaida'
p3582
I1550
sS'prep=either'
p3583
I1445
sS'dobj=insurgent'
p3584
I647
sS'dep=little'
p3585
I359
sS'w+2=source'
p3586
I2562
sS'w-1=without'
p3587
I3034
sS'w+1=basic'
p3588
I1574
sS'w-1=but'
p3589
I2794
sS'dep=know'
p3590
I356
sS'nsubj=film'
p3591
I1175
sS'conj=hold'
p3592
I266
sS'advcl=flee'
p3593
I30
sS'w+1=free'
p3594
I1692
sS'w+1=home'
p3595
I1730
sS'w-2=Organization'
p3596
I3153
sS'w+2=hope'
p3597
I2319
sS'w+2=broad'
p3598
I2152
sS'w-1=already'
p3599
I2768
sS'w-2=however'
p3600
I3461
sS'w+2=support'
p3601
I2586
sS'dobj=voiceover'
p3602
I911
sS'nsubj=look'
p3603
I1223
sS'mark=until'
p3604
I965
sS'w-2=roadside'
p3605
I3677
sS'w-2=trade'
p3606
I3780
sS'w+2=group'
p3607
I2305
sS'dobj=type'
p3608
I897
sS'nsubj=kind'
p3609
I1210
sS'w+1=justice'
p3610
I1769
sS'w-1=someday'
p3611
I2983
sS"w+1=''"
p3612
I1485
sS'prep=besides'
p3613
I1440
sS'xcomp=avoid'
p3614
I3840
sS'w+2=contrast'
p3615
I2191
sS'dobj=toilet'
p3616
I880
sS'nsubj=remark'
p3617
I1289
sS'w-1=Commonwealth'
p3618
I2703
sS'nsubj=boat'
p3619
I1116
sS'w+1=backing'
p3620
I1571
sS'advcl=kill'
p3621
I39
sS'w+1=against'
p3622
I1546
sS'rel=in'
p3623
I1474
sS'w-2=June'
p3624
I3125
sS'w+2=additional'
p3625
I2099
sS'nsubjpass=net'
p3626
I1387
sS'ccomp=able'
p3627
I162
sS'advmod=and'
p3628
I78
sS'w-2=God'
p3629
I3107
sS'w+1=mental'
p3630
I1811
sS'dobj=papers'
p3631
I737
sS'dobj=family'
p3632
I574
sS'xcomp=secure'
p3633
I3914
sS'w-2=assistance'
p3634
I3243
sS'nsubj=Boehner'
p3635
I984
sS'w+1=airplane'
p3636
I1549
sS'dobj=deduction'
p3637
I533
sS'w+1=troops'
p3638
I1989
sS'mark=before'
p3639
I954
sS'dobj=rest'
p3640
I800
sS'w-2=money'
p3641
I3549
sS'nsubjpass=resource'
p3642
I1393
sS'w-2=center'
p3643
I3283
sS'aux=must'
p3644
I151
sS'nsubj=Rwanda'
p3645
I1060
sS'w-2=Africans'
p3646
I3061
sS'w-1=declaration'
p3647
I2824
sS'w+1=skill'
p3648
I1919
sS'w+2=item'
p3649
I2350
sS'w-1=site'
p3650
I2981
sS'w-1=worker'
p3651
I3035
sS'w-1=might'
p3652
I2914
sS'dobj=scholarship'
p3653
I815
sS'w-1=hybrid'
p3654
I2874
sS'w-2=authority'
p3655
I3247
sS'w-1=into'
p3656
I2884
sS'w+1=$'
p3657
I1484
sS'w-2=be'
p3658
I3254
sS'nsubj=laser'
p3659
I1215
sS'w-2=what'
p3660
I3811
sS'w-2=missile'
p3661
I3544
sS'w-2=park'
p3662
I3605
sS'w+1=report'
p3663
I1890
sS'xcomp=challenge'
p3664
I3850
sS'xcomp=distribute'
p3665
I3861
sS'w+1=three'
p3666
I1973
sS'dobj=criterion'
p3667
I528
sS'w-1=Durbin'
p3668
I2708
sS'nsubj=Bank'
p3669
I982
sS'w+1=opportunity'
p3670
I1847
sS'w+1=mechanism'
p3671
I1806
sS'w+2=3'
p3672
I2039
sS'dobj=notification'
p3673
I725
sS'w+2=overly'
p3674
I2457
sS'w+1=sole'
p3675
I1924
sS'w+2=sparse'
p3676
I2565
sS'w-2=by'
p3677
I3275
sS'dobj=mosaic'
p3678
I709
sS'acomp=enough'
p3679
I0
sS'dobj=airlift'
p3680
I439
sS'w+1=lucrative'
p3681
I1799
sS'w+2=alternative'
p3682
I2114
sS'dobj=foundation'
p3683
I593
sS'xcomp=conducive'
p3684
I3854
sS'w-2=might'
p3685
I3537
sS'w+1=,'
p3686
I1486
sS'w-2=distribute'
p3687
I3359
sS'w-2=medical'
p3688
I3534
sS'dobj=rifle'
p3689
I805
sS'dobj=$'
p3690
I388
sS'dobj=charity'
p3691
I494
sS'w-2=clean'
p3692
I3293
sS'w+2=such'
p3693
I2581
sS'w+1=all'
p3694
I1551
sS'w-2=town'
p3695
I3779
sS'dobj=system'
p3696
I864
sS'w+1=in-depth'
p3697
I1747
sS'w-2=Homeboy'
p3698
I3112
sS'w-2=Migration'
p3699
I3139
sS'w+1=west'
p3700
I2017
sS'w+1=traumatize'
p3701
I1987
sS'conj=follow'
p3702
I261
sS'w+1=hiv\\/aids'
p3703
I1729
sS'w-2=Master'
p3704
I3134
sS'w-2=coast'
p3705
I3296
sS'nsubj=Chan'
p3706
I995
sS'w+2=.'
p3707
I2028
sS'dobj=society'
p3708
I837
sS'dobj=r'
p3709
I778
sS'w-2=want'
p3710
I3805
sS'w+2=any'
p3711
I2118
sS'nsubj=Camilleri'
p3712
I989
sS'partmod=speak'
p3713
I1421
sS'conj=see'
p3714
I302
sS'dobj=list'
p3715
I675
sS'w+2=pick'
p3716
I2473
sS'w+1=lawmaker'
p3717
I1777
sS'w+1=access'
p3718
I1536
sS'w-2=amateur'
p3719
I3223
sS'w-2=which'
p3720
I3814
sS'dobj=a'
p3721
I424
sS'w-2=system'
p3722
I3743
sS'dobj=farmer'
p3723
I575
sS'w-2=Nations'
p3724
I3149
sS'w+1=no'
p3725
I1835
sS'w+1=fertilizer'
p3726
I1677
sS'conj=set'
p3727
I304
sS'w+1=written'
p3728
I2022
sS'dobj=petroleum'
p3729
I750
sS'tmod=#DATE#'
p3730
I1477
sS'w+2=enough'
p3731
I2245
sS'w+2=member'
p3732
I2401
sS'w+2=declaration'
p3733
I2211
sS'nsubj=library'
p3734
I1220
sS'dobj=communication'
p3735
I502
sS'w-1=visitor'
p3736
I3023
sS'w-2=national'
p3737
I3562
sS'w+2=veteran'
p3738
I2647
sS'w+2=only'
p3739
I2449
sS'w+1=electric'
p3740
I1650
sS'nsubj=Amazon'
p3741
I977
sS'w+1=spending'
p3742
I1933
sS'w+1=necessary'
p3743
I1828
sS'w+2=no'
p3744
I2434
sS'nsubj=session'
p3745
I1308
sS'w-2=she'
p3746
I3701
sS'w+2=value'
p3747
I2643
sS'w-2=scientist'
p3748
I3688
sS'w+2=feeding'
p3749
I2268
sS'w-2=hurricane'
p3750
I3464
sS'w+2=scrutiny'
p3751
I2535
sS'dep=difficult'
p3752
I345
sS'nsubj=America'
p3753
I978
sS'w-2=convoy'
p3754
I3319
sS'advcl=announce'
p3755
I8
sS'nsubj=Washington'
p3756
I1085
sS'advcl=occur'
p3757
I45
sS'w+2=illegal'
p3758
I2327
sS'w-2=say'
p3759
I3684
sS'w+2=blank'
p3760
I2145
sS'w+2=the'
p3761
I2600
sS'prep=at'
p3762
I1438
sS'nsubj=U.S.'
p3763
I1076
sS'prep=as'
p3764
I1437
sS'ccomp=keep'
p3765
I201
sS'w-2=buy'
p3766
I3274
sS'w-1=delegate'
p3767
I2825
sS'dobj=approach'
p3768
I451
sS'w+1=both'
p3769
I1584
sS'w-1=skeleton'
p3770
I2982
sS'dobj=entertainment'
p3771
I559
sS'w-2=access'
p3772
I3199
sS'dobj=filmmaker'
p3773
I582
sS'w-2=but'
p3774
I3273
sS"w-1='"
p3775
I2675
sS'w+2=relate'
p3776
I2515
sS'advcl=successful'
p3777
I55
sS'nsubj=municipality'
p3778
I1241
sS'w+1=lifelong'
p3779
I1787
sS'dobj=agency'
p3780
I436
sS'mark=although'
p3781
I951
sS'dobj=message'
p3782
I698
sS'w+2=material'
p3783
I2394
sS'dobj=share'
p3784
I826
sS'ccomp=thrill'
p3785
I217
sS'w+1=moderate'
p3786
I1816
sS'w+1=every'
p3787
I1664
sS'dobj=technology'
p3788
I869
sS'w-2=few'
p3789
I3406
sS'w+1=kid'
p3790
I1772
sS'w-1=Pace'
p3791
I2731
sS'prep=through'
p3792
I1461
sS'w+2=one'
p3793
I2448
sS'w+1=security'
p3794
I1908
sS'dobj=opportunity'
p3795
I732
sS'w+1=equal'
p3796
I1659
sS'w+1=another'
p3797
I1556
sS'w-2=free'
p3798
I3425
sS'w+1=supplies'
p3799
I1947
sS'w-2=cash'
p3800
I3282
sS'dobj=internet'
p3801
I650
sS'w+1=petroleum'
p3802
I1858
sS'dep=accept'
p3803
I327
sS'advcl=grow'
p3804
I36
sS'nsubj=pact'
p3805
I1255
sS'nsubj=constitution'
p3806
I1140
sS'dobj=facility'
p3807
I573
sS'w-2=willing'
p3808
I3818
sS'w-1=`'
p3809
I2755
sS'w+1=childbirth'
p3810
I1599
sS'nsubjpass=which'
p3811
I1399
sS'w+1=toilet'
p3812
I1979
sS'dobj=acceptance'
p3813
I426
sS'w+1=rider'
p3814
I1896
sS'dobj=view'
p3815
I907
sS'w-2=so'
p3816
I3713
sS'xcomp=struggle'
p3817
I3921
sS'mark=as'
p3818
I952
sS'w-2=House'
p3819
I3113
sS'dobj=generator'
p3820
I602
sS'dobj=service'
p3821
I822
sS'dobj=land'
p3822
I662
sS'nsubj=Union'
p3823
I1079
sS'w+2=economic'
p3824
I2232
sS'w-2=hard'
p3825
I3446
sS'dobj=supplies'
p3826
I858
sS'w+2=stronger'
p3827
I2577
sS'partmod=found'
p3828
I1413
sS'nsubj=measure'
p3829
I1227
sS'w-2=biodiversity'
p3830
I3263
sS'w+1=increase'
p3831
I1751
sS'w-1=Gadhafi'
p3832
I2715
sS'nsubj=Act'
p3833
I972
sS'advmod=that'
p3834
I128
sS'w+1=stimulus'
p3835
I1937
sS'w+2=they'
p3836
I2604
sS'w+1=Mexico'
p3837
I1519
sS'w+1=President'
p3838
I1523
sS'nsubj=opposition'
p3839
I1253
sS'w-2=industrialization'
p3840
I3478
sS'w-1=London'
p3841
I2727
sS'advmod=than'
p3842
I127
sS'w-2=Jatropha'
p3843
I3124
sS'w-1=War'
p3844
I2750
sS'dep=need'
p3845
I363
sS'w-2=register'
p3846
I3656
sS'ccomp=useful'
p3847
I223
sS'nsubj=fish'
p3848
I1179
sS'nsubj=Petraeus'
p3849
I1055
sS'w+2=refugee'
p3850
I2513
sS'w-2=call'
p3851
I3276
sS'w-2=development'
p3852
I3351
sS'dobj=year'
p3853
I925
sS'w+1=entertainment'
p3854
I1658
sS'dobj=linkage'
p3855
I674
sS'w+2=assistance'
p3856
I2127
sS'w+1=last'
p3857
I1774
sS'w+2=cost'
p3858
I2198
sS'nsubj=Webb'
p3859
I1087
sS'advcl=hold'
p3860
I38
sS'nsubj=trip'
p3861
I1346
sS'w+2=date'
p3862
I2208
sS'conj=move'
p3863
I280
sS'advmod=how'
p3864
I98
sS'w+1=run'
p3865
I1897
sS'w+1=anti-malaria'
p3866
I1557
sS'w+1=guideline'
p3867
I1712
sS'w-2=row'
p3868
I3679
sS'w-2=evening'
p3869
I3387
sS'nsubj=weapon'
p3870
I1361
sS'dobj=haven'
p3871
I618
sS'w-2=Moammar'
p3872
I3143
sS'w-1=cereal'
p3873
I2802
sS'ccomp=explain'
p3874
I189
sS'w-1=member'
p3875
I2911
sS'nsubj=module'
p3876
I1238
sS'ccomp=#PRP#'
p3877
I161
sS'dobj=equipment'
p3878
I562
sS'advmod=reportedly'
p3879
I121
sS'w+1=naval'
p3880
I1825
sS'advcl=unemployed'
p3881
I60
sS'w+1=300'
p3882
I1497
sS'dobj=none'
p3883
I721
sS'w-1=we'
p3884
I3026
sS'xcomp=fund'
p3885
I3872
sS'nsubj=Zimbabwe'
p3886
I1090
sS'partmod=observe'
p3887
I1416
sS'conj=satisfy'
p3888
I300
sS'w+2=intellectual'
p3889
I2344
sS'w-2=latest'
p3890
I3506
sS'w+2=main'
p3891
I2387
sS'w+1=such'
p3892
I1943
sS'advmod=matter'
p3893
I109
sS'w-2=Baghdad'
p3894
I3068
sS'w+2=expertise'
p3895
I2255
sS'nsubj=worker'
p3896
I1368
sS'w-2=wool'
p3897
I3822
sS'nsubj=Iran'
p3898
I1032
sS'w+2=7'
p3899
I2049
sS'w+2=4'
p3900
I2042
sS'w+2=5'
p3901
I2045
sS'w+2=principle'
p3902
I2489
sS'dep=detect'
p3903
I342
sS'w+1=some'
p3904
I1926
sS'w-2=christian-led'
p3905
I3288
sS'nsubj=Iraq'
p3906
I1034
sS'w-1=often'
p3907
I2933
sS'mark=so'
p3908
I960
sS'w+2=$'
p3909
I2024
sS'w-1=firing'
p3910
I2849
sS'w-2=Ashton'
p3911
I3064
sS'w+2=decide'
p3912
I2210
sS'dep=detailed'
p3913
I341
sS'dobj=way'
p3914
I915
sS'dobj=official'
p3915
I729
sS'w-2=reluctant'
p3916
I3660
sS'w+2=I'
p3917
I2065
sS"w+2='s"
p3918
I2026
sS'dobj=Force'
p3919
I397
sS'w-1=strictly'
p3920
I2990
sS'w-1=Amazon'
p3921
I2688
sS'dobj=necessity'
p3922
I716
sS'w+1=Kosovars'
p3923
I1514
sS'w+1=bus'
p3924
I1589
sS'w+2=limited'
p3925
I2375
sS'w-2=water'
p3926
I3806
sS'w+1=be'
p3927
I1575
sS'w-1=may'
p3928
I2908
sS'dep=hard'
p3929
I348
sS'w-1=as'
p3930
I2778
sS'nsubj=Centers'
p3931
I992
sS'w-1=man'
p3932
I2906
sS'nsubj=review'
p3933
I1298
sS'w-2=James'
p3934
I3122
sS'w-2=Ministry'
p3935
I3141
sS'prep=alongside'
p3936
I1434
sS'w+2=a'
p3937
I2092
sS'w-2=European'
p3938
I3094
sS'w+2=Gaza'
p3939
I2064
sS'xcomp=support'
p3940
I3922
sS'advmod=typically'
p3941
I134
ssS'dtype'
p3942
cnumpy
float64
p3943
sS'feature_names_'
p3944
(lp3945
g3679
ag319
ag637
ag196
ag2656
ag1632
ag3380
ag3274
ag3755
ag3017
ag597
ag163
ag2412
ag3042
ag993
ag2679
ag1064
ag3511
ag3494
ag3378
ag530
ag648
ag2058
ag1438
ag694
ag288
ag1648
ag2795
ag2430
ag1027
ag3593
ag2332
ag3259
ag1340
ag382
ag903
ag3804
ag2960
ag3860
ag3621
ag1053
ag1060
ag66
ag1465
ag2785
ag3757
ag1660
ag1608
ag1644
ag2309
ag2465
ag28
ag1637
ag3047
ag3060
ag3777
ag2043
ag1811
ag185
ag282
ag3881
ag671
ag2162
ag3313
ag3428
ag1515
ag1981
ag2054
ag2741
ag2233
ag3126
ag673
ag3087
ag1339
ag1337
ag3493
ag616
ag3333
ag3628
ag1706
ag1114
ag1109
ag86
ag18
ag1617
ag2105
ag3178
ag2284
ag1639
ag2476
ag3029
ag477
ag2079
ag1829
ag1458
ag2976
ag227
ag2001
ag3864
ag2252
ag710
ag1288
ag2225
ag3186
ag1038
ag2170
ag3332
ag3530
ag1686
ag3893
ag1244
ag14
ag2570
ag371
ag2758
ag3442
ag1129
ag1198
ag522
ag3015
ag1708
ag3879
ag1035
ag2042
ag2338
ag1172
ag2077
ag3842
ag3834
ag1518
ag574
ag3159
ag3096
ag531
ag3941
ag1494
ag1177
ag486
ag815
ag2964
ag2294
ag259
ag2114
ag2881
ag1905
ag1105
ag2642
ag3484
ag1780
ag1045
ag3044
ag3644
ag827
ag2883
ag2494
ag3100
ag2322
ag2581
ag1646
ag561
ag878
ag3877
ag3627
ag1884
ag1990
ag1162
ag1897
ag2366
ag791
ag608
ag2864
ag1314
ag548
ag1470
ag3496
ag3567
ag2946
ag127
ag237
ag2809
ag3142
ag615
ag579
ag901
ag2765
ag3319
ag2356
ag2957
ag2131
ag3874
ag1819
ag80
ag2149
ag2496
ag3244
ag1695
ag148
ag3475
ag3516
ag2915
ag2478
ag3765
ag1017
ag1232
ag3454
ag135
ag1241
ag325
ag1755
ag2416
ag133
ag48
ag177
ag1016
ag433
ag669
ag891
ag3785
ag1471
ag44
ag2610
ag1561
ag3381
ag3847
ag607
ag2163
ag3261
ag2074
ag2836
ag529
ag1407
ag725
ag3241
ag1761
ag1238
ag3379
ag240
ag2810
ag465
ag2361
ag2037
ag241
ag253
ag1716
ag1587
ag3449
ag126
ag1373
ag1543
ag496
ag2383
ag1754
ag1326
ag1448
ag2016
ag3363
ag1338
ag580
ag591
ag446
ag3058
ag3702
ag1875
ag15
ag2404
ag1799
ag3592
ag3221
ag1332
ag3338
ag2498
ag954
ag1358
ag3523
ag3158
ag769
ag1165
ag190
ag2400
ag1018
ag3863
ag1658
ag1163
ag3433
ag3237
ag428
ag1541
ag2018
ag1464
ag3089
ag689
ag3108
ag1562
ag2760
ag1270
ag3024
ag323
ag421
ag2106
ag383
ag3888
ag2602
ag3714
ag460
ag3727
ag2363
ag1248
ag3461
ag2004
ag1432
ag1699
ag1368
ag1535
ag1361
ag2128
ag3464
ag3559
ag267
ag1205
ag182
ag3569
ag2193
ag1183
ag742
ag38
ag1538
ag3250
ag3803
ag2111
ag388
ag2305
ag755
ag3249
ag875
ag218
ag1504
ag2241
ag2484
ag2246
ag376
ag1771
ag3913
ag3903
ag1078
ag1640
ag3752
ag318
ag1665
ag3929
ag2695
ag688
ag1616
ag2657
ag3077
ag2569
ag474
ag3590
ag247
ag1290
ag3585
ag3295
ag476
ag862
ag3845
ag2089
ag274
ag136
ag286
ag874
ag2528
ag2195
ag2217
ag876
ag537
ag138
ag894
ag3304
ag3063
ag896
ag715
ag3019
ag1102
ag955
ag2087
ag3556
ag213
ag676
ag311
ag3690
ag1757
ag164
ag3527
ag441
ag741
ag3345
ag2245
ag1303
ag3919
ag2072
ag1152
ag1178
ag625
ag1336
ag1006
ag2838
ag3022
ag1928
ag301
ag2175
ag2970
ag2260
ag1007
ag1065
ag3088
ag751
ag1889
ag1994
ag1925
ag684
ag1971
ag1224
ag2088
ag445
ag3076
ag3721
ag3099
ag3813
ag437
ag1112
ag2903
ag1979
ag2449
ag1245
ag1769
ag2015
ag3405
ag3780
ag2051
ag773
ag3680
ag2006
ag902
ag1193
ag3290
ag3188
ag1156
ag638
ag1945
ag3101
ag2875
ag3297
ag3768
ag1108
ag3459
ag3330
ag661
ag3291
ag3225
ag3348
ag2099
ag577
ag363
ag3571
ag2886
ag761
ag1446
ag1308
ag2378
ag3132
ag1997
ag585
ag1574
ag2937
ag2415
ag1316
ag2407
ag1861
ag2800
ag1523
ag3092
ag3376
ag3566
ag180
ag1579
ag356
ag2335
ag695
ag3497
ag1539
ag2850
ag1463
ag1468
ag2624
ag1551
ag3691
ag3137
ag940
ag3349
ag2374
ag2942
ag208
ag141
ag3735
ag389
ag2336
ag60
ag316
ag45
ag2859
ag619
ag738
ag2901
ag3409
ag806
ag3053
ag3179
ag379
ag436
ag1929
ag668
ag1289
ag61
ag1681
ag2183
ag2986
ag3280
ag2771
ag839
ag3667
ag509
ag2424
ag538
ag2125
ag3637
ag2746
ag517
ag1594
ag2560
ag562
ag140
ag3358
ag3359
ag1723
ag1828
ag1255
ag726
ag2905
ag1033
ag2013
ag2483
ag2313
ag1428
ag1043
ag1195
ag3086
ag3507
ag844
ag2719
ag1923
ag3771
ag914
ag2551
ag3878
ag912
ag2040
ag2456
ag735
ag3397
ag2691
ag563
ag3045
ag1975
ag2660
ag3807
ag3632
ag3723
ag238
ag2681
ag420
ag1627
ag1846
ag1347
ag3773
ag2535
ag3421
ag2912
ag2090
ag2564
ag1609
ag588
ag1029
ag2511
ag838
ag3683
ag1414
ag594
ag305
ag1182
ag2797
ag1243
ag745
ag3235
ag3820
ag2069
ag470
ag977
ag1838
ag2390
ag2417
ag2786
ag1991
ag630
ag1184
ag3202
ag1858
ag1485
ag2933
ag1181
ag3871
ag2911
ag2273
ag1642
ag1525
ag1870
ag2653
ag330
ag593
ag830
ag3307
ag3166
ag777
ag717
ag2776
ag988
ag3245
ag632
ag3005
ag2274
ag919
ag967
ag281
ag175
ag230
ag3246
ag1106
ag3176
ag2261
ag3584
ag1478
ag271
ag3801
ag1440
ag539
ag2481
ag231
ag1479
ag1984
ag887
ag2778
ag881
ag965
ag3411
ag3822
ag1521
ag1949
ag1262
ag2355
ag2788
ag1762
ag1703
ag1908
ag1383
ag2816
ag1222
ag3855
ag3715
ag256
ag1140
ag1927
ag1413
ag57
ag906
ag1567
ag897
ag3576
ag2896
ag1279
ag2956
ag118
ag653
ag1266
ag1844
ag3273
ag487
ag2011
ag1565
ag1789
ag1582
ag3782
ag1713
ag1146
ag1295
ag3282
ag1903
ag2258
ag2826
ag1544
ag3078
ag2143
ag3678
ag2474
ag1548
ag979
ag1669
ag2823
ag113
ag3922
ag1179
ag2213
ag367
ag2190
ag3883
ag2854
ag544
ag3071
ag3673
ag1779
ag512
ag1231
ag3915
ag2585
ag2546
ag3795
ag302
ag3324
ag1186
ag1623
ag3631
ag2892
ag922
ag343
ag2333
ag2379
ag1331
ag518
ag2022
ag1233
ag26
ag2382
ag2799
ag3729
ag2352
ag552
ag2863
ag2413
ag550
ag1168
ag3478
ag2046
ag1302
ag1873
ag880
ag623
ag1227
ag2210
ag1267
ag458
ag3481
ag3495
ag2061
ag1154
ag959
ag1832
ag811
ag1285
ag2317
ag578
ag2767
ag3709
ag789
ag2962
ag1744
ag401
ag501
ag2104
ag1393
ag228
ag3041
ag3172
ag396
ag2870
ag242
ag2452
ag1675
ag1854
ag1343
ag1404
ag3403
ag2931
ag1220
ag3640
ag2135
ag1611
ag2784
ag3512
ag3689
ag960
ag1806
ag1636
ag2176
ag1294
ag1552
ag2023
ag1015
ag3189
ag3653
ag3229
ag1546
ag930
ag2689
ag3168
ag3046
ag3821
ag1133
ag2343
ag391
ag3784
ag1741
ag2296
ag100
ag3289
ag872
ag2388
ag2729
ag2722
ag3248
ag1885
ag3708
ag3085
ag1900
ag492
ag978
ag951
ag1401
ag2364
ag2467
ag2134
ag104
ag442
ag843
ag3056
ag1096
ag1631
ag145
ag3305
ag856
ag1422
ag1050
ag3826
ag2203
ag1239
ag1327
ag849
ag2264
ag3696
ag2734
ag933
ag1094
ag1126
ag3788
ag1528
ag1839
ag567
ag662
ag1020
ag2247
ag1476
ag2654
ag2808
ag3460
ag3616
ag1170
ag1088
ag1342
ag432
ag840
ag3036
ag2974
ag214
ag2334
ag869
ag1113
ag245
ag1853
ag1207
ag2541
ag1296
ag3608
ag963
ag604
ag2153
ag1497
ag2468
ag3443
ag430
ag2792
ag1851
ag3815
ag223
ag1837
ag1887
ag3602
ag3374
ag1896
ag41
ag3914
ag1201
ag3570
ag3105
ag2367
ag1188
ag2869
ag209
ag202
ag3233
ag3853
ag1418
ag1213
ag3325
ag1604
ag2129
ag1116
ag3439
ag1249
ag1159
ag1693
ag2487
ag1848
ag834
ag1958
ag3388
ag2944
ag809
ag600
ag3199
ag1700
ag3341
ag2445
ag972
ag3009
ag3257
ag3781
ag3818
ag3043
ag3639
ag1403
ag2270
ag2173
ag2177
ag1868
ag3908
ag3197
ag3134
ag1392
ag1077
ag3604
ag535
ag927
ag2402
ag2354
ag664
ag1588
ag3833
ag1856
ag2665
ag1042
ag299
ag3741
ag3753
ag804
ag2350
ag788
ag3669
ag2640
ag3635
ag1215
ag3474
ag3310
ag2601
ag3712
ag2747
ag2164
ag3931
ag2377
ag2405
ag3706
ag3347
ag1625
ag1960
ag2475
ag10
ag1067
ag3465
ag1348
ag2835
ag2437
ag1937
ag1980
ag1581
ag1891
ag1161
ag2436
ag1423
ag898
ag1584
ag802
ag1707
ag1732
ag2466
ag1957
ag3109
ag2573
ag224
ag2975
ag1722
ag2122
ag2847
ag825
ag3361
ag2262
ag2391
ag423
ag3898
ag1800
ag3906
ag236
ag321
ag3385
ag1797
ag3153
ag397
ag1211
ag1687
ag1974
ag2686
ag1040
ag736
ag68
ag462
ag485
ag1585
ag2469
ag1402
ag1334
ag926
ag3849
ag1204
ag2512
ag889
ag1287
ag3645
ag2609
ag1935
ag1240
ag1805
ag203
ag1542
ag2577
ag3118
ag1786
ag3353
ag3466
ag1756
ag1349
ag2470
ag188
ag3763
ag3177
ag858
ag3823
ag1685
ag3368
ag957
ag1711
ag2822
ag3756
ag1057
ag3859
ag2672
ag1442
ag3886
ag2471
ag3545
ag1808
ag2721
ag3311
ag2508
ag47
ag2631
ag1400
ag2140
ag2353
ag2714
ag1387
ag2705
ag541
ag3536
ag1000
ag97
ag2229
ag2543
ag2219
ag3247
ag153
ag2329
ag2266
ag3619
ag2529
ag645
ag992
ag1317
ag790
ag3018
ag151
ag294
ag504
ag1964
ag2702
ag3113
ag1310
ag2502
ag596
ag3506
ag2443
ag451
ag609
ag2253
ag565
ag333
ag3533
ag3806
ag1120
ag1892
ag2000
ag3550
ag3336
ag527
ag1196
ag1121
ag95
ag620
ag2571
ag1586
ag1203
ag1008
ag2895
ag1325
ag414
ag2828
ag3477
ag1390
ag2590
ag408
ag3377
ag2814
ag1444
ag1386
ag1863
ag1424
ag553
ag2965
ag317
ag1641
ag2395
ag1954
ag3591
ag837
ag1411
ag3487
ag3848
ag2603
ag2592
ag3306
ag2100
ag3509
ag1881
ag3227
ag2682
ag447
ag2890
ag1487
ag2996
ag1384
ag313
ag233
ag643
ag3430
ag250
ag805
ag1025
ag1311
ag1750
ag1725
ag1883
ag1208
ag937
ag1970
ag2204
ag1344
ag1187
ag3609
ag2039
ag306
ag3238
ag3239
ag3659
ag649
ag1173
ag1063
ag892
ag3734
ag2615
ag1467
ag3603
ag1480
ag1692
ag1447
ag3829
ag3316
ag2263
ag220
ag3110
ag1147
ag475
ag2159
ag3360
ag2969
ag1072
ag3876
ag2593
ag749
ag3778
ag911
ag94
ag2574
ag915
ag2462
ag1111
ag1531
ag1630
ag2351
ag956
ag681
ag3839
ag1128
ag3805
ag2446
ag8
ag1998
ag2867
ag2184
ag576
ag3501
ag332
ag2065
ag1507
ag2669
ag1834
ag1408
ag1263
ag2732
ag677
ag23
ag1938
ag2285
ag2636
ag2063
ag1691
ag1987
ag996
ag2670
ag3252
ag629
ag644
ag1030
ag25
ag3518
ag3057
ag626
ag3617
ag315
ag1136
ag3412
ag962
ag2783
ag2373
ag3298
ag2584
ag3933
ag2832
ag2612
ag2626
ag3048
ag2871
ag1436
ag2299
ag2359
ag980
ag3745
ag1968
ag2945
ag3236
ag3402
ag519
ag1277
ag813
ag2479
ag2803
ag524
ag1456
ag74
ag1657
ag3560
ag1036
ag3328
ag62
ag2891
ag3230
ag1738
ag3184
ag3538
ag929
ag221
ag2315
ag1335
ag1276
ag2130
ag1235
ag2389
ag2763
ag628
ag2983
ag1683
ag614
ag3355
ag431
ag3861
ag276
ag2239
ag2562
ag1217
ag1061
ag1256
ag1647
ag471
ag1801
ag2123
ag3034
ag2080
ag1833
ag272
ag3870
ag2276
ag1697
ag2212
ag314
ag2708
ag3438
ag3896
ag449
ag3095
ag1056
ag711
ag1365
ag2392
ag1388
ag1845
ag88
ag2599
ag627
ag176
ag895
ag916
ag210
ag2587
ag3418
ag3391
ag3626
ag91
ag161
ag1307
ag1940
ag499
ag3642
ag973
ag1059
ag1298
ag2141
ag702
ag3811
ag3173
ag969
ag232
ag291
ag2168
ag1729
ag2206
ag2310
ag1353
ag3340
ag1679
ag1550
ag2368
ag3828
ag246
ag2566
ag3887
ag1772
ag3174
ag2700
ag2779
ag3713
ag782
ag526
ag2110
ag1452
ag3020
ag2701
ag3334
ag1104
ag366
ag2761
ag860
ag1439
ag3936
ag2117
ag152
ag3764
ag3762
ag2941
ag3613
ag2202
ag3068
ag378
ag2909
ag3583
ag3012
ag3303
ag1876
ag994
ag2107
ag284
ag3407
ag2645
ag2673
ag2678
ag1284
ag786
ag3320
ag424
ag2192
ag3792
ag2480
ag1153
ag1573
ag3577
ag1252
ag3277
ag2506
ag1005
ag3420
ag3148
ag58
ag283
ag3623
ag3541
ag489
ag3730
ag1503
ag3370
ag2078
ag2047
ag3276
ag2606
ag3657
ag3612
ag3686
ag1904
ag2607
ag1907
ag772
ag1612
ag784
ag774
ag2694
ag2500
ag1034
ag3882
ag1909
ag46
ag244
ag1219
ag2536
ag2380
ag1359
ag1451
ag1509
ag2638
ag1890
ag1449
ag1098
ag3103
ag2616
ag3007
ag3923
ag938
ag1519
ag1807
ag2463
ag3837
ag936
ag1362
ag1810
ag3838
ag3010
ag2320
ag2633
ag3504
ag3557
ag514
ag1472
ag1505
ag3416
ag1930
ag666
ag3424
ag3718
ag1670
ag3165
ag658
ag1271
ag1572
ag3415
ag2026
ag3030
ag3346
ag3622
ag660
ag654
ag3636
ag3582
ag3694
ag3151
ag2429
ag12
ag3130
ag3797
ag3866
ag536
ag732
ag3146
ag1824
ag1555
ag3107
ag2427
ag1024
ag2254
ag353
ag2257
ag1328
ag1836
ag3620
ag3141
ag854
ag3588
ag3927
ag3062
ag2940
ag899
ag54
ag2081
ag2772
ag1710
ag2151
ag3769
ag765
ag1607
ag1629
ag3483
ag3924
ag2586
ag387
ag722
ag2523
ag2641
ag558
ag3369
ag2818
ag335
ag3810
ag1621
ag2963
ag2214
ag2440
ag2453
ag2558
ag945
ag2696
ag1512
ag2693
ag1963
ag2652
ag3301
ag523
ag2858
ag1026
ag1934
ag1784
ag1469
ag1526
ag3001
ag3455
ag3106
ag2594
ag2559
ag2798
ag3547
ag779
ag20
ag29
ag758
ag1132
ag678
ag453
ag217
ag154
ag2837
ag2232
ag2314
ag533
ag2565
ag845
ag943
ag1461
ag2205
ag178
ag2675
ag3040
ag3195
ag3490
ag3740
ag2920
ag2951
ag2435
ag1073
ag1948
ag22
ag1849
ag3854
ag3796
ag1794
ag2138
ag3561
ag3491
ag3787
ag2283
ag50
ag1602
ag1319
ag3269
ag2371
ag525
ag2025
ag595
ag2237
ag1167
ag1202
ag3726
ag3066
ag2625
ag2510
ag357
ag2595
ag1947
ag1893
ag1635
ag338
ag157
ag1141
ag569
ag3532
ag2703
ag3594
ag2738
ag1809
ag368
ag385
ag2113
ag1653
ag1391
ag167
ag173
ag1119
ag292
ag719
ag2668
ag443
ag1044
ag2120
ag3014
ag1427
ag2503
ag3867
ag1730
ag549
ag2148
ag2583
ag392
ag3193
ag334
ag1320
ag123
ag647
ag295
ag1069
ag124
ag2916
ag2515
ag1610
ag3703
ag3595
ag2109
ag386
ag2930
ag656
ag1855
ag3389
ag2450
ag2096
ag3243
ag3160
ag463
ag1450
ag754
ag2396
ag981
ag85
ag3697
ag2339
ag2397
ag1139
ag3831
ag2156
ag3413
ag2279
ag652
ag168
ag2448
ag975
ag700
ag2005
ag3133
ag1412
ag2623
ag192
ag599
ag2360
ag1062
ag1070
ag3610
ag455
ag1777
ag3790
ag2491
ag3857
ag2167
ag307
ag3717
ag865
ag2662
ag3288
ag1916
ag1540
ag2961
ag1822
ag2950
ag1737
ag3779
ag639
ag2620
ag828
ag197
ag640
ag2161
ag2221
ag2085
ag2084
ag2097
ag572
ag3681
ag1089
ag3223
ag590
ag2358
ag672
ag848
ag3671
ag1869
ag2306
ag2997
ag687
ag3630
ag411
ag2236
ag1790
ag2893
ag3786
ag748
ag251
ag484
ag1763
ag2098
ag3366
ag17
ag438
ag3880
ag409
ag3258
ag3743
ag1520
ag2688
ag3453
ag1673
ag913
ag1474
ag3725
ag1068
ag2394
ag634
ag2866
ag2091
ag3074
ag659
ag1563
ag663
ag3539
ag2010
ag3670
ag1158
ag129
ag1894
ag2145
ag3457
ag907
ag1292
ag3217
ag3215
ag3073
ag3802
ag589
ag1269
ag1753
ag194
ag2227
ag478
ag846
ag953
ag128
ag935
ag3498
ag174
ag603
ag2934
ag3120
ag49
ag3450
ag1575
ag1124
ag2497
ag110
ag2376
ag1962
ag1039
ag2661
ag2539
ag77
ag3226
ag3546
ag3452
ag2066
ag3663
ag1580
ag1405
ag714
ag1023
ag1155
ag3814
ag3865
ag326
ag2132
ag89
ag1080
ag2684
ag3121
ag2977
ag679
ag2118
ag1802
ag3794
ag1714
ag1475
ag3471
ag556
ag1443
ag1097
ag3350
ag406
ag800
ag1511
ag3648
ag1717
ag3406
ag1864
ag704
ag3675
ag3190
ag3904
ag189
ag2259
ag336
ag737
ag1992
ag2218
ag3742
ag479
ag3574
ag2251
ag3835
ag728
ag2086
ag1620
ag3131
ag2751
ag3892
ag559
ag1280
ag2328
ag3799
ag1004
ag882
ag917
ag3393
ag842
ag2028
ag750
ag910
ag2993
ag1549
ag941
ag2844
ag2567
ag3508
ag2979
ag3396
ag1223
ag1009
ag166
ag2345
ag2008
ag2101
ag2749
ag2103
ag2158
ag3666
ag348
ag2812
ag2805
ag1434
ag1674
ag3812
ag2012
ag3212
ag469
ag3171
ag1638
ag179
ag1953
ag3701
ag641
ag3638
ag2889
ag1293
ag156
ag2071
ag2988
ag101
ag456
ag468
ag1745
ag852
ag1107
ag201
ag3357
ag2401
ag454
ag2531
ag1229
ag3302
ag1618
ag2519
ag3394
ag2629
ag739
ag2307
ag2295
ag3426
ag3256
ag3700
ag801
ag1767
ag2984
ag258
ag3728
ag1291
ag3909
ag3549
ag3918
ag402
ag3707
ag592
ag3553
ag3562
ag1011
ag905
ag3033
ag3254
ag3065
ag3205
ag532
ag3672
ag586
ag1484
ag3900
ag211
ag1157
ag3901
ag3579
ag2614
ag3315
ag3899
ag3035
ag2885
ag2459
ag1329
ag1880
ag2888
ag2513
ag3164
ag2196
ag1751
ag2403
ag3578
ag467
ag2582
ag3939
ag3917
ag2677
ag657
ag1782
ag1778
ag426
ag2418
ag53
ag3390
ag746
ag3554
ag73
ag3116
ag2557
ag762
ag1922
ag723
ag3090
ag841
ag142
ag3580
ag1527
ag3499
ag3167
ag3021
ag352
ag1944
ag3937
ag521
ag2906
ag602
ag1282
ag803
ag1899
ag3625
ag555
ag2740
ag1787
ag1956
ag3175
ag2331
ag3253
ag764
ag1143
ag2464
ag3382
ag1726
ag2948
ag360
ag3682
ag2715
ag3500
ag665
ag3711
ag3314
ag395
ag137
ag412
ag2169
ag3317
ag3051
ag3537
ag3856
ag1508
ag277
ag787
ag3312
ag229
ag1557
ag1409
ag1419
ag2935
ag351
ag494
ag2520
ag2839
ag1488
ag984
ag3228
ag3354
ag3760
ag418
ag373
ag1142
ag2234
ag727
ag215
ag3598
ag1028
ag2899
ag949
ag35
ag3084
ag931
ag3075
ag2550
ag3135
ag3157
ag2578
ag2493
ag3451
ag2281
ag1381
ag2248
ag1879
ag2998
ag2362
ag1999
ag1510
ag3519
ag633
ag216
ag2628
ag2697
ag1131
ag3548
ag2589
ag1495
ag1926
ag3204
ag2298
ag3138
ag2406
ag1533
ag1628
ag2542
ag3615
ag1600
ag1652
ag2068
ag814
ag1399
ag1821
ag3858
ag966
ag2044
ag296
ag2438
ag3232
ag674
ag1019
ag1566
ag239
ag3862
ag1793
ag3912
ag3733
ag703
ag2913
ag3531
ag3528
ag557
ag186
ag2545
ag2770
ag2730
ag2527
ag1593
ag3441
ag1568
ag3155
ag2827
ag1959
ag757
ag1622
ag3032
ag1226
ag3824
ag2744
ag950
ag2671
ag2685
ag2032
ag1410
ag1091
ag2563
ag3476
ag172
ag2811
ag1676
ag3731
ag71
ag2991
ag1305
ag2959
ag3147
ag2704
ag697
ag2925
ag3437
ag3895
ag946
ag2275
ag2846
ag730
ag3209
ag1258
ag3404
ag810
ag2621
ag1346
ag1076
ag2831
ag3749
ag1237
ag2152
ag2341
ag2272
ag2064
ag808
ag605
ag1081
ag601
ag3431
ag329
ag298
ag1689
ag794
ag1176
ag1115
ag1175
ag611
ag2756
ag1002
ag1312
ag3434
ag2289
ag2874
ag1130
ag162
ag2050
ag187
ag1920
ag1812
ag2342
ag1719
ag1374
ag2226
ag1138
ag1100
ag3607
ag2410
ag3436
ag2958
ag2849
ag812
ag1441
ag31
ag3542
ag1268
ag2019
ag1740
ag1961
ag642
ag3597
ag1735
ag3097
ag3352
ag2030
ag1013
ag2049
ag1087
ag3758
ag1842
ag450
ag1199
ag1634
ag1092
ag262
ag1169
ag747
ag107
ag3456
ag2611
ag1354
ag2280
ag1913
ag1052
ag270
ag3889
ag1939
ag2762
ag2075
ag2216
ag2386
ag3649
ag1477
ag1614
ag729
ag2775
ag1704
ag3468
ag624
ag3535
ag1082
ag2619
ag2796
ag2549
ag125
ag1537
ag2014
ag1254
ag119
ag939
ag464
ag2287
ag280
ag2650
ag427
ag2256
ag3925
ag3154
ag444
ag3529
ag667
ag944
ag1103
ag2488
ag1682
ag528
ag2095
ag2187
ag3891
ag3435
ag1536
ag33
ag863
ag3398
ag461
ag3783
ag2914
ag2597
ag564
ag1299
ag3365
ag763
ag3732
ag304
ag2053
ag3422
ag1370
ag1986
ag3367
ag2919
ag3270
ag490
ag1462
ag1278
ag3222
ag1554
ag2902
ag2112
ag1661
ag3104
ag1694
ag2160
ag130
ag1857
ag598
ag495
ag2644
ag3127
ag1966
ag551
ag2824
ag11
ag3486
ag986
ag1079
ag3744
ag2316
ag491
ag2182
ag384
ag3573
ag78
ag610
ag1127
ag2385
ag1297
ag3395
ag2308
ag3399
ag3793
ag3739
ag3299
ag584
ag2556
ag3387
ag2943
ag893
ag1529
ag3674
ag716
ag1322
ag1547
ag2608
ag2813
ag2766
ag9
ag1502
ag364
ag340
ag1433
ag675
ag932
ag349
ag2801
ag3716
ag219
ag2548
ag3351
ag2787
ag2194
ag1144
ag1817
ag2126
ag405
ag1615
ag2116
ag3234
ag248
ag775
ag1118
ag3902
ag3321
ag502
ag1218
ag2921
ag3543
ag1818
ag481
ag103
ag1394
ag435
ag2189
ag112
ag2486
ag155
ag2580
ag1530
ag799
ag354
ag1933
ag1431
ag1301
ag204
ag3339
ag3850
ag2208
ag3776
ag2537
ag2255
ag3206
ag2165
ag1489
ag1532
ag2191
ag545
ag2658
ag2544
ag1125
ag2423
ag403
ag331
ag1902
ag1760
ag2710
ag1803
ag144
ag3751
ag1398
ag2769
ag3216
ag3094
ag3410
ag1517
ag2898
ag1677
ag2393
ag2939
ag429
ag415
ag753
ag3392
ag2924
ag3200
ag121
ag1379
ag2460
ag255
ag2267
ag692
ag171
ag27
ag2862
ag3502
ag3586
ag260
ag2676
ag3676
ag1022
ag3414
ag1049
ag1823
ag1352
ag1071
ag2137
ag2534
ag143
ag3555
ag2020
ag3827
ag1946
ag3544
ag2327
ag3693
ag1996
ag582
ag1649
ag1459
ag3601
ag1257
ag30
ag1742
ag1785
ag1323
ag1560
ag222
ag212
ag1524
ag1912
ag1210
ag2865
ag2713
ag3761
ag347
ag3016
ag2821
ag3836
ag516
ag2178
ag1500
ag3136
ag1122
ag3564
ag3284
ag1234
ag1356
ag362
ag2994
ag3525
ag2048
ag1752
ag1306
ag3220
ag2121
ag2133
ag2897
ag2242
ag497
ag3061
ag861
ag1847
ag2806
ag2667
ag1264
ag2894
ag3054
ag339
ag952
ag847
ag2733
ag612
ag2728
ag883
ag1483
ag760
ag3747
ag1250
ag1950
ag989
ag3738
ag3211
ag961
ag3427
ag320
ag1666
ag2142
ag686
ag1191
ag534
ag1324
ag2954
ag1522
ag265
ag2209
ag2067
ag234
ag877
ag2409
ag995
ag2843
ag2154
ag3362
ag3373
ag2877
ag2852
ag3192
ag1421
ag3775
ag2370
ag1493
ag2989
ag2985
ag1189
ag361
ag2981
ag2745
ag2414
ag2060
ag1514
ag2057
ag3921
ag206
ag1084
ag16
ag928
ag2967
ag482
ag1924
ag440
ag2904
ag3163
ag2017
ag3425
ag422
ag3467
ag3618
ag2062
ag925
ag235
ag3124
ag3668
ag3264
ag1952
ag2833
ag1375
ag3185
ag2303
ag3832
ag1977
ag622
ag3408
ag3196
ag99
ag2680
ag308
ag1429
ag1825
ag1355
ag2533
ag3841
ag1993
ag1010
ag2458
ag3791
ag3384
ag1460
ag2635
ag1380
ag59
ag2840
ag866
ag3568
ag766
ag3006
ag1931
ag2955
ag2907
ag3112
ag2971
ag2887
ag1798
ag3505
ag3844
ag3292
ag2238
ag2056
ag3240
ag3809
ag2108
ag2034
ag1545
ag2240
ag3111
ag2547
ag3064
ag1773
ag1137
ag833
ag1363
ag369
ag3599
ag2794
ag1286
ag964
ag798
ag1626
ag2166
ag1021
ag2398
ag287
ag3930
ag2553
ag2124
ag55
ag370
ag2651
ag3059
ag3028
ag2923
ag1951
ag1678
ag1663
ag1425
ag1321
ag685
ag885
ag3589
ag3025
ag2277
ag1919
ag2021
ag2311
ag425
ag503
ag3873
ag34
ag268
ag2201
ag2718
ag1174
ag2271
ag1598
ag968
ag2115
ag2643
ag1734
ag1012
ag2300
ag149
ag3262
ag683
ag63
ag2265
ag3031
ag3231
ag2326
ag3647
ag3767
ag1149
ag1590
ag1031
ag724
ag1101
ag3050
ag76
ag2666
ag2910
ag712
ag132
ag3293
ag909
ag2035
ag377
ag2220
ag81
ag327
ag434
ag2199
ag2588
ag1972
ag864
ag3910
ag3150
ag1727
ag1860
ag109
ag290
ag1698
ag375
ag139
ag3255
ag3080
ag2938
ag498
ag820
ag990
ag734
ag1117
ag1496
ag547
ag1085
ag1826
ag1656
ag1758
ag2337
ag797
ag3654
ag3145
ag731
ag3401
ag1148
ag2157
ag900
ag3371
ag3342
ag2185
ag3656
ag381
ag1360
ag3102
ag976
ag1690
ag1840
ag2646
ag1988
ag1911
ag2929
ag1733
ag1743
ag651
ag2288
ag3000
ag106
ag2878
ag1351
ag2829
ag2330
ag1645
ag3932
ag698
ag3928
ag2425
ag646
ag3875
ag3129
ag3162
ag3652
ag2522
ag2318
ag515
ag279
ag1680
ag293
ag2444
ag720
ag2845
ag2748
ag3191
ag1995
ag2922
ag1852
ag2972
ag1606
ag2731
ag2472
ag3907
ag2736
ag1364
ag3083
ag2953
ag1936
ag1865
ag2720
ag1206
ag2918
ag3169
ag1596
ag2952
ag853
ag1804
ag3067
ag1247
ag2755
ag2323
ag2834
ag1882
ag560
ag2228
ag631
ag2457
ag2076
ag2927
ag2521
ag3263
ag2637
ag3423
ag1341
ag1534
ag2421
ag2447
ag2517
ag2375
ag3049
ag3513
ag2286
ag2526
ag823
ag1728
ag1209
ag3432
ag184
ag39
ag908
ag3650
ag3770
ag3611
ag1747
ag2627
ag3469
ag1457
ag1166
ag419
ag3920
ag2146
ag857
ag2349
ag1746
ag1123
ag225
ag98
ag37
ag1942
ag1371
ag831
ag2932
ag1835
ag650
ag3552
ag2291
ag303
ag1591
ag817
ag575
ag1385
ag2848
ag2024
ag2490
ag67
ag855
ag483
ag974
ag2973
ag3515
ag2031
ag310
ag3736
ag971
ag1309
ag3884
ag3268
ag2683
ag3072
ag3417
ag1654
ag87
ag1318
ag3587
ag3651
ag342
ag1684
ag160
ag158
ag2687
ag254
ag2936
ag1774
ag1775
ag3521
ag344
ag1776
ag3326
ag1259
ag2357
ag120
ag2155
ag24
ag3242
ag1783
ag1498
ag341
ag1820
ag2724
ag705
ag3646
ag2690
ag904
ag3911
ag3318
ag2070
ag257
ag3894
ag1145
ag3492
ag510
ag3440
ag84
ag2817
ag1571
ag682
ag3275
ag1516
ag1041
ag2325
ag92
ag2027
ag1643
ag2461
ag2861
ag2495
ag2926
ag3251
ag1417
ag2093
ag3098
ag2841
ag1564
ag3938
ag2518
ag1190
ag819
ag1083
ag3027
ag1194
ag2432
ag2793
ag2750
ag718
ag2381
ag404
ag3629
ag1150
ag890
ag1721
ag1668
ag3698
ag3819
ag1788
ag3488
ag2723
ag3003
ag2092
ag2147
ag3472
ag2777
ag3934
ag997
ag3843
ag3624
ag3266
ag2753
ag3122
ag480
ag394
ag1074
ag822
ag2439
ag3704
ag1696
ag1228
ag2552
ag65
ag3699
ag2038
ag3935
ag2347
ag3872
ag2648
ag3038
ag1597
ag2634
ag3002
ag3724
ag122
ag2857
ag2663
ag3596
ag1426
ag2282
ag2505
ag2482
ag1701
ag2200
ag355
ag114
ag134
ag1796
ag466
ag1003
ag345
ag374
ag948
ag3183
ag2136
ag2171
ag1921
ag884
ag3161
ag3517
ag958
ag2492
ag2773
ag1066
ag400
ag1965
ag934
ag3114
ag2249
ag1715
ag3283
ag1086
ag617
ag1702
ag1932
ag1592
ag1764
ag3473
ag1633
ag2431
ag3119
ag2243
ag1313
ag3772
ag3558
ag999
ag2073
ag1283
ag2968
ag90
ag1513
ag1662
ag3069
ag2698
ag3198
ag261
ag2244
ag3281
ag3287
ag3479
ag2716
ag2174
ag520
ag867
ag1576
ag3335
ag879
ag3719
ag818
ag1664
ag328
ag2399
ag693
ag781
ag3308
ag3322
ag96
ag2815
ag554
ag1214
ag2224
ag1273
ag2790
ag1619
ag2739
ag1274
ag670
ag3634
ag1014
ag1046
ag473
ag3655
ag1651
ag3429
ag546
ag3448
ag1872
ag635
ag3658
ag1941
ag108
ag2532
ag2198
ag3093
ag1731
ag2009
ag1967
ag3830
ag2455
ag1506
ag816
ag285
ag3170
ag2324
ag2319
ag3013
ag1230
ag3774
ag3766
ag3677
ag3851
ag407
ag3023
ag923
ag1455
ag1134
ag3800
ag3643
ag3272
ag3419
ag1415
ag3480
ag3905
ag183
ag3278
ag1225
ag83
ag3692
ag72
ag3201
ag3705
ag2516
ag2917
ag1578
ag513
ag1037
ag70
ag1055
ag1453
ag3079
ag3260
ag278
ag1396
ag2186
ag1605
ag920
ag1200
ag1599
ag2387
ag1569
ag1766
ag131
ag1850
ag3754
ag2507
ag1792
ag1871
ag1705
ag1054
ag1736
ag829
ag2966
ag2990
ag1221
ag1357
ag2501
ag621
ag3520
ag322
ag350
ag1559
ag365
ag1253
ag439
ag1724
ag2999
ag2348
ag324
ag2855
ag1367
ag2036
ag3510
ag1898
ag3540
ag1376
ag3852
ag768
ag195
ag2928
ag3182
ag3458
ag618
ag1366
ag3687
ag312
ag2250
ag2876
ag3524
ag696
ag3344
ag380
ag771
ag2649
ag2568
ag2477
ag1985
ag3082
ag2094
ag1983
ag1377
ag2365
ag2441
ag2422
ag2222
ag2987
ag3011
ag2752
ag1001
ag2344
ag2872
ag2197
ag3869
ag1759
ag1437
ag713
ag1481
ag570
ag243
ag1914
ag2873
ag2451
ag275
ag3139
ag2980
ag3446
ag2706
ag1275
ag2908
ag571
ag850
ag3789
ag770
ag2139
ag826
ag3037
ag249
ag117
ag1473
ag2789
ag82
ag3203
ag2992
ag871
ag1901
ag706
ag690
ag3400
ag3219
ag1601
ag3798
ag413
ag542
ag2617
ag75
ag1330
ag269
ag2727
ag3285
ag2426
ag2717
ag3039
ag1768
ag2150
ag2579
ag300
ag3091
ag64
ag2127
ag3218
ag3143
ag3825
ag2884
ag636
ag783
ag170
ag3551
ag1556
ag3463
ag1918
ag1718
ag2055
ag1095
ag3375
ag2304
ag2346
ag3600
ag2007
ag1051
ag3750
ag1982
ag1197
ag3485
ag1110
ag3125
ag987
ag1720
ag581
ag297
ag2819
ag2102
ag1192
ag1265
ag3840
ag2596
ag1577
ag2853
ag2230
ag493
ag2312
ag744
ag3180
ag393
ag2489
ag3265
ag3343
ag1246
ag2725
ag3331
ag488
ag2774
ag859
ag587
ag2269
ag1491
ag1814
ag573
ag337
ag205
ag1389
ag3149
ag3890
ag2699
ag1164
ag1874
ag2674
ag1048
ag1369
ag3187
ag3081
ag507
ag309
ag1791
ag655
ag1862
ag3267
ag3156
ag2554
ag2369
ag500
ag147
ag3140
ag399
ag1382
ag1895
ag752
ag1099
ag2485
ag3152
ag3688
ag1160
ag1830
ag3685
ag56
ag1151
ag3181
ag1613
ag3055
ag3008
ag3661
ag506
ag3503
ag472
ag2207
ag3641
ag3386
ag821
ag740
ag1671
ag613
ag921
ag2605
ag32
ag1906
ag289
ag2419
ag3526
ag3737
ag115
ag2420
ag51
ag2868
ag43
ag264
ag42
ag2575
ag1672
ag1372
ag2726
ag448
ag1350
ag2780
ag2781
ag3123
ag3482
ag2321
ag1490
ag2820
ag3489
ag358
ag40
ag1886
ag2278
ag2223
ag2842
ag776
ag792
ag1978
ag1216
ag2525
ag1589
ag796
ag2211
ag207
ag2995
ag2947
ag824
ag1843
ag2804
ag1135
ag3662
ag1583
ag3194
ag3447
ag1300
ag2851
ag2292
ag1813
ag266
ag1955
ag778
ag1553
ag2807
ag2540
ag2384
ag2735
ag2737
ag2978
ag3117
ag2059
ag1841
ag2442
ag52
ag3070
ag2029
ag1739
ag2231
ag1430
ag1795
ag1261
ag2802
ag2454
ag3563
ag1242
ag1171
ag2622
ag3286
ag2860
ag543
ag2591
ag1765
ag1047
ag2632
ag2630
ag2538
ag3296
ag832
ag193
ag410
ag2235
ag2900
ag3846
ag1969
ag2002
ag1989
ag3916
ag459
ag918
ag2879
ag982
ag93
ag2830
ag2949
ag886
ag508
ag2033
ag1281
ag3445
ag2759
ag2144
ag2181
ag983
ag3605
ag2082
ag3868
ag21
ag273
ag226
ag3323
ag3759
ag2639
ag733
ag1180
ag3748
ag2754
ag3309
ag540
ag2188
ag1888
ag3383
ag2340
ag252
ag3052
ag3565
ag1272
ag1570
ag3746
ag3271
ag2664
ag1486
ag709
ag1420
ag398
ag3207
ag200
ag1499
ag1650
ag2119
ag3816
ag1831
ag2179
ag2604
ag3337
ag807
ag3470
ag1406
ag851
ag2268
ag1492
ag1501
ag2600
ag924
ag1251
ag2083
ag2499
ag1445
ag1075
ag3372
ag2524
ag1910
ag1236
ag2613
ag2215
ag998
ag181
ag2302
ag2514
ag2711
ag3722
ag2707
ag2618
ag2172
ag606
ag3213
ag1943
ag756
ag1688
ag2598
ag2768
ag3534
ag1260
ag505
ag3364
ag3214
ag169
ag165
ag2647
ag583
ag2856
ag699
ag2041
ag2982
ag868
ag1781
ag680
ag1867
ag2555
ag3522
ag105
ag2692
ag767
ag2045
ag1659
ag3356
ag3695
ag3606
ag3279
ag416
ag2791
ag942
ag1558
ag1212
ag2433
ag568
ag3224
ag36
ag1185
ag1090
ag870
ag1748
ag417
ag1878
ag3581
ag390
ag2530
ag1815
ag691
ag2408
ag2003
ag2825
ag3710
ag3926
ag3128
ag970
ag1093
ag79
ag3660
ag2712
ag1345
ag3720
ag2782
ag116
ag2764
ag3808
ag13
ag3329
ag2655
ag3897
ag2180
ag780
ag2434
ag69
ag511
ag191
ag1859
ag1624
ag1032
ag346
ag2297
ag1416
ag1378
ag3444
ag1827
ag159
ag2659
ag3614
ag3462
ag2052
ag199
ag359
ag1915
ag263
ag2880
ag708
ag3210
ag3664
ag1667
ag1973
ag1454
ag3684
ag111
ag2709
ag888
ag2504
ag2301
ag1435
ag3665
ag1816
ag1466
ag150
ag3327
ag873
ag835
ag793
ag1395
ag372
ag3115
ag3885
ag3572
ag566
ag1770
ag701
ag1304
ag2576
ag2572
ag836
ag743
ag3144
ag707
ag2743
ag3300
ag985
ag457
ag785
ag3294
ag721
ag2411
ag1655
ag3004
ag2428
ag1058
ag1917
ag102
ag2742
ag2290
ag1595
ag1333
ag1866
ag452
ag947
ag3208
ag1397
ag1709
ag795
ag1749
ag2882
ag1712
ag759
ag991
ag3633
ag2561
ag3575
ag146
ag1877
ag3514
ag19
ag3817
ag3940
ag2509
ag3026
ag1315
ag1976
ag1603
ag2473
ag198
ag2757
ag1482
ag2372
ag2293
asS'separator'
p3946
S'='
sS'sparse'
p3947
I01
sb.