ccopy_reg
_reconstructor
p1
(csklearn.feature_extraction.dict_vectorizer
DictVectorizer
p2
c__builtin__
object
p3
NtRp4
(dp5
S'vocabulary_'
p6
(dp7
S'w+1=sterling'
p8
I91
sS'prep=before'
p9
I58
sS'w-2=billion'
p10
I187
sS'w-1=of'
p11
I166
sS'w-2=prime'
p12
I198
sS'w+2=kurdish'
p13
I119
sS'aux=have'
p14
I12
sS'w+2=both'
p15
I105
sS'w-2=ethiopian'
p16
I188
sS'w+2=hall'
p17
I115
sS'w+1=.'
p18
I72
sS'w+1=per'
p19
I89
sS'w-1=to'
p20
I172
sS'w+2=goods'
p21
I114
sS'w+2=during'
p22
I110
sS'w+2=square'
p23
I130
sS'w+1=because'
p24
I79
sS'det=the'
p25
I28
sS'w+2=that'
p26
I132
sS'w-2=to'
p27
I208
sS'w+2=18'
p28
I98
sS'w+2=target'
p29
I131
sS'nsubj=llama'
p30
I49
sS'w+2=kilo'
p31
I118
sS'w-2=wield'
p32
I211
sS'w-2=and'
p33
I183
sS'w-1=unwanted'
p34
I173
sS'auxpass=get'
p35
I15
sS'w+2=camp'
p36
I106
sS'w-1=egyptian'
p37
I158
sS'w-2=of'
p38
I196
sS'w+2=for'
p39
I111
sS'w+2=136'
p40
I97
sS'w-1=like'
p41
I164
sS'nsubj=year'
p42
I53
sS'prep=by'
p43
I59
sS'w+2=onsider'
p44
I124
sS'w-1=first'
p45
I160
sS'nsubj=rebel'
p46
I50
sS'w+2=more'
p47
I122
sS'w-2=israeli'
p48
I191
sS'amod=unwanted'
p49
I7
sS'w-1=400'
p50
I147
sS'w-2=million'
p51
I194
sS'w-1=powerful'
p52
I167
sS'conj=more'
p53
I22
sS'cop=be'
p54
I23
sS'w-2=sweating-off'
p55
I202
sS'w+2=base'
p56
I104
sS'w-1=thousand'
p57
I171
sS'w+2=80'
p58
I100
sS'dobj=Obama'
p59
I32
sS'w-1=40,000'
p60
I146
sS'w+1=grain'
p61
I84
sS'advmod=now'
p62
I2
sS'w-2=take'
p63
I203
sS'w+2=front-line'
p64
I113
sS'w+2=spice'
p65
I129
sS'w+2=the'
p66
I133
sS'w+1=at'
p67
I78
sS'w-2=,'
p68
I175
sS'w-2=.'
p69
I176
sS'prep=with'
p70
I67
sS'cc=or'
p71
I17
sS'w-2=350'
p72
I180
sS'w-1=artillery'
p73
I152
sS'dobj=other'
p74
I37
sS'aux=may'
p75
I13
sS'nsubj=storm'
p76
I51
sS'w+1=animal'
p77
I77
sS'nsubjpass=oil'
p78
I54
sS'w-1=be'
p79
I154
sS'dobj=hideout'
p80
I36
sS'w-1=.'
p81
I139
sS'w-1=,'
p82
I138
sS'w-2=not'
p83
I195
sS'w+2=I'
p84
I101
sS'w-2=the'
p85
I205
sS'conj=bad'
p86
I18
sS'dep=receiver'
p87
I26
sS'w-2=in'
p88
I190
sS'nsubj=aircraft'
p89
I47
sS'w-1=300'
p90
I144
sS'w+2=plastic'
p91
I126
sS'dep=answer'
p92
I24
sS'w-1=woman'
p93
I174
sS'w+1=Obama'
p94
I74
sS'w-1=12,500'
p95
I141
sS'w+2=dollar'
p96
I109
sS'w+2=franc'
p97
I112
sS'w+2=control'
p98
I108
sS'w+1=of'
p99
I85
sS'det=those'
p100
I29
sS'w+1=suspect'
p101
I92
sS'w+2=to'
p102
I135
sS'w+1=on'
p103
I86
sS'dobj=Lebanon'
p104
I31
sS'w-2=a'
p105
I182
sS'w-2=20,000'
p106
I178
sS'w-2=she'
p107
I200
sS'prep=for'
p108
I61
sS'det=a'
p109
I27
sS'w+1=or'
p110
I87
sS'w-1=a'
p111
I150
sS'w-2=person'
p112
I197
sS'appos=kilogram'
p113
I9
sS'w-2=win'
p114
I212
sS'dobj=podium'
p115
I38
sS'w-1=have'
p116
I162
sS'w-1=storm'
p117
I168
sS'num=#NUMBER#'
p118
I55
sS'w+2=they'
p119
I134
sS'amod=few'
p120
I6
sS'w+2=at'
p121
I103
sS'w+2=in'
p122
I117
sS'mark=as'
p123
I42
sS'w-1=he'
p124
I163
sS'w-2=weigh'
p125
I210
sS'w+1=each'
p126
I81
sS'dobj=position'
p127
I39
sS'w-2=those'
p128
I207
sS'w-1=aircraft'
p129
I151
sS'w-2=may'
p130
I193
sS'w+2=18,000'
p131
I99
sS'w-1=few'
p132
I159
sS'w-2=kitchen'
p133
I192
sS'conj=franc'
p134
I20
sS'w-1=tank'
p135
I169
sS'w-2=rebel'
p136
I199
sS'w+2=coffee'
p137
I107
sS'nsubj=artillery'
p138
I48
sS'dobj=Hamas'
p139
I30
sS'conj=dollar'
p140
I19
sS'w-1=90,000'
p141
I149
sS'cc=and'
p142
I16
sS'nsubj=Clinton'
p143
I45
sS'w-1=40'
p144
I145
sS'amod=egyptian'
p145
I5
sS'appos=kilo'
p146
I8
sS'w+1=the'
p147
I93
sS'w-2=army'
p148
I185
sS'w+1=by'
p149
I80
sS'w+1=fall'
p150
I82
sS'w+2=produce'
p151
I128
sS'w-2=than'
p152
I204
sS'w-2=125'
p153
I177
sS'w+1=they'
p154
I94
sS'w-1=begin'
p155
I155
sS'prep=as'
p156
I57
sS'w+2=month'
p157
I121
sS'w-2=turkish'
p158
I209
sS'w-2=this'
p159
I206
sS'prep=in'
p160
I62
sS'w-1=100'
p161
I140
sS'appos=lot'
p162
I10
sS'w-2=300'
p163
I179
sS'w+1=for'
p164
I83
sS'w+1=-lrb-'
p165
I70
sS'w-2=get'
p166
I189
sS'w-1=baton'
p167
I153
sS'nsubj=#PRP#'
p168
I44
sS'w-2=Mix'
p169
I181
sS'w+1=Lebanon'
p170
I73
sS'w+2=other'
p171
I125
sS'w-1=50'
p172
I148
sS'prep=to'
p173
I66
sS'w+2=hip-swaying'
p174
I116
sS'nsubj=tank'
p175
I52
sS'aux=to'
p176
I14
sS'tmod=night'
p177
I68
sS'w-2=area'
p178
I184
sS'partmod=destroy'
p179
I56
sS'w+2=year'
p180
I136
sS'w-1=get'
p181
I161
sS'w-1=billion'
p182
I156
sS'w+1=and'
p183
I76
sS'dobj=base'
p184
I33
sS'amod=british'
p185
I4
sS'w+1=,'
p186
I69
sS'w-2=supporter'
p187
I201
sS'w+1=-rrb-'
p188
I71
sS'w+1=some'
p189
I90
sS'w+2=,'
p190
I96
sS'dep=month'
p191
I25
sS'w+2=on'
p192
I123
sS'conj=kilo'
p193
I21
sS'dobj=camp'
p194
I34
sS'neg=not'
p195
I43
sS'w+2=$'
p196
I95
sS'prep=during'
p197
I60
sS'w-1=180'
p198
I142
sS'w+2=podium'
p199
I127
sS'prep=per'
p200
I65
sS'w-1=20'
p201
I143
sS'w-1=british'
p202
I157
sS'xcomp=say'
p203
I214
sS'w+1=a'
p204
I75
sS'w-2=be'
p205
I186
sS'advcl=look'
p206
I0
sS'prep=of'
p207
I63
sS'advmod=first'
p208
I1
sS'dobj=hall'
p209
I35
sS'w+1=pepper'
p210
I88
sS'w-1=the'
p211
I170
sS'w-1=million'
p212
I165
sS'prep=on'
p213
I64
sS'mark=after'
p214
I41
sS'w+2=militant'
p215
I120
sS'aux=be'
p216
I11
sS'xcomp=prevent'
p217
I213
sS'nsubj=Police'
p218
I46
sS'w+2=zebra'
p219
I137
sS'w+2=a'
p220
I102
sS'dobj=spice'
p221
I40
sS'advmod=typically'
p222
I3
ssS'dtype'
p223
cnumpy
float64
p224
sS'feature_names_'
p225
(lp226
g206
ag208
ag62
ag222
ag185
ag145
ag120
ag49
ag146
ag113
ag162
ag216
ag14
ag75
ag176
ag35
ag142
ag71
ag86
ag140
ag134
ag193
ag53
ag54
ag92
ag191
ag87
ag109
ag25
ag100
ag139
ag104
ag59
ag184
ag194
ag209
ag80
ag74
ag115
ag127
ag221
ag214
ag123
ag195
ag168
ag143
ag218
ag89
ag138
ag30
ag46
ag76
ag175
ag42
ag78
ag118
ag179
ag156
ag9
ag43
ag197
ag108
ag160
ag207
ag213
ag200
ag173
ag70
ag177
ag186
ag165
ag188
ag18
ag170
ag94
ag204
ag183
ag77
ag67
ag24
ag149
ag126
ag150
ag164
ag61
ag99
ag103
ag110
ag210
ag19
ag189
ag8
ag101
ag147
ag154
ag196
ag190
ag40
ag28
ag131
ag58
ag84
ag220
ag121
ag56
ag15
ag36
ag137
ag98
ag96
ag22
ag39
ag97
ag64
ag21
ag17
ag174
ag122
ag31
ag13
ag215
ag157
ag47
ag192
ag44
ag171
ag91
ag199
ag151
ag65
ag23
ag29
ag26
ag66
ag119
ag102
ag180
ag219
ag82
ag81
ag161
ag95
ag198
ag201
ag90
ag144
ag60
ag50
ag172
ag141
ag111
ag129
ag73
ag167
ag79
ag155
ag182
ag202
ag37
ag132
ag45
ag181
ag116
ag124
ag41
ag212
ag11
ag52
ag117
ag135
ag211
ag57
ag20
ag34
ag93
ag68
ag69
ag153
ag106
ag163
ag72
ag169
ag105
ag33
ag178
ag148
ag205
ag10
ag16
ag166
ag88
ag48
ag133
ag130
ag51
ag83
ag38
ag112
ag12
ag136
ag107
ag187
ag55
ag63
ag152
ag85
ag159
ag128
ag27
ag158
ag125
ag32
ag114
ag217
ag203
asS'separator'
p227
S'='
sS'sparse'
p228
I01
sb.