ccopy_reg
_reconstructor
p1
(csklearn.feature_extraction.dict_vectorizer
DictVectorizer
p2
c__builtin__
object
p3
NtRp4
(dp5
S'vocabulary_'
p6
(dp7
S'nsubjpass=many'
p8
I96
sS'w-1=town'
p9
I546
sS'conj=order'
p10
I31
sS'w+1=commission'
p11
I168
sS'conj=bind'
p12
I27
sS'w-1=ideology'
p13
I514
sS'w-2=we'
p14
I736
sS'w+1=assault'
p15
I148
sS'w+1=emergency'
p16
I184
sS'nsubjpass=satellite'
p17
I100
sS'w+1=exchange'
p18
I187
sS'w-2=Friday'
p19
I567
sS'ccomp=re-use'
p20
I23
sS'w+2=sprinkle'
p21
I438
sS'dobj=civilian'
p22
I52
sS'w+1=strategy'
p23
I276
sS'w+2=between'
p24
I346
sS'w-1=cosponsor'
p25
I496
sS'w+2=civilian'
p26
I356
sS'dep=Koreas'
p27
I37
sS'w+2=interview'
p28
I389
sS'w+1=door'
p29
I182
sS'w-2=displace'
p30
I621
sS'w-1=border'
p31
I490
sS'w-1=America'
p32
I478
sS'w-2=just'
p33
I659
sS'w-2=administrative'
p34
I580
sS'w-2=dialogue'
p35
I618
sS'nsubjpass=those'
p36
I101
sS'w-1=.'
p37
I473
sS'w-2=they'
p38
I717
sS'w+1=albanian'
p39
I139
sS'prep=by'
p40
I107
sS'w-1=,'
p41
I472
sS'w-2=not'
p42
I674
sS'w-1=400'
p43
I477
sS'w+1=appeal'
p44
I144
sS'w-1=say'
p45
I534
sS'w+2=distance'
p46
I364
sS'prep=follow'
p47
I108
sS'w+1=lock'
p48
I219
sS'w-2=from'
p49
I639
sS'conj=traumatize'
p50
I35
sS'nsubjpass=#NUMBER#'
p51
I88
sS'dobj=Kurdistan'
p52
I43
sS'w+2=Security'
p53
I318
sS'conj=market'
p54
I30
sS'w-1=target'
p55
I538
sS'w-2=Istanbul'
p56
I570
sS'w+2=begin'
p57
I345
sS'w-1=by'
p58
I492
sS'w-1=be'
p59
I488
sS'w+1=fact'
p60
I188
sS'w+2=relative'
p61
I429
sS'w+1=program'
p62
I249
sS'w-2=family'
p63
I637
sS'w-2=the'
p64
I716
sS'w+1=case'
p65
I160
sS'w+2=Portugal'
p66
I317
sS'w+2=authorization'
p67
I341
sS'w-2=examine'
p68
I634
sS'w-2=before'
p69
I594
sS'nsubj=#PRP#'
p70
I80
sS'advmod=totally'
p71
I10
sS'w-1=five'
p72
I506
sS'w-2=toward'
p73
I722
sS'dobj=thing'
p74
I72
sS'w-2=who'
p75
I739
sS'dobj=indian'
p76
I62
sS'advmod=off'
p77
I7
sS'w+2=to'
p78
I453
sS'w-2=many'
p79
I667
sS'w-2=cut'
p80
I613
sS'w+1=faction'
p81
I189
sS'w-1=enter'
p82
I500
sS'w-2=process'
p83
I688
sS'w+1=assassination'
p84
I147
sS'w+1=ballot'
p85
I150
sS'w+2=occur'
p86
I409
sS'w+2=waste'
p87
I460
sS'w-2=secular'
p88
I702
sS'w+1=industrialize'
p89
I209
sS'w+2=bill'
p90
I347
sS'w+2=primitive'
p91
I419
sS'w+2=196-billion'
p92
I312
sS'w+2=in'
p93
I386
sS'w-2=install'
p94
I652
sS'advmod=#PRP#'
p95
I2
sS'w-2=see'
p96
I703
sS'w+1=deal'
p97
I175
sS'w+1=reform'
p98
I256
sS'w-1=document'
p99
I499
sS'w-1=four'
p100
I509
sS'w+1=talk'
p101
I281
sS'w-1=totally'
p102
I545
sS'aux=can'
p103
I13
sS'complm=that'
p104
I24
sS'w-2=want'
p105
I733
sS'w-2=wound'
p106
I745
sS'w+1=suicide'
p107
I278
sS'w-1=zone'
p108
I556
sS'w+1=panel'
p109
I236
sS'w+1=food'
p110
I191
sS'nsubj=ideology'
p111
I84
sS'dobj=Zimbabwe'
p112
I49
sS'w+1=court'
p113
I172
sS'w+2=vote'
p114
I458
sS'dobj=north'
p115
I65
sS'w+2=will'
p116
I464
sS'w+1=poll'
p117
I243
sS'w+2=primary'
p118
I418
sS'w+1=government'
p119
I197
sS'w+1=image'
p120
I204
sS'w-2=effort'
p121
I628
sS'w+2=by'
p122
I352
sS'w-1=pass'
p123
I531
sS'w+1=the'
p124
I286
sS'w-2=than'
p125
I714
sS'nsubj=amount'
p126
I82
sS'w+2=be'
p127
I342
sS'w+1=they'
p128
I289
sS'w+1=interview'
p129
I212
sS'w+1=politics'
p130
I242
sS'nsubjpass=#PRP#'
p131
I89
sS'w-2=Abkhazians'
p132
I560
sS'prep=in'
p133
I111
sS'w+2=appearance'
p134
I334
sS'aux=would'
p135
I18
sS'w+1=for'
p136
I192
sS'w-1=see'
p137
I535
sS'w+1=indian'
p138
I208
sS'w+1=attack'
p139
I149
sS'w+1=song'
p140
I267
sS'w-2=each'
p141
I627
sS'w+1=sanctions-related'
p142
I263
sS'prep=to'
p143
I114
sS'w-1=negotiate'
p144
I524
sS'w-2=Korea'
p145
I571
sS'w+2=blast'
p146
I348
sS'w+2=drive'
p147
I366
sS'dobj=cockpit'
p148
I53
sS'w+2=have'
p149
I380
sS'dobj=civil'
p150
I51
sS'w-2=impossible'
p151
I648
sS'w+1=and'
p152
I142
sS'w-2=auction'
p153
I590
sS'w-1=as'
p154
I486
sS'w-1=continually'
p155
I495
sS'w+2=deal'
p156
I363
sS'acomp=industrialize'
p157
I0
sS'w-1=family'
p158
I504
sS'w+2=for'
p159
I373
sS'w-2=warn'
p160
I735
sS'w+2=contract'
p161
I360
sS'nsubj=that'
p162
I86
sS'w+1=issue'
p163
I214
sS'w-1=a'
p164
I480
sS'w+1=book'
p165
I155
sS'w-1=homeland'
p166
I513
sS'w+1=study'
p167
I277
sS'w-2=wall'
p168
I732
sS'w-2=since'
p169
I710
sS'w+2=these'
p170
I450
sS'w-1=in'
p171
I515
sS'w+2=we'
p172
I461
sS'w+1=ourselves'
p173
I233
sS'conj=be'
p174
I26
sS'w-2=treatment'
p175
I723
sS'w-1=the'
p176
I541
sS'w+1=upcoming'
p177
I296
sS'w-2=seek'
p178
I704
sS'w+1=annual'
p179
I143
sS'w+2=issue'
p180
I392
sS'mark=if'
p181
I77
sS'w-2=present'
p182
I686
sS'w-1=curtain'
p183
I498
sS'w+1=legislation'
p184
I216
sS'w+1=day'
p185
I174
sS'w-2=send'
p186
I705
sS'w+2=now'
p187
I408
sS'w+2=bomb'
p188
I349
sS'advmod=where'
p189
I11
sS'w+2=space'
p190
I437
sS'w+1=islamic'
p191
I213
sS'w+1=nonbinding'
p192
I229
sS'w-2=least'
p193
I663
sS'w+2=when'
p194
I463
sS'w+1=remark'
p195
I259
sS'w+2=call'
p196
I353
sS'ccomp=dancer'
p197
I22
sS'w-1=many'
p198
I521
sS'dobj=village'
p199
I75
sS'w+1=death'
p200
I176
sS'w-2=virus'
p201
I730
sS'w+1=Europe'
p202
I126
sS'w+1=independent'
p203
I207
sS'w-2=become'
p204
I593
sS'w-2=its'
p205
I658
sS'w+1=theme'
p206
I287
sS'dobj=country'
p207
I56
sS'dobj=people'
p208
I66
sS'w+2=similar'
p209
I436
sS'w-2=through'
p210
I719
sS'prep=include'
p211
I112
sS'w-2=border'
p212
I596
sS'w-2=sanction'
p213
I698
sS'w+2=2005'
p214
I313
sS'w+2=amendment'
p215
I331
sS'w-2=River'
p216
I574
sS'w+2=report'
p217
I431
sS'w-2=show'
p218
I709
sS'w-2=lodge'
p219
I664
sS'w-2=Bush'
p220
I563
sS'w+2=warning'
p221
I459
sS'w+2=focus'
p222
I371
sS'w-1=along'
p223
I482
sS'dobj=North'
p224
I44
sS'w-2=on'
p225
I678
sS'nsubjpass=child'
p226
I93
sS'w+1=team'
p227
I283
sS'w-1=first'
p228
I505
sS'w-2=between'
p229
I595
sS'w-2=vote'
p230
I731
sS'w+1=unit'
p231
I295
sS'w+2=release'
p232
I430
sS'dobj=#PRP#'
p233
I39
sS'w-2=possible'
p234
I685
sS'w+1=domestic'
p235
I181
sS'w-2=music'
p236
I670
sS'w+1=you'
p237
I306
sS'w-2=about'
p238
I579
sS'w-2=child'
p239
I607
sS'dobj=facility'
p240
I58
sS'w+2=homeland'
p241
I385
sS'w-1=Zone'
p242
I479
sS'w-2=Tuesday'
p243
I576
sS'w-2=oppose'
p244
I680
sS'w+1=unfinished'
p245
I293
sS'w-2=take'
p246
I712
sS'w-1=entrench'
p247
I502
sS'dobj=contribution'
p248
I55
sS'w-1=12'
p249
I475
sS'w-1=11'
p250
I474
sS'w+2=against'
p251
I328
sS'w+1=he'
p252
I200
sS'w+1=process'
p253
I248
sS'w-1=own'
p254
I530
sS'w+1=themselves'
p255
I288
sS'w+1=genuine'
p256
I196
sS'prt=out'
p257
I116
sS'w+1=protest'
p258
I250
sS'w-1=country'
p259
I497
sS'w+2=welfare'
p260
I462
sS'w+1=foster'
p261
I193
sS'w-2=reunite'
p262
I696
sS'w-1=which'
p263
I553
sS'w+2=themselves'
p264
I448
sS'w-1=with'
p265
I555
sS'w+2=because'
p266
I343
sS'w-2=comprise'
p267
I610
sS'w-1=territory'
p268
I539
sS'dobj=fact'
p269
I59
sS'dobj=side'
p270
I69
sS'w+1=two'
p271
I292
sS'w+2=Asia'
p272
I315
sS'dobj=Georgia'
p273
I42
sS'w+1=rebel'
p274
I253
sS'conj=similar'
p275
I32
sS'w-2=she'
p276
I707
sS'prep=for'
p277
I109
sS'w-2=write'
p278
I746
sS'w-2=together'
p279
I721
sS'w+2=reflect'
p280
I426
sS'w-2=soldier'
p281
I711
sS'w-2=amount'
p282
I584
sS'w+2=legislation'
p283
I397
sS'w+2=at'
p284
I338
sS'w-1=force'
p285
I508
sS'w+2=as'
p286
I336
sS'w+2=include'
p287
I387
sS'w-2=distance'
p288
I622
sS'w-2=create'
p289
I611
sS'w+2=state'
p290
I440
sS'w-2=command'
p291
I609
sS'auxpass=be'
p292
I19
sS'w+1=North'
p293
I129
sS'dobj=Uruguay'
p294
I48
sS"w-1='s"
p295
I471
sS'w+2=Union'
p296
I324
sS'w-1=entirely'
p297
I501
sS'dobj=army'
p298
I50
sS'w+1=set'
p299
I264
sS'w+2=theory'
p300
I449
sS'dobj=community'
p301
I54
sS'w+1=Uruguay'
p302
I133
sS'number=#NUMBER#'
p303
I104
sS'w+2=strike'
p304
I442
sS'dobj=region'
p305
I68
sS'w-2=be'
p306
I592
sS'w+1=president'
p307
I245
sS'w+1=effort'
p308
I183
sS'advcl=strike'
p309
I1
sS'w+1=pipeline'
p310
I239
sS'w-1=bridge'
p311
I491
sS'w+1=venue'
p312
I298
sS'w+1=status'
p313
I275
sS'partmod=render'
p314
I105
sS'w+2=she'
p315
I434
sS'advmod=so'
p316
I8
sS'w+1=its'
p317
I215
sS'w+1=cell'
p318
I161
sS'w+1=operation'
p319
I231
sS'nsubjpass=patient'
p320
I99
sS'w+2=with'
p321
I465
sS'w+2=medical'
p322
I401
sS'w+1=presidential'
p323
I246
sS'w-1=up'
p324
I550
sS'w-1=strike'
p325
I537
sS'w+2=faction'
p326
I370
sS'nsubj=India'
p327
I81
sS'w-2=charge'
p328
I606
sS'w-2=buffer'
p329
I599
sS'w-2=place'
p330
I683
sS'w+2=aim'
p331
I329
sS'w+1=smoking'
p332
I266
sS'w+2=al-qaida'
p333
I330
sS'dobj=welfare'
p334
I76
sS'w-2=unite'
p335
I727
sS'w+1=Baghdad'
p336
I124
sS'nsubjpass=man'
p337
I95
sS'w+1=cross'
p338
I173
sS'dobj=government'
p339
I60
sS'w+2=of'
p340
I410
sS'w+1=testimony'
p341
I285
sS'advmod=sometimes'
p342
I9
sS'w+1=homeland'
p343
I203
sS'nsubjpass=woman'
p344
I103
sS'w+2=on'
p345
I412
sS'w-2=keep'
p346
I660
sS'w+2=version'
p347
I457
sS'w-1=area'
p348
I485
sS'w+2=he'
p349
I381
sS'w+2=make'
p350
I400
sS'w-2=establish'
p351
I631
sS'w+1=Georgia'
p352
I127
sS'w-2=bring'
p353
I598
sS'w+1=opinion'
p354
I232
sS'w+1=Zimbabwe'
p355
I135
sS'w-2=kill'
p356
I661
sS'w-1=line'
p357
I519
sS'w+2=star'
p358
I439
sS'w-1=pay'
p359
I532
sS'w+1=location'
p360
I218
sS'w+2=movement'
p361
I404
sS'w+1=measure'
p362
I222
sS'w+2=provide'
p363
I422
sS'w+1=political'
p364
I241
sS'w-1=willhold'
p365
I554
sS'w-1=north'
p366
I525
sS'w-2=campaign'
p367
I604
sS'w-2=must'
p368
I671
sS'w+1=hearing'
p369
I201
sS'w-2=Brussels'
p370
I562
sS'w+2=study'
p371
I443
sS'w-2=militant'
p372
I668
sS'w+1=news'
p373
I227
sS'w+2=two'
p374
I455
sS'w+1=van'
p375
I297
sS'advmod=continually'
p376
I3
sS'w+2=order'
p377
I414
sS'w-2=resident'
p378
I695
sS'w+1=request'
p379
I261
sS'w-2=troops'
p380
I724
sS'w-2=work'
p381
I743
sS'w-1=plan'
p382
I533
sS'w+1=interest'
p383
I211
sS'w-2=go'
p384
I642
sS'w-2=long'
p385
I665
sS'w+2=follow'
p386
I372
sS'w+1=survey'
p387
I280
sS'w+2=Brazil'
p388
I316
sS'w+2=distinct'
p389
I365
sS'w-2=terrorist'
p390
I713
sS'w-2=Wall'
p391
I577
sS'w-2=build'
p392
I600
sS'w+2=council'
p393
I362
sS'w-2=divide'
p394
I623
sS'w+2=review'
p395
I433
sS'w+1=Uzbeks'
p396
I134
sS'w-2=would'
p397
I744
sS'w-2=into'
p398
I653
sS'w+2=region'
p399
I427
sS'w+2=hamas-controlled'
p400
I379
sS'w-2=crossroads'
p401
I612
sS'nsubjpass=offspring'
p402
I98
sS'w+1=Sunnis'
p403
I130
sS'w+2=appropriation'
p404
I335
sS'w-2=Hadley'
p405
I568
sS'w-2=introduce'
p406
I654
sS'w+2=this'
p407
I452
sS'w+2=Afghan'
p408
I314
sS'dobj=Strip'
p409
I46
sS'w+1=peace'
p410
I238
sS'w+1=agreement'
p411
I137
sS'w+2=protect'
p412
I421
sS'w-2=river'
p413
I697
sS'w-2=iraqi'
p414
I655
sS'w-2=back'
p415
I591
sS'w+1=predominately'
p416
I244
sS'w+1=grenade'
p417
I198
sS'w+1=visit'
p418
I301
sS'dobj=home'
p419
I61
sS'w-2=escape'
p420
I630
sS'w+1=area'
p421
I145
sS'dobj=star'
p422
I70
sS'w+2=penalty'
p423
I416
sS'w-2=with'
p424
I741
sS'w-2=also'
p425
I583
sS'aux=will'
p426
I17
sS'w+1=raid'
p427
I251
sS'w-2=penalty'
p428
I682
sS'w+2=appeal'
p429
I333
sS'w-1=or'
p430
I529
sS'w+1=tank'
p431
I282
sS'w-2=university'
p432
I728
sS'w+2=Sunday'
p433
I320
sS'w-1=against'
p434
I481
sS'w-2=Moedlareuth'
p435
I573
sS'prep=with'
p436
I115
sS'w-2=negotiation'
p437
I672
sS'w+2=military'
p438
I403
sS'w+1=summit'
p439
I279
sS'w+1=branch'
p440
I156
sS'w-2=exchange'
p441
I635
sS'w+2=papers'
p442
I415
sS'w+2=quite'
p443
I423
sS'w+2=its'
p444
I393
sS'w+1=bombing'
p445
I154
sS'w+1=Tamil'
p446
I131
sS'w-2=reach'
p447
I691
sS'w+1=entity'
p448
I185
sS'w-2=India'
p449
I569
sS'w-2=in'
p450
I649
sS'w-2=president'
p451
I687
sS'w+2=cockpit'
p452
I357
sS'w-1=victim'
p453
I551
sS'w+1=chapter'
p454
I162
sS'w-2=it'
p455
I657
sS'w+2=shortly'
p456
I435
sS'nsubjpass=number'
p457
I97
sS'nsubjpass=Koreans'
p458
I91
sS'w+1=defense'
p459
I177
sS'w-2=injure'
p460
I651
sS'nsubjpass=family'
p461
I94
sS'w-1=matter'
p462
I522
sS"w-1=''"
p463
I470
sS'w+2=civil'
p464
I355
sS'w+1=party'
p465
I237
sS'w-2=ethnicity'
p466
I632
sS'dobj=island'
p467
I63
sS"w+2=''"
p468
I307
sS'w+2=accord'
p469
I327
sS'conj=continue'
p470
I28
sS'w+1=version'
p471
I299
sS'w+2=station'
p472
I441
sS'conj=corral'
p473
I29
sS'w+1=palestinian'
p474
I235
sS'nsubj=middle'
p475
I85
sS'dobj=Europe'
p476
I41
sS'w-2=range'
p477
I690
sS'nsubjpass=India'
p478
I90
sS'w-2=end'
p479
I629
sS'w+1=campaign'
p480
I159
sS'w+1=follow'
p481
I190
sS'w-2=woman'
p482
I742
sS'w-2=document'
p483
I625
sS'w+2=corral'
p484
I361
sS'dobj=Sunnis'
p485
I47
sS'w-2=develop'
p486
I617
sS'advmod=why'
p487
I12
sS'w-2=Leone'
p488
I572
sS'w-2=have'
p489
I644
sS'cc=and'
p490
I20
sS'w+1=incident'
p491
I206
sS'w-2=despite'
p492
I616
sS'w+1=by'
p493
I158
sS'w+1=recent'
p494
I254
sS'w-2=represent'
p495
I694
sS'w+1=regional'
p496
I257
sS"w+2='s"
p497
I308
sS'w-2=war'
p498
I734
sS'w+2=asylum'
p499
I337
sS'w+1=air'
p500
I138
sS'w+1=state'
p501
I273
sS'w+1=in'
p502
I205
sS'w-2=Congress'
p503
I564
sS'w-1=constitution'
p504
I494
sS'w+1=newspaper'
p505
I228
sS'w+2=group'
p506
I378
sS'w-2=fund'
p507
I640
sS'w+2=go'
p508
I376
sS'w+2=little'
p509
I398
sS'w-2=objectify'
p510
I676
sS'w-2=sea'
p511
I701
sS'w+1=shooting'
p512
I265
sS'cc=but'
p513
I21
sS'w-2=advance'
p514
I581
sS'nsubjpass=waste'
p515
I102
sS'w+1=development'
p516
I179
sS'w+2=before'
p517
I344
sS'w-2=or'
p518
I681
sS'w-1=approve'
p519
I484
sS'w+2=involve'
p520
I390
sS'w+1=stateha'
p521
I274
sS'w+1=conflict'
p522
I170
sS'w+1=checkpoint'
p523
I164
sS'dobj=state'
p524
I71
sS'w-1=three'
p525
I543
sS'w+2=multi-billion'
p526
I405
sS'w-1=184'
p527
I476
sS'w+1=source'
p528
I268
sS'w-2=down'
p529
I626
sS'w+1=ministry'
p530
I225
sS'w-1=make'
p531
I520
sS'dobj=East'
p532
I40
sS'w+1=$'
p533
I118
sS'w+2=briefing'
p534
I351
sS'w+1=tsunami'
p535
I291
sS'w-1=its'
p536
I517
sS'w-2=demand'
p537
I614
sS'w+2=competition'
p538
I358
sS'rcmod=need'
p539
I117
sS'w-1=land'
p540
I518
sS'w+1=report'
p541
I260
sS'w-1=have'
p542
I510
sS'w-2=under'
p543
I726
sS'w-2=of'
p544
I677
sS'w+1=letter'
p545
I217
sS'w-2=lead'
p546
I662
sS'w+2=hold'
p547
I383
sS'w-2=by'
p548
I602
sS'w+2=system'
p549
I445
sS'nsubj=which'
p550
I87
sS'w+1=meeting'
p551
I223
sS'w+2=they'
p552
I451
sS'w+2=old'
p553
I411
sS'conj=allow'
p554
I25
sS'dobj=Serb'
p555
I45
sS'w+1=computer'
p556
I169
sS'w+1=group'
p557
I199
sS'w-1=under'
p558
I549
sS'dep=have'
p559
I38
sS'w+1=.'
p560
I120
sS'w+1=allegation'
p561
I140
sS'w-1=to'
p562
I544
sS'w-2=evolve'
p563
I633
sS'w+2=later'
p564
I395
sS'w-1=two'
p565
I548
sS'dobj=kilometer'
p566
I64
sS'w+2=that'
p567
I446
sS'w-2=hold'
p568
I647
sS'w+2=conference'
p569
I359
sS'w+2=home'
p570
I384
sS'w-1=on'
p571
I528
sS'nsubj=church'
p572
I83
sS'w-1=child'
p573
I493
sS'dobj=enemy'
p574
I57
sS'w+1=East'
p575
I125
sS'w+1=bomb'
p576
I153
sS'w+1=clash'
p577
I165
sS'w-2=zone'
p578
I747
sS'w+2=Terrence'
p579
I321
sS'w-2=which'
p580
I738
sS'w-2=demarcation'
p581
I615
sS'w-1=of'
p582
I527
sS'w+1=spanish-language'
p583
I270
sS'w-2=Egypt'
p584
I566
sS'w-2=to'
p585
I720
sS'w+2=and'
p586
I332
sS'w-2=and'
p587
I585
sS'w+2=island'
p588
I391
sS'w+1=actor'
p589
I136
sS'w-2=repel'
p590
I693
sS'w+2=four'
p591
I374
sS'w+2=historical'
p592
I382
sS'nsubjpass=attack'
p593
I92
sS'neg=not'
p594
I79
sS'w+2=real'
p595
I425
sS'w+1=code'
p596
I166
sS'w+1=world'
p597
I305
sS'cop=be'
p598
I36
sS'w+2=troops'
p599
I454
sS'w-2=he'
p600
I645
sS'w+2=korean'
p601
I394
sS'w+2=lush'
p602
I399
sS'prep=since'
p603
I113
sS"w-2='s"
p604
I557
sS'w+1=police'
p605
I240
sS'w+2=raise'
p606
I424
sS'w+2=attack'
p607
I339
sS'w-2=goal'
p608
I643
sS'w+2=process'
p609
I420
sS'advmod=now'
p610
I6
sS'w-2=say'
p611
I700
sS'w+1=way'
p612
I303
sS'w-2=only'
p613
I679
sS'w-2=much'
p614
I669
sS'w+2=the'
p615
I447
sS'prep=at'
p616
I106
sS'w-2=will'
p617
I740
sS'w+1=army'
p618
I146
sS'w-2=,'
p619
I558
sS'w-2=.'
p620
I559
sS'w-2=violence'
p621
I729
sS'w-1=and'
p622
I483
sS'w-2=try'
p623
I725
sS'w-2=die'
p624
I619
sS'w+1=Kurdistan'
p625
I128
sS'aux=have'
p626
I14
sS'w-2=but'
p627
I601
sS'w-2=divorce'
p628
I624
sS'w+1=major'
p629
I220
sS'w+2=only'
p630
I413
sS'w+2=relate'
p631
I428
sS'w-2=thing'
p632
I718
sS'w+2=Serb'
p633
I319
sS'w+1=blast'
p634
I152
sS'w+2=muslim'
p635
I406
sS'w-2=now'
p636
I675
sS'w+1=trial'
p637
I290
sS'w-2=South'
p638
I575
sS'w+1=videotape'
p639
I300
sS'w+1=military'
p640
I224
sS'w-2=at'
p641
I588
sS'w-2=as'
p642
I587
sS'w-2=man'
p643
I666
sS'w+1=himself'
p644
I202
sS'w+2=Wednesday'
p645
I325
sS'w-2=face'
p646
I636
sS'advmod=long'
p647
I5
sS'w-1=tradition'
p648
I547
sS'aux=should'
p649
I15
sS'w+2=resolution'
p650
I432
sS'w+2=supplemental'
p651
I444
sS'w+2=government'
p652
I377
sS'w-2=Bank'
p653
I561
sS'w+1=democratic'
p654
I178
sS'w-2=a'
p655
I578
sS'w-1=they'
p656
I542
sS'dobj=phase'
p657
I67
sS'w+2=worship'
p658
I468
sS'w+2=enemy'
p659
I367
sS'w+1=union'
p660
I294
sS'w+1=matter'
p661
I221
sS'w+2=attempt'
p662
I340
sS'w+1=press'
p663
I247
sS'conj=sprinkle'
p664
I33
sS'w-2=nomination'
p665
I673
sS'w-1=he'
p666
I511
sS'w-2=include'
p667
I650
sS'w+1=bill'
p668
I151
sS'w+1=information'
p669
I210
sS'w+1=from'
p670
I194
sS'w-1=hold'
p671
I512
sS'w-2=city'
p672
I608
sS'advmod=entirely'
p673
I4
sS'w-2=Demilitarized'
p674
I565
sS'w+1=document'
p675
I180
sS'w-2=issue'
p676
I656
sS'w-2=satellite'
p677
I699
sS'w+1=species'
p678
I271
sS'w-2=all'
p679
I582
sS'w+2=unharmed'
p680
I456
sS'w+2=people'
p681
I417
sS'w+2=fact'
p682
I369
sS'w+1=north'
p683
I230
sS'w-2=political'
p684
I684
sS'w-2=series'
p685
I706
sS'w+2=border'
p686
I350
sS'w-2=for'
p687
I638
sS'w-2=call'
p688
I603
sS'dobj=troops'
p689
I74
sS'w-1=face'
p690
I503
sS'w-2=armed'
p691
I586
sS'w+1=sphere'
p692
I272
sS'w-2=refugee'
p693
I692
sS'w+2=challenge'
p694
I354
sS'w-2=hear'
p695
I646
sS'w-1=sometimes'
p696
I536
sS'mark=since'
p697
I78
sS'w+1=U.N.'
p698
I132
sS'w+2=U.S.'
p699
I323
sS'w+1=muslim'
p700
I226
sS'w-2=put'
p701
I689
sS'prep=from'
p702
I110
sS'w+2=Tuesday'
p703
I322
sS'w+2=within'
p704
I466
sS'w+1=when'
p705
I304
sS'w+2=woman'
p706
I467
sS'w-1=we'
p707
I552
sS'aux=to'
p708
I16
sS'w-2=attempt'
p709
I589
sS'w-2=should'
p710
I708
sS'w+2=would'
p711
I469
sS'w+1=48-hour'
p712
I121
sS'w-2=break'
p713
I597
sS'w+1=African'
p714
I123
sS'w-2=can'
p715
I605
sS'w+1=resolution'
p716
I262
sS'w+1=sovereign'
p717
I269
sS'w-1=that'
p718
I540
sS'w+1=country'
p719
I171
sS'w-1=for'
p720
I507
sS'w+1=,'
p721
I119
sS'w+1=out'
p722
I234
sS'w-2=give'
p723
I641
sS'w-2=that'
p724
I715
sS'w+2=entity'
p725
I368
sS'w+2=.'
p726
I311
sS'w+2=,'
p727
I309
sS'w+2=--'
p728
I310
sS'w+1=?'
p729
I122
sS'conj=tell'
p730
I34
sS'w+2=lebanese'
p731
I396
sS'dobj=town'
p732
I73
sS'w+1=ambush'
p733
I141
sS'w-1=namely'
p734
I523
sS'w+1=referendum'
p735
I255
sS'w-2=weekend'
p736
I737
sS'w+2=meeting'
p737
I402
sS'w+1=column'
p738
I167
sS'w+1=telephone'
p739
I284
sS'w+1=ethnic'
p740
I186
sS'w-1=not'
p741
I526
sS'w-1=begin'
p742
I489
sS'w+1=but'
p743
I157
sS'w-2=difficult'
p744
I620
sS'w-1=at'
p745
I487
sS'w+2=intelligence'
p746
I388
sS'w-1=include'
p747
I516
sS'w+1=vote'
p748
I302
sS'w+1=religion'
p749
I258
sS'w+2=north'
p750
I407
sS'w+2=from'
p751
I375
sS'w+1=function'
p752
I195
sS'w+1=rally'
p753
I252
sS'w+2=a'
p754
I326
sS'w+1=charge'
p755
I163
ssS'dtype'
p756
cnumpy
float64
p757
sS'feature_names_'
p758
(lp759
g157
ag309
ag95
ag376
ag673
ag647
ag610
ag77
ag316
ag342
ag71
ag189
ag487
ag103
ag626
ag649
ag708
ag426
ag135
ag292
ag490
ag513
ag197
ag20
ag104
ag554
ag174
ag12
ag470
ag473
ag54
ag10
ag275
ag664
ag730
ag50
ag598
ag27
ag559
ag233
ag532
ag476
ag273
ag52
ag224
ag555
ag409
ag485
ag294
ag112
ag298
ag150
ag22
ag148
ag301
ag248
ag207
ag574
ag240
ag269
ag339
ag419
ag76
ag467
ag566
ag115
ag208
ag657
ag305
ag270
ag422
ag524
ag74
ag732
ag689
ag199
ag334
ag181
ag697
ag594
ag70
ag327
ag126
ag572
ag111
ag475
ag162
ag550
ag51
ag131
ag478
ag458
ag593
ag226
ag461
ag337
ag8
ag457
ag402
ag320
ag17
ag36
ag515
ag344
ag303
ag314
ag616
ag40
ag47
ag277
ag702
ag133
ag211
ag603
ag143
ag436
ag257
ag539
ag533
ag721
ag560
ag712
ag729
ag714
ag336
ag575
ag202
ag352
ag625
ag293
ag403
ag446
ag698
ag302
ag396
ag355
ag589
ag411
ag500
ag39
ag561
ag733
ag152
ag179
ag44
ag421
ag618
ag84
ag15
ag139
ag85
ag668
ag634
ag576
ag445
ag165
ag440
ag743
ag493
ag480
ag65
ag318
ag454
ag755
ag523
ag577
ag596
ag738
ag11
ag556
ag522
ag719
ag113
ag338
ag185
ag97
ag200
ag459
ag654
ag516
ag675
ag235
ag29
ag308
ag16
ag448
ag740
ag18
ag60
ag81
ag481
ag110
ag136
ag261
ag670
ag752
ag256
ag119
ag417
ag557
ag252
ag369
ag644
ag343
ag120
ag502
ag491
ag203
ag138
ag89
ag669
ag383
ag129
ag191
ag163
ag317
ag184
ag545
ag360
ag48
ag629
ag661
ag362
ag551
ag640
ag530
ag700
ag373
ag505
ag192
ag683
ag319
ag354
ag173
ag722
ag474
ag109
ag465
ag410
ag310
ag605
ag364
ag130
ag117
ag416
ag307
ag323
ag663
ag253
ag62
ag258
ag427
ag753
ag274
ag494
ag735
ag98
ag496
ag749
ag195
ag541
ag379
ag716
ag142
ag299
ag512
ag332
ag140
ag528
ag717
ag583
ag678
ag692
ag501
ag521
ag313
ag23
ag167
ag107
ag439
ag387
ag101
ag431
ag227
ag739
ag341
ag124
ag206
ag255
ag128
ag637
ag535
ag271
ag245
ag660
ag231
ag177
ag375
ag312
ag471
ag639
ag418
ag748
ag612
ag705
ag597
ag237
ag468
ag497
ag727
ag728
ag726
ag92
ag214
ag408
ag272
ag388
ag66
ag53
ag633
ag433
ag579
ag703
ag699
ag296
ag645
ag754
ag469
ag251
ag331
ag333
ag215
ag586
ag429
ag134
ag404
ag286
ag499
ag284
ag607
ag662
ag67
ag127
ag266
ag517
ag57
ag24
ag90
ag146
ag188
ag686
ag534
ag122
ag196
ag694
ag464
ag26
ag452
ag538
ag569
ag161
ag484
ag393
ag156
ag46
ag389
ag147
ag659
ag725
ag682
ag326
ag222
ag386
ag159
ag591
ag751
ag508
ag652
ag506
ag400
ag149
ag349
ag592
ag547
ag570
ag241
ag93
ag287
ag746
ag28
ag520
ag588
ag180
ag444
ag601
ag564
ag731
ag283
ag509
ag602
ag350
ag322
ag737
ag438
ag361
ag526
ag635
ag750
ag187
ag86
ag340
ag553
ag345
ag630
ag377
ag442
ag423
ag681
ag118
ag91
ag609
ag412
ag363
ag443
ag606
ag595
ag280
ag399
ag631
ag61
ag232
ag217
ag650
ag395
ag315
ag456
ag209
ag190
ag21
ag358
ag290
ag472
ag304
ag371
ag651
ag549
ag567
ag615
ag264
ag300
ag170
ag552
ag407
ag78
ag599
ag374
ag680
ag347
ag114
ag221
ag87
ag172
ag260
ag194
ag116
ag321
ag704
ag706
ag658
ag711
ag463
ag295
ag41
ag37
ag250
ag249
ag527
ag43
ag32
ag242
ag164
ag434
ag223
ag622
ag519
ag348
ag154
ag745
ag59
ag742
ag31
ag311
ag58
ag573
ag504
ag155
ag25
ag259
ag183
ag99
ag82
ag297
ag247
ag690
ag158
ag228
ag72
ag720
ag285
ag100
ag542
ag666
ag671
ag166
ag13
ag171
ag747
ag536
ag540
ag357
ag531
ag198
ag462
ag734
ag144
ag366
ag741
ag582
ag571
ag430
ag254
ag123
ag359
ag382
ag45
ag137
ag696
ag325
ag55
ag268
ag718
ag176
ag656
ag525
ag562
ag102
ag9
ag648
ag565
ag558
ag324
ag453
ag707
ag263
ag365
ag265
ag108
ag604
ag619
ag620
ag132
ag653
ag370
ag220
ag503
ag674
ag584
ag19
ag405
ag449
ag56
ag145
ag488
ag435
ag216
ag638
ag243
ag391
ag655
ag238
ag34
ag514
ag679
ag425
ag282
ag587
ag691
ag642
ag641
ag709
ag153
ag415
ag306
ag204
ag69
ag229
ag212
ag713
ag353
ag329
ag392
ag627
ag548
ag688
ag367
ag715
ag328
ag239
ag672
ag291
ag267
ag289
ag401
ag80
ag537
ag581
ag492
ag486
ag35
ag624
ag744
ag30
ag288
ag394
ag628
ag483
ag529
ag141
ag121
ag479
ag420
ag351
ag466
ag563
ag68
ag441
ag646
ag63
ag687
ag49
ag507
ag723
ag384
ag608
ag489
ag600
ag695
ag568
ag151
ag450
ag667
ag460
ag94
ag398
ag406
ag414
ag676
ag455
ag205
ag33
ag346
ag356
ag546
ag193
ag219
ag385
ag643
ag79
ag372
ag614
ag236
ag368
ag437
ag665
ag42
ag636
ag510
ag544
ag225
ag613
ag244
ag518
ag428
ag330
ag684
ag234
ag182
ag451
ag83
ag701
ag477
ag447
ag693
ag590
ag495
ag378
ag262
ag413
ag213
ag677
ag611
ag511
ag88
ag96
ag178
ag186
ag685
ag276
ag710
ag218
ag169
ag281
ag246
ag390
ag125
ag724
ag64
ag38
ag632
ag210
ag585
ag279
ag73
ag175
ag380
ag623
ag543
ag335
ag432
ag621
ag201
ag230
ag168
ag105
ag498
ag160
ag14
ag736
ag580
ag75
ag617
ag424
ag482
ag381
ag397
ag106
ag278
ag578
asS'separator'
p760
S'='
sS'sparse'
p761
I01
sb.