ccopy_reg
_reconstructor
p1
(csklearn.feature_extraction.dict_vectorizer
DictVectorizer
p2
c__builtin__
object
p3
NtRp4
(dp5
S'vocabulary_'
p6
(dp7
S'w-1=factor'
p8
I84
sS'nsubj=which'
p9
I38
sS'advmod=more'
p10
I4
sS'ccomp=speak'
p11
I13
sS'nsubj=kid'
p12
I31
sS'w-2=people'
p13
I110
sS'w-2=which'
p14
I126
sS'w-1=kid'
p15
I86
sS'xcomp=form'
p16
I128
sS'nsubj=visitor'
p17
I37
sS'w+2=girl'
p18
I64
sS'w-2=get'
p19
I107
sS'w-2=want'
p20
I124
sS'w+2=any'
p21
I57
sS'w-1=or'
p22
I88
sS'rel=in'
p23
I45
sS'w+2=each'
p24
I62
sS'w-1=Federation'
p25
I79
sS'w-2=student'
p26
I115
sS'xcomp=cause'
p27
I127
sS'w-2=have'
p28
I109
sS'w-2=they'
p29
I119
sS'w-1=to'
p30
I92
sS'w+2=and'
p31
I56
sS'w-2=and'
p32
I101
sS'w-1=,'
p33
I78
sS'w+2=member'
p34
I69
sS'w+1=that'
p35
I52
sS'nsubj=government'
p36
I30
sS'w-1=always'
p37
I81
sS'prep=in'
p38
I42
sS'w+2=both'
p39
I58
sS'w-2=the'
p40
I117
sS'w-2=serve'
p41
I114
sS'w-2=City'
p42
I99
sS'w+2=local'
p43
I67
sS'w+2=citizen'
p44
I61
sS'w+1=with'
p45
I54
sS'ccomp=feel'
p46
I11
sS'advmod=really'
p47
I5
sS'w+2=can'
p48
I59
sS'w+2=the'
p49
I74
sS'prep=at'
p50
I40
sS'w+1=at'
p51
I49
sS'w-2=,'
p52
I97
sS'nsubj=people'
p53
I32
sS'prep=with'
p54
I44
sS'w+2=he'
p55
I65
sS'aux=have'
p56
I7
sS'w-2=government'
p57
I108
sS'w+2=people'
p58
I72
sS'w-2=directly'
p59
I105
sS'conj=build'
p60
I15
sS'conj=learn'
p61
I18
sS'w-1=can'
p62
I83
sS'conj=fruitful'
p63
I16
sS'w-2=time'
p64
I121
sS'w-2=able'
p65
I100
sS'w-2=chance'
p66
I103
sS'nsubj=Federation'
p67
I28
sS'prep=through'
p68
I43
sS'w-1=which'
p69
I94
sS'w-1=I'
p70
I80
sS'conj=have'
p71
I17
sS'w+2=cause'
p72
I60
sS'w-1=they'
p73
I91
sS'w+2=patient'
p74
I71
sS'dep=that'
p75
I23
sS'conj=perform'
p76
I20
sS'w+2=other'
p77
I70
sS'conj=run'
p78
I21
sS'dobj=another'
p79
I24
sS'dobj=one-on-one'
p80
I25
sS'w+2=what'
p81
I76
sS'w-2=those'
p82
I120
sS'ccomp=have'
p83
I12
sS'prep=about'
p84
I39
sS'aux=can'
p85
I6
sS'complm=that'
p86
I14
sS'w+2=they'
p87
I75
sS'w-2=visitor'
p88
I123
sS'advmod=always'
p89
I2
sS'w+2=fan'
p90
I63
sS'w-2=democratic'
p91
I104
sS'w-1=virus'
p92
I93
sS'w-1=government'
p93
I85
sS'xcomp=get'
p94
I129
sS'cc=and'
p95
I9
sS'nsubj=student'
p96
I34
sS'w-2=that'
p97
I116
sS'aux=to'
p98
I8
sS"w-2='ll"
p99
I96
sS'w-2=tool'
p100
I122
sS'conj=say'
p101
I22
sS'w+2=some'
p102
I73
sS'advmod=how'
p103
I3
sS'w+1=in'
p104
I50
sS'w+2=with'
p105
I77
sS'nsubj=#PRP#'
p106
I27
sS'w+1=about'
p107
I47
sS'prep=from'
p108
I41
sS'advcl=find'
p109
I0
sS'w-2=see'
p110
I113
sS'w-1=miss'
p111
I87
sS'nsubj=virus'
p112
I36
sS'cc=but'
p113
I10
sS'w-1=people'
p114
I89
sS'w-2=apprentice'
p115
I102
sS'dobj=the'
p116
I26
sS'conj=make'
p117
I19
sS'xcomp=make'
p118
I130
sS'w-2=watch'
p119
I125
sS'w+1=and'
p120
I48
sS'w-2=robot'
p121
I112
sS"w-2=''"
p122
I95
sS'w+1=.'
p123
I46
sS'w+1=to'
p124
I53
sS'w+1=one-on-one'
p125
I51
sS'w-2=these'
p126
I118
sS'nsubj=that'
p127
I35
sS'w-1=and'
p128
I82
sS'w+2=make'
p129
I68
sS'w-2=field'
p130
I106
sS'w-2=.'
p131
I98
sS'advcl=learn'
p132
I1
sS'nsubj=factor'
p133
I29
sS'nsubj=science'
p134
I33
sS'w-1=that'
p135
I90
sS'w+2=issue'
p136
I66
sS'w-2=relate'
p137
I111
sS'w+2=a'
p138
I55
ssS'dtype'
p139
cnumpy
float64
p140
sS'feature_names_'
p141
(lp142
g109
ag132
ag89
ag103
ag10
ag47
ag85
ag56
ag98
ag95
ag113
ag46
ag83
ag11
ag86
ag60
ag63
ag71
ag61
ag117
ag76
ag78
ag101
ag75
ag79
ag80
ag116
ag106
ag67
ag133
ag36
ag12
ag53
ag134
ag96
ag127
ag112
ag17
ag9
ag84
ag50
ag108
ag38
ag68
ag54
ag23
ag123
ag107
ag120
ag51
ag104
ag125
ag35
ag124
ag45
ag138
ag31
ag21
ag39
ag48
ag72
ag44
ag24
ag90
ag18
ag55
ag136
ag43
ag129
ag34
ag77
ag74
ag58
ag102
ag49
ag87
ag81
ag105
ag33
ag25
ag70
ag37
ag128
ag62
ag8
ag93
ag15
ag111
ag22
ag114
ag135
ag73
ag30
ag92
ag69
ag122
ag99
ag52
ag131
ag42
ag65
ag32
ag115
ag66
ag91
ag59
ag130
ag19
ag57
ag28
ag13
ag137
ag121
ag110
ag41
ag26
ag97
ag40
ag126
ag29
ag82
ag64
ag100
ag88
ag20
ag119
ag14
ag27
ag16
ag94
ag118
asS'separator'
p143
S'='
sS'sparse'
p144
I01
sb.