ccopy_reg
_reconstructor
p1
(csklearn.feature_extraction.dict_vectorizer
DictVectorizer
p2
c__builtin__
object
p3
NtRp4
(dp5
S'vocabulary_'
p6
(dp7
S'w+1=pressure'
p8
I78
sS'w+2=loss'
p9
I100
sS'w+2=two'
p10
I114
sS'advcl=collapse'
p11
I1
sS'w-2=instead'
p12
I146
sS'w-2=we'
p13
I162
sS'dobj=battle'
p14
I27
sS'w+2=entire'
p15
I94
sS'nsubj=way'
p16
I50
sS'nsubjpass=commander'
p17
I54
sS'w+1=Yurchikhin'
p18
I66
sS'w-2=mean'
p19
I149
sS'dobj=country'
p20
I29
sS'w+2=institution'
p21
I98
sS'w-2=use'
p22
I160
sS'w+2=.'
p23
I88
sS'prep=that'
p24
I63
sS'w+2=tension'
p25
I111
sS'w+1=diplomatic'
p26
I71
sS'dobj=Yurchikhin'
p27
I26
sS'w+1=lending'
p28
I74
sS'w+2=this'
p29
I113
sS'dobj=pressure'
p30
I37
sS'w-2=need'
p31
I151
sS'ccomp=confirm'
p32
I16
sS'w-1=of'
p33
I126
sS'w-2=they'
p34
I157
sS'w-1=to'
p35
I128
sS'prep=by'
p36
I58
sS'w+2=and'
p37
I89
sS'w+2=report'
p38
I107
sS'w+2=she'
p39
I108
sS'w+1=that'
p40
I82
sS'dobj=plight'
p41
I36
sS'dobj=#PRP#'
p42
I24
sS'dobj=pain'
p43
I35
sS'w-2=possible'
p44
I155
sS'w-1=should'
p45
I127
sS'w-1=would'
p46
I129
sS'advmod=also'
p47
I4
sS'w+1=stress'
p48
I81
sS'w-2=he'
p49
I144
sS'ccomp=safe'
p50
I18
sS'nsubj=institution'
p51
I47
sS'aux=will'
p52
I12
sS'w+1=with'
p53
I86
sS'w+2=suffering'
p54
I110
sS'advmod=already'
p55
I3
sS'w-2=this'
p56
I158
sS'w-2=commander'
p57
I136
sS'advmod=just'
p58
I5
sS'prep=over'
p59
I62
sS'nsubj=decision'
p60
I45
sS'w-2=,'
p61
I130
sS'prep=with'
p62
I64
sS'w-1=and'
p63
I119
sS'w+2=undermanned'
p64
I115
sS'dobj=other'
p65
I34
sS'dobj=stress'
p66
I39
sS'aux=have'
p67
I9
sS'w-1=be'
p68
I120
sS'dobj=force'
p69
I32
sS'w-1=.'
p70
I116
sS'w+1=pain'
p71
I77
sS'w-2=family'
p72
I140
sS'w+1=african'
p73
I68
sS'w-2=official'
p74
I154
sS'nsubjpass=leader'
p75
I55
sS'w+1=chest'
p76
I70
sS'w-1=also'
p77
I118
sS'w+2=country'
p78
I92
sS'w-2=effective'
p79
I139
sS'aux=should'
p80
I10
sS'w+1=of'
p81
I76
sS'ccomp=limit'
p82
I17
sS'w-2=will'
p83
I163
sS'w-2=it'
p84
I148
sS'dobj=congestion'
p85
I28
sS'w-2=she'
p86
I156
sS'w+2=depression'
p87
I93
sS'w+1=international'
p88
I72
sS'dobj=crisis'
p89
I30
sS'w-2=early'
p90
I138
sS'mark=as'
p91
I42
sS'conj=change'
p92
I21
sS'w-2=institution'
p93
I147
sS'w+2=pain'
p94
I104
sS'dobj=institution'
p95
I33
sS'auxpass=be'
p96
I14
sS'aux=can'
p97
I8
sS'complm=that'
p98
I20
sS'dobj=depression'
p99
I31
sS'w-2=Israel'
p100
I131
sS'w-2=concern'
p101
I137
sS'w-2=negotiation'
p102
I152
sS'w+2=immediate'
p103
I97
sS'w-2=to'
p104
I159
sS'cc=and'
p105
I15
sS'w+2=have'
p106
I95
sS'advcl=be'
p107
I0
sS'conj=improve'
p108
I22
sS'nsubjpass=official'
p109
I56
sS'w+1=the'
p110
I83
sS'w+2=long'
p111
I99
sS'w+1=by'
p112
I69
sS'w-1=just'
p113
I125
sS'w+2=be'
p114
I90
sS'w-2=group'
p115
I143
sS'dep=focus'
p116
I23
sS'advmod=now'
p117
I6
sS'w+1=mount'
p118
I75
sS'nsubjpass=#PRP#'
p119
I51
sS'w+2=congestion'
p120
I91
sS'nsubjpass=Korea'
p121
I52
sS'prep=in'
p122
I59
sS'aux=would'
p123
I13
sS'w-2=way'
p124
I161
sS'w-1=about'
p125
I117
sS'dobj=suffering'
p126
I40
sS'w+1=Haiti'
p127
I65
sS'w+1=it'
p128
I73
sS'w+2=plight'
p129
I105
sS'nsubj=#PRP#'
p130
I44
sS'w-2=Station'
p131
I134
sS'w+2=other'
p132
I103
sS'ccomp=treat'
p133
I19
sS'w+2=of'
p134
I101
sS'w+1=when'
p135
I85
sS'aux=to'
p136
I11
sS'w-2=Korea'
p137
I132
sS'prep=on'
p138
I61
sS'w+2=stress'
p139
I109
sS'w-1=election'
p140
I121
sS'w-2=humor'
p141
I145
sS'w-1=help'
p142
I123
sS'nsubj=negotiation'
p143
I48
sS'dobj=some'
p144
I38
sS'xcomp=clear'
p145
I164
sS'w-2=force'
p146
I142
sS'nsubj=this'
p147
I49
sS'nsubjpass=relation'
p148
I57
sS'w+1=some'
p149
I80
sS'w+2=,'
p150
I87
sS'w+2=on'
p151
I102
sS'w+1=to'
p152
I84
sS'neg=not'
p153
I43
sS'w-2=money'
p154
I150
sS'dobj=Haiti'
p155
I25
sS'advcl=suspect'
p156
I2
sS'w+2=he'
p157
I96
sS'w-2=Mohamed'
p158
I133
sS'w-2=antidepressant'
p159
I135
sS'w-1=in'
p160
I124
sS'w-2=fit'
p161
I141
sS'w+1=a'
p162
I67
sS'w-2=not'
p163
I153
sS'nsubj=group'
p164
I46
sS'prep=of'
p165
I60
sS'w+2=the'
p166
I112
sS'w-1=have'
p167
I122
sS'xcomp=inform'
p168
I165
sS'dobj=tension'
p169
I41
sS'w+2=pressure'
p170
I106
sS'aux=be'
p171
I7
sS'nsubjpass=Mohamed'
p172
I53
sS'w+1=sinus'
p173
I79
ssS'dtype'
p174
cnumpy
float64
p175
sS'feature_names_'
p176
(lp177
g107
ag11
ag156
ag55
ag47
ag58
ag117
ag171
ag97
ag67
ag80
ag136
ag52
ag123
ag96
ag105
ag32
ag82
ag50
ag133
ag98
ag92
ag108
ag116
ag42
ag155
ag27
ag14
ag85
ag20
ag89
ag99
ag69
ag95
ag65
ag43
ag41
ag30
ag144
ag66
ag126
ag169
ag91
ag153
ag130
ag60
ag164
ag51
ag143
ag147
ag16
ag119
ag121
ag172
ag17
ag75
ag109
ag148
ag36
ag122
ag165
ag138
ag59
ag24
ag62
ag127
ag18
ag162
ag73
ag112
ag76
ag26
ag88
ag128
ag28
ag118
ag81
ag71
ag8
ag173
ag149
ag48
ag40
ag110
ag152
ag135
ag53
ag150
ag23
ag37
ag114
ag120
ag78
ag87
ag15
ag106
ag157
ag103
ag21
ag111
ag9
ag134
ag151
ag132
ag94
ag129
ag170
ag38
ag39
ag139
ag54
ag25
ag166
ag29
ag10
ag64
ag70
ag125
ag77
ag63
ag68
ag140
ag167
ag142
ag160
ag113
ag33
ag45
ag35
ag46
ag61
ag100
ag137
ag158
ag131
ag159
ag57
ag101
ag90
ag79
ag72
ag161
ag146
ag115
ag49
ag141
ag12
ag93
ag84
ag19
ag154
ag31
ag102
ag163
ag74
ag44
ag86
ag34
ag56
ag104
ag22
ag124
ag13
ag83
ag145
ag168
asS'separator'
p178
S'='
sS'sparse'
p179
I01
sb.