ccopy_reg
_reconstructor
p1
(csklearn.feature_extraction.dict_vectorizer
DictVectorizer
p2
c__builtin__
object
p3
NtRp4
(dp5
S'vocabulary_'
p6
(dp7
S'nn=leadership'
p8
I16
sS'prep=towards'
p9
I30
sS'advmod=more'
p10
I4
sS'w-2=people'
p11
I81
sS'advmod=often'
p12
I5
sS'w-1=many'
p13
I66
sS'w+2=that'
p14
I54
sS'w-2=boat'
p15
I73
sS'w+1=south'
p16
I42
sS'prep=along'
p17
I25
sS'w-1=worker'
p18
I70
sS'w-2=they'
p19
I83
sS'w+2=and'
p20
I47
sS'prep=across'
p21
I24
sS'nsubj=snow'
p22
I21
sS'w+2=korean'
p23
I50
sS'w+1=more'
p24
I40
sS'nsubj=America'
p25
I18
sS'w-2=warn'
p26
I84
sS'w+1=toward'
p27
I44
sS'w+2=into'
p28
I49
sS'w+2=the'
p29
I55
sS'w+1=apart'
p30
I33
sS'w-1=against'
p31
I60
sS'w+2=hostility'
p32
I48
sS'w-2=.'
p33
I72
sS'aux=have'
p34
I10
sS'w-2=but'
p35
I74
sS'w-1=be'
p36
I61
sS'w-1=,'
p37
I58
sS'w-2=now'
p38
I79
sS'w-2=if'
p39
I77
sS'w-1=leadership'
p40
I65
sS'w+1=closer'
p41
I35
sS'w-2=it'
p42
I78
sS'det=some'
p43
I14
sS'prep=toward'
p44
I29
sS'w-1=a'
p45
I59
sS'w-1=have'
p46
I63
sS'conj=begin'
p47
I12
sS'w+1=from'
p48
I36
sS'w+2=road'
p49
I53
sS'w+1=into'
p50
I39
sS'cc=and'
p51
I11
sS'advcl=be'
p52
I0
sS'xcomp=do'
p53
I85
sS'advmod=in'
p54
I3
sS'nsubj=dozen'
p55
I19
sS'w+1=here'
p56
I37
sS'prep=in'
p57
I27
sS'w-1=snow'
p58
I68
sS'w+1=in'
p59
I38
sS'nsubj=#PRP#'
p60
I17
sS'prep=from'
p61
I26
sS'advmod=out'
p62
I6
sS'advmod=soon'
p63
I7
sS'amod=many'
p64
I8
sS'w-2=see'
p65
I82
sS'nsubj=garbage'
p66
I20
sS'w+2=until'
p67
I57
sS'w+2=towards'
p68
I56
sS'nsubj=worker'
p69
I22
sS'w-2=garbage'
p70
I76
sS'w+1=out'
p71
I41
sS'w+2=of'
p72
I52
sS'w+2=.'
p73
I45
sS'w-1=often'
p74
I67
sS'poss=company'
p75
I23
sS'w-1=it'
p76
I64
sS'w-1=some'
p77
I69
sS'w+2=make'
p78
I51
sS'prep=into'
p79
I28
sS'conj=have'
p80
I13
sS'advcl=read'
p81
I1
sS'w+2=along'
p82
I46
sS'w+1=straight'
p83
I43
sS'w+1=across'
p84
I32
sS'w-1=begin'
p85
I62
sS'w+1=be'
p86
I34
sS'advmod=apart'
p87
I2
sS'prep=without'
p88
I31
sS'w-2=office'
p89
I80
sS'aux=be'
p90
I9
sS'mark=if'
p91
I15
sS'w-2=by'
p92
I75
sS"w-2='s"
p93
I71
ssS'dtype'
p94
cnumpy
float64
p95
sS'feature_names_'
p96
(lp97
g52
ag81
ag87
ag54
ag10
ag12
ag62
ag63
ag64
ag90
ag34
ag51
ag47
ag80
ag43
ag91
ag8
ag60
ag25
ag55
ag66
ag22
ag69
ag75
ag21
ag17
ag61
ag57
ag79
ag44
ag9
ag88
ag84
ag30
ag86
ag41
ag48
ag56
ag59
ag50
ag24
ag71
ag16
ag83
ag27
ag73
ag82
ag20
ag32
ag28
ag23
ag78
ag72
ag49
ag14
ag29
ag68
ag67
ag37
ag45
ag31
ag36
ag85
ag46
ag76
ag40
ag13
ag74
ag58
ag77
ag18
ag93
ag33
ag15
ag35
ag92
ag70
ag39
ag42
ag38
ag89
ag11
ag65
ag19
ag26
ag53
asS'separator'
p98
S'='
sS'sparse'
p99
I01
sb.