ccopy_reg
_reconstructor
p1
(csklearn.feature_extraction.dict_vectorizer
DictVectorizer
p2
c__builtin__
object
p3
NtRp4
(dp5
S'sort'
p6
I01
sS'feature_names_'
p7
(lp8
S'acomp=fearful'
p9
aS'advcl=damage'
p10
aS'advcl=make'
p11
aS'advmod=already'
p12
aS'advmod=around'
p13
aS'advmod=early'
p14
aS'advmod=equally'
p15
aS'advmod=how'
p16
aS'advmod=increasingly'
p17
aS'advmod=meanwhile'
p18
aS'advmod=now'
p19
aS'advmod=quite'
p20
aS'advmod=really'
p21
aS'advmod=substantially'
p22
aS'advmod=together'
p23
aS'advmod=usually'
p24
aS'advmod=very'
p25
aS'advmod=when'
p26
aS'amod=alone'
p27
aS'amod=angry'
p28
aS'amod=big'
p29
aS'amod=bipartisan'
p30
aS'amod=cheer'
p31
aS'amod=chinese'
p32
aS'amod=disappointed'
p33
aS'amod=english'
p34
aS'amod=enthusiastic'
p35
aS'amod=estimate'
p36
aS'amod=fervent'
p37
aS'amod=hateful'
p38
aS'amod=high-paying'
p39
aS'amod=hostile'
p40
aS'amod=huge'
p41
aS'amod=hungry'
p42
aS'amod=invite'
p43
aS'amod=large'
p44
aS'amod=larger'
p45
aS'amod=male'
p46
aS'amod=massive'
p47
aS'amod=multi-faith'
p48
aS'amod=older'
p49
aS'amod=outdoor'
p50
aS'amod=overflow'
p51
aS'amod=rain-soaked'
p52
aS'amod=raucous'
p53
aS'amod=receptive'
p54
aS'amod=select'
p55
aS'amod=significant'
p56
aS'amod=small'
p57
aS'amod=unruly'
p58
aS'amod=young'
p59
aS'amod=younger'
p60
aS'appos=condition'
p61
aS'aux=be'
p62
aS'aux=have'
p63
aS'aux=to'
p64
aS'aux=will'
p65
aS'auxpass=be'
p66
aS'cc=also'
p67
aS'cc=and'
p68
aS'cc=but'
p69
aS'cc=or'
p70
aS'ccomp=congest'
p71
aS'ccomp=hang'
p72
aS'conj=adequate'
p73
aS'conj=be'
p74
aS'conj=canal'
p75
aS'conj=construct'
p76
aS'conj=discover'
p77
aS'conj=eager'
p78
aS'conj=enter'
p79
aS'conj=everyone'
p80
aS'conj=everything'
p81
aS'conj=increase'
p82
aS'conj=jostle'
p83
aS'conj=lot'
p84
aS'conj=official'
p85
aS'conj=sci-fus'
p86
aS'cop=be'
p87
aS'csubj=grieve'
p88
aS'dep=audience'
p89
aS'dep=be'
p90
aS'dep=enter'
p91
aS'dep=find'
p92
aS'dep=open'
p93
aS'dep=push'
p94
aS'dep=thanks'
p95
aS'det=a'
p96
aS'det=any'
p97
aS'det=the'
p98
aS'det=this'
p99
aS'dobj=agenda'
p100
aS'dobj=bridge'
p101
aS'dobj=calendar'
p102
aS'dobj=everything'
p103
aS'dobj=farmland'
p104
aS'dobj=flora'
p105
aS'dobj=garden'
p106
aS'dobj=hall'
p107
aS'dobj=mall'
p108
aS'dobj=option'
p109
aS'dobj=place'
p110
aS'dobj=shelter'
p111
aS'dobj=sidewalk'
p112
aS'dobj=street'
p113
aS'dobj=town'
p114
aS'mark=as'
p115
aS'neg=not'
p116
aS'nn=Afghan'
p117
aS'nn=Angry'
p118
aS'nn=Bowl'
p119
aS'nn=Hindu'
p120
aS'nn=Open'
p121
aS'nn=Seoul'
p122
aS'nn=Washington'
p123
aS'nn=capacity'
p124
aS'nn=development'
p125
aS'nn=downtown'
p126
aS'nn=home'
p127
aS'nn=lunch'
p128
aS'nn=overflow'
p129
aS'nn=record'
p130
aS'nn=sellout'
p131
aS'nn=testosterone'
p132
aS'nsubj=#NUMBER#'
p133
aS'nsubj=#PRP#'
p134
aS'nsubj=Iraqis'
p135
aS'nsubj=cluster'
p136
aS'nsubj=explosion'
p137
aS'nsubj=family'
p138
aS'nsubj=fan'
p139
aS'nsubj=journalist'
p140
aS'nsubj=ladder'
p141
aS'nsubj=people'
p142
aS'nsubj=shopper'
p143
aS'nsubj=supply'
p144
aS'nsubj=tourist'
p145
aS'nsubj=war'
p146
aS'nsubj=which'
p147
aS'nsubj=woman'
p148
aS'nsubjpass=#PRP#'
p149
aS'nsubjpass=Grande'
p150
aS'nsubjpass=city'
p151
aS'nsubjpass=field'
p152
aS'nsubjpass=flyway'
p153
aS'nsubjpass=mosque'
p154
aS'nsubjpass=people'
p155
aS'nsubjpass=place'
p156
aS'nsubjpass=plane'
p157
aS'nsubjpass=road'
p158
aS'nsubjpass=sidewalk'
p159
aS'partmod=commemorate'
p160
aS'partmod=estimate'
p161
aS'partmod=fight'
p162
aS'partmod=gather'
p163
aS'partmod=mention'
p164
aS'partmod=protest'
p165
aS'partmod=push'
p166
aS'partmod=set'
p167
aS'partmod=try'
p168
aS'poss=#PRP#'
p169
aS'poss=night'
p170
aS'poss=weekend'
p171
aS"possessive='s"
p172
aS'predet=all'
p173
aS'predet=such'
p174
aS'prep=around'
p175
aS'prep=at'
p176
aS'prep=during'
p177
aS'prep=for'
p178
aS'prep=in'
p179
aS'prep=into'
p180
aS'prep=like'
p181
aS'prep=of'
p182
aS'prep=on'
p183
aS'prep=outside'
p184
aS'prep=to'
p185
aS'prep=with'
p186
aS'prep=without'
p187
aS'prt=out'
p188
aS'rcmod=aggressor'
p189
aS'rcmod=be'
p190
aS'rcmod=break'
p191
aS'rcmod=continue'
p192
aS'rcmod=draw'
p193
aS'rcmod=forget'
p194
aS'rcmod=include'
p195
aS'rcmod=intend'
p196
aS'rcmod=more'
p197
aS'rcmod=recall'
p198
aS'rcmod=rob'
p199
aS'rcmod=run'
p200
aS'rcmod=serve'
p201
aS'rcmod=store'
p202
aS'rcmod=support'
p203
aS'rcmod=that'
p204
aS'rel=in'
p205
aS'tmod=spring'
p206
aS"w+1='s"
p207
aS'w+1=,'
p208
aS'w+1=-'
p209
aS'w+1=.'
p210
aS'w+1=:'
p211
aS'w+1=;'
p212
aS'w+1=Friday'
p213
aS'w+1=India'
p214
aS'w+1=Senator'
p215
aS'w+1=Wednesday'
p216
aS'w+1=alone'
p217
aS'w+1=also'
p218
aS'w+1=and'
p219
aS'w+1=appear'
p220
aS'w+1=around'
p221
aS'w+1=as'
p222
aS'w+1=at'
p223
aS'w+1=attack'
p224
aS'w+1=be'
p225
aS'w+1=begin'
p226
aS'w+1=break'
p227
aS'w+1=but'
p228
aS'w+1=by'
p229
aS'w+1=can'
p230
aS'w+1=celebrate'
p231
aS'w+1=cheer'
p232
aS'w+1=commemorate'
p233
aS'w+1=control'
p234
aS'w+1=do'
p235
aS'w+1=downtown'
p236
aS'w+1=during'
p237
aS'w+1=early'
p238
aS'w+1=fight'
p239
aS'w+1=for'
p240
aS'w+1=from'
p241
aS'w+1=gather'
p242
aS'w+1=have'
p243
aS'w+1=he'
p244
aS'w+1=in'
p245
aS'w+1=include'
p246
aS'w+1=into'
p247
aS'w+1=know'
p248
aS'w+1=like'
p249
aS'w+1=listen'
p250
aS'w+1=loot'
p251
aS'w+1=make'
p252
aS'w+1=mall'
p253
aS'w+1=march'
p254
aS'w+1=mention'
p255
aS'w+1=native'
p256
aS'w+1=of'
p257
aS'w+1=on'
p258
aS'w+1=onto'
p259
aS'w+1=out'
p260
aS'w+1=outside'
p261
aS'w+1=pretty'
p262
aS'w+1=protest'
p263
aS'w+1=public'
p264
aS'w+1=push'
p265
aS'w+1=quickly'
p266
aS'w+1=represent'
p267
aS'w+1=republican'
p268
aS'w+1=road'
p269
aS'w+1=roard'
p270
aS'w+1=seem'
p271
aS'w+1=set'
p272
aS'w+1=shade'
p273
aS'w+1=she'
p274
aS'w+1=shelter'
p275
aS'w+1=shout'
p276
aS'w+1=since'
p277
aS'w+1=sing'
p278
aS'w+1=so'
p279
aS'w+1=some'
p280
aS'w+1=stage'
p281
aS'w+1=stand'
p282
aS'w+1=start'
p283
aS'w+1=storm'
p284
aS'w+1=street'
p285
aS'w+1=swarm'
p286
aS'w+1=than'
p287
aS'w+1=that'
p288
aS'w+1=the'
p289
aS'w+1=thicken'
p290
aS'w+1=thin'
p291
aS'w+1=throng'
p292
aS'w+1=through'
p293
aS'w+1=throw'
p294
aS'w+1=to'
p295
aS'w+1=together'
p296
aS'w+1=try'
p297
aS'w+1=up-market'
p298
aS'w+1=watch'
p299
aS'w+1=wave'
p300
aS'w+1=when'
p301
aS'w+1=whoop'
p302
aS'w+1=why'
p303
aS'w+1=will'
p304
aS'w+1=with'
p305
aS'w+1=wooded'
p306
aS'w+1=would'
p307
aS'w+1=yell'
p308
aS"w+2=''"
p309
aS"w+2='s"
p310
aS'w+2=,'
p311
aS'w+2=--'
p312
aS'w+2=.'
p313
aS'w+2=10'
p314
aS'w+2=200,000'
p315
aS'w+2=500'
p316
aS'w+2=500,000'
p317
aS'w+2=88,000'
p318
aS'w+2=91-thousand'
p319
aS'w+2=Christofias'
p320
aS'w+2=Cotonou'
p321
aS'w+2=Democrats'
p322
aS'w+2=Dhaval'
p323
aS'w+2=Hariri'
p324
aS'w+2=India'
p325
aS'w+2=Indianapolis'
p326
aS'w+2=Iraqis'
p327
aS'w+2=Jakarta'
p328
aS'w+2=London'
p329
aS'w+2=Mandel'
p330
aS'w+2=Mr.'
p331
aS'w+2=Muslims'
p332
aS'w+2=New'
p333
aS'w+2=North'
p334
aS'w+2=Obama'
p335
aS'w+2=Palestinians'
p336
aS'w+2=Pikine'
p337
aS'w+2=Portland'
p338
aS'w+2=President'
p339
aS'w+2=Prime'
p340
aS'w+2=Saint'
p341
aS'w+2=Saturday'
p342
aS'w+2=Shiites'
p343
aS'w+2=South'
p344
aS'w+2=Toronto'
p345
aS'w+2=United'
p346
aS'w+2=Zimbabweans'
p347
aS'w+2=a'
p348
aS'w+2=about'
p349
aS'w+2=agenda'
p350
aS'w+2=aisle'
p351
aS'w+2=allege'
p352
aS'w+2=alliance'
p353
aS'w+2=already'
p354
aS'w+2=also'
p355
aS'w+2=always'
p356
aS'w+2=amazing'
p357
aS'w+2=and'
p358
aS'w+2=angry'
p359
aS'w+2=around'
p360
aS'w+2=arrival'
p361
aS'w+2=as'
p362
aS'w+2=at'
p363
aS'w+2=back'
p364
aS'w+2=be'
p365
aS'w+2=beachfront'
p366
aS'w+2=become'
p367
aS'w+2=billion'
p368
aS'w+2=boat'
p369
aS'w+2=border'
p370
aS'w+2=bridge'
p371
aS'w+2=burn'
p372
aS'w+2=but'
p373
aS'w+2=buyer'
p374
aS'w+2=can'
p375
aS'w+2=carry'
p376
aS'w+2=cheer'
p377
aS'w+2=civilian'
p378
aS'w+2=close'
p379
aS'w+2=come'
p380
aS'w+2=continue'
p381
aS'w+2=demonstrator'
p382
aS'w+2=do'
p383
aS'w+2=during'
p384
aS'w+2=each'
p385
aS'w+2=election'
p386
aS'w+2=enthusiasm'
p387
aS'w+2=estimate'
p388
aS'w+2=everyone'
p389
aS'w+2=everything'
p390
aS'w+2=faithful'
p391
aS'w+2=far'
p392
aS'w+2=farmland'
p393
aS'w+2=festival'
p394
aS'w+2=fire'
p395
aS'w+2=flora'
p396
aS'w+2=for'
p397
aS'w+2=form'
p398
aS'w+2=former'
p399
aS'w+2=four'
p400
aS'w+2=garden'
p401
aS'w+2=gather'
p402
aS'w+2=get'
p403
aS'w+2=government'
p404
aS'w+2=hall'
p405
aS'w+2=handkerchief'
p406
aS'w+2=have'
p407
aS'w+2=he'
p408
aS'w+2=helmet'
p409
aS'w+2=high-density'
p410
aS'w+2=hundred'
p411
aS'w+2=in'
p412
aS'w+2=include'
p413
aS'w+2=into'
p414
aS'w+2=iranian'
p415
aS'w+2=it'
p416
aS'w+2=its'
p417
aS'w+2=kill'
p418
aS'w+2=late-day'
p419
aS'w+2=lawyer'
p420
aS'w+2=leave'
p421
aS'w+2=look'
p422
aS'w+2=mainly'
p423
aS'w+2=mall'
p424
aS'w+2=message'
p425
aS'w+2=mid-afternoon'
p426
aS'w+2=might'
p427
aS'w+2=moderate'
p428
aS'w+2=more'
p429
aS'w+2=mostly'
p430
aS'w+2=much'
p431
aS'w+2=nation'
p432
aS'w+2=nearly'
p433
aS'w+2=not'
p434
aS'w+2=on'
p435
aS'w+2=or'
p436
aS'w+2=out'
p437
aS'w+2=outside'
p438
aS'w+2=people'
p439
aS'w+2=pilgrim'
p440
aS'w+2=place'
p441
aS'w+2=policeman'
p442
aS'w+2=political'
p443
aS'w+2=presidential'
p444
aS'w+2=protest'
p445
aS'w+2=public'
p446
aS'w+2=push'
p447
aS'w+2=recent'
p448
aS'w+2=recount'
p449
aS'w+2=reporter'
p450
aS'w+2=segregation'
p451
aS'w+2=set'
p452
aS'w+2=several'
p453
aS'w+2=she'
p454
aS'w+2=shelter'
p455
aS'w+2=shiite'
p456
aS'w+2=shoe'
p457
aS'w+2=sidewalk'
p458
aS'w+2=silent'
p459
aS'w+2=slum'
p460
aS'w+2=so'
p461
aS'w+2=soccer'
p462
aS'w+2=solicit'
p463
aS'w+2=song'
p464
aS'w+2=spectator'
p465
aS'w+2=state'
p466
aS'w+2=still'
p467
aS'w+2=stone'
p468
aS'w+2=street'
p469
aS'w+2=stroll'
p470
aS'w+2=supporter'
p471
aS'w+2=sweet-faced'
p472
aS'w+2=table'
p473
aS'w+2=tear'
p474
aS'w+2=the'
p475
aS'w+2=themselves'
p476
aS'w+2=there'
p477
aS'w+2=they'
p478
aS'w+2=thousand'
p479
aS'w+2=to'
p480
aS'w+2=top'
p481
aS'w+2=tourist'
p482
aS'w+2=town'
p483
aS'w+2=training'
p484
aS'w+2=try'
p485
aS'w+2=two'
p486
aS'w+2=unsanitary'
p487
aS'w+2=use'
p488
aS'w+2=usually'
p489
aS'w+2=vision'
p490
aS'w+2=watch'
p491
aS'w+2=wear'
p492
aS'w+2=where'
p493
aS'w+2=will'
p494
aS'w+2=without'
p495
aS'w+2=wooden'
p496
aS'w+2=would'
p497
aS'w+2=wound'
p498
aS'w+2=young'
p499
aS"w-1='s"
p500
aS'w-1=,'
p501
aS'w-1=-lrb-'
p502
aS'w-1=.'
p503
aS'w-1=Afghan'
p504
aS'w-1=Angry'
p505
aS'w-1=Bowl'
p506
aS'w-1=Hindu'
p507
aS'w-1=Iraqis'
p508
aS'w-1=Open'
p509
aS'w-1=Samak'
p510
aS'w-1=Seoul'
p511
aS'w-1=Washington'
p512
aS'w-1=a'
p513
aS'w-1=agitate'
p514
aS'w-1=already'
p515
aS'w-1=and'
p516
aS'w-1=angry'
p517
aS'w-1=back'
p518
aS'w-1=be'
p519
aS'w-1=before'
p520
aS'w-1=begin'
p521
aS'w-1=big'
p522
aS'w-1=bipartisan'
p523
aS'w-1=boy'
p524
aS'w-1=by'
p525
aS'w-1=call'
p526
aS'w-1=capacity'
p527
aS'w-1=cheer'
p528
aS'w-1=chinese'
p529
aS'w-1=development'
p530
aS'w-1=disperse'
p531
aS'w-1=downtown'
p532
aS'w-1=draw'
p533
aS'w-1=effective'
p534
aS'w-1=eid'
p535
aS'w-1=english'
p536
aS'w-1=enthusiastic'
p537
aS'w-1=equally'
p538
aS'w-1=estimate'
p539
aS'w-1=family'
p540
aS'w-1=fan'
p541
aS'w-1=fervent'
p542
aS'w-1=further'
p543
aS'w-1=hateful'
p544
aS'w-1=have'
p545
aS'w-1=high-paying'
p546
aS'w-1=home'
p547
aS'w-1=hostile'
p548
aS'w-1=how'
p549
aS'w-1=huge'
p550
aS'w-1=in'
p551
aS'w-1=include'
p552
aS'w-1=increasingly'
p553
aS'w-1=into'
p554
aS'w-1=invite'
p555
aS'w-1=ladder'
p556
aS'w-1=large'
p557
aS'w-1=larger'
p558
aS'w-1=lunch'
p559
aS'w-1=male'
p560
aS'w-1=massive'
p561
aS'w-1=mourner'
p562
aS'w-1=multi-faith'
p563
aS'w-1=nationality'
p564
aS'w-1=noisy'
p565
aS'w-1=now'
p566
aS'w-1=of'
p567
aS'w-1=older'
p568
aS'w-1=on'
p569
aS'w-1=outdoor'
p570
aS'w-1=overflow'
p571
aS'w-1=people'
p572
aS'w-1=plaza'
p573
aS'w-1=poor'
p574
aS'w-1=rain-soaked'
p575
aS'w-1=raucous'
p576
aS'w-1=really'
p577
aS'w-1=receptive'
p578
aS'w-1=record'
p579
aS'w-1=relative'
p580
aS'w-1=select'
p581
aS'w-1=sellout'
p582
aS'w-1=shopper'
p583
aS'w-1=significant'
p584
aS'w-1=small'
p585
aS'w-1=supporter'
p586
aS'w-1=testosterone'
p587
aS'w-1=that'
p588
aS'w-1=the'
p589
aS'w-1=they'
p590
aS'w-1=this'
p591
aS'w-1=thousand'
p592
aS'w-1=through'
p593
aS'w-1=to'
p594
aS'w-1=tourist'
p595
aS'w-1=unruly'
p596
aS'w-1=usually'
p597
aS'w-1=very'
p598
aS'w-1=where'
p599
aS'w-1=which'
p600
aS'w-1=young'
p601
aS'w-1=younger'
p602
aS"w-2='"
p603
aS"w-2='s"
p604
aS'w-2=,'
p605
aS'w-2=-'
p606
aS'w-2=.'
p607
aS'w-2=350'
p608
aS'w-2=Drummers'
p609
aS'w-2=Grande'
p610
aS'w-2=Hanoi'
p611
aS'w-2=Satan'
p612
aS'w-2=Show'
p613
aS'w-2=States'
p614
aS'w-2=Super'
p615
aS'w-2=U.S.'
p616
aS'w-2=Zamalek'
p617
aS'w-2=a'
p618
aS'w-2=add'
p619
aS'w-2=address'
p620
aS'w-2=after'
p621
aS'w-2=all'
p622
aS'w-2=among'
p623
aS'w-2=and'
p624
aS'w-2=any'
p625
aS'w-2=appear'
p626
aS'w-2=as'
p627
aS'w-2=at'
p628
aS'w-2=attract'
p629
aS'w-2=avoid'
p630
aS'w-2=be'
p631
aS'w-2=because'
p632
aS'w-2=before'
p633
aS'w-2=border'
p634
aS'w-2=break'
p635
aS'w-2=bridge'
p636
aS'w-2=bring'
p637
aS'w-2=bullet'
p638
aS'w-2=business'
p639
aS'w-2=but'
p640
aS'w-2=by'
p641
aS'w-2=calm'
p642
aS'w-2=carefully'
p643
aS'w-2=choke'
p644
aS'w-2=control'
p645
aS'w-2=dawn'
p646
aS'w-2=decide'
p647
aS'w-2=different'
p648
aS'w-2=disappointed'
p649
aS'w-2=disperse'
p650
aS'w-2=do'
p651
aS'w-2=draw'
p652
aS'w-2=electrify'
p653
aS'w-2=energize'
p654
aS'w-2=evacuation'
p655
aS'w-2=fan'
p656
aS'w-2=fire'
p657
aS'w-2=firing'
p658
aS'w-2=five'
p659
aS'w-2=for'
p660
aS'w-2=from'
p661
aS'w-2=front'
p662
aS'w-2=generate'
p663
aS'w-2=go'
p664
aS'w-2=guide'
p665
aS'w-2=hold'
p666
aS'w-2=hope'
p667
aS'w-2=hospital'
p668
aS'w-2=hour'
p669
aS'w-2=hungry'
p670
aS'w-2=impatience'
p671
aS'w-2=in'
p672
aS'w-2=into'
p673
aS'w-2=kill'
p674
aS'w-2=lead'
p675
aS'w-2=live'
p676
aS'w-2=look'
p677
aS'w-2=market'
p678
aS'w-2=marketplace'
p679
aS'w-2=monitor'
p680
aS'w-2=mosque'
p681
aS'w-2=mostly'
p682
aS'w-2=much'
p683
aS'w-2=not'
p684
aS'w-2=of'
p685
aS'w-2=on'
p686
aS'w-2=other'
p687
aS'w-2=out'
p688
aS'w-2=people'
p689
aS'w-2=place'
p690
aS'w-2=plane'
p691
aS'w-2=police'
p692
aS'w-2=predominately'
p693
aS'w-2=quite'
p694
aS'w-2=rally'
p695
aS'w-2=really'
p696
aS'w-2=return'
p697
aS'w-2=road'
p698
aS'w-2=satisfy'
p699
aS'w-2=say'
p700
aS'w-2=see'
p701
aS'w-2=sell-out'
p702
aS'w-2=several-hundred'
p703
aS'w-2=shopper'
p704
aS'w-2=shout'
p705
aS'w-2=show'
p706
aS'w-2=speak'
p707
aS'w-2=street'
p708
aS'w-2=synagogue'
p709
aS'w-2=target'
p710
aS'w-2=tell'
p711
aS'w-2=thank'
p712
aS'w-2=thanks'
p713
aS'w-2=that'
p714
aS'w-2=the'
p715
aS'w-2=then'
p716
aS'w-2=they'
p717
aS'w-2=thief'
p718
aS'w-2=through'
p719
aS'w-2=to'
p720
aS'w-2=town'
p721
aS'w-2=up'
p722
aS'w-2=use'
p723
aS'w-2=vote'
p724
aS'w-2=want'
p725
aS'w-2=we'
p726
aS'w-2=weekend'
p727
aS'w-2=when'
p728
aS'w-2=where'
p729
aS'w-2=will'
p730
aS'w-2=with'
p731
aS'xcomp=enjoy'
p732
aS'xcomp=see'
p733
asS'dtype'
p734
cnumpy
float64
p735
sS'vocabulary_'
p736
(dp737
g57
I48
sg652
I643
sg410
I401
sg317
I308
sg30
I21
sg262
I253
sg405
I396
sg261
I252
sg640
I631
sg689
I680
sg17
I8
sg155
I146
sg406
I397
sg254
I245
sg384
I375
sg445
I436
sg374
I365
sg373
I364
sg378
I369
sg469
I460
sg424
I415
sg221
I212
sg692
I683
sg505
I496
sg716
I707
sg162
I153
sg144
I135
sg149
I140
sg322
I313
sg699
I690
sg717
I708
sg350
I341
sg508
I499
sg432
I423
sg665
I656
sg288
I279
sg576
I567
sg166
I157
sg504
I495
sg528
I519
sg449
I440
sg330
I321
sg287
I278
sg595
I586
sg292
I283
sg252
I243
sg448
I439
sg550
I541
sg21
I12
sg661
I652
sg240
I231
sg726
I717
sg453
I444
sg48
I39
sg346
I337
sg608
I599
sg584
I575
sg341
I332
sg191
I182
sg525
I516
sg519
I510
sg623
I614
sg117
I108
sg615
I606
sg265
I256
sg39
I30
sg715
I706
sg286
I277
sg679
I670
sg274
I265
sg633
I624
sg729
I720
sg273
I264
sg268
I259
sg103
I94
sg474
I465
sg130
I121
sg41
I32
sg257
I248
sg420
I411
sg480
I471
sg258
I249
sg532
I523
sg60
I51
sg278
I269
sg145
I136
sg78
I69
sg678
I669
sg499
I490
sg269
I260
sg545
I536
sg102
I93
sg58
I49
sg412
I403
sg460
I451
sg416
I407
sg667
I658
sg733
I724
sg214
I205
sg622
I613
sg332
I323
sg328
I319
sg600
I591
sg175
I166
sg77
I68
sg290
I281
sg50
I41
sg367
I358
sg494
I485
sg137
I128
sg598
I589
sg339
I330
sg702
I693
sg26
I17
sg714
I705
sg289
I280
sg533
I524
sg660
I651
sg365
I356
sg456
I447
sg59
I50
sg539
I530
sg44
I35
sg698
I689
sg515
I506
sg709
I700
sg507
I498
sg688
I679
sg132
I123
sg179
I170
sg29
I20
sg256
I247
sg467
I458
sg663
I654
sg224
I215
sg561
I552
sg251
I242
sg516
I507
sg617
I608
sg266
I257
sg185
I176
sg37
I28
sg443
I434
sg327
I318
sg380
I371
sg36
I27
sg488
I479
sg219
I210
sg104
I95
sg136
I127
sg354
I345
sg732
I723
sg321
I312
sg540
I531
sg397
I388
sg276
I267
sg194
I185
sg153
I144
sg470
I461
sg100
I91
sg270
I261
sg99
I90
sg620
I611
sg551
I542
sg40
I31
sg645
I636
sg239
I230
sg206
I197
sg23
I14
sg583
I574
sg249
I240
sg74
I65
sg646
I637
sg589
I580
sg248
I239
sg283
I274
sg471
I462
sg430
I421
sg353
I344
sg129
I120
sg721
I712
sg602
I593
sg465
I456
sg434
I425
sg522
I513
sg198
I189
sg713
I704
sg399
I390
sg556
I547
sg190
I181
sg232
I223
sg277
I268
sg42
I33
sg243
I234
sg158
I149
sg502
I493
sg703
I694
sg98
I89
sg639
I630
sg112
I103
sg723
I714
sg719
I710
sg388
I379
sg481
I472
sg51
I42
sg9
I0
sg205
I196
sg706
I697
sg45
I36
sg18
I9
sg15
I6
sg452
I443
sg685
I676
sg230
I221
sg109
I100
sg686
I677
sg594
I585
sg197
I188
sg670
I661
sg586
I577
sg429
I420
sg306
I297
sg651
I642
sg47
I38
sg570
I561
sg527
I518
sg489
I480
sg649
I640
sg192
I183
sg170
I161
sg498
I489
sg220
I211
sg347
I338
sg375
I366
sg86
I77
sg411
I402
sg222
I213
sg415
I406
sg223
I214
sg294
I285
sg244
I235
sg312
I303
sg196
I187
sg461
I452
sg188
I179
sg31
I22
sg263
I254
sg490
I481
sg579
I570
sg599
I590
sg536
I527
sg381
I372
sg575
I566
sg650
I641
sg156
I147
sg669
I660
sg526
I517
sg476
I467
sg293
I284
sg126
I117
sg28
I19
sg193
I184
sg174
I165
sg357
I348
sg512
I503
sg697
I688
sg356
I347
sg255
I246
sg178
I169
sg544
I535
sg383
I374
sg629
I620
sg710
I701
sg371
I362
sg592
I583
sg392
I383
sg422
I413
sg369
I360
sg363
I354
sg329
I320
sg493
I484
sg362
I353
sg203
I194
sg616
I607
sg413
I404
sg307
I298
sg359
I350
sg466
I457
sg626
I617
sg33
I24
sg66
I57
sg409
I400
sg207
I198
sg500
I491
sg394
I385
sg272
I263
sg216
I207
sg451
I442
sg705
I696
sg233
I224
sg65
I56
sg557
I548
sg131
I122
sg555
I546
sg171
I162
sg110
I101
sg133
I124
sg491
I482
sg454
I445
sg485
I476
sg457
I448
sg121
I112
sg101
I92
sg333
I324
sg582
I573
sg213
I204
sg161
I152
sg364
I355
sg253
I244
sg299
I290
sg343
I334
sg668
I659
sg139
I130
sg538
I529
sg20
I11
sg157
I148
sg391
I382
sg572
I563
sg446
I437
sg682
I673
sg236
I227
sg464
I455
sg436
I427
sg564
I555
sg711
I702
sg455
I446
sg438
I429
sg621
I612
sg435
I426
sg612
I603
sg315
I306
sg285
I276
sg159
I150
sg573
I564
sg610
I601
sg389
I380
sg408
I399
sg61
I52
sg259
I250
sg279
I270
sg180
I171
sg637
I628
sg558
I549
sg368
I359
sg325
I316
sg46
I37
sg427
I418
sg246
I237
sg597
I588
sg674
I665
sg187
I178
sg141
I132
sg613
I604
sg530
I521
sg619
I610
sg604
I595
sg534
I525
sg486
I477
sg366
I357
sg53
I44
sg473
I464
sg581
I572
sg173
I164
sg664
I655
sg135
I126
sg548
I539
sg49
I40
sg344
I335
sg673
I664
sg431
I422
sg439
I430
sg56
I47
sg401
I392
sg648
I639
sg84
I75
sg352
I343
sg450
I441
sg160
I151
sg377
I368
sg444
I435
sg54
I45
sg659
I650
sg302
I293
sg517
I508
sg587
I578
sg202
I193
sg511
I502
sg611
I602
sg731
I722
sg442
I433
sg531
I522
sg165
I156
sg376
I367
sg12
I3
sg82
I73
sg184
I175
sg690
I681
sg142
I133
sg186
I177
sg70
I61
sg124
I115
sg94
I85
sg671
I662
sg318
I309
sg609
I600
sg79
I70
sg417
I408
sg421
I412
sg298
I289
sg351
I342
sg630
I621
sg138
I129
sg43
I34
sg672
I663
sg463
I454
sg271
I262
sg146
I137
sg152
I143
sg428
I419
sg164
I155
sg468
I459
sg681
I672
sg695
I686
sg151
I142
sg433
I424
sg67
I58
sg654
I645
sg395
I386
sg518
I509
sg120
I111
sg195
I186
sg441
I432
sg535
I526
sg309
I300
sg722
I713
sg591
I582
sg335
I326
sg400
I391
sg201
I192
sg320
I311
sg402
I393
sg614
I605
sg642
I633
sg666
I657
sg580
I571
sg398
I389
sg85
I76
sg200
I191
sg68
I59
sg523
I514
sg218
I209
sg542
I533
sg163
I154
sg250
I241
sg304
I295
sg225
I216
sg568
I559
sg168
I159
sg310
I301
sg636
I627
sg728
I719
sg634
I625
sg423
I414
sg704
I695
sg245
I236
sg140
I131
sg657
I648
sg134
I125
sg14
I5
sg284
I275
sg472
I463
sg701
I692
sg560
I551
sg462
I453
sg725
I716
sg215
I206
sg247
I238
sg69
I60
sg647
I638
sg440
I431
sg128
I119
sg403
I394
sg601
I592
sg83
I74
sg169
I160
sg242
I233
sg419
I410
sg425
I416
sg181
I172
sg658
I649
sg707
I698
sg217
I208
sg113
I104
sg81
I72
sg585
I576
sg547
I538
sg172
I163
sg326
I317
sg324
I315
sg361
I352
sg80
I71
sg492
I483
sg696
I687
sg189
I180
sg554
I545
sg167
I158
sg565
I556
sg631
I622
sg182
I173
sg543
I534
sg183
I174
sg319
I310
sg372
I363
sg708
I699
sg641
I632
sg340
I331
sg147
I138
sg27
I18
sg337
I328
sg227
I218
sg458
I449
sg638
I629
sg656
I647
sg562
I553
sg680
I671
sg509
I500
sg210
I201
sg386
I377
sg541
I532
sg91
I82
sg38
I29
sg510
I501
sg596
I587
sg496
I487
sg574
I565
sg148
I139
sg323
I314
sg336
I327
sg334
I325
sg355
I346
sg313
I304
sg358
I349
sg396
I387
sg676
I667
sg593
I584
sg338
I329
sg694
I685
sg90
I81
sg76
I67
sg150
I141
sg385
I376
sg345
I336
sg529
I520
sg675
I666
sg567
I558
sg105
I96
sg643
I634
sg437
I428
sg75
I66
sg720
I711
sg569
I560
sg624
I615
sg291
I282
sg724
I715
sg88
I79
sg116
I107
sg379
I370
sg87
I78
sg625
I616
sg653
I644
sg563
I554
sg22
I13
sg226
I217
sg305
I296
sg482
I473
sg19
I10
sg390
I381
sg700
I691
sg655
I646
sg414
I405
sg683
I674
sg475
I466
sg176
I167
sg730
I721
sg13
I4
sg71
I62
sg281
I272
sg605
I596
sg606
I597
sg607
I598
sg571
I562
sg282
I273
sg127
I118
sg308
I299
sg603
I594
sg118
I109
sg63
I54
sg393
I384
sg487
I478
sg275
I266
sg97
I88
sg93
I84
sg484
I475
sg114
I105
sg503
I494
sg501
I492
sg314
I305
sg684
I675
sg718
I709
sg123
I114
sg34
I25
sg628
I619
sg627
I618
sg25
I16
sg199
I190
sg32
I23
sg687
I678
sg537
I528
sg73
I64
sg237
I228
sg11
I2
sg404
I395
sg382
I373
sg712
I703
sg618
I609
sg677
I668
sg590
I581
sg96
I87
sg92
I83
sg513
I504
sg577
I568
sg106
I97
sg691
I682
sg296
I287
sg426
I417
sg115
I106
sg55
I46
sg295
I286
sg477
I468
sg520
I511
sg297
I288
sg241
I232
sg693
I684
sg506
I497
sg89
I80
sg644
I635
sg478
I469
sg549
I540
sg360
I351
sg72
I63
sg300
I291
sg35
I26
sg418
I409
sg407
I398
sg125
I116
sg495
I486
sg370
I361
sg387
I378
sg108
I99
sg143
I134
sg316
I307
sg52
I43
sg16
I7
sg303
I294
sg231
I222
sg264
I255
sg546
I537
sg524
I515
sg301
I292
sg154
I145
sg64
I55
sg483
I474
sg342
I333
sg204
I195
sg111
I102
sg635
I626
sg559
I550
sg553
I544
sg514
I505
sg331
I322
sg588
I579
sg234
I225
sg479
I470
sg209
I200
sg208
I199
sg260
I251
sg280
I271
sg662
I653
sg311
I302
sg212
I203
sg211
I202
sg578
I569
sg349
I340
sg95
I86
sg177
I168
sg235
I226
sg119
I110
sg229
I220
sg727
I718
sg24
I15
sg10
I1
sg122
I113
sg238
I229
sg566
I557
sg521
I512
sg228
I219
sg552
I543
sg632
I623
sg447
I438
sg62
I53
sg267
I258
sg459
I450
sg497
I488
sg348
I339
sg107
I98
ssS'separator'
p738
S'='
sS'sparse'
p739
I01
sb.