ccopy_reg
_reconstructor
p1
(csklearn.feature_extraction.dict_vectorizer
DictVectorizer
p2
c__builtin__
object
p3
NtRp4
(dp5
S'sort'
p6
I01
sS'feature_names_'
p7
(lp8
S'abbrev=FISA'
p9
aS'acomp=announce'
p10
aS'acomp=high'
p11
aS'acomp=quick'
p12
aS'acomp=small'
p13
aS'advcl=assist'
p14
aS'advcl=come'
p15
aS'advcl=due'
p16
aS'advcl=export'
p17
aS'advcl=listen'
p18
aS'advcl=mean'
p19
aS'advcl=meet'
p20
aS'advcl=result'
p21
aS'advcl=see'
p22
aS'advmod=also'
p23
aS'advmod=at'
p24
aS'advmod=before'
p25
aS'advmod=carefully'
p26
aS'advmod=commonly'
p27
aS'advmod=essentially'
p28
aS'advmod=even'
p29
aS'advmod=here'
p30
aS'advmod=high'
p31
aS'advmod=how'
p32
aS'advmod=later'
p33
aS'advmod=more'
p34
aS'advmod=nearly'
p35
aS'advmod=often'
p36
aS'advmod=on'
p37
aS'advmod=only'
p38
aS'advmod=probably'
p39
aS'advmod=then'
p40
aS'advmod=together'
p41
aS'advmod=when'
p42
aS'amod=abstract'
p43
aS'amod=active'
p44
aS'amod=additional'
p45
aS'amod=adequate'
p46
aS'amod=administrative'
p47
aS'amod=aggressive'
p48
aS'amod=alternative'
p49
aS'amod=anti-concentration'
p50
aS'amod=anti-corruption'
p51
aS'amod=anti-israeli'
p52
aS'amod=anti-terrorism'
p53
aS'amod=anti-war'
p54
aS'amod=appropriate'
p55
aS'amod=armenian'
p56
aS'amod=bipartisan'
p57
aS'amod=broadest'
p58
aS'amod=certain'
p59
aS'amod=citizen-sponsored'
p60
aS'amod=climate-control'
p61
aS'amod=coercive'
p62
aS'amod=collective'
p63
aS'amod=combined'
p64
aS'amod=concrete'
p65
aS'amod=confidence-building'
p66
aS'amod=controversal'
p67
aS'amod=controversial'
p68
aS'amod=corrective'
p69
aS'amod=counter'
p70
aS'amod=counter-productive'
p71
aS'amod=current'
p72
aS'amod=damage-control'
p73
aS'amod=defensive'
p74
aS'amod=democrat-crafted'
p75
aS'amod=democratic'
p76
aS'amod=democratic-sponsored'
p77
aS'amod=desperate'
p78
aS'amod=diagnostic'
p79
aS'amod=diplomatic'
p80
aS'amod=draconian'
p81
aS'amod=drastic'
p82
aS'amod=economic'
p83
aS'amod=electronic'
p84
aS'amod=extensive'
p85
aS'amod=extraordinary'
p86
aS'amod=extreme'
p87
aS'amod=fair'
p88
aS'amod=financial'
p89
aS'amod=first'
p90
aS'amod=follow-on'
p91
aS'amod=forceful'
p92
aS'amod=further'
p93
aS'amod=good'
p94
aS'amod=greater'
p95
aS'amod=harsher'
p96
aS'amod=heighten'
p97
aS'amod=high-tech'
p98
aS'amod=house-passed'
p99
aS'amod=human'
p100
aS'amod=humanitarian'
p101
aS'amod=identical'
p102
aS'amod=illegal'
p103
aS'amod=immediate'
p104
aS'amod=important'
p105
aS'amod=increase'
p106
aS'amod=individual'
p107
aS'amod=interim'
p108
aS'amod=international'
p109
aS'amod=intimidatory'
p110
aS'amod=intolerant'
p111
aS'amod=iraq-afghanistan'
p112
aS'amod=iraq-related'
p113
aS'amod=israeli'
p114
aS'amod=key'
p115
aS'amod=large'
p116
aS'amod=last-minute'
p117
aS'amod=legal'
p118
aS'amod=legislative'
p119
aS'amod=long'
p120
aS'amod=main'
p121
aS'amod=major'
p122
aS'amod=many'
p123
aS'amod=massive'
p124
aS'amod=military'
p125
aS'amod=minimal'
p126
aS'amod=modest'
p127
aS'amod=national'
p128
aS'amod=necessary'
p129
aS'amod=new'
p130
aS'amod=non-binding'
p131
aS'amod=nonbinding'
p132
aS'amod=only'
p133
aS'amod=other'
p134
aS'amod=out'
p135
aS'amod=own'
p136
aS'amod=pend'
p137
aS'amod=permanent'
p138
aS'amod=personnel'
p139
aS'amod=political'
p140
aS'amod=populist'
p141
aS'amod=possible'
p142
aS'amod=practical'
p143
aS'amod=precautionary'
p144
aS'amod=preliminary'
p145
aS'amod=preventative'
p146
aS'amod=preventive'
p147
aS'amod=procedural'
p148
aS'amod=propose'
p149
aS'amod=proposed'
p150
aS'amod=protective'
p151
aS'amod=public'
p152
aS'amod=punitive'
p153
aS'amod=quantitative'
p154
aS'amod=racial'
p155
aS'amod=rapid'
p156
aS'amod=real'
p157
aS'amod=reasonable'
p158
aS'amod=recent'
p159
aS'amod=regular'
p160
aS'amod=remedial'
p161
aS'amod=republican'
p162
aS'amod=republican-backed'
p163
aS'amod=retaliatory'
p164
aS'amod=right'
p165
aS'amod=self-defense'
p166
aS'amod=separate'
p167
aS'amod=serious'
p168
aS'amod=several'
p169
aS'amod=short'
p170
aS'amod=short-term'
p171
aS'amod=significant'
p172
aS'amod=similar'
p173
aS'amod=simple'
p174
aS'amod=single'
p175
aS'amod=six-month'
p176
aS'amod=smart'
p177
aS'amod=special'
p178
aS'amod=special-interest'
p179
aS'amod=specific'
p180
aS'amod=stepped-up'
p181
aS'amod=sterner'
p182
aS'amod=stop-gap'
p183
aS'amod=strengthen'
p184
aS'amod=strict'
p185
aS'amod=stricter'
p186
aS'amod=stringent'
p187
aS'amod=strong'
p188
aS'amod=stronger'
p189
aS'amod=successful'
p190
aS'amod=such'
p191
aS'amod=sufficient'
p192
aS'amod=support'
p193
aS'amod=sweeping'
p194
aS'amod=symbolic'
p195
aS'amod=temporary'
p196
aS'amod=tough'
p197
aS'amod=tougher'
p198
aS'amod=traditional'
p199
aS'amod=true'
p200
aS'amod=unnecessary'
p201
aS'amod=unpopular'
p202
aS'amod=unspecified'
p203
aS'amod=urgent'
p204
aS'amod=voluntary'
p205
aS'amod=water-saving'
p206
aS'appos=effort'
p207
aS'appos=fate'
p208
aS'appos=first'
p209
aS'appos=protection'
p210
aS'appos=surge'
p211
aS"aux='ll"
p212
aS'aux=be'
p213
aS'aux=can'
p214
aS'aux=could'
p215
aS'aux=have'
p216
aS'aux=must'
p217
aS'aux=should'
p218
aS'aux=to'
p219
aS'aux=will'
p220
aS'aux=would'
p221
aS'auxpass=be'
p222
aS'auxpass=become'
p223
aS'cc=and'
p224
aS'cc=but'
p225
aS'cc=or'
p226
aS'cc=rather'
p227
aS'cc=well'
p228
aS'ccomp=affect'
p229
aS'ccomp=change'
p230
aS'ccomp=consider'
p231
aS'ccomp=curl'
p232
aS'ccomp=democratize'
p233
aS'ccomp=fulfil'
p234
aS'ccomp=go'
p235
aS'ccomp=make'
p236
aS'ccomp=perceive'
p237
aS'ccomp=pull'
p238
aS'ccomp=say'
p239
aS'ccomp=term'
p240
aS'ccomp=think'
p241
aS'ccomp=truth'
p242
aS'complm=that'
p243
aS'conj=Bruhns'
p244
aS'conj=analyze'
p245
aS'conj=ban'
p246
aS'conj=bill'
p247
aS'conj=calculate'
p248
aS'conj=charge'
p249
aS'conj=commit'
p250
aS'conj=ensure'
p251
aS'conj=flow'
p252
aS'conj=gesture'
p253
aS'conj=grow'
p254
aS'conj=hand'
p255
aS'conj=health'
p256
aS'conj=hold'
p257
aS'conj=hope'
p258
aS'conj=increase'
p259
aS'conj=measure'
p260
aS'conj=move'
p261
aS'conj=one-fifth'
p262
aS'conj=opposition'
p263
aS'conj=reform'
p264
aS'conj=regulation'
p265
aS'conj=restriction'
p266
aS'conj=spending'
p267
aS'conj=spokesman'
p268
aS'conj=step'
p269
aS'conj=study'
p270
aS'conj=test'
p271
aS'conj=weigh'
p272
aS'cop=be'
p273
aS'csubj=do'
p274
aS'dep=#PRP#'
p275
aS'dep=$'
p276
aS'dep=bank'
p277
aS'dep=concerned'
p278
aS'dep=drop'
p279
aS'dep=enough'
p280
aS'dep=half'
p281
aS'dep=have'
p282
aS'dep=in'
p283
aS'dep=make'
p284
aS'dep=measure'
p285
aS'dep=meter'
p286
aS'dep=modicum'
p287
aS'dep=pass'
p288
aS'dep=seek'
p289
aS'dep=that'
p290
aS'dep=trust'
p291
aS'dep=truth'
p292
aS'dep=way'
p293
aS'det=a'
p294
aS'det=all'
p295
aS'det=another'
p296
aS'det=any'
p297
aS'det=each'
p298
aS'det=every'
p299
aS'det=no'
p300
aS'det=some'
p301
aS'det=that'
p302
aS'det=the'
p303
aS'det=these'
p304
aS'det=this'
p305
aS'det=those'
p306
aS'det=whatever'
p307
aS'dobj=#NUMBER#'
p308
aS'dobj=#PRP#'
p309
aS'dobj=accomplishment'
p310
aS'dobj=activity'
p311
aS'dobj=amount'
p312
aS'dobj=capability'
p313
aS'dobj=category'
p314
aS'dobj=centimeter'
p315
aS'dobj=chemical'
p316
aS'dobj=composition'
p317
aS'dobj=corruption'
p318
aS'dobj=cost'
p319
aS'dobj=count'
p320
aS'dobj=deficit'
p321
aS'dobj=delivery'
p322
aS'dobj=development'
p323
aS'dobj=difference'
p324
aS'dobj=ease'
p325
aS'dobj=economy'
p326
aS'dobj=effect'
p327
aS'dobj=effectiveness'
p328
aS'dobj=everything'
p329
aS'dobj=field'
p330
aS'dobj=freedom'
p331
aS'dobj=growth'
p332
aS'dobj=gust'
p333
aS'dobj=health'
p334
aS'dobj=heat'
p335
aS'dobj=height'
p336
aS'dobj=impact'
p337
aS'dobj=kilometer'
p338
aS'dobj=length'
p339
aS'dobj=level'
p340
aS'dobj=meter'
p341
aS'dobj=movement'
p342
aS'dobj=performance'
p343
aS'dobj=poverty'
p344
aS'dobj=power'
p345
aS'dobj=progress'
p346
aS'dobj=progression'
p347
aS'dobj=protein'
p348
aS'dobj=quantity'
p349
aS'dobj=rate'
p350
aS'dobj=response'
p351
aS'dobj=signal'
p352
aS'dobj=size'
p353
aS'dobj=skull'
p354
aS'dobj=star'
p355
aS'dobj=success'
p356
aS'dobj=support'
p357
aS'dobj=temperature'
p358
aS'dobj=thing'
p359
aS'dobj=time'
p360
aS'dobj=tone'
p361
aS'dobj=value'
p362
aS'dobj=view'
p363
aS'dobj=viscosity'
p364
aS'dobj=word'
p365
aS'dobj=work'
p366
aS'expl=there'
p367
aS'infmod=aid'
p368
aS'infmod=allow'
p369
aS'infmod=avoid'
p370
aS'infmod=boost'
p371
aS'infmod=compensate'
p372
aS'infmod=cut'
p373
aS'infmod=end'
p374
aS'infmod=fulfill'
p375
aS'infmod=help'
p376
aS'infmod=improve'
p377
aS'infmod=investigate'
p378
aS'infmod=make'
p379
aS'infmod=pass'
p380
aS'infmod=prevent'
p381
aS'infmod=protect'
p382
aS'infmod=revise'
p383
aS'infmod=see'
p384
aS'infmod=stop'
p385
aS'infmod=tackle'
p386
aS'infmod=toughen'
p387
aS'infmod=use'
p388
aS'infmod=withdraw'
p389
aS'mark=as'
p390
aS'mark=while'
p391
aS'neg=not'
p392
aS'nn=$'
p393
aS'nn=California'
p394
aS'nn=Democrat'
p395
aS'nn=FISA'
p396
aS'nn=Feingold'
p397
aS'nn=Financial'
p398
aS'nn=House'
p399
aS'nn=Senate'
p400
aS'nn=U.N.'
p401
aS'nn=U.S.'
p402
aS'nn=Zimbabwe'
p403
aS'nn=agriculture'
p404
aS'nn=appropriation'
p405
aS'nn=audience'
p406
aS'nn=austerity'
p407
aS'nn=backup'
p408
aS'nn=ballot'
p409
aS'nn=bargaining'
p410
aS'nn=bond'
p411
aS'nn=border'
p412
aS'nn=budget'
p413
aS'nn=building'
p414
aS'nn=conservation'
p415
aS'nn=containment'
p416
aS'nn=control'
p417
aS'nn=counter'
p418
aS'nn=counter-terrorism'
p419
aS'nn=culling'
p420
aS'nn=defense'
p421
aS'nn=deterrence'
p422
aS'nn=disarmament'
p423
aS'nn=drawdown'
p424
aS'nn=emergency'
p425
aS'nn=enforcement'
p426
aS'nn=evaluation'
p427
aS'nn=funding'
p428
aS'nn=genocide'
p429
aS'nn=government'
p430
aS'nn=health'
p431
aS'nn=immigration'
p432
aS'nn=implementation'
p433
aS'nn=integration'
p434
aS'nn=interrogation'
p435
aS'nn=liquidity'
p436
aS'nn=maker'
p437
aS'nn=no-confidence'
p438
aS'nn=performance'
p439
aS'nn=place'
p440
aS'nn=policy'
p441
aS'nn=preparedness'
p442
aS'nn=prevention'
p443
aS'nn=protection'
p444
aS'nn=reduction'
p445
aS'nn=reform'
p446
aS'nn=response'
p447
aS'nn=rights'
p448
aS'nn=safety'
p449
aS'nn=sanction'
p450
aS'nn=security'
p451
aS'nn=spending'
p452
aS'nn=stimulus'
p453
aS'nn=stopgap'
p454
aS'nn=surveillance'
p455
aS'nn=term'
p456
aS'nn=timepiece'
p457
aS'nn=transparency'
p458
aS'nn=verification'
p459
aS'nn=voter'
p460
aS'nn=withdrawal'
p461
aS'nsubj=#NUMBER#'
p462
aS'nsubj=#PRP#'
p463
aS'nsubj=Bowen'
p464
aS'nsubj=House'
p465
aS'nsubj=Manica'
p466
aS'nsubj=NATO'
p467
aS'nsubj=account'
p468
aS'nsubj=amendment'
p469
aS'nsubj=board'
p470
aS'nsubj=bottom'
p471
aS'nsubj=casualty'
p472
aS'nsubj=hand'
p473
aS'nsubj=hdus'
p474
aS'nsubj=hour'
p475
aS'nsubj=index'
p476
aS'nsubj=indicator'
p477
aS'nsubj=lawmaker'
p478
aS'nsubj=list'
p479
aS'nsubj=pencil'
p480
aS'nsubj=performance'
p481
aS'nsubj=prevention'
p482
aS'nsubj=publication'
p483
aS'nsubj=reef'
p484
aS'nsubj=researcher'
p485
aS'nsubj=ring'
p486
aS'nsubj=sanction'
p487
aS'nsubj=scientist'
p488
aS'nsubj=security'
p489
aS'nsubj=station'
p490
aS'nsubj=temblor'
p491
aS'nsubj=test'
p492
aS'nsubj=that'
p493
aS'nsubj=theater'
p494
aS'nsubj=these'
p495
aS'nsubj=this'
p496
aS'nsubj=trait'
p497
aS'nsubj=way'
p498
aS'nsubj=which'
p499
aS'nsubj=withdrawal'
p500
aS'nsubjpass=#PRP#'
p501
aS'nsubjpass=Progress'
p502
aS'nsubjpass=applicant'
p503
aS'nsubjpass=comment'
p504
aS'nsubjpass=governance'
p505
aS'nsubjpass=investor'
p506
aS'nsubjpass=poverty'
p507
aS'nsubjpass=progress'
p508
aS'nsubjpass=result'
p509
aS'nsubjpass=success'
p510
aS'nsubjpass=temperature'
p511
aS'nsubjpass=that'
p512
aS'nsubjpass=year'
p513
aS'num=#NUMBER#'
p514
aS'num=$'
p515
aS'parataxis=cover'
p516
aS'partmod=aim'
p517
aS'partmod=announce'
p518
aS'partmod=apply'
p519
aS'partmod=call'
p520
aS'partmod=come'
p521
aS'partmod=contain'
p522
aS'partmod=define'
p523
aS'partmod=design'
p524
aS'partmod=develop'
p525
aS'partmod=drop'
p526
aS'partmod=exclude'
p527
aS'partmod=expect'
p528
aS'partmod=introduce'
p529
aS'partmod=involve'
p530
aS'partmod=know'
p531
aS'partmod=mean'
p532
aS'partmod=meet'
p533
aS'partmod=oppose'
p534
aS'partmod=pass'
p535
aS'partmod=permit'
p536
aS'partmod=place'
p537
aS'partmod=praise'
p538
aS'partmod=prohibit'
p539
aS'partmod=propose'
p540
aS'partmod=put'
p541
aS'partmod=reach'
p542
aS'partmod=require'
p543
aS'partmod=schedule'
p544
aS'partmod=seek'
p545
aS'partmod=set'
p546
aS'partmod=sponsor'
p547
aS'partmod=take'
p548
aS'partmod=undertake'
p549
aS'poss=#PRP#'
p550
aS'poss=Blumenauer'
p551
aS'poss=California'
p552
aS'poss=Democrat'
p553
aS'poss=Shropshire'
p554
aS'poss=child'
p555
aS'poss=country'
p556
aS'poss=minister'
p557
aS'poss=outsider'
p558
aS"possessive='s"
p559
aS'preconj=both'
p560
aS'predet=all'
p561
aS'prep=about'
p562
aS'prep=accord'
p563
aS'prep=against'
p564
aS'prep=among'
p565
aS'prep=around'
p566
aS'prep=as'
p567
aS'prep=at'
p568
aS'prep=below'
p569
aS'prep=between'
p570
aS'prep=by'
p571
aS'prep=follow'
p572
aS'prep=for'
p573
aS'prep=from'
p574
aS'prep=in'
p575
aS'prep=include'
p576
aS'prep=like'
p577
aS'prep=of'
p578
aS'prep=on'
p579
aS'prep=outside'
p580
aS'prep=since'
p581
aS'prep=to'
p582
aS'prep=under'
p583
aS'prep=with'
p584
aS'rcmod=add'
p585
aS'rcmod=adopt'
p586
aS'rcmod=agree'
p587
aS'rcmod=amend'
p588
aS'rcmod=attract'
p589
aS'rcmod=avert'
p590
aS'rcmod=avoid'
p591
aS'rcmod=call'
p592
aS'rcmod=change'
p593
aS'rcmod=consider'
p594
aS'rcmod=contain'
p595
aS'rcmod=delay'
p596
aS'rcmod=distort'
p597
aS'rcmod=emphasize'
p598
aS'rcmod=enable'
p599
aS'rcmod=end'
p600
aS'rcmod=exceed'
p601
aS'rcmod=force'
p602
aS'rcmod=give'
p603
aS'rcmod=go'
p604
aS'rcmod=have'
p605
aS'rcmod=hinder'
p606
aS'rcmod=impose'
p607
aS'rcmod=include'
p608
aS'rcmod=involve'
p609
aS'rcmod=keep'
p610
aS'rcmod=lead'
p611
aS'rcmod=look'
p612
aS'rcmod=lower'
p613
aS'rcmod=make'
p614
aS'rcmod=mark'
p615
aS'rcmod=need'
p616
aS'rcmod=operation'
p617
aS'rcmod=outlaw'
p618
aS'rcmod=part'
p619
aS'rcmod=prohibit'
p620
aS'rcmod=promote'
p621
aS'rcmod=propose'
p622
aS'rcmod=put'
p623
aS'rcmod=reduce'
p624
aS'rcmod=remain'
p625
aS'rcmod=represent'
p626
aS'rcmod=require'
p627
aS'rcmod=rewrite'
p628
aS'rcmod=say'
p629
aS'rcmod=seek'
p630
aS'rcmod=shield'
p631
aS'rcmod=similar'
p632
aS'rcmod=take'
p633
aS'rcmod=that'
p634
aS'rcmod=threaten'
p635
aS'rcmod=tie'
p636
aS'rcmod=tighten'
p637
aS'rcmod=total'
p638
aS'rcmod=tough'
p639
aS'rcmod=underway'
p640
aS'rcmod=use'
p641
aS'rcmod=warn'
p642
aS'rcmod=weaken'
p643
aS'tmod=#DATE#'
p644
aS'tmod=week'
p645
aS"w+1=''"
p646
aS"w+1='s"
p647
aS'w+1=,'
p648
aS'w+1=-'
p649
aS'w+1=.'
p650
aS'w+1=178'
p651
aS'w+1=24'
p652
aS'w+1=4,500'
p653
aS'w+1=6,414'
p654
aS'w+1=7.1'
p655
aS'w+1=7.8'
p656
aS'w+1=:'
p657
aS'w+1=;'
p658
aS'w+1=California'
p659
aS'w+1=London'
p660
aS'w+1=NATO'
p661
aS'w+1=President'
p662
aS'w+1=Russia'
p663
aS'w+1=Sarkozy'
p664
aS'w+1=Thursday'
p665
aS'w+1=a'
p666
aS'w+1=about'
p667
aS'w+1=again'
p668
aS'w+1=against'
p669
aS'w+1=agree'
p670
aS'w+1=aim'
p671
aS'w+1=allow'
p672
aS'w+1=alone'
p673
aS'w+1=also'
p674
aS'w+1=amount'
p675
aS'w+1=and'
p676
aS'w+1=announce'
p677
aS'w+1=appear'
p678
aS'w+1=apply'
p679
aS'w+1=approach'
p680
aS'w+1=around'
p681
aS'w+1=as'
p682
aS'w+1=at'
p683
aS'w+1=audience'
p684
aS'w+1=be'
p685
aS'w+1=because'
p686
aS'w+1=before'
p687
aS'w+1=begin'
p688
aS'w+1=believe'
p689
aS'w+1=between'
p690
aS'w+1=by'
p691
aS'w+1=call'
p692
aS'w+1=can'
p693
aS'w+1=category'
p694
aS'w+1=clear'
p695
aS'w+1=close'
p696
aS'w+1=combine'
p697
aS'w+1=come'
p698
aS'w+1=comprise'
p699
aS'w+1=contain'
p700
aS'w+1=correctly'
p701
aS'w+1=corruption'
p702
aS'w+1=could'
p703
aS'w+1=cover'
p704
aS'w+1=criticize'
p705
aS'w+1=define'
p706
aS'w+1=demand'
p707
aS'w+1=design'
p708
aS'w+1=despite'
p709
aS'w+1=development'
p710
aS'w+1=divide'
p711
aS'w+1=do'
p712
aS'w+1=drop'
p713
aS'w+1=during'
p714
aS'w+1=earlier'
p715
aS'w+1=economic'
p716
aS'w+1=effective'
p717
aS'w+1=effectively'
p718
aS'w+1=endorse'
p719
aS'w+1=european'
p720
aS'w+1=every'
p721
aS'w+1=everything'
p722
aS'w+1=exclude'
p723
aS'w+1=expect'
p724
aS'w+1=expire'
p725
aS'w+1=express'
p726
aS'w+1=extend'
p727
aS'w+1=face'
p728
aS'w+1=fail'
p729
aS'w+1=five-point-six'
p730
aS'w+1=follow'
p731
aS'w+1=for'
p732
aS'w+1=forward'
p733
aS'w+1=french'
p734
aS'w+1=from'
p735
aS'w+1=fund'
p736
aS'w+1=fuse'
p737
aS'w+1=give'
p738
aS'w+1=go'
p739
aS'w+1=green'
p740
aS'w+1=guard'
p741
aS'w+1=have'
p742
aS'w+1=he'
p743
aS'w+1=health'
p744
aS'w+1=heat'
p745
aS'w+1=here'
p746
aS'w+1=hope'
p747
aS'w+1=how'
p748
aS'w+1=if'
p749
aS'w+1=in'
p750
aS'w+1=include'
p751
aS'w+1=instead'
p752
aS'w+1=into'
p753
aS'w+1=involve'
p754
aS'w+1=it'
p755
aS'w+1=its'
p756
aS'w+1=just'
p757
aS'w+1=kick'
p758
aS'w+1=know'
p759
aS'w+1=last'
p760
aS'w+1=later'
p761
aS'w+1=law'
p762
aS'w+1=length'
p763
aS'w+1=like'
p764
aS'w+1=matter'
p765
aS'w+1=may'
p766
aS'w+1=mean'
p767
aS'w+1=might'
p768
aS'w+1=must'
p769
aS'w+1=nationwide'
p770
aS'w+1=necessary'
p771
aS'w+1=need'
p772
aS'w+1=next'
p773
aS'w+1=nonetheless'
p774
aS'w+1=not'
p775
aS'w+1=now'
p776
aS'w+1=ocean'
p777
aS'w+1=of'
p778
aS'w+1=on'
p779
aS'w+1=only'
p780
aS'w+1=oppose'
p781
aS'w+1=outside'
p782
aS'w+1=over'
p783
aS'w+1=pass'
p784
aS'w+1=permit'
p785
aS'w+1=place'
p786
aS'w+1=possible'
p787
aS'w+1=poverty'
p788
aS'w+1=praise'
p789
aS'w+1=program'
p790
aS'w+1=progress'
p791
aS'w+1=prohibit'
p792
aS'w+1=prompt'
p793
aS'w+1=propose'
p794
aS'w+1=provide'
p795
aS'w+1=put'
p796
aS'w+1=quantity'
p797
aS'w+1=quick'
p798
aS'w+1=radiation'
p799
aS'w+1=rather'
p800
aS'w+1=reach'
p801
aS'w+1=reflect'
p802
aS'w+1=relate'
p803
aS'w+1=remain'
p804
aS'w+1=republican'
p805
aS'w+1=require'
p806
aS'w+1=response'
p807
aS'w+1=say'
p808
aS'w+1=schedule'
p809
aS'w+1=seek'
p810
aS'w+1=service'
p811
aS'w+1=set'
p812
aS'w+1=should'
p813
aS'w+1=since'
p814
aS'w+1=so'
p815
aS'w+1=some'
p816
aS'w+1=spare'
p817
aS'w+1=sponsor'
p818
aS'w+1=star'
p819
aS'w+1=still'
p820
aS'w+1=strengthen'
p821
aS'w+1=such'
p822
aS'w+1=take'
p823
aS'w+1=that'
p824
aS'w+1=the'
p825
aS'w+1=they'
p826
aS'w+1=thing'
p827
aS'w+1=time'
p828
aS'w+1=to'
p829
aS'w+1=too'
p830
aS'w+1=unanimously'
p831
aS'w+1=uncertain'
p832
aS'w+1=under'
p833
aS'w+1=undermine'
p834
aS'w+1=undertake'
p835
aS'w+1=underway'
p836
aS'w+1=until'
p837
aS'w+1=up'
p838
aS'w+1=urge'
p839
aS'w+1=vehemently'
p840
aS'w+1=view'
p841
aS'w+1=voter'
p842
aS'w+1=we'
p843
aS'w+1=what'
p844
aS'w+1=whether'
p845
aS'w+1=which'
p846
aS'w+1=will'
p847
aS'w+1=with'
p848
aS'w+1=without'
p849
aS'w+1=worsen'
p850
aS'w+1=would'
p851
aS'w+1=yourself'
p852
aS"w+2=''"
p853
aS"w+2='s"
p854
aS'w+2=,'
p855
aS'w+2=-'
p856
aS'w+2=-lrb-'
p857
aS'w+2=.'
p858
aS'w+2=11'
p859
aS'w+2=1997'
p860
aS'w+2=2002'
p861
aS'w+2=2005'
p862
aS'w+2=26'
p863
aS'w+2=51,000'
p864
aS'w+2=Abkhazia'
p865
aS'w+2=Afghanistan'
p866
aS'w+2=America'
p867
aS'w+2=Baghdad'
p868
aS'w+2=Barack'
p869
aS'w+2=Brian'
p870
aS'w+2=Britain'
p871
aS'w+2=Bush'
p872
aS'w+2=Capitol'
p873
aS'w+2=China'
p874
aS'w+2=Democrats'
p875
aS'w+2=Egypt'
p876
aS'w+2=Europe'
p877
aS'w+2=Gerald'
p878
aS'w+2=Hamas'
p879
aS'w+2=Iran'
p880
aS'w+2=Iraq'
p881
aS'w+2=July'
p882
aS'w+2=Kepler'
p883
aS'w+2=Kosovo'
p884
aS'w+2=Mexico'
p885
aS'w+2=New'
p886
aS'w+2=President'
p887
aS'w+2=Pyongyang'
p888
aS'w+2=Sudan'
p889
aS'w+2=Tehran'
p890
aS'w+2=Thursday'
p891
aS'w+2=U.S.'
p892
aS'w+2=Wednesday'
p893
aS'w+2=Yemen'
p894
aS'w+2=Zimbabwe'
p895
aS'w+2=a'
p896
aS'w+2=about'
p897
aS'w+2=accelerate'
p898
aS'w+2=accuracy'
p899
aS'w+2=achieve'
p900
aS'w+2=actual'
p901
aS'w+2=actually'
p902
aS'w+2=address'
p903
aS'w+2=advance'
p904
aS'w+2=after'
p905
aS'w+2=against'
p906
aS'w+2=agree'
p907
aS'w+2=aid'
p908
aS'w+2=aim'
p909
aS'w+2=airport'
p910
aS'w+2=all'
p911
aS'w+2=allow'
p912
aS'w+2=already'
p913
aS'w+2=also'
p914
aS'w+2=although'
p915
aS'w+2=amend'
p916
aS'w+2=ammunition'
p917
aS'w+2=among'
p918
aS'w+2=amount'
p919
aS'w+2=ancient'
p920
aS'w+2=and'
p921
aS'w+2=anger'
p922
aS'w+2=announce'
p923
aS'w+2=another'
p924
aS'w+2=approve'
p925
aS'w+2=artificially'
p926
aS'w+2=as'
p927
aS'w+2=asian'
p928
aS'w+2=at'
p929
aS'w+2=attitude'
p930
aS'w+2=attract'
p931
aS'w+2=authority'
p932
aS'w+2=authorize'
p933
aS'w+2=average'
p934
aS'w+2=avoid'
p935
aS'w+2=be'
p936
aS'w+2=because'
p937
aS'w+2=benefit'
p938
aS'w+2=bill'
p939
aS'w+2=bipartisan'
p940
aS'w+2=bolster'
p941
aS'w+2=boost'
p942
aS'w+2=brain'
p943
aS'w+2=bring'
p944
aS'w+2=but'
p945
aS'w+2=by'
p946
aS'w+2=call'
p947
aS'w+2=can'
p948
aS'w+2=capture'
p949
aS'w+2=carry'
p950
aS'w+2=cause'
p951
aS'w+2=cd4'
p952
aS'w+2=centimeter'
p953
aS'w+2=certain'
p954
aS'w+2=challenge'
p955
aS'w+2=chemical'
p956
aS'w+2=child'
p957
aS'w+2=civic'
p958
aS'w+2=close'
p959
aS'w+2=combat'
p960
aS'w+2=come'
p961
aS'w+2=compare'
p962
aS'w+2=compensate'
p963
aS'w+2=composition'
p964
aS'w+2=conduct'
p965
aS'w+2=confront'
p966
aS'w+2=consideration'
p967
aS'w+2=contain'
p968
aS'w+2=continue'
p969
aS'w+2=control'
p970
aS'w+2=controversial'
p971
aS'w+2=convince'
p972
aS'w+2=cost'
p973
aS'w+2=could'
p974
aS'w+2=country'
p975
aS'w+2=curb'
p976
aS'w+2=curl'
p977
aS'w+2=current'
p978
aS'w+2=cut'
p979
aS'w+2=deal'
p980
aS'w+2=decade'
p981
aS'w+2=delivery'
p982
aS'w+2=design'
p983
aS'w+2=devastate'
p984
aS'w+2=develop'
p985
aS'w+2=difference'
p986
aS'w+2=direct'
p987
aS'w+2=discriminate'
p988
aS'w+2=disingenuous'
p989
aS'w+2=distort'
p990
aS'w+2=do'
p991
aS'w+2=doctor-assisted'
p992
aS'w+2=down'
p993
aS'w+2=earlier'
p994
aS'w+2=ease'
p995
aS'w+2=economy'
p996
aS'w+2=effort'
p997
aS'w+2=end'
p998
aS'w+2=enhance'
p999
aS'w+2=enough'
p1000
aS'w+2=ensure'
p1001
aS'w+2=establish'
p1002
aS'w+2=everybody'
p1003
aS'w+2=everyone'
p1004
aS'w+2=exceed'
p1005
aS'w+2=expand'
p1006
aS'w+2=expect'
p1007
aS'w+2=extend'
p1008
aS'w+2=fact'
p1009
aS'w+2=far'
p1010
aS'w+2=feed'
p1011
aS'w+2=for'
p1012
aS'w+2=force'
p1013
aS'w+2=freedom'
p1014
aS'w+2=from'
p1015
aS'w+2=fulfill'
p1016
aS'w+2=full'
p1017
aS'w+2=further'
p1018
aS'w+2=get'
p1019
aS'w+2=give'
p1020
aS'w+2=global'
p1021
aS'w+2=go'
p1022
aS'w+2=good'
p1023
aS'w+2=government'
p1024
aS'w+2=greatly'
p1025
aS'w+2=growth'
p1026
aS'w+2=halt'
p1027
aS'w+2=handle'
p1028
aS'w+2=have'
p1029
aS'w+2=he'
p1030
aS'w+2=health'
p1031
aS'w+2=height'
p1032
aS'w+2=help'
p1033
aS'w+2=higher'
p1034
aS'w+2=how'
p1035
aS'w+2=however'
p1036
aS'w+2=hurt'
p1037
aS'w+2=impact'
p1038
aS'w+2=implement'
p1039
aS'w+2=importance'
p1040
aS'w+2=important'
p1041
aS'w+2=impose'
p1042
aS'w+2=improve'
p1043
aS'w+2=in'
p1044
aS'w+2=include'
p1045
aS'w+2=income'
p1046
aS'w+2=increase'
p1047
aS'w+2=increasingly'
p1048
aS'w+2=individual'
p1049
aS'w+2=internally'
p1050
aS'w+2=introduce'
p1051
aS'w+2=investigate'
p1052
aS'w+2=it'
p1053
aS'w+2=keep'
p1054
aS'w+2=last'
p1055
aS'w+2=launch'
p1056
aS'w+2=lead'
p1057
aS'w+2=least'
p1058
aS'w+2=legal'
p1059
aS'w+2=level'
p1060
aS'w+2=limit'
p1061
aS'w+2=little'
p1062
aS'w+2=magnetic'
p1063
aS'w+2=make'
p1064
aS'w+2=may'
p1065
aS'w+2=meet'
p1066
aS'w+2=mention'
p1067
aS'w+2=merely'
p1068
aS'w+2=meter'
p1069
aS'w+2=might'
p1070
aS'w+2=military'
p1071
aS'w+2=modicum'
p1072
aS'w+2=money'
p1073
aS'w+2=more'
p1074
aS'w+2=movement'
p1075
aS'w+2=much'
p1076
aS'w+2=multi-sensory'
p1077
aS'w+2=narrowly'
p1078
aS'w+2=necessary'
p1079
aS'w+2=need'
p1080
aS'w+2=negotiate'
p1081
aS'w+2=normalcy'
p1082
aS'w+2=not'
p1083
aS'w+2=note'
p1084
aS'w+2=now'
p1085
aS'w+2=numerous'
p1086
aS'w+2=of'
p1087
aS'w+2=often'
p1088
aS'w+2=on'
p1089
aS'w+2=only'
p1090
aS'w+2=oppose'
p1091
aS'w+2=opposition'
p1092
aS'w+2=or'
p1093
aS'w+2=order'
p1094
aS'w+2=other'
p1095
aS'w+2=overall'
p1096
aS'w+2=overcome'
p1097
aS'w+2=overwhelming'
p1098
aS'w+2=own'
p1099
aS'w+2=palestinian'
p1100
aS'w+2=part'
p1101
aS'w+2=particularly'
p1102
aS'w+2=pass'
p1103
aS'w+2=passage'
p1104
aS'w+2=pend'
p1105
aS'w+2=people'
p1106
aS'w+2=performance'
p1107
aS'w+2=personnel'
p1108
aS'w+2=place'
p1109
aS'w+2=plan'
p1110
aS'w+2=popularity'
p1111
aS'w+2=possible'
p1112
aS'w+2=postpone'
p1113
aS'w+2=president'
p1114
aS'w+2=press'
p1115
aS'w+2=pressure'
p1116
aS'w+2=prevent'
p1117
aS'w+2=previous'
p1118
aS'w+2=progress'
p1119
aS'w+2=progression'
p1120
aS'w+2=promote'
p1121
aS'w+2=propose'
p1122
aS'w+2=protect'
p1123
aS'w+2=protein'
p1124
aS'w+2=prove'
p1125
aS'w+2=pursue'
p1126
aS'w+2=put'
p1127
aS'w+2=quality'
p1128
aS'w+2=quickly'
p1129
aS'w+2=range'
p1130
aS'w+2=rate'
p1131
aS'w+2=rebel'
p1132
aS'w+2=receive'
p1133
aS'w+2=recent'
p1134
aS'w+2=redress'
p1135
aS'w+2=reduce'
p1136
aS'w+2=reestablish'
p1137
aS'w+2=remain'
p1138
aS'w+2=represent'
p1139
aS'w+2=require'
p1140
aS'w+2=resolve'
p1141
aS'w+2=respect'
p1142
aS'w+2=restrict'
p1143
aS'w+2=revise'
p1144
aS'w+2=rework'
p1145
aS'w+2=robust'
p1146
aS'w+2=routine'
p1147
aS'w+2=say'
p1148
aS'w+2=seek'
p1149
aS'w+2=send'
p1150
aS'w+2=seriousness'
p1151
aS'w+2=set'
p1152
aS'w+2=several'
p1153
aS'w+2=she'
p1154
aS'w+2=shield'
p1155
aS'w+2=signal'
p1156
aS'w+2=since'
p1157
aS'w+2=size'
p1158
aS'w+2=slowdown'
p1159
aS'w+2=solve'
p1160
aS'w+2=some'
p1161
aS'w+2=soon'
p1162
aS'w+2=speak'
p1163
aS'w+2=spokesman'
p1164
aS'w+2=sponsor'
p1165
aS'w+2=stability'
p1166
aS'w+2=start'
p1167
aS'w+2=state'
p1168
aS'w+2=statewide'
p1169
aS'w+2=stem'
p1170
aS'w+2=stop'
p1171
aS'w+2=strengthen'
p1172
aS'w+2=stretch'
p1173
aS'w+2=strictly'
p1174
aS'w+2=strong'
p1175
aS'w+2=success'
p1176
aS'w+2=such'
p1177
aS'w+2=suggest'
p1178
aS'w+2=support'
p1179
aS'w+2=survive'
p1180
aS'w+2=tackle'
p1181
aS'w+2=take'
p1182
aS'w+2=team'
p1183
aS'w+2=temporary'
p1184
aS'w+2=tension'
p1185
aS'w+2=term'
p1186
aS'w+2=than'
p1187
aS'w+2=that'
p1188
aS'w+2=the'
p1189
aS'w+2=then'
p1190
aS'w+2=there'
p1191
aS'w+2=they'
p1192
aS'w+2=this'
p1193
aS'w+2=those'
p1194
aS'w+2=though'
p1195
aS'w+2=threaten'
p1196
aS'w+2=three'
p1197
aS'w+2=tie'
p1198
aS'w+2=tighten'
p1199
aS'w+2=to'
p1200
aS'w+2=tone'
p1201
aS'w+2=too'
p1202
aS'w+2=toughen'
p1203
aS'w+2=tougher'
p1204
aS'w+2=tower'
p1205
aS'w+2=track'
p1206
aS'w+2=trafficker'
p1207
aS'w+2=transparency'
p1208
aS'w+2=trouble'
p1209
aS'w+2=truth'
p1210
aS'w+2=try'
p1211
aS'w+2=understand'
p1212
aS'w+2=undue'
p1213
aS'w+2=unjust'
p1214
aS'w+2=upon'
p1215
aS'w+2=use'
p1216
aS'w+2=viscosity'
p1217
aS'w+2=visit'
p1218
aS'w+2=vote'
p1219
aS'w+2=we'
p1220
aS'w+2=weak'
p1221
aS'w+2=wealth'
p1222
aS'w+2=week'
p1223
aS'w+2=weigh'
p1224
aS'w+2=what'
p1225
aS'w+2=which'
p1226
aS'w+2=will'
p1227
aS'w+2=wind'
p1228
aS'w+2=with'
p1229
aS'w+2=withdraw'
p1230
aS'w+2=withdrawal'
p1231
aS'w+2=withhold'
p1232
aS'w+2=word'
p1233
aS'w+2=would'
p1234
aS'w+2=year'
p1235
aS'w+2=yet'
p1236
aS'w+2=you'
p1237
aS"w-1='"
p1238
aS"w-1=''"
p1239
aS"w-1='ll"
p1240
aS"w-1='s"
p1241
aS'w-1=,'
p1242
aS'w-1=-rrb-'
p1243
aS'w-1=.'
p1244
aS'w-1=124-billion'
p1245
aS'w-1=17'
p1246
aS'w-1=2002'
p1247
aS'w-1=2008'
p1248
aS'w-1=50-billion'
p1249
aS'w-1=Bowen'
p1250
aS'w-1=California'
p1251
aS'w-1=FISA'
p1252
aS'w-1=Feingold'
p1253
aS'w-1=Financial'
p1254
aS'w-1=House'
p1255
aS'w-1=I'
p1256
aS'w-1=Senate'
p1257
aS'w-1=U.N.'
p1258
aS'w-1=Zimbabwe'
p1259
aS'w-1=a'
p1260
aS'w-1=about'
p1261
aS'w-1=abstract'
p1262
aS'w-1=accept'
p1263
aS'w-1=account'
p1264
aS'w-1=active'
p1265
aS'w-1=additional'
p1266
aS'w-1=administrative'
p1267
aS'w-1=adopt'
p1268
aS'w-1=aggressive'
p1269
aS'w-1=agriculture'
p1270
aS'w-1=all'
p1271
aS'w-1=also'
p1272
aS'w-1=alternative'
p1273
aS'w-1=among'
p1274
aS'w-1=and'
p1275
aS'w-1=announce'
p1276
aS'w-1=another'
p1277
aS'w-1=anti-concentration'
p1278
aS'w-1=anti-corruption'
p1279
aS'w-1=anti-israeli'
p1280
aS'w-1=anti-terrorism'
p1281
aS'w-1=anti-war'
p1282
aS'w-1=any'
p1283
aS'w-1=appropriate'
p1284
aS'w-1=appropriation'
p1285
aS'w-1=approve'
p1286
aS'w-1=as'
p1287
aS'w-1=at'
p1288
aS'w-1=audience'
p1289
aS'w-1=austerity'
p1290
aS'w-1=backup'
p1291
aS'w-1=ballot'
p1292
aS'w-1=bargaining'
p1293
aS'w-1=be'
p1294
aS'w-1=billion'
p1295
aS'w-1=bipartisan'
p1296
aS'w-1=bond'
p1297
aS'w-1=broadest'
p1298
aS'w-1=budget'
p1299
aS'w-1=building'
p1300
aS'w-1=by'
p1301
aS'w-1=can'
p1302
aS'w-1=certain'
p1303
aS'w-1=citizen-sponsored'
p1304
aS'w-1=climate-control'
p1305
aS'w-1=coercive'
p1306
aS'w-1=colleague'
p1307
aS'w-1=combined'
p1308
aS'w-1=commonly'
p1309
aS'w-1=concrete'
p1310
aS'w-1=confidence-building'
p1311
aS'w-1=conservation'
p1312
aS'w-1=containment'
p1313
aS'w-1=control'
p1314
aS'w-1=controversial'
p1315
aS'w-1=corrective'
p1316
aS'w-1=could'
p1317
aS'w-1=counter'
p1318
aS'w-1=counter-productive'
p1319
aS'w-1=counter-terrorism'
p1320
aS'w-1=current'
p1321
aS'w-1=cut'
p1322
aS'w-1=damage-control'
p1323
aS'w-1=defense'
p1324
aS'w-1=defensive'
p1325
aS'w-1=democrat-crafted'
p1326
aS'w-1=democratic'
p1327
aS'w-1=democratic-sponsored'
p1328
aS'w-1=desperate'
p1329
aS'w-1=deterrence'
p1330
aS'w-1=diagnostic'
p1331
aS'w-1=diplomatic'
p1332
aS'w-1=disarmament'
p1333
aS'w-1=drastic'
p1334
aS'w-1=drawdown'
p1335
aS'w-1=each'
p1336
aS'w-1=economic'
p1337
aS'w-1=emergency'
p1338
aS'w-1=enforcement'
p1339
aS'w-1=especially'
p1340
aS'w-1=essentially'
p1341
aS'w-1=evaluation'
p1342
aS'w-1=every'
p1343
aS'w-1=explore'
p1344
aS'w-1=extensive'
p1345
aS'w-1=extreme'
p1346
aS'w-1=fight'
p1347
aS'w-1=financial'
p1348
aS'w-1=find'
p1349
aS'w-1=first'
p1350
aS'w-1=follow-on'
p1351
aS'w-1=for'
p1352
aS'w-1=forceful'
p1353
aS'w-1=frequency'
p1354
aS'w-1=funding'
p1355
aS'w-1=further'
p1356
aS'w-1=genocide'
p1357
aS'w-1=good'
p1358
aS'w-1=government'
p1359
aS'w-1=greater'
p1360
aS'w-1=half'
p1361
aS'w-1=harsher'
p1362
aS'w-1=have'
p1363
aS'w-1=he'
p1364
aS'w-1=health'
p1365
aS'w-1=high-tech'
p1366
aS'w-1=house-passed'
p1367
aS'w-1=humanitarian'
p1368
aS'w-1=illegal'
p1369
aS'w-1=immediate'
p1370
aS'w-1=immigration'
p1371
aS'w-1=implement'
p1372
aS'w-1=implementation'
p1373
aS'w-1=important'
p1374
aS'w-1=in'
p1375
aS'w-1=include'
p1376
aS'w-1=index'
p1377
aS'w-1=integration'
p1378
aS'w-1=interim'
p1379
aS'w-1=interrogation'
p1380
aS'w-1=intimidatory'
p1381
aS'w-1=intolerant'
p1382
aS'w-1=iraq-related'
p1383
aS'w-1=israeli'
p1384
aS'w-1=it'
p1385
aS'w-1=its'
p1386
aS'w-1=key'
p1387
aS'w-1=large'
p1388
aS'w-1=last-minute'
p1389
aS'w-1=later'
p1390
aS'w-1=least'
p1391
aS'w-1=legal'
p1392
aS'w-1=legislative'
p1393
aS'w-1=liquidity'
p1394
aS'w-1=main'
p1395
aS'w-1=maker'
p1396
aS'w-1=many'
p1397
aS'w-1=massive'
p1398
aS'w-1=military'
p1399
aS'w-1=mine'
p1400
aS'w-1=modest'
p1401
aS'w-1=more'
p1402
aS'w-1=necessary'
p1403
aS'w-1=new'
p1404
aS'w-1=no-confidence'
p1405
aS'w-1=non-binding'
p1406
aS'w-1=nonbinding'
p1407
aS'w-1=not'
p1408
aS'w-1=of'
p1409
aS'w-1=often'
p1410
aS'w-1=on'
p1411
aS'w-1=one'
p1412
aS'w-1=only'
p1413
aS'w-1=other'
p1414
aS'w-1=own'
p1415
aS'w-1=pend'
p1416
aS'w-1=performance'
p1417
aS'w-1=permanent'
p1418
aS'w-1=place'
p1419
aS'w-1=plan'
p1420
aS'w-1=policy'
p1421
aS'w-1=political'
p1422
aS'w-1=poll'
p1423
aS'w-1=populist'
p1424
aS'w-1=possible'
p1425
aS'w-1=practical'
p1426
aS'w-1=precautionary'
p1427
aS'w-1=preliminary'
p1428
aS'w-1=preparedness'
p1429
aS'w-1=preventative'
p1430
aS'w-1=prevention'
p1431
aS'w-1=preventive'
p1432
aS'w-1=private'
p1433
aS'w-1=probably'
p1434
aS'w-1=procedural'
p1435
aS'w-1=propose'
p1436
aS'w-1=proposed'
p1437
aS'w-1=protection'
p1438
aS'w-1=protective'
p1439
aS'w-1=punitive'
p1440
aS'w-1=put'
p1441
aS'w-1=quantitative'
p1442
aS'w-1=quarantine'
p1443
aS'w-1=real'
p1444
aS'w-1=reasonable'
p1445
aS'w-1=recent'
p1446
aS'w-1=reduction'
p1447
aS'w-1=reef'
p1448
aS'w-1=reform'
p1449
aS'w-1=remedial'
p1450
aS'w-1=republican'
p1451
aS'w-1=republican-backed'
p1452
aS'w-1=researcher'
p1453
aS'w-1=response'
p1454
aS'w-1=retaliatory'
p1455
aS'w-1=right'
p1456
aS'w-1=rights'
p1457
aS'w-1=ring'
p1458
aS'w-1=safeguard'
p1459
aS'w-1=safety'
p1460
aS'w-1=sanction'
p1461
aS'w-1=say'
p1462
aS'w-1=security'
p1463
aS'w-1=self-defense'
p1464
aS'w-1=separate'
p1465
aS'w-1=serious'
p1466
aS'w-1=several'
p1467
aS'w-1=short-term'
p1468
aS'w-1=should'
p1469
aS'w-1=significant'
p1470
aS'w-1=similar'
p1471
aS'w-1=simple'
p1472
aS'w-1=simply'
p1473
aS'w-1=single'
p1474
aS'w-1=six'
p1475
aS'w-1=six-month'
p1476
aS'w-1=some'
p1477
aS'w-1=special'
p1478
aS'w-1=specific'
p1479
aS'w-1=spending'
p1480
aS'w-1=station'
p1481
aS'w-1=sterner'
p1482
aS'w-1=stimulus'
p1483
aS'w-1=stop-gap'
p1484
aS'w-1=stopgap'
p1485
aS'w-1=strengthen'
p1486
aS'w-1=stretch'
p1487
aS'w-1=stricter'
p1488
aS'w-1=strong'
p1489
aS'w-1=stronger'
p1490
aS'w-1=successful'
p1491
aS'w-1=such'
p1492
aS'w-1=sufficient'
p1493
aS'w-1=support'
p1494
aS'w-1=surveillance'
p1495
aS'w-1=sweeping'
p1496
aS'w-1=take'
p1497
aS'w-1=target'
p1498
aS'w-1=temporary'
p1499
aS'w-1=term'
p1500
aS'w-1=test'
p1501
aS'w-1=that'
p1502
aS'w-1=the'
p1503
aS'w-1=these'
p1504
aS'w-1=they'
p1505
aS'w-1=this'
p1506
aS'w-1=those'
p1507
aS'w-1=through'
p1508
aS'w-1=timepiece'
p1509
aS'w-1=to'
p1510
aS'w-1=tough'
p1511
aS'w-1=tougher'
p1512
aS'w-1=track'
p1513
aS'w-1=traditional'
p1514
aS'w-1=transparency'
p1515
aS'w-1=true'
p1516
aS'w-1=unpopular'
p1517
aS'w-1=urgent'
p1518
aS'w-1=use'
p1519
aS'w-1=verification'
p1520
aS'w-1=veto'
p1521
aS'w-1=voluntary'
p1522
aS'w-1=voter'
p1523
aS'w-1=want'
p1524
aS'w-1=water-saving'
p1525
aS'w-1=we'
p1526
aS'w-1=what'
p1527
aS'w-1=whatever'
p1528
aS'w-1=when'
p1529
aS'w-1=which'
p1530
aS'w-1=will'
p1531
aS'w-1=withdrawal'
p1532
aS'w-1=would'
p1533
aS'w-2=$'
p1534
aS"w-2=''"
p1535
aS"w-2='s"
p1536
aS'w-2=,'
p1537
aS'w-2=-'
p1538
aS'w-2=-rrb-'
p1539
aS'w-2=.'
p1540
aS'w-2=120'
p1541
aS'w-2=2008'
p1542
aS'w-2=500'
p1543
aS'w-2=Blumenauer'
p1544
aS'w-2=Bolivia'
p1545
aS'w-2=California'
p1546
aS'w-2=Chulanot'
p1547
aS'w-2=Darfur'
p1548
aS'w-2=Democrat'
p1549
aS'w-2=Development'
p1550
aS'w-2=Fate'
p1551
aS'w-2=House'
p1552
aS'w-2=Iraq'
p1553
aS'w-2=Langhofer'
p1554
aS'w-2=NATO'
p1555
aS'w-2=Nations'
p1556
aS'w-2=Organization'
p1557
aS'w-2=Planktos'
p1558
aS'w-2=Shropshire'
p1559
aS'w-2=System'
p1560
aS'w-2=U.S.'
p1561
aS'w-2=Zimbabwe'
p1562
aS'w-2=a'
p1563
aS'w-2=about'
p1564
aS'w-2=actual'
p1565
aS'w-2=addition'
p1566
aS'w-2=additional'
p1567
aS'w-2=adequate'
p1568
aS'w-2=adopt'
p1569
aS'w-2=after'
p1570
aS'w-2=against'
p1571
aS'w-2=agree'
p1572
aS'w-2=aircraft'
p1573
aS'w-2=all'
p1574
aS'w-2=allow'
p1575
aS'w-2=already'
p1576
aS'w-2=also'
p1577
aS'w-2=among'
p1578
aS'w-2=and'
p1579
aS'w-2=announce'
p1580
aS'w-2=another'
p1581
aS'w-2=any'
p1582
aS'w-2=applicant'
p1583
aS'w-2=approve'
p1584
aS'w-2=armenian'
p1585
aS'w-2=as'
p1586
aS'w-2=at'
p1587
aS'w-2=atmosphere'
p1588
aS'w-2=back'
p1589
aS'w-2=be'
p1590
aS'w-2=because'
p1591
aS'w-2=become'
p1592
aS'w-2=behind'
p1593
aS'w-2=believe'
p1594
aS'w-2=benchmark'
p1595
aS'w-2=biggest'
p1596
aS'w-2=bill'
p1597
aS'w-2=billion'
p1598
aS'w-2=block'
p1599
aS'w-2=blood'
p1600
aS'w-2=board'
p1601
aS'w-2=body'
p1602
aS'w-2=boost'
p1603
aS'w-2=border'
p1604
aS'w-2=bring'
p1605
aS'w-2=business'
p1606
aS'w-2=but'
p1607
aS'w-2=by'
p1608
aS'w-2=call'
p1609
aS'w-2=can'
p1610
aS'w-2=carefully'
p1611
aS'w-2=cede'
p1612
aS'w-2=cite'
p1613
aS'w-2=collective'
p1614
aS'w-2=commission'
p1615
aS'w-2=compete'
p1616
aS'w-2=compromise'
p1617
aS'w-2=condemn'
p1618
aS'w-2=confidence'
p1619
aS'w-2=confident'
p1620
aS'w-2=consider'
p1621
aS'w-2=cost'
p1622
aS'w-2=could'
p1623
aS'w-2=country'
p1624
aS'w-2=crisis'
p1625
aS'w-2=current'
p1626
aS'w-2=database'
p1627
aS'w-2=debate'
p1628
aS'w-2=democracy'
p1629
aS'w-2=describe'
p1630
aS'w-2=despite'
p1631
aS'w-2=develop'
p1632
aS'w-2=devise'
p1633
aS'w-2=difficult'
p1634
aS'w-2=discuss'
p1635
aS'w-2=do'
p1636
aS'w-2=double'
p1637
aS'w-2=doubt'
p1638
aS'w-2=down'
p1639
aS'w-2=draconian'
p1640
aS'w-2=draft'
p1641
aS'w-2=drop'
p1642
aS'w-2=electrode'
p1643
aS'w-2=electronic'
p1644
aS'w-2=emphasize'
p1645
aS'w-2=enact'
p1646
aS'w-2=end'
p1647
aS'w-2=endorse'
p1648
aS'w-2=enforce'
p1649
aS'w-2=error'
p1650
aS'w-2=establish'
p1651
aS'w-2=even'
p1652
aS'w-2=every'
p1653
aS'w-2=examine'
p1654
aS'w-2=explain'
p1655
aS'w-2=extraordinary'
p1656
aS'w-2=extreme'
p1657
aS'w-2=facility'
p1658
aS'w-2=fear'
p1659
aS'w-2=filament'
p1660
aS'w-2=flu'
p1661
aS'w-2=focus'
p1662
aS'w-2=follow'
p1663
aS'w-2=for'
p1664
aS'w-2=form'
p1665
aS'w-2=from'
p1666
aS'w-2=fund'
p1667
aS'w-2=further'
p1668
aS'w-2=get'
p1669
aS'w-2=give'
p1670
aS'w-2=governance'
p1671
aS'w-2=government'
p1672
aS'w-2=gun'
p1673
aS'w-2=happiness'
p1674
aS'w-2=hard'
p1675
aS'w-2=harsher'
p1676
aS'w-2=have'
p1677
aS'w-2=he'
p1678
aS'w-2=heighten'
p1679
aS'w-2=hope'
p1680
aS'w-2=hour'
p1681
aS'w-2=how'
p1682
aS'w-2=human'
p1683
aS'w-2=identical'
p1684
aS'w-2=if'
p1685
aS'w-2=immigration'
p1686
aS'w-2=implement'
p1687
aS'w-2=important'
p1688
aS'w-2=impose'
p1689
aS'w-2=impossible'
p1690
aS'w-2=improve'
p1691
aS'w-2=in'
p1692
aS'w-2=include'
p1693
aS'w-2=increase'
p1694
aS'w-2=indicator'
p1695
aS'w-2=individual'
p1696
aS'w-2=inflation'
p1697
aS'w-2=install'
p1698
aS'w-2=international'
p1699
aS'w-2=into'
p1700
aS'w-2=introduce'
p1701
aS'w-2=investment'
p1702
aS'w-2=involve'
p1703
aS'w-2=iraq-afghanistan'
p1704
aS'w-2=iraqi'
p1705
aS'w-2=it'
p1706
aS'w-2=its'
p1707
aS'w-2=kind'
p1708
aS'w-2=latest'
p1709
aS'w-2=law'
p1710
aS'w-2=layout'
p1711
aS'w-2=leadersagree'
p1712
aS'w-2=least'
p1713
aS'w-2=legislation'
p1714
aS'w-2=less'
p1715
aS'w-2=lift'
p1716
aS'w-2=likely'
p1717
aS'w-2=list'
p1718
aS'w-2=long'
p1719
aS'w-2=look'
p1720
aS'w-2=many'
p1721
aS'w-2=means'
p1722
aS'w-2=media'
p1723
aS'w-2=method'
p1724
aS'w-2=minimal'
p1725
aS'w-2=more'
p1726
aS'w-2=move'
p1727
aS'w-2=much'
p1728
aS'w-2=must'
p1729
aS'w-2=national'
p1730
aS'w-2=nearly'
p1731
aS'w-2=necessary'
p1732
aS'w-2=new'
p1733
aS'w-2=not'
p1734
aS'w-2=number'
p1735
aS'w-2=of'
p1736
aS'w-2=offer'
p1737
aS'w-2=often'
p1738
aS'w-2=on'
p1739
aS'w-2=one'
p1740
aS'w-2=only'
p1741
aS'w-2=opinion'
p1742
aS'w-2=oppose'
p1743
aS'w-2=or'
p1744
aS'w-2=other'
p1745
aS'w-2=out'
p1746
aS'w-2=outsider'
p1747
aS'w-2=over'
p1748
aS'w-2=own'
p1749
aS'w-2=parliament'
p1750
aS'w-2=partnership'
p1751
aS'w-2=pass'
p1752
aS'w-2=pay'
p1753
aS'w-2=pencil'
p1754
aS'w-2=performance'
p1755
aS'w-2=phase'
p1756
aS'w-2=planned'
p1757
aS'w-2=policy'
p1758
aS'w-2=politically'
p1759
aS'w-2=pollution'
p1760
aS'w-2=port'
p1761
aS'w-2=possible'
p1762
aS'w-2=potential'
p1763
aS'w-2=precautionary'
p1764
aS'w-2=press'
p1765
aS'w-2=previous'
p1766
aS'w-2=promising'
p1767
aS'w-2=prompt'
p1768
aS'w-2=propose'
p1769
aS'w-2=proposed'
p1770
aS'w-2=protective'
p1771
aS'w-2=prove'
p1772
aS'w-2=provide'
p1773
aS'w-2=public'
p1774
aS'w-2=purely'
p1775
aS'w-2=pursue'
p1776
aS'w-2=put'
p1777
aS'w-2=qualify'
p1778
aS'w-2=racial'
p1779
aS'w-2=range'
p1780
aS'w-2=rapid'
p1781
aS'w-2=ratify'
p1782
aS'w-2=receive'
p1783
aS'w-2=recraft'
p1784
aS'w-2=regain'
p1785
aS'w-2=regret'
p1786
aS'w-2=regular'
p1787
aS'w-2=reject'
p1788
aS'w-2=relax'
p1789
aS'w-2=report'
p1790
aS'w-2=require'
p1791
aS'w-2=retain'
p1792
aS'w-2=return'
p1793
aS'w-2=reverse'
p1794
aS'w-2=review'
p1795
aS'w-2=risk'
p1796
aS'w-2=sanction'
p1797
aS'w-2=say'
p1798
aS'w-2=scientist'
p1799
aS'w-2=second'
p1800
aS'w-2=see'
p1801
aS'w-2=send'
p1802
aS'w-2=sensitive'
p1803
aS'w-2=series'
p1804
aS'w-2=several'
p1805
aS'w-2=she'
p1806
aS'w-2=should'
p1807
aS'w-2=show'
p1808
aS'w-2=similiar'
p1809
aS'w-2=simple'
p1810
aS'w-2=since'
p1811
aS'w-2=sixteen'
p1812
aS'w-2=soften'
p1813
aS'w-2=some'
p1814
aS'w-2=soon'
p1815
aS'w-2=sort'
p1816
aS'w-2=soundwave'
p1817
aS'w-2=special-interest'
p1818
aS'w-2=specifically'
p1819
aS'w-2=specify'
p1820
aS'w-2=sponsor'
p1821
aS'w-2=stall'
p1822
aS'w-2=standard'
p1823
aS'w-2=stepped-up'
p1824
aS'w-2=strengthen'
p1825
aS'w-2=strict'
p1826
aS'w-2=stringent'
p1827
aS'w-2=study'
p1828
aS'w-2=succeed'
p1829
aS'w-2=such'
p1830
aS'w-2=suggest'
p1831
aS'w-2=support'
p1832
aS'w-2=symbolic'
p1833
aS'w-2=system'
p1834
aS'w-2=take'
p1835
aS'w-2=talk'
p1836
aS'w-2=temblor'
p1837
aS'w-2=temporary'
p1838
aS'w-2=term'
p1839
aS'w-2=test'
p1840
aS'w-2=testing'
p1841
aS'w-2=thank'
p1842
aS'w-2=that'
p1843
aS'w-2=the'
p1844
aS'w-2=then'
p1845
aS'w-2=these'
p1846
aS'w-2=they'
p1847
aS'w-2=think'
p1848
aS'w-2=those'
p1849
aS'w-2=tighten'
p1850
aS'w-2=to'
p1851
aS'w-2=tobacco'
p1852
aS'w-2=together'
p1853
aS'w-2=tough'
p1854
aS'w-2=toughen'
p1855
aS'w-2=tougher'
p1856
aS'w-2=trait'
p1857
aS'w-2=troop'
p1858
aS'w-2=try'
p1859
aS'w-2=two'
p1860
aS'w-2=under'
p1861
aS'w-2=unnecessary'
p1862
aS'w-2=unsafe'
p1863
aS'w-2=unspecified'
p1864
aS'w-2=until'
p1865
aS'w-2=up'
p1866
aS'w-2=use'
p1867
aS'w-2=verify'
p1868
aS'w-2=veto'
p1869
aS'w-2=view'
p1870
aS'w-2=vulnerability'
p1871
aS'w-2=want'
p1872
aS'w-2=war'
p1873
aS'w-2=way'
p1874
aS'w-2=we'
p1875
aS'w-2=well'
p1876
aS'w-2=what'
p1877
aS'w-2=when'
p1878
aS'w-2=where'
p1879
aS'w-2=whether'
p1880
aS'w-2=which'
p1881
aS'w-2=while'
p1882
aS'w-2=will'
p1883
aS'w-2=with'
p1884
aS'w-2=without'
p1885
aS'w-2=would'
p1886
aS'w-2=year'
p1887
aS'w-2=you'
p1888
aS'xcomp=make'
p1889
aS'xcomp=put'
p1890
aS'xcomp=take'
p1891
asS'dtype'
p1892
cnumpy
float64
p1893
sS'vocabulary_'
p1894
(dp1895
g1770
I1761
sg34
I25
sg806
I797
sg300
I291
sg119
I110
sg994
I985
sg1031
I1022
sg1528
I1519
sg1425
I1416
sg945
I936
sg1737
I1728
sg1367
I1358
sg1733
I1724
sg1332
I1323
sg681
I672
sg379
I370
sg240
I231
sg84
I75
sg1738
I1729
sg1381
I1372
sg594
I585
sg1758
I1749
sg1708
I1699
sg1650
I1641
sg1814
I1805
sg20
I11
sg678
I669
sg369
I360
sg490
I481
sg1404
I1395
sg1134
I1125
sg618
I609
sg1088
I1079
sg1662
I1653
sg1153
I1144
sg1457
I1448
sg1158
I1149
sg1531
I1522
sg1003
I994
sg1868
I1859
sg1578
I1569
sg982
I973
sg1702
I1693
sg227
I218
sg1121
I1112
sg1066
I1057
sg1879
I1870
sg463
I454
sg805
I796
sg1049
I1040
sg1128
I1119
sg778
I769
sg1815
I1806
sg1394
I1385
sg238
I229
sg779
I770
sg972
I963
sg951
I942
sg1055
I1046
sg1688
I1679
sg622
I613
sg1477
I1468
sg1334
I1325
sg239
I230
sg371
I362
sg1698
I1689
sg890
I881
sg453
I444
sg1574
I1565
sg1741
I1732
sg1173
I1164
sg1317
I1308
sg1237
I1228
sg566
I557
sg635
I626
sg1362
I1353
sg675
I666
sg1335
I1326
sg1341
I1332
sg1480
I1471
sg1111
I1102
sg589
I580
sg1790
I1781
sg1843
I1834
sg825
I816
sg1318
I1309
sg789
I780
sg588
I579
sg116
I107
sg1735
I1726
sg495
I486
sg625
I616
sg63
I54
sg1018
I1009
sg419
I410
sg1794
I1785
sg1011
I1002
sg763
I754
sg407
I398
sg1333
I1324
sg366
I357
sg1864
I1855
sg913
I904
sg365
I356
sg761
I752
sg516
I507
sg178
I169
sg840
I831
sg493
I484
sg1471
I1462
sg416
I407
sg51
I42
sg30
I21
sg1028
I1019
sg919
I910
sg1871
I1862
sg254
I245
sg705
I696
sg1157
I1148
sg1514
I1505
sg1337
I1328
sg203
I194
sg1674
I1665
sg759
I750
sg1257
I1248
sg91
I82
sg1286
I1277
sg1629
I1620
sg680
I671
sg1254
I1245
sg1802
I1793
sg1863
I1854
sg332
I323
sg1072
I1063
sg1354
I1345
sg43
I34
sg1572
I1563
sg947
I938
sg383
I374
sg1495
I1486
sg1443
I1434
sg1250
I1241
sg576
I567
sg1543
I1534
sg1819
I1810
sg889
I880
sg205
I196
sg1152
I1143
sg626
I617
sg1036
I1027
sg1510
I1501
sg600
I591
sg1350
I1341
sg522
I513
sg1714
I1705
sg309
I300
sg1172
I1163
sg1636
I1627
sg124
I115
sg372
I363
sg851
I842
sg551
I542
sg820
I811
sg1281
I1272
sg1484
I1475
sg997
I988
sg602
I593
sg1458
I1449
sg1307
I1298
sg1179
I1170
sg409
I400
sg743
I734
sg1860
I1851
sg911
I902
sg1554
I1545
sg1349
I1340
sg1681
I1672
sg596
I587
sg1282
I1273
sg301
I292
sg1380
I1371
sg937
I928
sg526
I517
sg1487
I1478
sg1402
I1393
sg711
I702
sg236
I227
sg1764
I1755
sg1252
I1243
sg1308
I1299
sg520
I511
sg944
I935
sg835
I826
sg1649
I1640
sg1070
I1061
sg1007
I998
sg455
I446
sg1098
I1089
sg791
I782
sg1655
I1646
sg1263
I1254
sg1676
I1667
sg736
I727
sg1336
I1327
sg1852
I1843
sg1155
I1146
sg812
I803
sg1460
I1451
sg803
I794
sg1712
I1703
sg537
I528
sg151
I142
sg485
I476
sg404
I395
sg191
I182
sg886
I877
sg1731
I1722
sg434
I425
sg1866
I1857
sg1849
I1840
sg247
I238
sg1818
I1809
sg726
I717
sg425
I416
sg174
I165
sg302
I293
sg54
I45
sg193
I184
sg1520
I1511
sg297
I288
sg788
I779
sg1605
I1596
sg511
I502
sg1603
I1594
sg1452
I1443
sg422
I413
sg605
I596
sg878
I869
sg1073
I1064
sg1094
I1085
sg1079
I1070
sg1420
I1411
sg1803
I1794
sg561
I552
sg1719
I1710
sg1405
I1396
sg1149
I1140
sg277
I268
sg1546
I1537
sg1056
I1047
sg155
I146
sg1355
I1346
sg1193
I1184
sg871
I862
sg1377
I1368
sg690
I681
sg328
I319
sg1123
I1114
sg1414
I1405
sg94
I85
sg1699
I1690
sg863
I854
sg391
I382
sg1793
I1784
sg355
I346
sg130
I121
sg120
I111
sg446
I437
sg476
I467
sg1884
I1875
sg884
I875
sg461
I452
sg580
I571
sg415
I406
sg1311
I1302
sg226
I217
sg1071
I1062
sg1837
I1828
sg1325
I1316
sg1499
I1490
sg968
I959
sg1659
I1650
sg1133
I1124
sg1685
I1676
sg1696
I1687
sg1167
I1158
sg1692
I1683
sg1368
I1359
sg152
I143
sg1706
I1697
sg1779
I1770
sg331
I322
sg81
I72
sg164
I155
sg628
I619
sg1187
I1178
sg1270
I1261
sg1569
I1560
sg106
I97
sg1476
I1467
sg143
I134
sg799
I790
sg438
I429
sg1483
I1474
sg1854
I1845
sg771
I762
sg1268
I1259
sg1444
I1435
sg69
I60
sg1438
I1429
sg149
I140
sg1199
I1190
sg1222
I1213
sg1677
I1668
sg1342
I1333
sg154
I145
sg978
I969
sg431
I422
sg400
I391
sg847
I838
sg869
I860
sg985
I976
sg508
I499
sg1323
I1314
sg704
I695
sg1138
I1129
sg749
I740
sg750
I741
sg755
I746
sg103
I94
sg1542
I1533
sg671
I662
sg667
I658
sg1486
I1477
sg1062
I1053
sg729
I720
sg615
I606
sg1019
I1010
sg114
I105
sg356
I347
sg550
I541
sg308
I299
sg710
I701
sg46
I37
sg1467
I1458
sg768
I759
sg1694
I1685
sg979
I970
sg557
I548
sg737
I728
sg65
I56
sg1221
I1212
sg559
I550
sg313
I304
sg1639
I1630
sg1382
I1373
sg1314
I1305
sg1861
I1852
sg701
I692
sg1130
I1121
sg1889
I1880
sg1715
I1706
sg187
I178
sg267
I258
sg266
I257
sg558
I549
sg590
I581
sg986
I977
sg529
I520
sg483
I474
sg467
I458
sg134
I125
sg448
I439
sg338
I329
sg696
I687
sg1877
I1868
sg1508
I1499
sg95
I86
sg1051
I1042
sg1711
I1702
sg1851
I1842
sg1004
I995
sg1579
I1570
sg102
I93
sg1740
I1731
sg184
I175
sg1582
I1573
sg27
I18
sg1678
I1669
sg846
I837
sg1141
I1132
sg688
I679
sg242
I233
sg326
I317
sg1234
I1225
sg553
I544
sg98
I89
sg66
I57
sg653
I644
sg450
I441
sg1030
I1021
sg471
I462
sg844
I835
sg12
I3
sg1196
I1187
sg859
I850
sg1441
I1432
sg1684
I1675
sg1463
I1454
sg1745
I1736
sg700
I691
sg218
I209
sg1024
I1015
sg1485
I1476
sg1720
I1711
sg1505
I1496
sg719
I710
sg1206
I1197
sg1703
I1694
sg767
I758
sg1668
I1659
sg245
I236
sg1880
I1871
sg581
I572
sg169
I160
sg230
I221
sg500
I491
sg1067
I1058
sg18
I9
sg547
I538
sg62
I53
sg1145
I1136
sg228
I219
sg25
I16
sg1203
I1194
sg1751
I1742
sg374
I365
sg713
I704
sg1271
I1262
sg949
I940
sg1204
I1195
sg1095
I1086
sg952
I943
sg730
I721
sg1232
I1223
sg1689
I1680
sg1888
I1879
sg1807
I1798
sg208
I199
sg441
I432
sg444
I435
sg1266
I1257
sg785
I776
sg1670
I1661
sg1151
I1142
sg1610
I1601
sg1628
I1619
sg865
I856
sg1754
I1745
sg712
I703
sg186
I177
sg1389
I1380
sg386
I377
sg1732
I1723
sg440
I431
sg612
I603
sg40
I31
sg350
I341
sg916
I907
sg1598
I1589
sg609
I600
sg147
I138
sg171
I162
sg715
I706
sg1459
I1450
sg1597
I1588
sg1875
I1866
sg782
I773
sg1069
I1060
sg11
I2
sg1312
I1303
sg1671
I1662
sg1347
I1338
sg747
I738
sg837
I828
sg1353
I1344
sg295
I286
sg1811
I1802
sg824
I815
sg1372
I1363
sg607
I598
sg1462
I1453
sg663
I654
sg925
I916
sg1060
I1051
sg1075
I1066
sg738
I729
sg1022
I1013
sg915
I906
sg1841
I1832
sg1002
I993
sg1061
I1052
sg1642
I1633
sg196
I187
sg1783
I1774
sg531
I522
sg1622
I1613
sg1615
I1606
sg1844
I1835
sg1183
I1174
sg1432
I1423
sg1078
I1069
sg15
I6
sg1829
I1820
sg1586
I1577
sg757
I748
sg899
I890
sg777
I768
sg132
I123
sg443
I434
sg1721
I1712
sg1857
I1848
sg1363
I1354
sg244
I235
sg857
I848
sg1044
I1035
sg1820
I1811
sg1053
I1044
sg1619
I1610
sg260
I251
sg872
I863
sg1479
I1470
sg1272
I1263
sg214
I205
sg525
I516
sg397
I388
sg1063
I1054
sg24
I15
sg1397
I1388
sg1359
I1350
sg1442
I1433
sg388
I379
sg1182
I1173
sg252
I243
sg38
I29
sg960
I951
sg1614
I1605
sg83
I74
sg632
I623
sg706
I697
sg1105
I1096
sg942
I933
sg907
I898
sg153
I144
sg1417
I1408
sg368
I359
sg582
I573
sg518
I509
sg344
I335
sg1435
I1426
sg231
I222
sg1763
I1754
sg1047
I1038
sg1035
I1026
sg478
I469
sg1012
I1003
sg82
I73
sg1564
I1555
sg1112
I1103
sg1492
I1483
sg37
I28
sg1159
I1150
sg1792
I1783
sg262
I253
sg1765
I1756
sg1054
I1045
sg1549
I1540
sg1174
I1165
sg1220
I1211
sg146
I137
sg1132
I1123
sg1805
I1796
sg1588
I1579
sg75
I66
sg1041
I1032
sg1653
I1644
sg194
I185
sg14
I5
sg437
I428
sg1464
I1455
sg1573
I1564
sg272
I263
sg1104
I1095
sg351
I342
sg1202
I1193
sg258
I249
sg303
I294
sg49
I40
sg1606
I1597
sg995
I986
sg1119
I1110
sg405
I396
sg357
I348
sg144
I135
sg346
I337
sg311
I302
sg375
I366
sg479
I470
sg1310
I1301
sg1839
I1830
sg1583
I1574
sg1360
I1351
sg1762
I1753
sg1469
I1460
sg1210
I1201
sg1387
I1378
sg339
I330
sg1890
I1881
sg1178
I1169
sg692
I683
sg1835
I1826
sg1129
I1120
sg902
I893
sg487
I478
sg140
I131
sg1116
I1107
sg752
I743
sg512
I503
sg255
I246
sg969
I960
sg587
I578
sg638
I629
sg287
I278
sg1099
I1090
sg278
I269
sg513
I504
sg1806
I1797
sg1812
I1803
sg1707
I1698
sg1725
I1716
sg182
I173
sg115
I106
sg1168
I1159
sg319
I310
sg1545
I1536
sg1791
I1782
sg1637
I1628
sg229
I220
sg1412
I1403
sg1488
I1479
sg1319
I1310
sg1474
I1465
sg935
I926
sg745
I736
sg269
I260
sg1559
I1550
sg1748
I1739
sg1023
I1014
sg636
I627
sg1171
I1162
sg1388
I1379
sg111
I102
sg1207
I1198
sg1643
I1634
sg891
I882
sg1148
I1139
sg917
I908
sg288
I279
sg833
I824
sg92
I83
sg834
I825
sg436
I427
sg234
I225
sg1162
I1153
sg1869
I1860
sg1235
I1226
sg1327
I1318
sg1295
I1286
sg1401
I1392
sg1575
I1566
sg1742
I1733
sg358
I349
sg1016
I1007
sg1816
I1807
sg1560
I1551
sg965
I956
sg1570
I1561
sg829
I820
sg86
I77
sg959
I950
sg352
I343
sg361
I352
sg1275
I1266
sg807
I798
sg549
I540
sg1283
I1274
sg751
I742
sg1777
I1768
sg724
I715
sg1724
I1715
sg460
I451
sg770
I761
sg480
I471
sg385
I376
sg1886
I1877
sg1621
I1612
sg1085
I1076
sg503
I494
sg1140
I1131
sg1240
I1231
sg1840
I1831
sg380
I371
sg202
I193
sg1194
I1185
sg734
I725
sg1447
I1438
sg1001
I992
sg378
I369
sg543
I534
sg1315
I1306
sg1040
I1031
sg1809
I1800
sg814
I805
sg1418
I1409
sg1008
I999
sg922
I913
sg1766
I1757
sg1589
I1580
sg619
I610
sg772
I763
sg1184
I1175
sg703
I694
sg1827
I1818
sg950
I941
sg445
I436
sg545
I536
sg860
I851
sg1600
I1591
sg1120
I1111
sg1648
I1639
sg629
I620
sg1146
I1137
sg1228
I1219
sg643
I634
sg1407
I1398
sg610
I601
sg926
I917
sg993
I984
sg474
I465
sg1576
I1567
sg381
I372
sg852
I843
sg128
I119
sg1594
I1585
sg608
I599
sg904
I895
sg268
I259
sg148
I139
sg1305
I1296
sg1822
I1813
sg348
I339
sg766
I757
sg708
I699
sg58
I49
sg928
I919
sg1631
I1622
sg1756
I1747
sg219
I210
sg687
I678
sg746
I737
sg1627
I1618
sg1451
I1442
sg330
I321
sg1604
I1595
sg1366
I1357
sg1640
I1631
sg1161
I1152
sg509
I500
sg1175
I1166
sg22
I13
sg1245
I1236
sg281
I272
sg1430
I1421
sg17
I8
sg486
I477
sg1823
I1814
sg836
I827
sg225
I216
sg393
I384
sg136
I127
sg10
I1
sg1772
I1763
sg544
I535
sg1361
I1352
sg199
I190
sg673
I664
sg774
I765
sg698
I689
sg1625
I1616
sg192
I183
sg343
I334
sg1226
I1217
sg408
I399
sg1124
I1115
sg251
I242
sg1356
I1347
sg1248
I1239
sg962
I953
sg1429
I1420
sg1247
I1238
sg1285
I1276
sg693
I684
sg739
I730
sg499
I490
sg898
I889
sg1781
I1772
sg107
I98
sg1309
I1300
sg938
I929
sg1326
I1317
sg1675
I1666
sg291
I282
sg376
I367
sg758
I749
sg894
I885
sg1623
I1614
sg802
I793
sg1710
I1701
sg801
I792
sg1433
I1424
sg52
I43
sg838
I829
sg1645
I1636
sg1422
I1413
sg392
I383
sg867
I858
sg1859
I1850
sg373
I364
sg640
I631
sg340
I331
sg1322
I1313
sg1009
I1000
sg848
I839
sg1661
I1652
sg1374
I1365
sg1728
I1719
sg1537
I1528
sg1538
I1529
sg1540
I1531
sg1534
I1525
sg881
I872
sg216
I207
sg1181
I1172
sg804
I795
sg1848
I1839
sg880
I871
sg1131
I1122
sg389
I380
sg504
I495
sg1682
I1673
sg893
I884
sg970
I961
sg1683
I1674
sg142
I133
sg1253
I1244
sg519
I510
sg1842
I1833
sg1563
I1554
sg406
I397
sg765
I756
sg310
I301
sg1850
I1841
sg1201
I1192
sg1108
I1099
sg1304
I1295
sg800
I791
sg279
I270
sg156
I147
sg613
I604
sg1718
I1709
sg1137
I1128
sg621
I612
sg325
I316
sg466
I457
sg464
I455
sg1550
I1541
sg1180
I1171
sg1601
I1592
sg185
I176
sg1613
I1604
sg413
I404
sg1804
I1795
sg817
I808
sg80
I71
sg1632
I1623
sg955
I946
sg1717
I1708
sg121
I112
sg1209
I1200
sg482
I473
sg956
I947
sg892
I883
sg574
I565
sg1186
I1177
sg1633
I1624
sg1617
I1608
sg1370
I1361
sg1658
I1649
sg1525
I1516
sg1512
I1503
sg210
I201
sg940
I931
sg1092
I1083
sg583
I574
sg9
I0
sg649
I640
sg648
I639
sg650
I641
sg1830
I1821
sg658
I649
sg657
I648
sg787
I778
sg677
I668
sg592
I583
sg481
I472
sg96
I87
sg1251
I1242
sg1400
I1391
sg473
I464
sg666
I657
sg249
I240
sg1390
I1381
sg1013
I1004
sg1376
I1367
sg1591
I1582
sg920
I911
sg1502
I1493
sg1870
I1861
sg59
I50
sg1379
I1370
sg560
I551
sg170
I161
sg56
I47
sg1416
I1407
sg918
I909
sg1097
I1088
sg541
I532
sg841
I832
sg631
I622
sg532
I523
sg598
I589
sg933
I924
sg1517
I1508
sg1838
I1829
sg201
I192
sg1231
I1222
sg569
I560
sg1424
I1415
sg1533
I1524
sg601
I592
sg957
I948
sg1557
I1548
sg337
I328
sg780
I771
sg1666
I1657
sg830
I821
sg1665
I1656
sg48
I39
sg793
I784
sg1509
I1500
sg1558
I1549
sg1306
I1297
sg1428
I1419
sg790
I781
sg1163
I1154
sg1038
I1029
sg1490
I1481
sg1481
I1472
sg410
I401
sg329
I320
sg975
I966
sg1200
I1191
sg28
I19
sg112
I103
sg1386
I1377
sg1584
I1575
sg160
I151
sg1113
I1104
sg1050
I1041
sg235
I226
sg161
I152
sg1297
I1288
sg1831
I1822
sg831
I822
sg1259
I1250
sg243
I234
sg488
I479
sg507
I498
sg1096
I1087
sg1059
I1050
sg424
I415
sg646
I637
sg1219
I1210
sg611
I602
sg1227
I1218
sg887
I878
sg775
I766
sg776
I767
sg197
I188
sg1664
I1655
sg826
I817
sg888
I879
sg118
I109
sg575
I566
sg1217
I1208
sg1261
I1252
sg1057
I1048
sg433
I424
sg1489
I1480
sg1025
I1016
sg1276
I1267
sg740
I731
sg910
I901
sg1828
I1819
sg655
I646
sg664
I655
sg656
I647
sg275
I266
sg527
I518
sg127
I118
sg1103
I1094
sg670
I661
sg1385
I1376
sg823
I814
sg515
I506
sg384
I375
sg1672
I1663
sg1269
I1260
sg305
I296
sg821
I812
sg1375
I1366
sg1825
I1816
sg764
I755
sg1503
I1494
sg1687
I1678
sg90
I81
sg1083
I1074
sg412
I403
sg1679
I1670
sg1118
I1109
sg1406
I1397
sg1014
I1005
sg274
I265
sg866
I857
sg1768
I1759
sg1034
I1025
sg989
I980
sg1592
I1583
sg304
I295
sg1891
I1882
sg1797
I1788
sg1704
I1695
sg1185
I1176
sg345
I336
sg1744
I1735
sg150
I141
sg1736
I1727
sg536
I527
sg414
I405
sg1446
I1437
sg1739
I1730
sg209
I200
sg1749
I1740
sg1800
I1791
sg1346
I1337
sg930
I921
sg1208
I1199
sg1144
I1135
sg954
I945
sg1785
I1776
sg912
I903
sg1461
I1452
sg948
I939
sg264
I255
sg599
I590
sg682
I673
sg1581
I1572
sg683
I674
sg354
I345
sg465
I456
sg1415
I1406
sg694
I685
sg289
I280
sg468
I459
sg1302
I1293
sg722
I713
sg1115
I1106
sg458
I449
sg222
I213
sg1507
I1498
sg67
I58
sg42
I33
sg306
I297
sg1125
I1116
sg1832
I1823
sg980
I971
sg1813
I1804
sg1532
I1523
sg843
I834
sg1652
I1643
sg953
I944
sg469
I460
sg494
I485
sg442
I433
sg223
I214
sg1241
I1232
sg1176
I1167
sg1612
I1603
sg1344
I1335
sg491
I482
sg905
I896
sg1255
I1246
sg773
I764
sg1651
I1642
sg1324
I1315
sg1729
I1720
sg1585
I1576
sg652
I643
sg1021
I1012
sg756
I747
sg699
I690
sg1239
I1230
sg1264
I1255
sg1646
I1637
sg1000
I991
sg1776
I1767
sg1195
I1186
sg233
I224
sg552
I543
sg795
I786
sg1535
I1526
sg496
I487
sg1524
I1515
sg47
I38
sg1236
I1227
sg285
I276
sg122
I113
sg1343
I1334
sg1064
I1055
sg521
I512
sg586
I577
sg1320
I1311
sg983
I974
sg13
I4
sg1521
I1512
sg432
I423
sg61
I52
sg402
I393
sg1536
I1527
sg1723
I1714
sg1102
I1093
sg506
I497
sg190
I181
sg1498
I1489
sg623
I614
sg748
I739
sg1782
I1773
sg686
I677
sg423
I414
sg462
I453
sg1291
I1282
sg695
I686
sg1076
I1067
sg189
I180
sg172
I163
sg1150
I1141
sg1006
I997
sg1494
I1485
sg362
I353
sg1881
I1872
sg29
I20
sg1265
I1256
sg395
I386
sg99
I90
sg1722
I1713
sg1775
I1766
sg1757
I1748
sg220
I211
sg1686
I1677
sg1548
I1539
sg259
I250
sg1755
I1746
sg850
I841
sg1855
I1846
sg584
I575
sg585
I576
sg76
I67
sg1856
I1847
sg992
I983
sg1284
I1275
sg991
I982
sg1212
I1203
sg1786
I1777
sg1551
I1542
sg707
I698
sg270
I261
sg341
I332
sg183
I174
sg459
I450
sg181
I172
sg958
I949
sg1170
I1161
sg1109
I1100
sg320
I311
sg72
I63
sg1780
I1771
sg1862
I1853
sg723
I714
sg60
I51
sg1504
I1495
sg727
I718
sg224
I215
sg1789
I1780
sg1358
I1349
sg691
I682
sg685
I676
sg1522
I1513
sg1833
I1824
sg1873
I1864
sg286
I277
sg1515
I1506
sg324
I315
sg996
I987
sg1567
I1558
sg1874
I1865
sg845
I836
sg271
I262
sg292
I283
sg606
I597
sg744
I735
sg1667
I1658
sg165
I156
sg1801
I1792
sg45
I36
sg200
I191
sg753
I744
sg819
I810
sg316
I307
sg842
I833
sg215
I206
sg1391
I1382
sg577
I568
sg813
I804
sg967
I958
sg1599
I1590
sg603
I594
sg1697
I1688
sg762
I753
sg786
I777
sg1846
I1837
sg283
I274
sg874
I865
sg1052
I1043
sg403
I394
sg265
I256
sg578
I569
sg1211
I1202
sg1769
I1760
sg1596
I1587
sg579
I570
sg1383
I1374
sg125
I116
sg1039
I1030
sg470
I461
sg1164
I1155
sg999
I990
sg1082
I1073
sg282
I273
sg421
I412
sg109
I100
sg439
I430
sg939
I930
sg263
I254
sg1836
I1827
sg849
I840
sg449
I440
sg1427
I1418
sg1188
I1179
sg914
I905
sg307
I298
sg1669
I1660
sg353
I344
sg1834
I1825
sg1409
I1400
sg317
I308
sg364
I355
sg1726
I1717
sg1411
I1402
sg135
I126
sg998
I989
sg1680
I1671
sg1824
I1815
sg1126
I1117
sg1084
I1075
sg1760
I1751
sg614
I605
sg535
I526
sg1331
I1322
sg1340
I1331
sg318
I309
sg818
I809
sg162
I153
sg276
I267
sg634
I625
sg1883
I1874
sg971
I962
sg593
I584
sg129
I120
sg923
I914
sg68
I59
sg565
I556
sg1734
I1725
sg1882
I1873
sg100
I91
sg697
I688
sg1587
I1578
sg1644
I1635
sg1122
I1113
sg430
I421
sg562
I553
sg108
I99
sg714
I705
sg1746
I1737
sg360
I351
sg1865
I1856
sg294
I285
sg1529
I1520
sg420
I411
sg828
I819
sg327
I318
sg718
I709
sg524
I515
sg1693
I1684
sg1191
I1182
sg1058
I1049
sg641
I632
sg1421
I1412
sg984
I975
sg1641
I1632
sg1292
I1283
sg1010
I1001
sg617
I608
sg1020
I1011
sg505
I496
sg1100
I1091
sg1029
I1020
sg55
I46
sg1455
I1446
sg1357
I1348
sg19
I10
sg1117
I1108
sg113
I104
sg987
I978
sg85
I76
sg1695
I1686
sg212
I203
sg1142
I1133
sg1626
I1617
sg973
I964
sg1046
I1037
sg1352
I1343
sg472
I463
sg1660
I1651
sg808
I799
sg897
I888
sg794
I785
sg943
I934
sg1691
I1682
sg1169
I1160
sg492
I483
sg963
I954
sg1408
I1399
sg104
I95
sg79
I70
sg1634
I1625
sg1279
I1270
sg213
I204
sg396
I387
sg1771
I1762
sg133
I124
sg1017
I1008
sg728
I719
sg57
I48
sg877
I868
sg1143
I1134
sg1657
I1648
sg1566
I1557
sg1795
I1786
sg1216
I1207
sg1845
I1836
sg875
I866
sg1847
I1838
sg571
I562
sg839
I830
sg570
I561
sg1624
I1615
sg542
I533
sg1565
I1556
sg809
I800
sg333
I324
sg1562
I1553
sg528
I519
sg426
I417
sg1523
I1514
sg572
I563
sg1267
I1258
sg732
I723
sg1470
I1461
sg1618
I1609
sg1301
I1292
sg1630
I1621
sg1294
I1285
sg70
I61
sg1224
I1215
sg1077
I1068
sg177
I168
sg64
I55
sg1796
I1787
sg717
I708
sg720
I711
sg1518
I1509
sg661
I652
sg1773
I1764
sg1296
I1287
sg900
I891
sg1885
I1876
sg882
I873
sg105
I96
sg827
I818
sg1135
I1126
sg497
I488
sg1541
I1532
sg427
I418
sg1663
I1654
sg207
I198
sg1225
I1216
sg253
I244
sg78
I69
sg1330
I1321
sg139
I130
sg166
I157
sg342
I333
sg1530
I1521
sg1215
I1206
sg398
I389
sg1439
I1430
sg159
I150
sg1032
I1023
sg672
I663
sg1616
I1607
sg429
I420
sg1413
I1404
sg946
I937
sg484
I475
sg1395
I1386
sg936
I927
sg533
I524
sg1258
I1249
sg163
I154
sg1114
I1105
sg158
I149
sg501
I492
sg44
I35
sg1526
I1517
sg221
I212
sg597
I588
sg359
I350
sg1398
I1389
sg1042
I1033
sg1544
I1535
sg1293
I1284
sg334
I325
sg145
I136
sg961
I952
sg1690
I1681
sg676
I667
sg1450
I1441
sg1767
I1758
sg39
I30
sg1086
I1077
sg1491
I1482
sg1348
I1339
sg250
I241
sg733
I724
sg639
I630
sg1501
I1492
sg41
I32
sg1620
I1611
sg157
I148
sg1519
I1510
sg1876
I1867
sg1214
I1205
sg1298
I1289
sg1778
I1769
sg31
I22
sg1329
I1320
sg931
I922
sg1392
I1383
sg564
I555
sg781
I772
sg1673
I1664
sg256
I247
sg1713
I1704
sg1716
I1707
sg742
I733
sg335
I326
sg1384
I1375
sg417
I408
sg1867
I1858
sg870
I861
sg188
I179
sg1005
I996
sg1048
I1039
sg53
I44
sg796
I787
sg1364
I1355
sg555
I546
sg534
I525
sg1475
I1466
sg1074
I1065
sg298
I289
sg885
I876
sg637
I628
sg1026
I1017
sg1759
I1750
sg660
I651
sg1743
I1734
sg1299
I1290
sg21
I12
sg1513
I1504
sg1454
I1445
sg906
I897
sg538
I529
sg735
I726
sg204
I195
sg1136
I1127
sg1371
I1362
sg1468
I1459
sg1300
I1291
sg1197
I1188
sg1419
I1410
sg498
I489
sg314
I305
sg633
I624
sg137
I128
sg1784
I1775
sg573
I564
sg290
I281
sg1853
I1844
sg864
I855
sg173
I164
sg929
I920
sg797
I788
sg1561
I1552
sg284
I275
sg1045
I1036
sg315
I306
sg624
I615
sg1568
I1559
sg876
I867
sg336
I327
sg725
I716
sg974
I965
sg1516
I1507
sg1262
I1253
sg101
I92
sg1230
I1221
sg1577
I1568
sg1482
I1473
sg630
I621
sg1810
I1801
sg456
I447
sg977
I968
sg1826
I1817
sg167
I158
sg964
I955
sg477
I468
sg1345
I1336
sg981
I972
sg1110
I1101
sg1091
I1082
sg1154
I1145
sg323
I314
sg126
I117
sg26
I17
sg1229
I1220
sg180
I171
sg1602
I1593
sg1539
I1530
sg1500
I1491
sg1887
I1878
sg1747
I1738
sg1043
I1034
sg89
I80
sg798
I789
sg909
I900
sg908
I899
sg1127
I1118
sg927
I918
sg110
I101
sg1093
I1084
sg554
I545
sg175
I166
sg418
I409
sg1087
I1078
sg1089
I1080
sg73
I64
sg934
I925
sg1160
I1151
sg1278
I1269
sg77
I68
sg815
I806
sg1858
I1849
sg1037
I1028
sg1101
I1092
sg1166
I1157
sg1436
I1427
sg246
I237
sg475
I466
sg349
I340
sg1107
I1098
sg654
I645
sg1015
I1006
sg377
I368
sg1065
I1056
sg1027
I1018
sg1321
I1312
sg36
I27
sg87
I78
sg296
I287
sg141
I132
sg1465
I1456
sg783
I774
sg539
I530
sg1700
I1691
sg312
I303
sg293
I284
sg321
I312
sg1701
I1692
sg1448
I1439
sg1553
I1544
sg530
I521
sg237
I228
sg16
I7
sg93
I84
sg1478
I1469
sg176
I167
sg435
I426
sg322
I313
sg591
I582
sg792
I783
sg1165
I1156
sg97
I88
sg1774
I1765
sg1449
I1440
sg873
I864
sg195
I186
sg367
I358
sg879
I870
sg924
I915
sg1290
I1281
sg457
I448
sg1147
I1138
sg1106
I1097
sg1705
I1696
sg198
I189
sg1431
I1422
sg1373
I1364
sg810
I801
sg1198
I1189
sg117
I108
sg941
I932
sg1445
I1436
sg903
I894
sg1223
I1214
sg1033
I1024
sg709
I700
sg563
I554
sg514
I505
sg811
I802
sg651
I642
sg853
I844
sg1506
I1497
sg211
I202
sg548
I539
sg1647
I1638
sg1139
I1130
sg731
I722
sg179
I170
sg741
I732
sg832
I823
sg1080
I1071
sg1423
I1414
sg510
I501
sg1817
I1808
sg674
I665
sg627
I618
sg854
I845
sg1878
I1869
sg257
I248
sg1472
I1463
sg451
I442
sg1656
I1647
sg1365
I1356
sg1068
I1059
sg1473
I1464
sg1654
I1645
sg74
I65
sg299
I290
sg1750
I1741
sg1274
I1265
sg862
I853
sg754
I745
sg394
I385
sg399
I390
sg1496
I1487
sg1497
I1488
sg669
I660
sg861
I852
sg604
I595
sg1351
I1342
sg1456
I1447
sg1808
I1799
sg684
I675
sg217
I208
sg1761
I1752
sg966
I957
sg1218
I1209
sg1437
I1428
sg502
I493
sg489
I480
sg647
I638
sg1590
I1581
sg616
I607
sg1403
I1394
sg1303
I1294
sg280
I271
sg347
I338
sg1608
I1599
sg645
I636
sg1753
I1744
sg454
I445
sg447
I438
sg1338
I1329
sg1571
I1562
sg858
I849
sg232
I223
sg1872
I1863
sg387
I378
sg1410
I1401
sg1426
I1417
sg1556
I1547
sg1611
I1602
sg1595
I1586
sg921
I912
sg644
I635
sg1730
I1721
sg517
I508
sg1090
I1081
sg1289
I1280
sg784
I775
sg35
I26
sg23
I14
sg273
I264
sg1788
I1779
sg1328
I1319
sg1799
I1790
sg665
I656
sg1399
I1390
sg990
I981
sg248
I239
sg595
I586
sg206
I197
sg1798
I1789
sg1189
I1180
sg568
I559
sg1434
I1425
sg567
I558
sg138
I129
sg1081
I1072
sg1339
I1330
sg1607
I1598
sg1238
I1229
sg988
I979
sg1580
I1571
sg620
I611
sg1244
I1235
sg1242
I1233
sg1316
I1307
sg1555
I1546
sg721
I712
sg1280
I1271
sg868
I859
sg1256
I1247
sg168
I159
sg401
I392
sg1593
I1584
sg883
I874
sg1177
I1168
sg1260
I1251
sg1213
I1204
sg1440
I1431
sg1547
I1538
sg689
I680
sg363
I354
sg1233
I1224
sg390
I381
sg1552
I1543
sg411
I402
sg716
I707
sg1821
I1812
sg241
I232
sg1243
I1234
sg382
I373
sg668
I659
sg1453
I1444
sg71
I62
sg659
I650
sg1273
I1264
sg1192
I1183
sg662
I653
sg769
I760
sg976
I967
sg1190
I1181
sg50
I41
sg123
I114
sg556
I547
sg1156
I1147
sg1609
I1600
sg1205
I1196
sg1727
I1718
sg131
I122
sg760
I751
sg523
I514
sg1787
I1778
sg1313
I1304
sg370
I361
sg1378
I1369
sg261
I252
sg32
I23
sg679
I670
sg1638
I1629
sg428
I419
sg932
I923
sg1493
I1484
sg901
I892
sg1246
I1237
sg1709
I1700
sg702
I693
sg822
I813
sg1511
I1502
sg1635
I1626
sg546
I537
sg33
I24
sg816
I807
sg855
I846
sg856
I847
sg1752
I1743
sg88
I79
sg1466
I1457
sg1277
I1268
sg895
I886
sg1249
I1240
sg540
I531
sg1527
I1518
sg1393
I1384
sg1288
I1279
sg1287
I1278
sg642
I633
sg452
I443
sg1396
I1387
sg1369
I1360
sg896
I887
ssS'separator'
p1896
S'='
sS'sparse'
p1897
I01
sb.