ccopy_reg
_reconstructor
p1
(csklearn.feature_extraction.dict_vectorizer
DictVectorizer
p2
c__builtin__
object
p3
NtRp4
(dp5
S'vocabulary_'
p6
(dp7
S'prep=before'
p8
I92
sS'nsubj=crew'
p9
I77
sS'w-2=Timmy'
p10
I280
sS'w-1=:'
p11
I223
sS'w-2=stage'
p12
I340
sS'w-2=night'
p13
I328
sS'w-2=we'
p14
I353
sS'w+1=outside'
p15
I145
sS'w+2=during'
p16
I182
sS'w+2=my'
p17
I196
sS'nsubj=child'
p18
I76
sS'advmod=well'
p19
I22
sS'w-1=fight'
p20
I242
sS'w+1=around'
p21
I117
sS'advmod=deeply'
p22
I7
sS'w+1=beauty'
p23
I120
sS'w-1=.'
p24
I222
sS'w-1=rarely'
p25
I260
sS'prep=by'
p26
I94
sS'w-1=african'
p27
I229
sS'prep=in'
p28
I98
sS'w-2=food'
p29
I310
sS'w-1=can'
p30
I235
sS'w+2=wrap'
p31
I216
sS'ccomp=linger'
p32
I40
sS'w+2=affect'
p33
I168
sS'advmod=soundly'
p34
I20
sS'advmod=just'
p35
I13
sS'w-2=winter'
p36
I356
sS'w-1=will'
p37
I274
sS'w-2=I'
p38
I278
sS'w+2=night'
p39
I197
sS'w-1=by'
p40
I234
sS'w-1=be'
p41
I231
sS'w+1=soundly'
p42
I149
sS'w-2=the'
p43
I344
sS'w-2=where'
p44
I354
sS'w-2=mother'
p45
I327
sS'nsubj=#PRP#'
p46
I72
sS'w-2=risk'
p47
I337
sS'w+1=just'
p48
I134
sS'dep=nowhere'
p49
I51
sS'w+2=to'
p50
I212
sS'w+1=on'
p51
I142
sS'w-2=decide'
p52
I305
sS'w+1=or'
p53
I143
sS'w-2=home'
p54
I317
sS'amod=better'
p55
I25
sS'dobj=beauty'
p56
I57
sS'w-1=have'
p57
I248
sS'w+2=in'
p58
I189
sS'w+2=soundly'
p59
I204
sS'w-1=could'
p60
I238
sS'aux=can'
p61
I30
sS'complm=that'
p62
I41
sS'mark=so'
p63
I66
sS'w-2=boy'
p64
I294
sS'dep=on'
p65
I52
sS'w+1=now'
p66
I141
sS'advcl=be'
p67
I1
sS'w-2=that'
p68
I343
sS'w+1=the'
p69
I151
sS'w+2=-rrb-'
p70
I163
sS'w+1=most'
p71
I138
sS'w+2=be'
p72
I172
sS'w+1=beside'
p73
I122
sS'w-1=deep'
p74
I239
sS'w+1=problem'
p75
I147
sS'w+1=for'
p76
I128
sS'w-2=cover'
p77
I301
sS'w-1=gentle'
p78
I246
sS'amod=gentle'
p79
I27
sS'prep=to'
p80
I100
sS'nsubj=Iskandar'
p81
I74
sS'w+1=and'
p82
I114
sS'dobj=work'
p83
I64
sS'dobj=more'
p84
I60
sS'w-2=baby'
p85
I288
sS'w-2=about'
p86
I283
sS'nsubj=that'
p87
I82
sS'w-1=such'
p88
I265
sS'advmod=here'
p89
I12
sS'w-2=unable'
p90
I351
sS'w-2=here'
p91
I316
sS'w-1=in'
p92
I250
sS'w+2=we'
p93
I214
sS'w-2=treatment'
p94
I348
sS'tmod=evening'
p95
I105
sS'w-1=the'
p96
I266
sS'advmod=rarely'
p97
I19
sS'advmod=where'
p98
I24
sS'w+2=nowhere'
p99
I198
sS'w-2=they'
p100
I345
sS'w+2=previous'
p101
I201
sS'w+2=bunk'
p102
I175
sS'w-1=many'
p103
I253
sS'w+2=evening'
p104
I183
sS'w-2=Nile'
p105
I279
sS'conj=food'
p106
I44
sS'w-1=-lrb-'
p107
I221
sS'advmod=gettinga'
p108
I10
sS'w-2=shuttle'
p109
I338
sS'w-2=use'
p110
I352
sS'w+1=pill'
p111
I146
sS'w-2=age'
p112
I284
sS'nsubj=who'
p113
I84
sS'w-2=of'
p114
I331
sS'w+2=insecticide-treated'
p115
I190
sS'w-1=to'
p116
I268
sS'w-2=eat'
p117
I308
sS'advcl=stand'
p118
I3
sS'w-1=two'
p119
I271
sS'w-2=trypanosomiasis'
p120
I349
sS'w-2=do'
p121
I306
sS'acomp=better'
p122
I0
sS'conj=concentrate'
p123
I42
sS'w-2=back'
p124
I289
sS'poss=night'
p125
I89
sS'nsubj=soldier'
p126
I81
sS'nn=age'
p127
I70
sS'conj=sleep'
p128
I46
sS'w+2=can'
p129
I176
sS'w+1=at'
p130
I118
sS'w+2=so'
p131
I203
sS'prt=out'
p132
I104
sS'w-1=find'
p133
I243
sS'w-2=bed'
p134
I291
sS'det=some'
p135
I55
sS'w-1=with'
p136
I275
sS'w+2=three'
p137
I211
sS'w+1=where'
p138
I157
sS'advmod=easily'
p139
I8
sS'advmod=when'
p140
I23
sS'w-1=hardly'
p141
I247
sS'prep=for'
p142
I97
sS'advmod=along'
p143
I4
sS'w-2=blanket'
p144
I293
sS'w+1=we'
p145
I155
sS'w-2=target'
p146
I342
sS'w+1=Friday'
p147
I110
sS'w+2=at'
p148
I170
sS'prep=despite'
p149
I95
sS'w+2=.'
p150
I164
sS"w-1='s"
p151
I218
sS'poss=baby'
p152
I87
sS'dobj=deprivation'
p153
I58
sS'w-2=tuberculosis'
p154
I350
sS'advmod=freely'
p155
I9
sS'w+1=next'
p156
I140
sS'nsubj=baby'
p157
I75
sS'w+1=there'
p158
I152
sS'nsubj=#NUMBER#'
p159
I71
sS'conj=mood'
p160
I45
sS'w-2=camp'
p161
I296
sS'w+1=under'
p162
I154
sS'w+2=with'
p163
I215
sS'w+2=medical'
p164
I194
sS'conj=so'
p165
I47
sS'w+1=much'
p166
I139
sS'poss=boy'
p167
I88
sS"w-1=''"
p168
I217
sS'dobj=pill'
p169
I62
sS'w-2=nowhere'
p170
I330
sS'tmod=night'
p171
I106
sS'w-2=place'
p172
I334
sS'dep=with'
p173
I53
sS'w-2=permit'
p174
I333
sS'w-2=White'
p175
I281
sS'w+1=to'
p176
I153
sS'w+1=deprivation'
p177
I124
sS'w+2=food'
p178
I186
sS'w-1=and'
p179
I230
sS'w-1=Iskandar'
p180
I226
sS'w+2=stay'
p181
I205
sS'prep=without'
p182
I103
sS'w+2=five'
p183
I185
sS'w+1=freely'
p184
I129
sS'w-2=death'
p185
I304
sS'w-1=she'
p186
I261
sS'w-1=never'
p187
I254
sS'w+2=bed'
p188
I173
sS'w+2=mat'
p189
I192
sS'advmod=next'
p190
I15
sS'w+2=may'
p191
I193
sS'w+2=better'
p192
I174
sS'w-2=go'
p193
I313
sS'w+1=because'
p194
I121
sS'w+2=people'
p195
I200
sS'w+2=this'
p196
I210
sS'w+2=thin'
p197
I209
sS'amod=little'
p198
I28
sS'w-2=child'
p199
I298
sS'advmod=there'
p200
I21
sS'dobj=outside'
p201
I61
sS'w-1=disrupt'
p202
I241
sS'mark=while'
p203
I67
sS'w+2=diet'
p204
I180
sS'aux=do'
p205
I32
sS'w-2=with'
p206
I357
sS'aux=will'
p207
I35
sS'nsubj=people'
p208
I80
sS'prep=with'
p209
I102
sS'cc=or'
p210
I38
sS'w+2=bank'
p211
I171
sS'w-1=trader'
p212
I269
sS'w+1=well'
p213
I156
sS'w-1=prescription'
p214
I259
sS'w+2=its'
p215
I191
sS'w+2=receive'
p216
I202
sS'w+1=area'
p217
I116
sS'w-2=in'
p218
I318
sS'w+2=dream'
p219
I181
sS'w-2=day'
p220
I303
sS'w-2=it'
p221
I320
sS'w-2=regret'
p222
I336
sS'advmod=hardly'
p223
I11
sS'w-1=soldier'
p224
I262
sS'prep=beside'
p225
I93
sS'w-2=prepared'
p226
I335
sS'num=#NUMBER#'
p227
I85
sS'w-2=mile'
p228
I326
sS'w-1=five'
p229
I244
sS'nsubj=Deena'
p230
I73
sS"w+2=''"
p231
I159
sS'w+1=after'
p232
I112
sS'xcomp=receive'
p233
I359
sS'w+1=baby'
p234
I119
sS'conj=die'
p235
I43
sS'w+1=increase'
p236
I133
sS'conj=work'
p237
I49
sS'nsubj=trader'
p238
I83
sS'w+1=mat'
p239
I136
sS'cc=and'
p240
I36
sS'prep=under'
p241
I101
sS'w-2=antibiotic'
p242
I286
sS'w-1=just'
p243
I251
sS'w-1=week'
p244
I272
sS'w+1=here'
p245
I131
sS'w-1=people'
p246
I258
sS'w+1=in'
p247
I132
sS'w-1=trouble'
p248
I270
sS'w+1=health'
p249
I130
sS'w-2=medicine'
p250
I325
sS'w+2=family'
p251
I184
sS'cc=but'
p252
I37
sS'poss=#PRP#'
p253
I86
sS'w+1=apnea'
p254
I115
sS'aux=could'
p255
I31
sS'dobj=family'
p256
I59
sS'w+1=along'
p257
I113
sS'w-2=begin'
p258
I292
sS'advmod=back'
p259
I6
sS'w-1=some'
p260
I263
sS'w-2=like'
p261
I323
sS'w-2=kid'
p262
I321
sS'w-1=difficulty'
p263
I240
sS'w-2=be'
p264
I290
sS'w+2=try'
p265
I213
sS'prep=on'
p266
I99
sS'nsubj=man'
p267
I79
sS'w-2=could'
p268
I300
sS'advcl=cheat'
p269
I2
sS'w-1=soundly'
p270
I264
sS'w-2=can'
p271
I297
sS'w-1=who'
p272
I273
sS'w-2=get'
p273
I312
sS'w-1=child'
p274
I237
sS'w-1=of'
p275
I257
sS'w-2=to'
p276
I347
sS'w+2=and'
p277
I169
sS'w-2=and'
p278
I285
sS'w+2=--'
p279
I162
sS'cop=be'
p280
I50
sS'w-2=he'
p281
I315
sS'w-1=adult'
p282
I228
sS'w+1=more'
p283
I137
sS'w+1=disorder'
p284
I125
sS'w+2=coordinator'
p285
I179
sS'advmod=now'
p286
I16
sS'advmod=outside'
p287
I18
sS'w+2=the'
p288
I207
sS'prep=at'
p289
I91
sS'ccomp=cause'
p290
I39
sS'advmod=around'
p291
I5
sS'w-2=fly'
p292
I309
sS'w+1=stage'
p293
I150
sS'w+2=concentrate'
p294
I178
sS'w-2=.'
p295
I277
sS'w+2=he'
p296
I188
sS'aux=have'
p297
I33
sS'w-2=but'
p298
I295
sS'w-2=think'
p299
I346
sS'amod=deep'
p300
I26
sS'w+2=15'
p301
I165
sS'w-1=-'
p302
I220
sS'w-1=,'
p303
I219
sS'w-2=not'
p304
I329
sS'w-2=while'
p305
I355
sS'w+1=out'
p306
I144
sS'w+2=parasite'
p307
I199
sS'conj=survive'
p308
I48
sS'w-2=as'
p309
I287
sS'w-2=man'
p310
I324
sS'w+1=easily'
p311
I127
sS'w-2=subject'
p312
I341
sS'w-1=I'
p313
I225
sS'w-2=infected'
p314
I319
sS'w+2=192'
p315
I166
sS'w-2=a'
p316
I282
sS'w-1=they'
p317
I267
sS'det=a'
p318
I54
sS'w-1=a'
p319
I227
sS'dobj=sickness'
p320
I63
sS'w-2=so'
p321
I339
sS'mark=as'
p322
I65
sS'w-1=he'
p323
I249
sS'w+1=each'
p324
I126
sS'w-1=little'
p325
I252
sS'neg=never'
p326
I68
sS'w-1=obstructive'
p327
I256
sS'w-2=overdose'
p328
I332
sS'w+2=they'
p329
I208
sS'prep=after'
p330
I90
sS'w+1=center'
p331
I123
sS'w+2=have'
p332
I187
sS'w+1=with'
p333
I158
sS'w-2=during'
p334
I307
sS'w-2=constantly'
p335
I299
sS'nsubj=dozen'
p336
I78
sS'w-1=cause'
p337
I236
sS'w+2=suggest'
p338
I206
sS'w-2=have'
p339
I314
sS'w-1=Deena'
p340
I224
sS'w-2=lack'
p341
I322
sS'w-1=body'
p342
I232
sS'advmod=out'
p343
I17
sS'advmod=nearby'
p344
I14
sS'w-1=boy'
p345
I233
sS'aux=to'
p346
I34
sS'w-2=you'
p347
I358
sS'dobj=baby'
p348
I56
sS'w+1=sickness'
p349
I148
sS'w+1=laboratory'
p350
I135
sS'w-1=for'
p351
I245
sS'w+1=,'
p352
I107
sS'w+1=.'
p353
I108
sS'w+2=most'
p354
I195
sS'w+2=,'
p355
I160
sS'w+2=-'
p356
I161
sS'w-2=crew'
p357
I302
sS'neg=not'
p358
I69
sS'w+1=?'
p359
I109
sS'w-2=,'
p360
I276
sS'prep=during'
p361
I96
sS'w+2=center'
p362
I177
sS'w+1=a'
p363
I111
sS'w-1=not'
p364
I255
sS'w-2=force'
p365
I311
sS'aux=be'
p366
I29
sS'w+2=a'
p367
I167
ssS'dtype'
p368
cnumpy
float64
p369
sS'feature_names_'
p370
(lp371
g122
ag67
ag269
ag118
ag143
ag291
ag259
ag22
ag139
ag155
ag108
ag223
ag89
ag35
ag344
ag190
ag286
ag343
ag287
ag97
ag34
ag200
ag19
ag140
ag98
ag55
ag300
ag79
ag198
ag366
ag61
ag255
ag205
ag297
ag346
ag207
ag240
ag252
ag210
ag290
ag32
ag62
ag123
ag235
ag106
ag160
ag128
ag165
ag308
ag237
ag280
ag49
ag65
ag173
ag318
ag135
ag348
ag56
ag153
ag256
ag84
ag201
ag169
ag320
ag83
ag322
ag63
ag203
ag326
ag358
ag127
ag159
ag46
ag230
ag81
ag157
ag18
ag9
ag336
ag267
ag208
ag126
ag87
ag238
ag113
ag227
ag253
ag152
ag167
ag125
ag330
ag289
ag8
ag225
ag26
ag149
ag361
ag142
ag28
ag266
ag80
ag241
ag209
ag182
ag132
ag95
ag171
ag352
ag353
ag359
ag147
ag363
ag232
ag257
ag82
ag254
ag217
ag21
ag130
ag234
ag23
ag194
ag73
ag331
ag177
ag284
ag324
ag311
ag76
ag184
ag249
ag245
ag247
ag236
ag48
ag350
ag239
ag283
ag71
ag166
ag156
ag66
ag51
ag53
ag306
ag15
ag111
ag75
ag349
ag42
ag293
ag69
ag158
ag176
ag162
ag145
ag213
ag138
ag333
ag231
ag355
ag356
ag279
ag70
ag150
ag301
ag315
ag367
ag33
ag277
ag148
ag211
ag72
ag188
ag192
ag102
ag129
ag362
ag294
ag285
ag204
ag219
ag16
ag104
ag251
ag183
ag178
ag332
ag296
ag58
ag115
ag215
ag189
ag191
ag164
ag354
ag17
ag39
ag99
ag307
ag195
ag101
ag216
ag131
ag59
ag181
ag338
ag288
ag329
ag197
ag196
ag137
ag50
ag265
ag93
ag163
ag31
ag168
ag151
ag303
ag302
ag107
ag24
ag11
ag340
ag313
ag180
ag319
ag282
ag27
ag179
ag41
ag342
ag345
ag40
ag30
ag337
ag274
ag60
ag74
ag263
ag202
ag20
ag133
ag229
ag351
ag78
ag141
ag57
ag323
ag92
ag243
ag325
ag103
ag187
ag364
ag327
ag275
ag246
ag214
ag25
ag186
ag224
ag260
ag270
ag88
ag96
ag317
ag116
ag212
ag248
ag119
ag244
ag272
ag37
ag136
ag360
ag295
ag38
ag105
ag10
ag175
ag316
ag86
ag112
ag278
ag242
ag309
ag85
ag124
ag264
ag134
ag258
ag144
ag64
ag298
ag161
ag271
ag199
ag335
ag268
ag77
ag357
ag220
ag185
ag52
ag121
ag334
ag117
ag292
ag29
ag365
ag273
ag193
ag339
ag281
ag91
ag54
ag218
ag314
ag221
ag262
ag341
ag261
ag310
ag250
ag228
ag45
ag13
ag304
ag170
ag114
ag328
ag174
ag172
ag226
ag222
ag47
ag109
ag321
ag12
ag312
ag146
ag68
ag43
ag100
ag299
ag276
ag94
ag120
ag154
ag90
ag110
ag14
ag44
ag305
ag36
ag206
ag347
ag233
asS'separator'
p372
S'='
sS'sparse'
p373
I01
sb.