ccopy_reg
_reconstructor
p1
(csklearn.feature_extraction.dict_vectorizer
DictVectorizer
p2
c__builtin__
object
p3
NtRp4
(dp5
S'vocabulary_'
p6
(dp7
S'dobj=law'
p8
I136
sS'dobj=element'
p9
I122
sS'nsubj=Assembly'
p10
I205
sS'dep=not'
p11
I83
sS'prep=before'
p12
I285
sS'w-1=regularly'
p13
I560
sS'w-2=administration'
p14
I606
sS'advmod=increasingly'
p15
I14
sS'w+2=powerful'
p16
I476
sS'advmod=generally'
p17
I11
sS'w+2=during'
p18
I424
sS'nsubj=Gbagbo'
p19
I209
sS'advmod=virtually'
p20
I28
sS'nsubj=Horton'
p21
I210
sS"w+2='s"
p22
I388
sS'w-1=country'
p23
I531
sS'w+2=suppress'
p24
I502
sS'w+2=very'
p25
I510
sS'w+2=responsibility'
p26
I487
sS'w-2=police'
p27
I664
sS'w-2=suburb'
p28
I676
sS'ccomp=term'
p29
I54
sS'w-1=India'
p30
I519
sS'w+1=evidence'
p31
I341
sS'dobj=pressure'
p32
I158
sS'w-2=position'
p33
I666
sS'w-2=Pope'
p34
I598
sS'w-2=they'
p35
I682
sS'w+1=advice'
p36
I322
sS'prep=by'
p37
I286
sS'nsubj=many'
p38
I236
sS'w-1=,'
p39
I516
sS'nsubj=doctor'
p40
I227
sS'w+1=that'
p41
I370
sS'w+2=shadow'
p42
I492
sS'w+2=order'
p43
I466
sS'nsubj=government'
p44
I233
sS'w-2=not'
p45
I661
sS'w-2=Democrats'
p46
I587
sS'xcomp=end'
p47
I698
sS'w+2=change'
p48
I412
sS'nsubjpass=issue'
p49
I260
sS'dobj=difference'
p50
I120
sS'conj=decide'
p51
I58
sS'w+1=intelligence'
p52
I349
sS'w+2=panel'
p53
I468
sS'advmod=hard'
p54
I12
sS'w+1=these'
p55
I372
sS'advmod=so'
p56
I26
sS'w-1=initially'
p57
I543
sS'advmod=just'
p58
I17
sS'w+2=elephant'
p59
I425
sS'w+1=in'
p60
I347
sS'dobj=advantage'
p61
I102
sS'w-1=will'
p62
I574
sS'advmod=anymore'
p63
I5
sS'w+1=Darfur'
p64
I308
sS'dobj=other'
p65
I148
sS'aux=may'
p66
I37
sS'w-2=employer'
p67
I638
sS'w-2=United'
p68
I602
sS'w+1=sign'
p69
I367
sS'w-1=be'
p70
I526
sS'nsubjpass=rule'
p71
I272
sS'dobj=complaint'
p72
I110
sS'dobj=order'
p73
I147
sS'w-2=the'
p74
I681
sS'w-1=simply'
p75
I564
sS'w-1=longer'
p76
I548
sS'nsubj=leader'
p77
I235
sS'dobj=wisdom'
p78
I195
sS'advmod=mostly'
p79
I21
sS'advmod=totally'
p80
I27
sS'w+1=sanction'
p81
I364
sS'mark=because'
p82
I198
sS'w+2=country'
p83
I416
sS'dobj=U.S.'
p84
I100
sS'dobj=recommendation'
p85
I163
sS'w+1=thing'
p86
I374
sS'w-2=many'
p87
I656
sS'advmod=back'
p88
I6
sS'w+2=message'
p89
I455
sS'dobj=shortcoming'
p90
I175
sS'dobj=ruling'
p91
I171
sS'w+1=or'
p92
I357
sS'w+2=violate'
p93
I511
sS'w+1=international'
p94
I350
sS'w-1=have'
p95
I541
sS'ccomp=say'
p96
I53
sS'dobj=elephant'
p97
I123
sS'w+2=if'
p98
I439
sS'dobj=lesson'
p99
I137
sS'w+2=in'
p100
I442
sS'dobj=pact'
p101
I149
sS'advcl=earn'
p102
I2
sS'dobj=sign'
p103
I176
sS'dobj=singles'
p104
I177
sS'w-1=totally'
p105
I568
sS'prep=about'
p106
I281
sS'aux=can'
p107
I33
sS'complm=that'
p108
I56
sS'dobj=rule'
p109
I170
sS'dobj=general'
p110
I131
sS'w-2=Israel'
p111
I593
sS'tmod=month'
p112
I302
sS'iobj=mainstream'
p113
I196
sS'w-2=Britain'
p114
I584
sS'w-1=farmer'
p115
I534
sS'w-2=strategy'
p116
I675
sS'w+2=will'
p117
I514
sS'w-1=government'
p118
I540
sS'advcl=be'
p119
I0
sS'w-2=that'
p120
I680
sS'w+1=the'
p121
I371
sS'w+2=be'
p122
I409
sS'w+1=they'
p123
I373
sS'nsubj=Israel'
p124
I213
sS'w+2=temptation'
p125
I503
sS'w+1=those'
p126
I376
sS'nsubjpass=#PRP#'
p127
I254
sS'w-1=mostly'
p128
I551
sS'w+2=government'
p129
I434
sS'prep=in'
p130
I290
sS'w+1=problem'
p131
I360
sS'aux=would'
p132
I41
sS'w-2=leader'
p133
I654
sS'dep=obtain'
p134
I84
sS'w-2=democrat'
p135
I629
sS'dobj=thing'
p136
I188
sS'advmod=yet'
p137
I31
sS'advmod=largely'
p138
I18
sS'prep=to'
p139
I295
sS'dobj=the'
p140
I187
sS'w-1=widely'
p141
I573
sS'dobj=foreclosure'
p142
I129
sS'w-2=lawmaker'
p143
I653
sS'w+1=and'
p144
I323
sS'w+2=illicit'
p145
I440
sS'dobj=request'
p146
I165
sS'nsubj=burma'
p147
I223
sS'advcl=receive'
p148
I3
sS'nsubj=lawmaker'
p149
I234
sS'nsubj=member'
p150
I237
sS'conj=kill'
p151
I67
sS'w+1=other'
p152
I358
sS'w+1=any'
p153
I324
sS'w-2=about'
p154
I605
sS'w+1=unfavorable'
p155
I378
sS'nsubj=Mohammed'
p156
I215
sS'dobj=media'
p157
I140
sS'w-2=government'
p158
I644
sS'dobj=DRC'
p159
I98
sS'xcomp=keep'
p160
I701
sS'nsubjpass=need'
p161
I264
sS'w+2=contribute'
p162
I414
sS'w+2=the'
p163
I505
sS'conj=invite'
p164
I66
sS'w+2=insulin'
p165
I444
sS'iobj=succession'
p166
I197
sS'dobj=sense'
p167
I173
sS'conj=despite'
p168
I60
sS'mark=if'
p169
I199
sS'dobj=insulin'
p170
I132
sS'dobj=event'
p171
I124
sS'nsubj=announcement'
p172
I221
sS'advmod=constantly'
p173
I8
sS'dobj=news'
p174
I144
sS'w+2=previous'
p175
I479
sS'w+2=call'
p176
I411
sS'xcomp=stop'
p177
I707
sS'dep=say'
p178
I87
sS'ccomp=live'
p179
I52
sS'dobj=Court'
p180
I97
sS'dobj=intelligence'
p181
I133
sS'dobj=shadow'
p182
I174
sS'w-2=ruling'
p183
I669
sS'nsubj=troops'
p184
I250
sS'w-2=community'
p185
I622
sS'dobj=country'
p186
I114
sS'dobj=people'
p187
I152
sS'w-1=religiousstudent'
p188
I561
sS'w+2=petition'
p189
I472
sS'w+1=pact'
p190
I359
sS'prep=within'
p191
I299
sS'w+2=2004'
p192
I391
sS'nsubj=who'
p193
I253
sS'nsubjpass=action'
p194
I255
sS'dobj=activity'
p195
I101
sS'w-2=Bush'
p196
I585
sS'dobj=issue'
p197
I135
sS'w-2=critic'
p198
I627
sS'w+2=however'
p199
I438
sS'w-1=to'
p200
I567
sS'w+2=policy-maker'
p201
I474
sS'dobj=#PRP#'
p202
I94
sS'dobj=intent'
p203
I134
sS'w-2=do'
p204
I634
sS'dobj=opposition'
p205
I146
sS'nsubj=authority'
p206
I222
sS'advmod=completely'
p207
I7
sS'dobj=reality'
p208
I162
sS'w+1=you'
p209
I386
sS'w-2=Washington'
p210
I603
sS'conj=vote'
p211
I79
sS'ccomp=doom'
p212
I48
sS'dobj=game'
p213
I130
sS'w+1=western'
p214
I381
sS'dobj=need'
p215
I143
sS'advmod=simply'
p216
I25
sS'w+2=rights'
p217
I489
sS'w+1=call'
p218
I330
sS'advmod=however'
p219
I13
sS'w-1=completely'
p220
I529
sS'prep=over'
p221
I294
sS'w+1=as'
p222
I325
sS'w+2=like'
p223
I452
sS'parataxis=have'
p224
I277
sS'w+1=he'
p225
I345
sS'w+2=pressure'
p226
I478
sS'w+2=all'
p227
I404
sS'w+1=Israel'
p228
I314
sS'conj=give'
p229
I65
sS'w+2=concern'
p230
I413
sS'nsubjpass=that'
p231
I275
sS'conj=deport'
p232
I59
sS'advmod=frequently'
p233
I10
sS'w-1=Nations'
p234
I520
sS'w-1=can'
p235
I527
sS'dobj=many'
p236
I138
sS'w-2=on'
p237
I662
sS'w+2=Abbas'
p238
I392
sS'w+2=press'
p239
I477
sS'ccomp=be'
p240
I47
sS'xcomp=take'
p241
I709
sS'w+2=danger'
p242
I419
sS'w-2=wrong'
p243
I696
sS'w-1=say'
p244
I563
sS'w-2=continue'
p245
I624
sS'w+2=criticism'
p246
I418
sS'w+1=Taleban'
p247
I318
sS'w-2=tend'
p248
I679
sS'w-1=yet'
p249
I577
sS'w-1=Washington'
p250
I521
sS'w-2=Horton'
p251
I590
sS'advmod=repeatedly'
p252
I24
sS'dep=weight'
p253
I92
sS'w+2=opium'
p254
I464
sS'w-1=feeling'
p255
I535
sS'w-2=Musharraf'
p256
I596
sS'prep=for'
p257
I288
sS'dobj=student'
p258
I182
sS'w+1=we'
p259
I380
sS'nsubj=force'
p260
I231
sS'w+2=expel'
p261
I427
sS'w-2=division'
p262
I633
sS'w-2=force'
p263
I641
sS'dobj=ambition'
p264
I104
sS'nsubj=Bush'
p265
I207
sS'w-1=force'
p266
I537
sS'nsubjpass=opposition'
p267
I265
sS'w+2=success'
p268
I499
sS'w-1=executive'
p269
I532
sS'parataxis=say'
p270
I278
sS'w+2=initial'
p271
I443
sS'dobj=cost'
p272
I113
sS'advmod=initially'
p273
I16
sS'w-2=burma'
p274
I617
sS'dobj=temptation'
p275
I185
sS'w+1=burma'
p276
I328
sS'auxpass=be'
p277
I42
sS'w+2=marginalize'
p278
I454
sS'w-1=generally'
p279
I539
sS'w+2=could'
p280
I415
sS'w-2=difficult'
p281
I631
sS'nsubjpass=suggestion'
p282
I274
sS'advmod=long'
p283
I19
sS'w+1=hear'
p284
I346
sS'nsubj=museum'
p285
I239
sS'dobj=region'
p286
I164
sS'nsubj=president'
p287
I245
sS'w+2=Robert'
p288
I396
sS'dobj=Clinton'
p289
I96
sS'w-2=supporter'
p290
I678
sS'xcomp=provoke'
p291
I704
sS'nsubj=#NUMBER#'
p292
I202
sS'w+2=fundamental'
p293
I431
sS'w+2=with'
p294
I515
sS'w+2=shot'
p295
I493
sS'w+1=General'
p296
I310
sS'nsubjpass=deal'
p297
I259
sS'w+2=mainstream'
p298
I453
sS'w+1=fundamental'
p299
I344
sS'w+2=strenuously'
p300
I498
sS'conj=refuse'
p301
I72
sS'w-1=people'
p302
I556
sS'w+1=civilized'
p303
I332
sS'w+2=basis'
p304
I408
sS'w-2=african'
p305
I607
sS'dobj=success'
p306
I183
sS'nsubjpass=plight'
p307
I267
sS'nsubj=YarAdua'
p308
I220
sS'dep=bring'
p309
I82
sS'advcl=deadlock'
p310
I1
sS'w-1=largely'
p311
I546
sS'nsubjpass=most'
p312
I263
sS"w-2=''"
p313
I578
sS'w+2=of'
p314
I461
sS'w+2=issue'
p315
I447
sS'w+1=extradition'
p316
I343
sS'dobj=parliamentarian'
p317
I150
sS'nsubjpass=conflict'
p318
I258
sS'dep=should'
p319
I88
sS'w+1=FBI'
p320
I309
sS'w+2=he'
p321
I437
sS'dep=as'
p322
I81
sS'dobj=advice'
p323
I103
sS'w-2=choose'
p324
I621
sS'nsubj=that'
p325
I249
sS'conj=place'
p326
I71
sS'w-2=wealth'
p327
I690
sS'w-2=which'
p328
I691
sS'w-1=issue'
p329
I544
sS'dobj=risk'
p330
I169
sS'w-2=foolish'
p331
I640
sS'w-2=attempt'
p332
I613
sS'xcomp=abandon'
p333
I697
sS'advmod=far'
p334
I9
sS'dobj=quake'
p335
I161
sS"w-2='s"
p336
I579
sS'w-2=death'
p337
I628
sS'conj=non-existent'
p338
I69
sS'conj=not'
p339
I70
sS'w+2=from'
p340
I430
sS'w-2=would'
p341
I695
sS'nsubj=memory'
p342
I238
sS'w-2=instead'
p343
I650
sS'w-2=still'
p344
I674
sS'w-2=no'
p345
I660
sS'advmod=often'
p346
I22
sS'dobj=possibility'
p347
I157
sS'xcomp=quit'
p348
I705
sS'advmod=willfully'
p349
I30
sS'nsubj=executive'
p350
I229
sS'dep=to'
p351
I90
sS'w+1=because'
p352
I326
sS'xcomp=suspend'
p353
I708
sS'w+2=problem'
p354
I481
sS'w+1=clear'
p355
I333
sS'w+2=request'
p356
I486
sS'w-2=suggestion'
p357
I677
sS'dobj=evidence'
p358
I125
sS'nsubjpass=law'
p359
I261
sS'w-2=Iran'
p360
I591
sS'conj=marginalize'
p361
I68
sS'w-2=Khartoum'
p362
I594
sS'w-2=Islamabad'
p363
I592
sS'dobj=concern'
p364
I111
sS'nsubj=Tehran'
p365
I218
sS'nsubj=challenge'
p366
I225
sS'w+1=several'
p367
I366
sS'w-1=official'
p368
I554
sS'w+1=Hopkins'
p369
I312
sS'nsubj=general'
p370
I232
sS'dobj=decision'
p371
I118
sS'prep=until'
p372
I296
sS'w-2=this'
p373
I683
sS'prep=while'
p374
I297
sS'w-2=detainee'
p375
I630
sS'mark=while'
p376
I200
sS'w-2=towards'
p377
I686
sS'dep=so'
p378
I89
sS'aux=do'
p379
I35
sS'w-2=Agency'
p380
I583
sS'w+2=mid-morning'
p381
I456
sS'w+1=Sunday'
p382
I317
sS'w+2=lesson'
p383
I451
sS'w+2=news'
p384
I459
sS'w+1=rule'
p385
I363
sS'nsubj=television'
p386
I248
sS'aux=will'
p387
I40
sS'w+2=suffering'
p388
I501
sS'w-2=largely'
p389
I652
sS'w-2=Cheney'
p390
I586
sS'w+2=verdict'
p391
I509
sS'dobj=Darfur'
p392
I99
sS'w-1=while'
p393
I571
sS'nsubj=people'
p394
I241
sS'prep=with'
p395
I298
sS'cc=or'
p396
I45
sS'dobj=danger'
p397
I116
sS'dobj=opinion'
p398
I145
sS'w+2=Security'
p399
I397
sS'w+2=people'
p400
I471
sS'dobj=force'
p401
I128
sS'w-2=dismiss'
p402
I632
sS'nsubjpass=ossuary'
p403
I266
sS'w-2=if'
p404
I649
sS'w+2=rule'
p405
I491
sS'conj=fail'
p406
I63
sS'w-2=president'
p407
I667
sS'dobj=basis'
p408
I106
sS'w-2=nation'
p409
I659
sS'nsubj=Iran'
p410
I212
sS'ccomp=home'
p411
I51
sS'advmod=longer'
p412
I20
sS'w-2=Tehran'
p413
I600
sS'dobj=problem'
p414
I160
sS'prep=because'
p415
I284
sS'conj=violate'
p416
I78
sS'nsubj=Obama'
p417
I217
sS'w+1=one'
p418
I355
sS'w+2=impoverished'
p419
I441
sS'w+1=despite'
p420
I336
sS'w-1=after'
p421
I522
sS"w+2=''"
p422
I387
sS'nsubj=country'
p423
I226
sS'w-1=virtually'
p424
I569
sS'dobj=ban'
p425
I105
sS'w+2=flow'
p426
I429
sS'advmod=also'
p427
I4
sS'xcomp=rage'
p428
I706
sS'dobj=charge'
p429
I109
sS'w+2=right'
p430
I488
sS'conj=die'
p431
I61
sS'w+2=possibility'
p432
I475
sS'w-2=framework'
p433
I642
sS'xcomp=hear'
p434
I699
sS'w+2=that'
p435
I504
sS'w-2=concern'
p436
I623
sS'w-2=States'
p437
I599
sS'w+2=need'
p438
I458
sS'nsubjpass=link'
p439
I262
sS'w-2=have'
p440
I647
sS'w+1=wisdom'
p441
I384
sS'cc=and'
p442
I43
sS'partmod=precipitate'
p443
I279
sS'w-1=we'
p444
I570
sS'nsubj=Democrats'
p445
I208
sS'w-2=Abe'
p446
I582
sS'w+1=by'
p447
I329
sS'nsubjpass=concern'
p448
I257
sS'w+1=will'
p449
I383
sS'nsubj=radio'
p450
I247
sS'w-2=elite'
p451
I637
sS'dobj=flow'
p452
I127
sS'w+1=expert'
p453
I342
sS'conj=second'
p454
I74
sS'w-2=security'
p455
I671
sS'nsubj=Nations'
p456
I216
sS'nsubj=official'
p457
I240
sS'w-2=most'
p458
I658
sS'tmod=year'
p459
I303
sS'dobj=suffering'
p460
I184
sS'w+2=party'
p461
I470
sS'nsubj=pilot'
p462
I242
sS'w+1=it'
p463
I351
sS'dobj=that'
p464
I186
sS'nsubj=#PRP#'
p465
I203
sS'nsubj=Abe'
p466
I204
sS'dobj=verdict'
p467
I191
sS'w+1=Iran'
p468
I313
sS'w+2=executive'
p469
I426
sS'dobj=poppy'
p470
I155
sS'dobj=principle'
p471
I159
sS"w+1=''"
p472
I304
sS'w+1=Senator'
p473
I316
sS'w+2=general'
p474
I432
sS'w+2=intent'
p475
I445
sS'cc=but'
p476
I44
sS'w-2=longer'
p477
I655
sS'w+2=lead'
p478
I450
sS'dobj=west'
p479
I194
sS'dobj=#NUMBER#'
p480
I93
sS'w-2=party'
p481
I663
sS'nsubjpass=protest'
p482
I269
sS'aux=could'
p483
I34
sS'prep=like'
p484
I291
sS'w+1=-rrb-'
p485
I306
sS'w-2=creator'
p486
I626
sS'w+1=warning'
p487
I379
sS'w+1=conflict'
p488
I334
sS'w+2=trio'
p489
I508
sS'w+2=warning'
p490
I512
sS'w-2=withdrawal'
p491
I693
sS'w+2=social'
p492
I496
sS'w+2=Musharraf'
p493
I395
sS'aux=must'
p494
I38
sS'tmod=march'
p495
I301
sS'w-2=southern'
p496
I673
sS'w+2=deadline'
p497
I420
sS'dobj=fact'
p498
I126
sS'w+2=spiral'
p499
I497
sS'w-1=cell'
p500
I528
sS'xcomp=operate'
p501
I703
sS'xcomp=insist'
p502
I700
sS'w-2=authority'
p503
I615
sS'w-1=year'
p504
I576
sS'ccomp=transfer'
p505
I55
sS'w-2=be'
p506
I616
sS'dep=pose'
p507
I85
sS'dobj=warning'
p508
I193
sS'dobj=call'
p509
I108
sS'prep=of'
p510
I292
sS'w-2=politician'
p511
I665
sS'w+2=ban'
p512
I407
sS'w+1=three'
p513
I377
sS'prep=on'
p514
I293
sS'w+2=militant'
p515
I457
sS'ccomp=high'
p516
I50
sS'dep=provide'
p517
I86
sS'w-1=willfully'
p518
I575
sS'nsubj=which'
p519
I252
sS'w-1=far'
p520
I533
sS'w+1=repeat'
p521
I361
sS'advmod=indefinitely'
p522
I15
sS'w+2=region'
p523
I485
sS'conj=allow'
p524
I57
sS'dobj=south'
p525
I180
sS'xcomp=lead'
p526
I702
sS'tmod=heat'
p527
I300
sS'conj=turn'
p528
I77
sS'w+2=succession'
p529
I500
sS'w-1=constantly'
p530
I530
sS'w+2=difference'
p531
I422
sS'dobj=battle'
p532
I107
sS'nsubj=version'
p533
I251
sS'dobj=party'
p534
I151
sS'w+1=Hamas'
p535
I311
sS'w+1=small'
p536
I368
sS'dobj=militant'
p537
I142
sS'w+2=greater'
p538
I435
sS'w-2=anyone'
p539
I610
sS'w-2=say'
p540
I670
sS'w+2=girl'
p541
I433
sS'w+2=.'
p542
I390
sS'w-1=who'
p543
I572
sS'w-2=want'
p544
I688
sS'w+2=opinion'
p545
I463
sS'w+2=tiny'
p546
I506
sS'w-2=after'
p547
I608
sS'w-1=leader'
p548
I547
sS'dobj=situation'
p549
I178
sS'w-2=recommendation'
p550
I668
sS'w-2=Nations'
p551
I597
sS'w+2=internationally-backed'
p552
I446
sS'nsubj=police'
p553
I244
sS'w-2=to'
p554
I684
sS'w+2=and'
p555
I405
sS'w-2=and'
p556
I609
sS'w-2=easy'
p557
I636
sS'w+1=opposition'
p558
I356
sS'w+2=advantage'
p559
I402
sS'dobj=plight'
p560
I154
sS'w-2=tortured'
p561
I685
sS'w+2=about'
p562
I401
sS'w+2=real'
p563
I482
sS'w+1=this'
p564
I375
sS'w+1=world'
p565
I385
sS'w-2=arrive'
p566
I611
sS'w-2=he'
p567
I648
sS'w+2=korean'
p568
I448
sS'conj=way'
p569
I80
sS'w-2=minister'
p570
I657
sS'w+2=fact'
p571
I428
sS'w-2=world'
p572
I694
sS'nsubj=Washington'
p573
I219
sS'dobj=distraction'
p574
I121
sS'nsubj=elite'
p575
I228
sS'w+2=law'
p576
I449
sS'nsubj=cell'
p577
I224
sS'prep=at'
p578
I283
sS'prep=as'
p579
I282
sS'w+2=distraction'
p580
I423
sS'nsubjpass=ruling'
p581
I273
sS'w-2=.'
p582
I581
sS'advmod=widely'
p583
I29
sS'w-1=and'
p584
I524
sS'dobj=sanction'
p585
I172
sS'w-2=try'
p586
I687
sS'w+1=charge'
p587
I331
sS'aux=have'
p588
I36
sS'dobj=demand'
p589
I119
sS'w-2=but'
p590
I618
sS'w+1=serious'
p591
I365
sS'w-2=war'
p592
I689
sS'nsubjpass=burden'
p593
I256
sS'w-1=.'
p594
I518
sS'ccomp=have'
p595
I49
sS'partmod=say'
p596
I280
sS'dobj=message'
p597
I141
sS'w-2=while'
p598
I692
sS'nsubjpass=resolution'
p599
I271
sS'w+2=advice'
p600
I403
sS'w+2=principle'
p601
I480
sS'w-2=as'
p602
I612
sS'w-2=so'
p603
I672
sS'nsubjpass=recommendation'
p604
I270
sS'w+2=Supreme'
p605
I398
sS'dobj=Abbas'
p606
I95
sS'dobj=deadline'
p607
I117
sS'dobj=rights'
p608
I168
sS'w-1=of'
p609
I553
sS'dobj=trade'
p610
I190
sS'w-2=a'
p611
I604
sS'w-1=process'
p612
I558
sS'w-1=they'
p613
I566
sS'conj=expel'
p614
I62
sS'dobj=portrayal'
p615
I156
sS'nsubj=farmer'
p616
I230
sS'w+2=numerous'
p617
I460
sS'w+1=indefinitely'
p618
I348
sS'w+2=police'
p619
I473
sS'nsubjpass=which'
p620
I276
sS'w+2=sign'
p621
I494
sS'w-1=-lrb-'
p622
I517
sS'w+2=risk'
p623
I490
sS'w-1=he'
p624
I542
sS'w+1=each'
p625
I337
sS'w+1=many'
p626
I352
sS'w+1=economic'
p627
I339
sS'w-2=hard'
p628
I645
sS'w+1=event'
p629
I340
sS'nsubj=plan'
p630
I243
sS'dobj=criticism'
p631
I115
sS'w+2=parliamentarian'
p632
I469
sS'advmod=regularly'
p633
I23
sS'w-2=good'
p634
I643
sS'w-2=issue'
p635
I651
sS'w+1=President'
p636
I315
sS'w+2=best'
p637
I410
sS'w-1=massacre'
p638
I549
sS'w+2=situation'
p639
I495
sS'w-2=Mohammed'
p640
I595
sS'w-1=police'
p641
I557
sS'w+1=a'
p642
I321
sS'w+2=recommendation'
p643
I484
sS'w+2=have'
p644
I436
sS'w+1=north'
p645
I353
sS'w+2=DRC'
p646
I394
sS'w-1=repeatedly'
p647
I562
sS'w-1=protester'
p648
I559
sS'nsubj=Huckabee'
p649
I211
sS'dobj=responsibility'
p650
I167
sS'w+2=online'
p651
I462
sS'w+2=court'
p652
I417
sS'dobj=controversy'
p653
I112
sS'w-1=also'
p654
I523
sS'w+1=U.N.'
p655
I319
sS'w+2=U.S.'
p656
I399
sS'w-2=Gruevski'
p657
I589
sS'w-2=Gbagbo'
p658
I588
sS'nsubj=Mbeki'
p659
I214
sS'w+1=black'
p660
I327
sS'prep=from'
p661
I289
sS'w-1=may'
p662
I550
sS'conj=suppress'
p663
I75
sS'w+2=other'
p664
I467
sS'w+2=weight'
p665
I513
sS'dobj=map'
p666
I139
sS'ccomp=act'
p667
I46
sS'aux=to'
p668
I39
sS'dobj=voice'
p669
I192
sS'w+2=town'
p670
I507
sS'w+1=official'
p671
I354
sS'w+2=anymore'
p672
I406
sS'conj=reinterpret'
p673
I73
sS'w-2=attorney'
p674
I614
sS'w+2=opposition'
p675
I465
sS'w-2=can'
p676
I619
sS'w+1=resolution'
p677
I362
sS'dobj=some'
p678
I179
sS'nsubjpass=problem'
p679
I268
sS'dobj=petition'
p680
I153
sS'w-2=car'
p681
I620
sS'w+1=country'
p682
I335
sS'w+2=Clinton'
p683
I393
sS'w-1=for'
p684
I536
sS'w+1=,'
p685
I305
sS'w+1=.'
p686
I307
sS'w-2=far'
p687
I639
sS'nsubj=protester'
p688
I246
sS'w+1=some'
p689
I369
sS'w-2=Ukraine'
p690
I601
sS'w+2=,'
p691
I389
sS'w-1=often'
p692
I555
sS'w-2=doctor'
p693
I635
sS'dep=undercut'
p694
I91
sS'neg=not'
p695
I201
sS'conj=tell'
p696
I76
sS'w-2=,'
p697
I580
sS'prep=during'
p698
I287
sS'dobj=town'
p699
I189
sS'w-2=could'
p700
I625
sS'dobj=status'
p701
I181
sS'w-2=harder'
p702
I646
sS'w+1=early'
p703
I338
sS'w-1=just'
p704
I545
sS'w-1=not'
p705
I552
sS'w+2=a'
p706
I400
sS'w+2=reality'
p707
I483
sS'w+2=demand'
p708
I421
sS'w+1=U.S.'
p709
I320
sS'w-1=at'
p710
I525
sS'w-1=that'
p711
I565
sS'aux=be'
p712
I32
sS'w-1=frequently'
p713
I538
sS'dobj=resolution'
p714
I166
sS'conj=focus'
p715
I64
sS'w+1=what'
p716
I382
sS'nsubj=Baradei'
p717
I206
ssS'dtype'
p718
cnumpy
float64
p719
sS'feature_names_'
p720
(lp721
g119
ag310
ag102
ag148
ag427
ag63
ag88
ag207
ag173
ag334
ag233
ag17
ag54
ag219
ag15
ag522
ag273
ag58
ag138
ag283
ag412
ag79
ag346
ag633
ag252
ag216
ag56
ag80
ag20
ag583
ag349
ag137
ag712
ag107
ag483
ag379
ag588
ag66
ag494
ag668
ag387
ag132
ag277
ag442
ag476
ag396
ag667
ag240
ag212
ag595
ag516
ag411
ag179
ag96
ag29
ag505
ag108
ag524
ag51
ag232
ag168
ag431
ag614
ag406
ag715
ag229
ag164
ag151
ag361
ag338
ag339
ag326
ag301
ag673
ag454
ag663
ag696
ag528
ag416
ag211
ag569
ag322
ag309
ag11
ag134
ag507
ag517
ag178
ag319
ag378
ag351
ag694
ag253
ag480
ag202
ag606
ag289
ag180
ag159
ag392
ag84
ag195
ag61
ag323
ag264
ag425
ag408
ag532
ag509
ag429
ag72
ag364
ag653
ag272
ag186
ag631
ag397
ag607
ag371
ag589
ag50
ag574
ag9
ag97
ag171
ag358
ag498
ag452
ag401
ag142
ag213
ag110
ag170
ag181
ag203
ag197
ag8
ag99
ag236
ag666
ag157
ag597
ag537
ag215
ag174
ag398
ag205
ag73
ag65
ag101
ag317
ag534
ag187
ag680
ag560
ag470
ag615
ag347
ag32
ag471
ag414
ag335
ag208
ag85
ag286
ag146
ag714
ag650
ag608
ag330
ag109
ag91
ag585
ag167
ag182
ag90
ag103
ag104
ag549
ag678
ag525
ag701
ag258
ag306
ag460
ag275
ag464
ag140
ag136
ag699
ag610
ag467
ag669
ag508
ag479
ag78
ag113
ag166
ag82
ag169
ag376
ag695
ag292
ag465
ag466
ag10
ag717
ag265
ag445
ag19
ag21
ag649
ag410
ag124
ag659
ag156
ag456
ag417
ag365
ag573
ag308
ag172
ag206
ag147
ag577
ag366
ag423
ag40
ag575
ag350
ag616
ag260
ag370
ag44
ag149
ag77
ag38
ag150
ag342
ag285
ag457
ag394
ag462
ag630
ag553
ag287
ag688
ag450
ag386
ag325
ag184
ag533
ag519
ag193
ag127
ag194
ag593
ag448
ag318
ag297
ag49
ag359
ag439
ag312
ag161
ag267
ag403
ag307
ag679
ag482
ag604
ag599
ag71
ag581
ag282
ag231
ag620
ag224
ag270
ag443
ag596
ag106
ag579
ag578
ag415
ag12
ag37
ag698
ag257
ag661
ag130
ag484
ag510
ag514
ag221
ag139
ag372
ag374
ag395
ag191
ag527
ag495
ag112
ag459
ag472
ag685
ag485
ag686
ag64
ag320
ag296
ag535
ag369
ag468
ag228
ag636
ag473
ag382
ag247
ag655
ag709
ag642
ag36
ag144
ag153
ag222
ag352
ag660
ag276
ag447
ag218
ag587
ag303
ag355
ag488
ag682
ag420
ag625
ag703
ag627
ag629
ag31
ag453
ag316
ag299
ag225
ag284
ag60
ag618
ag52
ag94
ag463
ag626
ag645
ag671
ag418
ag558
ag92
ag152
ag190
ag131
ag521
ag677
ag385
ag81
ag591
ag367
ag69
ag536
ag689
ag41
ag121
ag55
ag123
ag86
ag564
ag126
ag513
ag155
ag487
ag259
ag214
ag716
ag449
ag441
ag565
ag209
ag422
ag22
ag691
ag542
ag192
ag238
ag683
ag646
ag493
ag288
ag399
ag605
ag656
ag706
ag562
ag559
ag600
ag227
ag555
ag672
ag512
ag304
ag122
ag637
ag176
ag48
ag230
ag162
ag280
ag83
ag652
ag246
ag242
ag497
ag708
ag531
ag580
ag18
ag59
ag469
ag261
ag571
ag426
ag340
ag293
ag474
ag541
ag129
ag538
ag644
ag321
ag199
ag98
ag145
ag419
ag100
ag271
ag165
ag475
ag552
ag315
ag568
ag576
ag478
ag383
ag223
ag298
ag278
ag89
ag381
ag515
ag438
ag384
ag617
ag314
ag651
ag545
ag254
ag675
ag43
ag664
ag53
ag632
ag461
ag400
ag189
ag619
ag201
ag432
ag16
ag239
ag226
ag175
ag601
ag354
ag563
ag707
ag643
ag523
ag356
ag26
ag430
ag217
ag623
ag405
ag42
ag295
ag621
ag639
ag492
ag499
ag300
ag268
ag529
ag388
ag24
ag125
ag435
ag163
ag546
ag670
ag489
ag391
ag25
ag93
ag490
ag665
ag117
ag294
ag39
ag622
ag594
ag30
ag234
ag250
ag421
ag654
ag584
ag710
ag70
ag235
ag500
ag220
ag530
ag23
ag269
ag520
ag115
ag255
ag684
ag266
ag713
ag279
ag118
ag95
ag624
ag57
ag329
ag704
ag311
ag548
ag76
ag638
ag662
ag128
ag705
ag609
ag368
ag692
ag302
ag641
ag612
ag648
ag13
ag188
ag647
ag244
ag75
ag711
ag613
ag200
ag105
ag424
ag444
ag393
ag543
ag141
ag62
ag518
ag504
ag249
ag313
ag336
ag697
ag582
ag446
ag380
ag114
ag196
ag390
ag46
ag658
ag657
ag251
ag360
ag363
ag111
ag362
ag640
ag256
ag551
ag34
ag437
ag413
ag690
ag68
ag210
ag611
ag154
ag14
ag305
ag547
ag556
ag539
ag566
ag602
ag332
ag674
ag503
ag506
ag274
ag590
ag676
ag681
ag324
ag185
ag436
ag245
ag700
ag486
ag198
ag337
ag135
ag375
ag281
ag402
ag262
ag204
ag693
ag557
ag451
ag67
ag687
ag331
ag263
ag433
ag634
ag158
ag628
ag702
ag440
ag567
ag404
ag343
ag635
ag389
ag143
ag133
ag477
ag87
ag570
ag458
ag409
ag345
ag45
ag237
ag481
ag27
ag511
ag33
ag407
ag550
ag183
ag540
ag455
ag603
ag496
ag344
ag116
ag28
ag357
ag290
ag248
ag120
ag74
ag35
ag373
ag554
ag561
ag377
ag586
ag544
ag592
ag327
ag328
ag598
ag491
ag572
ag341
ag243
ag333
ag47
ag434
ag502
ag160
ag526
ag501
ag291
ag348
ag428
ag177
ag353
ag241
asS'separator'
p722
S'='
sS'sparse'
p723
I01
sb.