ccopy_reg
_reconstructor
p1
(csklearn.feature_extraction.dict_vectorizer
DictVectorizer
p2
c__builtin__
object
p3
NtRp4
(dp5
S'vocabulary_'
p6
(dp7
S'dobj=stomach'
p8
I154
sS'w+2=vehicle'
p9
I497
sS'dobj=application'
p10
I100
sS'w-2=by-election'
p11
I636
sS'dep=do'
p12
I87
sS'w-1=historian'
p13
I556
sS'w-1=childhood'
p14
I532
sS'nsubjpass=hill'
p15
I236
sS'w-1=song'
p16
I583
sS'nsubjpass=Room'
p17
I221
sS'w+2=kite'
p18
I425
sS'conj=of'
p19
I80
sS'w-2=summer'
p20
I732
sS'w+2=financial'
p21
I399
sS'advmod=well'
p22
I46
sS'w-2=election'
p23
I652
sS'w+2=very'
p24
I498
sS'w+2=street'
p25
I481
sS'w-1=Diaw'
p26
I511
sS'w+2=international'
p27
I420
sS'w-1=city'
p28
I533
sS'prep=that'
p29
I272
sS'nsubj=Francesca'
p30
I175
sS'w-2=can'
p31
I639
sS'w+1=until'
p32
I331
sS'w-2=happy'
p33
I665
sS'w-1=Asia'
p34
I508
sS'dobj=square'
p35
I151
sS'nsubjpass=sky'
p36
I246
sS'w-2=need'
p37
I690
sS'w-2=they'
p38
I738
sS'prep=by'
p39
I264
sS'w+2=landscape'
p40
I427
sS'w+2=fast'
p41
I397
sS'nsubjpass=classroom'
p42
I232
sS'w+2=cafe'
p43
I373
sS'nsubj=smell'
p44
I205
sS'w-2=catch'
p45
I640
sS'conj=call'
p46
I69
sS'w-1=study'
p47
I588
sS'w+2=character'
p48
I378
sS'w+2=huge'
p49
I413
sS'w-1=normally'
p50
I565
sS'dobj=post'
p51
I136
sS'w-2=high-powered'
p52
I669
sS'w-1=can'
p53
I530
sS'w-1=devotee'
p54
I540
sS'w-2=brush'
p55
I632
sS'w+1=top'
p56
I329
sS'w-2=mine'
p57
I683
sS'w-1=course'
p58
I537
sS'w+1=these'
p59
I324
sS'advmod=real'
p60
I38
sS'w+1=only'
p61
I312
sS'w+2=peace'
p62
I448
sS'nsubjpass=#NUMBER#'
p63
I216
sS'w-2=class'
p64
I641
sS'w+2=expectation'
p65
I394
sS'advcl=ask'
p66
I1
sS'w-1=will'
p67
I601
sS'w-2=noisy'
p68
I691
sS'nsubj=eye'
p69
I188
sS'w+2=distortion'
p70
I392
sS'w-1=usually'
p71
I596
sS'ccomp=Yar'
p72
I58
sS'aux=may'
p73
I51
sS'w-2=north'
p74
I692
sS'nsubj=China'
p75
I172
sS'w-1=staff'
p76
I584
sS'w-1=be'
p77
I525
sS'nsubjpass=class'
p78
I231
sS'w-1=container'
p79
I535
sS'w-2=ahead'
p80
I621
sS'nsubjpass=week'
p81
I254
sS'dobj=folder'
p82
I121
sS'w+2=fresh'
p83
I402
sS'w-2=the'
p84
I737
sS'w+2=noise'
p85
I445
sS'w+2=village'
p86
I499
sS'w+1=she'
p87
I317
sS'w-2=time'
p88
I740
sS'advcl=come'
p89
I4
sS'w+2=blood'
p90
I367
sS'w-1=truck'
p91
I595
sS'nsubjpass=hotel'
p92
I237
sS'w-2=reservoir'
p93
I710
sS'partmod=make'
p94
I259
sS'w+2=tear'
p95
I484
sS'w-2=who'
p96
I753
sS'w-2=today'
p97
I742
sS'nsubjpass=#DATE#'
p98
I215
sS'w-1=stomach'
p99
I587
sS'w-1=airplane'
p100
I517
sS'w+1=half'
p101
I299
sS'w+1=on'
p102
I311
sS'nsubjpass=hall'
p103
I235
sS'nsubjpass=position'
p104
I243
sS'w+2=void'
p105
I500
sS'w-2=road'
p106
I711
sS'w+2=rank'
p107
I459
sS'dobj=air'
p108
I98
sS'w+2=muddy'
p109
I441
sS'w-1=have'
p110
I552
sS'ccomp=say'
p111
I64
sS'partmod=cause'
p112
I257
sS'w-2=skyscraper'
p113
I723
sS'ccomp=best'
p114
I59
sS'w+2=bill'
p115
I366
sS'w+2=in'
p116
I418
sS'dobj=position'
p117
I135
sS'w-2=enterprise'
p118
I653
sS'w-2=proposal'
p119
I707
sS'dobj=vacuum'
p120
I159
sS'w-2=may'
p121
I682
sS'w-1=document'
p122
I541
sS'w+2=runner'
p123
I466
sS'advmod=once'
p124
I33
sS'advcl=crush'
p125
I6
sS'aux=can'
p126
I49
sS'complm=that'
p127
I66
sS'w+2=fear'
p128
I398
sS'dobj=area'
p129
I101
sS'w-2=strategy'
p130
I728
sS'dobj=bowl'
p131
I111
sS'w+2=would'
p132
I504
sS'w-1=from'
p133
I549
sS'w-2=1962'
p134
I606
sS'w-2=compete'
p135
I642
sS'w+1=now'
p136
I309
sS'w+2=thousand'
p137
I490
sS'w-2=that'
p138
I736
sS'w+1=the'
p139
I323
sS'w-2=builder'
p140
I633
sS'nsubj=organization'
p141
I199
sS'xcomp=protest'
p142
I763
sS'advmod=only'
p143
I34
sS'w+1=they'
p144
I325
sS'w+1=temporarily'
p145
I321
sS'conj=uncomfortable'
p146
I85
sS'w-2=indonesian'
p147
I675
sS'w+1=those'
p148
I327
sS'advmod=quickly'
p149
I36
sS'nsubjpass=#PRP#'
p150
I217
sS'prep=in'
p151
I268
sS'aux=would'
p152
I54
sS'w+1=for'
p153
I297
sS'w+2=university'
p154
I494
sS'w-1=about'
p155
I516
sS'w+2=conflict'
p156
I382
sS'w+2=further'
p157
I403
sS'dobj=Jacob'
p158
I95
sS'w-2=quickly'
p159
I708
sS'nsubjpass=room'
p160
I245
sS'prep=to'
p161
I274
sS'w+2=political'
p162
I453
sS'w+2=slander'
p163
I474
sS'dobj=boot'
p164
I110
sS'advmod=fast'
p165
I24
sS'advmod=ago'
p166
I17
sS'conj=make'
p167
I79
sS'w-1=still'
p168
I586
sS'w-2=barren'
p169
I627
sS'w+1=and'
p170
I291
sS'prt=in'
p171
I278
sS'dobj=plan'
p172
I134
sS'ccomp=in'
p173
I62
sS'w-2=tank'
p174
I733
sS'dep=whose'
p175
I92
sS'w-1=man'
p176
I562
sS'nsubj=Diaw'
p177
I173
sS'nsubj=painting'
p178
I201
sS'w+2=for'
p179
I400
sS'w+1=other'
p180
I313
sS'w-1=narrative'
p181
I564
sS'dobj=need'
p182
I131
sS'nsubj=that'
p183
I210
sS'w-1=it'
p184
I557
sS'w-1=simply'
p185
I582
sS'w-1=parliament'
p186
I575
sS'dobj=baguette'
p187
I104
sS'prt=up'
p188
I280
sS'nsubj=supporter'
p189
I208
sS"nsubj='em"
p190
I170
sS'w-1=juice'
p191
I559
sS'advmod=temporarily'
p192
I42
sS'w-1=fireball'
p193
I547
sS'conj=be'
p194
I68
sS'advcl=force'
p195
I7
sS'dobj=granary'
p196
I125
sS'w-2=crust'
p197
I645
sS'w+2=important'
p198
I417
sS'w-1=tenor'
p199
I590
sS'w-1=eye'
p200
I545
sS'w-2=building'
p201
I634
sS'w+2=exotic'
p202
I393
sS'dobj=role'
p203
I140
sS'dobj=latrine'
p204
I130
sS'w-2=practice'
p205
I702
sS'w+2=niche'
p206
I444
sS'w-2=guy'
p207
I663
sS'w+2=rainwater'
p208
I458
sS'w-1=Charles'
p209
I510
sS'advcl=speak'
p210
I14
sS'w+2=day'
p211
I388
sS'w+2=space'
p212
I476
sS'nsubj=Republican'
p213
I178
sS'dobj=shortfall'
p214
I148
sS'w+2=call'
p215
I374
sS'w+1=empty'
p216
I296
sS'xcomp=car'
p217
I761
sS'w-2=which'
p218
I752
sS'w+2=thick'
p219
I488
sS'nsubj=troops'
p220
I212
sS'w+2=airwave'
p221
I350
sS'nsubjpass=Concorde'
p222
I218
sS'w-2=Hall'
p223
I608
sS'xcomp=allow'
p224
I759
sS'nsubj=who'
p225
I214
sS'w-2=twin-outboard'
p226
I746
sS'w-2=of'
p227
I694
sS'w+2=beyond'
p228
I364
sS'nsubj=tenor'
p229
I209
sS'w-1=to'
p230
I593
sS'w-1=supporter'
p231
I589
sS'w+2=more'
p232
I437
sS'w-2=we'
p233
I751
sS'nsubj=anthem'
p234
I180
sS'w+2=loud'
p235
I430
sS'w+1=that'
p236
I322
sS'dobj=#PRP#'
p237
I93
sS'nsubjpass=much'
p238
I240
sS'w-2=music'
p239
I688
sS'dep=give'
p240
I88
sS'w+2=blue'
p241
I368
sS'conj=crunch'
p242
I71
sS'w+1=London'
p243
I288
sS'conj=offer'
p244
I81
sS'w+2=car'
p245
I376
sS'advmod=simply'
p246
I39
sS'w-1=countryside'
p247
I536
sS'w+2=hundred'
p248
I415
sS'prep=over'
p249
I271
sS'w+2=reminder'
p250
I460
sS'dobj=floor'
p251
I120
sS'dobj=survey'
p252
I156
sS'ccomp=realize'
p253
I63
sS'w+2=room'
p254
I465
sS'w-1=car'
p255
I531
sS'w+1=he'
p256
I300
sS'w-2=two'
p257
I747
sS'w+2=all'
p258
I351
sS'dobj=room'
p259
I141
sS'prt=out'
p260
I279
sS'mark=for'
p261
I164
sS'nsubjpass=that'
p262
I250
sS'nsubj=water'
p263
I213
sS'w-2=13'
p264
I605
sS'w+2=rhyme'
p265
I461
sS'w-1=water'
p266
I598
sS'nsubj=Farmers'
p267
I174
sS'tmod=today'
p268
I283
sS'xcomp=take'
p269
I765
sS'dobj=boat'
p270
I109
sS'conj=think'
p271
I84
sS'w+2=because'
p272
I362
sS'dobj=bucket'
p273
I112
sS'nsubj=rain'
p274
I204
sS'w-2=small'
p275
I724
sS'w+1=two'
p276
I330
sS'w+2=granary'
p277
I407
sS'w-1=pen'
p278
I576
sS'advmod=when'
p279
I47
sS'w-2=ingot'
p280
I676
sS'dobj=category'
p281
I114
sS'w+1=Lake'
p282
I287
sS'w-2=she'
p283
I721
sS'prep=for'
p284
I266
sS'w+2=imaginative'
p285
I416
sS'dobj=spot'
p286
I150
sS'w-1=heart'
p287
I554
sS'advmod=normally'
p288
I30
sS'w-2=season'
p289
I716
sS'w+2=boat'
p290
I369
sS'w-2=eager'
p291
I651
sS'w+2=vacuum'
p292
I496
sS'w+2=as'
p293
I357
sS'w-1=once'
p294
I571
sS'w+2=state'
p295
I479
sS'w+2=live'
p296
I429
sS'auxpass=be'
p297
I55
sS'w-1=one'
p298
I572
sS'w+2=sudanese'
p299
I482
sS'conj=ease'
p300
I72
sS'advmod=always'
p301
I20
sS'w+2=seat'
p302
I469
sS'w+2=application'
p303
I356
sS'aux=will'
p304
I53
sS'advmod=still'
p305
I41
sS'w-1=onlooker'
p306
I573
sS'nsubj=parliament'
p307
I202
sS'xcomp=return'
p308
I764
sS'w-2=lime'
p309
I679
sS'w+2=love'
p310
I431
sS'w-2=how'
p311
I671
sS'w+2=rice'
p312
I462
sS'ccomp=head'
p313
I61
sS'nsubj=#NUMBER#'
p314
I168
sS'nsubj=participant'
p315
I203
sS'w+2=plan'
p316
I450
sS'advcl=lower'
p317
I9
sS'w+2=spot'
p318
I477
sS'advmod=so'
p319
I40
sS'w-2=camp'
p320
I637
sS'nsubjpass=Nigerians'
p321
I220
sS'w+1=its'
p322
I304
sS'w+2=labor'
p323
I426
sS'w+2=color'
p324
I381
sS'w+2=with'
p325
I502
sS'w-1=freshly'
p326
I548
sS"w-1=''"
p327
I505
sS'nsubj=Joplin'
p328
I177
sS'xcomp=increase'
p329
I762
sS'w-2=Iraqis'
p330
I610
sS'w-2=dump'
p331
I650
sS'advmod=just'
p332
I28
sS'w+2=air'
p333
I349
sS'nsubj=fireball'
p334
I191
sS'advcl=continue'
p335
I5
sS'w+2=role'
p336
I464
sS'nsubjpass=twenty-nine'
p337
I252
sS'advcl=name'
p338
I12
sS'w-2=african'
p339
I620
sS'dobj=landscape'
p340
I129
sS'ccomp=vacate'
p341
I65
sS'w+2=song'
p342
I475
sS'nsubj=owner'
p343
I200
sS'w-2=2003'
p344
I607
sS'w+1=Baghdad'
p345
I286
sS"w-2=''"
p346
I602
sS'w+2=of'
p347
I446
sS'w-2=tradeshow'
p348
I743
sS'w+2=market'
p349
I434
sS'w+2=cabinet'
p350
I372
sS'nsubj=fisherman'
p351
I192
sS'w+1=to'
p352
I328
sS'w+1=street'
p353
I320
sS'nsubjpass=book'
p354
I227
sS'w-1=hall'
p355
I551
sS'w+2=tourist'
p356
I491
sS'w-1=owner'
p357
I574
sS'w+2=he'
p358
I411
sS'w-2=route'
p359
I714
sS'w+1=so'
p360
I318
sS'prep=into'
p361
I269
sS'w-2=struggle'
p362
I730
sS'w-2=continue'
p363
I644
sS'conj=have'
p364
I75
sS'w+2=just'
p365
I424
sS'w+2=grow'
p366
I410
sS'w-2=until'
p367
I748
sS'w+1=seat'
p368
I316
sS'w-2=move'
p369
I686
sS'w-1=complex'
p370
I534
sS'prep=without'
p371
I277
sS'w+2=crate'
p372
I386
sS'w+2=american'
p373
I353
sS'w-2=arena'
p374
I624
sS'w-2=room'
p375
I713
sS'w-1=anthem'
p376
I521
sS'w-2=first'
p377
I658
sS'w-1=future'
p378
I550
sS'advmod=up'
p379
I44
sS'w+2=gap'
p380
I404
sS'nsubjpass=the'
p381
I251
sS'dobj=niche'
p382
I132
sS'w-1=showroom'
p383
I581
sS'w-2=Zimbabwe'
p384
I617
sS'w+2=gas'
p385
I405
sS'advmod=often'
p386
I32
sS'w+2=human'
p387
I414
sS'w+2=contain'
p388
I383
sS'dobj=prescription'
p389
I137
sS'nsubj=Iraqis'
p390
I176
sS'dobj=seat'
p391
I145
sS'w+2=Naivasha'
p392
I344
sS'w-2=diligent'
p393
I647
sS'w-2=would'
p394
I757
sS'w-2=boat'
p395
I630
sS'w-1=motorcycle'
p396
I563
sS'w+2=those'
p397
I489
sS'dobj=tank'
p398
I157
sS'w+1=mostly'
p399
I307
sS'tmod=day'
p400
I282
sS'nsubjpass=boat'
p401
I226
sS'nsubj=hall'
p402
I194
sS'w-2=gut'
p403
I662
sS'w+2=toxic'
p404
I492
sS'w-2=space'
p405
I727
sS'dobj=showroom'
p406
I149
sS'advmod=particularly'
p407
I35
sS'w-2=pop'
p408
I700
sS'prep=until'
p409
I275
sS'advmod=even'
p410
I22
sS'dobj=stadium'
p411
I152
sS'w-1=always'
p412
I519
sS'w+1=gap'
p413
I298
sS'conj=fill'
p414
I73
sS'dobj=cafe'
p415
I113
sS'dobj=job'
p416
I128
sS'advmod=ever'
p417
I23
sS'w-1=they'
p418
I592
sS'dep=so'
p419
I90
sS'w+2=survey'
p420
I483
sS'dobj=tent'
p421
I158
sS'w+1=labor'
p422
I305
sS'w-2=bank'
p423
I626
sS'w+2=debris'
p424
I389
sS'advcl=hit'
p425
I8
sS'nsubjpass=building'
p426
I228
sS'w+2=many'
p427
I433
sS'w-2=senior'
p428
I718
sS'w+2=new'
p429
I443
sS'w+2=loyalist'
p430
I432
sS'w-2=gleaming'
p431
I661
sS'w+2=bucket'
p432
I371
sS'prep=with'
p433
I276
sS'nsubj=Turks'
p434
I179
sS'w+2=debt'
p435
I390
sS'dobj=office'
p436
I133
sS'w-2=online'
p437
I696
sS'w+1=well'
p438
I334
sS'w-2=troops'
p439
I744
sS'nsubjpass=Square'
p440
I223
sS'nsubjpass=process'
p441
I244
sS'w-2=session'
p442
I719
sS'w+2=its'
p443
I422
sS'dobj=force'
p444
I122
sS'w-2=rush'
p445
I715
sS'w-2=India'
p446
I609
sS'w+2=container'
p447
I384
sS'conj=force'
p448
I74
sS'w-2=in'
p449
I674
sS'nsubjpass=field'
p450
I234
sS'w-2=it'
p451
I678
sS'advcl=believe'
p452
I3
sS'w-2=mosque'
p453
I685
sS'w-1=ocean'
p454
I568
sS'w-2=al-qaida'
p455
I622
sS'w+2=shortfall'
p456
I472
sS'nsubj=boom'
p457
I182
sS'w-2=film'
p458
I657
sS'w+2=hope'
p459
I412
sS'w+2=welding'
p460
I501
sS'w-1=Farmers'
p461
I512
sS'nsubjpass=vacuum'
p462
I253
sS'nsubjpass=morning'
p463
I238
sS'conj=use'
p464
I86
sS'dobj=schedule'
p465
I143
sS'advcl=open'
p466
I13
sS'dobj=rank'
p467
I138
sS"w+2=''"
p468
I337
sS'w-2=organization'
p469
I697
sS'w+2=office'
p470
I447
sS'w-2=help'
p471
I668
sS'w-2=worry'
p472
I756
sS'conj=continue'
p473
I70
sS'dobj=bar'
p474
I105
sS'advmod=also'
p475
I19
sS'nsubj=lawyer'
p476
I196
sS'w-2=student'
p477
I731
sS'w-1=room'
p478
I580
sS'w+2=control'
p479
I385
sS'nsubjpass=tent'
p480
I249
sS'mark=because'
p481
I163
sS'w-2=irish'
p482
I677
sS'w-2=program'
p483
I705
sS'w-2=hut'
p484
I672
sS'w+2=prescription'
p485
I455
sS'w-2=someone'
p486
I725
sS'w+2=need'
p487
I442
sS'w-2=have'
p488
I666
sS'w+2=job'
p489
I423
sS'cc=and'
p490
I56
sS'nsubj=student'
p491
I207
sS'advmod=currently'
p492
I21
sS'w-1=we'
p493
I599
sS'w+1=by'
p494
I294
sS'w+2=rush'
p495
I467
sS'w-1=just'
p496
I560
sS'w+2=Barack'
p497
I341
sS'w+2=shortage'
p498
I471
sS'w+2=broken'
p499
I370
sS'w+2=stand'
p500
I478
sS'nsubjpass=tank'
p501
I248
sS"w+2='s"
p502
I338
sS'nsubj=film'
p503
I190
sS'dobj=bill'
p504
I107
sS'nsubj=game'
p505
I193
sS'dobj=shoe'
p506
I146
sS'w-2=London'
p507
I611
sS'w+1=in'
p508
I302
sS'w-2=immigrant'
p509
I673
sS'w+1=it'
p510
I303
sS'mark=until'
p511
I165
sS'nsubj=BRAC'
p512
I171
sS'nsubj=#PRP#'
p513
I169
sS'nsubj=festival'
p514
I189
sS'w+1=old'
p515
I310
sS'w-2=sell'
p516
I717
sS'w+2=family'
p517
I396
sS'w-2=promise'
p518
I706
sS'conj=leave'
p519
I77
sS'cc=but'
p520
I57
sS'w-2=role'
p521
I712
sS'w-2=extra'
p522
I655
sS'w-2=set'
p523
I720
sS'dobj=complexity'
p524
I116
sS'w-2=race'
p525
I709
sS'advmod=ahead'
p526
I18
sS'w+2=critical'
p527
I387
sS'nsubj=boat'
p528
I181
sS'poss=#PRP#'
p529
I260
sS'dobj=void'
p530
I160
sS'w-2=equipment'
p531
I654
sS'w-1=help'
p532
I555
sS'w+2=tv'
p533
I493
sS'w-1=boat'
p534
I527
sS'w+2=up'
p535
I495
sS'w-2=Unleashed'
p536
I616
sS'w-2=shipmate'
p537
I722
sS'w+2=screen'
p538
I468
sS'w-2=begin'
p539
I629
sS'w-2=sonic'
p540
I726
sS'w-2=muscle'
p541
I687
sS'nsubj=jazz'
p542
I195
sS'advmod=ironically'
p543
I27
sS'nsubjpass=bus'
p544
I229
sS'w-1=pit'
p545
I577
sS'xcomp=cabinet'
p546
I760
sS'w-2=be'
p547
I628
sS'nsubj=sound'
p548
I206
sS'w+2=anybody'
p549
I355
sS'nsubjpass=music'
p550
I241
sS'dobj=screen'
p551
I144
sS'w+2=banjo'
p552
I359
sS'prep=on'
p553
I270
sS'mark=after'
p554
I161
sS'w+1=president-elect'
p555
I315
sS'w+2=bar'
p556
I360
sS'nsubj=man'
p557
I197
sS'w+2=much-needed'
p558
I439
sS'w-2=street'
p559
I729
sS'w-1=BRAC'
p560
I509
sS'w+2=promise'
p561
I457
sS'nsubj=builder'
p562
I183
sS'advcl=begin'
p563
I2
sS'w-1=Francesca'
p564
I513
sS'w-2=pond'
p565
I699
sS'conj=take'
p566
I83
sS'advcl=wash'
p567
I16
sS'dep=have'
p568
I89
sS'dobj=diary'
p569
I119
sS'ccomp=can'
p570
I60
sS'w+1=out'
p571
I314
sS'w+2=great'
p572
I408
sS'nsubjpass=cemetery'
p573
I230
sS'w-1=festival'
p574
I546
sS'w-2=hill'
p575
I670
sS'dobj=road'
p576
I139
sS'w+2=that'
p577
I485
sS'w-2=driver'
p578
I649
sS'nsubjpass=bank'
p579
I225
sS'advcl=there'
p580
I15
sS'w+2=most'
p581
I438
sS'dobj=hole'
p582
I127
sS'w-1=who'
p583
I600
sS'w-2=get'
p584
I660
sS'w+2=post'
p585
I454
sS'w-2=whose'
p586
I754
sS'w-2=campus'
p587
I638
sS'w-2=and'
p588
I623
sS'w+1=large'
p589
I306
sS'w+2=ministerial'
p590
I436
sS'dobj=street'
p591
I155
sS'nsubjpass=Rotunda'
p592
I222
sS'dobj=form'
p593
I123
sS'w+2=diamond'
p594
I391
sS'w-2=Nations'
p595
I612
sS'mark=while'
p596
I166
sS'w-2=to'
p597
I741
sS'w+2=and'
p598
I354
sS'tmod=#DATE#'
p599
I281
sS'w+2=it'
p600
I421
sS'w+1=up'
p601
I332
sS'w-1=start'
p602
I585
sS'nsubj=course'
p603
I186
sS'w-1=drum'
p604
I542
sS'w-2=national'
p605
I689
sS'prep=across'
p606
I261
sS'w-1=backpack'
p607
I524
sS'dobj=arena'
p608
I102
sS'w+1=this'
p609
I326
sS'nsubjpass=office'
p610
I242
sS'dobj=beach'
p611
I106
sS'w-1=Turks'
p612
I515
sS'w+2=atmosphere'
p613
I358
sS'w+2=ambient'
p614
I352
sS'w-2=minister'
p615
I684
sS'w+1=with'
p616
I336
sS'nsubjpass=Hall'
p617
I219
sS'advmod=now'
p618
I31
sS'w-1=trash'
p619
I594
sS'dobj=shortage'
p620
I147
sS'w-2=write'
p621
I758
sS'w-2=deadlock'
p622
I646
sS'w+2=the'
p623
I486
sS'prep=at'
p624
I263
sS'w-2=will'
p625
I755
sS'prep=as'
p626
I262
sS'w+1=stadium'
p627
I319
sS'dobj=sack'
p628
I142
sS'w-2=,'
p629
I603
sS'w-2=.'
p630
I604
sS'w+1=critical'
p631
I295
sS'w-1=and'
p632
I520
sS'w-2=try'
p633
I745
sS'w-2=bus'
p634
I635
sS'nsubjpass=dump'
p635
I233
sS'aux=have'
p636
I50
sS'dobj=demand'
p637
I118
sS'w+2=White'
p638
I347
sS'dobj=bladder'
p639
I108
sS'w-2=prepare'
p640
I703
sS'w-2=think'
p641
I739
sS'w-1=quickly'
p642
I578
sS'w+2=Duke'
p643
I342
sS'w-1=.'
p644
I507
sS'nsubj=devotee'
p645
I187
sS'w-1=,'
p646
I506
sS'w-2=now'
p647
I693
sS'advmod=rapidly'
p648
I37
sS'w+2=United'
p649
I346
sS'w-2=book'
p650
I631
sS'w+2=plastic'
p651
I451
sS'w+2=beach'
p652
I361
sS'w+2=foreign'
p653
I401
sS'prep=through'
p654
I273
sS'w+2=large'
p655
I428
sS'w+1=baguette'
p656
I293
sS'w+1=vacant'
p657
I333
sS'w+1=another'
p658
I292
sS'w+2=pit'
p659
I449
sS'advcl=make'
p660
I10
sS'w+2=government'
p661
I406
sS'nsubjpass=arena'
p662
I224
sS'w-2=a'
p663
I618
sS'w-2=look'
p664
I680
sS'nsubj=trash'
p665
I211
sS'nsubj=constitution'
p666
I185
sS'w+2=capacity'
p667
I375
sS'dobj=airwave'
p668
I99
sS'dobj=Naivasha'
p669
I96
sS'w+2=police'
p670
I452
sS'nsubjpass=which'
p671
I255
sS'w-2=he'
p672
I667
sS'w+2=inspiring'
p673
I419
sS'conj=run'
p674
I82
sS'mark=as'
p675
I162
sS'w-1=lot'
p676
I561
sS'w-1=he'
p677
I553
sS'w+2=security'
p678
I470
sS'w-1=Schools'
p679
I514
sS'w+1=Monday'
p680
I289
sS'w-2=hall'
p681
I664
sS'prep=except'
p682
I265
sS'nsubjpass=street'
p683
I247
sS'w-1=rapidly'
p684
I579
sS'w-2=tend'
p685
I734
sS'advmod=that'
p686
I43
sS'w+2=road'
p687
I463
sS'w+1=hole'
p688
I301
sS'w+2=they'
p689
I487
sS'w+2=coliseum'
p690
I380
sS'partmod=give'
p691
I258
sS'w-1=job'
p692
I558
sS'w-1=vehicle'
p693
I597
sS'w+2=best'
p694
I363
sS'w-2=tent'
p695
I735
sS'conj=accept'
p696
I67
sS'w+2=explosive'
p697
I395
sS'w-1=demonstrator'
p698
I539
sS'nsubj=camp'
p699
I184
sS'w-2=Nigerians'
p700
I613
sS'advmod=freshly'
p701
I25
sS'w+2=mud'
p702
I440
sS'w-2=drive'
p703
I648
sS'w-1=boom'
p704
I528
sS'dobj=stand'
p705
I153
sS'w-1=bean'
p706
I526
sS'dobj=container'
p707
I117
sS'w-1=also'
p708
I518
sS'advmod=how'
p709
I26
sS'w+2=chemical'
p710
I379
sS'w-1=ever'
p711
I544
sS'w-1=even'
p712
I543
sS'w-2=product'
p713
I704
sS'advcl=mark'
p714
I11
sS'w+2=showroom'
p715
I473
sS'prep=from'
p716
I267
sS'dobj=Square'
p717
I97
sS'w-2=post'
p718
I701
sS'w-1=box'
p719
I529
sS'w-2=advice'
p720
I619
sS'w-1=as'
p721
I523
sS'nsubjpass=mosque'
p722
I239
sS'w-1=artist'
p723
I522
sS'aux=to'
p724
I52
sS'nsubjpass=world'
p725
I256
sS'conj=hear'
p726
I76
sS'w+2=grief'
p727
I409
sS'w+1=new'
p728
I308
sS'w+2=Mr.'
p729
I343
sS'w+2=chamber'
p730
I377
sS'w-2=force'
p731
I659
sS'advmod=later'
p732
I29
sS'w+1=,'
p733
I284
sS'w+1=.'
p734
I285
sS'dobj=House'
p735
I94
sS'w-2=way'
p736
I750
sS'w+2=.'
p737
I340
sS'w+2=,'
p738
I339
sS'w-1=often'
p739
I569
sS'w-2=Room'
p740
I615
sS'neg=not'
p741
I167
sS'w-2=farmer'
p742
I656
sS'nsubj=mix'
p743
I198
sS'w+2=present'
p744
I456
sS'conj=lie'
p745
I78
sS'w-2=pick'
p746
I698
sS'w-2=ask'
p747
I625
sS'w+2=stomach'
p748
I480
sS'w+2=meat'
p749
I435
sS'advcl=asian'
p750
I0
sS'advmod=usually'
p751
I45
sS'w-1=on'
p752
I570
sS'w-2=constitution'
p753
I643
sS'w+1=a'
p754
I290
sS'w-1=now'
p755
I567
sS'w-1=not'
p756
I566
sS'w-2=water'
p757
I749
sS'w-2=man-made'
p758
I681
sS'w+2=woman'
p759
I503
sS'w-2=office'
p760
I695
sS'w-2=Ray'
p761
I614
sS'w+2=Senate'
p762
I345
sS'dobj=gap'
p763
I124
sS'w-1=that'
p764
I591
sS'aux=be'
p765
I48
sS'dobj=atmosphere'
p766
I103
sS'dobj=chamber'
p767
I115
sS'w-1=currently'
p768
I538
sS'dep=whether'
p769
I91
sS'w+2=big'
p770
I365
sS'w+2=a'
p771
I348
sS'dobj=hall'
p772
I126
sS'w+1=what'
p773
I335
ssS'dtype'
p774
cnumpy
float64
p775
sS'feature_names_'
p776
(lp777
g750
ag66
ag563
ag452
ag89
ag335
ag125
ag195
ag425
ag317
ag660
ag714
ag338
ag466
ag210
ag580
ag567
ag166
ag526
ag475
ag301
ag492
ag410
ag417
ag165
ag701
ag709
ag543
ag332
ag732
ag288
ag618
ag386
ag124
ag143
ag407
ag149
ag648
ag60
ag246
ag319
ag305
ag192
ag686
ag379
ag751
ag22
ag279
ag765
ag126
ag636
ag73
ag724
ag304
ag152
ag297
ag490
ag520
ag72
ag114
ag570
ag313
ag173
ag253
ag111
ag341
ag127
ag696
ag194
ag46
ag473
ag242
ag300
ag414
ag448
ag364
ag726
ag519
ag745
ag167
ag19
ag244
ag674
ag566
ag271
ag146
ag464
ag12
ag240
ag568
ag419
ag769
ag175
ag237
ag735
ag158
ag669
ag717
ag108
ag668
ag10
ag129
ag608
ag766
ag187
ag474
ag611
ag504
ag639
ag270
ag164
ag131
ag273
ag415
ag281
ag767
ag524
ag707
ag637
ag569
ag251
ag82
ag444
ag593
ag763
ag196
ag772
ag582
ag416
ag340
ag204
ag182
ag382
ag436
ag172
ag117
ag51
ag389
ag467
ag576
ag203
ag259
ag628
ag465
ag551
ag391
ag506
ag620
ag214
ag406
ag286
ag35
ag411
ag705
ag8
ag591
ag252
ag398
ag421
ag120
ag530
ag554
ag675
ag481
ag261
ag511
ag596
ag741
ag314
ag513
ag190
ag512
ag75
ag177
ag267
ag30
ag390
ag328
ag213
ag434
ag234
ag528
ag457
ag562
ag699
ag666
ag603
ag645
ag69
ag514
ag503
ag334
ag351
ag505
ag402
ag542
ag476
ag557
ag743
ag141
ag343
ag178
ag307
ag315
ag274
ag44
ag548
ag491
ag189
ag229
ag183
ag665
ag220
ag263
ag225
ag98
ag63
ag150
ag222
ag617
ag321
ag17
ag592
ag440
ag662
ag579
ag401
ag354
ag426
ag544
ag573
ag78
ag42
ag635
ag450
ag103
ag15
ag92
ag463
ag722
ag238
ag550
ag610
ag104
ag441
ag160
ag36
ag683
ag501
ag480
ag262
ag381
ag337
ag462
ag81
ag671
ag725
ag112
ag691
ag94
ag529
ag606
ag626
ag624
ag39
ag682
ag284
ag716
ag151
ag361
ag553
ag249
ag29
ag654
ag161
ag409
ag433
ag371
ag171
ag260
ag188
ag599
ag400
ag268
ag733
ag734
ag345
ag282
ag243
ag680
ag754
ag170
ag658
ag656
ag494
ag631
ag216
ag153
ag413
ag101
ag256
ag688
ag508
ag510
ag322
ag422
ag589
ag399
ag728
ag136
ag515
ag102
ag61
ag180
ag571
ag555
ag368
ag87
ag360
ag627
ag353
ag145
ag236
ag139
ag59
ag144
ag609
ag148
ag352
ag56
ag276
ag32
ag601
ag657
ag438
ag773
ag616
ag468
ag502
ag738
ag737
ag497
ag643
ag729
ag392
ag762
ag649
ag638
ag771
ag333
ag221
ag258
ag614
ag373
ag598
ag549
ag303
ag293
ag613
ag552
ag556
ag652
ag272
ag694
ag228
ag770
ag115
ag90
ag241
ag290
ag499
ag432
ag350
ag43
ag215
ag667
ag245
ag730
ag48
ag710
ag690
ag324
ag156
ag388
ag447
ag479
ag372
ag527
ag211
ag424
ag435
ag594
ag70
ag202
ag65
ag697
ag517
ag41
ag128
ag21
ag179
ag653
ag83
ag157
ag380
ag385
ag661
ag277
ag572
ag727
ag366
ag358
ag459
ag49
ag387
ag248
ag285
ag198
ag116
ag673
ag27
ag600
ag443
ag489
ag365
ag18
ag323
ag40
ag655
ag296
ag235
ag310
ag430
ag427
ag349
ag749
ag590
ag232
ag581
ag558
ag702
ag109
ag487
ag429
ag206
ag85
ag347
ag470
ag62
ag659
ag316
ag651
ag670
ag162
ag585
ag485
ag744
ag561
ag208
ag107
ag250
ag265
ag312
ag687
ag336
ag254
ag123
ag495
ag538
ag302
ag678
ag498
ag456
ag715
ag163
ag342
ag212
ag318
ag500
ag295
ag748
ag25
ag299
ag420
ag95
ag577
ag623
ag689
ag219
ag397
ag137
ag356
ag404
ag533
ag154
ag535
ag292
ag9
ag24
ag86
ag105
ag460
ag325
ag759
ag132
ag327
ag646
ag644
ag34
ag560
ag209
ag26
ag461
ag564
ag679
ag612
ag155
ag100
ag708
ag412
ag632
ag376
ag723
ag721
ag607
ag77
ag706
ag534
ag704
ag719
ag53
ag255
ag14
ag28
ag370
ag79
ag247
ag58
ag768
ag698
ag54
ag122
ag604
ag712
ag711
ag200
ag574
ag193
ag326
ag133
ag378
ag355
ag110
ag677
ag287
ag532
ag13
ag184
ag692
ag191
ag496
ag676
ag176
ag396
ag181
ag50
ag756
ag755
ag454
ag739
ag752
ag294
ag298
ag306
ag357
ag186
ag278
ag545
ag642
ag684
ag478
ag383
ag185
ag16
ag76
ag602
ag168
ag99
ag47
ag231
ag199
ag764
ag418
ag230
ag619
ag91
ag71
ag693
ag266
ag493
ag583
ag67
ag346
ag629
ag630
ag264
ag134
ag344
ag223
ag446
ag330
ag507
ag595
ag700
ag761
ag740
ag536
ag384
ag663
ag720
ag339
ag80
ag455
ag588
ag374
ag747
ag423
ag169
ag547
ag539
ag395
ag650
ag55
ag140
ag201
ag634
ag11
ag320
ag587
ag31
ag45
ag64
ag135
ag753
ag363
ag197
ag622
ag393
ag703
ag578
ag331
ag291
ag23
ag118
ag531
ag522
ag742
ag458
ag377
ag731
ag584
ag431
ag403
ag207
ag681
ag33
ag488
ag672
ag471
ag52
ag575
ag311
ag484
ag509
ag449
ag147
ag280
ag482
ag451
ag309
ag664
ag758
ag121
ag57
ag615
ag453
ag369
ag541
ag239
ag605
ag37
ag68
ag74
ag647
ag227
ag760
ag437
ag469
ag746
ag565
ag408
ag718
ag205
ag640
ag713
ag483
ag518
ag119
ag159
ag525
ag93
ag106
ag521
ag375
ag359
ag445
ag289
ag516
ag428
ag442
ag523
ag283
ag537
ag113
ag275
ag486
ag540
ag405
ag130
ag559
ag362
ag477
ag20
ag174
ag685
ag695
ag138
ag84
ag38
ag641
ag88
ag597
ag97
ag348
ag439
ag633
ag226
ag257
ag367
ag757
ag736
ag233
ag218
ag96
ag586
ag625
ag472
ag394
ag621
ag224
ag546
ag217
ag329
ag142
ag308
ag269
asS'separator'
p778
S'='
sS'sparse'
p779
I01
sb.