ccopy_reg
_reconstructor
p1
(csklearn.feature_extraction.dict_vectorizer
DictVectorizer
p2
c__builtin__
object
p3
NtRp4
(dp5
S'sort'
p6
I01
sS'feature_names_'
p7
(lp8
S'advcl=get'
p9
aS'advcl=meet'
p10
aS'advmod=actually'
p11
aS'advmod=also'
p12
aS'advmod=back'
p13
aS'advmod=certainly'
p14
aS'advmod=effectively'
p15
aS'advmod=how'
p16
aS'advmod=soon'
p17
aS'advmod=then'
p18
aS'advmod=therefore'
p19
aS'aux=can'
p20
aS'aux=could'
p21
aS'aux=do'
p22
aS'aux=might'
p23
aS'aux=must'
p24
aS'aux=to'
p25
aS'aux=will'
p26
aS'aux=would'
p27
aS'cc=and'
p28
aS'ccomp=make'
p29
aS'ccomp=possible'
p30
aS'ccomp=say'
p31
aS'complm=that'
p32
aS'complm=whether'
p33
aS'conj=country'
p34
aS'conj=elect'
p35
aS'conj=give'
p36
aS'conj=not'
p37
aS'dep=mandate'
p38
aS'dep=obligation'
p39
aS'dep=order'
p40
aS'dep=promise'
p41
aS'dep=remember'
p42
aS'dobj=#PRP#'
p43
aS'dobj=agreement'
p44
aS'dobj=aspiration'
p45
aS'dobj=calling'
p46
aS'dobj=campaign'
p47
aS'dobj=commitment'
p48
aS'dobj=condition'
p49
aS'dobj=demand'
p50
aS'dobj=desire'
p51
aS'dobj=dream'
p52
aS'dobj=duty'
p53
aS'dobj=end'
p54
aS'dobj=expectation'
p55
aS'dobj=interest'
p56
aS'dobj=kind'
p57
aS'dobj=mandate'
p58
aS'dobj=mission'
p59
aS'dobj=need'
p60
aS'dobj=obligation'
p61
aS'dobj=order'
p62
aS'dobj=phase'
p63
aS'dobj=pledge'
p64
aS'dobj=potential'
p65
aS'dobj=promise'
p66
aS'dobj=requirement'
p67
aS'dobj=responsibility'
p68
aS'dobj=role'
p69
aS'dobj=side'
p70
aS'dobj=that'
p71
aS'dobj=tour'
p72
aS'dobj=variety'
p73
aS'mark=as'
p74
aS'mark=because'
p75
aS'mark=if'
p76
aS'mark=in'
p77
aS'mark=so'
p78
aS'neg=not'
p79
aS'nsubj=#PRP#'
p80
aS'nsubj=Kibaki'
p81
aS'nsubj=Koreans'
p82
aS'nsubj=Pakistan'
p83
aS'nsubj=Palestinians'
p84
aS'nsubj=States'
p85
aS'nsubj=Ukraine'
p86
aS'nsubj=astronaut'
p87
aS'nsubj=government'
p88
aS'nsubj=party'
p89
aS'nsubj=point'
p90
aS'nsubj=skill'
p91
aS'nsubj=system'
p92
aS'nsubj=this'
p93
aS'nsubj=who'
p94
aS'prep=as'
p95
aS'prep=for'
p96
aS'prep=from'
p97
aS'prep=in'
p98
aS'prep=of'
p99
aS'prep=on'
p100
aS'prep=to'
p101
aS'prep=under'
p102
aS'prep=with'
p103
aS'prep=within'
p104
aS'w+1=,'
p105
aS'w+1=King'
p106
aS'w+1=Prime'
p107
aS'w+1=a'
p108
aS'w+1=and'
p109
aS'w+1=another'
p110
aS'w+1=any'
p111
aS'w+1=bail'
p112
aS'w+1=commitment'
p113
aS'w+1=he'
p114
aS'w+1=in'
p115
aS'w+1=international'
p116
aS'w+1=its'
p117
aS'w+1=market'
p118
aS'w+1=mission'
p119
aS'w+1=more'
p120
aS'w+1=my'
p121
aS'w+1=obligation'
p122
aS'w+1=pledge'
p123
aS'w+1=previous'
p124
aS'w+1=promise'
p125
aS'w+1=she'
p126
aS'w+1=such'
p127
aS'w+1=that'
p128
aS'w+1=the'
p129
aS'w+1=these'
p130
aS'w+1=they'
p131
aS'w+1=those'
p132
aS'w+1=vital'
p133
aS'w+1=we'
p134
aS'w+1=whatever'
p135
aS"w+2=''"
p136
aS"w+2='s"
p137
aS'w+2=,'
p138
aS'w+2=--'
p139
aS'w+2=.'
p140
aS'w+2=Minister'
p141
aS'w+2=agreement'
p142
aS'w+2=aspiration'
p143
aS'w+2=campaign'
p144
aS'w+2=childhood'
p145
aS'w+2=civic'
p146
aS'w+2=commitment'
p147
aS'w+2=condition'
p148
aS'w+2=constitutional'
p149
aS'w+2=demand'
p150
aS'w+2=dream'
p151
aS'w+2=duty'
p152
aS'w+2=end'
p153
aS'w+2=expectation'
p154
aS'w+2=far'
p155
aS'w+2=for'
p156
aS'w+2=full'
p157
aS'w+2=great'
p158
aS'w+2=humanitarian'
p159
aS'w+2=interest'
p160
aS'w+2=international'
p161
aS'w+2=it'
p162
aS'w+2=kind'
p163
aS'w+2=longtime'
p164
aS'w+2=make'
p165
aS'w+2=mandate'
p166
aS'w+2=mission'
p167
aS'w+2=necessary'
p168
aS'w+2=need'
p169
aS'w+2=obligation'
p170
aS'w+2=order'
p171
aS'w+2=overdue'
p172
aS'w+2=people'
p173
aS'w+2=pledge'
p174
aS'w+2=potential'
p175
aS'w+2=promise'
p176
aS'w+2=responsibility'
p177
aS'w+2=rights'
p178
aS'w+2=role'
p179
aS'w+2=side'
p180
aS'w+2=strategic'
p181
aS'w+2=than'
p182
aS'w+2=the'
p183
aS'w+2=they'
p184
aS'w+2=to'
p185
aS'w+2=tour'
p186
aS'w+2=traditional'
p187
aS'w+2=under'
p188
aS'w+2=variety'
p189
aS'w+2=we'
p190
aS"w-1=''"
p191
aS'w-1=Kibaki'
p192
aS'w-1=Palestinians'
p193
aS'w-1=States'
p194
aS'w-1=actually'
p195
aS'w-1=and'
p196
aS'w-1=can'
p197
aS'w-1=canto'
p198
aS'w-1=certainly'
p199
aS'w-1=might'
p200
aS'w-1=not'
p201
aS'w-1=present'
p202
aS'w-1=therefore'
p203
aS'w-1=they'
p204
aS'w-1=to'
p205
aS'w-1=we'
p206
aS'w-1=who'
p207
aS'w-1=will'
p208
aS'w-1=would'
p209
aS"w-2=''"
p210
aS'w-2=,'
p211
aS'w-2=Authority'
p212
aS'w-2=Congress'
p213
aS'w-2=Council'
p214
aS'w-2=I'
p215
aS'w-2=Iraq'
p216
aS'w-2=July'
p217
aS'w-2=Kinshasa'
p218
aS'w-2=Koreans'
p219
aS'w-2=States'
p220
aS'w-2=Ukraine'
p221
aS'w-2=United'
p222
aS'w-2=able'
p223
aS'w-2=agree'
p224
aS'w-2=aim'
p225
aS'w-2=ally'
p226
aS'w-2=also'
p227
aS'w-2=and'
p228
aS'w-2=as'
p229
aS'w-2=astronaut'
p230
aS'w-2=be'
p231
aS'w-2=begin'
p232
aS'w-2=come'
p233
aS'w-2=could'
p234
aS'w-2=country'
p235
aS'w-2=do'
p236
aS'w-2=donor'
p237
aS'w-2=elsewhere'
p238
aS'w-2=enough'
p239
aS'w-2=even'
p240
aS'w-2=fail'
p241
aS'w-2=faster'
p242
aS'w-2=government'
p243
aS'w-2=have'
p244
aS'w-2=he'
p245
aS'w-2=home'
p246
aS'w-2=identify'
p247
aS'w-2=if'
p248
aS'w-2=intend'
p249
aS'w-2=it'
p250
aS'w-2=mandate'
p251
aS'w-2=mean'
p252
aS'w-2=means'
p253
aS'w-2=measure'
p254
aS'w-2=million'
p255
aS'w-2=need'
p256
aS'w-2=oblige'
p257
aS'w-2=order'
p258
aS'w-2=place'
p259
aS'w-2=position'
p260
aS'w-2=prepare'
p261
aS'w-2=protect'
p262
aS'w-2=quickly'
p263
aS'w-2=ready'
p264
aS'w-2=respect'
p265
aS'w-2=seem'
p266
aS'w-2=skill'
p267
aS'w-2=slow'
p268
aS'w-2=space'
p269
aS'w-2=step'
p270
aS'w-2=support'
p271
aS'w-2=system'
p272
aS'w-2=that'
p273
aS'w-2=the'
p274
aS'w-2=they'
p275
aS'w-2=this'
p276
aS'w-2=time'
p277
aS'w-2=to'
p278
aS'w-2=try'
p279
aS'w-2=unable'
p280
aS'w-2=unity'
p281
aS'w-2=want'
p282
aS'w-2=we'
p283
aS'w-2=will'
p284
aS'w-2=willingness'
p285
aS'w-2=woman'
p286
aS'xcomp=combat'
p287
aS'xcomp=fight'
p288
aS'xcomp=provide'
p289
aS'xcomp=pull'
p290
aS'xcomp=shut'
p291
aS'xcomp=stamp'
p292
asS'dtype'
p293
cnumpy
float64
p294
sS'vocabulary_'
p295
(dp296
g18
I9
sg238
I229
sg37
I28
sg87
I78
sg252
I243
sg106
I97
sg93
I84
sg82
I73
sg36
I27
sg171
I162
sg112
I103
sg14
I5
sg168
I159
sg283
I274
sg269
I260
sg73
I64
sg241
I232
sg202
I193
sg157
I148
sg182
I173
sg116
I107
sg186
I177
sg35
I26
sg137
I128
sg115
I106
sg199
I190
sg59
I50
sg207
I198
sg291
I282
sg267
I258
sg107
I98
sg282
I273
sg287
I278
sg145
I136
sg180
I171
sg49
I40
sg94
I85
sg175
I166
sg30
I21
sg142
I133
sg47
I38
sg272
I263
sg256
I247
sg189
I180
sg91
I82
sg260
I251
sg234
I225
sg275
I266
sg55
I46
sg205
I196
sg92
I83
sg278
I269
sg104
I95
sg228
I219
sg39
I30
sg153
I144
sg235
I226
sg128
I119
sg11
I2
sg276
I267
sg43
I34
sg290
I281
sg88
I79
sg139
I130
sg279
I270
sg122
I113
sg261
I252
sg209
I200
sg149
I140
sg83
I74
sg253
I244
sg274
I265
sg239
I230
sg22
I13
sg124
I115
sg245
I236
sg53
I44
sg60
I51
sg10
I1
sg227
I218
sg26
I17
sg172
I163
sg119
I110
sg44
I35
sg117
I108
sg81
I72
sg178
I169
sg262
I253
sg236
I227
sg249
I240
sg161
I152
sg183
I174
sg154
I145
sg45
I36
sg195
I186
sg208
I199
sg215
I206
sg174
I165
sg103
I94
sg41
I32
sg114
I105
sg163
I154
sg165
I156
sg248
I239
sg113
I104
sg50
I41
sg158
I149
sg188
I179
sg281
I272
sg40
I31
sg173
I164
sg19
I10
sg57
I48
sg62
I53
sg197
I188
sg258
I249
sg265
I256
sg229
I220
sg151
I142
sg126
I117
sg123
I114
sg277
I268
sg155
I146
sg223
I214
sg164
I155
sg193
I184
sg247
I238
sg17
I8
sg51
I42
sg250
I241
sg66
I57
sg118
I109
sg285
I276
sg225
I216
sg75
I66
sg23
I14
sg194
I185
sg46
I37
sg61
I52
sg160
I151
sg185
I176
sg264
I255
sg29
I20
sg13
I4
sg213
I204
sg204
I195
sg270
I261
sg96
I87
sg146
I137
sg198
I189
sg246
I237
sg233
I224
sg9
I0
sg111
I102
sg134
I125
sg31
I22
sg52
I43
sg58
I49
sg170
I161
sg84
I75
sg34
I25
sg136
I127
sg74
I65
sg289
I280
sg230
I221
sg162
I153
sg166
I157
sg42
I33
sg268
I259
sg64
I55
sg286
I277
sg20
I11
sg32
I23
sg78
I69
sg33
I24
sg120
I111
sg135
I126
sg220
I211
sg110
I101
sg169
I160
sg288
I279
sg48
I39
sg244
I235
sg167
I158
sg28
I19
sg226
I217
sg184
I175
sg90
I81
sg102
I93
sg273
I264
sg101
I92
sg129
I120
sg133
I124
sg231
I222
sg181
I172
sg72
I63
sg67
I58
sg131
I122
sg217
I208
sg143
I134
sg86
I77
sg68
I59
sg132
I123
sg257
I248
sg130
I121
sg159
I150
sg54
I45
sg99
I90
sg214
I205
sg179
I170
sg98
I89
sg222
I213
sg16
I7
sg27
I18
sg177
I168
sg224
I215
sg56
I47
sg141
I132
sg148
I139
sg71
I62
sg266
I257
sg80
I71
sg97
I88
sg237
I228
sg191
I182
sg203
I194
sg121
I112
sg255
I246
sg12
I3
sg38
I29
sg15
I6
sg187
I178
sg206
I197
sg25
I16
sg259
I250
sg254
I245
sg125
I116
sg263
I254
sg127
I118
sg271
I262
sg109
I100
sg218
I209
sg284
I275
sg70
I61
sg21
I12
sg210
I201
sg292
I283
sg105
I96
sg95
I86
sg89
I80
sg140
I131
sg221
I212
sg138
I129
sg156
I147
sg212
I203
sg79
I70
sg232
I223
sg211
I202
sg24
I15
sg219
I210
sg196
I187
sg144
I135
sg243
I234
sg242
I233
sg280
I271
sg251
I242
sg85
I76
sg63
I54
sg200
I191
sg152
I143
sg190
I181
sg65
I56
sg108
I99
sg201
I192
sg150
I141
sg216
I207
sg192
I183
sg147
I138
sg100
I91
sg76
I67
sg240
I231
sg69
I60
sg77
I68
sg176
I167
ssS'separator'
p297
S'='
sS'sparse'
p298
I01
sb.