ccopy_reg
_reconstructor
p1
(csklearn.feature_extraction.dict_vectorizer
DictVectorizer
p2
c__builtin__
object
p3
NtRp4
(dp5
S'vocabulary_'
p6
(dp7
S'w+1=strongly'
p8
I192
sS'nsubj=Atlan'
p9
I78
sS'w+2=Giuliani'
p10
I200
sS'aux=have'
p11
I28
sS'nsubj=Aounit'
p12
I75
sS'w-2=but'
p13
I395
sS'w-2=people'
p14
I428
sS'nsubj=Agina'
p15
I74
sS'w+2=but'
p16
I209
sS'w-1=Defense'
p17
I250
sS'nsubj=Leoneans'
p18
I103
sS'w-2=Secretary'
p19
I376
sS'w-2=just'
p20
I416
sS'nsubj=Gates'
p21
I97
sS'w-1=Sando'
p22
I278
sS'w-2=they'
p23
I441
sS'nsubj=Sando'
p24
I120
sS'w+2=COSATU'
p25
I198
sS'nsubj=many'
p26
I154
sS'w-1=Goodson'
p27
I257
sS'nsubj=rebel'
p28
I163
sS'w-1=,'
p29
I238
sS'w-2=country'
p30
I401
sS'w+1=that'
p31
I193
sS'w-2=israeli'
p32
I415
sS'nsubj=government'
p33
I147
sS'w-2=Democrats'
p34
I352
sS'prep=in'
p35
I174
sS'w-2=Mitch'
p36
I366
sS'nsubj=commentator'
p37
I139
sS'w+2=disarmament'
p38
I210
sS'w-1=team'
p39
I334
sS'w-1=Russia'
p40
I276
sS'nsubj=Muslims'
p41
I110
sS'advmod=so'
p42
I18
sS'w-1=Brown'
p43
I245
sS'w-2=we'
p44
I447
sS'w+2=several'
p45
I222
sS'w-2=Justice'
p46
I361
sS'w-2=movement'
p47
I421
sS'advmod=sharply'
p48
I17
sS'nsubj=China'
p49
I89
sS'w-1=McConnell'
p50
I266
sS'w-1=Hurreh'
p51
I258
sS'nsubj=costa'
p52
I141
sS'w-2=the'
p53
I440
sS'w-1=leadership'
p54
I306
sS'w-1=Professor'
p55
I273
sS'advcl=estimate'
p56
I2
sS'w-2=why'
p57
I451
sS'w-1=negotiator'
p58
I313
sS'w-2=where'
p59
I449
sS'w-2=as'
p60
I392
sS'advmod=totally'
p61
I20
sS'w-1=Bush'
p62
I246
sS'mark=because'
p63
I68
sS'aux=might'
p64
I30
sS'w+1=on'
p65
I190
sS'w-2=many'
p66
I418
sS'w-2=anthropologist'
p67
I390
sS'w-1=region'
p68
I327
sS'w-1=Whitman'
p69
I286
sS'w-1=expert'
p70
I298
sS'w-1=have'
p71
I302
sS'ccomp=say'
p72
I48
sS'w-2=Marange'
p73
I364
sS'nsubj=Blair'
p74
I84
sS'w-1=Congress'
p75
I248
sS'nsubj=Enrique'
p76
I93
sS'dep=though'
p77
I63
sS'w+2=what'
p78
I233
sS'w-2=Ngozi'
p79
I370
sS'ccomp=have'
p80
I44
sS'nsubj=Woudenberg'
p81
I134
sS'w-1=totally'
p82
I337
sS'prep=about'
p83
I172
sS'aux=can'
p84
I26
sS'complm=that'
p85
I51
sS'nsubj=scientist'
p86
I166
sS'w-1=Leoneans'
p87
I263
sS'w-2=General'
p88
I356
sS'w-1=commentator'
p89
I295
sS'rel=who'
p90
I180
sS'w-2=Vincent'
p91
I385
sS'w-1=only'
p92
I319
sS'w-2=that'
p93
I439
sS'nsubj=Goodson'
p94
I100
sS'advmod=only'
p95
I14
sS'w-1=U.N.'
p96
I282
sS'prep=as'
p97
I173
sS'w+2=McCain'
p98
I203
sS'nsubj=McNeill'
p99
I105
sS'aux=would'
p100
I32
sS'w-2=leader'
p101
I417
sS'w+1=entirely'
p102
I189
sS'nsubj=U.N.'
p103
I126
sS'advmod=yet'
p104
I25
sS'w-2=poll'
p105
I430
sS'nsubj=Sanchez'
p106
I119
sS'conj=vow'
p107
I60
sS'w-2=a'
p108
I387
sS'w+1=and'
p109
I188
sS'w+2=jabatus'
p110
I215
sS'w-2=tank'
p111
I438
sS'w+2=how'
p112
I213
sS'w-1=family'
p113
I299
sS'nsubj=member'
p114
I155
sS'w-1=Meles'
p115
I268
sS'w-1=it'
p116
I304
sS'w-1=Boucher'
p117
I244
sS'nsubj=Talalay'
p118
I125
sS'nsubj=group'
p119
I148
sS'conj=be'
p120
I55
sS'nsubj=Son'
p121
I122
sS'nsubj=Gonzales'
p122
I99
sS'w-1=Muslims'
p123
I269
sS'w-2=Security'
p124
I377
sS'mark=if'
p125
I69
sS'nsubj=Okonjo-Iweala'
p126
I111
sS'w-2=intelligence'
p127
I412
sS'advmod=where'
p128
I23
sS'w-2=cause'
p129
I397
sS'nsubj=Republican'
p130
I116
sS'w-1=IMF'
p131
I260
sS'w+2=ownership'
p132
I218
sS'nsubj=Clapp'
p133
I90
sS'nsubj=Gabr'
p134
I96
sS'ccomp=put'
p135
I47
sS'nsubj=who'
p136
I169
sS'w-1=costa'
p137
I296
sS'w-2=of'
p138
I425
sS'w-1=to'
p139
I336
sS'w-2=da'
p140
I402
sS'nsubj=percent'
p141
I162
sS'nsubj=party'
p142
I160
sS'dobj=#PRP#'
p143
I64
sS'w-1=Wise'
p144
I287
sS'nsubj=head'
p145
I149
sS'nsubj=McNerney'
p146
I106
sS'w-2=friend'
p147
I406
sS'w-1=Gonzales'
p148
I256
sS'nsubj=scholar'
p149
I165
sS'nsubj=Salem'
p150
I118
sS'w-2=Mohamud'
p151
I367
sS'advmod=however'
p152
I10
sS'w-2=and'
p153
I389
sS'prep=over'
p154
I176
sS'w-2=army'
p155
I391
sS'nsubj=Italy'
p156
I102
sS'w-1=country'
p157
I297
sS'w-1=Gates'
p158
I253
sS'w-2=military'
p159
I419
sS'w-1=can'
p160
I293
sS'w-1=activist'
p161
I288
sS'w+2=whether'
p162
I234
sS'w-2=Bryan'
p163
I348
sS'ccomp=be'
p164
I37
sS'w-1=Bakir'
p165
I240
sS'advmod=when'
p166
I22
sS'w-1=Peres'
p167
I272
sS'w-2=rights'
p168
I433
sS'w-1=Kentucky'
p169
I262
sS'w-2=Forces'
p170
I355
sS'xcomp=say'
p171
I453
sS'nsubj=Scalia'
p172
I121
sS'w-2=bar'
p173
I393
sS'w+2=they'
p174
I228
sS'nsubj=Bush'
p175
I87
sS'w-1=much'
p176
I312
sS'w-2=Mr.'
p177
I368
sS'w+2=include'
p178
I214
sS'w-2=Use'
p179
I384
sS'w-1=long'
p180
I307
sS'conj=recruit'
p181
I58
sS'w-2=Though'
p182
I381
sS'w-1=one'
p183
I318
sS'w-1=Fayad'
p184
I252
sS'w-1=party'
p185
I323
sS'nsubj=McConnell'
p186
I104
sS'w-1=Star'
p187
I280
sS'w-1=Getty'
p188
I254
sS'advmod=much'
p189
I12
sS'w-2=Salam'
p190
I374
sS'w-1=shopkeeper'
p191
I332
sS'w+2=say'
p192
I221
sS'ccomp=force'
p193
I41
sS'nsubj=#NUMBER#'
p194
I72
sS'w+2=with'
p195
I235
sS"w-1=''"
p196
I237
sS'w-2=ANC'
p197
I346
sS'w-2=al-Youssef'
p198
I388
sS'nsubj=Minister'
p199
I108
sS'w-1=people'
p200
I325
sS'w-2=most'
p201
I420
sS'nsubj=Bakir'
p202
I80
sS'w-2=JI'
p203
I360
sS'w-1=UNDP'
p204
I283
sS"w-2=''"
p205
I342
sS'w-2=Europeans'
p206
I354
sS'nsubj=Rohrabacher'
p207
I117
sS'nsubj=anthropologist'
p208
I137
sS'nsubj=expert'
p209
I145
sS'ccomp=gifted'
p210
I42
sS'w-1=and'
p211
I291
sS'w-2=Arizona'
p212
I347
sS'nsubj=opponent'
p213
I158
sS'w-2=University'
p214
I383
sS'w-2=U.S.'
p215
I382
sS'prep=without'
p216
I178
sS'w-2=Chris'
p217
I349
sS'w+2=american'
p218
I207
sS'aux=may'
p219
I29
sS"w-2='s"
p220
I343
sS'w-2=environmentalist'
p221
I405
sS'w-2=islamic'
p222
I414
sS'w-1=Casey'
p223
I247
sS'nsubj=Meles'
p224
I107
sS'w-2=no'
p225
I424
sS'advmod=often'
p226
I13
sS'w-1=Benbow'
p227
I242
sS'w-2=Shimon'
p228
I378
sS'w+1=over'
p229
I191
sS'w-2=would'
p230
I452
sS'w-2=Teferri'
p231
I380
sS'w+2=those'
p232
I230
sS'w+2=this'
p233
I229
sS'nsubj=Hamas'
p234
I101
sS'nsubj=Fayad'
p235
I95
sS'w-2=which'
p236
I450
sS'w-2=congresswoman'
p237
I399
sS'w-1=official'
p238
I316
sS'w-2=disagree'
p239
I403
sS'advmod=even'
p240
I8
sS'nsubj=court'
p241
I143
sS'w-1=Ottaway'
p242
I271
sS'w-1=other'
p243
I322
sS'w-2=international'
p244
I413
sS'advmod=fundamentally'
p245
I9
sS'mark=while'
p246
I70
sS'aux=do'
p247
I27
sS'w-1=opposition'
p248
I321
sS'w-1=McCain'
p249
I265
sS'w-1=Council'
p250
I249
sS'w+2=many'
p251
I216
sS'nsubj=analyst'
p252
I136
sS'w-1=analyst'
p253
I290
sS'nsubj=States'
p254
I124
sS'nsubj=people'
p255
I161
sS'prep=with'
p256
I177
sS'cc=or'
p257
I35
sS'nsubj=commander'
p258
I138
sS'w-2=still'
p259
I437
sS'w-2=though'
p260
I442
sS'w+2=Rice'
p261
I204
sS'w-2=if'
p262
I410
sS'w-2=India'
p263
I359
sS'nsubj=family'
p264
I146
sS'w-2=candidate'
p265
I396
sS'w-2=in'
p266
I411
sS'nsubj=leader'
p267
I151
sS'w-1=Democrats'
p268
I251
sS'w-1=fundamentally'
p269
I300
sS'nsubj=Moscow'
p270
I109
sS'w-1=Rohrabacher'
p271
I275
sS'advcl=define'
p272
I1
sS'rel=on'
p273
I179
sS'w-2=start'
p274
I436
sS"w+2=''"
p275
I195
sS'nsubj=country'
p276
I142
sS'advmod=also'
p277
I6
sS'w-1=Talalay'
p278
I281
sS'mark=although'
p279
I66
sS'w-1=peacefully'
p280
I324
sS'w-2=program'
p281
I431
sS'nsubj=Beinert'
p282
I82
sS'w-2=Group'
p283
I357
sS'advmod=why'
p284
I24
sS'w-2=have'
p285
I407
sS'cc=and'
p286
I33
sS'w-1=Venezuelans'
p287
I285
sS'nsubj=Democrats'
p288
I92
sS'w-1=opponent'
p289
I320
sS'w-1=but'
p290
I292
sS'w-2=when'
p291
I448
sS'conj=say'
p292
I59
sS'w+2=some'
p293
I223
sS'nsubj=official'
p294
I157
sS'w-1=strongly'
p295
I333
sS'w-2=however'
p296
I409
sS'w+1=-lrb-'
p297
I184
sS'w-2=Sierra'
p298
I379
sS'nsubj=#PRP#'
p299
I73
sS'w+1=about'
p300
I187
sS'nsubj=Bassey'
p301
I81
sS'nsubj=Venezuelans'
p302
I130
sS"w+1=''"
p303
I181
sS'nsubj=Gingrich'
p304
I98
sS'conj=agree'
p305
I53
sS'w-1=office'
p306
I315
sS'cc=but'
p307
I34
sS'w-2=party'
p308
I427
sS'w-1=sharply'
p309
I331
sS'nsubj=Casey'
p310
I88
sS'w-2=President'
p311
I372
sS'w-1=commander'
p312
I294
sS'dep=if'
p313
I62
sS'advmod=violently'
p314
I21
sS'advmod=again'
p315
I5
sS'w-2=my'
p316
I422
sS'w-1=might'
p317
I311
sS'w-1=McNeill'
p318
I267
sS'nsubj=negotiator'
p319
I156
sS'w-1=group'
p320
I301
sS'w-1=respectfully'
p321
I328
sS'nsubj=Whitman'
p322
I132
sS'w-2=Naomi'
p323
I369
sS'prep=on'
p324
I175
sS'nsubj=man'
p325
I153
sS'nsubj=resident'
p326
I164
sS'nsubj=Rao'
p327
I115
sS'nsubj=speaker'
p328
I168
sS'w-1=Bassey'
p329
I241
sS'nsubj=White'
p330
I131
sS'nsubj=Brown'
p331
I86
sS'nsubj=congresswoman'
p332
I140
sS'ccomp=isolate'
p333
I46
sS'nsubj=Asfaw'
p334
I76
sS'ccomp=due'
p335
I40
sS'w+2=such'
p336
I225
sS'nsubj=Professor'
p337
I114
sS'w+2=that'
p338
I226
sS'w-2=to'
p339
I443
sS'w-2=Hamas'
p340
I358
sS'w+2=Kerry'
p341
I202
sS'w-1=who'
p342
I340
sS'dobj=s'
p343
I65
sS'w+2=,'
p344
I196
sS'w-1=leader'
p345
I305
sS'w+2=each'
p346
I211
sS'w+2=Dowd'
p347
I199
sS'conj=back'
p348
I54
sS'ccomp=catastrophic'
p349
I38
sS'w-2=committee'
p350
I398
sS'conj=go'
p351
I56
sS'w+2=and'
p352
I208
sS'dep=be'
p353
I61
sS'w-1=Sanchez'
p354
I277
sS'w-1=Lifesharers'
p355
I264
sS'parataxis=fund'
p356
I170
sS'w-1=scholar'
p357
I329
sS'nsubj=Benbow'
p358
I83
sS'w-2=Larry'
p359
I362
sS'w-2=he'
p360
I408
sS'w-2=scientist'
p361
I435
sS'nsubj=Court'
p362
I91
sS'advcl=cooperate'
p363
I0
sS'w+1=with'
p364
I194
sS'w-2=totally'
p365
I444
sS'w-2=Marina'
p366
I365
sS'w-2=say'
p367
I434
sS'w-2=do'
p368
I404
sS'w+2=the'
p369
I227
sS'nsubj=U.S.'
p370
I127
sS'advmod=peacefully'
p371
I15
sS'w-2=,'
p372
I344
sS'w-2=.'
p373
I345
sS'w-2=Maoists'
p374
I363
sS'w+2=he'
p375
I212
sS'nsubj=ke-etshabe'
p376
I150
sS"w-2='"
p377
I341
sS'nsubj=Ottaway'
p378
I112
sS'ccomp=send'
p379
I49
sS'ccomp=happen'
p380
I43
sS'w-1=rebel'
p381
I326
sS'nsubj=Europeans'
p382
I94
sS'w-1=Gingrich'
p383
I255
sS'advmod=strongly'
p384
I19
sS'w-1=Rao'
p385
I274
sS'w-1=Agina'
p386
I239
sS'w-1=also'
p387
I289
sS'w+2=one'
p388
I217
sS'advmod=long'
p389
I11
sS'w-2=other'
p390
I426
sS'w-1=I'
p391
I259
sS'w+2=you'
p392
I236
sS'w-2=Sagar'
p393
I373
sS'nsubj=shopkeeper'
p394
I167
sS'w-1=they'
p395
I335
sS'w-2=Salem'
p396
I375
sS'nsubj=Peres'
p397
I113
sS'nsubj=Boucher'
p398
I85
sS'mark=as'
p399
I67
sS'w-1=he'
p400
I303
sS'advcl=seem'
p401
I3
sS'ccomp=argue'
p402
I36
sS'nsubj=Undis'
p403
I129
sS'w-2=very'
p404
I446
sS'advmod=entirely'
p405
I7
sS'w+2=violent'
p406
I231
sS'nsubj=director'
p407
I144
sS'w-1=violently'
p408
I338
sS'w-1=Okonjo-Iweala'
p409
I270
sS'nsubj=other'
p410
I159
sS'nsubj=Wise'
p411
I133
sS'w-1=scientist'
p412
I330
sS'ccomp=inevitable'
p413
I45
sS'w-2=political'
p414
I429
sS'w+2=specific'
p415
I224
sS'w-1=Justice'
p416
I261
sS'w-2=prosecution'
p417
I432
sS'nsubj=activist'
p418
I135
sS'w-2=Nonproliferation'
p419
I371
sS'w-2=Dana'
p420
I351
sS'w-2=Daily'
p421
I350
sS'nsubj=Atkinson'
p422
I77
sS'w+2=U.S.'
p423
I205
sS'ccomp=tool'
p424
I50
sS'nsubj=UNDP'
p425
I128
sS'nsubj=Baker'
p426
I79
sS'w-1=member'
p427
I310
sS'advmod=respectfully'
p428
I16
sS'w-2=conservative'
p429
I400
sS'advcl=show'
p430
I4
sS'w-1=we'
p431
I339
sS'aux=to'
p432
I31
sS'w-1=Union'
p433
I284
sS'conj=acknowledge'
p434
I52
sS'w+1=-'
p435
I183
sS'w+1=,'
p436
I182
sS'w+1=.'
p437
I185
sS'w+2=.'
p438
I197
sS'partmod=watch'
p439
I171
sS'w-1=often'
p440
I317
sS'neg=not'
p441
I71
sS'w+1=?'
p442
I186
sS'w-1=Scalia'
p443
I279
sS'w+2=vow'
p444
I232
sS'nsubj=leadership'
p445
I152
sS'w-2=nigerian'
p446
I423
sS'w+2=I'
p447
I201
sS'w-2=Zikalala'
p448
I386
sS'w-1=Blair'
p449
I243
sS'conj=propose'
p450
I57
sS'w+2=race'
p451
I219
sS'w-1=not'
p452
I314
sS'w+2=s'
p453
I220
sS'w-1=may'
p454
I309
sS'w-2=because'
p455
I394
sS'nsubj=Star'
p456
I123
sS'w-2=two'
p457
I445
sS'ccomp=diminish'
p458
I39
sS'w+2=a'
p459
I206
sS'w-2=European'
p460
I353
sS'w-1=man'
p461
I308
ssS'dtype'
p462
cnumpy
float64
p463
sS'feature_names_'
p464
(lp465
g363
ag272
ag56
ag401
ag430
ag315
ag277
ag405
ag240
ag245
ag152
ag389
ag189
ag226
ag95
ag371
ag428
ag48
ag42
ag384
ag61
ag314
ag166
ag128
ag284
ag104
ag84
ag247
ag11
ag219
ag64
ag432
ag100
ag286
ag307
ag257
ag402
ag164
ag349
ag458
ag335
ag193
ag210
ag380
ag80
ag413
ag333
ag135
ag72
ag379
ag424
ag85
ag434
ag305
ag348
ag120
ag351
ag450
ag181
ag292
ag107
ag353
ag313
ag77
ag143
ag343
ag279
ag399
ag63
ag125
ag246
ag441
ag194
ag299
ag15
ag12
ag334
ag422
ag9
ag426
ag202
ag301
ag282
ag358
ag74
ag398
ag331
ag175
ag310
ag49
ag133
ag362
ag288
ag76
ag382
ag235
ag134
ag21
ag304
ag122
ag94
ag234
ag156
ag18
ag186
ag99
ag146
ag224
ag199
ag270
ag41
ag126
ag378
ag397
ag337
ag327
ag130
ag207
ag150
ag106
ag24
ag172
ag121
ag456
ag254
ag118
ag103
ag370
ag425
ag403
ag302
ag330
ag322
ag411
ag81
ag418
ag252
ag208
ag258
ag37
ag332
ag52
ag276
ag241
ag407
ag209
ag264
ag33
ag119
ag145
ag376
ag267
ag445
ag325
ag26
ag114
ag319
ag294
ag213
ag410
ag142
ag255
ag141
ag28
ag326
ag149
ag86
ag394
ag328
ag136
ag356
ag439
ag83
ag97
ag35
ag324
ag154
ag256
ag216
ag273
ag90
ag303
ag436
ag435
ag297
ag437
ag442
ag300
ag109
ag102
ag65
ag229
ag8
ag31
ag364
ag275
ag344
ag438
ag25
ag347
ag10
ag447
ag341
ag98
ag261
ag423
ag459
ag218
ag352
ag16
ag38
ag346
ag375
ag112
ag178
ag110
ag251
ag388
ag132
ag451
ag453
ag192
ag45
ag293
ag415
ag336
ag338
ag369
ag174
ag233
ag232
ag406
ag444
ag78
ag162
ag195
ag392
ag196
ag29
ag386
ag165
ag329
ag227
ag449
ag117
ag43
ag62
ag223
ag75
ag250
ag17
ag268
ag184
ag158
ag188
ag383
ag148
ag27
ag51
ag391
ag131
ag416
ag169
ag87
ag355
ag249
ag50
ag318
ag115
ag123
ag409
ag242
ag167
ag55
ag385
ag271
ag40
ag354
ag22
ag443
ag187
ag278
ag96
ag204
ag433
ag287
ag69
ag144
ag161
ag387
ag253
ag211
ag290
ag160
ag312
ag89
ag137
ag157
ag70
ag113
ag269
ag320
ag71
ag400
ag116
ag345
ag54
ag180
ag461
ag454
ag427
ag317
ag176
ag58
ag452
ag306
ag238
ag440
ag183
ag92
ag289
ag248
ag243
ag185
ag280
ag200
ag381
ag68
ag321
ag357
ag412
ag309
ag191
ag295
ag39
ag395
ag139
ag82
ag408
ag431
ag342
ag377
ag205
ag220
ag372
ag373
ag197
ag212
ag163
ag217
ag421
ag420
ag34
ag460
ag206
ag170
ag88
ag283
ag340
ag263
ag203
ag46
ag359
ag374
ag73
ag366
ag36
ag151
ag177
ag323
ag79
ag419
ag311
ag393
ag190
ag396
ag19
ag124
ag228
ag298
ag231
ag182
ag215
ag214
ag179
ag91
ag448
ag108
ag198
ag153
ag67
ag155
ag60
ag173
ag455
ag13
ag265
ag129
ag350
ag237
ag429
ag30
ag140
ag239
ag368
ag221
ag147
ag285
ag360
ag296
ag262
ag266
ag127
ag244
ag222
ag32
ag20
ag101
ag66
ag159
ag201
ag47
ag316
ag446
ag225
ag138
ag390
ag308
ag14
ag414
ag105
ag281
ag417
ag168
ag367
ag361
ag274
ag259
ag111
ag93
ag53
ag23
ag260
ag339
ag365
ag457
ag404
ag44
ag291
ag59
ag236
ag57
ag230
ag171
asS'separator'
p466
S'='
sS'sparse'
p467
I01
sb.