ccopy_reg
_reconstructor
p1
(csklearn.feature_extraction.dict_vectorizer
DictVectorizer
p2
c__builtin__
object
p3
NtRp4
(dp5
S'vocabulary_'
p6
(dp7
S'advmod=then'
p8
I40
sS'w-2=billion'
p9
I508
sS'w-2=Taiwan'
p10
I496
sS'advmod=more'
p11
I23
sS'aux=have'
p12
I49
sS'dobj=score'
p13
I124
sS'w-2=option'
p14
I567
sS'nsubj=refugee'
p15
I166
sS'w+2=problem'
p16
I376
sS'w-2=administration'
p17
I500
sS'w-2=people'
p18
I570
sS'nsubj=third'
p19
I170
sS'nsubj=Commission'
p20
I144
sS'conj=welcome'
p21
I87
sS'advmod=well'
p22
I42
sS'w-2=election'
p23
I531
sS'nsubjpass=difference'
p24
I186
sS'w-2=new'
p25
I562
sS'w-2=too'
p26
I597
sS'w+2=overseas'
p27
I371
sS'w-2=just'
p28
I549
sS'w+1=dispute'
p29
I251
sS'w+1=sooner'
p30
I281
sS'w-2=decide'
p31
I522
sS'w-2=they'
p32
I593
sS'prep=than'
p33
I218
sS'prep=by'
p34
I208
sS'nsubj=many'
p35
I158
sS'prep=between'
p36
I207
sS'w+1=that'
p37
I285
sS'w-1=majority'
p38
I439
sS'w-1=would'
p39
I471
sS'w-1=properly'
p40
I451
sS'nsubjpass=issue'
p41
I189
sS'w+1=than'
p42
I284
sS'w-1=means'
p43
I440
sS'w+1=these'
p44
I288
sS'advmod=so'
p45
I34
sS'w-2=from'
p46
I537
sS'w+1=permanently'
p47
I273
sS'w+2=well'
p48
I402
sS'prep=upon'
p49
I222
sS'tmod=year'
p50
I233
sS'w-1=will'
p51
I468
sS'w-1=permanently'
p52
I450
sS'w-2=Congress'
p53
I481
sS'xcomp=abandon'
p54
I609
sS'aux=may'
p55
I50
sS'w+2=attention'
p56
I325
sS'w+1=how'
p57
I259
sS'w-1=well'
p58
I465
sS'w-1=adequately'
p59
I413
sS'w+2=through'
p60
I392
sS'w-2=the'
p61
I591
sS'dep=bless'
p62
I89
sS'dobj=that'
p63
I128
sS'ccomp=be'
p64
I60
sS'w-2=al-Maliki'
p65
I501
sS'w-2=where'
p66
I605
sS'dobj=lawsuit'
p67
I117
sS'nsubj=larva'
p68
I156
sS'advcl=take'
p69
I5
sS'aux=might'
p70
I51
sS'w-2=who'
p71
I606
sS'w-2=today'
p72
I596
sS'w+2=nuclear'
p73
I369
sS'advmod=sooner'
p74
I37
sS'nsubjpass=Indians'
p75
I176
sS'w+2=to'
p76
I393
sS'w+1=on'
p77
I269
sS'w-2=many'
p78
I556
sS'w+2=last'
p79
I358
sS'advmod=essentially'
p80
I15
sS'w+2=land'
p81
I357
sS'advmod=legally'
p82
I22
sS'w-1=have'
p83
I429
sS'ccomp=say'
p84
I65
sS'nsubj=price'
p85
I165
sS'w+2=in'
p86
I352
sS'w-2=week'
p87
I604
sS'ccomp=go'
p88
I62
sS'w+2=what'
p89
I403
sS'w+2=it'
p90
I355
sS'w-1=believe'
p91
I419
sS'w-2=only'
p92
I566
sS'advmod=surely'
p93
I38
sS'advmod=once'
p94
I25
sS'aux=can'
p95
I47
sS'complm=that'
p96
I68
sS'dobj=matter'
p97
I119
sS'w-1=temporarily'
p98
I457
sS'tmod=month'
p99
I231
sS'w-2=file'
p100
I536
sS'dobj=area'
p101
I101
sS'w-2=until'
p102
I600
sS'w-1=farmer'
p103
I426
sS'rel=by'
p104
I228
sS'w-1=essentially'
p105
I423
sS'w+2=will'
p106
I405
sS'w+2=month-long'
p107
I364
sS'w-1=from'
p108
I427
sS'w-2=effort'
p109
I530
sS'advcl=be'
p110
I0
sS'nsubjpass=agreement'
p111
I178
sS'w+2=by'
p112
I332
sS'w+1=the'
p113
I286
sS'w-2=Palestinians'
p114
I494
sS'w+2=Senator'
p115
I313
sS'w+2=transitional'
p116
I396
sS'w-2=science'
p117
I579
sS'advmod=only'
p118
I26
sS'w+2=be'
p119
I326
sS'conj=prove'
p120
I82
sS'w+1=they'
p121
I289
sS'w-2=group'
p122
I539
sS'w+1=temporarily'
p123
I283
sS'prep=as'
p124
I205
sS'w-1=already'
p125
I414
sS'nsubjpass=#PRP#'
p126
I175
sS'nsubjpass=Korea'
p127
I177
sS'prep=in'
p128
I211
sS'mark=about'
p129
I132
sS'aux=would'
p130
I56
sS'w+1=for'
p131
I255
sS'w-2=leader'
p132
I552
sS'w+2=political'
p133
I375
sS'conj=important'
p134
I79
sS'advmod=yet'
p135
I45
sS'w-2=that'
p136
I590
sS'w-2=Liberia'
p137
I491
sS'w-1=Commission'
p138
I409
sS'advmod=largely'
p139
I20
sS'prep=to'
p140
I221
sS'w-2=Korea'
p141
I489
sS'w+2=lawsuit'
p142
I359
sS'nsubjpass=refugee'
p143
I194
sS'w-2=eligible'
p144
I532
sS'conj=normalize'
p145
I80
sS'advmod=ago'
p146
I9
sS'w+1=and'
p147
I244
sS'w+2=West'
p148
I316
sS'w+2=bitter'
p149
I329
sS'w-1=oil'
p150
I446
sS'w+1=outstanding'
p151
I271
sS'dobj=more'
p152
I120
sS'nsubj=dust'
p153
I153
sS'w-2=Clinton'
p154
I479
sS'nsubj=that'
p155
I169
sS'w-1=it'
p156
I436
sS'w+1=issue'
p157
I262
sS'mark=once'
p158
I137
sS'w+2=Berkeley'
p159
I303
sS'nsubj=picker'
p160
I164
sS'w-2=black'
p161
I509
sS'w-2=then'
p162
I592
sS'w+2=these'
p163
I389
sS'advmod=temporarily'
p164
I39
sS'w-1=in'
p165
I433
sS'w+2=we'
p166
I400
sS'w-2=sign'
p167
I582
sS'nsubj=group'
p168
I155
sS'ccomp=work'
p169
I67
sS'w+2=stand-off'
p170
I385
sS'w-2=-rrb-'
p171
I474
sS'w+2=soon'
p172
I384
sS'advmod=overseas'
p173
I27
sS'nsubjpass=debate'
p174
I184
sS'w+2=issue'
p175
I354
sS'mark=if'
p176
I136
sS'advmod=where'
p177
I44
sS'nsubjpass=astrologer'
p178
I179
sS'w+2=S.E.C.'
p179
I312
sS'dobj=dispute'
p180
I110
sS'w-2=Kenya'
p181
I488
sS'w+1=very'
p182
I294
sS'w-2=business'
p183
I510
sS'nsubj=Uighurs'
p184
I149
sS'w-1=whom'
p185
I467
sS'conj=create'
p186
I73
sS'w+2=picture'
p187
I374
sS'prep=along'
p188
I204
sS'nsubj=who'
p189
I174
sS'w-2=progress'
p190
I575
sS'w-2=of'
p191
I565
sS'w-2=dust'
p192
I529
sS'w+2=variety'
p193
I398
sS'dobj=issue'
p194
I116
sS'w-1=to'
p195
I462
sS'w-2=pretext'
p196
I574
sS'advmod=especially'
p197
I14
sS'w-2=clan'
p198
I515
sS'w+2=Jerusalem'
p199
I307
sS'w-2=legislation'
p200
I553
sS'dobj=claim'
p201
I105
sS'w+1=upon'
p202
I293
sS'nsubj=farmer'
p203
I154
sS'w+1=largely'
p204
I265
sS'w-2=appoint'
p205
I505
sS'advcl=handle'
p206
I2
sS'w+2=accountability'
p207
I319
sS'advmod=permanently'
p208
I29
sS'w+2=boundary'
p209
I330
sS'w+2=hundred'
p210
I351
sS'prep=over'
p211
I217
sS'w+1=as'
p212
I246
sS'w+1=at'
p213
I247
sS'conj=seek'
p214
I84
sS'w+2=dispute'
p215
I341
sS'w+2=so'
p216
I381
sS'prt=out'
p217
I227
sS'nsubjpass=that'
p218
I197
sS'w-1=can'
p219
I420
sS'dobj=many'
p220
I118
sS'w-2=down'
p221
I528
sS'nsubjpass=detail'
p222
I185
sS'w-2=able'
p223
I499
sS'w+1=through'
p224
I291
sS'w-2=chance'
p225
I513
sS'ccomp=know'
p226
I63
sS'w-1=with'
p227
I469
sS'w+2=Chicago'
p228
I304
sS'advmod=when'
p229
I43
sS'nsubj=Republicans'
p230
I147
sS'advcl=pay'
p231
I3
sS'dobj=everybody'
p232
I111
sS'nsubj=minister'
p233
I160
sS'prep=for'
p234
I209
sS'dep=that'
p235
I93
sS'w+2=bring'
p236
I331
sS'prep=above'
p237
I201
sS'w+2=believe'
p238
I327
sS'w+2=they'
p239
I390
sS'w+2=at'
p240
I324
sS'w+2=London'
p241
I309
sS'w+2=as'
p242
I323
sS'dobj=investigation'
p243
I115
sS'parataxis=say'
p244
I200
sS'w-2=commit'
p245
I519
sS'conj=happy'
p246
I77
sS'auxpass=be'
p247
I57
sS'advmod=semi-permanently'
p248
I32
sS'w+2=Australia'
p249
I302
sS'w-2=Commission'
p250
I480
sS'advmod=abroad'
p251
I7
sS'advmod=always'
p252
I12
sS'dep=until'
p253
I96
sS'dobj=West'
p254
I99
sS'w-2=manage'
p255
I555
sS'w-2=United'
p256
I497
sS'w-2=also'
p257
I503
sS'nsubj=couple'
p258
I152
sS'w+2=Thursday'
p259
I314
sS'w+1=there'
p260
I287
sS'w-2=must'
p261
I561
sS'w-1=say'
p262
I453
sS'nsubj=#NUMBER#'
p263
I141
sS'w+2=many'
p264
I362
sS'w-2=pressure'
p265
I573
sS'w+2=free'
p266
I346
sS'w+1=near'
p267
I268
sS'w+1=its'
p268
I263
sS'w+2=New'
p269
I310
sS'w+2=with'
p270
I406
sS'w+2=decades-old'
p271
I339
sS'w-2=those'
p272
I594
sS'w-2=Iraqis'
p273
I485
sS'w-1=the'
p274
I459
sS'w-2=charge'
p275
I514
sS'w-1=indian'
p276
I434
sS'w+2=public'
p277
I377
sS'conj=do'
p278
I74
sS'w-2=month'
p279
I559
sS'w-2=allow'
p280
I502
sS'w+2=of'
p281
I370
sS'w+2=cabinet'
p282
I333
sS'w-2=path'
p283
I569
sS'w-1=resident'
p284
I452
sS'w+1=to'
p285
I292
sS'nsubjpass=conflict'
p286
I183
sS'w+2=food'
p287
I344
sS'w+2=he'
p288
I349
sS'nsubj=capital'
p289
I151
sS'prep=into'
p290
I212
sS'w+2=charter'
p291
I335
sS'w-2=disposed'
p292
I526
sS'dobj=phase'
p293
I122
sS'w+2=just'
p294
I356
sS'w+1=abroad'
p295
I241
sS'w+2=area'
p296
I322
sS'dobj=Jerusalem'
p297
I98
sS'w+2=injustice'
p298
I353
sS'nsubjpass=question'
p299
I192
sS'prep=without'
p300
I224
sS'advmod=far'
p301
I17
sS'w+1=political'
p302
I274
sS'conj=promote'
p303
I81
sS'w+1=semi-permanently'
p304
I277
sS'w-2=England'
p305
I483
sS'w+2=patrol'
p306
I372
sS'w-2=Jerusalem'
p307
I486
sS'w-1=she'
p308
I454
sS'w+1=yet'
p309
I296
sS'w-2=would'
p310
I608
sS'nsubjpass=fight'
p311
I188
sS'w-2=no'
p312
I563
sS'dobj=variety'
p313
I130
sS'w+1=score'
p314
I276
sS'w-1=be'
p315
I417
sS'w+2=long-standing'
p316
I361
sS'w+2=nothing'
p317
I368
sS'advcl=turn'
p318
I6
sS'w+1=land'
p319
I264
sS'tmod=day'
p320
I230
sS'auxpass=get'
p321
I58
sS'dobj=decision'
p322
I107
sS'advmod=even'
p323
I16
sS'nsubjpass=attempt'
p324
I180
sS'advmod=there'
p325
I41
sS'w-1=always'
p326
I415
sS'nsubj=waste'
p327
I173
sS'w-2=role'
p328
I578
sS'w-2=expect'
p329
I533
sS'w+2=silver'
p330
I379
sS'mark=while'
p331
I139
sS'w-1=they'
p332
I461
sS'dep=so'
p333
I92
sS'w-2=union'
p334
I599
sS'conj=batter'
p335
I69
sS'aux=will'
p336
I55
sS'ccomp=believe'
p337
I61
sS'advmod=already'
p338
I10
sS'nsubjpass=dispute'
p339
I187
sS'w-2=colony'
p340
I516
sS'nsubj=States'
p341
I148
sS'w-1=dust'
p342
I422
sS'nsubj=people'
p343
I163
sS'prep=with'
p344
I223
sS'w-2=play'
p345
I571
sS'w-1=most'
p346
I442
sS'w-2=10'
p347
I476
sS'w+1=area'
p348
I245
sS'w-2=if'
p349
I544
sS'advmod=somewhere'
p350
I35
sS'w-2=in'
p351
I546
sS'conj=put'
p352
I83
sS'conj=establish'
p353
I75
sS'w+1=slightly'
p354
I278
sS'dobj=problem'
p355
I123
sS'w-1=States'
p356
I411
sS'w+2=down'
p357
I342
sS'prep=from'
p358
I210
sS'advmod=down'
p359
I13
sS'w-2=;'
p360
I478
sS'w+2=Tuesday'
p361
I315
sS'w+2=week'
p362
I401
sS'w-2=come'
p363
I517
sS'ccomp=win'
p364
I66
sS'w-2=fail'
p365
I534
sS'xcomp=raise'
p366
I611
sS"w+2=''"
p367
I297
sS'w-2=desire'
p368
I523
sS'conj=continue'
p369
I72
sS'nsubj=$'
p370
I143
sS'xcomp=work'
p371
I613
sS'advmod=also'
p372
I11
sS'w-1=originally'
p373
I448
sS'dobj=detail'
p374
I108
sS'conj=carve'
p375
I70
sS'mark=although'
p376
I133
sS'w-2=way'
p377
I602
sS'w-2=go'
p378
I538
sS'w+1=even'
p379
I254
sS'mark=because'
p380
I135
sS'w-2=surely'
p381
I588
sS'w+2=that'
p382
I387
sS'nsubjpass=race'
p383
I193
sS'w-2=particle'
p384
I568
sS'w-2=have'
p385
I540
sS'xcomp=get'
p386
I610
sS'cc=and'
p387
I59
sS'nsubjpass=city'
p388
I182
sS'w+2=February'
p389
I305
sS'w+1=somewhere'
p390
I280
sS'w-1=Venezuelans'
p391
I412
sS'nsubj=Nasdaq'
p392
I146
sS'w+1=by'
p393
I248
sS'nsubjpass=liability'
p394
I190
sS'w+2=village'
p395
I399
sS'w+1=regional'
p396
I275
sS'nsubj=law'
p397
I157
sS"w+2='s"
p398
I298
sS'w+1=here'
p399
I257
sS'w-2=move'
p400
I560
sS'w-1=law'
p401
I438
sS'dobj=bill'
p402
I104
sS'w-1=people'
p403
I449
sS'w+2=matter'
p404
I363
sS'w+2=some'
p405
I383
sS'dobj=difference'
p406
I109
sS'dobj=than'
p407
I127
sS'w+1=in'
p408
I260
sS'w-2=2009'
p409
I477
sS'w-2=immigrant'
p410
I545
sS'mark=until'
p411
I138
sS'dobj=array'
p412
I102
sS'nsubj=#PRP#'
p413
I142
sS'w+2=go'
p414
I347
sS'w+1=into'
p415
I261
sS'w+2=nine'
p416
I367
sS'w+2=conflict'
p417
I336
sS'w+2=permanent'
p418
I373
sS'w-2=market'
p419
I557
sS'dobj=#NUMBER#'
p420
I97
sS'w-1=help'
p421
I431
sS'w-2=June'
p422
I487
sS'aux=could'
p423
I48
sS'prep=like'
p424
I213
sS'w-1=couple'
p425
I421
sS'w-1=immigrant'
p426
I432
sS'w+2=negotiation'
p427
I366
sS'w+1=along'
p428
I243
sS'w-1=without'
p429
I470
sS'w-2=begin'
p430
I507
sS'aux=must'
p431
I52
sS'w-2=home'
p432
I543
sS'xcomp=represent'
p433
I612
sS'dobj=feud'
p434
I112
sS'nsubjpass=trade'
p435
I198
sS'w+2=home'
p436
I350
sS'w-1=might'
p437
I441
sS'w+2=which'
p438
I404
sS'w-2=it'
p439
I548
sS'nsubj=market'
p440
I159
sS'w-1=into'
p441
I435
sS'w-2=be'
p442
I506
sS'prep=of'
p443
I215
sS'prep=on'
p444
I216
sS'w-2=determination'
p445
I525
sS'nsubj=resident'
p446
I167
sS'w+2=conflicting'
p447
I337
sS'advcl=decompose'
p448
I1
sS'w+2=smaller'
p449
I380
sS'advmod=later'
p450
I21
sS'w-1=of'
p451
I445
sS'conj=come'
p452
I71
sS'w+2=score'
p453
I378
sS'w+1=out'
p454
I270
sS'w+2=difference'
p455
I340
sS'w-1=eventually'
p456
I425
sS'dobj=battle'
p457
I103
sS'dobj=conflict'
p458
I106
sS'w+2=than'
p459
I386
sS'w+2=Kenya'
p460
I308
sS'nsubjpass=battle'
p461
I181
sS'w+2=greater'
p462
I348
sS'w-2=to'
p463
I595
sS'nsubj=most'
p464
I161
sS'w+1=some'
p465
I279
sS'w-1=who'
p466
I466
sS'w-2=matter'
p467
I558
sS'w+2=any'
p468
I321
sS'w+1=East'
p469
I237
sS'nsubj=administration'
p470
I150
sS'w-1=stop'
p471
I456
sS'w-2=large'
p472
I550
sS'w+2=consultation'
p473
I338
sS'w-2=system'
p474
I589
sS'w-2=committee'
p475
I520
sS'dobj=stand-off'
p476
I125
sS'w+1=contest'
p477
I249
sS'w+2=fight'
p478
I343
sS'conj=go'
p479
I76
sS'w+2=and'
p480
I320
sS'tmod=#DATE#'
p481
I229
sS'w-2=and'
p482
I504
sS'w-2=dispute'
p483
I527
sS'w-1=start'
p484
I455
sS'dobj=patrol'
p485
I121
sS'dobj=injustice'
p486
I114
sS'neg=not'
p487
I140
sS'w-2=try'
p488
I598
sS'w-2=stranger'
p489
I585
sS'advcl=settle'
p490
I4
sS'w+1=this'
p491
I290
sS'w-2=suit'
p492
I587
sS'w+2=urban'
p493
I397
sS'w-2=he'
p494
I541
sS'w-2=region'
p495
I577
sS'w+1=Thursday'
p496
I239
sS'nsubj=Court'
p497
I145
sS'w+1=with'
p498
I295
sS'w+1=late'
p499
I266
sS'w+2=Nigeria'
p500
I311
sS'prep=at'
p501
I206
sS'w-2=will'
p502
I607
sS'advmod=peacefully'
p503
I28
sS'dobj=accountability'
p504
I100
sS'w-2=,'
p505
I473
sS'w-2=.'
p506
I475
sS'w-1=and'
p507
I416
sS'w+2=Iraq'
p508
I306
sS'nsubjpass=science'
p509
I195
sS'w-2=but'
p510
I511
sS'dep=once'
p511
I91
sS'w+1=peacefully'
p512
I272
sS'w-1=.'
p513
I408
sS'w-1=,'
p514
I407
sS'w-1=Dubai'
p515
I410
sS'w-2=not'
p516
I564
sS'w-2=headway'
p517
I542
sS'ccomp=let'
p518
I64
sS'w-2=I'
p519
I484
sS'w-2=Olmert'
p520
I493
sS'w-2=commission'
p521
I518
sS'advmod=soon'
p522
I36
sS'w+2=1989'
p523
I301
sS'w+2=foreign'
p524
I345
sS'prep=through'
p525
I220
sS'conj=help'
p526
I78
sS'w-2=Mbeki'
p527
I492
sS'w-2=prefer'
p528
I572
sS'aux=should'
p529
I53
sS'advmod=slightly'
p530
I33
sS'w+2=above'
p531
I318
sS'nsubj=opinion'
p532
I162
sS'w-1=then'
p533
I460
sS'w+1=down'
p534
I252
sS'w-2=a'
p535
I498
sS'dep=together'
p536
I95
sS'prt=in'
p537
I226
sS'conj=setup'
p538
I85
sS'w+2=centuries-old'
p539
I334
sS'w-2=Court'
p540
I482
sS'w-2=so'
p541
I583
sS'mark=as'
p542
I134
sS'w-1=he'
p543
I430
sS'w-1=waste'
p544
I463
sS'w-1=before'
p545
I418
sS'w+1=from'
p546
I256
sS'w-2=very'
p547
I601
sS'w-2=Referendum'
p548
I495
sS'nsubjpass=suit'
p549
I196
sS'w+2=solar'
p550
I382
sS'w+1=more'
p551
I267
sS'w-2=issue'
p552
I547
sS'w+2=this'
p553
I391
sS'prep=after'
p554
I202
sS'w-2=we'
p555
I603
sS'dobj=this'
p556
I129
sS'w-1=must'
p557
I443
sS'w+1=a'
p558
I240
sS'w-2=liability'
p559
I554
sS'prep=against'
p560
I203
sS'nsubjpass=matter'
p561
I191
sS'dobj=year'
p562
I131
sS'dep=go'
p563
I90
sS'w-1=you'
p564
I472
sS'w-2=Kurds'
p565
I490
sS'prep=then'
p566
I219
sS'w-2=refugee'
p567
I576
sS'advmod=now'
p568
I24
sS'nsubj=union'
p569
I172
sS'advmod=how'
p570
I19
sS'dobj=fight'
p571
I113
sS'advmod=first'
p572
I18
sS'w-1=even'
p573
I424
sS'nsubj=situation'
p574
I168
sS'w+1=difference'
p575
I250
sS'parataxis=agree'
p576
I199
sS'dep=today'
p577
I94
sS'w+2=trans-atlantic'
p578
I395
sS'w+1=after'
p579
I242
sS'w-2=soon'
p580
I584
sS'w-1=we'
p581
I464
sS'w-2=substantial'
p582
I586
sS'aux=to'
p583
I54
sS'w-2=should'
p584
I581
sS'w-2=larva'
p585
I551
sS'w+2=the'
p586
I388
sS'w+1=such'
p587
I282
sS'w+2=name'
p588
I365
sS'w-1=get'
p589
I428
sS'w-2=can'
p590
I512
sS'w-2=detail'
p591
I524
sS'tmod=week'
p592
I232
sS'w+1=,'
p593
I234
sS'w+1=.'
p594
I235
sS'w-2=far'
p595
I535
sS'dep=after'
p596
I88
sS'w+2=.'
p597
I300
sS'w+2=,'
p598
I299
sS'w+1=;'
p599
I236
sS'prep=near'
p600
I214
sS'w+1=historic'
p601
I258
sS'nsubj=two-third'
p602
I171
sS'w-1=only'
p603
I447
sS'advmod=rapidly'
p604
I31
sS'w+2=tomorrow'
p605
I394
sS'w-2=could'
p606
I521
sS'w+2=life'
p607
I360
sS'advmod=adequately'
p608
I8
sS'dobj=status'
p609
I126
sS'w-2=score'
p610
I580
sS'w+1=Kosovo'
p611
I238
sS'conj=start'
p612
I86
sS'w+1=early'
p613
I253
sS'w-1=not'
p614
I444
sS'prt=down'
p615
I225
sS'w-1=later'
p616
I437
sS'w-1=that'
p617
I458
sS'aux=be'
p618
I46
sS'w+2=big'
p619
I328
sS'w+2=a'
p620
I317
sS'advmod=properly'
p621
I30
ssS'dtype'
p622
cnumpy
float64
p623
sS'feature_names_'
p624
(lp625
g110
ag448
ag206
ag231
ag490
ag69
ag318
ag251
ag608
ag146
ag338
ag372
ag252
ag359
ag197
ag80
ag323
ag301
ag572
ag570
ag139
ag450
ag82
ag11
ag568
ag94
ag118
ag173
ag503
ag208
ag621
ag604
ag248
ag530
ag45
ag350
ag522
ag74
ag93
ag164
ag8
ag325
ag22
ag229
ag177
ag135
ag618
ag95
ag423
ag12
ag55
ag70
ag431
ag529
ag583
ag336
ag130
ag247
ag321
ag387
ag64
ag337
ag88
ag226
ag518
ag84
ag364
ag169
ag96
ag335
ag375
ag452
ag369
ag186
ag278
ag353
ag479
ag246
ag526
ag134
ag145
ag303
ag120
ag352
ag214
ag538
ag612
ag21
ag596
ag62
ag563
ag511
ag333
ag235
ag577
ag536
ag253
ag420
ag297
ag254
ag504
ag101
ag412
ag457
ag402
ag201
ag458
ag322
ag374
ag406
ag180
ag232
ag434
ag571
ag486
ag243
ag194
ag67
ag220
ag97
ag152
ag485
ag293
ag355
ag13
ag476
ag609
ag407
ag63
ag556
ag313
ag562
ag129
ag376
ag542
ag380
ag176
ag158
ag411
ag331
ag487
ag263
ag413
ag370
ag20
ag497
ag392
ag230
ag341
ag184
ag470
ag289
ag258
ag153
ag203
ag168
ag68
ag397
ag35
ag440
ag233
ag464
ag532
ag343
ag160
ag85
ag15
ag446
ag574
ag155
ag19
ag602
ag569
ag327
ag189
ag126
ag75
ag127
ag111
ag178
ag324
ag461
ag388
ag286
ag174
ag222
ag24
ag339
ag311
ag41
ag394
ag561
ag299
ag383
ag143
ag509
ag549
ag218
ag435
ag576
ag244
ag237
ag554
ag560
ag188
ag124
ag501
ag36
ag34
ag234
ag358
ag128
ag290
ag424
ag600
ag443
ag444
ag211
ag33
ag566
ag525
ag140
ag49
ag344
ag300
ag615
ag537
ag217
ag104
ag481
ag320
ag99
ag592
ag50
ag593
ag594
ag599
ag469
ag611
ag496
ag558
ag295
ag579
ag428
ag147
ag348
ag212
ag213
ag393
ag477
ag575
ag29
ag534
ag613
ag379
ag131
ag546
ag399
ag601
ag57
ag408
ag415
ag157
ag268
ag319
ag204
ag499
ag551
ag267
ag77
ag454
ag151
ag512
ag47
ag302
ag396
ag314
ag304
ag354
ag465
ag390
ag30
ag587
ag123
ag42
ag37
ag113
ag260
ag44
ag121
ag491
ag224
ag285
ag202
ag182
ag498
ag309
ag367
ag398
ag598
ag597
ag523
ag249
ag159
ag228
ag389
ag508
ag199
ag460
ag241
ag269
ag500
ag179
ag115
ag259
ag361
ag148
ag620
ag531
ag207
ag480
ag468
ag296
ag242
ag240
ag56
ag119
ag238
ag619
ag149
ag209
ag236
ag112
ag282
ag539
ag291
ag417
ag447
ag473
ag271
ag455
ag215
ag357
ag478
ag287
ag524
ag266
ag414
ag462
ag288
ag436
ag210
ag86
ag298
ag175
ag90
ag294
ag81
ag79
ag142
ag607
ag316
ag264
ag404
ag107
ag588
ag427
ag416
ag317
ag73
ag281
ag27
ag306
ag418
ag187
ag133
ag16
ag277
ag453
ag330
ag449
ag216
ag550
ag405
ag172
ag170
ag459
ag382
ag586
ag163
ag239
ag553
ag60
ag76
ag605
ag578
ag116
ag493
ag193
ag395
ag166
ag362
ag48
ag89
ag438
ag106
ag270
ag514
ag513
ag138
ag515
ag356
ag391
ag59
ag125
ag326
ag507
ag315
ag545
ag91
ag219
ag425
ag342
ag105
ag573
ag456
ag103
ag108
ag589
ag83
ag543
ag421
ag426
ag165
ag276
ag441
ag156
ag616
ag401
ag38
ag43
ag437
ag346
ag557
ag614
ag451
ag150
ag603
ag373
ag403
ag52
ag40
ag284
ag262
ag308
ag484
ag471
ag98
ag617
ag274
ag533
ag332
ag195
ag544
ag581
ag58
ag466
ag185
ag51
ag227
ag429
ag39
ag564
ag505
ag171
ag506
ag347
ag409
ag360
ag154
ag250
ag53
ag540
ag305
ag519
ag273
ag307
ag422
ag181
ag141
ag565
ag137
ag527
ag520
ag114
ag548
ag10
ag256
ag535
ag223
ag17
ag65
ag280
ag257
ag482
ag205
ag442
ag430
ag9
ag161
ag183
ag510
ag590
ag225
ag275
ag198
ag340
ag363
ag521
ag245
ag475
ag606
ag31
ag368
ag591
ag445
ag292
ag483
ag221
ag192
ag109
ag23
ag144
ag329
ag365
ag595
ag100
ag46
ag378
ag122
ag385
ag494
ag517
ag432
ag349
ag410
ag351
ag552
ag439
ag28
ag472
ag585
ag132
ag200
ag559
ag255
ag78
ag419
ag467
ag279
ag400
ag261
ag25
ag312
ag516
ag191
ag92
ag14
ag384
ag283
ag18
ag345
ag528
ag265
ag196
ag190
ag567
ag495
ag328
ag117
ag610
ag584
ag167
ag541
ag580
ag489
ag582
ag492
ag381
ag474
ag136
ag61
ag162
ag32
ag272
ag463
ag72
ag26
ag488
ag334
ag102
ag547
ag377
ag555
ag87
ag66
ag71
ag502
ag310
ag54
ag386
ag366
ag433
ag371
asS'separator'
p626
S'='
sS'sparse'
p627
I01
sb.