ccopy_reg
_reconstructor
p1
(csklearn.feature_extraction.dict_vectorizer
DictVectorizer
p2
c__builtin__
object
p3
NtRp4
(dp5
S'sort'
p6
I01
sS'feature_names_'
p7
(lp8
S'advmod=better'
p9
aS'advmod=still'
p10
aS'aux=to'
p11
aS'auxpass=be'
p12
aS'cc=but'
p13
aS'conj=bilingual'
p14
aS'dobj=South'
p15
aS'dobj=section'
p16
aS'mark=while'
p17
aS'nsubj=Brussels'
p18
aS'nsubjpass=India'
p19
aS'nsubjpass=Ossetia'
p20
aS'nsubjpass=Park'
p21
aS'nsubjpass=camp'
p22
aS'prep=along'
p23
aS'prep=around'
p24
aS'prep=in'
p25
aS'prep=inside'
p26
aS'prep=near'
p27
aS'prep=on'
p28
aS'prep=than'
p29
aS'w+1=South'
p30
aS'w+1=along'
p31
aS'w+1=around'
p32
aS'w+1=in'
p33
aS'w+1=inside'
p34
aS'w+1=near'
p35
aS'w+1=on'
p36
aS'w+1=than'
p37
aS'w+2=Flanders'
p38
aS'w+2=a'
p39
aS'w+2=any'
p40
aS'w+2=area'
p41
aS'w+2=of'
p42
aS'w+2=the'
p43
aS"w-1=''"
p44
aS'w-1=,'
p45
aS'w-1=all'
p46
aS'w-1=and'
p47
aS'w-1=be'
p48
aS'w-1=better'
p49
aS'w-2=,'
p50
aS'w-2=.'
p51
aS'w-2=Cemetery'
p52
aS'w-2=Ossetia'
p53
aS'w-2=Park'
p54
aS'w-2=area'
p55
aS'w-2=be'
p56
aS'w-2=camp'
p57
aS'w-2=circumstance'
p58
aS'w-2=to'
p59
asS'dtype'
p60
cnumpy
float64
p61
sS'vocabulary_'
p62
(dp63
g14
I5
sg16
I7
sg11
I2
sg22
I13
sg55
I46
sg43
I34
sg19
I10
sg9
I0
sg30
I21
sg50
I41
sg51
I42
sg12
I3
sg24
I15
sg41
I32
sg20
I11
sg15
I6
sg18
I9
sg42
I33
sg48
I39
sg38
I29
sg31
I22
sg45
I36
sg27
I18
sg40
I31
sg10
I1
sg32
I23
sg47
I38
sg23
I14
sg34
I25
sg54
I45
sg13
I4
sg49
I40
sg26
I17
sg58
I49
sg29
I20
sg59
I50
sg56
I47
sg25
I16
sg36
I27
sg35
I26
sg28
I19
sg33
I24
sg57
I48
sg53
I44
sg52
I43
sg46
I37
sg17
I8
sg39
I30
sg21
I12
sg37
I28
sg44
I35
ssS'separator'
p64
S'='
sS'sparse'
p65
I01
sb.