ccopy_reg
_reconstructor
p1
(csklearn.feature_extraction.dict_vectorizer
DictVectorizer
p2
c__builtin__
object
p3
NtRp4
(dp5
S'vocabulary_'
p6
(dp7
S'w+2=drink'
p8
I45
sS'nsubj=Chinoy'
p9
I9
sS'nsubj=Maguire'
p10
I13
sS'nsubj=Ross'
p11
I14
sS'w-2=archivist'
p12
I105
sS'w+2=of'
p13
I54
sS'nsubj=Beinin'
p14
I8
sS'w+2=economics'
p15
I46
sS'w+2=North'
p16
I36
sS'w-2=English'
p17
I94
sS'w-1=who'
p18
I88
sS'w+2=international'
p19
I48
sS'rel=which'
p20
I21
sS'w-1=Ross'
p21
I69
sS'w-1=mainly'
p22
I79
sS'nsubj=who'
p23
I17
sS'w-2=Institute'
p24
I96
sS'nsubj=personnel'
p25
I15
sS'w+2=mass'
p26
I52
sS'w-1=official'
p27
I82
sS'w-1=economist'
p28
I74
sS'w-2=country'
p29
I108
sS'w-2=Franck'
p30
I95
sS'w+1=technical'
p31
I28
sS'w+2=seafood'
p32
I59
sS'w-2=do'
p33
I110
sS'w-1=Lin'
p34
I67
sS'w-2=teacher'
p35
I120
sS'w+2=child'
p36
I40
sS'aux=do'
p37
I2
sS'w-1=Fregosi'
p38
I66
sS'w+2=care'
p39
I39
sS'w-2=world'
p40
I121
sS'w+2=internet'
p41
I49
sS'w-1=it'
p42
I77
sS'w-2=Dr.'
p43
I93
sS'w+2=the'
p44
I61
sS'prep=at'
p45
I18
sS'w-1=journalist'
p46
I78
sS'w-2=,'
p47
I91
sS'w-2=.'
p48
I92
sS'w+1=kind'
p49
I23
sS'w+2=parasitic'
p50
I56
sS'w-2=government'
p51
I112
sS'w-2=mount'
p52
I115
sS'w-1=,'
p53
I64
sS'w+2=bio-fuel'
p54
I37
sS'w+2=disease'
p55
I42
sS'w+2=language'
p56
I51
sS'w-2=in'
p57
I114
sS'ccomp=be'
p58
I4
sS'w-1=researcher'
p59
I83
sS'w-1=with'
p60
I89
sS'w+2=medieval'
p61
I53
sS'w-2=consultant'
p62
I107
sS'w-1=state'
p63
I85
sS'w-1=of'
p64
I81
sS'w-2=a'
p65
I104
sS'nsubj=Lin'
p66
I12
sS'w-1=some'
p67
I84
sS'ccomp=say'
p68
I5
sS'w+2=oil'
p69
I55
sS'w+2=personnel'
p70
I57
sS'w-1=Chinoy'
p71
I65
sS'w+1=wood'
p72
I30
sS'w-1=he'
p73
I76
sS'w-2=attorney'
p74
I106
sS'w-2=Mike'
p75
I101
sS'w-1=Ships'
p76
I70
sS'w-2=squad'
p77
I119
sS'w+1=ukrainian'
p78
I29
sS'w-2=psychiatrist'
p79
I116
sS'nsubj=Fregosi'
p80
I11
sS'w-2=Judy'
p81
I98
sS'w-2=criminologist'
p82
I109
sS'w+1=learning'
p83
I25
sS'w+1=plane'
p84
I27
sS'w-1=develop'
p85
I73
sS'prep=in'
p86
I19
sS'w+1=medical'
p87
I26
sS'w-2=York'
p88
I103
sS'w+1=in'
p89
I22
sS'nsubj=#PRP#'
p90
I7
sS'w+1=knowledge'
p91
I24
sS'w-2=firm'
p92
I111
sS'w+2=drill'
p93
I44
sS'w-2=hospital'
p94
I113
sS'w-1=we'
p95
I87
sS'cc=but'
p96
I3
sS'w-1=Maguire'
p97
I68
sS'w+2=political'
p98
I58
sS'w+2=clean'
p99
I41
sS'w-2=Mercy'
p100
I100
sS'advcl=exist'
p101
I0
sS'w+2=...'
p102
I32
sS"w-2=''"
p103
I90
sS'w-1=for'
p104
I75
sS'w+2=spinal'
p105
I60
sS'w-2=restaurant'
p106
I118
sS'nsubj=Crane'
p107
I10
sS'w+2=,'
p108
I31
sS'w+2=for'
p109
I47
sS'neg=not'
p110
I6
sS'nsubj=that'
p111
I16
sS'w+2=Feng'
p112
I33
sS'w-1=a'
p113
I71
sS'w-1=and'
p114
I72
sS'w+2=trade'
p115
I63
sS'w+2=tool'
p116
I62
sS'w-2=Julie'
p117
I99
sS'w-2=rapidly'
p118
I117
sS'w-1=not'
p119
I80
sS'advmod=mainly'
p120
I1
sS'w+2=Middle'
p121
I35
sS'prep=on'
p122
I20
sS'w+2=Islam'
p123
I34
sS'w-1=that'
p124
I86
sS'w+2=document'
p125
I43
sS'w+2=issue'
p126
I50
sS'w-2=University'
p127
I102
sS'w+2=burn'
p128
I38
sS'w-2=Institution'
p129
I97
ssS'dtype'
p130
cnumpy
float64
p131
sS'feature_names_'
p132
(lp133
g101
ag120
ag37
ag96
ag58
ag68
ag110
ag90
ag14
ag9
ag107
ag80
ag66
ag10
ag11
ag25
ag111
ag23
ag45
ag86
ag122
ag20
ag89
ag49
ag91
ag83
ag87
ag84
ag31
ag78
ag72
ag108
ag102
ag112
ag123
ag121
ag16
ag54
ag128
ag39
ag36
ag99
ag55
ag125
ag93
ag8
ag15
ag109
ag19
ag41
ag126
ag56
ag26
ag61
ag13
ag69
ag50
ag70
ag98
ag32
ag105
ag44
ag116
ag115
ag53
ag71
ag38
ag34
ag97
ag21
ag76
ag113
ag114
ag85
ag28
ag104
ag73
ag42
ag46
ag22
ag119
ag64
ag27
ag59
ag67
ag63
ag124
ag95
ag18
ag60
ag103
ag47
ag48
ag43
ag17
ag30
ag24
ag129
ag81
ag117
ag100
ag75
ag127
ag88
ag65
ag12
ag74
ag62
ag29
ag82
ag33
ag92
ag51
ag94
ag57
ag52
ag79
ag118
ag106
ag77
ag35
ag40
asS'separator'
p134
S'='
sS'sparse'
p135
I01
sb.