ccopy_reg
_reconstructor
p1
(csklearn.feature_extraction.dict_vectorizer
DictVectorizer
p2
c__builtin__
object
p3
NtRp4
(dp5
S'vocabulary_'
p6
(dp7
S'w+2=setting'
p8
I9
sS'w+1=the'
p9
I6
sS'dobj=setting'
p10
I1
sS'w+1=,'
p11
I4
sS'dobj=something'
p12
I2
sS'w-2=you'
p13
I13
sS'w-2=hard'
p14
I11
sS'aux=to'
p15
I0
sS'nsubj=#PRP#'
p16
I3
sS'w-2=we'
p17
I12
sS'w+2=in'
p18
I8
sS'w-1=to'
p19
I10
sS'w+1=something'
p20
I5
sS'w+2=but'
p21
I7
ssS'dtype'
p22
cnumpy
float64
p23
sS'feature_names_'
p24
(lp25
g15
ag10
ag12
ag16
ag11
ag20
ag9
ag21
ag18
ag8
ag19
ag14
ag17
ag13
asS'separator'
p26
S'='
sS'sparse'
p27
I01
sb.