ccopy_reg
_reconstructor
p1
(csklearn.feature_extraction.dict_vectorizer
DictVectorizer
p2
c__builtin__
object
p3
NtRp4
(dp5
S'sort'
p6
I01
sS'feature_names_'
p7
(lp8
S'acomp=#NUMBER#'
p9
aS'acomp=high'
p10
aS'advcl=accountable'
p11
aS'advcl=be'
p12
aS'advcl=begin'
p13
aS'advcl=break'
p14
aS'advcl=build'
p15
aS'advcl=call'
p16
aS'advcl=come'
p17
aS'advcl=commit'
p18
aS'advcl=complex'
p19
aS'advcl=construct'
p20
aS'advcl=continue'
p21
aS'advcl=cover'
p22
aS'advcl=currency'
p23
aS'advcl=destroy'
p24
aS'advcl=drop'
p25
aS'advcl=educate'
p26
aS'advcl=elaborate'
p27
aS'advcl=erupt'
p28
aS'advcl=expire'
p29
aS'advcl=face'
p30
aS'advcl=file'
p31
aS'advcl=give'
p32
aS'advcl=go'
p33
aS'advcl=grow'
p34
aS'advcl=have'
p35
aS'advcl=hold'
p36
aS'advcl=impassable'
p37
aS'advcl=in'
p38
aS'advcl=infringe'
p39
aS'advcl=injure'
p40
aS'advcl=insist'
p41
aS'advcl=launch'
p42
aS'advcl=leave'
p43
aS'advcl=make'
p44
aS'advcl=meet'
p45
aS'advcl=move'
p46
aS'advcl=oust'
p47
aS'advcl=pleased'
p48
aS'advcl=possible'
p49
aS'advcl=program'
p50
aS'advcl=put'
p51
aS'advcl=refer'
p52
aS'advcl=report'
p53
aS'advcl=say'
p54
aS'advcl=search'
p55
aS'advcl=sign'
p56
aS'advcl=suspend'
p57
aS'advcl=take'
p58
aS'advcl=turn'
p59
aS'advcl=uproot'
p60
aS'advcl=use'
p61
aS'advcl=visit'
p62
aS'advcl=wash'
p63
aS'advmod=abroad'
p64
aS'advmod=actually'
p65
aS'advmod=again'
p66
aS'advmod=ago'
p67
aS'advmod=along'
p68
aS'advmod=already'
p69
aS'advmod=also'
p70
aS'advmod=always'
p71
aS'advmod=anytime'
p72
aS'advmod=as'
p73
aS'advmod=at'
p74
aS'advmod=back'
p75
aS'advmod=because'
p76
aS'advmod=broadly'
p77
aS'advmod=collectively'
p78
aS'advmod=diplomatically'
p79
aS'advmod=early'
p80
aS'advmod=easily'
p81
aS'advmod=elsewhere'
p82
aS'advmod=especially'
p83
aS'advmod=essentially'
p84
aS'advmod=even'
p85
aS'advmod=eventually'
p86
aS'advmod=ever'
p87
aS'advmod=everywhere'
p88
aS'advmod=exactly'
p89
aS'advmod=far'
p90
aS'advmod=finally'
p91
aS'advmod=first'
p92
aS'advmod=here'
p93
aS'advmod=hopefully'
p94
aS'advmod=how'
p95
aS'advmod=however'
p96
aS'advmod=illegally'
p97
aS'advmod=immediately'
p98
aS'advmod=incidentally'
p99
aS'advmod=inside'
p100
aS'advmod=internationally'
p101
aS'advmod=just'
p102
aS'advmod=last'
p103
aS'advmod=late'
p104
aS'advmod=lately'
p105
aS'advmod=likely'
p106
aS'advmod=long'
p107
aS'advmod=meanwhile'
p108
aS'advmod=more'
p109
aS'advmod=nearly'
p110
aS'advmod=negative'
p111
aS'advmod=notably'
p112
aS'advmod=now'
p113
aS'advmod=often'
p114
aS'advmod=on'
p115
aS'advmod=once'
p116
aS'advmod=only'
p117
aS'advmod=out'
p118
aS'advmod=personally'
p119
aS'advmod=quickly'
p120
aS'advmod=rapidly'
p121
aS'advmod=rarely'
p122
aS'advmod=really'
p123
aS'advmod=regardless'
p124
aS'advmod=reportedly'
p125
aS'advmod=respectively'
p126
aS'advmod=satisfactorily'
p127
aS'advmod=seriously'
p128
aS'advmod=shortly'
p129
aS'advmod=simply'
p130
aS'advmod=soon'
p131
aS'advmod=sooner'
p132
aS'advmod=specifically'
p133
aS'advmod=still'
p134
aS'advmod=sufficiently'
p135
aS'advmod=then'
p136
aS'advmod=twice'
p137
aS'advmod=when'
p138
aS'advmod=where'
p139
aS'advmod=yet'
p140
aS'amod=global'
p141
aS'amod=international'
p142
aS'amod=of'
p143
aS'amod=outer'
p144
aS"aux='ll"
p145
aS'aux=be'
p146
aS'aux=can'
p147
aS'aux=could'
p148
aS'aux=do'
p149
aS'aux=have'
p150
aS'aux=may'
p151
aS'aux=might'
p152
aS'aux=must'
p153
aS'aux=should'
p154
aS'aux=to'
p155
aS'aux=will'
p156
aS'aux=would'
p157
aS'auxpass=be'
p158
aS'cc=and'
p159
aS'cc=but'
p160
aS'cc=only'
p161
aS'cc=or'
p162
aS'ccomp=affect'
p163
aS'ccomp=be'
p164
aS'ccomp=call'
p165
aS'ccomp=challenging'
p166
aS'ccomp=check'
p167
aS'ccomp=demand'
p168
aS'ccomp=depend'
p169
aS'ccomp=diagnose'
p170
aS'ccomp=difficult'
p171
aS'ccomp=displaced'
p172
aS'ccomp=do'
p173
aS'ccomp=due'
p174
aS'ccomp=encounter'
p175
aS'ccomp=end'
p176
aS'ccomp=extend'
p177
aS'ccomp=follow'
p178
aS'ccomp=get'
p179
aS'ccomp=go'
p180
aS'ccomp=helpful'
p181
aS'ccomp=impossible'
p182
aS'ccomp=issue'
p183
aS'ccomp=leave'
p184
aS'ccomp=overcome'
p185
aS'ccomp=president'
p186
aS'ccomp=reason'
p187
aS'ccomp=say'
p188
aS'ccomp=see'
p189
aS'ccomp=sell'
p190
aS'ccomp=serious'
p191
aS'ccomp=strand'
p192
aS'ccomp=thing'
p193
aS'ccomp=think'
p194
aS'ccomp=try'
p195
aS'ccomp=turn'
p196
aS'ccomp=understand'
p197
aS'ccomp=unrealistic'
p198
aS'ccomp=want'
p199
aS'ccomp=would'
p200
aS'complm=that'
p201
aS'complm=whether'
p202
aS'conj=adhere'
p203
aS'conj=adhering'
p204
aS'conj=admit'
p205
aS'conj=agent'
p206
aS'conj=allow'
p207
aS'conj=also'
p208
aS'conj=appeal'
p209
aS'conj=ball'
p210
aS'conj=be'
p211
aS'conj=bipartisan'
p212
aS'conj=build'
p213
aS'conj=complain'
p214
aS'conj=concern'
p215
aS'conj=contact'
p216
aS'conj=convince'
p217
aS'conj=cover'
p218
aS'conj=credibility'
p219
aS'conj=demand'
p220
aS'conj=die'
p221
aS'conj=dismantle'
p222
aS'conj=employ'
p223
aS'conj=end'
p224
aS'conj=estimate'
p225
aS'conj=expire'
p226
aS'conj=finalize'
p227
aS'conj=find'
p228
aS'conj=focus'
p229
aS'conj=happen'
p230
aS'conj=help'
p231
aS'conj=higher'
p232
aS'conj=highlight'
p233
aS'conj=hit'
p234
aS'conj=implement'
p235
aS'conj=include'
p236
aS'conj=interview'
p237
aS'conj=investigate'
p238
aS'conj=issue'
p239
aS'conj=keep'
p240
aS'conj=kill'
p241
aS'conj=know'
p242
aS'conj=limit'
p243
aS'conj=live'
p244
aS'conj=make'
p245
aS'conj=means'
p246
aS'conj=power'
p247
aS'conj=prepare'
p248
aS'conj=put'
p249
aS'conj=question'
p250
aS'conj=raise'
p251
aS'conj=reach'
p252
aS'conj=replace'
p253
aS'conj=respond'
p254
aS'conj=return'
p255
aS'conj=rise'
p256
aS'conj=risk'
p257
aS'conj=run'
p258
aS'conj=say'
p259
aS'conj=seem'
p260
aS'conj=settle'
p261
aS'conj=shut'
p262
aS'conj=sign'
p263
aS'conj=sit'
p264
aS'conj=stream'
p265
aS'conj=sustain'
p266
aS'conj=take'
p267
aS'conj=teach'
p268
aS'conj=tell'
p269
aS'conj=think'
p270
aS'conj=unless'
p271
aS'conj=use'
p272
aS'conj=ward'
p273
aS'conj=willingness'
p274
aS'conj=work'
p275
aS'conj=wrap'
p276
aS'cop=be'
p277
aS'csubj=come'
p278
aS'csubj=want'
p279
aS'csubjpass=confirm'
p280
aS'dep=#NUMBER#'
p281
aS'dep=acknowledge'
p282
aS'dep=after'
p283
aS'dep=alive'
p284
aS'dep=also'
p285
aS'dep=as'
p286
aS'dep=before'
p287
aS'dep=by'
p288
aS'dep=could'
p289
aS'dep=dead'
p290
aS'dep=difficult'
p291
aS'dep=embrace'
p292
aS'dep=enact'
p293
aS'dep=expire'
p294
aS'dep=eye'
p295
aS'dep=if'
p296
aS'dep=involvement'
p297
aS'dep=istrustworthy'
p298
aS'dep=long'
p299
aS'dep=much'
p300
aS'dep=need'
p301
aS'dep=order'
p302
aS'dep=predict'
p303
aS'dep=report'
p304
aS'dep=say'
p305
aS'dep=stall'
p306
aS'dep=that'
p307
aS'dep=though'
p308
aS'dep=until'
p309
aS'dep=walk'
p310
aS'dep=with'
p311
aS'det=a'
p312
aS'det=the'
p313
aS'dobj=#DATE#'
p314
aS'dobj=#NUMBER#'
p315
aS'dobj=#PRP#'
p316
aS'dobj=$'
p317
aS'dobj=America'
p318
aS'dobj=Australia'
p319
aS'dobj=Bahrain'
p320
aS'dobj=Bhutto'
p321
aS'dobj=Bowl'
p322
aS'dobj=Britain'
p323
aS'dobj=Bush'
p324
aS'dobj=Category'
p325
aS'dobj=Celsius'
p326
aS'dobj=Committee'
p327
aS'dobj=Court'
p328
aS'dobj=Danube'
p329
aS'dobj=EU'
p330
aS'dobj=Europe'
p331
aS'dobj=Gaza'
p332
aS'dobj=Georgia'
p333
aS'dobj=Goal'
p334
aS'dobj=Goals'
p335
aS'dobj=Hamas'
p336
aS'dobj=Hispanics'
p337
aS'dobj=House'
p338
aS'dobj=Islamabad'
p339
aS'dobj=Islands'
p340
aS'dobj=Italy'
p341
aS'dobj=Kabul'
p342
aS'dobj=MDGs'
p343
aS'dobj=Mars'
p344
aS'dobj=Mexicans'
p345
aS'dobj=Number'
p346
aS'dobj=Sambath'
p347
aS'dobj=Series'
p348
aS'dobj=South'
p349
aS'dobj=Spain'
p350
aS'dobj=States'
p351
aS'dobj=Strip'
p352
aS'dobj=Superbowl'
p353
aS'dobj=Uganda'
p354
aS'dobj=Washington'
p355
aS'dobj=XL'
p356
aS'dobj=Yemen'
p357
aS'dobj=a'
p358
aS'dobj=accommodation'
p359
aS'dobj=accord'
p360
aS'dobj=activist'
p361
aS'dobj=age'
p362
aS'dobj=agreement'
p363
aS'dobj=airplane'
p364
aS'dobj=airport'
p365
aS'dobj=all'
p366
aS'dobj=anyone'
p367
aS'dobj=area'
p368
aS'dobj=arm'
p369
aS'dobj=audience'
p370
aS'dobj=auto'
p371
aS'dobj=base'
p372
aS'dobj=benchmark'
p373
aS'dobj=birthday'
p374
aS'dobj=book'
p375
aS'dobj=border'
p376
aS'dobj=borrower'
p377
aS'dobj=breakthrough'
p378
aS'dobj=camp'
p379
aS'dobj=capital'
p380
aS'dobj=cave'
p381
aS'dobj=cease-fire'
p382
aS'dobj=ceasefire'
p383
aS'dobj=center'
p384
aS'dobj=child'
p385
aS'dobj=citizen'
p386
aS'dobj=city'
p387
aS'dobj=climax'
p388
aS'dobj=clinic'
p389
aS'dobj=close'
p390
aS'dobj=coast'
p391
aS'dobj=community'
p392
aS'dobj=completion'
p393
aS'dobj=compromise'
p394
aS'dobj=conclusion'
p395
aS'dobj=consensus'
p396
aS'dobj=consequence'
p397
aS'dobj=continent'
p398
aS'dobj=contour'
p399
aS'dobj=control'
p400
aS'dobj=country'
p401
aS'dobj=court'
p402
aS'dobj=courthouse'
p403
aS'dobj=coverage'
p404
aS'dobj=culmination'
p405
aS'dobj=culture'
p406
aS'dobj=dam'
p407
aS'dobj=deal'
p408
aS'dobj=decision'
p409
aS'dobj=definition'
p410
aS'dobj=democracy'
p411
aS'dobj=desk'
p412
aS'dobj=destination'
p413
aS'dobj=digit'
p414
aS'dobj=dollar'
p415
aS'dobj=dozen'
p416
aS'dobj=echelon'
p417
aS'dobj=edge'
p418
aS'dobj=end'
p419
aS'dobj=endorsement'
p420
aS'dobj=enrichment'
p421
aS'dobj=entrance'
p422
aS'dobj=everyone'
p423
aS'dobj=facility'
p424
aS'dobj=family'
p425
aS'dobj=fan'
p426
aS'dobj=farm'
p427
aS'dobj=farmer'
p428
aS'dobj=figure'
p429
aS'dobj=final'
p430
aS'dobj=flashpoint'
p431
aS'dobj=floor'
p432
aS'dobj=foot'
p433
aS'dobj=framework'
p434
aS'dobj=freedom'
p435
aS'dobj=gas'
p436
aS'dobj=goal'
p437
aS'dobj=government'
p438
aS'dobj=group'
p439
aS'dobj=guideline'
p440
aS'dobj=half'
p441
aS'dobj=hall'
p442
aS'dobj=height'
p443
aS'dobj=high'
p444
aS'dobj=hit'
p445
aS'dobj=home'
p446
aS'dobj=horizon'
p447
aS'dobj=hospital'
p448
aS'dobj=house'
p449
aS'dobj=household'
p450
aS'dobj=idp'
p451
aS'dobj=impasse'
p452
aS'dobj=island'
p453
aS'dobj=kind'
p454
aS'dobj=land'
p455
aS'dobj=layer'
p456
aS'dobj=level'
p457
aS'dobj=limit'
p458
aS'dobj=listener'
p459
aS'dobj=lot'
p460
aS'dobj=low'
p461
aS'dobj=mainland'
p462
aS'dobj=mark'
p463
aS'dobj=market'
p464
aS'dobj=mass'
p465
aS'dobj=maturity'
p466
aS'dobj=media'
p467
aS'dobj=meeting'
p468
aS'dobj=member'
p469
aS'dobj=meter'
p470
aS'dobj=milestone'
p471
aS'dobj=moment'
p472
aS'dobj=moon'
p473
aS'dobj=more'
p474
aS'dobj=mosque'
p475
aS'dobj=most'
p476
aS'dobj=needy'
p477
aS'dobj=newly'
p478
aS'dobj=nowhere'
p479
aS'dobj=number'
p480
aS'dobj=objective'
p481
aS'dobj=official'
p482
aS'dobj=onlf'
p483
aS'dobj=outgier'
p484
aS'dobj=outline'
p485
aS'dobj=ownposition'
p486
aS'dobj=palace'
p487
aS'dobj=parliament'
p488
aS'dobj=part'
p489
aS'dobj=patient'
p490
aS'dobj=peace'
p491
aS'dobj=peak'
p492
aS'dobj=people'
p493
aS'dobj=percent'
p494
aS'dobj=phase'
p495
aS'dobj=pilot'
p496
aS'dobj=pinnacle'
p497
aS'dobj=pitch'
p498
aS'dobj=place'
p499
aS'dobj=plant'
p500
aS'dobj=point'
p501
aS'dobj=policymaker'
p502
aS'dobj=politician'
p503
aS'dobj=population'
p504
aS'dobj=position'
p505
aS'dobj=potential'
p506
aS'dobj=power'
p507
aS'dobj=priority'
p508
aS'dobj=proportion'
p509
aS'dobj=province'
p510
aS'dobj=puberty'
p511
aS'dobj=public'
p512
aS'dobj=quarter'
p513
aS'dobj=quarterfinal'
p514
aS'dobj=quorum'
p515
aS'dobj=rate'
p516
aS'dobj=reader'
p517
aS'dobj=rebel'
p518
aS'dobj=recipient'
p519
aS'dobj=recommendation'
p520
aS'dobj=reconcilable'
p521
aS'dobj=reconciliation'
p522
aS'dobj=record'
p523
aS'dobj=record-high'
p524
aS'dobj=regime'
p525
aS'dobj=region'
p526
aS'dobj=round'
p527
aS'dobj=safety'
p528
aS'dobj=saturation'
p529
aS'dobj=scale'
p530
aS'dobj=semifinal'
p531
aS'dobj=settlement'
p532
aS'dobj=shelf'
p533
aS'dobj=shore'
p534
aS'dobj=site'
p535
aS'dobj=slum'
p536
aS'dobj=society'
p537
aS'dobj=soil'
p538
aS'dobj=solution'
p539
aS'dobj=something'
p540
aS'dobj=sort'
p541
aS'dobj=space'
p542
aS'dobj=stage'
p543
aS'dobj=stalemate'
p544
aS'dobj=stance'
p545
aS'dobj=standard'
p546
aS'dobj=state'
p547
aS'dobj=statehood'
p548
aS'dobj=station'
p549
aS'dobj=status'
p550
aS'dobj=strategy'
p551
aS'dobj=strength'
p552
aS'dobj=student'
p553
aS'dobj=summit'
p554
aS'dobj=target'
p555
aS'dobj=text'
p556
aS'dobj=that'
p557
aS'dobj=third'
p558
aS'dobj=those'
p559
aS'dobj=tiny'
p560
aS'dobj=ton'
p561
aS'dobj=top'
p562
aS'dobj=town'
p563
aS'dobj=trial'
p564
aS'dobj=troops'
p565
aS'dobj=truce'
p566
aS'dobj=understanding'
p567
aS'dobj=variety'
p568
aS'dobj=venue'
p569
aS'dobj=verdict'
p570
aS'dobj=victim'
p571
aS'dobj=view'
p572
aS'dobj=viewer'
p573
aS'dobj=village'
p574
aS'dobj=violence'
p575
aS'dobj=vote'
p576
aS'dobj=voter'
p577
aS'dobj=vulnerable'
p578
aS'dobj=water'
p579
aS'dobj=wharf'
p580
aS'dobj=wing'
p581
aS'dobj=woman'
p582
aS'dobj=worker'
p583
aS'dobj=youngster'
p584
aS'dobj=youth'
p585
aS'mark=about'
p586
aS'mark=after'
p587
aS'mark=although'
p588
aS'mark=as'
p589
aS'mark=because'
p590
aS'mark=before'
p591
aS'mark=for'
p592
aS'mark=if'
p593
aS'mark=in'
p594
aS'mark=since'
p595
aS'mark=so'
p596
aS'mark=though'
p597
aS'mark=unless'
p598
aS'mark=until'
p599
aS'mark=while'
p600
aS'neg=never'
p601
aS'neg=not'
p602
aS'nsubj=#DATE#'
p603
aS'nsubj=#NUMBER#'
p604
aS'nsubj=#PRP#'
p605
aS'nsubj=Administration'
p606
aS'nsubj=Afghanistan'
p607
aS'nsubj=Africa'
p608
aS'nsubj=Agency'
p609
aS'nsubj=Ahmadinejad'
p610
aS'nsubj=Arenas'
p611
aS'nsubj=Bush'
p612
aS'nsubj=China'
p613
aS'nsubj=Ciara'
p614
aS'nsubj=Congress'
p615
aS'nsubj=Court'
p616
aS'nsubj=Danube'
p617
aS'nsubj=Dean'
p618
aS'nsubj=Democrats'
p619
aS'nsubj=FNL'
p620
aS'nsubj=Fatah'
p621
aS'nsubj=Foundation'
p622
aS'nsubj=Giants'
p623
aS'nsubj=Government'
p624
aS'nsubj=Hampshire'
p625
aS'nsubj=India'
p626
aS'nsubj=Iraq'
p627
aS'nsubj=Israel'
p628
aS'nsubj=Karen'
p629
aS'nsubj=Kingdom'
p630
aS'nsubj=Korea'
p631
aS'nsubj=Lukashenko'
p632
aS'nsubj=Manila'
p633
aS'nsubj=Musharraf'
p634
aS'nsubj=Nations'
p635
aS'nsubj=Obama'
p636
aS'nsubj=Officer'
p637
aS'nsubj=Organization'
p638
aS'nsubj=Pakistanis'
p639
aS'nsubj=Party'
p640
aS'nsubj=Pen'
p641
aS'nsubj=Russia'
p642
aS'nsubj=Sox'
p643
aS'nsubj=States'
p644
aS'nsubj=Tsvangirai'
p645
aS'nsubj=Union'
p646
aS'nsubj=Yar'
p647
aS'nsubj=Zimbabwe'
p648
aS'nsubj=administration'
p649
aS'nsubj=agenda'
p650
aS'nsubj=agreement'
p651
aS'nsubj=aid'
p652
aS'nsubj=album'
p653
aS'nsubj=ambulance'
p654
aS'nsubj=american'
p655
aS'nsubj=army'
p656
aS'nsubj=artist'
p657
aS'nsubj=assistance'
p658
aS'nsubj=attack'
p659
aS'nsubj=audience'
p660
aS'nsubj=beating'
p661
aS'nsubj=bedding'
p662
aS'nsubj=benefit'
p663
aS'nsubj=bill'
p664
aS'nsubj=bomber'
p665
aS'nsubj=boxer'
p666
aS'nsubj=breakthrough'
p667
aS'nsubj=brigade'
p668
aS'nsubj=broadcast'
p669
aS'nsubj=building'
p670
aS'nsubj=call'
p671
aS'nsubj=cancer'
p672
aS'nsubj=ceasefire'
p673
aS'nsubj=check'
p674
aS'nsubj=claim'
p675
aS'nsubj=cocaine'
p676
aS'nsubj=commander'
p677
aS'nsubj=commitment'
p678
aS'nsubj=community'
p679
aS'nsubj=congestion'
p680
aS'nsubj=cost'
p681
aS'nsubj=country'
p682
aS'nsubj=court'
p683
aS'nsubj=deal'
p684
aS'nsubj=delegation'
p685
aS'nsubj=demonstration'
p686
aS'nsubj=desertification'
p687
aS'nsubj=diplomat'
p688
aS'nsubj=dispute'
p689
aS'nsubj=dollar'
p690
aS'nsubj=economy'
p691
aS'nsubj=effect'
p692
aS'nsubj=effort'
p693
aS'nsubj=envoy'
p694
aS'nsubj=eye'
p695
aS'nsubj=faction'
p696
aS'nsubj=farmer'
p697
aS'nsubj=film'
p698
aS'nsubj=filmmaker'
p699
aS'nsubj=firestorm'
p700
aS'nsubj=first'
p701
aS'nsubj=food'
p702
aS'nsubj=fraction'
p703
aS'nsubj=friend'
p704
aS'nsubj=girl'
p705
aS'nsubj=government'
p706
aS'nsubj=group'
p707
aS'nsubj=hum'
p708
aS'nsubj=human'
p709
aS'nsubj=idea'
p710
aS'nsubj=immigrant'
p711
aS'nsubj=increase'
p712
aS'nsubj=inflation'
p713
aS'nsubj=information'
p714
aS'nsubj=investigation'
p715
aS'nsubj=item'
p716
aS'nsubj=jazz'
p717
aS'nsubj=land'
p718
aS'nsubj=leader'
p719
aS'nsubj=legislation'
p720
aS'nsubj=level'
p721
aS'nsubj=library'
p722
aS'nsubj=line'
p723
aS'nsubj=loan'
p724
aS'nsubj=loss'
p725
aS'nsubj=many'
p726
aS'nsubj=market'
p727
aS'nsubj=member'
p728
aS'nsubj=message'
p729
aS'nsubj=migrant'
p730
aS'nsubj=minister'
p731
aS'nsubj=mission'
p732
aS'nsubj=money'
p733
aS'nsubj=most'
p734
aS'nsubj=move'
p735
aS'nsubj=music'
p736
aS'nsubj=musician'
p737
aS'nsubj=nation'
p738
aS'nsubj=negotiation'
p739
aS'nsubj=negotiator'
p740
aS'nsubj=news'
p741
aS'nsubj=newspaper'
p742
aS'nsubj=nomad'
p743
aS'nsubj=none'
p744
aS'nsubj=nothing'
p745
aS'nsubj=now'
p746
aS'nsubj=number'
p747
aS'nsubj=official'
p748
aS'nsubj=oil'
p749
aS'nsubj=opinion'
p750
aS'nsubj=output'
p751
aS'nsubj=owner'
p752
aS'nsubj=panel'
p753
aS'nsubj=participant'
p754
aS'nsubj=party'
p755
aS'nsubj=people'
p756
aS'nsubj=percent'
p757
aS'nsubj=peso'
p758
aS'nsubj=phase'
p759
aS'nsubj=plan'
p760
aS'nsubj=playoff'
p761
aS'nsubj=plenty'
p762
aS'nsubj=preparation'
p763
aS'nsubj=president'
p764
aS'nsubj=price'
p765
aS'nsubj=probe'
p766
aS'nsubj=problem'
p767
aS'nsubj=process'
p768
aS'nsubj=production'
p769
aS'nsubj=program'
p770
aS'nsubj=ransom'
p771
aS'nsubj=rate'
p772
aS'nsubj=reduction'
p773
aS'nsubj=relief'
p774
aS'nsubj=report'
p775
aS'nsubj=representative'
p776
aS'nsubj=revenue'
p777
aS'nsubj=rioter'
p778
aS'nsubj=rival'
p779
aS'nsubj=route'
p780
aS'nsubj=season'
p781
aS'nsubj=session'
p782
aS'nsubj=shortfall'
p783
aS'nsubj=show'
p784
aS'nsubj=side'
p785
aS'nsubj=situation'
p786
aS'nsubj=sludge'
p787
aS'nsubj=snake'
p788
aS'nsubj=someone'
p789
aS'nsubj=sparring'
p790
aS'nsubj=spill'
p791
aS'nsubj=spokesman'
p792
aS'nsubj=stair'
p793
aS'nsubj=station'
p794
aS'nsubj=stock'
p795
aS'nsubj=storm'
p796
aS'nsubj=strength'
p797
aS'nsubj=success'
p798
aS'nsubj=supplies'
p799
aS'nsubj=system'
p800
aS'nsubj=talk'
p801
aS'nsubj=teaching'
p802
aS'nsubj=team'
p803
aS'nsubj=temperature'
p804
aS'nsubj=tension'
p805
aS'nsubj=that'
p806
aS'nsubj=this'
p807
aS'nsubj=those'
p808
aS'nsubj=toll'
p809
aS'nsubj=torch'
p810
aS'nsubj=total'
p811
aS'nsubj=trade'
p812
aS'nsubj=treatment'
p813
aS'nsubj=troops'
p814
aS'nsubj=turnout'
p815
aS'nsubj=twenty-eight'
p816
aS'nsubj=unemployment'
p817
aS'nsubj=uranium'
p818
aS'nsubj=vaccine'
p819
aS'nsubj=version'
p820
aS'nsubj=violence'
p821
aS'nsubj=visitor'
p822
aS'nsubj=war'
p823
aS'nsubj=warship'
p824
aS'nsubj=water'
p825
aS'nsubj=weapon'
p826
aS'nsubj=week'
p827
aS'nsubj=which'
p828
aS'nsubj=who'
p829
aS'nsubj=woman'
p830
aS'nsubj=word'
p831
aS'nsubj=worker'
p832
aS'nsubj=writing'
p833
aS'nsubj=year'
p834
aS'nsubj=yen'
p835
aS'nsubjpass=#PRP#'
p836
aS'nsubjpass=Commission'
p837
aS'nsubjpass=Equities'
p838
aS'nsubjpass=Ertl'
p839
aS'nsubjpass=Feith'
p840
aS'nsubjpass=Tenet'
p841
aS'nsubjpass=agreement'
p842
aS'nsubjpass=child'
p843
aS'nsubjpass=compromise'
p844
aS'nsubjpass=conclusion'
p845
aS'nsubjpass=conflict'
p846
aS'nsubjpass=consensus'
p847
aS'nsubjpass=day'
p848
aS'nsubjpass=deadline'
p849
aS'nsubjpass=deal'
p850
aS'nsubjpass=decision'
p851
aS'nsubjpass=formulum'
p852
aS'nsubjpass=goal'
p853
aS'nsubjpass=government'
p854
aS'nsubjpass=justice'
p855
aS'nsubjpass=mdg'
p856
aS'nsubjpass=milestone'
p857
aS'nsubjpass=most'
p858
aS'nsubjpass=official'
p859
aS'nsubjpass=people'
p860
aS'nsubjpass=point'
p861
aS'nsubjpass=process'
p862
aS'nsubjpass=quorum'
p863
aS'nsubjpass=settlement'
p864
aS'nsubjpass=solution'
p865
aS'nsubjpass=sort'
p866
aS'nsubjpass=that'
p867
aS'nsubjpass=ut'
p868
aS'nsubjpass=verdict'
p869
aS'nsubjpass=village'
p870
aS'nsubjpass=what'
p871
aS'nsubjpass=who'
p872
aS'parataxis=Long'
p873
aS'parataxis=increase'
p874
aS'parataxis=possible'
p875
aS'parataxis=share'
p876
aS'parataxis=the'
p877
aS'parataxis=use'
p878
aS'partmod=find'
p879
aS'partmod=hope'
p880
aS'partmod=make'
p881
aS'partmod=resolve'
p882
aS'partmod=work'
p883
aS'poss=#PRP#'
p884
aS'poss=hand'
p885
aS'prep=about'
p886
aS'prep=above'
p887
aS'prep=accord'
p888
aS'prep=across'
p889
aS'prep=after'
p890
aS'prep=against'
p891
aS'prep=along'
p892
aS'prep=amid'
p893
aS'prep=among'
p894
aS'prep=around'
p895
aS'prep=as'
p896
aS'prep=at'
p897
aS'prep=base'
p898
aS'prep=because'
p899
aS'prep=before'
p900
aS'prep=behind'
p901
aS'prep=between'
p902
aS'prep=beyond'
p903
aS'prep=by'
p904
aS'prep=despite'
p905
aS'prep=during'
p906
aS'prep=for'
p907
aS'prep=from'
p908
aS'prep=in'
p909
aS'prep=include'
p910
aS'prep=into'
p911
aS'prep=like'
p912
aS'prep=near'
p913
aS'prep=of'
p914
aS'prep=on'
p915
aS'prep=out'
p916
aS'prep=over'
p917
aS'prep=particularly'
p918
aS'prep=regard'
p919
aS'prep=since'
p920
aS'prep=than'
p921
aS'prep=that'
p922
aS'prep=through'
p923
aS'prep=throughout'
p924
aS'prep=to'
p925
aS'prep=toward'
p926
aS'prep=under'
p927
aS'prep=until'
p928
aS'prep=with'
p929
aS'prep=within'
p930
aS'prt=out'
p931
aS'prt=up'
p932
aS'purpcl=create'
p933
aS'rel=that'
p934
aS'tmod=#DATE#'
p935
aS'tmod=#NUMBER#'
p936
aS'tmod=Broadcast'
p937
aS'tmod=day'
p938
aS'tmod=month'
p939
aS'tmod=morning'
p940
aS'tmod=time'
p941
aS'tmod=today'
p942
aS'tmod=week'
p943
aS'tmod=year'
p944
aS'w+1=$'
p945
aS'w+1=,'
p946
aS'w+1=-'
p947
aS'w+1=.'
p948
aS'w+1=1,000'
p949
aS'w+1=1.3'
p950
aS'w+1=10'
p951
aS'w+1=100,000'
p952
aS'w+1=165,000'
p953
aS'w+1=19'
p954
aS'w+1=20'
p955
aS'w+1=20,000'
p956
aS'w+1=25'
p957
aS'w+1=30'
p958
aS'w+1=300'
p959
aS'w+1=3000'
p960
aS'w+1=40'
p961
aS'w+1=40percent'
p962
aS'w+1=437,000'
p963
aS'w+1=45'
p964
aS'w+1=57'
p965
aS'w+1=60'
p966
aS'w+1=7.8'
p967
aS'w+1=75,000'
p968
aS'w+1=785'
p969
aS'w+1=80'
p970
aS'w+1=854'
p971
aS'w+1=90-percent'
p972
aS'w+1=:'
p973
aS'w+1=?'
p974
aS'w+1=ASEAN'
p975
aS'w+1=Australia'
p976
aS'w+1=Bahrain'
p977
aS'w+1=Britain'
p978
aS'w+1=Category'
p979
aS'w+1=Chad'
p980
aS'w+1=Charkhali'
p981
aS'w+1=Europe'
p982
aS'w+1=February'
p983
aS'w+1=Gaza'
p984
aS'w+1=Georgia'
p985
aS'w+1=Hamas'
p986
aS'w+1=Islamabad'
p987
aS'w+1=Italy'
p988
aS'w+1=Kabul'
p989
aS'w+1=Latin'
p990
aS'w+1=Mars'
p991
aS'w+1=Mexico'
p992
aS'w+1=Monday'
p993
aS'w+1=Ms.'
p994
aS'w+1=Number'
p995
aS'w+1=Pakistan'
p996
aS'w+1=President'
p997
aS'w+1=Sambath'
p998
aS'w+1=Saturday'
p999
aS'w+1=Spain'
p1000
aS'w+1=Super'
p1001
aS'w+1=U.N.'
p1002
aS'w+1=U.S.'
p1003
aS'w+1=Uganda'
p1004
aS'w+1=Washington'
p1005
aS'w+1=Yemen'
p1006
aS'w+1=a'
p1007
aS'w+1=about'
p1008
aS'w+1=above'
p1009
aS'w+1=across'
p1010
aS'w+1=activist'
p1011
aS'w+1=affect'
p1012
aS'w+1=after'
p1013
aS'w+1=agreement'
p1014
aS'w+1=all'
p1015
aS'w+1=all-time'
p1016
aS'w+1=among'
p1017
aS'w+1=and'
p1018
aS'w+1=another'
p1019
aS'w+1=any'
p1020
aS'w+1=anyone'
p1021
aS'w+1=anytime'
p1022
aS'w+1=area'
p1023
aS'w+1=arm'
p1024
aS'w+1=as'
p1025
aS'w+1=at'
p1026
aS'w+1=audience'
p1027
aS'w+1=australian'
p1028
aS'w+1=back'
p1029
aS'w+1=basketball'
p1030
aS'w+1=be'
p1031
aS'w+1=before'
p1032
aS'w+1=behind'
p1033
aS'w+1=between'
p1034
aS'w+1=beyond'
p1035
aS'w+1=bilateral'
p1036
aS'w+1=binding'
p1037
aS'w+1=broad'
p1038
aS'w+1=broadly'
p1039
aS'w+1=burst'
p1040
aS'w+1=by'
p1041
aS'w+1=can'
p1042
aS'w+1=certain'
p1043
aS'w+1=child'
p1044
aS'w+1=clear'
p1045
aS'w+1=close'
p1046
aS'w+1=completion'
p1047
aS'w+1=compromise'
p1048
aS'w+1=conclusion'
p1049
aS'w+1=consensus'
p1050
aS'w+1=consequence'
p1051
aS'w+1=court'
p1052
aS'w+1=crisis'
p1053
aS'w+1=democracy'
p1054
aS'w+1=dozen'
p1055
aS'w+1=during'
p1056
aS'w+1=early'
p1057
aS'w+1=eight'
p1058
aS'w+1=energy'
p1059
aS'w+1=epidemic'
p1060
aS'w+1=european'
p1061
aS'w+1=every'
p1062
aS'w+1=everyone'
p1063
aS'w+1=family'
p1064
aS'w+1=fan'
p1065
aS'w+1=far'
p1066
aS'w+1=farmer'
p1067
aS'w+1=for'
p1068
aS'w+1=freedom'
p1069
aS'w+1=from'
p1070
aS'w+1=full'
p1071
aS'w+1=half'
p1072
aS'w+1=he'
p1073
aS'w+1=here'
p1074
aS'w+1=hospital'
p1075
aS'w+1=hundred'
p1076
aS'w+1=hurricane'
p1077
aS'w+1=in'
p1078
aS'w+1=indonesian'
p1079
aS'w+1=inside'
p1080
aS'w+1=into'
p1081
aS'w+1=israeli'
p1082
aS'w+1=it'
p1083
aS'w+1=its'
p1084
aS'w+1=japanese'
p1085
aS'w+1=just'
p1086
aS'w+1=land'
p1087
aS'w+1=larger'
p1088
aS'w+1=last'
p1089
aS'w+1=lasting'
p1090
aS'w+1=less'
p1091
aS'w+1=many'
p1092
aS'w+1=market'
p1093
aS'w+1=maturity'
p1094
aS'w+1=maximum'
p1095
aS'w+1=medical'
p1096
aS'w+1=million'
p1097
aS'w+1=more'
p1098
aS'w+1=mosque'
p1099
aS'w+1=most'
p1100
aS'w+1=muslim'
p1101
aS'w+1=my'
p1102
aS'w+1=nearly'
p1103
aS'w+1=needy'
p1104
aS'w+1=negative'
p1105
aS'w+1=negotiate'
p1106
aS'w+1=new'
p1107
aS'w+1=no'
p1108
aS'w+1=now'
p1109
aS'w+1=nowhere'
p1110
aS'w+1=number'
p1111
aS'w+1=of'
p1112
aS'w+1=on'
p1113
aS'w+1=one'
p1114
aS'w+1=only'
p1115
aS'w+1=out'
p1116
aS'w+1=outer'
p1117
aS'w+1=outgier'
p1118
aS'w+1=over'
p1119
aS'w+1=parliament'
p1120
aS'w+1=patient'
p1121
aS'w+1=peace'
p1122
aS'w+1=people'
p1123
aS'w+1=policymaker'
p1124
aS'w+1=political'
p1125
aS'w+1=politician'
p1126
aS'w+1=polling'
p1127
aS'w+1=poor'
p1128
aS'w+1=popular'
p1129
aS'w+1=pre-surge'
p1130
aS'w+1=puberty'
p1131
aS'w+1=record'
p1132
aS'w+1=rogue'
p1133
aS'w+1=roughly'
p1134
aS'w+1=rural'
p1135
aS'w+1=sale'
p1136
aS'w+1=saturation'
p1137
aS'w+1=second'
p1138
aS'w+1=senior'
p1139
aS'w+1=several'
p1140
aS'w+1=shore'
p1141
aS'w+1=shortly'
p1142
aS'w+1=significant'
p1143
aS'w+1=since'
p1144
aS'w+1=six'
p1145
aS'w+1=so'
p1146
aS'w+1=some'
p1147
aS'w+1=something'
p1148
aS'w+1=soon'
p1149
aS'w+1=specific'
p1150
aS'w+1=statehood'
p1151
aS'w+1=strategy'
p1152
aS'w+1=street'
p1153
aS'w+1=survivor'
p1154
aS'w+1=sweltering'
p1155
aS'w+1=ten'
p1156
aS'w+1=that'
p1157
aS'w+1=the'
p1158
aS'w+1=these'
p1159
aS'w+1=they'
p1160
aS'w+1=this'
p1161
aS'w+1=those'
p1162
aS'w+1=thousand'
p1163
aS'w+1=three'
p1164
aS'w+1=through'
p1165
aS'w+1=to'
p1166
aS'w+1=tolerable'
p1167
aS'w+1=town'
p1168
aS'w+1=trial'
p1169
aS'w+1=triple'
p1170
aS'w+1=troops'
p1171
aS'w+1=troubled'
p1172
aS'w+1=unacceptable'
p1173
aS'w+1=under'
p1174
aS'w+1=understand'
p1175
aS'w+1=unprecedented'
p1176
aS'w+1=until'
p1177
aS'w+1=up'
p1178
aS'w+1=vast'
p1179
aS'w+1=viewer'
p1180
aS'w+1=village'
p1181
aS'w+1=voter'
p1182
aS'w+1=vulnerable'
p1183
aS'w+1=we'
p1184
aS'w+1=what'
p1185
aS'w+1=wherever'
p1186
aS'w+1=with'
p1187
aS'w+1=within'
p1188
aS'w+1=woman'
p1189
aS'w+1=year'
p1190
aS'w+1=yet'
p1191
aS'w+1=you'
p1192
aS'w+1=young'
p1193
aS'w+1=younger'
p1194
aS'w+2=$'
p1195
aS"w+2='"
p1196
aS"w+2=''"
p1197
aS"w+2='s"
p1198
aS'w+2=,'
p1199
aS'w+2=-'
p1200
aS'w+2=--'
p1201
aS'w+2=-lrb-'
p1202
aS'w+2=.'
p1203
aS'w+2=1.6'
p1204
aS'w+2=10-year'
p1205
aS'w+2=100'
p1206
aS'w+2=100,000'
p1207
aS'w+2=11-year'
p1208
aS'w+2=13'
p1209
aS'w+2=13.5'
p1210
aS'w+2=13th'
p1211
aS'w+2=14-month'
p1212
aS'w+2=14-year'
p1213
aS'w+2=160'
p1214
aS'w+2=18'
p1215
aS'w+2=1991'
p1216
aS'w+2=2.5'
p1217
aS'w+2=200'
p1218
aS'w+2=2000'
p1219
aS'w+2=2002'
p1220
aS'w+2=2005'
p1221
aS'w+2=2006'
p1222
aS'w+2=2025'
p1223
aS'w+2=2050'
p1224
aS'w+2=2100'
p1225
aS'w+2=26-year'
p1226
aS'w+2=40'
p1227
aS'w+2=40,000'
p1228
aS'w+2=5'
p1229
aS'w+2=50'
p1230
aS'w+2=60'
p1231
aS'w+2=8,000'
p1232
aS'w+2=857'
p1233
aS'w+2=America'
p1234
aS'w+2=Bemba'
p1235
aS'w+2=Bhutto'
p1236
aS'w+2=Bowl'
p1237
aS'w+2=Burkina'
p1238
aS'w+2=Bush'
p1239
aS'w+2=Canary'
p1240
aS'w+2=Danube'
p1241
aS'w+2=Democrats'
p1242
aS'w+2=Doha'
p1243
aS'w+2=EU'
p1244
aS'w+2=Economic'
p1245
aS'w+2=February'
p1246
aS'w+2=Friday'
p1247
aS'w+2=Gaza'
p1248
aS'w+2=Hispanics'
p1249
aS'w+2=House'
p1250
aS'w+2=India'
p1251
aS'w+2=Israel'
p1252
aS'w+2=January'
p1253
aS'w+2=Kyiv'
p1254
aS'w+2=Legg'
p1255
aS'w+2=MDGs'
p1256
aS'w+2=Mecca'
p1257
aS'w+2=Middle'
p1258
aS'w+2=Millennium'
p1259
aS'w+2=Moscow'
p1260
aS'w+2=NATO'
p1261
aS'w+2=NBA'
p1262
aS'w+2=New'
p1263
aS'w+2=Niger'
p1264
aS'w+2=November'
p1265
aS'w+2=Olympics'
p1266
aS'w+2=Pakistan'
p1267
aS'w+2=President'
p1268
aS'w+2=September'
p1269
aS'w+2=Serbia'
p1270
aS'w+2=Sofia'
p1271
aS'w+2=South'
p1272
aS'w+2=Super'
p1273
aS'w+2=Superbowl'
p1274
aS'w+2=Turkey'
p1275
aS'w+2=U.N.'
p1276
aS'w+2=U.S.'
p1277
aS'w+2=United'
p1278
aS'w+2=West'
p1279
aS'w+2=White'
p1280
aS'w+2=World'
p1281
aS'w+2=Yemen'
p1282
aS'w+2=a'
p1283
aS'w+2=about'
p1284
aS'w+2=access'
p1285
aS'w+2=accommodation'
p1286
aS'w+2=accord'
p1287
aS'w+2=advanced'
p1288
aS'w+2=affect'
p1289
aS'w+2=age'
p1290
aS'w+2=agreement'
p1291
aS'w+2=agreementto'
p1292
aS'w+2=airplane'
p1293
aS'w+2=alive'
p1294
aS'w+2=all'
p1295
aS'w+2=allow'
p1296
aS'w+2=american'
p1297
aS'w+2=among'
p1298
aS'w+2=and'
p1299
aS'w+2=annual'
p1300
aS'w+2=any'
p1301
aS'w+2=anytime'
p1302
aS'w+2=area'
p1303
aS'w+2=around'
p1304
aS'w+2=as'
p1305
aS'w+2=at'
p1306
aS'w+2=audience'
p1307
aS'w+2=avert'
p1308
aS'w+2=base'
p1309
aS'w+2=be'
p1310
aS'w+2=because'
p1311
aS'w+2=before'
p1312
aS'w+2=believe'
p1313
aS'w+2=benchmark'
p1314
aS'w+2=beyond'
p1315
aS'w+2=billion'
p1316
aS'w+2=bipartisan'
p1317
aS'w+2=book'
p1318
aS'w+2=border'
p1319
aS'w+2=borrower'
p1320
aS'w+2=breaking'
p1321
aS'w+2=breakthrough'
p1322
aS'w+2=broad'
p1323
aS'w+2=broader'
p1324
aS'w+2=broadly'
p1325
aS'w+2=but'
p1326
aS'w+2=by'
p1327
aS'w+2=byspeak'
p1328
aS'w+2=camp'
p1329
aS'w+2=can'
p1330
aS'w+2=capital'
p1331
aS'w+2=ceasefire'
p1332
aS'w+2=certain'
p1333
aS'w+2=child'
p1334
aS'w+2=cholera'
p1335
aS'w+2=citizen'
p1336
aS'w+2=climax'
p1337
aS'w+2=clinic'
p1338
aS'w+2=coast'
p1339
aS'w+2=comment'
p1340
aS'w+2=common'
p1341
aS'w+2=community'
p1342
aS'w+2=company'
p1343
aS'w+2=comprehensive'
p1344
aS'w+2=compromise'
p1345
aS'w+2=concert'
p1346
aS'w+2=conclusion'
p1347
aS'w+2=consecutive'
p1348
aS'w+2=consensus'
p1349
aS'w+2=contact'
p1350
aS'w+2=contentious'
p1351
aS'w+2=continent'
p1352
aS'w+2=control'
p1353
aS'w+2=courthouse'
p1354
aS'w+2=credibility'
p1355
aS'w+2=crisis'
p1356
aS'w+2=critical'
p1357
aS'w+2=crucial'
p1358
aS'w+2=culmination'
p1359
aS'w+2=culture'
p1360
aS'w+2=cut'
p1361
aS'w+2=dam'
p1362
aS'w+2=dark'
p1363
aS'w+2=day'
p1364
aS'w+2=dead'
p1365
aS'w+2=deal'
p1366
aS'w+2=decision'
p1367
aS'w+2=decisive'
p1368
aS'w+2=delegate'
p1369
aS'w+2=desk'
p1370
aS'w+2=destination'
p1371
aS'w+2=different'
p1372
aS'w+2=digit'
p1373
aS'w+2=diplomatically'
p1374
aS'w+2=early'
p1375
aS'w+2=edge'
p1376
aS'w+2=either'
p1377
aS'w+2=elsewhere'
p1378
aS'w+2=elusive'
p1379
aS'w+2=emergency'
p1380
aS'w+2=enact'
p1381
aS'w+2=encounter'
p1382
aS'w+2=end'
p1383
aS'w+2=endorsement'
p1384
aS'w+2=enduring'
p1385
aS'w+2=enrichment'
p1386
aS'w+2=entertainment'
p1387
aS'w+2=entrance'
p1388
aS'w+2=ethnic'
p1389
aS'w+2=european'
p1390
aS'w+2=even'
p1391
aS'w+2=everything'
p1392
aS'w+2=everywhere'
p1393
aS'w+2=facility'
p1394
aS'w+2=far'
p1395
aS'w+2=farm'
p1396
aS'w+2=feverish'
p1397
aS'w+2=few'
p1398
aS'w+2=figure'
p1399
aS'w+2=final'
p1400
aS'w+2=first'
p1401
aS'w+2=five'
p1402
aS'w+2=flashpoint'
p1403
aS'w+2=floor'
p1404
aS'w+2=follow'
p1405
aS'w+2=foot'
p1406
aS'w+2=for'
p1407
aS'w+2=formal'
p1408
aS'w+2=four-year'
p1409
aS'w+2=framework'
p1410
aS'w+2=free'
p1411
aS'w+2=french-secured'
p1412
aS'w+2=from'
p1413
aS'w+2=full'
p1414
aS'w+2=give'
p1415
aS'w+2=goal'
p1416
aS'w+2=government'
p1417
aS'w+2=greatest'
p1418
aS'w+2=half'
p1419
aS'w+2=hall'
p1420
aS'w+2=hamas-led'
p1421
aS'w+2=hardest'
p1422
aS'w+2=hardest-hit'
p1423
aS'w+2=he'
p1424
aS'w+2=height'
p1425
aS'w+2=helicopter'
p1426
aS'w+2=high'
p1427
aS'w+2=higher'
p1428
aS'w+2=highest'
p1429
aS'w+2=historic'
p1430
aS'w+2=home'
p1431
aS'w+2=hopefully'
p1432
aS'w+2=horizon'
p1433
aS'w+2=hospital'
p1434
aS'w+2=house'
p1435
aS'w+2=how'
p1436
aS'w+2=huge'
p1437
aS'w+2=hundred'
p1438
aS'w+2=hungry'
p1439
aS'w+2=hyper'
p1440
aS'w+2=illegally'
p1441
aS'w+2=impasse'
p1442
aS'w+2=in'
p1443
aS'w+2=include'
p1444
aS'w+2=inconsistent'
p1445
aS'w+2=informal'
p1446
aS'w+2=intended'
p1447
aS'w+2=interim'
p1448
aS'w+2=international'
p1449
aS'w+2=into'
p1450
aS'w+2=island'
p1451
aS'w+2=israeli-palestinian'
p1452
aS'w+2=it'
p1453
aS'w+2=its'
p1454
aS'w+2=key'
p1455
aS'w+2=kind'
p1456
aS'w+2=larger'
p1457
aS'w+2=last'
p1458
aS'w+2=last-ditch'
p1459
aS'w+2=last-minute'
p1460
aS'w+2=lasting'
p1461
aS'w+2=lead'
p1462
aS'w+2=legal'
p1463
aS'w+2=level'
p1464
aS'w+2=like'
p1465
aS'w+2=limit'
p1466
aS'w+2=listener'
p1467
aS'w+2=long-term'
p1468
aS'w+2=lot'
p1469
aS'w+2=low'
p1470
aS'w+2=man'
p1471
aS'w+2=many'
p1472
aS'w+2=market'
p1473
aS'w+2=medal'
p1474
aS'w+2=media'
p1475
aS'w+2=meeting'
p1476
aS'w+2=member'
p1477
aS'w+2=meter'
p1478
aS'w+2=milestone'
p1479
aS'w+2=millennium'
p1480
aS'w+2=million'
p1481
aS'w+2=month'
p1482
aS'w+2=moon'
p1483
aS'w+2=more'
p1484
aS'w+2=most'
p1485
aS'w+2=multi-million'
p1486
aS'w+2=multinational'
p1487
aS'w+2=mutually'
p1488
aS'w+2=near'
p1489
aS'w+2=nearest'
p1490
aS'w+2=necessary'
p1491
aS'w+2=need'
p1492
aS'w+2=neediest'
p1493
aS'w+2=needy'
p1494
aS'w+2=negotiate'
p1495
aS'w+2=new'
p1496
aS'w+2=newly'
p1497
aS'w+2=next'
p1498
aS'w+2=normal'
p1499
aS'w+2=of'
p1500
aS'w+2=on'
p1501
aS'w+2=one'
p1502
aS'w+2=onlf'
p1503
aS'w+2=or'
p1504
aS'w+2=order'
p1505
aS'w+2=out'
p1506
aS'w+2=outline'
p1507
aS'w+2=over'
p1508
aS'w+2=overall'
p1509
aS'w+2=ownposition'
p1510
aS'w+2=palestinian'
p1511
aS'w+2=part'
p1512
aS'w+2=partnership'
p1513
aS'w+2=patient'
p1514
aS'w+2=peace'
p1515
aS'w+2=peak'
p1516
aS'w+2=people'
p1517
aS'w+2=percent'
p1518
aS'w+2=phase'
p1519
aS'w+2=physical'
p1520
aS'w+2=pilot'
p1521
aS'w+2=pinnacle'
p1522
aS'w+2=pitch'
p1523
aS'w+2=place'
p1524
aS'w+2=pocket'
p1525
aS'w+2=point'
p1526
aS'w+2=political'
p1527
aS'w+2=poorest'
p1528
aS'w+2=possible'
p1529
aS'w+2=potential'
p1530
aS'w+2=power'
p1531
aS'w+2=power-sharing'
p1532
aS'w+2=president'
p1533
aS'w+2=presidential'
p1534
aS'w+2=previously'
p1535
aS'w+2=print'
p1536
aS'w+2=procedure'
p1537
aS'w+2=proportion'
p1538
aS'w+2=public'
p1539
aS'w+2=quarter'
p1540
aS'w+2=quarterfinal'
p1541
aS'w+2=reader'
p1542
aS'w+2=rebel'
p1543
aS'w+2=rebuild'
p1544
aS'w+2=recommendation'
p1545
aS'w+2=reconciliation'
p1546
aS'w+2=record'
p1547
aS'w+2=record-high'
p1548
aS'w+2=region'
p1549
aS'w+2=relative'
p1550
aS'w+2=religious'
p1551
aS'w+2=remain'
p1552
aS'w+2=require'
p1553
aS'w+2=required'
p1554
aS'w+2=right'
p1555
aS'w+2=rival'
p1556
aS'w+2=rural'
p1557
aS'w+2=safety'
p1558
aS'w+2=same'
p1559
aS'w+2=satisfactory'
p1560
aS'w+2=say'
p1561
aS'w+2=scale'
p1562
aS'w+2=semifinal'
p1563
aS'w+2=separate'
p1564
aS'w+2=settlement'
p1565
aS'w+2=seven-year'
p1566
aS'w+2=shore'
p1567
aS'w+2=since'
p1568
aS'w+2=site'
p1569
aS'w+2=six-party'
p1570
aS'w+2=slum'
p1571
aS'w+2=small'
p1572
aS'w+2=society'
p1573
aS'w+2=soil'
p1574
aS'w+2=solar'
p1575
aS'w+2=solution'
p1576
aS'w+2=some'
p1577
aS'w+2=soon'
p1578
aS'w+2=sort'
p1579
aS'w+2=south'
p1580
aS'w+2=space'
p1581
aS'w+2=spectacular'
p1582
aS'w+2=stabilization'
p1583
aS'w+2=stage'
p1584
aS'w+2=stalemate'
p1585
aS'w+2=state'
p1586
aS'w+2=station'
p1587
aS'w+2=status'
p1588
aS'w+2=step'
p1589
aS'w+2=stick'
p1590
aS'w+2=store'
p1591
aS'w+2=strength'
p1592
aS'w+2=success'
p1593
aS'w+2=sufficiently'
p1594
aS'w+2=summit'
p1595
aS'w+2=target'
p1596
aS'w+2=tasmanian'
p1597
aS'w+2=teach'
p1598
aS'w+2=telephone'
p1599
aS'w+2=temporary'
p1600
aS'w+2=ten'
p1601
aS'w+2=tentative'
p1602
aS'w+2=than'
p1603
aS'w+2=that'
p1604
aS'w+2=the'
p1605
aS'w+2=then'
p1606
aS'w+2=there'
p1607
aS'w+2=they'
p1608
aS'w+2=this'
p1609
aS'w+2=those'
p1610
aS'w+2=through'
p1611
aS'w+2=throughout'
p1612
aS'w+2=time'
p1613
aS'w+2=tiny'
p1614
aS'w+2=tipping'
p1615
aS'w+2=to'
p1616
aS'w+2=top'
p1617
aS'w+2=town'
p1618
aS'w+2=trade'
p1619
aS'w+2=trap'
p1620
aS'w+2=tribal'
p1621
aS'w+2=troops'
p1622
aS'w+2=tropical'
p1623
aS'w+2=troubling'
p1624
aS'w+2=truce'
p1625
aS'w+2=true'
p1626
aS'w+2=truly'
p1627
aS'w+2=twice'
p1628
aS'w+2=two'
p1629
aS'w+2=two-state'
p1630
aS'w+2=two-third'
p1631
aS'w+2=uncontrollable'
p1632
aS'w+2=understanding'
p1633
aS'w+2=unharmed'
p1634
aS'w+2=verdict'
p1635
aS'w+2=very'
p1636
aS'w+2=victim'
p1637
aS'w+2=village'
p1638
aS'w+2=water'
p1639
aS'w+2=we'
p1640
aS'w+2=week'
p1641
aS'w+2=weekly'
p1642
aS'w+2=western'
p1643
aS'w+2=wharf'
p1644
aS'w+2=what'
p1645
aS'w+2=where'
p1646
aS'w+2=which'
p1647
aS'w+2=who'
p1648
aS'w+2=wide'
p1649
aS'w+2=wide-ranging'
p1650
aS'w+2=wider'
p1651
aS'w+2=with'
p1652
aS'w+2=worker'
p1653
aS'w+2=would'
p1654
aS'w+2=wounded'
p1655
aS'w+2=year'
p1656
aS'w+2=you'
p1657
aS'w+2=young'
p1658
aS'w+2=youngster'
p1659
aS"w-1=''"
p1660
aS"w-1='ll"
p1661
aS"w-1='s"
p1662
aS'w-1=,'
p1663
aS'w-1=-'
p1664
aS'w-1=.'
p1665
aS'w-1=2004'
p1666
aS'w-1=31,000'
p1667
aS'w-1=:'
p1668
aS'w-1=ASEAN'
p1669
aS'w-1=Adua'
p1670
aS'w-1=Africa'
p1671
aS'w-1=Americans'
p1672
aS'w-1=Baghdad'
p1673
aS'w-1=Bosnia'
p1674
aS'w-1=Bush'
p1675
aS'w-1=Congress'
p1676
aS'w-1=Court'
p1677
aS'w-1=Dean'
p1678
aS'w-1=FNL'
p1679
aS'w-1=Fatah'
p1680
aS'w-1=Foundation'
p1681
aS'w-1=Iraq'
p1682
aS'w-1=Manila'
p1683
aS'w-1=Mohammed'
p1684
aS'w-1=Musharraf'
p1685
aS'w-1=Officer'
p1686
aS'w-1=Omar'
p1687
aS'w-1=Pakistan'
p1688
aS'w-1=Pakistanis'
p1689
aS'w-1=Republicans'
p1690
aS'w-1=Russia'
p1691
aS'w-1=States'
p1692
aS'w-1=Zimbabwe'
p1693
aS'w-1=``'
p1694
aS'w-1=a'
p1695
aS'w-1=about'
p1696
aS'w-1=above'
p1697
aS'w-1=accord'
p1698
aS'w-1=actually'
p1699
aS'w-1=administration'
p1700
aS'w-1=after'
p1701
aS'w-1=against'
p1702
aS'w-1=agreement'
p1703
aS'w-1=album'
p1704
aS'w-1=already'
p1705
aS'w-1=also'
p1706
aS'w-1=always'
p1707
aS'w-1=and'
p1708
aS'w-1=anemia'
p1709
aS'w-1=at'
p1710
aS'w-1=attack'
p1711
aS'w-1=audience'
p1712
aS'w-1=be'
p1713
aS'w-1=before'
p1714
aS'w-1=begin'
p1715
aS'w-1=benefit'
p1716
aS'w-1=between'
p1717
aS'w-1=bill'
p1718
aS'w-1=birthrate'
p1719
aS'w-1=boxer'
p1720
aS'w-1=breakthrough'
p1721
aS'w-1=broadcast'
p1722
aS'w-1=but'
p1723
aS'w-1=by'
p1724
aS'w-1=can'
p1725
aS'w-1=ceasefire'
p1726
aS'w-1=cocaine'
p1727
aS'w-1=compromise'
p1728
aS'w-1=conclusion'
p1729
aS'w-1=congestion'
p1730
aS'w-1=could'
p1731
aS'w-1=country'
p1732
aS'w-1=court'
p1733
aS'w-1=deal'
p1734
aS'w-1=delegation'
p1735
aS'w-1=demonstration'
p1736
aS'w-1=despite'
p1737
aS'w-1=dispute'
p1738
aS'w-1=do'
p1739
aS'w-1=dollar'
p1740
aS'w-1=easily'
p1741
aS'w-1=effect'
p1742
aS'w-1=effort'
p1743
aS'w-1=even'
p1744
aS'w-1=ever'
p1745
aS'w-1=exactly'
p1746
aS'w-1=faction'
p1747
aS'w-1=far'
p1748
aS'w-1=film'
p1749
aS'w-1=filmmaker'
p1750
aS'w-1=finally'
p1751
aS'w-1=first'
p1752
aS'w-1=food'
p1753
aS'w-1=for'
p1754
aS'w-1=from'
p1755
aS'w-1=girl'
p1756
aS'w-1=global'
p1757
aS'w-1=gold'
p1758
aS'w-1=group'
p1759
aS'w-1=have'
p1760
aS'w-1=he'
p1761
aS'w-1=height'
p1762
aS'w-1=help'
p1763
aS'w-1=hopefully'
p1764
aS'w-1=human'
p1765
aS'w-1=immediately'
p1766
aS'w-1=immigrant'
p1767
aS'w-1=in'
p1768
aS'w-1=include'
p1769
aS'w-1=insurgent'
p1770
aS'w-1=internally'
p1771
aS'w-1=international'
p1772
aS'w-1=into'
p1773
aS'w-1=it'
p1774
aS'w-1=its'
p1775
aS'w-1=just'
p1776
aS'w-1=land'
p1777
aS'w-1=last'
p1778
aS'w-1=leader'
p1779
aS'w-1=legislation'
p1780
aS'w-1=level'
p1781
aS'w-1=library'
p1782
aS'w-1=market'
p1783
aS'w-1=may'
p1784
aS'w-1=mean'
p1785
aS'w-1=measure'
p1786
aS'w-1=member'
p1787
aS'w-1=message'
p1788
aS'w-1=metal'
p1789
aS'w-1=might'
p1790
aS'w-1=migrant'
p1791
aS'w-1=minister'
p1792
aS'w-1=mission'
p1793
aS'w-1=mother'
p1794
aS'w-1=music'
p1795
aS'w-1=must'
p1796
aS'w-1=nation'
p1797
aS'w-1=nearly'
p1798
aS'w-1=never'
p1799
aS'w-1=not'
p1800
aS'w-1=now'
p1801
aS'w-1=of'
p1802
aS'w-1=often'
p1803
aS'w-1=oil'
p1804
aS'w-1=on'
p1805
aS'w-1=only'
p1806
aS'w-1=opposition'
p1807
aS'w-1=order'
p1808
aS'w-1=organization'
p1809
aS'w-1=out'
p1810
aS'w-1=outer'
p1811
aS'w-1=output'
p1812
aS'w-1=parliament'
p1813
aS'w-1=party'
p1814
aS'w-1=people'
p1815
aS'w-1=personally'
p1816
aS'w-1=plan'
p1817
aS'w-1=planner'
p1818
aS'w-1=president'
p1819
aS'w-1=price'
p1820
aS'w-1=principle'
p1821
aS'w-1=probably'
p1822
aS'w-1=production'
p1823
aS'w-1=program'
p1824
aS'w-1=prosecutor'
p1825
aS'w-1=quickly'
p1826
aS'w-1=rapidly'
p1827
aS'w-1=rarely'
p1828
aS'w-1=rate'
p1829
aS'w-1=really'
p1830
aS'w-1=rebel'
p1831
aS'w-1=recent'
p1832
aS'w-1=recommend'
p1833
aS'w-1=report'
p1834
aS'w-1=rioter'
p1835
aS'w-1=satisfactorily'
p1836
aS'w-1=say'
p1837
aS'w-1=season'
p1838
aS'w-1=seriously'
p1839
aS'w-1=she'
p1840
aS'w-1=ship'
p1841
aS'w-1=shipment'
p1842
aS'w-1=shortfall'
p1843
aS'w-1=should'
p1844
aS'w-1=show'
p1845
aS'w-1=side'
p1846
aS'w-1=song'
p1847
aS'w-1=soon'
p1848
aS'w-1=sparring'
p1849
aS'w-1=specifically'
p1850
aS'w-1=spokesman'
p1851
aS'w-1=start'
p1852
aS'w-1=still'
p1853
aS'w-1=stock'
p1854
aS'w-1=supplies'
p1855
aS'w-1=team'
p1856
aS'w-1=temperature'
p1857
aS'w-1=that'
p1858
aS'w-1=the'
p1859
aS'w-1=then'
p1860
aS'w-1=they'
p1861
aS'w-1=those'
p1862
aS'w-1=to'
p1863
aS'w-1=torch'
p1864
aS'w-1=toward'
p1865
aS'w-1=trial'
p1866
aS'w-1=troops'
p1867
aS'w-1=turnout'
p1868
aS'w-1=union'
p1869
aS'w-1=upon'
p1870
aS'w-1=vaccine'
p1871
aS'w-1=visitor'
p1872
aS'w-1=water'
p1873
aS'w-1=we'
p1874
aS'w-1=week'
p1875
aS'w-1=which'
p1876
aS'w-1=who'
p1877
aS'w-1=will'
p1878
aS'w-1=with'
p1879
aS'w-1=within'
p1880
aS'w-1=word'
p1881
aS'w-1=worker'
p1882
aS'w-1=would'
p1883
aS'w-1=year'
p1884
aS'w-1=yen'
p1885
aS'w-1=yet'
p1886
aS'w-1=you'
p1887
aS'w-1=youth'
p1888
aS"w-2='"
p1889
aS"w-2=''"
p1890
aS"w-2='s"
p1891
aS'w-2=,'
p1892
aS'w-2=-'
p1893
aS'w-2=-rrb-'
p1894
aS'w-2=.'
p1895
aS'w-2=1,500'
p1896
aS'w-2=12,000'
p1897
aS'w-2=1996'
p1898
aS'w-2=25'
p1899
aS'w-2=ASEAN'
p1900
aS'w-2=Abbas'
p1901
aS'w-2=Abu'
p1902
aS'w-2=Afghanistan'
p1903
aS'w-2=Africa'
p1904
aS'w-2=African'
p1905
aS'w-2=Ahmadinejad'
p1906
aS'w-2=Arenas'
p1907
aS'w-2=August'
p1908
aS'w-2=Bush'
p1909
aS'w-2=Carreras'
p1910
aS'w-2=China'
p1911
aS'w-2=Cubans'
p1912
aS'w-2=Danube'
p1913
aS'w-2=Darfur'
p1914
aS'w-2=Development'
p1915
aS'w-2=EU'
p1916
aS'w-2=Ertl'
p1917
aS'w-2=Fatah'
p1918
aS'w-2=February'
p1919
aS'w-2=Giants'
p1920
aS'w-2=Government'
p1921
aS'w-2=Hamas'
p1922
aS'w-2=Hearts'
p1923
aS'w-2=House'
p1924
aS'w-2=Hungary'
p1925
aS'w-2=I'
p1926
aS'w-2=Iraq'
p1927
aS'w-2=Israel'
p1928
aS'w-2=Italy'
p1929
aS'w-2=January'
p1930
aS'w-2=Jewishreligion'
p1931
aS'w-2=Karen'
p1932
aS'w-2=Kosovo'
p1933
aS'w-2=Kurd'
p1934
aS'w-2=Lukashenko'
p1935
aS'w-2=Mogadishu'
p1936
aS'w-2=Moscow'
p1937
aS'w-2=Mr.'
p1938
aS'w-2=Murree'
p1939
aS'w-2=Musharraf'
p1940
aS'w-2=Nations'
p1941
aS'w-2=Niger'
p1942
aS'w-2=Obama'
p1943
aS'w-2=Odinga'
p1944
aS'w-2=Organization'
p1945
aS'w-2=Organizations'
p1946
aS'w-2=Pakistan'
p1947
aS'w-2=Palestinians'
p1948
aS'w-2=Pen'
p1949
aS'w-2=Pervez'
p1950
aS'w-2=President'
p1951
aS'w-2=Press'
p1952
aS'w-2=Roh'
p1953
aS'w-2=Romance'
p1954
aS'w-2=Rome'
p1955
aS'w-2=Russia'
p1956
aS'w-2=Schools'
p1957
aS'w-2=Sea'
p1958
aS'w-2=Sox'
p1959
aS'w-2=States'
p1960
aS'w-2=Sunday'
p1961
aS'w-2=Supreme'
p1962
aS'w-2=Time'
p1963
aS'w-2=Union'
p1964
aS'w-2=United'
p1965
aS'w-2=Venezuela'
p1966
aS'w-2=Wednesday'
p1967
aS'w-2=West'
p1968
aS'w-2=Woods'
p1969
aS'w-2=Workers'
p1970
aS'w-2=Zimbabwe'
p1971
aS'w-2=`'
p1972
aS'w-2=a'
p1973
aS'w-2=able'
p1974
aS'w-2=abroad'
p1975
aS'w-2=action'
p1976
aS'w-2=actually'
p1977
aS'w-2=administration'
p1978
aS'w-2=affect'
p1979
aS'w-2=african'
p1980
aS'w-2=agency'
p1981
aS'w-2=agreement'
p1982
aS'w-2=aid'
p1983
aS'w-2=aim'
p1984
aS'w-2=air'
p1985
aS'w-2=already'
p1986
aS'w-2=ambulance'
p1987
aS'w-2=american'
p1988
aS'w-2=and'
p1989
aS'w-2=anti-terrorism'
p1990
aS'w-2=any'
p1991
aS'w-2=area'
p1992
aS'w-2=army'
p1993
aS'w-2=artist'
p1994
aS'w-2=as'
p1995
aS'w-2=assemble'
p1996
aS'w-2=assessment'
p1997
aS'w-2=assistance'
p1998
aS'w-2=at'
p1999
aS'w-2=attempt'
p2000
aS'w-2=authority'
p2001
aS'w-2=be'
p2002
aS'w-2=because'
p2003
aS'w-2=before'
p2004
aS'w-2=behind'
p2005
aS'w-2=benefit'
p2006
aS'w-2=best'
p2007
aS'w-2=beyond'
p2008
aS'w-2=bishop'
p2009
aS'w-2=bloc'
p2010
aS'w-2=blog'
p2011
aS'w-2=boat'
p2012
aS'w-2=border'
p2013
aS'w-2=both'
p2014
aS'w-2=brigade'
p2015
aS'w-2=broader'
p2016
aS'w-2=building'
p2017
aS'w-2=but'
p2018
aS'w-2=by'
p2019
aS'w-2=call'
p2020
aS'w-2=camel'
p2021
aS'w-2=can'
p2022
aS'w-2=cancer'
p2023
aS'w-2=canoe'
p2024
aS'w-2=capability'
p2025
aS'w-2=capable'
p2026
aS'w-2=cash'
p2027
aS'w-2=century'
p2028
aS'w-2=chance'
p2029
aS'w-2=check'
p2030
aS'w-2=child'
p2031
aS'w-2=choice'
p2032
aS'w-2=city'
p2033
aS'w-2=class'
p2034
aS'w-2=close'
p2035
aS'w-2=coach'
p2036
aS'w-2=cocaine'
p2037
aS'w-2=combined'
p2038
aS'w-2=come'
p2039
aS'w-2=commit'
p2040
aS'w-2=commitment'
p2041
aS'w-2=committed'
p2042
aS'w-2=community'
p2043
aS'w-2=compromise'
p2044
aS'w-2=consensus'
p2045
aS'w-2=continue'
p2046
aS'w-2=could'
p2047
aS'w-2=country'
p2048
aS'w-2=court'
p2049
aS'w-2=crocodile'
p2050
aS'w-2=crude'
p2051
aS'w-2=current'
p2052
aS'w-2=day'
p2053
aS'w-2=deadline'
p2054
aS'w-2=deal'
p2055
aS'w-2=decide'
p2056
aS'w-2=decision'
p2057
aS'w-2=denuclearization'
p2058
aS'w-2=depend'
p2059
aS'w-2=desire'
p2060
aS'w-2=determine'
p2061
aS'w-2=development'
p2062
aS'w-2=difference'
p2063
aS'w-2=difficult'
p2064
aS'w-2=difficulty'
p2065
aS'w-2=diplomat'
p2066
aS'w-2=diplomatic'
p2067
aS'w-2=disability'
p2068
aS'w-2=disarmament'
p2069
aS'w-2=do'
p2070
aS'w-2=doubt'
p2071
aS'w-2=drag'
p2072
aS'w-2=effect'
p2073
aS'w-2=effort'
p2074
aS'w-2=electrical'
p2075
aS'w-2=emotion'
p2076
aS'w-2=enough'
p2077
aS'w-2=entitle'
p2078
aS'w-2=essentially'
p2079
aS'w-2=estimate'
p2080
aS'w-2=ethiopian'
p2081
aS'w-2=eventually'
p2082
aS'w-2=evidence'
p2083
aS'w-2=examiner'
p2084
aS'w-2=exchange'
p2085
aS'w-2=expand'
p2086
aS'w-2=expect'
p2087
aS'w-2=expense'
p2088
aS'w-2=exporter'
p2089
aS'w-2=extend'
p2090
aS'w-2=facility'
p2091
aS'w-2=fail'
p2092
aS'w-2=failure'
p2093
aS'w-2=faithful'
p2094
aS'w-2=family'
p2095
aS'w-2=far'
p2096
aS'w-2=film'
p2097
aS'w-2=final'
p2098
aS'w-2=five'
p2099
aS'w-2=five-nation'
p2100
aS'w-2=flight'
p2101
aS'w-2=follow'
p2102
aS'w-2=food'
p2103
aS'w-2=for'
p2104
aS'w-2=force'
p2105
aS'w-2=foreign'
p2106
aS'w-2=from'
p2107
aS'w-2=front'
p2108
aS'w-2=fund'
p2109
aS'w-2=give'
p2110
aS'w-2=go'
p2111
aS'w-2=goal'
p2112
aS'w-2=goods'
p2113
aS'w-2=government'
p2114
aS'w-2=group'
p2115
aS'w-2=hand'
p2116
aS'w-2=hard'
p2117
aS'w-2=hassaid'
p2118
aS'w-2=have'
p2119
aS'w-2=he'
p2120
aS'w-2=helicopter'
p2121
aS'w-2=help'
p2122
aS'w-2=high'
p2123
aS'w-2=hope'
p2124
aS'w-2=how'
p2125
aS'w-2=however'
p2126
aS'w-2=hurricane'
p2127
aS'w-2=if'
p2128
aS'w-2=illegal'
p2129
aS'w-2=immediately'
p2130
aS'w-2=important'
p2131
aS'w-2=impossible'
p2132
aS'w-2=in'
p2133
aS'w-2=inflation'
p2134
aS'w-2=information'
p2135
aS'w-2=intend'
p2136
aS'w-2=intended'
p2137
aS'w-2=interest'
p2138
aS'w-2=international'
p2139
aS'w-2=investigation'
p2140
aS'w-2=it'
p2141
aS'w-2=its'
p2142
aS'w-2=job'
p2143
aS'w-2=justice'
p2144
aS'w-2=kilometer'
p2145
aS'w-2=know'
p2146
aS'w-2=korean'
p2147
aS'w-2=language'
p2148
aS'w-2=last'
p2149
aS'w-2=late'
p2150
aS'w-2=lately'
p2151
aS'w-2=leader'
p2152
aS'w-2=leadership'
p2153
aS'w-2=let'
p2154
aS'w-2=life'
p2155
aS'w-2=like'
p2156
aS'w-2=likely'
p2157
aS'w-2=loan'
p2158
aS'w-2=make'
p2159
aS'w-2=man'
p2160
aS'w-2=manage'
p2161
aS'w-2=may'
p2162
aS'w-2=mdg'
p2163
aS'w-2=media'
p2164
aS'w-2=message'
p2165
aS'w-2=migrant'
p2166
aS'w-2=militiaman'
p2167
aS'w-2=money'
p2168
aS'w-2=monsoon'
p2169
aS'w-2=month'
p2170
aS'w-2=more'
p2171
aS'w-2=move'
p2172
aS'w-2=much'
p2173
aS'w-2=must'
p2174
aS'w-2=nation'
p2175
aS'w-2=need'
p2176
aS'w-2=never'
p2177
aS'w-2=no'
p2178
aS'w-2=non-governmental'
p2179
aS'w-2=not'
p2180
aS'w-2=nothing'
p2181
aS'w-2=nuclear'
p2182
aS'w-2=number'
p2183
aS'w-2=obligation'
p2184
aS'w-2=occasion'
p2185
aS'w-2=of'
p2186
aS'w-2=office'
p2187
aS'w-2=official'
p2188
aS'w-2=oil'
p2189
aS'w-2=olympic'
p2190
aS'w-2=on'
p2191
aS'w-2=once'
p2192
aS'w-2=one'
p2193
aS'w-2=only'
p2194
aS'w-2=opportunity'
p2195
aS'w-2=optimistic'
p2196
aS'w-2=option'
p2197
aS'w-2=or'
p2198
aS'w-2=order'
p2199
aS'w-2=other'
p2200
aS'w-2=out'
p2201
aS'w-2=owner'
p2202
aS'w-2=panel'
p2203
aS'w-2=participant'
p2204
aS'w-2=party'
p2205
aS'w-2=peace'
p2206
aS'w-2=peninsula'
p2207
aS'w-2=people'
p2208
aS'w-2=percent'
p2209
aS'w-2=peso'
p2210
aS'w-2=pipeline'
p2211
aS'w-2=piracy'
p2212
aS'w-2=pirate'
p2213
aS'w-2=plan'
p2214
aS'w-2=pledge'
p2215
aS'w-2=point'
p2216
aS'w-2=population'
p2217
aS'w-2=possibility'
p2218
aS'w-2=possible'
p2219
aS'w-2=power'
p2220
aS'w-2=power-sharing'
p2221
aS'w-2=precious'
p2222
aS'w-2=predict'
p2223
aS'w-2=prefer'
p2224
aS'w-2=pregnant'
p2225
aS'w-2=premature'
p2226
aS'w-2=preparation'
p2227
aS'w-2=prepare'
p2228
aS'w-2=present'
p2229
aS'w-2=president'
p2230
aS'w-2=pressure'
p2231
aS'w-2=primary'
p2232
aS'w-2=problem'
p2233
aS'w-2=proceedings'
p2234
aS'w-2=process'
p2235
aS'w-2=production'
p2236
aS'w-2=program'
p2237
aS'w-2=progress'
p2238
aS'w-2=project'
p2239
aS'w-2=projection'
p2240
aS'w-2=prophet'
p2241
aS'w-2=proposed'
p2242
aS'w-2=prospects'
p2243
aS'w-2=provide'
p2244
aS'w-2=province'
p2245
aS'w-2=question'
p2246
aS'w-2=quickly'
p2247
aS'w-2=realize'
p2248
aS'w-2=recent'
p2249
aS'w-2=reconciliation'
p2250
aS'w-2=refusal'
p2251
aS'w-2=regard'
p2252
aS'w-2=remain'
p2253
aS'w-2=reportedly'
p2254
aS'w-2=rise'
p2255
aS'w-2=rival'
p2256
aS'w-2=road'
p2257
aS'w-2=role'
p2258
aS'w-2=sale'
p2259
aS'w-2=say'
p2260
aS'w-2=scope'
p2261
aS'w-2=season'
p2262
aS'w-2=see'
p2263
aS'w-2=seek'
p2264
aS'w-2=seeker'
p2265
aS'w-2=serious'
p2266
aS'w-2=settlement'
p2267
aS'w-2=share'
p2268
aS'w-2=she'
p2269
aS'w-2=short'
p2270
aS'w-2=should'
p2271
aS'w-2=side'
p2272
aS'w-2=sign'
p2273
aS'w-2=single'
p2274
aS'w-2=site'
p2275
aS'w-2=situation'
p2276
aS'w-2=six'
p2277
aS'w-2=six-party'
p2278
aS'w-2=slick'
p2279
aS'w-2=slow'
p2280
aS'w-2=sludge'
p2281
aS'w-2=small'
p2282
aS'w-2=snake'
p2283
aS'w-2=solution'
p2284
aS'w-2=someone'
p2285
aS'w-2=son'
p2286
aS'w-2=south'
p2287
aS'w-2=special'
p2288
aS'w-2=species'
p2289
aS'w-2=spokesman'
p2290
aS'w-2=staff'
p2291
aS'w-2=stage'
p2292
aS'w-2=state'
p2293
aS'w-2=station'
p2294
aS'w-2=still'
p2295
aS'w-2=stock'
p2296
aS'w-2=strategy'
p2297
aS'w-2=streak'
p2298
aS'w-2=street'
p2299
aS'w-2=striking'
p2300
aS'w-2=strive'
p2301
aS'w-2=struggle'
p2302
aS'w-2=sub-saharan'
p2303
aS'w-2=such'
p2304
aS'w-2=supplies'
p2305
aS'w-2=supporter'
p2306
aS'w-2=suspension'
p2307
aS'w-2=system'
p2308
aS'w-2=table'
p2309
aS'w-2=take'
p2310
aS'w-2=talk'
p2311
aS'w-2=tariff'
p2312
aS'w-2=task'
p2313
aS'w-2=teaching'
p2314
aS'w-2=team'
p2315
aS'w-2=temperature'
p2316
aS'w-2=than'
p2317
aS'w-2=that'
p2318
aS'w-2=the'
p2319
aS'w-2=these'
p2320
aS'w-2=they'
p2321
aS'w-2=this'
p2322
aS'w-2=three'
p2323
aS'w-2=threshold'
p2324
aS'w-2=time'
p2325
aS'w-2=to'
p2326
aS'w-2=toll'
p2327
aS'w-2=tool'
p2328
aS'w-2=traditional'
p2329
aS'w-2=tribunal'
p2330
aS'w-2=trip'
p2331
aS'w-2=troops'
p2332
aS'w-2=try'
p2333
aS'w-2=turnout'
p2334
aS'w-2=twice'
p2335
aS'w-2=two'
p2336
aS'w-2=u.n.-backed'
p2337
aS'w-2=unable'
p2338
aS'w-2=unemployment'
p2339
aS'w-2=until'
p2340
aS'w-2=use'
p2341
aS'w-2=vaccinator'
p2342
aS'w-2=verbal'
p2343
aS'w-2=verdict'
p2344
aS'w-2=violence'
p2345
aS'w-2=vow'
p2346
aS'w-2=want'
p2347
aS'w-2=war'
p2348
aS'w-2=water'
p2349
aS'w-2=way'
p2350
aS'w-2=we'
p2351
aS'w-2=weapon'
p2352
aS'w-2=week'
p2353
aS'w-2=whaler'
p2354
aS'w-2=when'
p2355
aS'w-2=whenever'
p2356
aS'w-2=which'
p2357
aS'w-2=who'
p2358
aS'w-2=will'
p2359
aS'w-2=with'
p2360
aS'w-2=within'
p2361
aS'w-2=woman'
p2362
aS'w-2=word'
p2363
aS'w-2=worker'
p2364
aS'w-2=world'
p2365
aS'w-2=would'
p2366
aS'w-2=year'
p2367
aS'w-2=yet'
p2368
aS'w-2=you'
p2369
aS'w-2=young'
p2370
aS'xcomp=Chart'
p2371
aS'xcomp=abolish'
p2372
aS'xcomp=achieve'
p2373
aS'xcomp=alive'
p2374
aS'xcomp=allow'
p2375
aS'xcomp=arrive'
p2376
aS'xcomp=assist'
p2377
aS'xcomp=avert'
p2378
aS'xcomp=burst'
p2379
aS'xcomp=byspeak'
p2380
aS'xcomp=deliver'
p2381
aS'xcomp=dismantle'
p2382
aS'xcomp=drop'
p2383
aS'xcomp=ease'
p2384
aS'xcomp=end'
p2385
aS'xcomp=establish'
p2386
aS'xcomp=final'
p2387
aS'xcomp=find'
p2388
aS'xcomp=form'
p2389
aS'xcomp=free'
p2390
aS'xcomp=get'
p2391
aS'xcomp=give'
p2392
aS'xcomp=head'
p2393
aS'xcomp=help'
p2394
aS'xcomp=high'
p2395
aS'xcomp=include'
p2396
aS'xcomp=inspire'
p2397
aS'xcomp=invite'
p2398
aS'xcomp=join'
p2399
aS'xcomp=leave'
p2400
aS'xcomp=necessary'
p2401
aS'xcomp=negotiate'
p2402
aS'xcomp=organization'
p2403
aS'xcomp=other'
p2404
aS'xcomp=pull'
p2405
aS'xcomp=rebuild'
p2406
aS'xcomp=regard'
p2407
aS'xcomp=repeat'
p2408
aS'xcomp=replace'
p2409
aS'xcomp=rescue'
p2410
aS'xcomp=resume'
p2411
aS'xcomp=see'
p2412
aS'xcomp=sell'
p2413
aS'xcomp=shake'
p2414
aS'xcomp=share'
p2415
aS'xcomp=stop'
p2416
aS'xcomp=strengthen'
p2417
aS'xcomp=stress'
p2418
aS'xcomp=suitable'
p2419
aS'xcomp=test'
p2420
aS'xcomp=trade'
p2421
aS'xcomp=truly'
p2422
aS'xcomp=try'
p2423
aS'xcomp=unharmed'
p2424
aS'xcomp=urge'
p2425
aS'xcomp=withdraw'
p2426
asS'dtype'
p2427
cnumpy
float64
p2428
sS'vocabulary_'
p2429
(dp2430
g52
I43
sg2242
I2233
sg789
I780
sg1497
I1488
sg864
I855
sg109
I100
sg1940
I1931
sg2076
I2067
sg1281
I1272
sg524
I515
sg1398
I1389
sg1959
I1950
sg381
I372
sg494
I485
sg1576
I1567
sg821
I812
sg410
I401
sg1326
I1317
sg803
I794
sg579
I570
sg1596
I1587
sg995
I986
sg1449
I1440
sg1797
I1788
sg637
I628
sg1937
I1928
sg650
I641
sg1329
I1320
sg2176
I2167
sg1426
I1417
sg1262
I1253
sg359
I350
sg238
I229
sg1525
I1516
sg79
I70
sg2354
I2345
sg730
I721
sg45
I36
sg1868
I1859
sg406
I397
sg861
I852
sg635
I626
sg344
I335
sg1711
I1702
sg1127
I1118
sg1587
I1578
sg1050
I1041
sg2350
I2341
sg1878
I1869
sg853
I844
sg1682
I1673
sg1873
I1864
sg747
I738
sg2374
I2365
sg797
I788
sg76
I67
sg2075
I2066
sg2325
I2316
sg1782
I1773
sg2004
I1995
sg104
I95
sg1753
I1744
sg685
I676
sg1429
I1420
sg2358
I2349
sg1112
I1103
sg1113
I1104
sg1458
I1449
sg2131
I2122
sg299
I290
sg1658
I1649
sg578
I569
sg2235
I2226
sg1904
I1895
sg188
I179
sg505
I496
sg170
I161
sg611
I602
sg2129
I2120
sg323
I314
sg1016
I1007
sg89
I80
sg2194
I2185
sg1731
I1722
sg1657
I1648
sg895
I886
sg1566
I1557
sg2419
I2410
sg1887
I1878
sg1975
I1966
sg12
I3
sg842
I833
sg2318
I2309
sg1158
I1149
sg2317
I2308
sg2257
I2248
sg1771
I1762
sg1705
I1696
sg956
I947
sg2183
I2174
sg586
I577
sg1738
I1729
sg1931
I1922
sg2152
I2143
sg1905
I1896
sg1588
I1579
sg1148
I1139
sg284
I275
sg1846
I1837
sg235
I226
sg1188
I1179
sg16
I7
sg2386
I2377
sg2278
I2269
sg1522
I1513
sg1547
I1538
sg1789
I1780
sg2199
I2190
sg2269
I2260
sg370
I361
sg1044
I1035
sg1794
I1785
sg728
I719
sg1844
I1835
sg694
I685
sg806
I797
sg1080
I1071
sg93
I84
sg1770
I1761
sg697
I688
sg707
I698
sg1568
I1559
sg211
I202
sg1293
I1284
sg1312
I1303
sg564
I555
sg1531
I1522
sg724
I715
sg345
I336
sg139
I130
sg421
I412
sg1581
I1572
sg2211
I2202
sg1214
I1205
sg254
I245
sg2036
I2027
sg2416
I2407
sg823
I814
sg982
I973
sg916
I907
sg186
I177
sg41
I32
sg814
I805
sg1624
I1615
sg2043
I2034
sg500
I491
sg910
I901
sg2013
I2004
sg2372
I2363
sg2375
I2366
sg1445
I1436
sg26
I17
sg1863
I1854
sg83
I74
sg1752
I1743
sg1028
I1019
sg481
I472
sg1461
I1452
sg1423
I1414
sg316
I307
sg2070
I2061
sg37
I28
sg621
I612
sg775
I766
sg1192
I1183
sg1211
I1202
sg2216
I2207
sg534
I525
sg1344
I1335
sg634
I625
sg689
I680
sg1575
I1566
sg2088
I2079
sg130
I121
sg723
I714
sg999
I990
sg2044
I2035
sg1438
I1429
sg868
I859
sg1699
I1690
sg1073
I1064
sg2336
I2327
sg1295
I1286
sg1847
I1838
sg497
I488
sg1783
I1774
sg1137
I1128
sg1324
I1315
sg1165
I1156
sg1716
I1707
sg1490
I1481
sg55
I46
sg1311
I1302
sg1167
I1158
sg1758
I1749
sg2398
I2389
sg961
I952
sg1346
I1337
sg1040
I1031
sg1518
I1509
sg887
I878
sg960
I951
sg794
I785
sg1646
I1637
sg905
I896
sg1625
I1616
sg2040
I2031
sg244
I235
sg64
I55
sg1349
I1340
sg1251
I1242
sg392
I383
sg71
I62
sg1060
I1051
sg2060
I2051
sg526
I517
sg764
I755
sg631
I622
sg273
I264
sg885
I876
sg1110
I1101
sg1405
I1396
sg1590
I1581
sg1564
I1555
sg182
I173
sg1143
I1134
sg721
I712
sg1481
I1472
sg1115
I1106
sg540
I531
sg1263
I1254
sg468
I459
sg423
I414
sg952
I943
sg1939
I1930
sg353
I344
sg626
I617
sg1252
I1243
sg2034
I2025
sg751
I742
sg1574
I1565
sg2296
I2287
sg1142
I1133
sg2400
I2391
sg1785
I1776
sg1233
I1224
sg1371
I1362
sg2189
I2180
sg1153
I1144
sg286
I277
sg322
I313
sg1303
I1294
sg1709
I1700
sg56
I47
sg2000
I1991
sg339
I330
sg90
I81
sg1125
I1116
sg1545
I1536
sg1241
I1232
sg1799
I1790
sg2370
I2361
sg934
I925
sg1505
I1496
sg839
I830
sg1491
I1482
sg222
I213
sg1817
I1808
sg1819
I1810
sg210
I201
sg520
I511
sg1196
I1187
sg1813
I1804
sg2402
I2393
sg795
I786
sg2366
I2357
sg63
I54
sg1609
I1600
sg875
I866
sg657
I648
sg352
I343
sg711
I702
sg274
I265
sg1014
I1005
sg1034
I1025
sg792
I783
sg2231
I2222
sg683
I674
sg2254
I2245
sg205
I196
sg2090
I2081
sg971
I962
sg2139
I2130
sg2087
I2078
sg458
I449
sg600
I591
sg804
I795
sg1441
I1432
sg2360
I2351
sg325
I316
sg499
I490
sg1496
I1487
sg2323
I2314
sg2147
I2138
sg1992
I1983
sg397
I388
sg1702
I1693
sg2094
I2085
sg162
I153
sg1322
I1313
sg2220
I2211
sg216
I207
sg2295
I2286
sg862
I853
sg1865
I1856
sg2128
I2119
sg1635
I1626
sg866
I857
sg2133
I2124
sg46
I37
sg663
I654
sg2141
I2132
sg788
I779
sg1093
I1084
sg2418
I2409
sg686
I677
sg1204
I1195
sg1692
I1683
sg1066
I1057
sg1418
I1409
sg2097
I2088
sg1094
I1085
sg1348
I1339
sg398
I389
sg830
I821
sg1700
I1691
sg632
I623
sg1065
I1056
sg1049
I1040
sg1410
I1401
sg1043
I1034
sg453
I444
sg1493
I1484
sg2066
I2057
sg1982
I1973
sg1651
I1642
sg588
I579
sg1259
I1250
sg332
I323
sg1271
I1262
sg1631
I1622
sg1960
I1951
sg2020
I2011
sg419
I410
sg434
I425
sg1321
I1312
sg1848
I1839
sg171
I162
sg510
I501
sg187
I178
sg1776
I1767
sg2396
I2387
sg1375
I1366
sg776
I767
sg777
I768
sg1139
I1130
sg1048
I1039
sg2154
I2145
sg1078
I1069
sg1871
I1862
sg1083
I1074
sg557
I548
sg2202
I2193
sg605
I596
sg1008
I999
sg1630
I1621
sg1821
I1812
sg1039
I1030
sg994
I985
sg1422
I1413
sg1357
I1348
sg884
I875
sg1389
I1380
sg1494
I1485
sg1733
I1724
sg1361
I1352
sg1514
I1505
sg1825
I1816
sg712
I703
sg414
I405
sg1681
I1672
sg1012
I1003
sg2156
I2147
sg1328
I1319
sg871
I862
sg415
I406
sg1504
I1495
sg1759
I1750
sg2054
I2045
sg1949
I1940
sg279
I270
sg2106
I2097
sg97
I88
sg587
I578
sg393
I384
sg858
I849
sg2113
I2104
sg1615
I1606
sg2299
I2290
sg2303
I2294
sg326
I317
sg1075
I1066
sg1739
I1730
sg207
I198
sg835
I826
sg1118
I1109
sg174
I165
sg1006
I997
sg386
I377
sg2007
I1998
sg2410
I2401
sg1046
I1037
sg1037
I1028
sg2226
I2217
sg734
I725
sg1228
I1219
sg351
I342
sg1403
I1394
sg1213
I1204
sg25
I16
sg1808
I1799
sg1506
I1497
sg2326
I2317
sg1841
I1832
sg1989
I1980
sg1811
I1802
sg1766
I1757
sg951
I942
sg1151
I1142
sg161
I152
sg963
I954
sg2364
I2355
sg1991
I1982
sg65
I56
sg2120
I2111
sg2158
I2149
sg920
I911
sg1055
I1046
sg1053
I1044
sg1765
I1756
sg2218
I2209
sg1654
I1645
sg1966
I1957
sg1424
I1415
sg1185
I1176
sg567
I558
sg1215
I1206
sg1237
I1228
sg1212
I1203
sg1209
I1200
sg2151
I2142
sg1169
I1160
sg1831
I1822
sg2193
I2184
sg131
I122
sg2329
I2320
sg759
I750
sg2200
I2191
sg2069
I2060
sg154
I145
sg941
I932
sg1131
I1122
sg1417
I1408
sg1860
I1851
sg2051
I2042
sg559
I550
sg1703
I1694
sg1861
I1852
sg495
I486
sg462
I453
sg327
I318
sg543
I534
sg395
I386
sg1988
I1979
sg993
I984
sg1827
I1818
sg1009
I1000
sg206
I197
sg890
I881
sg1304
I1295
sg20
I11
sg2248
I2239
sg1052
I1043
sg1888
I1879
sg1749
I1740
sg1634
I1625
sg479
I470
sg198
I189
sg891
I882
sg264
I255
sg1430
I1421
sg720
I711
sg1069
I1060
sg1032
I1023
sg2271
I2262
sg1618
I1609
sg1340
I1331
sg33
I24
sg808
I799
sg209
I200
sg738
I729
sg1107
I1098
sg739
I730
sg1029
I1020
sg2425
I2416
sg1116
I1107
sg2110
I2101
sg2096
I2087
sg338
I329
sg2022
I2013
sg2108
I2099
sg379
I370
sg990
I981
sg602
I593
sg1480
I1471
sg1964
I1955
sg1772
I1763
sg1756
I1747
sg385
I376
sg1057
I1048
sg1175
I1166
sg1076
I1067
sg2187
I2178
sg436
I427
sg229
I220
sg136
I127
sg298
I289
sg2072
I2063
sg762
I753
sg2351
I2342
sg815
I806
sg1791
I1782
sg10
I1
sg405
I396
sg541
I532
sg1152
I1143
sg143
I134
sg1498
I1489
sg1162
I1153
sg2394
I2385
sg15
I6
sg1637
I1628
sg120
I111
sg1177
I1168
sg827
I818
sg2305
I2296
sg659
I650
sg2324
I2315
sg2409
I2400
sg1653
I1644
sg1580
I1571
sg1390
I1381
sg1562
I1553
sg863
I854
sg726
I717
sg347
I338
sg454
I445
sg1157
I1148
sg491
I482
sg460
I451
sg1507
I1498
sg2283
I2274
sg1837
I1828
sg1309
I1300
sg1962
I1953
sg2298
I2289
sg1464
I1455
sg1433
I1424
sg303
I294
sg957
I948
sg955
I946
sg1181
I1172
sg22
I13
sg1051
I1042
sg2223
I2214
sg1466
I1457
sg151
I142
sg2399
I2390
sg613
I604
sg1584
I1575
sg290
I281
sg615
I606
sg2267
I2258
sg2319
I2310
sg791
I782
sg968
I959
sg43
I34
sg1395
I1386
sg1536
I1527
sg719
I710
sg17
I8
sg2024
I2015
sg1086
I1077
sg1680
I1671
sg732
I723
sg1396
I1387
sg598
I589
sg433
I424
sg1850
I1841
sg399
I390
sg1519
I1510
sg1401
I1392
sg1726
I1717
sg1760
I1751
sg1338
I1329
sg2413
I2404
sg2166
I2157
sg1443
I1434
sg2353
I2344
sg1571
I1562
sg1453
I1444
sg2124
I2115
sg933
I924
sg702
I693
sg1243
I1234
sg886
I877
sg147
I138
sg2009
I2000
sg227
I218
sg1928
I1919
sg368
I359
sg991
I982
sg74
I65
sg1377
I1368
sg73
I64
sg2373
I2364
sg1737
I1728
sg2330
I2321
sg1948
I1939
sg117
I108
sg1320
I1311
sg422
I413
sg750
I741
sg1068
I1059
sg1632
I1623
sg1672
I1663
sg1526
I1517
sg224
I215
sg448
I439
sg1077
I1068
sg583
I574
sg1757
I1748
sg234
I225
sg2249
I2240
sg1755
I1746
sg1880
I1871
sg2179
I2170
sg245
I236
sg1853
I1844
sg2001
I1992
sg31
I22
sg2273
I2264
sg1210
I1201
sg1955
I1946
sg561
I552
sg2239
I2230
sg1436
I1427
sg314
I305
sg562
I553
sg1573
I1564
sg1407
I1398
sg241
I232
sg1529
I1520
sg1621
I1612
sg115
I106
sg1619
I1610
sg2338
I2329
sg2339
I2330
sg1640
I1631
sg366
I357
sg2185
I2176
sg1523
I1514
sg746
I737
sg1894
I1885
sg1155
I1146
sg2264
I2255
sg566
I557
sg383
I374
sg2209
I2200
sg1435
I1426
sg1432
I1423
sg122
I113
sg1721
I1712
sg2049
I2040
sg1144
I1135
sg502
I493
sg1697
I1688
sg1927
I1918
sg313
I304
sg2006
I1997
sg1569
I1560
sg493
I484
sg1611
I1602
sg1617
I1608
sg1399
I1390
sg1033
I1024
sg1923
I1914
sg1551
I1542
sg2238
I2229
sg108
I99
sg1882
I1873
sg1556
I1547
sg843
I834
sg1244
I1235
sg133
I124
sg1628
I1619
sg2219
I2210
sg378
I369
sg2270
I2261
sg2050
I2041
sg47
I38
sg638
I629
sg2266
I2257
sg1730
I1721
sg640
I631
sg1946
I1937
sg119
I110
sg1482
I1473
sg1141
I1132
sg1189
I1180
sg1285
I1276
sg2310
I2301
sg1977
I1968
sg917
I908
sg642
I633
sg482
I473
sg260
I251
sg1193
I1184
sg243
I234
sg1722
I1713
sg796
I787
sg867
I858
sg204
I195
sg1261
I1252
sg1885
I1876
sg412
I403
sg816
I807
sg1974
I1965
sg164
I155
sg105
I96
sg668
I659
sg1879
I1870
sg958
I949
sg2046
I2037
sg1226
I1217
sg1842
I1833
sg1886
I1877
sg1792
I1783
sg2379
I2370
sg1483
I1474
sg490
I481
sg262
I253
sg253
I244
sg166
I157
sg731
I722
sg1532
I1523
sg78
I69
sg68
I59
sg1919
I1910
sg763
I754
sg1954
I1945
sg2068
I2059
sg639
I630
sg429
I420
sg2142
I2133
sg1408
I1399
sg1274
I1265
sg787
I778
sg1612
I1603
sg1586
I1577
sg48
I39
sg270
I261
sg163
I154
sg226
I217
sg1475
I1466
sg2163
I2154
sg1965
I1956
sg175
I166
sg1668
I1659
sg1686
I1677
sg496
I487
sg1561
I1552
sg2261
I2252
sg101
I92
sg1558
I1549
sg693
I684
sg754
I745
sg652
I643
sg2080
I2071
sg651
I642
sg1174
I1165
sg2055
I2046
sg880
I871
sg287
I278
sg348
I339
sg744
I735
sg1859
I1850
sg461
I452
sg103
I94
sg584
I575
sg1537
I1528
sg1656
I1647
sg544
I535
sg549
I540
sg1388
I1379
sg2407
I2398
sg2294
I2285
sg1166
I1157
sg846
I837
sg1468
I1459
sg1708
I1699
sg2290
I2281
sg2302
I2293
sg985
I976
sg1406
I1397
sg1128
I1119
sg692
I683
sg2026
I2017
sg471
I462
sg92
I83
sg1866
I1857
sg39
I30
sg1786
I1777
sg2138
I2129
sg2426
I2417
sg1269
I1260
sg2059
I2050
sg847
I838
sg1126
I1117
sg1636
I1627
sg2234
I2225
sg1136
I1127
sg255
I246
sg837
I828
sg1943
I1934
sg716
I707
sg129
I120
sg810
I801
sg38
I29
sg743
I734
sg2401
I2392
sg665
I656
sg1553
I1544
sg1623
I1614
sg349
I340
sg984
I975
sg1534
I1525
sg1661
I1652
sg1120
I1111
sg59
I50
sg1610
I1601
sg936
I927
sg261
I252
sg1633
I1624
sg938
I929
sg2063
I2054
sg1364
I1355
sg1122
I1113
sg1554
I1545
sg2099
I2090
sg212
I203
sg2343
I2334
sg486
I477
sg1707
I1698
sg811
I802
sg214
I205
sg1600
I1591
sg446
I437
sg954
I945
sg1276
I1267
sg1508
I1499
sg1369
I1360
sg1314
I1305
sg1130
I1121
sg1472
I1463
sg1350
I1341
sg1434
I1425
sg1091
I1082
sg1216
I1207
sg294
I285
sg644
I635
sg141
I132
sg1674
I1665
sg2277
I2268
sg2344
I2335
sg1742
I1733
sg2008
I1999
sg1454
I1445
sg2214
I2205
sg1023
I1014
sg60
I51
sg1911
I1902
sg2053
I2044
sg249
I240
sg503
I494
sg953
I944
sg469
I460
sg1778
I1769
sg1816
I1807
sg899
I890
sg195
I186
sg2213
I2204
sg854
I845
sg926
I917
sg972
I963
sg1381
I1372
sg1921
I1912
sg1499
I1490
sg272
I263
sg2039
I2030
sg447
I438
sg1253
I1244
sg1287
I1278
sg2387
I2378
sg1968
I1959
sg666
I657
sg996
I987
sg873
I864
sg1240
I1231
sg328
I319
sg1644
I1635
sg2337
I2328
sg669
I660
sg49
I40
sg618
I609
sg674
I665
sg548
I539
sg673
I664
sg879
I870
sg1528
I1519
sg2327
I2318
sg619
I610
sg177
I168
sg2369
I2360
sg1902
I1893
sg1074
I1065
sg426
I417
sg2385
I2376
sg1577
I1568
sg2206
I2197
sg546
I537
sg857
I848
sg1567
I1558
sg80
I71
sg1541
I1532
sg519
I510
sg160
I151
sg1393
I1384
sg1462
I1453
sg1563
I1554
sg1467
I1458
sg1763
I1754
sg962
I953
sg1090
I1081
sg1986
I1977
sg2079
I2070
sg1718
I1709
sg1869
I1860
sg1857
I1848
sg547
I538
sg2424
I2415
sg1067
I1058
sg2005
I1996
sg717
I708
sg1647
I1638
sg2165
I2156
sg812
I803
sg1884
I1875
sg573
I564
sg292
I283
sg487
I478
sg2210
I2201
sg1585
I1576
sg1666
I1657
sg1054
I1045
sg2300
I2291
sg828
I819
sg167
I158
sg280
I271
sg267
I258
sg356
I347
sg2023
I2014
sg1455
I1446
sg2067
I2058
sg185
I176
sg2334
I2325
sg1257
I1248
sg1555
I1546
sg1922
I1913
sg898
I889
sg1877
I1868
sg2312
I2303
sg620
I611
sg488
I479
sg740
I731
sg1282
I1273
sg1777
I1768
sg2047
I2038
sg800
I791
sg2227
I2218
sg2077
I2068
sg1178
I1169
sg1852
I1843
sg1896
I1887
sg889
I880
sg1234
I1225
sg2333
I2324
sg555
I546
sg672
I663
sg696
I687
sg1622
I1613
sg983
I974
sg457
I448
sg1134
I1125
sg919
I910
sg1098
I1089
sg2365
I2356
sg780
I771
sg2112
I2103
sg449
I440
sg1798
I1789
sg1788
I1779
sg2196
I2187
sg687
I678
sg1892
I1883
sg1893
I1884
sg1895
I1886
sg1889
I1880
sg480
I471
sg150
I141
sg852
I843
sg1750
I1741
sg688
I679
sg1005
I996
sg1906
I1897
sg1266
I1257
sg1384
I1375
sg1926
I1917
sg1004
I995
sg2057
I2048
sg2125
I2116
sg865
I856
sg2102
I2093
sg231
I222
sg1353
I1344
sg1598
I1589
sg1728
I1719
sg1972
I1963
sg1973
I1964
sg1279
I1270
sg841
I832
sg2236
I2227
sg998
I989
sg2143
I2134
sg293
I284
sg1900
I1891
sg2065
I2056
sg324
I315
sg1358
I1349
sg1224
I1215
sg2423
I2414
sg2084
I2075
sg1761
I1752
sg2377
I2368
sg1092
I1083
sg466
I457
sg1542
I1533
sg1070
I1061
sg601
I592
sg825
I816
sg760
I751
sg2033
I2024
sg1915
I1906
sg769
I760
sg2422
I2413
sg1903
I1894
sg192
I183
sg173
I164
sg576
I567
sg1319
I1310
sg565
I556
sg2287
I2278
sg608
I599
sg181
I172
sg275
I266
sg203
I194
sg375
I366
sg2157
I2148
sg872
I863
sg2322
I2313
sg595
I586
sg508
I499
sg1096
I1087
sg1745
I1736
sg1277
I1268
sg1744
I1735
sg529
I520
sg501
I492
sg786
I777
sg908
I899
sg1764
I1755
sg1330
I1321
sg714
I705
sg1907
I1898
sg2091
I2082
sg1317
I1308
sg577
I568
sg1397
I1388
sg2232
I2223
sg945
I936
sg977
I968
sg472
I463
sg947
I938
sg246
I237
sg948
I939
sg2417
I2408
sg283
I274
sg1431
I1422
sg2304
I2295
sg1643
I1634
sg2100
I2091
sg1201
I1192
sg974
I965
sg269
I260
sg2083
I2074
sg1826
I1817
sg2123
I2114
sg2241
I2232
sg667
I658
sg335
I326
sg14
I5
sg1036
I1027
sg400
I391
sg1007
I998
sg813
I804
sg1003
I994
sg125
I116
sg1769
I1760
sg2003
I1994
sg1858
I1849
sg354
I345
sg320
I311
sg1059
I1050
sg376
I367
sg2167
I2158
sg278
I269
sg2292
I2283
sg2140
I2131
sg1978
I1969
sg2208
I2199
sg1298
I1289
sg860
I851
sg1570
I1561
sg653
I644
sg1183
I1174
sg774
I765
sg517
I508
sg1180
I1171
sg1936
I1927
sg698
I689
sg1901
I1892
sg225
I216
sg874
I865
sg2275
I2266
sg50
I41
sg2073
I2064
sg988
I979
sg1620
I1611
sg439
I430
sg1150
I1141
sg784
I775
sg1883
I1874
sg1038
I1029
sg1725
I1716
sg1334
I1325
sg748
I739
sg1190
I1181
sg870
I861
sg1856
I1847
sg364
I355
sg1956
I1947
sg1159
I1150
sg2251
I2242
sg2107
I2098
sg2136
I2127
sg1735
I1726
sg394
I385
sg2281
I2272
sg2313
I2304
sg1368
I1359
sg248
I239
sg1427
I1418
sg1478
I1469
sg1487
I1478
sg2095
I2086
sg1064
I1055
sg1899
I1890
sg2392
I2383
sg2289
I2280
sg2331
I2322
sg1380
I1371
sg1698
I1689
sg340
I331
sg58
I49
sg288
I279
sg382
I373
sg1088
I1079
sg758
I749
sg940
I931
sg1616
I1607
sg1030
I1021
sg492
I483
sg2056
I2047
sg84
I75
sg1286
I1277
sg1133
I1124
sg2415
I2406
sg1775
I1766
sg1302
I1293
sg1676
I1667
sg765
I756
sg289
I280
sg1513
I1504
sg180
I171
sg1648
I1639
sg1693
I1684
sg882
I873
sg201
I192
sg377
I368
sg1830
I1821
sg939
I930
sg2368
I2359
sg1463
I1454
sg2297
I2288
sg1404
I1395
sg1079
I1070
sg302
I293
sg1268
I1259
sg530
I521
sg1109
I1100
sg1270
I1261
sg1341
I1332
sg94
I85
sg1594
I1585
sg1100
I1091
sg2104
I2095
sg1160
I1151
sg628
I619
sg2395
I2386
sg1459
I1450
sg523
I514
sg909
I900
sg1696
I1687
sg319
I310
sg140
I131
sg809
I800
sg2280
I2271
sg1374
I1365
sg1670
I1661
sg1599
I1590
sg1527
I1518
sg407
I398
sg610
I601
sg967
I958
sg310
I301
sg950
I941
sg1245
I1236
sg768
I759
sg2380
I2371
sg699
I690
sg1639
I1630
sg474
I465
sg883
I874
sg373
I364
sg467
I458
sg1774
I1765
sg463
I454
sg2114
I2105
sg2195
I2186
sg893
I884
sg1452
I1443
sg1768
I1759
sg1163
I1154
sg2314
I2305
sg1440
I1431
sg61
I52
sg2306
I2297
sg840
I831
sg220
I211
sg1578
I1569
sg106
I97
sg88
I79
sg1613
I1604
sg593
I584
sg2021
I2012
sg594
I585
sg390
I381
sg606
I597
sg2293
I2284
sg1343
I1334
sg2363
I2354
sg430
I421
sg655
I646
sg1469
I1460
sg1470
I1461
sg1828
I1819
sg2159
I2150
sg1362
I1353
sg921
I912
sg2384
I2375
sg574
I565
sg305
I296
sg2224
I2215
sg1288
I1279
sg1963
I1954
sg1428
I1419
sg1520
I1511
sg401
I392
sg585
I576
sg930
I921
sg507
I498
sg2198
I2189
sg892
I883
sg829
I820
sg1457
I1448
sg2186
I2177
sg1042
I1033
sg1315
I1306
sg1549
I1540
sg1832
I1823
sg2191
I2182
sg1957
I1948
sg1355
I1346
sg1387
I1378
sg755
I746
sg1824
I1815
sg676
I667
sg232
I223
sg2228
I2219
sg66
I57
sg2035
I2026
sg1333
I1324
sg1254
I1245
sg1370
I1361
sg2212
I2203
sg1296
I1287
sg96
I87
sg2397
I2388
sg1025
I1016
sg1465
I1456
sg1026
I1017
sg1929
I1920
sg1684
I1675
sg484
I475
sg1993
I1984
sg2291
I2282
sg208
I199
sg592
I583
sg545
I536
sg2188
I2179
sg2029
I2020
sg1168
I1159
sg247
I238
sg1908
I1899
sg1862
I1853
sg81
I72
sg138
I129
sg1736
I1727
sg333
I324
sg781
I772
sg643
I634
sg2181
I2172
sg1366
I1357
sg1290
I1281
sg1184
I1175
sg1365
I1356
sg1313
I1304
sg2246
I2237
sg1720
I1711
sg1809
I1800
sg418
I409
sg1913
I1904
sg819
I810
sg1593
I1584
sg981
I972
sg1104
I1095
sg281
I272
sg158
I149
sg1662
I1653
sg766
I757
sg1105
I1096
sg664
I655
sg1814
I1805
sg309
I300
sg2149
I2140
sg408
I399
sg134
I125
sg2265
I2256
sg437
I428
sg532
I523
sg2116
I2107
sg604
I595
sg1898
I1889
sg1289
I1280
sg2335
I2326
sg1411
I1402
sg2414
I2405
sg2135
I2126
sg1084
I1075
sg219
I210
sg778
I769
sg1515
I1506
sg1660
I1651
sg850
I841
sg681
I672
sg102
I93
sg989
I980
sg2328
I2319
sg1980
I1971
sg1548
I1539
sg1332
I1323
sg483
I474
sg670
I661
sg1947
I1938
sg2089
I2080
sg1010
I1001
sg1890
I1881
sg807
I798
sg438
I429
sg282
I273
sg135
I126
sg1421
I1412
sg1944
I1935
sg2144
I2135
sg1591
I1582
sg329
I320
sg1601
I1592
sg396
I387
sg603
I594
sg1544
I1535
sg403
I394
sg1845
I1836
sg1597
I1588
sg918
I909
sg1400
I1391
sg2342
I2333
sg1297
I1288
sg641
I632
sg2174
I2165
sg1891
I1882
sg318
I309
sg1743
I1734
sg1191
I1182
sg35
I26
sg1950
I1941
sg1359
I1350
sg1971
I1962
sg2225
I2216
sg2178
I2169
sg13
I4
sg334
I325
sg660
I651
sg1854
I1845
sg1272
I1263
sg1045
I1036
sg1439
I1430
sg2012
I2003
sg2272
I2263
sg427
I418
sg1087
I1078
sg597
I588
sg1291
I1282
sg560
I551
sg622
I613
sg1235
I1226
sg1385
I1376
sg949
I940
sg2182
I2173
sg2357
I2348
sg1000
I991
sg476
I467
sg409
I400
sg85
I76
sg1546
I1537
sg1208
I1199
sg924
I915
sg87
I78
sg32
I23
sg1807
I1798
sg1557
I1548
sg1205
I1196
sg2406
I2397
sg877
I868
sg1117
I1108
sg156
I147
sg838
I829
sg179
I170
sg40
I31
sg554
I545
sg1994
I1985
sg831
I822
sg929
I920
sg2307
I2298
sg1626
I1617
sg473
I464
sg1910
I1901
sg391
I382
sg1717
I1708
sg2153
I2144
sg542
I533
sg623
I614
sg1479
I1470
sg2230
I2221
sg1918
I1909
sg2383
I2374
sg2086
I2077
sg1838
I1829
sg1678
I1669
sg761
I752
sg1292
I1283
sg470
I461
sg1589
I1580
sg833
I824
sg1372
I1363
sg1701
I1692
sg1524
I1515
sg1671
I1662
sg571
I562
sg2420
I2411
sg221
I212
sg2255
I2246
sg152
I143
sg1339
I1330
sg742
I733
sg2285
I2276
sg2393
I2384
sg783
I774
sg75
I66
sg159
I150
sg1246
I1237
sg859
I850
sg1041
I1032
sg937
I928
sg1031
I1022
sg1875
I1866
sg1342
I1333
sg1260
I1251
sg733
I724
sg2315
I2306
sg2348
I2339
sg362
I353
sg99
I90
sg259
I250
sg2284
I2275
sg1072
I1063
sg1897
I1888
sg72
I63
sg944
I935
sg1539
I1530
sg2109
I2100
sg2263
I2254
sg1294
I1285
sg1081
I1072
sg2258
I2249
sg1182
I1173
sg2247
I2238
sg2204
I2195
sg2240
I2231
sg2205
I2196
sg1082
I1073
sg148
I139
sg912
I903
sg1951
I1942
sg465
I456
sg1952
I1943
sg903
I894
sg223
I214
sg296
I287
sg304
I295
sg11
I2
sg2134
I2125
sg2320
I2311
sg1179
I1170
sg1451
I1442
sg1582
I1573
sg389
I380
sg1704
I1695
sg1173
I1164
sg1685
I1676
sg2015
I2006
sg478
I469
sg1250
I1241
sg197
I188
sg770
I761
sg1687
I1678
sg2058
I2049
sg914
I905
sg678
I669
sg2169
I2160
sg915
I906
sg552
I543
sg111
I102
sg630
I621
sg970
I961
sg824
I815
sg633
I624
sg1727
I1718
sg614
I605
sg142
I133
sg715
I706
sg2177
I2168
sg2093
I2084
sg1202
I1193
sg1603
I1594
sg2311
I2302
sg1559
I1550
sg986
I977
sg1604
I1595
sg2371
I2362
sg649
I640
sg1781
I1772
sg485
I476
sg1979
I1970
sg2308
I2299
sg54
I45
sg527
I518
sg1802
I1793
sg1543
I1534
sg2171
I2162
sg834
I825
sg2215
I2206
sg1805
I1796
sg1683
I1674
sg1383
I1374
sg2361
I2352
sg1740
I1731
sg2412
I2403
sg417
I408
sg1867
I1858
sg1161
I1152
sg124
I115
sg845
I836
sg1762
I1753
sg363
I354
sg113
I104
sg1450
I1441
sg1206
I1197
sg2359
I2350
sg1264
I1255
sg513
I504
sg516
I507
sg404
I395
sg1280
I1271
sg894
I885
sg374
I365
sg1239
I1230
sg295
I286
sg2180
I2171
sg168
I159
sg384
I375
sg1999
I1990
sg1995
I1986
sg2160
I2151
sg569
I560
sg1747
I1738
sg1706
I1697
sg785
I776
sg2162
I2153
sg1129
I1120
sg1056
I1047
sg44
I35
sg1667
I1658
sg2201
I2192
sg851
I842
sg1474
I1465
sg535
I526
sg2340
I2331
sg1804
I1795
sg1659
I1650
sg312
I303
sg749
I740
sg2408
I2399
sg1602
I1593
sg1909
I1900
sg51
I42
sg1607
I1598
sg1714
I1705
sg98
I89
sg691
I682
sg451
I442
sg1592
I1583
sg2207
I2198
sg2279
I2270
sg450
I441
sg202
I193
sg616
I607
sg355
I346
sg1415
I1406
sg19
I10
sg1810
I1801
sg1916
I1907
sg1583
I1574
sg1796
I1787
sg1511
I1502
sg1509
I1500
sg1376
I1367
sg1187
I1178
sg1063
I1054
sg42
I33
sg126
I117
sg1953
I1944
sg987
I978
sg729
I720
sg1958
I1949
sg849
I840
sg656
I647
sg1058
I1049
sg1325
I1316
sg297
I288
sg215
I206
sg1997
I1988
sg1627
I1618
sg145
I136
sg155
I146
sg183
I174
sg2173
I2164
sg1337
I1328
sg515
I506
sg1669
I1660
sg2052
I2043
sg250
I241
sg2016
I2007
sg489
I480
sg1097
I1088
sg137
I128
sg464
I455
sg1135
I1126
sg1754
I1745
sg178
I169
sg1998
I1989
sg646
I637
sg1485
I1476
sg82
I73
sg848
I839
sg1307
I1298
sg1284
I1275
sg906
I897
sg236
I227
sg539
I530
sg654
I645
sg550
I541
sg1476
I1467
sg169
I160
sg1801
I1792
sg1800
I1791
sg1715
I1706
sg263
I254
sg2064
I2055
sg360
I351
sg189
I180
sg713
I704
sg2105
I2096
sg146
I137
sg498
I489
sg441
I432
sg420
I411
sg442
I433
sg536
I527
sg900
I891
sg1650
I1641
sg1414
I1405
sg28
I19
sg624
I615
sg1510
I1501
sg2197
I2188
sg165
I156
sg2081
I2072
sg1719
I1710
sg822
I813
sg1106
I1097
sg2376
I2367
sg922
I913
sg1793
I1784
sg1099
I1090
sg1347
I1338
sg1690
I1681
sg2010
I2001
sg1242
I1233
sg2011
I2002
sg2321
I2312
sg1843
I1834
sg817
I808
sg904
I895
sg902
I893
sg213
I204
sg2048
I2039
sg690
I681
sg1729
I1720
sg1378
I1369
sg1412
I1403
sg706
I697
sg1614
I1605
sg1780
I1771
sg2103
I2094
sg2164
I2155
sg581
I572
sg2346
I2337
sg1996
I1987
sg2038
I2029
sg1691
I1682
sg753
I744
sg123
I114
sg1035
I1026
sg1154
I1145
sg200
I191
sg1835
I1826
sg1194
I1185
sg1300
I1291
sg695
I686
sg1278
I1269
sg1724
I1715
sg538
I529
sg1829
I1820
sg1713
I1704
sg86
I77
sg1820
I1811
sg144
I135
sg9
I0
sg901
I892
sg445
I436
sg2098
I2089
sg128
I119
sg2111
I2102
sg1675
I1666
sg1061
I1052
sg233
I224
sg590
I581
sg2244
I2235
sg1352
I1343
sg132
I123
sg1839
I1830
sg1746
I1737
sg2045
I2036
sg1024
I1015
sg30
I21
sg1001
I992
sg509
I500
sg228
I219
sg521
I512
sg1085
I1076
sg308
I299
sg1645
I1636
sg1308
I1299
sg1218
I1209
sg1095
I1086
sg1392
I1383
sg1981
I1972
sg116
I107
sg703
I694
sg1876
I1867
sg1123
I1114
sg240
I231
sg1489
I1480
sg285
I276
sg2041
I2032
sg925
I916
sg2074
I2065
sg1806
I1797
sg1327
I1318
sg1217
I1208
sg1932
I1923
sg346
I337
sg2250
I2241
sg1310
I1301
sg2115
I2106
sg1533
I1524
sg836
I827
sg1247
I1238
sg1969
I1960
sg336
I327
sg1437
I1428
sg157
I148
sg980
I971
sg662
I653
sg773
I764
sg1267
I1258
sg2405
I2396
sg799
I790
sg1572
I1563
sg1017
I1008
sg2130
I2121
sg2132
I2123
sg67
I58
sg1018
I1009
sg372
I363
sg1022
I1013
sg1124
I1115
sg558
I549
sg1987
I1978
sg2229
I2220
sg1020
I1011
sg330
I321
sg1391
I1382
sg932
I923
sg2150
I2141
sg2288
I2279
sg1138
I1129
sg77
I68
sg745
I736
sg271
I262
sg321
I312
sg1258
I1249
sg2184
I2175
sg2017
I2008
sg790
I781
sg629
I620
sg801
I792
sg1538
I1529
sg337
I328
sg387
I378
sg1870
I1861
sg199
I190
sg258
I249
sg2309
I2300
sg1356
I1347
sg1156
I1147
sg2341
I2332
sg680
I671
sg440
I431
sg1222
I1213
sg1221
I1212
sg772
I763
sg1220
I1211
sg1219
I1210
sg1121
I1112
sg217
I208
sg1345
I1336
sg365
I356
sg1484
I1475
sg757
I748
sg1812
I1803
sg455
I446
sg704
I695
sg2256
I2247
sg1409
I1400
sg424
I415
sg1741
I1732
sg1336
I1327
sg709
I700
sg718
I709
sg1677
I1668
sg100
I91
sg432
I423
sg2030
I2021
sg2276
I2267
sg1248
I1239
sg1925
I1916
sg1103
I1094
sg931
I922
sg1942
I1933
sg1732
I1723
sg315
I306
sg1379
I1370
sg2137
I2128
sg2222
I2213
sg1985
I1976
sg942
I933
sg1970
I1961
sg1983
I1974
sg1984
I1975
sg1363
I1354
sg661
I652
sg459
I450
sg907
I898
sg307
I298
sg855
I846
sg553
I544
sg1608
I1599
sg1990
I1981
sg2262
I2253
sg612
I603
sg1306
I1297
sg1530
I1521
sg1231
I1222
sg1305
I1296
sg1938
I1929
sg1444
I1435
sg367
I358
sg992
I983
sg413
I404
sg1176
I1167
sg580
I571
sg964
I955
sg1335
I1326
sg443
I434
sg2082
I2073
sg252
I243
sg107
I98
sg2161
I2152
sg1149
I1140
sg265
I256
sg2356
I2347
sg1689
I1680
sg1914
I1905
sg416
I407
sg1047
I1038
sg237
I228
sg2274
I2265
sg1021
I1012
sg1565
I1556
sg411
I402
sg802
I793
sg1652
I1643
sg1425
I1416
sg1273
I1264
sg301
I292
sg1102
I1093
sg1360
I1351
sg701
I692
sg21
I12
sg341
I332
sg1815
I1806
sg1655
I1646
sg975
I966
sg2028
I2019
sg311
I302
sg2146
I2137
sg1935
I1926
sg1688
I1679
sg2345
I2336
sg625
I616
sg2170
I2161
sg752
I743
sg741
I732
sg1446
I1437
sg1967
I1958
sg1500
I1491
sg1473
I1464
sg1501
I1492
sg976
I967
sg1386
I1377
sg1394
I1385
sg1836
I1827
sg1146
I1137
sg911
I902
sg1373
I1364
sg1560
I1551
sg737
I728
sg1316
I1307
sg239
I230
sg1920
I1911
sg1111
I1102
sg1512
I1503
sg91
I82
sg1961
I1952
sg1834
I1825
sg1751
I1742
sg679
I670
sg2032
I2023
sg1402
I1393
sg1840
I1831
sg1420
I1411
sg1413
I1404
sg1629
I1620
sg1855
I1846
sg1471
I1462
sg1419
I1410
sg2332
I2323
sg2421
I2412
sg979
I970
sg2148
I2139
sg114
I105
sg568
I559
sg2085
I2076
sg2092
I2083
sg431
I422
sg2145
I2136
sg2253
I2244
sg1119
I1110
sg369
I360
sg512
I503
sg528
I519
sg2243
I2234
sg23
I14
sg881
I872
sg1486
I1477
sg172
I163
sg218
I209
sg306
I297
sg876
I867
sg1679
I1670
sg708
I699
sg928
I919
sg2031
I2022
sg514
I505
sg176
I167
sg257
I248
sg2382
I2373
sg256
I247
sg2203
I2194
sg818
I809
sg149
I140
sg2233
I2224
sg2352
I2343
sg69
I60
sg1849
I1840
sg771
I762
sg380
I371
sg878
I869
sg504
I495
sg798
I789
sg756
I747
sg1579
I1570
sg1367
I1358
sg677
I668
sg710
I701
sg1101
I1092
sg671
I662
sg1517
I1508
sg1354
I1345
sg1225
I1216
sg2175
I2166
sg1140
I1131
sg2025
I2016
sg978
I969
sg191
I182
sg658
I649
sg636
I627
sg684
I675
sg2268
I2259
sg1114
I1105
sg725
I716
sg2061
I2052
sg1641
I1632
sg1351
I1342
sg230
I221
sg888
I879
sg1197
I1188
sg682
I673
sg456
I447
sg1265
I1256
sg705
I696
sg331
I322
sg551
I542
sg1488
I1479
sg2362
I2353
sg388
I379
sg2155
I2146
sg357
I348
sg2237
I2228
sg1694
I1685
sg2078
I2069
sg435
I426
sg452
I443
sg1492
I1483
sg1881
I1872
sg2391
I2382
sg2221
I2212
sg927
I918
sg1230
I1221
sg1249
I1240
sg1448
I1439
sg844
I835
sg645
I636
sg1552
I1543
sg1673
I1664
sg648
I639
sg1723
I1714
sg1198
I1189
sg1170
I1161
sg2355
I2346
sg190
I181
sg965
I956
sg1172
I1163
sg1945
I1936
sg1323
I1314
sg2118
I2109
sg2126
I2117
sg1236
I1227
sg599
I590
sg1207
I1198
sg570
I561
sg531
I522
sg675
I666
sg276
I267
sg1823
I1814
sg371
I362
sg1642
I1633
sg300
I291
sg2259
I2250
sg425
I416
sg1767
I1758
sg1027
I1018
sg18
I9
sg556
I547
sg1171
I1162
sg591
I582
sg1456
I1447
sg2168
I2159
sg153
I144
sg1917
I1908
sg1256
I1247
sg1790
I1781
sg2411
I2402
sg196
I187
sg727
I718
sg1773
I1764
sg2002
I1993
sg242
I233
sg1164
I1155
sg1442
I1433
sg1516
I1507
sg2404
I2395
sg1416
I1407
sg2019
I2010
sg1864
I1855
sg402
I393
sg943
I934
sg350
I341
sg805
I796
sg946
I937
sg444
I435
sg1976
I1967
sg317
I308
sg1145
I1136
sg27
I18
sg1015
I1006
sg820
I811
sg2389
I2380
sg251
I242
sg268
I259
sg1521
I1512
sg1638
I1629
sg1203
I1194
sg1232
I1223
sg537
I528
sg2347
I2338
sg1301
I1292
sg627
I618
sg1779
I1770
sg2282
I2273
sg1200
I1191
sg609
I600
sg582
I573
sg2042
I2033
sg358
I349
sg428
I419
sg1941
I1932
sg1108
I1099
sg1912
I1903
sg1299
I1290
sg935
I926
sg973
I964
sg1477
I1468
sg722
I713
sg1872
I1863
sg1503
I1494
sg767
I758
sg913
I904
sg511
I502
sg1712
I1703
sg1833
I1824
sg1255
I1246
sg2101
I2092
sg110
I101
sg70
I61
sg277
I268
sg62
I53
sg782
I773
sg2245
I2236
sg2127
I2118
sg291
I282
sg2252
I2243
sg522
I513
sg361
I352
sg2260
I2251
sg1318
I1309
sg1605
I1596
sg897
I888
sg1822
I1813
sg896
I887
sg112
I103
sg506
I497
sg2403
I2394
sg1495
I1486
sg2378
I2369
sg1934
I1925
sg607
I598
sg2018
I2009
sg57
I48
sg1665
I1656
sg1664
I1655
sg1663
I1654
sg475
I466
sg617
I608
sg1062
I1053
sg2390
I2381
sg1447
I1438
sg1550
I1541
sg2301
I2292
sg525
I516
sg1734
I1725
sg575
I566
sg736
I727
sg923
I914
sg1502
I1493
sg1071
I1062
sg1019
I1010
sg969
I960
sg2027
I2018
sg2316
I2307
sg700
I691
sg34
I25
sg24
I15
sg1695
I1686
sg869
I860
sg1535
I1526
sg1186
I1177
sg572
I563
sg589
I580
sg1924
I1915
sg2037
I2028
sg1795
I1786
sg1011
I1002
sg194
I185
sg2117
I2108
sg1460
I1451
sg193
I184
sg1933
I1924
sg342
I333
sg1649
I1640
sg2286
I2277
sg477
I468
sg184
I175
sg647
I638
sg997
I988
sg1223
I1214
sg1606
I1597
sg2367
I2358
sg2388
I2379
sg2192
I2183
sg2062
I2053
sg2172
I2163
sg1089
I1080
sg2014
I2005
sg1540
I1531
sg36
I27
sg1382
I1373
sg1331
I1322
sg95
I86
sg1002
I993
sg2119
I2110
sg2071
I2062
sg826
I817
sg518
I509
sg1595
I1586
sg118
I109
sg856
I847
sg1787
I1778
sg2122
I2113
sg1013
I1004
sg959
I950
sg1874
I1865
sg779
I770
sg266
I257
sg2381
I2372
sg29
I20
sg793
I784
sg966
I957
sg533
I524
sg343
I334
sg832
I823
sg53
I44
sg2217
I2208
sg1229
I1220
sg1930
I1921
sg1748
I1739
sg1147
I1138
sg1199
I1190
sg1803
I1794
sg2121
I2112
sg1851
I1842
sg596
I587
sg1195
I1186
sg1275
I1266
sg563
I554
sg121
I112
sg1132
I1123
sg1238
I1229
sg1818
I1809
sg127
I118
sg735
I726
sg2349
I2340
sg1784
I1775
sg1710
I1701
sg1227
I1218
sg1283
I1274
sg2190
I2181
ssS'separator'
p2431
S'='
sS'sparse'
p2432
I01
sb.