ccopy_reg
_reconstructor
p1
(csklearn.feature_extraction.dict_vectorizer
DictVectorizer
p2
c__builtin__
object
p3
NtRp4
(dp5
S'vocabulary_'
p6
(dp7
S'advmod=then'
p8
I0
sS'w+2=table'
p9
I69
sS'w+2=129'
p10
I52
sS'w-1=g8'
p11
I82
sS'w+1=all'
p12
I29
sS'w-2=which'
p13
I117
sS'w+1=force'
p14
I37
sS'w-2=so'
p15
I113
sS'w-2=lever'
p16
I109
sS'w-2=become'
p17
I105
sS'w+2=between'
p18
I58
sS'w+2=next'
p19
I65
sS'w-2=hold'
p20
I108
sS'prep=include'
p21
I19
sS'w-1=high-speed'
p22
I85
sS'w+1=joint'
p23
I42
sS'w+2=this'
p24
I71
sS'w-2=of'
p25
I110
sS'w-2=bloc'
p26
I106
sS'w+2=crew'
p27
I61
sS'w-1=to'
p28
I92
sS'w+2=out'
p29
I67
sS'w+2=and'
p30
I56
sS'w-2=and'
p31
I103
sS'w+2=presidency'
p32
I68
sS'dobj=#PRP#'
p33
I6
sS'dep=six-month'
p34
I4
sS'w-2=rival'
p35
I112
sS'w-2=assume'
p36
I104
sS'w-1=EU'
p37
I77
sS'w+1=E.U.'
p38
I25
sS'w-2=commander'
p39
I107
sS'w+1=as'
p40
I30
sS'w+1=au'
p41
I31
sS'w-2=station'
p42
I114
sS'w-2=,'
p43
I95
sS'w-2=Italy'
p44
I99
sS'w-2=.'
p45
I96
sS'w+1=he'
p46
I39
sS'w-1=be'
p47
I80
sS'w+1=chairmanship'
p48
I34
sS'w-2=the'
p49
I116
sS'w-2=Council'
p50
I98
sS'nsubj=leader'
p51
I15
sS'w+1=through'
p52
I47
sS'prep=through'
p53
I21
sS'w+1=presidency'
p54
I45
sS'w+1=leadership'
p55
I43
sS'w-1=,'
p56
I74
sS'w+2=to'
p57
I72
sS'w+2=chairmanship'
p58
I59
sS'w-2=a'
p59
I101
sS'w+1=one'
p60
I44
sS'w-1=a'
p61
I78
sS'w-1=its'
p62
I87
sS'dobj=crew'
p63
I7
sS'nsubj=guy'
p64
I14
sS'w-2=ASEAN'
p65
I97
sS'w-1=six-month'
p66
I89
sS'w+1=crop'
p67
I35
sS'w-1=-lrb-'
p68
I75
sS'w+2=in'
p69
I64
sS'w-1=he'
p70
I84
sS'w-2=agreement'
p71
I102
sS'w+2=Council'
p72
I54
sS'w+1=from'
p73
I38
sS'ccomp=have'
p74
I2
sS'w+1=wheel'
p75
I49
sS"w-1='s"
p76
I73
sS'w+2=Union'
p77
I55
sS'w+2=could'
p78
I60
sS'w-1=party'
p79
I88
sS'w+2=around'
p80
I57
sS'w+1=chairman'
p81
I33
sS'w+1=European'
p82
I27
sS'w-1=you'
p83
I93
sS'cc=and'
p84
I1
sS'w-2=over'
p85
I111
sS'dobj=wheel'
p86
I11
sS'w+1=the'
p87
I46
sS'w-1=current'
p88
I81
sS'w+1=Security'
p89
I28
sS'dobj=crop'
p90
I8
sS'nsubj=to'
p91
I17
sS'w+1=its'
p92
I41
sS'w+1=eupresidency'
p93
I36
sS'w+1=it'
p94
I40
sS'nsubj=#PRP#'
p95
I13
sS'dobj=sheep'
p96
I10
sS'w+2=theater'
p97
I70
sS'prep=to'
p98
I22
sS'w+1=chair'
p99
I32
sS'dobj=#NUMBER#'
p100
I5
sS'dobj=presidency'
p101
I9
sS"w-2=''"
p102
I94
sS'w+1=-rrb-'
p103
I24
sS'w+2=of'
p104
I66
sS'w+2=.'
p105
I51
sS'w+2=,'
p106
I50
sS'w+2=for'
p107
I62
sS'w+1=troops'
p108
I48
sS'w-1=guy'
p109
I83
sS'prep=in'
p110
I18
sS'nsubj=that'
p111
I16
sS'w-1=it'
p112
I86
sS'w-1=and'
p113
I79
sS'w-2=Union'
p114
I100
sS'w+2=1800'
p115
I53
sS'prep=into'
p116
I20
sS'w-2=takesover'
p117
I115
sS'w+2=head'
p118
I63
sS'w+1=EU'
p119
I26
sS'dobj=which'
p120
I12
sS'w-1=E.U.'
p121
I76
sS'w-1=the'
p122
I91
sS'w-1=that'
p123
I90
sS'prt=around'
p124
I23
sS'conj=focus'
p125
I3
ssS'dtype'
p126
cnumpy
float64
p127
sS'feature_names_'
p128
(lp129
g8
ag84
ag74
ag125
ag34
ag100
ag33
ag63
ag90
ag101
ag96
ag86
ag120
ag95
ag64
ag51
ag111
ag91
ag110
ag21
ag116
ag53
ag98
ag124
ag103
ag38
ag119
ag82
ag89
ag12
ag40
ag41
ag99
ag81
ag48
ag67
ag93
ag14
ag73
ag46
ag94
ag92
ag23
ag55
ag60
ag54
ag87
ag52
ag108
ag75
ag106
ag105
ag10
ag115
ag72
ag77
ag30
ag80
ag18
ag58
ag78
ag27
ag107
ag118
ag69
ag19
ag104
ag29
ag32
ag9
ag97
ag24
ag57
ag76
ag56
ag68
ag121
ag37
ag61
ag113
ag47
ag88
ag11
ag109
ag70
ag22
ag112
ag62
ag79
ag66
ag123
ag122
ag28
ag83
ag102
ag43
ag45
ag65
ag50
ag44
ag114
ag59
ag71
ag31
ag36
ag17
ag26
ag39
ag20
ag16
ag25
ag85
ag35
ag15
ag42
ag117
ag49
ag13
asS'separator'
p130
S'='
sS'sparse'
p131
I01
sb.