ccopy_reg
_reconstructor
p1
(csklearn.feature_extraction.dict_vectorizer
DictVectorizer
p2
c__builtin__
object
p3
NtRp4
(dp5
S'vocabulary_'
p6
(dp7
S"w-2=''"
p8
I156
sS'w+2=from'
p9
I111
sS'w-1=of'
p10
I140
sS'w-2=love'
p11
I176
sS'w-2=who'
p12
I194
sS'w-2=we'
p13
I192
sS'w+1=.'
p14
I58
sS'w-2=people'
p15
I182
sS'w+2=lose'
p16
I114
sS'xcomp=lose'
p17
I196
sS'w-1=to'
p18
I153
sS'w-2=redemption'
p19
I185
sS'w+1=crime'
p20
I75
sS'w-1=anti-muslim'
p21
I132
sS'conj=hate'
p22
I16
sS'w+2=that'
p23
I120
sS'w-2=unpatriotic'
p24
I190
sS'w-2=to'
p25
I189
sS'dobj=people'
p26
I37
sS'w-2=use'
p27
I191
sS'dobj=action'
p28
I32
sS'w-2=allegedly'
p29
I163
sS'w-1=who'
p30
I155
sS'dobj=enemy'
p31
I36
sS'w+2=,'
p32
I94
sS'conj=blame'
p33
I15
sS'nsubj=who'
p34
I43
sS'dobj=abortion'
p35
I31
sS'ccomp=share'
p36
I13
sS'w-2=which'
p37
I193
sS'w+1=Islam'
p38
I61
sS'w-2=on'
p39
I180
sS'w+2=as'
p40
I103
sS'prep=by'
p41
I51
sS'w+2=and'
p42
I101
sS'w-2=and'
p43
I164
sS'w-2=kind'
p44
I175
sS'w-1=two'
p45
I154
sS'w-1=spread'
p46
I149
sS'nsubj=party'
p47
I42
sS'w-2=allege'
p48
I162
sS'dobj=#PRP#'
p49
I23
sS'dep=tell'
p50
I19
sS'w-2=do'
p51
I170
sS'w-1=should'
p52
I148
sS'dep=try'
p53
I20
sS'w-2=crime'
p54
I169
sS'dobj=Musharraf'
p55
I27
sS'dobj=America'
p56
I24
sS'aux=do'
p57
I7
sS'w-2=he'
p58
I172
sS'w+2=prior'
p59
I118
sS'w+1=Russia'
p60
I65
sS'w-2=reason'
p61
I184
sS'advmod=already'
p62
I1
sS'advmod=really'
p63
I4
sS'w-2=political'
p64
I183
sS'advmod=just'
p65
I2
sS'w+2=the'
p66
I121
sS'prep=at'
p67
I49
sS'rcmod=do'
p68
I56
sS'w+1=at'
p69
I71
sS'w-1=prosecute'
p70
I145
sS'w-2=,'
p71
I157
sS'w+2=another'
p72
I102
sS'w-2=.'
p73
I158
sS'prep=with'
p74
I55
sS'w+1=journalism'
p75
I80
sS'w+2=against'
p76
I99
sS'nsubj=hate'
p77
I41
sS'w-1=be'
p78
I133
sS'w+2=deserve'
p79
I109
sS'w-2=thing'
p80
I187
sS'w-1=,'
p81
I126
sS'w-2=not'
p82
I179
sS'w+2=with'
p83
I123
sS'w+1=speech'
p84
I87
sS'w-2=I'
p85
I159
sS'w+1=message'
p86
I82
sS'w-2=as'
p87
I165
sS'prep=about'
p88
I47
sS'w+2=because'
p89
I104
sS'w-2=ideology'
p90
I173
sS'prep=because'
p91
I50
sS'dobj=Music'
p92
I28
sS'aux=should'
p93
I8
sS'det=those'
p94
I21
sS'w+1=who'
p95
I92
sS'w-2=out'
p96
I181
sS'w+1=on'
p97
I83
sS'w+1=America'
p98
I60
sS'w-2=a'
p99
I160
sS'w+1=one'
p100
I84
sS'w-1=they'
p101
I151
sS'dobj=dictator'
p102
I35
sS'w+2=enemy'
p103
I110
sS'w+2=share'
p104
I119
sS'w+2=Music'
p105
I97
sS'num=#NUMBER#'
p106
I45
sS'dobj=Bush'
p107
I25
sS'w-1=monitor'
p108
I138
sS"w+2=''"
p109
I93
sS'w+2=ambassador'
p110
I100
sS'w-1=he'
p111
I135
sS'xcomp=do'
p112
I195
sS'w+1=each'
p113
I77
sS'w+2=Palestinians'
p114
I98
sS'w-1=receive'
p115
I147
sS'w-2=commit'
p116
I168
sS'w-2=be'
p117
I166
sS'w+2=Bush'
p118
I96
sS'w+2=buying'
p119
I106
sS'w-1=bring'
p120
I134
sS'w-2=act'
p121
I161
sS'auxpass=be'
p122
I10
sS'dobj=Islam'
p123
I26
sS'complm=that'
p124
I14
sS'w+1=people'
p125
I86
sS'w-1=really'
p126
I146
sS'w+1=President'
p127
I64
sS'w-1=party'
p128
I141
sS'w-1=I'
p129
I127
sS'w-1=Nawaz'
p130
I128
sS'advmod=why'
p131
I5
sS'w-2=have'
p132
I171
sS'w+2=guilt'
p133
I112
sS'cc=and'
p134
I11
sS'w+1=Musharraf'
p135
I62
sS'w-2=making'
p136
I177
sS'advmod=much'
p137
I3
sS'nsubj=extremist'
p138
I40
sS'w+1=the'
p139
I88
sS'w+1=by'
p140
I73
sS'w+1=circuit'
p141
I74
sS'conj=honor'
p142
I17
sS'w-1=just'
p143
I137
sS'w+1=be'
p144
I72
sS'w+2=home'
p145
I113
sS'dobj=Russia'
p146
I29
sS'cc=but'
p147
I12
sS'w+1=they'
p148
I89
sS'w+1=World'
p149
I67
sS'w-1=already'
p150
I130
sS'nsubjpass=#PRP#'
p151
I44
sS'w+2=you'
p152
I124
sS'prep=in'
p153
I53
sS'w+1=only'
p154
I85
sS'w+1=in'
p155
I78
sS'w-1=promulgate'
p156
I144
sS'w+1=dictator'
p157
I76
sS'w+1=it'
p158
I79
sS'nsubj=#PRP#'
p159
I39
sS'w+1=about'
p160
I69
sS'prep=from'
p161
I52
sS"w-1=''"
p162
I125
sS'w+2=other'
p163
I116
sS'w-2=those'
p164
I188
sS'advcl=understand'
p165
I0
sS'w-2=incitement'
p166
I174
sS'w-1=through'
p167
I152
sS'aux=to'
p168
I9
sS'w+2=charge'
p169
I107
sS'w+2=conflict'
p170
I108
sS'dobj=#NUMBER#'
p171
I22
sS'w-2=broadcast'
p172
I167
sS'w+1=and'
p173
I70
sS'w+2=before'
p174
I105
sS'dobj=Russians'
p175
I30
sS'dep=much'
p176
I18
sS'w+1=,'
p177
I57
sS'prep=as'
p178
I48
sS'w+1=Muslims'
p179
I63
sS'w+2=.'
p180
I95
sS'w+1=Russians'
p181
I66
sS'w+2=on'
p182
I115
sS'w+1=to'
p183
I90
sS'w+1=;'
p184
I59
sS'w-1=irresponsible'
p185
I136
sS'neg=not'
p186
I38
sS'w-1=a'
p187
I129
sS'w-1=and'
p188
I131
sS'w-1=promote'
p189
I143
sS'w+2=people'
p190
I117
sS'w-2=scandal'
p191
I186
sS'w-1=post-election'
p192
I142
sS'w+2=we'
p193
I122
sS'w-2=murder'
p194
I178
sS'w-1=not'
p195
I139
sS'w+1=mail'
p196
I81
sS'w-1=the'
p197
I150
sS'prep=on'
p198
I54
sS'w+1=vote'
p199
I91
sS'aux=be'
p200
I6
sS'dobj=crime'
p201
I34
sS'parataxis=launch'
p202
I46
sS'dobj=buying'
p203
I33
sS'w+1=abortion'
p204
I68
ssS'dtype'
p205
cnumpy
float64
p206
sS'feature_names_'
p207
(lp208
g165
ag62
ag65
ag137
ag63
ag131
ag200
ag57
ag93
ag168
ag122
ag134
ag147
ag36
ag124
ag33
ag22
ag142
ag176
ag50
ag53
ag94
ag171
ag49
ag56
ag107
ag123
ag55
ag92
ag146
ag175
ag35
ag28
ag203
ag201
ag102
ag31
ag26
ag186
ag159
ag138
ag77
ag47
ag34
ag151
ag106
ag202
ag88
ag178
ag67
ag91
ag41
ag161
ag153
ag198
ag74
ag68
ag177
ag14
ag184
ag98
ag38
ag135
ag179
ag127
ag60
ag181
ag149
ag204
ag160
ag173
ag69
ag144
ag140
ag141
ag20
ag157
ag113
ag155
ag158
ag75
ag196
ag86
ag97
ag100
ag154
ag125
ag84
ag139
ag148
ag183
ag199
ag95
ag109
ag32
ag180
ag118
ag105
ag114
ag76
ag110
ag42
ag72
ag40
ag89
ag174
ag119
ag169
ag170
ag79
ag103
ag9
ag133
ag145
ag16
ag182
ag163
ag190
ag59
ag104
ag23
ag66
ag193
ag83
ag152
ag162
ag81
ag129
ag130
ag187
ag150
ag188
ag21
ag78
ag120
ag111
ag185
ag143
ag108
ag195
ag10
ag128
ag192
ag189
ag156
ag70
ag126
ag115
ag52
ag46
ag197
ag101
ag167
ag18
ag45
ag30
ag8
ag71
ag73
ag85
ag99
ag121
ag48
ag29
ag43
ag87
ag117
ag172
ag116
ag54
ag51
ag132
ag58
ag90
ag166
ag44
ag11
ag136
ag194
ag82
ag39
ag96
ag15
ag64
ag61
ag19
ag191
ag80
ag164
ag25
ag24
ag27
ag13
ag37
ag12
ag112
ag17
asS'separator'
p209
S'='
sS'sparse'
p210
I01
sb.