ccopy_reg
_reconstructor
p1
(csklearn.feature_extraction.dict_vectorizer
DictVectorizer
p2
c__builtin__
object
p3
NtRp4
(dp5
S'sort'
p6
I01
sS'feature_names_'
p7
(lp8
S'advmod=digitally'
p9
aS'advmod=further'
p10
aS'advmod=heavily'
p11
aS'advmod=recently'
p12
aS'aux=to'
p13
aS'auxpass=be'
p14
aS'cc=but'
p15
aS'det=these'
p16
aS'dobj=#PRP#'
p17
aS'dobj=Bitterlemons.org'
p18
aS'dobj=Peace'
p19
aS'dobj=book'
p20
aS'dobj=collection'
p21
aS'dobj=comment'
p22
aS'dobj=newsletter'
p23
aS'dobj=newspaper'
p24
aS'dobj=website'
p25
aS'dobj=writings'
p26
aS'nsubj=#PRP#'
p27
aS'nsubj=Balog'
p28
aS'nsubj=Daniels'
p29
aS'nsubj=Kolodiejchuk'
p30
aS'nsubj=Loi'
p31
aS'nsubj=McIntyre'
p32
aS'nsubj=Sbenda'
p33
aS'nsubj=transcript'
p34
aS'nsubj=who'
p35
aS'nsubjpass=information'
p36
aS'parataxis=come'
p37
aS'prep=about'
p38
aS'prep=in'
p39
aS'prep=of'
p40
aS'prep=with'
p41
aS'prt=out'
p42
aS"w+1=''"
p43
aS'w+1=,'
p44
aS'w+1=Bitterlemons.org'
p45
aS'w+1=Smith'
p46
aS'w+1=a'
p47
aS'w+1=be'
p48
aS'w+1=out'
p49
aS'w+1=so'
p50
aS'w+1=the'
p51
aS'w+1=they'
p52
aS"w+2='s"
p53
aS'w+2=,'
p54
aS'w+2=Pocket'
p55
aS'w+2=a'
p56
aS'w+2=and'
p57
aS'w+2=any'
p58
aS'w+2=book'
p59
aS'w+2=collection'
p60
aS'w+2=independent'
p61
aS'w+2=into'
p62
aS'w+2=of'
p63
aS'w+2=opposition'
p64
aS'w+2=political'
p65
aS'w+2=politics'
p66
aS'w+2=the'
p67
aS'w+2=with'
p68
aS'w-1=Kolodiejchuk'
p69
aS'w-1=Loi'
p70
aS'w-1=McIntyre'
p71
aS'w-1=Sbenda'
p72
aS'w-1=and'
p73
aS'w-1=be'
p74
aS'w-1=digitally'
p75
aS'w-1=he'
p76
aS'w-1=heavily'
p77
aS'w-1=of'
p78
aS'w-1=recently'
p79
aS'w-1=release'
p80
aS'w-1=these'
p81
aS'w-1=who'
p82
aS'w-2=,'
p83
aS'w-2=.'
p84
aS'w-2=Brian'
p85
aS'w-2=Daniels'
p86
aS'w-2=Israeli'
p87
aS'w-2=John'
p88
aS'w-2=Theophilus'
p89
aS'w-2=Van'
p90
aS'w-2=allegation'
p91
aS'w-2=be'
p92
aS'w-2=film'
p93
aS'w-2=lot'
p94
aS'w-2=of'
p95
aS'w-2=then'
p96
aS'xcomp=RealClearPolitics.com'
p97
asS'dtype'
p98
cnumpy
float64
p99
sS'vocabulary_'
p100
(dp101
g85
I76
sg26
I17
sg12
I3
sg16
I7
sg21
I12
sg66
I57
sg82
I73
sg58
I49
sg35
I26
sg87
I78
sg96
I87
sg95
I86
sg78
I69
sg29
I20
sg57
I48
sg45
I36
sg9
I0
sg88
I79
sg17
I8
sg28
I19
sg19
I10
sg77
I68
sg59
I50
sg62
I53
sg67
I58
sg83
I74
sg84
I75
sg41
I32
sg73
I64
sg42
I33
sg74
I65
sg46
I37
sg61
I52
sg55
I46
sg79
I70
sg14
I5
sg71
I62
sg69
I60
sg70
I61
sg94
I85
sg37
I28
sg91
I82
sg60
I51
sg76
I67
sg97
I88
sg80
I71
sg38
I29
sg93
I84
sg23
I14
sg81
I72
sg33
I24
sg51
I42
sg18
I9
sg48
I39
sg15
I6
sg52
I43
sg22
I13
sg20
I11
sg72
I63
sg53
I44
sg39
I30
sg68
I59
sg25
I16
sg27
I18
sg11
I2
sg43
I34
sg13
I4
sg65
I56
sg86
I77
sg32
I23
sg64
I55
sg36
I27
sg30
I21
sg89
I80
sg44
I35
sg75
I66
sg49
I40
sg63
I54
sg54
I45
sg24
I15
sg10
I1
sg50
I41
sg90
I81
sg47
I38
sg92
I83
sg34
I25
sg40
I31
sg31
I22
sg56
I47
ssS'separator'
p102
S'='
sS'sparse'
p103
I01
sb.