ccopy_reg
_reconstructor
p1
(csklearn.feature_extraction.dict_vectorizer
DictVectorizer
p2
c__builtin__
object
p3
NtRp4
(dp5
S'vocabulary_'
p6
(dp7
S'advmod=then'
p8
I9
sS'w-2=elsewhere'
p9
I229
sS'conj=not'
p10
I28
sS'nsubj=astronaut'
p11
I78
sS'w-1=might'
p12
I191
sS'w+1=King'
p13
I97
sS'nsubj=Koreans'
p14
I73
sS'w+1=,'
p15
I96
sS'w+2=order'
p16
I162
sS'w-2=have'
p17
I235
sS'nsubj=Pakistan'
p18
I74
sS'advmod=certainly'
p19
I5
sS'w+2=necessary'
p20
I159
sS'w-2=we'
p21
I274
sS'w+2=great'
p22
I149
sS'dobj=variety'
p23
I64
sS'dobj=promise'
p24
I57
sS'w-1=present'
p25
I193
sS'w+2=full'
p26
I148
sS'w+2=than'
p27
I173
sS'w+1=international'
p28
I107
sS'w+2=tour'
p29
I177
sS'conj=elect'
p30
I26
sS'dobj=responsibility'
p31
I59
sS'w-2=mean'
p32
I243
sS'w+1=in'
p33
I106
sS'w-1=certainly'
p34
I190
sS'dobj=mission'
p35
I50
sS'w+2=pledge'
p36
I165
sS'w+2=responsibility'
p37
I168
sS'w+2=international'
p38
I152
sS'w-2=skill'
p39
I258
sS'w+1=Prime'
p40
I98
sS'w-2=want'
p41
I273
sS'xcomp=combat'
p42
I278
sS'w+2=childhood'
p43
I136
sS'w+2=side'
p44
I171
sS'dobj=condition'
p45
I40
sS'nsubj=who'
p46
I85
sS'xcomp=provide'
p47
I280
sS'ccomp=possible'
p48
I21
sS'w+2=agreement'
p49
I133
sS'dobj=campaign'
p50
I38
sS'w-2=system'
p51
I263
sS'w-2=need'
p52
I247
sS'w+2=variety'
p53
I180
sS'nsubj=skill'
p54
I82
sS'w-2=position'
p55
I251
sS'w-2=could'
p56
I225
sS'w-2=they'
p57
I266
sS'dobj=expectation'
p58
I46
sS'w-1=to'
p59
I196
sS'nsubj=system'
p60
I83
sS'w-2=to'
p61
I269
sS'w-2=enough'
p62
I230
sS'prep=within'
p63
I95
sS'w-2=and'
p64
I219
sS'dep=obligation'
p65
I30
sS'w+2=end'
p66
I144
sS'w-2=country'
p67
I226
sS'w+1=that'
p68
I119
sS'nsubj=party'
p69
I80
sS'w-2=this'
p70
I267
sS'dobj=#PRP#'
p71
I34
sS'xcomp=pull'
p72
I281
sS'nsubj=government'
p73
I79
sS'mark=so'
p74
I69
sS'w-2=try'
p75
I270
sS'w+1=obligation'
p76
I113
sS'w-2=prepare'
p77
I252
sS'w-1=would'
p78
I200
sS'w+2=constitutional'
p79
I140
sS'w+1=bail'
p80
I103
sS'w-2=means'
p81
I244
sS'w-2=begin'
p82
I223
sS'w+2=traditional'
p83
I178
sS'advmod=actually'
p84
I2
sS'aux=do'
p85
I13
sS'w+1=previous'
p86
I115
sS'w-1=actually'
p87
I186
sS'dobj=duty'
p88
I44
sS'w+1=more'
p89
I111
sS'advcl=meet'
p90
I1
sS'w-2=also'
p91
I218
sS'aux=will'
p92
I17
sS'w+2=overdue'
p93
I163
sS'w+1=mission'
p94
I110
sS'dobj=agreement'
p95
I35
sS'w+1=pledge'
p96
I114
sS'nsubj=Kibaki'
p97
I72
sS'w+2=rights'
p98
I169
sS'w-2=protect'
p99
I253
sS'w-2=do'
p100
I227
sS'w-2=intend'
p101
I240
sS'advmod=back'
p102
I4
sS'w+2=expectation'
p103
I145
sS'dobj=aspiration'
p104
I36
sS'nsubj=States'
p105
I76
sS'w-1=will'
p106
I199
sS'w-2=I'
p107
I206
sS'dobj=potential'
p108
I56
sS'prep=with'
p109
I94
sS'dep=promise'
p110
I32
sS'w+2=mandate'
p111
I157
sS'w+1=he'
p112
I105
sS'w+2=--'
p113
I130
sS'w+2=make'
p114
I156
sS'conj=give'
p115
I27
sS'dobj=demand'
p116
I41
sS'w+2=under'
p117
I179
sS'w-2=unity'
p118
I272
sS'w+1=whatever'
p119
I126
sS'advmod=therefore'
p120
I10
sS'dobj=kind'
p121
I48
sS'dobj=order'
p122
I53
sS'w-1=can'
p123
I188
sS'w-2=if'
p124
I239
sS'w-2=respect'
p125
I256
sS'w-2=Council'
p126
I205
sS'w+1=she'
p127
I117
sS'w-2=States'
p128
I211
sS'w-2=time'
p129
I268
sS'w+2=dream'
p130
I142
sS'w+2=longtime'
p131
I155
sS'w-1=Palestinians'
p132
I184
sS'w-2=as'
p133
I220
sS'advmod=soon'
p134
I8
sS'dobj=desire'
p135
I42
sS'w-2=it'
p136
I241
sS'w-2=fail'
p137
I232
sS'w-2=mandate'
p138
I242
sS'nsubj=Palestinians'
p139
I75
sS'w-2=willingness'
p140
I276
sS'w-2=aim'
p141
I216
sS'w-2=identify'
p142
I238
sS'mark=because'
p143
I66
sS'aux=might'
p144
I14
sS'w+1=another'
p145
I101
sS'dobj=obligation'
p146
I52
sS'w+2=interest'
p147
I151
sS'w+2=Minister'
p148
I132
sS'w-2=ready'
p149
I255
sS'xcomp=shut'
p150
I282
sS'ccomp=make'
p151
I20
sS'w-2=Congress'
p152
I204
sS'w-1=they'
p153
I195
sS'w-2=step'
p154
I261
sS'prep=for'
p155
I87
sS'w+2=civic'
p156
I137
sS'w-1=canto'
p157
I189
sS'w-2=home'
p158
I237
sS'w-2=come'
p159
I224
sS'advcl=get'
p160
I0
sS'w+1=any'
p161
I102
sS'w+1=we'
p162
I125
sS'ccomp=say'
p163
I22
sS'dobj=dream'
p164
I43
sS'dobj=mandate'
p165
I49
sS'w-2=he'
p166
I236
sS'w+2=obligation'
p167
I161
sS'w+1=market'
p168
I109
sS'conj=country'
p169
I25
sS"w+2=''"
p170
I127
sS'mark=as'
p171
I65
sS'w+2=potential'
p172
I166
sS'w-2=astronaut'
p173
I221
sS'w+2=it'
p174
I153
sS'w+1=commitment'
p175
I104
sS'advmod=also'
p176
I3
sS'w-2=slow'
p177
I259
sS'dobj=pledge'
p178
I55
sS'w-2=woman'
p179
I277
sS'aux=can'
p180
I11
sS'complm=that'
p181
I23
sS'w-2=able'
p182
I214
sS'dobj=side'
p183
I61
sS'complm=whether'
p184
I24
sS'w+2=far'
p185
I146
sS'w-2=Kinshasa'
p186
I209
sS'w-1=States'
p187
I185
sS'w+2=need'
p188
I160
sS'dobj=end'
p189
I45
sS'dobj=commitment'
p190
I39
sS'dep=order'
p191
I31
sS'w+2=mission'
p192
I158
sS'w+2=people'
p193
I164
sS'cc=and'
p194
I19
sS'w-2=ally'
p195
I217
sS'w+2=they'
p196
I175
sS'nsubj=point'
p197
I81
sS'prep=under'
p198
I93
sS'w-2=that'
p199
I264
sS'prep=to'
p200
I92
sS'w+1=the'
p201
I120
sS'w+1=vital'
p202
I124
sS'w-2=be'
p203
I222
sS'dobj=tour'
p204
I63
sS'dobj=requirement'
p205
I58
sS'w+1=they'
p206
I122
sS'w-2=July'
p207
I208
sS'nsubj=Ukraine'
p208
I77
sS'dep=remember'
p209
I33
sS'w+1=those'
p210
I123
sS'w-2=oblige'
p211
I248
sS'w+1=these'
p212
I121
sS'w+2=humanitarian'
p213
I150
sS'xcomp=fight'
p214
I279
sS'w+2=demand'
p215
I141
sS'w-2=place'
p216
I250
sS'prep=in'
p217
I89
sS'w-2=United'
p218
I213
sS'advmod=how'
p219
I7
sS'aux=would'
p220
I18
sS'w+1=its'
p221
I108
sS'w-2=agree'
p222
I215
sS'dobj=interest'
p223
I47
sS'w+2=to'
p224
I176
sS'w+2=condition'
p225
I139
sS'dobj=that'
p226
I62
sS'w-2=seem'
p227
I257
sS'nsubj=#PRP#'
p228
I71
sS'prep=from'
p229
I88
sS'w-2=donor'
p230
I228
sS"w-1=''"
p231
I182
sS'w-1=therefore'
p232
I194
sS'w+1=my'
p233
I112
sS'w-2=million'
p234
I246
sS'dep=mandate'
p235
I29
sS'advmod=effectively'
p236
I6
sS'w+2=aspiration'
p237
I134
sS'w+2=strategic'
p238
I172
sS'aux=to'
p239
I16
sS'w+2=role'
p240
I170
sS'w-2=measure'
p241
I245
sS'w+1=promise'
p242
I116
sS'w-2=quickly'
p243
I254
sS'w+2=the'
p244
I174
sS'w+1=such'
p245
I118
sS'w-2=support'
p246
I262
sS'w-1=who'
p247
I198
sS'w+1=and'
p248
I100
sS'w-2=will'
p249
I275
sS'w-2=order'
p250
I249
sS'aux=could'
p251
I12
sS"w-2=''"
p252
I201
sS'xcomp=stamp'
p253
I283
sS'nsubj=this'
p254
I84
sS'prep=as'
p255
I86
sS'w+2=.'
p256
I131
sS'w-2=Ukraine'
p257
I212
sS'w+2=,'
p258
I129
sS'w+2=for'
p259
I147
sS'w-2=Authority'
p260
I203
sS'neg=not'
p261
I70
sS'w+2=kind'
p262
I154
sS'dobj=need'
p263
I51
sS'aux=must'
p264
I15
sS'w-2=Koreans'
p265
I210
sS'w-1=and'
p266
I187
sS'w+2=campaign'
p267
I135
sS'w-2=government'
p268
I234
sS'w-2=faster'
p269
I233
sS'w-2=unable'
p270
I271
sS'w-2=,'
p271
I202
sS'dobj=calling'
p272
I37
sS'dobj=phase'
p273
I54
sS"w+2='s"
p274
I128
sS'w+2=duty'
p275
I143
sS'w+2=we'
p276
I181
sS'w-2=the'
p277
I265
sS'w+1=a'
p278
I99
sS'w-1=not'
p279
I192
sS'w-2=space'
p280
I260
sS'prep=of'
p281
I90
sS'w-2=Iraq'
p282
I207
sS'w-1=Kibaki'
p283
I183
sS'w+2=commitment'
p284
I138
sS'prep=on'
p285
I91
sS'w-1=we'
p286
I197
sS'mark=if'
p287
I67
sS'w-2=even'
p288
I231
sS'dobj=role'
p289
I60
sS'mark=in'
p290
I68
sS'w+2=promise'
p291
I167
ssS'dtype'
p292
cnumpy
float64
p293
sS'feature_names_'
p294
(lp295
g160
ag90
ag84
ag176
ag102
ag19
ag236
ag219
ag134
ag8
ag120
ag180
ag251
ag85
ag144
ag264
ag239
ag92
ag220
ag194
ag151
ag48
ag163
ag181
ag184
ag169
ag30
ag115
ag10
ag235
ag65
ag191
ag110
ag209
ag71
ag95
ag104
ag272
ag50
ag190
ag45
ag116
ag135
ag164
ag88
ag189
ag58
ag223
ag121
ag165
ag35
ag263
ag146
ag122
ag273
ag178
ag108
ag24
ag205
ag31
ag289
ag183
ag226
ag204
ag23
ag171
ag143
ag287
ag290
ag74
ag261
ag228
ag97
ag14
ag18
ag139
ag105
ag208
ag11
ag73
ag69
ag197
ag54
ag60
ag254
ag46
ag255
ag155
ag229
ag217
ag281
ag285
ag200
ag198
ag109
ag63
ag15
ag13
ag40
ag278
ag248
ag145
ag161
ag80
ag175
ag112
ag33
ag28
ag221
ag168
ag94
ag89
ag233
ag76
ag96
ag86
ag242
ag127
ag245
ag68
ag201
ag212
ag206
ag210
ag202
ag162
ag119
ag170
ag274
ag258
ag113
ag256
ag148
ag49
ag237
ag267
ag43
ag156
ag284
ag225
ag79
ag215
ag130
ag275
ag66
ag103
ag185
ag259
ag26
ag22
ag213
ag147
ag38
ag174
ag262
ag131
ag114
ag111
ag192
ag20
ag188
ag167
ag16
ag93
ag193
ag36
ag172
ag291
ag37
ag98
ag240
ag44
ag238
ag27
ag244
ag196
ag224
ag29
ag83
ag117
ag53
ag276
ag231
ag283
ag132
ag187
ag87
ag266
ag123
ag157
ag34
ag12
ag279
ag25
ag232
ag153
ag59
ag286
ag247
ag106
ag78
ag252
ag271
ag260
ag152
ag126
ag107
ag282
ag207
ag186
ag265
ag128
ag257
ag218
ag182
ag222
ag141
ag195
ag91
ag64
ag133
ag173
ag203
ag82
ag159
ag56
ag67
ag100
ag230
ag9
ag62
ag288
ag137
ag269
ag268
ag17
ag166
ag158
ag142
ag124
ag101
ag136
ag138
ag32
ag81
ag241
ag234
ag52
ag211
ag250
ag216
ag55
ag77
ag99
ag243
ag149
ag125
ag227
ag39
ag177
ag280
ag154
ag246
ag51
ag199
ag277
ag57
ag70
ag129
ag61
ag75
ag270
ag118
ag41
ag21
ag249
ag140
ag179
ag42
ag214
ag47
ag72
ag150
ag253
asS'separator'
p296
S'='
sS'sparse'
p297
I01
sb.