ccopy_reg
_reconstructor
p1
(csklearn.feature_extraction.dict_vectorizer
DictVectorizer
p2
c__builtin__
object
p3
NtRp4
(dp5
S'vocabulary_'
p6
(dp7
S'dobj=worshipper'
p8
I302
sS'w+2=few'
p9
I829
sS'dobj=percent'
p10
I253
sS'w+1=representative'
p11
I705
sS'nsubj=violence'
p12
I482
sS'nsubjpass=Taos'
p13
I497
sS'nsubj=spending'
p14
I464
sS'w+1=part'
p15
I696
sS'w+2=but'
p16
I793
sS'w+2=suspicion'
p17
I925
sS'nsubj=team'
p18
I473
sS'dobj=water'
p19
I298
sS'w-1=seem'
p20
I1103
sS'w-2=need'
p21
I1327
sS'nsubj=witness'
p22
I489
sS'w-1=Kong'
p23
I991
sS'w+2=character'
p24
I798
sS'conj=say'
p25
I132
sS'w+2=lesson'
p26
I859
sS'xcomp=increase'
p27
I1445
sS'w-1=initially'
p28
I1068
sS'w-1=event'
p29
I1047
sS'prep=upon'
p30
I567
sS'w+2=several'
p31
I909
sS'w+2=weapon'
p32
I952
sS'w-1=will'
p33
I1128
sS'w-1=Iraq'
p34
I988
sS'w+2=attention'
p35
I782
sS'w-1=Iran'
p36
I987
sS'w+1=139,000'
p37
I590
sS'w+1=laughter'
p38
I672
sS'w-2=pool'
p39
I1353
sS'advmod=mostly'
p40
I48
sS'w+2=highest'
p41
I843
sS'w-2=who'
p42
I1427
sS'w-2=2001'
p43
I1142
sS'w+1=of'
p44
I688
sS'w-1=state'
p45
I1108
sS'nsubjpass=half'
p46
I507
sS'w+1=on'
p47
I689
sS'dobj=expression'
p48
I209
sS'w+2=sharp'
p49
I911
sS'w-2=Jersey'
p50
I1171
sS'nsubj=secrecy'
p51
I458
sS'w-2=process'
p52
I1359
sS'w+2=share'
p53
I910
sS'ccomp=say'
p54
I102
sS'w+1=little'
p55
I674
sS'amod=popular'
p56
I71
sS'nsubj=Griffith'
p57
I328
sS'w-1=could'
p58
I1037
sS'w-1=possibly'
p59
I1093
sS'w-1=you'
p60
I1133
sS'w+1=minority'
p61
I678
sS'advcl=be'
p62
I3
sS'w-2=report'
p63
I1368
sS'w-2=that'
p64
I1403
sS'w+1=the'
p65
I723
sS'w+1=praise'
p66
I700
sS'w-2=than'
p67
I1402
sS'dobj=equivalent'
p68
I208
sS'dobj=heavyweight'
p69
I220
sS'dobj=on-looker'
p70
I246
sS'w-1=already'
p71
I1008
sS'w-2=investigator'
p72
I1302
sS'ccomp=conservationist'
p73
I96
sS'w+2=involvement'
p74
I852
sS'dobj=dollar'
p75
I204
sS'dobj=maid'
p76
I238
sS'w-2=leader'
p77
I1307
sS'w+1=Africa'
p78
I593
sS'w+2=detailed'
p79
I816
sS'w+2=further'
p80
I836
sS'w-2=new'
p81
I1328
sS'xcomp=establish'
p82
I1442
sS'w+2=record'
p83
I899
sS'w-2=Oil'
p84
I1183
sS'dobj=tens-of-thousand'
p85
I284
sS'w-2=order'
p86
I1342
sS'nsubj=Organization'
p87
I348
sS'dobj=audience'
p88
I176
sS'w-2=Haiti'
p89
I1163
sS'conj=negotiate'
p90
I127
sS'cop=remain'
p91
I141
sS'dobj=#NUMBER#'
p92
I161
sS'w+2=picture'
p93
I889
sS'nsubj=Zuma'
p94
I365
sS'nsubj=standoff'
p95
I465
sS'w+2=technological'
p96
I927
sS'w-1=should'
p97
I1105
sS'nsubj=that'
p98
I477
sS'advmod=further'
p99
I40
sS'advmod=here'
p100
I41
sS'dobj=jab'
p101
I229
sS'advcl=draw'
p102
I8
sS'w-1=Laden'
p103
I992
sS'w-2=together'
p104
I1409
sS'ccomp=member'
p105
I100
sS'advmod=where'
p106
I67
sS'w-2=rule'
p107
I1372
sS'w-2=Gore'
p108
I1159
sS'w+1=congressional'
p109
I629
sS'prep=out'
p110
I562
sS'conj=declare'
p111
I118
sS'nsubjpass=Gates'
p112
I495
sS'w-1=voting'
p113
I1123
sS'w+2=30'
p114
I755
sS'w+1=worldwide'
p115
I746
sS'w+1=both'
p116
I617
sS'conj=research'
p117
I131
sS'w-1=to'
p118
I1119
sS'w-1=first'
p119
I1053
sS'w-2=0-0'
p120
I1140
sS'nsubj=patriarch'
p121
I441
sS'w-1=two'
p122
I1122
sS'dobj=#PRP#'
p123
I162
sS'w-2=do'
p124
I1267
sS'w-2=Mr.'
p125
I1177
sS'w-2=vignette'
p126
I1415
sS'appos=#NUMBER#'
p127
I76
sS'w+2=unaligned'
p128
I940
sS'w+2=connection'
p129
I807
sS'nsubj=Musharraf'
p130
I343
sS'w-2=win'
p131
I1430
sS'w+1=overly'
p132
I694
sS'dobj=smile'
p133
I278
sS'w+2=support'
p134
I924
sS'w+1=he'
p135
I652
sS'w-2=two'
p136
I1412
sS'w+2=all'
p137
I777
sS'w-1=doctor'
p138
I1042
sS'w+2=under'
p139
I941
sS'nsubjpass=plan'
p140
I516
sS'nsubj=election'
p141
I410
sS'nsubjpass=vietnamese'
p142
I525
sS'nsubj=promise'
p143
I454
sS'advcl=carve'
p144
I5
sS'w-1=character'
p145
I1032
sS'w+2=percent'
p146
I886
sS'xcomp=say'
p147
I1448
sS'w-2=Ismail'
p148
I1169
sS'w-2=impeach'
p149
I1299
sS'w+1=tie'
p150
I728
sS'conj=begin'
p151
I112
sS'prep=despite'
p152
I550
sS'w-2=Nepal'
p153
I1180
sS'conj=warn'
p154
I139
sS'w-1=party'
p155
I1089
sS'w-2=sound'
p156
I1384
sS'w+2=number-one'
p157
I875
sS'dobj=disenfranchised'
p158
I202
sS'nsubj=president'
p159
I449
sS'nsubj=Korea'
p160
I338
sS'dobj=satisfaction'
p161
I274
sS'nsubj=terrorism'
p162
I475
sS'prep=of'
p163
I559
sS'w+2=million'
p164
I868
sS'w+1=near'
p165
I683
sS'dobj=interest'
p166
I223
sS'w+2=back'
p167
I785
sS'acomp=closer'
p168
I0
sS'nsubj=India'
p169
I333
sS'w-1=draft'
p170
I1043
sS'dobj=quota'
p171
I263
sS'nsubj=Gore'
p172
I327
sS'w+2=curious'
p173
I814
sS'dobj=contrast'
p174
I194
sS'w-2=prayer'
p175
I1354
sS'w-1=membership'
p176
I1073
sS'w-2=Hafidz'
p177
I1162
sS'w+2=heroic'
p178
I842
sS'dobj=condemnation'
p179
I191
sS'det=that'
p180
I159
sS'dep=as'
p181
I144
sS'w-2=bin'
p182
I1238
sS'w-2=Asari'
p183
I1145
sS'w-2=attempt'
p184
I1227
sS'w+1=political'
p185
I699
sS'dobj=inspiration'
p186
I222
sS'advmod=up'
p187
I63
sS'w-1=remark'
p188
I1099
sS'dobj=crowd'
p189
I198
sS'w+2=person'
p190
I887
sS'xcomp=spend'
p191
I1449
sS'dep=out'
p192
I154
sS'w+1=white'
p193
I743
sS'w-2=go'
p194
I1290
sS'w-2=long'
p195
I1314
sS'nsubj=Arbour'
p196
I319
sS'w+1=condemnation'
p197
I628
sS'w-2=would'
p198
I1432
sS'partmod=tell'
p199
I535
sS'nsubj=Islamists'
p200
I335
sS'w+1=Ukraine'
p201
I599
sS'w+2=this'
p202
I933
sS'nsubj=artist'
p203
I375
sS'w+1=between'
p204
I611
sS'dobj=protestor'
p205
I262
sS'w-2=expect'
p206
I1276
sS'mark=while'
p207
I311
sS'dep=so'
p208
I156
sS'w+1=considerable'
p209
I632
sS'w+1=mixed'
p210
I679
sS'w-1=McCain'
p211
I994
sS'w-2=band'
p212
I1231
sS'w+2=response'
p213
I900
sS'w-2=also'
p214
I1216
sS'nsubj=Kibaki'
p215
I336
sS'w+2=new'
p216
I873
sS'w+2=curtain'
p217
I815
sS'w-1=against'
p218
I1007
sS'w-1=Akel'
p219
I972
sS'dobj=Africa'
p220
I164
sS'w+2=military'
p221
I867
sS'w+1=well'
p222
I740
sS'prep=compare'
p223
I549
sS'w-1=Nile'
p224
I996
sS'dobj=rating'
p225
I264
sS'w-2=in'
p226
I1300
sS'w-2=where'
p227
I1424
sS'nsubj=League'
p228
I340
sS'nsubj=desire'
p229
I404
sS'w-2=it'
p230
I1304
sS'w-2=event'
p231
I1273
sS'dobj=finger'
p232
I211
sS'w-2=conclusion'
p233
I1252
sS'w+2=100,000'
p234
I752
sS'w+2=fire'
p235
I831
sS'w+1=conclusion'
p236
I627
sS'advcl=interconnected'
p237
I13
sS'advcl=appear'
p238
I2
sS'nsubj=beach'
p239
I380
sS'mark=although'
p240
I303
sS'nsubj=none'
p241
I433
sS'w-2=call'
p242
I1241
sS'w-2=Group'
p243
I1161
sS'w-2=have'
p244
I1295
sS'dobj=correlation'
p245
I196
sS'w+1=away'
p246
I610
sS'nsubj=Performances'
p247
I353
sS'xcomp=develop'
p248
I1440
sS'w+1=in'
p249
I661
sS'w+1=it'
p250
I668
sS'dobj=that'
p251
I285
sS'nsubj=#PRP#'
p252
I317
sS'w+1=about'
p253
I601
sS'conj=connect'
p254
I115
sS'w+2=year'
p255
I957
sS'w-1=office'
p256
I1083
sS'w+2=UK'
p257
I770
sS'nsubj=outbreak'
p258
I437
sS'advmod=ahead'
p259
I25
sS'w+2=ethnic'
p260
I825
sS'w-1=big'
p261
I1023
sS'w-1=obvious'
p262
I1081
sS'w+1=media'
p263
I676
sS'w-2=Africa'
p264
I1143
sS'w-1=economy'
p265
I1044
sS'w+1=resource'
p266
I706
sS'w+1=strong'
p267
I717
sS'w+2=great'
p268
I838
sS'w-1=eventually'
p269
I1048
sS'nsubj=end'
p270
I411
sS'w+1=water'
p271
I739
sS'w-2=anyone'
p272
I1219
sS'w+2=sum'
p273
I923
sS'w+1=blood'
p274
I614
sS'dobj=States'
p275
I167
sS'w+1=connection'
p276
I630
sS'nsubj=tour'
p277
I478
sS'w-2=almost'
p278
I1214
sS'w-2=to'
p279
I1408
sS'w-2=and'
p280
I1218
sS'w-2=dispute'
p281
I1266
sS'w+1=11'
p282
I589
sS'w+2=disabled'
p283
I818
sS'nsubj=heritage'
p284
I422
sS'prt=together'
p285
I574
sS'w-2=phone'
p286
I1348
sS'w-2=he'
p287
I1296
sS'nsubj=case'
p288
I388
sS'w+2=process'
p289
I893
sS'w+1=sharp'
p290
I712
sS'w+2=he'
p291
I841
sS'w-1=Kibaki'
p292
I990
sS'w+1=what'
p293
I742
sS'w+1=Comics'
p294
I594
sS'w-2=other'
p295
I1344
sS'w-2=Latin'
p296
I1174
sS'w-2=film'
p297
I1284
sS'aux=should'
p298
I84
sS'w-1=then'
p299
I1117
sS'w+1=down'
p300
I637
sS'w-1=they'
p301
I1118
sS'mark=once'
p302
I308
sS'w+2=hip-hop'
p303
I844
sS'w-1=Haniyeh'
p304
I983
sS'dobj=conclusion'
p305
I190
sS'w+1=each'
p306
I639
sS'w+1=sun'
p307
I719
sS'w-2=very'
p308
I1414
sS'w+2=household'
p309
I845
sS'advmod=entirely'
p310
I35
sS'w+2=violent'
p311
I946
sS'w-2=issue'
p312
I1303
sS'prep=after'
p313
I541
sS'w-2=faith'
p314
I1281
sS'nsubj=SANA'
p315
I356
sS'w-1=film'
p316
I1051
sS'advmod=westward'
p317
I65
sS'nsubj=report'
p318
I457
sS'nsubj=death'
p319
I399
sS'prep=against'
p320
I542
sS'nsubj=conference'
p321
I394
sS'w+2=500'
p322
I756
sS'dobj=educate'
p323
I206
sS'ccomp=monitor'
p324
I101
sS'w+1=not'
p325
I686
sS'w-2=five-star'
p326
I1286
sS'w-2=you'
p327
I1434
sS'w+2=correlation'
p328
I809
sS'w+2=town'
p329
I937
sS'w+1=support'
p330
I720
sS'w-1=election'
p331
I1045
sS'nsubj=summer'
p332
I471
sS'w+2=doorway'
p333
I822
sS'w-2=architect'
p334
I1222
sS'w+1=radical'
p335
I703
sS'w+1=out'
p336
I691
sS'w+2=standing'
p337
I918
sS'w-2=can'
p338
I1242
sS'xcomp=advise'
p339
I1435
sS'neg=not'
p340
I313
sS'w+1=comment'
p341
I623
sS'w+1=headline'
p342
I654
sS'w+2=personal'
p343
I888
sS'nsubjpass=crowd'
p344
I503
sS'dobj=child'
p345
I183
sS'w+1=hundred'
p346
I659
sS'dobj=tourist'
p347
I290
sS'w+2=business'
p348
I792
sS'w-2=for'
p349
I1288
sS'advmod=then'
p350
I59
sS'w+1=they'
p351
I725
sS'w+2=Giuliani'
p352
I761
sS'dobj=rebuke'
p353
I266
sS'w+1=attention'
p354
I609
sS'w-2=bill'
p355
I1237
sS'dobj=headline'
p356
I219
sS'nsubj=country'
p357
I396
sS'w-1=preliminary'
p358
I1094
sS'dobj=much'
p359
I242
sS'w+2=between'
p360
I788
sS'w+2=protest'
p361
I894
sS'xcomp=help'
p362
I1444
sS'nsubj=attack'
p363
I376
sS'dobj=impression'
p364
I221
sS'prep=within'
p365
I570
sS'dobj=closer'
p366
I184
sS'nsubj=doctor'
p367
I407
sS'nsubj=Hisham'
p368
I332
sS'dobj=contract'
p369
I193
sS'dobj=post'
p370
I257
sS'w-2=sentence'
p371
I1376
sS'w+1=Russia'
p372
I597
sS'nsubj=Europe'
p373
I326
sS'advmod=so'
p374
I56
sS'advmod=just'
p375
I46
sS'dep=each'
p376
I149
sS'dobj=code'
p377
I185
sS'dobj=turnout'
p378
I292
sS'aux=may'
p379
I82
sS'w-1=Obama'
p380
I997
sS'nsubj=politics'
p381
I445
sS'dobj=complaint'
p382
I188
sS'advcl=lead'
p383
I14
sS'nsubj=speech'
p384
I463
sS'tmod=there'
p385
I581
sS'advcl=come'
p386
I6
sS'w-2=Tehran'
p387
I1195
sS'nsubj=what'
p388
I485
sS'w+1=sanction'
p389
I709
sS'w-2=largest'
p390
I1305
sS'dobj=Comics'
p391
I165
sS'w-2=many'
p392
I1317
sS'w+2=rebuke'
p393
I898
sS'w-1=region'
p394
I1098
sS'w-1=have'
p395
I1062
sS'w+2=in'
p396
I848
sS'w-2=week'
p397
I1422
sS'w-2=hope'
p398
I1297
sS'w-2=proposal'
p399
I1363
sS'prep=about'
p400
I538
sS'aux=can'
p401
I78
sS'dobj=blood'
p402
I178
sS'nsubj=night'
p403
I431
sS'nsubj=facilitator'
p404
I415
sS'w-1=government'
p405
I1060
sS'w+2=thousand'
p406
I934
sS'nsubj=organization'
p407
I435
sS'w-2=always'
p408
I1217
sS'advmod=only'
p409
I52
sS'w+1=for'
p410
I648
sS'conj=cough'
p411
I116
sS'w+2=distinction'
p412
I821
sS'dobj=India'
p413
I166
sS'w-2=acquittal'
p414
I1208
sS'prep=to'
p415
I565
sS'nsubj=Myung-bak'
p416
I345
sS'w-2=voter'
p417
I1417
sS'advmod=clearly'
p418
I33
sS'conj=make'
p419
I126
sS'w-1=still'
p420
I1110
sS'w+2=even'
p421
I826
sS'dobj=plan'
p422
I256
sS'w-1=substantial'
p423
I1113
sS'nsubj=debate'
p424
I400
sS'w+2=for'
p425
I833
sS'ccomp=violate'
p426
I105
sS'w-1=firmly'
p427
I1052
sS'w+2=we'
p428
I951
sS'dobj=all'
p429
I172
sS'nsubj=day'
p430
I397
sS'w-2=seek'
p431
I1375
sS'dobj=weapon'
p432
I299
sS'nsubjpass=nomad'
p433
I512
sS'w-2=change'
p434
I1248
sS'w-2=Louise'
p435
I1176
sS'w-2=destination'
p436
I1262
sS'w+2=unfavorable'
p437
I942
sS'w-1=statement'
p438
I1109
sS'prep=onto'
p439
I561
sS'w-2=Bloomberg'
p440
I1147
sS'w-2=initial'
p441
I1301
sS'dobj=response'
p442
I270
sS'w+2=too'
p443
I936
sS'det=the'
p444
I160
sS'w-2=when'
p445
I1423
sS'dobj=judgment'
p446
I230
sS'dobj=people'
p447
I252
sS'dobj=support'
p448
I281
sS'dobj=funding'
p449
I215
sS'w+1=heavyweight'
p450
I655
sS'advcl=compacted'
p451
I7
sS'xcomp=complete'
p452
I1439
sS'w+1=upon'
p453
I735
sS'w-2=withdraw'
p454
I1431
sS'dobj=presence'
p455
I259
sS'w+1=room'
p456
I707
sS'xcomp=put'
p457
I1446
sS'nsubj=soldier'
p458
I461
sS'w-2=take'
p459
I1396
sS'prep=over'
p460
I563
sS'advcl=youth'
p461
I22
sS'dobj=official'
p462
I244
sS'w+1=crowd'
p463
I635
sS'advmod=possibly'
p464
I53
sS'w-2=Exercise'
p465
I1157
sS'w+1=protest'
p466
I701
sS'nsubjpass=that'
p467
I521
sS'nsubj=story'
p468
I468
sS'w-2=whether'
p469
I1425
sS'nsubj=image'
p470
I423
sS'w-2=able'
p471
I1207
sS'w+2=strength'
p472
I920
sS'ccomp=by'
p473
I94
sS'w-2=continue'
p474
I1256
sS'w+2=own'
p475
I884
sS'w-2=Worldfocus'
p476
I1202
sS'dobj=involvement'
p477
I227
sS'ccomp=disaster'
p478
I97
sS'w-2=game'
p479
I1289
sS'amod=responsible'
p480
I73
sS'nsubj=minister'
p481
I427
sS'w-1=Ahmadinejad'
p482
I971
sS'w-2=tea'
p483
I1398
sS'parataxis=say'
p484
I530
sS'w-2=exclaim'
p485
I1275
sS'conj=divide'
p486
I119
sS'w-1=long'
p487
I1070
sS'w+2=condemnation'
p488
I806
sS'nsubj=involvement'
p489
I424
sS'w-2=authorize'
p490
I1229
sS'w+1=head'
p491
I653
sS'w+2=sellout'
p492
I908
sS'w-1=soccer'
p493
I1107
sS'w+2=media'
p494
I866
sS'dobj=maker'
p495
I239
sS'dobj=outrage'
p496
I247
sS'conj=tend'
p497
I134
sS'w-2=United'
p498
I1199
sS'w-1=case'
p499
I1031
sS'w-2=migration'
p500
I1322
sS'w+1=traditionally'
p501
I733
sS'w+2=say'
p502
I904
sS'nsubj=state'
p503
I466
sS'nsubj=agreement'
p504
I368
sS'dobj=laughter'
p505
I231
sS'w+1=element'
p506
I640
sS'w-1=design'
p507
I1041
sS'w+1=westward'
p508
I741
sS'dobj=lot'
p509
I237
sS'dobj=framework'
p510
I214
sS'dobj=ovation'
p511
I248
sS'w-2=allow'
p512
I1213
sS'w-1=Sicily'
p513
I1001
sS'w-2=System'
p514
I1193
sS'w-2=Europe'
p515
I1156
sS'w+1=to'
p516
I729
sS'dobj=investor'
p517
I226
sS'w-1=and'
p518
I1011
sS'w+1=tens-of-thousand'
p519
I722
sS'w+1=immediate'
p520
I660
sS'advmod=barely'
p521
I32
sS'advmod=first'
p522
I39
sS'w-1=trial'
p523
I1121
sS'xcomp=withdraw'
p524
I1452
sS'w+1=reaction'
p525
I704
sS'w-2=Obama'
p526
I1181
sS'w-2=link'
p527
I1313
sS'w-2=line'
p528
I1312
sS'w+2=disenfranchised'
p529
I820
sS'w-2=pig'
p530
I1349
sS'w-2=test'
p531
I1400
sS'w-2=Palin'
p532
I1186
sS'w-2=statement'
p533
I1389
sS'dobj=alliance'
p534
I173
sS'dobj=boo'
p535
I180
sS'advmod=there'
p536
I60
sS'w-1=always'
p537
I1010
sS'w-2=exploit'
p538
I1277
sS'w+2=over'
p539
I883
sS'w-2=letter'
p540
I1309
sS'w-1=attention'
p541
I1015
sS'w+2=many'
p542
I864
sS'w-2=Dr.'
p543
I1155
sS'w+1=less'
p544
I673
sS'nsubj=movie'
p545
I428
sS'nsubj=decision'
p546
I401
sS'w-1=presidency'
p547
I1095
sS'w+1=big'
p548
I612
sS'nsubj=exhibit'
p549
I414
sS'w+2=its'
p550
I854
sS'dobj=change'
p551
I181
sS'w-2=plan'
p552
I1350
sS'w-2=candidate'
p553
I1243
sS'w-1=barely'
p554
I1018
sS'rel=from'
p555
I577
sS'dobj=attention'
p556
I175
sS'w+2=cruise'
p557
I812
sS'nsubj=Suleiman'
p558
I358
sS'advmod=away'
p559
I30
sS'w-2=tourist'
p560
I1410
sS'w-2=already'
p561
I1215
sS'conj=use'
p562
I137
sS'w+2=private'
p563
I892
sS'w-2=Hong'
p564
I1165
sS'w-2=West'
p565
I1200
sS'dobj=character'
p566
I182
sS'w+2=cautious'
p567
I796
sS'w-2=conflict'
p568
I1254
sS'nsubjpass=who'
p569
I528
sS'nsubjpass=tourist'
p570
I523
sS'w-2=ask'
p571
I1225
sS'w-1=slowly'
p572
I1106
sS'w+1=criticism'
p573
I634
sS'w+2=know'
p574
I856
sS'w-2=Tashkent'
p575
I1194
sS'nsubj=a'
p576
I366
sS'w+1=here'
p577
I656
sS'dobj=fan'
p578
I210
sS'w+1=broad'
p579
I618
sS'nsubj=official'
p580
I434
sS'w+2=strong'
p581
I921
sS'nsubj=Vincent'
p582
I362
sS'cc=but'
p583
I91
sS'w-1=story'
p584
I1111
sS'w-1=who'
p585
I1127
sS'advcl=play'
p586
I15
sS'w-2=begin'
p587
I1236
sS'w+1=new'
p588
I685
sS'dobj=comparison'
p589
I187
sS'dobj=part'
p590
I250
sS'w-2=September'
p591
I1192
sS'w-1=blood'
p592
I1024
sS'w-1=year'
p593
I1132
sS'dobj=viewer'
p594
I293
sS'w-1=game'
p595
I1057
sS'w-1=2003'
p596
I965
sS'w-1=2006'
p597
I966
sS'nsubj=which'
p598
I486
sS'w-2=early'
p599
I1269
sS'w+1=complaint'
p600
I625
sS'conj=take'
p601
I133
sS'nn=game'
p602
I314
sS'dep=come'
p603
I146
sS'nsubj=allocation'
p604
I369
sS'w-1=deadline'
p605
I1038
sS'w+2=right'
p606
I902
sS'dobj=representative'
p607
I268
sS'w+1=widespread'
p608
I745
sS'w+2=up'
p609
I943
sS'w-2=fast-growing'
p610
I1283
sS'w-2=could'
p611
I1257
sS'xcomp=closer'
p612
I1437
sS'w+1=up'
p613
I734
sS'prep=across'
p614
I540
sS'w-2=try'
p615
I1411
sS'w-2=Capitol'
p616
I1149
sS'w+1=inquisitive'
p617
I663
sS'w-2=Francisco'
p618
I1158
sS'w+2=troops'
p619
I938
sS'w+2=Somalia'
p620
I767
sS'w-2=Anderson'
p621
I1144
sS'w+2=single'
p622
I913
sS'dobj=ire'
p623
I228
sS'w+2=absorb'
p624
I773
sS'dobj=salary'
p625
I272
sS'w-1=nearly'
p626
I1077
sS'w-2=,'
p627
I1136
sS'w-2=-'
p628
I1137
sS'w-2=.'
p629
I1139
sS'w-2=speech'
p630
I1386
sS'w+2=second'
p631
I907
sS'dobj=number'
p632
I243
sS'aux=have'
p633
I81
sS'w+2=Iran'
p634
I763
sS'w-2=thing'
p635
I1406
sS'w+2=worshipper'
p636
I956
sS'w-2=I'
p637
I1166
sS'w+2=United'
p638
I771
sS'w-2=decision'
p639
I1259
sS'w-2=how'
p640
I1298
sS'conj=help'
p641
I124
sS'w-1=Pedro'
p642
I999
sS'nsubj=video'
p643
I481
sS'nsubj=bailout'
p644
I378
sS'w-1=secrecy'
p645
I1102
sS'w+2=sustenance'
p646
I926
sS'w+2=interest'
p647
I850
sS'w-2=`'
p648
I1204
sS'w-2=a'
p649
I1205
sS'w+1=climate'
p650
I621
sS'w-2=capital'
p651
I1245
sS'w+1=together'
p652
I730
sS'w+1=high'
p653
I657
sS'w+1=accusation'
p654
I603
sS'w-1=Egyptians'
p655
I978
sS'w-1=he'
p656
I1063
sS'w+1=many'
p657
I675
sS'xcomp=test'
p658
I1451
sS'w+1=from'
p659
I650
sS'nsubj=plan'
p660
I443
sS'dobj=visitor'
p661
I294
sS'w+1=conservative'
p662
I631
sS'w+2=inspiration'
p663
I849
sS'nsubj=play'
p664
I444
sS'w-2=procedure'
p665
I1358
sS'dobj=vote'
p666
I295
sS'w+1=enough'
p667
I641
sS'w+2=maid'
p668
I863
sS'dobj=troops'
p669
I291
sS'w+2=Chengdu'
p670
I758
sS'w+1=parallel'
p671
I695
sS'mark=since'
p672
I309
sS'w-1=Arbour'
p673
I974
sS'w+2=U.S.'
p674
I769
sS'w-1=even'
p675
I1046
sS'w-2=lawyer'
p676
I1306
sS'conj=force'
p677
I121
sS'prep=from'
p678
I554
sS'csubj=try'
p679
I143
sS'prep=down'
p680
I551
sS'w-1=Hanh'
p681
I982
sS'w-2=facility'
p682
I1279
sS'conj=confine'
p683
I114
sS'dobj=best'
p684
I177
sS'dobj=voter'
p685
I296
sS'w+2=praise'
p686
I891
sS'w+1=$'
p687
I584
sS'w+1=,'
p688
I586
sS'w+1=.'
p689
I587
sS'w+1=I'
p690
I595
sS'w+2=Pennsylvania'
p691
I766
sS'advmod=almost'
p692
I26
sS'mark=with'
p693
I312
sS'nsubj=company'
p694
I392
sS'w+1=a'
p695
I600
sS'w+1=U.S.'
p696
I598
sS'w+2=force'
p697
I834
sS'w+2=woman'
p698
I955
sS'w-2=because'
p699
I1235
sS'w-1=that'
p700
I1115
sS'w-2=lose'
p701
I1315
sS'nsubj=lifting'
p702
I425
sS'dobj=law'
p703
I232
sS'w-2=people'
p704
I1347
sS'advmod=increasingly'
p705
I44
sS'nsubjpass=people'
p706
I514
sS'w-2=CHOGM'
p707
I1148
sS'w-2=facilitator'
p708
I1278
sS'w+1=picture'
p709
I698
sS'w+1=viewer'
p710
I736
sS'dobj=affidavit'
p711
I170
sS'w-2=robotic'
p712
I1370
sS'w-1=2010'
p713
I967
sS'w-1=figure'
p714
I1050
sS'w-1=America'
p715
I973
sS'w-2=use'
p716
I1413
sS'w-2=base'
p717
I1232
sS'nsubjpass=those'
p718
I522
sS'w-1=would'
p719
I1131
sS'w+2=child'
p720
I799
sS'w-2=Bhopal'
p721
I1146
sS'w+1=only'
p722
I690
sS'w+1=too'
p723
I731
sS'nsubj=summit'
p724
I472
sS'w-2=we'
p725
I1421
sS'w-2=appropriate'
p726
I1221
sS'nsubj=proposal'
p727
I455
sS'tmod=December'
p728
I579
sS'nsubj=color'
p729
I390
sS'dobj=accusation'
p730
I169
sS'w+2=scientist'
p731
I906
sS'w+1=closer'
p732
I622
sS'advcl=take'
p733
I21
sS'advcl=fire'
p734
I11
sS'w+1=outrage'
p735
I692
sS'w+2=to'
p736
I935
sS'w+2=identification'
p737
I846
sS'w-2=market'
p738
I1318
sS'nsubjpass=voter'
p739
I526
sS'w-2=something'
p740
I1382
sS'dobj=lesson'
p741
I233
sS'nsubj=confiscation'
p742
I395
sS'w+2=criticism'
p743
I810
sS'xcomp=firmly'
p744
I1443
sS'w-1=Zimbabwe'
p745
I1003
sS'complm=that'
p746
I107
sS'w-1=gradual'
p747
I1061
sS'nsubj=bombing'
p748
I384
sS'w-2=strategy'
p749
I1391
sS'w+2=vote'
p750
I948
sS'advcl=subsidiary'
p751
I20
sS'dep=order'
p752
I153
sS'w+1=boo'
p753
I616
sS'tmod=fan'
p754
I580
sS'w-2=operate'
p755
I1338
sS'w-2=ever'
p756
I1274
sS'w-1=militia'
p757
I1075
sS'nsubjpass=Plan'
p758
I496
sS'w-2=October'
p759
I1182
sS'advmod=somehow'
p760
I57
sS'advmod=quickly'
p761
I54
sS'nsubj=Prendergast'
p762
I354
sS'prep=in'
p763
I555
sS'w-1=popular'
p764
I1092
sS'w-1=about'
p765
I1005
sS'w+2=restavek'
p766
I901
sS'w+1=funding'
p767
I651
sS'w-1=strong'
p768
I1112
sS'w-2=slow'
p769
I1378
sS'dobj=threat'
p770
I288
sS'nsubj=Ahmadinejad'
p771
I318
sS'w-1=band'
p772
I1017
sS'w+2=jab'
p773
I855
sS'nsubj=Palin'
p774
I350
sS'w+1=1.5'
p775
I588
sS'nsubj=outlaw'
p776
I438
sS'conj=remark'
p777
I129
sS'w+2=water'
p778
I950
sS'dobj=athlete'
p779
I174
sS'w-1=it'
p780
I1069
sS'dobj=mark'
p781
I240
sS'w-2=government'
p782
I1291
sS'w-2=opportunity'
p783
I1339
sS'w-1=night'
p784
I1078
sS'w-1=in'
p785
I1066
sS'w+1=thousand'
p786
I727
sS'conj=choose'
p787
I113
sS'w+1=tourist'
p788
I732
sS'poss=#DATE#'
p789
I536
sS'w-1=the'
p790
I1116
sS'mark=if'
p791
I306
sS'w-2=capable'
p792
I1244
sS'mark=in'
p793
I307
sS'w-2=soldier'
p794
I1381
sS'nsubj=prayer'
p795
I447
sS'w+2=not'
p796
I874
sS'w-1=Hisham'
p797
I985
sS'w+2=finger'
p798
I830
sS'w+2=lot'
p799
I862
sS'nsubj=deadline'
p800
I398
sS'prep=than'
p801
I564
sS'dep=say'
p802
I155
sS'w-2=Pyongyang'
p803
I1191
sS'nsubj=voting'
p804
I484
sS'partmod=declare'
p805
I532
sS'dobj=praise'
p806
I258
sS'w-2=throughout'
p807
I1407
sS'w-2=or'
p808
I1341
sS'nsubj=who'
p809
I487
sS'w+2=larger'
p810
I857
sS'w-2=of'
p811
I1333
sS'w-2=on'
p812
I1335
sS'nsubj=band'
p813
I379
sS'w+2=mark'
p814
I865
sS'nsubj=social'
p815
I460
sS'nsubj=party'
p816
I440
sS'w-2=follower'
p817
I1287
sS'w+2=impression'
p818
I847
sS'nsubj=authority'
p819
I377
sS'nsubj=dragon'
p820
I408
sS'nsubjpass=exploit'
p821
I505
sS'nsubjpass=superdelegate'
p822
I520
sS'nsubj=detention'
p823
I405
sS'w-2=ability'
p824
I1206
sS'dobj=this'
p825
I287
sS'w-2=attack'
p826
I1226
sS'advmod=however'
p827
I43
sS'w+1=as'
p828
I608
sS'conj=trap'
p829
I135
sS'w+2=safeguard'
p830
I903
sS'w-2=militant'
p831
I1323
sS'w-2=Thai'
p832
I1196
sS'w-1=Nations'
p833
I995
sS'w-1=can'
p834
I1029
sS'w-2=official'
p835
I1334
sS'w-2=probe'
p836
I1357
sS'nsubj=power'
p837
I446
sS'advmod=when'
p838
I66
sS'w-1=demonstration'
p839
I1040
sS'dobj=ship'
p840
I277
sS'w-2=support'
p841
I1395
sS'w-2=visit'
p842
I1416
sS'w-1=bombing'
p843
I1025
sS'nn=scoreless'
p844
I315
sS'w+2=oil'
p845
I877
sS'w-2=patriarch'
p846
I1346
sS'dep=costly'
p847
I147
sS'advmod=initially'
p848
I45
sS'auxpass=be'
p849
I89
sS"w-1='s"
p850
I959
sS'nsubj=probe'
p851
I451
sS'w+1=set'
p852
I710
sS'w+2=after'
p853
I776
sS'w-2=Logan'
p854
I1175
sS'dobj=deal'
p855
I200
sS'advmod=still'
p856
I58
sS'w+1=there'
p857
I724
sS'nsubj=Pedro'
p858
I351
sS'nsubj=trial'
p859
I480
sS'w-2=spending'
p860
I1387
sS'nsubj=#NUMBER#'
p861
I316
sS'nsubj=choice'
p862
I389
sS'w+1=its'
p863
I669
sS'w+2=Al'
p864
I757
sS'w+1=wide'
p865
I744
sS'w-2=desire'
p866
I1261
sS'w+2=sport'
p867
I917
sS"w-1=''"
p868
I958
sS'nsubj=acquittal'
p869
I367
sS'xcomp=work'
p870
I1453
sS'nsubjpass=#NUMBER#'
p871
I492
sS'w-2=most'
p872
I1325
sS'dobj=well'
p873
I300
sS'w-2=Pakistan'
p874
I1185
sS'nsubjpass=agenda'
p875
I498
sS'nsubjpass=man'
p876
I509
sS'nsubjpass=map'
p877
I510
sS'nsubj=fighting'
p878
I417
sS'w+2=vocalist'
p879
I947
sS'conj=have'
p880
I123
sS'dobj=blueprint'
p881
I179
sS'w+2=american'
p882
I779
sS'tmod=weekend'
p883
I582
sS'w-2=room'
p884
I1371
sS"w-2='s"
p885
I1135
sS'nsubj=execution'
p886
I413
sS'w-1=Liel'
p887
I993
sS'w-2=Zimbabwe'
p888
I1203
sS'advmod=closer'
p889
I34
sS'nsubj=win'
p890
I488
sS'w+1=international'
p891
I664
sS'nsubj=comment'
p892
I391
sS'nsubj=workshop'
p893
I490
sS'dobj=acclaim'
p894
I168
sS'amod=gradual'
p895
I69
sS'w-1=summer'
p896
I1114
sS'dobj=report'
p897
I267
sS'w+2=much'
p898
I872
sS'w+1=land'
p899
I670
sS'dobj=concern'
p900
I189
sS'nsubj=design'
p901
I402
sS'w-2=which'
p902
I1426
sS'w-1=official'
p903
I1084
sS'nsubj=Sivuyile'
p904
I357
sS'nsubjpass=pig'
p905
I515
sS'advmod=even'
p906
I36
sS'nsubj=some'
p907
I462
sS'prep=while'
p908
I568
sS'w-2=the'
p909
I1404
sS'nsubj=primary'
p910
I450
sS'w-2=testimony'
p911
I1401
sS'aux=will'
p912
I86
sS'w-2=complete'
p913
I1251
sS'nsubj=analyst'
p914
I370
sS'dobj=handful'
p915
I217
sS'w+2=culture'
p916
I813
sS'advcl=allow'
p917
I1
sS'w-2=artist'
p918
I1223
sS'w-2=planner'
p919
I1351
sS'prep=with'
p920
I569
sS'dobj=force'
p921
I213
sS'w+1=quite'
p922
I702
sS'w-2=India'
p923
I1167
sS'w-2=president'
p924
I1355
sS'nsubj=soccer'
p925
I459
sS'w-2=consequence'
p926
I1255
sS'nsubj=book'
p927
I385
sS'w+2=step'
p928
I919
sS'nsubj=Cubans'
p929
I324
sS'w+2=civil'
p930
I800
sS'nsubjpass=follower'
p931
I506
sS'ccomp=heavy-handed'
p932
I99
sS'w+2=Obama'
p933
I765
sS'w+2=blueprint'
p934
I790
sS'w+1=critical'
p935
I633
sS'dobj=detail'
p936
I201
sS'w-2=hard'
p937
I1294
sS'nsubj=music'
p938
I429
sS'w-2=way'
p939
I1420
sS'nsubj=membership'
p940
I426
sS'w-1=one'
p941
I1086
sS'w+1=increase'
p942
I662
sS'nsubj=director'
p943
I406
sS'w+2=far-reaching'
p944
I828
sS'cc=and'
p945
I90
sS'dobj=oil'
p946
I245
sS'w+1=by'
p947
I619
sS'dobj=menu'
p948
I241
sS'nsubjpass=region'
p949
I517
sS'nsubj=Nations'
p950
I346
sS'w-2=sometimes'
p951
I1383
sS'tmod=year'
p952
I583
sS'w-2=determination'
p953
I1264
sS'nsubj=statement'
p954
I467
sS'dep=long'
p955
I152
sS'w+2=violence'
p956
I945
sS'w-2=promise'
p957
I1362
sS'w+1=into'
p958
I666
sS'nsubj=faith'
p959
I416
sS'w-2=Jena'
p960
I1170
sS'w-2=1987'
p961
I1141
sS'w-2=party'
p962
I1345
sS'w-2=schedule'
p963
I1374
sS'dobj=curtain'
p964
I199
sS'aux=could'
p965
I79
sS'w-1=company'
p966
I1035
sS'prep=like'
p967
I557
sS'w-2=President'
p968
I1190
sS'nsubj=overture'
p969
I439
sS'w+1=investor'
p970
I667
sS'w+2=concern'
p971
I804
sS'xcomp=be'
p972
I1436
sS'nsubj=program'
p973
I453
sS'w-2=not'
p974
I1331
sS'w+1=significant'
p975
I713
sS'prep=on'
p976
I560
sS'dobj=strength'
p977
I280
sS'w+2=casino'
p978
I795
sS"w-2=''"
p979
I1134
sS'w+1=needed'
p980
I684
sS'w-2=Pelosi'
p981
I1187
sS'w-1=tournament'
p982
I1120
sS'nsubj=candidate'
p983
I386
sS'w-2=Cubans'
p984
I1153
sS'nsubjpass=contract'
p985
I501
sS'w+2=later'
p986
I858
sS'w-1=beach'
p987
I1020
sS'dobj=investment'
p988
I225
sS'w+2=that'
p989
I929
sS'w+1=soccer'
p990
I715
sS'xcomp=discuss'
p991
I1441
sS'w-1=or'
p992
I1088
sS'nsubjpass=troops'
p993
I524
sS'advcl=say'
p994
I16
sS'w-1=of'
p995
I1082
sS'w+2=what'
p996
I953
sS'nsubj=year'
p997
I491
sS'conj=go'
p998
I122
sS'dobj=process'
p999
I260
sS'w+2=real'
p1000
I896
sS'w+1=this'
p1001
I726
sS'w-2=limit'
p1002
I1311
sS'w+1=acclaim'
p1003
I602
sS'w+2=older'
p1004
I878
sS'dobj=agreement'
p1005
I171
sS'advmod=now'
p1006
I50
sS'w+2=investment'
p1007
I851
sS'w-2=will'
p1008
I1429
sS'w+2=Jose'
p1009
I764
sS'dobj=sanction'
p1010
I273
sS'nsubj=Asari'
p1011
I320
sS'w+1=billion'
p1012
I613
sS'prep=among'
p1013
I543
sS'partmod=say'
p1014
I534
sS'w-2=lesson'
p1015
I1308
sS'w-2=now'
p1016
I1332
sS'w-2=as'
p1017
I1224
sS'w-2=man'
p1018
I1316
sS'w-1=also'
p1019
I1009
sS'w-1=freedom'
p1020
I1055
sS'w-2=may'
p1021
I1319
sS'w+1=500'
p1022
I592
sS'w+1=during'
p1023
I638
sS'w-2=Petraeus'
p1024
I1189
sS'conj=uproot'
p1025
I136
sS'w+2=comic'
p1026
I802
sS'det=a'
p1027
I158
sS'w+1=Kenyans'
p1028
I596
sS'dobj=link'
p1029
I235
sS'w+2=these'
p1030
I931
sS'dobj=line'
p1031
I234
sS'w-2=chalk'
p1032
I1247
sS'w+2=speculation'
p1033
I916
sS'w-1=before'
p1034
I1021
sS'w+2=drug'
p1035
I823
sS'nsubj=economy'
p1036
I409
sS'nsubj=Laden'
p1037
I339
sS'w-2=opening'
p1038
I1337
sS'dobj=criticism'
p1039
I197
sS'complm=whether'
p1040
I108
sS'w+1=more'
p1041
I680
sS'w+2=best'
p1042
I787
sS'w+2=fan'
p1043
I827
sS'nsubj=answer'
p1044
I371
sS'nsubj=Pelosi'
p1045
I352
sS'w-2=opposition'
p1046
I1340
sS'dobj=reaction'
p1047
I265
sS'dobj=picture'
p1048
I255
sS'nsubj=producer'
p1049
I452
sS'xcomp=compete'
p1050
I1438
sS'w+2=than'
p1051
I928
sS'xcomp=support'
p1052
I1450
sS'nsubj=designer'
p1053
I403
sS'w+2=direct'
p1054
I817
sS'w-2=nationalist'
p1055
I1326
sS'w+2=Durban'
p1056
I759
sS'nsubjpass=border'
p1057
I500
sS'aux=to'
p1058
I85
sS'nsubj=architect'
p1059
I373
sS'w-2=famous'
p1060
I1282
sS'w+1=million'
p1061
I677
sS'w-1=for'
p1062
I1054
sS'w+2=closer'
p1063
I801
sS'dobj=connection'
p1064
I192
sS'w+2=most'
p1065
I871
sS'w-1=Bank'
p1066
I975
sS'w+2=audience'
p1067
I783
sS'w-1=comment'
p1068
I1034
sS'w-1=U.S.'
p1069
I1002
sS'prep=during'
p1070
I552
sS'nsubj=Ortega'
p1071
I349
sS'nsubjpass=al-Qaida'
p1072
I499
sS'nsubj=test'
p1073
I476
sS'w-1=now'
p1074
I1080
sS'w-1=not'
p1075
I1079
sS'w+2=away'
p1076
I784
sS'w-1=begin'
p1077
I1022
sS'dobj=peacekeeper'
p1078
I251
sS'w+1=vote'
p1079
I738
sS'w+1=huge'
p1080
I658
sS'aux=be'
p1081
I77
sS'w-2=mistake'
p1082
I1324
sS'w+2=century'
p1083
I797
sS'conj=absorb'
p1084
I109
sS'prep=before'
p1085
I546
sS'dobj=element'
p1086
I207
sS'w+2=turnout'
p1087
I939
sS'ccomp=call'
p1088
I95
sS'w-2=group'
p1089
I1292
sS'dep=do'
p1090
I148
sS'conj=prompt'
p1091
I128
sS'w-1=Islamists'
p1092
I989
sS'w-2=Hampshire'
p1093
I1164
sS'advmod=well'
p1094
I64
sS'w-2=election'
p1095
I1271
sS'w-1=ban'
p1096
I1016
sS'w+2=conclusion'
p1097
I805
sS'w-1=candidate'
p1098
I1030
sS'w-2=they'
p1099
I1405
sS'nsubj=tournament'
p1100
I479
sS'prep=by'
p1101
I548
sS'w+2=discussion'
p1102
I819
sS'dobj=fire'
p1103
I212
sS'prep=between'
p1104
I547
sS'w-2=country'
p1105
I1258
sS'advmod=too'
p1106
I62
sS'nsubj=concert'
p1107
I393
sS'w-2=actual'
p1108
I1209
sS'nsubj=government'
p1109
I421
sS'dobj=intervention'
p1110
I224
sS'w+1=expression'
p1111
I645
sS'w+2=across'
p1112
I775
sS'w-1=2-2'
p1113
I964
sS'amod=big'
p1114
I68
sS'w-1=by'
p1115
I1027
sS'w-1=be'
p1116
I1019
sS'advmod=eventually'
p1117
I37
sS'nsubj=visit'
p1118
I483
sS'w-2=risk'
p1119
I1369
sS'mark=because'
p1120
I305
sS'aux=might'
p1121
I83
sS'dobj=series'
p1122
I275
sS'conj=want'
p1123
I138
sS'advcl=face'
p1124
I10
sS'conj=find'
p1125
I120
sS'nsubj=nobody'
p1126
I432
sS'w-2=terrorism'
p1127
I1399
sS'nsubj=Egyptians'
p1128
I325
sS'nsubj=style'
p1129
I469
sS'w-1=again'
p1130
I1006
sS'nsubj=Redgrave'
p1131
I355
sS'w-2=nobody'
p1132
I1329
sS'w-2=detention'
p1133
I1263
sS'w-1=which'
p1134
I1126
sS'w+1=people'
p1135
I697
sS'w-1=arrest'
p1136
I1013
sS'w+2=crowd'
p1137
I811
sS'w-2=Chinese'
p1138
I1151
sS'w-1=from'
p1139
I1056
sS'w-1=49ers'
p1140
I968
sS'w-1=Friday'
p1141
I980
sS'w-2=effort'
p1142
I1270
sS'w-1=only'
p1143
I1087
sS'w+2=by'
p1144
I794
sS'w+1=national'
p1145
I682
sS'w+2=be'
p1146
I786
sS'dobj=comment'
p1147
I186
sS'w-1=death'
p1148
I1039
sS'nsubj=Hanoi'
p1149
I330
sS'nsubjpass=#PRP#'
p1150
I493
sS'w-1=mostly'
p1151
I1076
sS'dobj=distinction'
p1152
I203
sS'w-2=Woods'
p1153
I1201
sS'aux=would'
p1154
I87
sS'w+1=entirely'
p1155
I643
sS'ccomp=wear'
p1156
I106
sS'amod=preliminary'
p1157
I72
sS'w-2=Korea'
p1158
I1173
sS'w+2=small'
p1159
I914
sS'dobj=the'
p1160
I286
sS'nsubj=bishop'
p1161
I383
sS'advmod=ago'
p1162
I24
sS'w+1=and'
p1163
I605
sS'w-2=presidential'
p1164
I1356
sS'w+2=smile'
p1165
I915
sS'w-2=status'
p1166
I1390
sS'xcomp=safeguard'
p1167
I1447
sS'w+1=any'
p1168
I607
sS'prt=up'
p1169
I575
sS'w-2=membership'
p1170
I1321
sS'w-2=Tsvangirai'
p1171
I1197
sS'w+2=link'
p1172
I861
sS'advmod=together'
p1173
I61
sS'w-1=Gore'
p1174
I981
sS'nsubj=Conference'
p1175
I323
sS'w-2=building'
p1176
I1240
sS'parataxis=visit'
p1177
I531
sS'w-2=electoral'
p1178
I1272
sS'w-1=answer'
p1179
I1012
sS'w-1=clearly'
p1180
I1033
sS'w-2=ploy'
p1181
I1352
sS'w+1=russian'
p1182
I708
sS'w+2=moresubdued'
p1183
I870
sS'nsubj=Kong'
p1184
I337
sS'w-2=so'
p1185
I1379
sS'mark=than'
p1186
I310
sS'w+1=fire'
p1187
I646
sS'w-2=life'
p1188
I1310
sS'w-2=ago'
p1189
I1210
sS'w+1=ten'
p1190
I721
sS'nsubj=Heads'
p1191
I331
sS'w+1=firm'
p1192
I647
sS'dobj=head'
p1193
I218
sS'amod=strong'
p1194
I74
sS'w+2=2002'
p1195
I753
sS'w+2=Sunni'
p1196
I768
sS'w+2=more'
p1197
I869
sS'w+2=reaction'
p1198
I895
sS'w+2=veto'
p1199
I944
sS'conj=accuse'
p1200
I110
sS'w-1=Eritrea'
p1201
I979
sS'dep=because'
p1202
I145
sS'w-2=check'
p1203
I1249
sS'w-2=Musharraf'
p1204
I1178
sS'prt=out'
p1205
I573
sS'nsubj=arrest'
p1206
I374
sS'nsubj=Muthaura'
p1207
I344
sS'conj=decide'
p1208
I117
sS'w-1=go'
p1209
I1059
sS'w-2=Central'
p1210
I1150
sS'w-1=call'
p1211
I1028
sS'dobj=contributor'
p1212
I195
sS'w-2=aim'
p1213
I1211
sS'partmod=grow'
p1214
I533
sS'nsubj=anyone'
p1215
I372
sS'w-1=Prendergast'
p1216
I1000
sS'w+1=visitor'
p1217
I737
sS'prep=for'
p1218
I553
sS'dep=that'
p1219
I157
sS'w-2=finger'
p1220
I1285
sS'w+2=line'
p1221
I860
sS'rcmod=leave'
p1222
I576
sS'w+2=as'
p1223
I781
sS'w-2=U.S.'
p1224
I1198
sS'w-2=guitar'
p1225
I1293
sS'w-1=here'
p1226
I1064
sS'w-2=appear'
p1227
I1220
sS'w+2=Egypt'
p1228
I760
sS'nsubj=other'
p1229
I436
sS'w+2=India'
p1230
I762
sS'advmod=always'
p1231
I29
sS'advmod=much'
p1232
I49
sS'dobj=generation'
p1233
I216
sS'w-2=successful'
p1234
I1393
sS'w+2=plan'
p1235
I890
sS'w-1=hotel'
p1236
I1065
sS'w+2=she'
p1237
I912
sS'w-2=Jones'
p1238
I1172
sS'conj=increase'
p1239
I125
sS'w+2=with'
p1240
I954
sS'w+1=much'
p1241
I681
sS'conj=approve'
p1242
I111
sS'ccomp=drop'
p1243
I98
sS'w-2=dragon'
p1244
I1268
sS'w-1=people'
p1245
I1090
sS'w-1=primary'
p1246
I1096
sS'w+1=board'
p1247
I615
sS'w-2=Griffith'
p1248
I1160
sS'nsubj=funeral'
p1249
I419
sS'nsubjpass=most'
p1250
I511
sS'w+1=different'
p1251
I636
sS'w+2=of'
p1252
I876
sS'ccomp=back'
p1253
I93
sS'w-2=style'
p1254
I1392
sS'w+2=on'
p1255
I879
sS'w-2=bailout'
p1256
I1230
sS'dobj=resource'
p1257
I269
sS'advmod=firmly'
p1258
I38
sS'nsubj=capital'
p1259
I387
sS'w+1=so'
p1260
I714
sS'prep=into'
p1261
I556
sS'w+1=number'
p1262
I687
sS'cc=or'
p1263
I92
sS'w-1=propose'
p1264
I1097
sS'nsubj=event'
p1265
I412
sS'prep=without'
p1266
I571
sS'w-1=report'
p1267
I1100
sS'w-1=Chan'
p1268
I977
sS'w+2=five'
p1269
I832
sS'w-1=she'
p1270
I1104
sS'advcl=envision'
p1271
I9
sS'w-2=mean'
p1272
I1320
sS'w+2=from'
p1273
I835
sS'nsubj=bid'
p1274
I382
sS'advmod=often'
p1275
I51
sS'w-2=fail'
p1276
I1280
sS'w+1=angry'
p1277
I606
sS'w+2=comparison'
p1278
I803
sS'w-2=remain'
p1279
I1366
sS'w+1=over'
p1280
I693
sS'w-2=design'
p1281
I1260
sS'dobj=suspicion'
p1282
I282
sS'ccomp=support'
p1283
I103
sS'dobj=safety'
p1284
I271
sS'nsubj=Tehran'
p1285
I359
sS'dobj=tie'
p1286
I289
sS'w-2=space'
p1287
I1385
sS'w+1=several'
p1288
I711
sS'w-2=Iraq'
p1289
I1168
sS'w-2=Conference'
p1290
I1152
sS'w-1=Hanoi'
p1291
I984
sS'w-1=workshop'
p1292
I1130
sS'aux=do'
p1293
I80
sS'w-2=Din'
p1294
I1154
sS'w-2=public'
p1295
I1364
sS'w-1=politics'
p1296
I1091
sS'w+2=voter'
p1297
I949
sS'advmod=already'
p1298
I27
sS'w-2=bosnian'
p1299
I1239
sS'nsubj=people'
p1300
I442
sS'w+1=enthusiastic'
p1301
I642
sS'nsubj=beauty'
p1302
I381
sS'w+2=people'
p1303
I885
sS'w-2=cautious'
p1304
I1246
sS'w-2=--'
p1305
I1138
sS'w-1=woman'
p1306
I1129
sS'w+1=foreign'
p1307
I649
sS'w-2=producer'
p1308
I1360
sS'nsubj=Obama'
p1309
I347
sS'w-2=color'
p1310
I1250
sS'nsubjpass=storm'
p1311
I519
sS'prep=accord'
p1312
I539
sS'num=#NUMBER#'
p1313
I529
sS'w-2=beable'
p1314
I1234
sS"w+2=''"
p1315
I748
sS'w-2=organization'
p1316
I1343
sS'w+1=comparison'
p1317
I624
sS'dobj=strategy'
p1318
I279
sS'nsubjpass=country'
p1319
I502
sS'auxpass=appear'
p1320
I88
sS'w+1=even'
p1321
I644
sS'w-2=program'
p1322
I1361
sS'nsubjpass=line'
p1323
I508
sS'w-2=nomad'
p1324
I1330
sS'prep=under'
p1325
I566
sS'amod=obvious'
p1326
I70
sS'nsubj=Tsvangirai'
p1327
I360
sS'w-2=summit'
p1328
I1394
sS'w-1=but'
p1329
I1026
sS'dep=know'
p1330
I151
sS'nsubj=film'
p1331
I418
sS'nsubj=game'
p1332
I420
sS'advcl=flee'
p1333
I12
sS'w-2=Organization'
p1334
I1184
sS'w+2=broad'
p1335
I791
sS'w-1=Park'
p1336
I998
sS'w-1=constitution'
p1337
I1036
sS'w+2=equivalent'
p1338
I824
sS'advmod=slowly'
p1339
I55
sS"w+1=''"
p1340
I585
sS'w-2=Perrier'
p1341
I1188
sS'w+2=2005'
p1342
I754
sS'w+2=contrast'
p1343
I808
sS'nsubj=remark'
p1344
I456
sS'amod=substantial'
p1345
I75
sS'w-2=album'
p1346
I1212
sS'w+2=alliance'
p1347
I778
sS'nsubj=suggestion'
p1348
I470
sS'dobj=parallel'
p1349
I249
sS'advmod=again'
p1350
I23
sS'w+1=cartoon'
p1351
I620
sS'advmod=back'
p1352
I31
sS'dobj=sustenance'
p1353
I283
sS'w-1=might'
p1354
I1074
sS'w-2=authority'
p1355
I1228
sS'w-2=be'
p1356
I1233
sS'w+2=global'
p1357
I837
sS'nsubj=presidency'
p1358
I448
sS'nsubjpass=some'
p1359
I518
sS'advcl=begin'
p1360
I4
sS'nsubj=tent'
p1361
I474
sS'nsubj=Brown'
p1362
I321
sS'dobj=$'
p1363
I163
sS'w+2=scientific'
p1364
I905
sS'w+1=all'
p1365
I604
sS'nsubj=Chan'
p1366
I322
sS'w+1=some'
p1367
I716
sS'w-2=want'
p1368
I1418
sS'w-2=whose'
p1369
I1428
sS'w+1=large'
p1370
I671
sS'w+2=-'
p1371
I750
sS'dobj=list'
p1372
I236
sS'dobj=woman'
p1373
I301
sS'w-2=conference'
p1374
I1253
sS'w+2=and'
p1375
I780
sS'tmod=#DATE#'
p1376
I578
sS'prep=near'
p1377
I558
sS'nsubj=Hanh'
p1378
I329
sS'ccomp=take'
p1379
I104
sS'w+2=real-life'
p1380
I897
sS'advmod=also'
p1381
I28
sS'cop=be'
p1382
I140
sS'w-2=she'
p1383
I1377
sS'w+2=ordeal'
p1384
I882
sS'dobj=protest'
p1385
I261
sS'w-2=software'
p1386
I1380
sS'dobj=war'
p1387
I297
sS'w-2=warn'
p1388
I1419
sS'w-2=say'
p1389
I1373
sS'conj=remove'
p1390
I130
sS'w+2=the'
p1391
I930
sS'prep=at'
p1392
I545
sS'nsubj=U.S.'
p1393
I361
sS'prep=as'
p1394
I544
sS'w-1=6'
p1395
I969
sS'w-2=die'
p1396
I1265
sS'w+2=acclaim'
p1397
I774
sS'w-1=:'
p1398
I970
sS'w-1=.'
p1399
I963
sS'w-1=-'
p1400
I961
sS'w-1=,'
p1401
I960
sS'dobj=share'
p1402
I276
sS'nsubj=Worldfocus'
p1403
I363
sS'w+2=one'
p1404
I881
sS'w-1=I'
p1405
I986
sS'nsubjpass=particular'
p1406
I513
sS'w+2=such'
p1407
I922
sS'nsubj=McCain'
p1408
I342
sS'w-1=responsible'
p1409
I1101
sS'w-1=a'
p1410
I1004
sS'nsubjpass=which'
p1411
I527
sS'w+1=concern'
p1412
I626
sS'mark=as'
p1413
I304
sS'w+1=4,000'
p1414
I591
sS'w-1=Carana'
p1415
I976
sS'advcl=seem'
p1416
I17
sS'w-1=-rrb-'
p1417
I962
sS'dobj=doorway'
p1418
I205
sS'nsubj=nationalist'
p1419
I430
sS'w+2=they'
p1420
I932
sS'w-2=remark'
p1421
I1367
sS'w-2=tape'
p1422
I1397
sS'w-2=year'
p1423
I1433
sS'w-2=register'
p1424
I1365
sS'nsubjpass=evangelical'
p1425
I504
sS'w-2=once'
p1426
I1336
sS'nsubjpass=Chinese'
p1427
I494
sS'dep=go'
p1428
I150
sS'w+2=ire'
p1429
I853
sS'prt=down'
p1430
I572
sS'nsubj=Mass'
p1431
I341
sS'advmod=how'
p1432
I42
sS'w-1=execution'
p1433
I1049
sS'w-2=start'
p1434
I1388
sS'advcl=show'
p1435
I18
sS'w+2=on-looker'
p1436
I880
sS'w+1=intervention'
p1437
I665
sS'w-1=we'
p1438
I1124
sS'nsubj=Zimbabwe'
p1439
I364
sS'csubj=defame'
p1440
I142
sS'w+1=such'
p1441
I718
sS'w-1=get'
p1442
I1058
sS'dobj=person'
p1443
I254
sS'w-1=increasingly'
p1444
I1067
sS'nsubj=Iran'
p1445
I334
sS'advmod=later'
p1446
I47
sS'w+2=.'
p1447
I751
sS'w+2=,'
p1448
I749
sS'w-1=often'
p1449
I1085
sS"w+2='"
p1450
I747
sS'poss=man'
p1451
I537
sS'w+2=group-b'
p1452
I840
sS'w+2=group-a'
p1453
I839
sS'w-1=what'
p1454
I1125
sS'advcl=sport'
p1455
I19
sS'w-1=map'
p1456
I1071
sS'w-1=may'
p1457
I1072
sS'w-1=at'
p1458
I1014
sS'w-2=NFL'
p1459
I1179
sS'w+2=big'
p1460
I789
sS'w+2=a'
p1461
I772
ssS'dtype'
p1462
cnumpy
float64
p1463
sS'feature_names_'
p1464
(lp1465
g168
ag917
ag238
ag62
ag1360
ag144
ag386
ag451
ag102
ag1271
ag1124
ag734
ag1333
ag237
ag383
ag586
ag994
ag1416
ag1435
ag1455
ag751
ag733
ag461
ag1350
ag1162
ag259
ag692
ag1298
ag1381
ag1231
ag559
ag1352
ag521
ag418
ag889
ag310
ag906
ag1117
ag1258
ag522
ag99
ag100
ag1432
ag827
ag705
ag848
ag375
ag1446
ag40
ag1232
ag1006
ag1275
ag409
ag464
ag761
ag1339
ag374
ag760
ag856
ag350
ag536
ag1173
ag1106
ag187
ag1094
ag317
ag838
ag106
ag1114
ag895
ag1326
ag56
ag1157
ag480
ag1194
ag1345
ag127
ag1081
ag401
ag965
ag1293
ag633
ag379
ag1121
ag298
ag1058
ag912
ag1154
ag1320
ag849
ag945
ag583
ag1263
ag1253
ag473
ag1088
ag73
ag478
ag1243
ag932
ag105
ag324
ag54
ag1283
ag1379
ag426
ag1156
ag746
ag1040
ag1084
ag1200
ag1242
ag151
ag787
ag683
ag254
ag411
ag1208
ag111
ag486
ag1125
ag677
ag998
ag880
ag641
ag1239
ag419
ag90
ag1091
ag777
ag1390
ag117
ag25
ag601
ag497
ag829
ag1025
ag562
ag1123
ag154
ag1382
ag91
ag1440
ag679
ag181
ag1202
ag603
ag847
ag1090
ag376
ag1428
ag1330
ag955
ag752
ag192
ag802
ag208
ag1219
ag1027
ag180
ag444
ag92
ag123
ag1363
ag220
ag391
ag413
ag275
ag894
ag730
ag711
ag1005
ag429
ag534
ag779
ag556
ag88
ag684
ag402
ag881
ag535
ag551
ag566
ag345
ag366
ag377
ag1147
ag589
ag382
ag900
ag305
ag179
ag1064
ag369
ag174
ag1212
ag245
ag1039
ag189
ag964
ag855
ag936
ag158
ag1152
ag75
ag1418
ag323
ag1086
ag68
ag48
ag578
ag232
ag1103
ag921
ag510
ag449
ag1233
ag915
ag1193
ag356
ag69
ag364
ag186
ag166
ag1110
ag988
ag517
ag477
ag623
ag101
ag446
ag505
ag703
ag741
ag1031
ag1029
ag1372
ag509
ag76
ag495
ag781
ag948
ag359
ag632
ag462
ag946
ag70
ag496
ag511
ag1349
ag590
ag1078
ag447
ag10
ag1443
ag1048
ag422
ag370
ag806
ag455
ag999
ag1385
ag205
ag171
ag225
ag1047
ag353
ag897
ag607
ag1257
ag442
ag1284
ag625
ag1010
ag161
ag1122
ag1402
ag840
ag133
ag1318
ag977
ag448
ag1282
ag1353
ag85
ag251
ag1160
ag825
ag770
ag1286
ag347
ag669
ag378
ag594
ag661
ag666
ag685
ag1387
ag19
ag432
ag873
ag1373
ag8
ag240
ag1413
ag1120
ag791
ag793
ag302
ag672
ag1186
ag207
ag693
ag340
ag602
ag844
ag861
ag252
ag771
ag196
ag1011
ag1362
ag1366
ag1175
ag929
ag1128
ag373
ag172
ag57
ag1378
ag1149
ag1191
ag368
ag169
ag1445
ag200
ag215
ag1184
ag160
ag1037
ag228
ag1431
ag1408
ag130
ag1207
ag416
ag950
ag1309
ag87
ag1071
ag774
ag858
ag1045
ag247
ag762
ag1131
ag315
ag904
ag558
ag1285
ag1327
ag1393
ag582
ag1403
ag1439
ag94
ag576
ag869
ag504
ag604
ag914
ag1044
ag1215
ag1059
ag1206
ag203
ag363
ag819
ag644
ag813
ag239
ag1302
ag1274
ag1161
ag748
ag927
ag983
ag1259
ag288
ag862
ag729
ag892
ag694
ag1107
ag321
ag742
ag357
ag430
ag800
ag319
ag424
ag546
ag901
ag1053
ag229
ag823
ag943
ag367
ag820
ag1036
ag141
ag270
ag1265
ag886
ag549
ag404
ag959
ag878
ag1331
ag1249
ag1332
ag1109
ag284
ag470
ag489
ag702
ag940
ag481
ag545
ag938
ag1419
ag403
ag1126
ag241
ag580
ag407
ag1229
ag258
ag776
ag969
ag816
ag121
ag1300
ag660
ag664
ag381
ag837
ag795
ag1358
ag159
ag910
ag851
ag1049
ag973
ag143
ag727
ag1344
ag318
ag51
ag925
ag815
ag458
ag907
ag384
ag14
ag95
ag503
ag954
ag468
ag1129
ag1348
ag332
ag724
ag18
ag1361
ag162
ag1073
ag98
ag277
ag1100
ag859
ag643
ag12
ag1118
ag804
ag388
ag598
ag809
ag890
ag22
ag893
ag997
ag871
ag1150
ag1427
ag112
ag758
ag13
ag875
ag1072
ag1057
ag985
ag1319
ag344
ag1425
ag821
ag931
ag46
ag1323
ag876
ag877
ag1250
ag433
ag1406
ag706
ag905
ag140
ag949
ag1359
ag1311
ag822
ag467
ag718
ag570
ag993
ag142
ag739
ag1411
ag569
ag1313
ag484
ag1177
ag805
ag1214
ag1014
ag199
ag789
ag1451
ag400
ag1312
ag614
ag313
ag320
ag1013
ag1394
ag1392
ag1085
ag1104
ag1101
ag223
ag152
ag680
ag1070
ag1218
ag678
ag763
ag1261
ag967
ag1377
ag163
ag976
ag439
ag110
ag460
ag801
ag415
ag1325
ag30
ag908
ag920
ag365
ag1266
ag1430
ag1205
ag285
ag1169
ag1222
ag555
ag1376
ag728
ag754
ag385
ag883
ag952
ag687
ag1340
ag688
ag689
ag775
ag282
ag37
ag1414
ag1022
ag78
ag294
ag690
ag1028
ag372
ag696
ag201
ag695
ag253
ag1003
ag654
ag1365
ag1163
ag1277
ag1168
ag828
ag354
ag246
ag204
ag548
ag1012
ag274
ag1247
ag753
ag116
ag579
ag947
ag1351
ag650
ag732
ag341
ag1317
ag600
ag1412
ag236
ag197
ag109
ag276
ag662
ag209
ag935
ag573
ag463
ag1251
ag300
ag1023
ag306
ag506
ag667
ag1301
ag1155
ag1321
ag1111
ag1187
ag1192
ag410
ag1307
ag659
ag767
ag135
ag491
ag342
ag450
ag577
ag653
ag1080
ag346
ag520
ag249
ag942
ag617
ag891
ag1437
ag958
ag970
ag250
ag863
ag899
ag1370
ag38
ag544
ag55
ag657
ag263
ag1061
ag61
ag210
ag1041
ag1241
ag1145
ag165
ag980
ag588
ag325
ag1262
ag44
ag47
ag722
ag336
ag735
ag1280
ag132
ag671
ag15
ag1135
ag709
ag185
ag66
ag466
ag922
ag335
ag525
ag11
ag266
ag456
ag1182
ag389
ag852
ag1288
ag290
ag975
ag1260
ag990
ag1367
ag267
ag1441
ag307
ag330
ag1190
ag519
ag65
ag857
ag351
ag1001
ag786
ag150
ag516
ag652
ag723
ag788
ag501
ag613
ag453
ag710
ag1217
ag1079
ag271
ag222
ag508
ag293
ag193
ag865
ag608
ag115
ag1450
ag1315
ag1448
ag1371
ag1447
ag234
ag1195
ag1342
ag114
ag322
ag864
ag670
ag1056
ag1228
ag352
ag1230
ag634
ag1009
ag933
ag691
ag620
ag1196
ag674
ag257
ag638
ag1461
ag624
ag1397
ag1112
ag853
ag137
ag1347
ag882
ag1375
ag1223
ag35
ag1067
ag1076
ag167
ag1146
ag1042
ag360
ag1460
ag934
ag1335
ag348
ag16
ag1144
ag978
ag567
ag1083
ag24
ag720
ag930
ag1063
ag1026
ag1278
ag971
ag1097
ag488
ag129
ag1343
ag328
ag743
ag1137
ag557
ag916
ag173
ag217
ag79
ag1054
ag283
ag1102
ag529
ag412
ag333
ag1035
ag1338
ag260
ag421
ag1043
ag944
ag9
ag798
ag235
ag1269
ag425
ag697
ag1273
ag80
ag1357
ag268
ag1453
ag1452
ag291
ag178
ag41
ag303
ag309
ag737
ag818
ag396
ag663
ag647
ag1007
ag74
ag1429
ag550
ag773
ag574
ag810
ag986
ag26
ag1221
ag1172
ag799
ag668
ag542
ag814
ag494
ag221
ag164
ag1197
ag1183
ag1065
ag898
ag216
ag796
ag157
ag1252
ag845
ag1004
ag1255
ag1436
ag1404
ag1384
ag539
ag475
ag1303
ag146
ag190
ag343
ag93
ag1235
ag686
ag563
ag289
ag361
ag1198
ag1000
ag1380
ag393
ag83
ag213
ag766
ag606
ag830
ag502
ag1364
ag731
ag631
ag492
ag31
ag53
ag49
ag1237
ag622
ag1159
ag1165
ag1033
ag867
ag337
ag928
ag472
ag581
ag1407
ag273
ag134
ag17
ag646
ag96
ag1051
ag989
ag1391
ag1030
ag1420
ag202
ag406
ag736
ag443
ag329
ag619
ag1087
ag128
ag139
ag437
ag609
ag1199
ag956
ag311
ag879
ag750
ag1297
ag778
ag428
ag32
ag996
ag1240
ag698
ag636
ag255
ag868
ag850
ag1401
ag1400
ag1417
ag1399
ag1113
ag596
ag597
ag713
ag1140
ag1395
ag1398
ag482
ag219
ag715
ag673
ag1066
ag1415
ag1268
ag655
ag1201
ag1141
ag1174
ag681
ag304
ag1291
ag797
ag1405
ag36
ag34
ag1092
ag292
ag23
ag103
ag887
ag211
ag833
ag224
ag380
ag1336
ag642
ag1216
ag513
ag1069
ag745
ag1410
ag765
ag1130
ag218
ag71
ag1019
ag537
ag518
ag1179
ag1136
ag1458
ag541
ag1096
ag772
ag554
ag1116
ag987
ag1034
ag1077
ag261
ag592
ag843
ag1329
ag1115
ag1211
ag834
ag1098
ag499
ag145
ag1180
ag1068
ag966
ag1337
ag58
ag605
ag1148
ag839
ag507
ag138
ag170
ag265
ag331
ag675
ag29
ag269
ag1433
ag714
ag316
ag427
ag119
ag1062
ag1020
ag1139
ag595
ag1442
ag1209
ag405
ag747
ag395
ag656
ag1226
ag1236
ag785
ag1444
ag28
ag780
ag487
ag1456
ag1457
ag176
ag1354
ag757
ag1151
ag626
ag784
ag1075
ag1074
ag262
ag995
ag256
ag903
ag1449
ag941
ag1143
ag992
ag155
ag1245
ag1296
ag764
ag59
ag358
ag547
ag1246
ag1264
ag394
ag188
ag1267
ag1409
ag645
ag20
ag1270
ag97
ag572
ag493
ag45
ag438
ag420
ag584
ag768
ag423
ag896
ag700
ag790
ag299
ag301
ag118
ag982
ag523
ag122
ag113
ag1438
ag1454
ag1134
ag585
ag33
ag1306
ag1292
ag719
ag593
ag60
ag979
ag885
ag627
ag628
ag1305
ag629
ag120
ag961
ag43
ag264
ag621
ag183
ag721
ag440
ag707
ag616
ag1210
ag1138
ag1290
ag984
ag1294
ag543
ag515
ag465
ag618
ag108
ag1248
ag243
ag177
ag89
ag1093
ag564
ag637
ag923
ag1289
ag148
ag960
ag50
ag1238
ag1158
ag296
ag854
ag435
ag125
ag1204
ag1459
ag153
ag526
ag759
ag84
ag1334
ag874
ag532
ag981
ag1341
ag1024
ag968
ag803
ag591
ag514
ag575
ag387
ag832
ag1171
ag1224
ag498
ag565
ag1153
ag476
ag888
ag648
ag649
ag824
ag471
ag414
ag1108
ag1189
ag1213
ag1346
ag512
ag278
ag561
ag214
ag408
ag280
ag272
ag1227
ag726
ag334
ag918
ag1017
ag571
ag826
ag184
ag1355
ag490
ag1256
ag212
ag717
ag1356
ag1314
ag699
ag587
ag355
ag182
ag1299
ag1176
ag242
ag338
ag553
ag792
ag651
ag1304
ag1032
ag434
ag1203
ag1310
ag913
ag233
ag1374
ag568
ag926
ag474
ag611
ag1105
ag639
ag1281
ag866
ag436
ag1133
ag953
ag1396
ag281
ag124
ag1244
ag599
ag1142
ag1095
ag1178
ag231
ag756
ag485
ag206
ag538
ag708
ag682
ag1276
ag314
ag1060
ag610
ag297
ag1220
ag326
ag817
ag349
ag479
ag194
ag782
ag1089
ag1225
ag937
ag244
ag287
ag398
ag640
ag149
ag226
ag441
ag72
ag312
ag230
ag390
ag676
ag77
ag1015
ag540
ag1188
ag1002
ag528
ag527
ag195
ag701
ag1018
ag392
ag738
ag1021
ag1272
ag1170
ag500
ag831
ag1082
ag872
ag1055
ag21
ag81
ag1132
ag1324
ag974
ag1016
ag811
ag835
ag812
ag1426
ag1038
ag755
ag783
ag1046
ag808
ag86
ag1316
ag295
ag962
ag846
ag704
ag286
ag530
ag552
ag919
ag1181
ag39
ag175
ag924
ag1164
ag836
ag665
ag52
ag1308
ag1322
ag957
ag399
ag1295
ag1424
ag1279
ag1421
ag63
ag1119
ag712
ag884
ag107
ag1389
ag963
ag431
ag371
ag1383
ag769
ag1185
ag1386
ag794
ag740
ag951
ag156
ag1287
ag630
ag860
ag1434
ag533
ag1166
ag749
ag1254
ag1234
ag1328
ag841
ag459
ag1422
ag483
ag1127
ag531
ag911
ag67
ag64
ag909
ag1099
ag635
ag807
ag279
ag104
ag560
ag615
ag136
ag716
ag308
ag126
ag842
ag417
ag1368
ag1388
ag939
ag725
ag397
ag445
ag227
ag469
ag902
ag42
ag1369
ag1008
ag131
ag454
ag198
ag1423
ag327
ag339
ag972
ag612
ag1050
ag452
ag248
ag991
ag82
ag744
ag362
ag27
ag457
ag1167
ag147
ag191
ag1052
ag658
ag524
ag870
asS'separator'
p1466
S'='
sS'sparse'
p1467
I01
sb.