ccopy_reg
_reconstructor
p1
(csklearn.feature_extraction.dict_vectorizer
DictVectorizer
p2
c__builtin__
object
p3
NtRp4
(dp5
S'sort'
p6
I01
sS'feature_names_'
p7
(lp8
S'advcl=be'
p9
aS'advcl=refuse'
p10
aS'advcl=throw'
p11
aS'advmod=already'
p12
aS'advmod=away'
p13
aS'advmod=completely'
p14
aS'advmod=that'
p15
aS'advmod=when'
p16
aS'aux=be'
p17
aS'aux=can'
p18
aS'aux=could'
p19
aS'aux=have'
p20
aS'aux=to'
p21
aS'auxpass=be'
p22
aS'cc=and'
p23
aS'cc=but'
p24
aS'ccomp=say'
p25
aS'ccomp=wound'
p26
aS'conj=set'
p27
aS'conj=throw'
p28
aS'dobj=#NUMBER#'
p29
aS'dobj=both'
p30
aS'dobj=economy'
p31
aS'dobj=event'
p32
aS'dobj=glass'
p33
aS'dobj=hope'
p34
aS'dobj=illusion'
p35
aS'dobj=image'
p36
aS'dobj=myth'
p37
aS'dobj=nation'
p38
aS'dobj=peace'
p39
aS'dobj=perception'
p40
aS'dobj=record'
p41
aS'dobj=sense'
p42
aS'dobj=window'
p43
aS'dobj=wrist'
p44
aS'mark=after'
p45
aS'mark=as'
p46
aS'mark=because'
p47
aS'mark=while'
p48
aS'nsubj=#PRP#'
p49
aS'nsubj=bid'
p50
aS'nsubj=blast'
p51
aS'nsubj=country'
p52
aS'nsubj=explosion'
p53
aS'nsubj=life'
p54
aS'nsubj=violence'
p55
aS'nsubj=year'
p56
aS'nsubjpass=and'
p57
aS'nsubjpass=home'
p58
aS'nsubjpass=hope'
p59
aS'nsubjpass=infrastructure'
p60
aS'nsubjpass=that'
p61
aS'nsubjpass=tranquility'
p62
aS'nsubjpass=which'
p63
aS'nsubjpass=window'
p64
aS'nsubjpass=windshield'
p65
aS'prep=after'
p66
aS'prep=as'
p67
aS'prep=by'
p68
aS'prep=during'
p69
aS'prep=for'
p70
aS'prep=in'
p71
aS'prep=on'
p72
aS'prep=that'
p73
aS'w+1=,'
p74
aS'w+1=.'
p75
aS'w+1=Malaysia'
p76
aS'w+1=a'
p77
aS'w+1=and'
p78
aS'w+1=any'
p79
aS'w+1=both'
p80
aS'w+1=by'
p81
aS'w+1=during'
p82
aS'w+1=economy'
p83
aS'w+1=event'
p84
aS'w+1=glass'
p85
aS'w+1=in'
p86
aS'w+1=infrastructure'
p87
aS'w+1=life'
p88
aS'w+1=myth'
p89
aS'w+1=previous'
p90
aS'w+1=province'
p91
aS'w+1=relationship'
p92
aS'w+1=she'
p93
aS'w+1=spanish'
p94
aS'w+1=that'
p95
aS'w+1=the'
p96
aS'w+1=those'
p97
aS'w+1=when'
p98
aS'w+1=window'
p99
aS"w+2=''"
p100
aS"w+2='s"
p101
aS'w+2=.'
p102
aS'w+2=and'
p103
aS'w+2=bruise'
p104
aS'w+2=bus'
p105
aS'w+2=country'
p106
aS'w+2=decade'
p107
aS'w+2=glass'
p108
aS'w+2=grow'
p109
aS'w+2=hope'
p110
aS'w+2=hundred'
p111
aS'w+2=illusion'
p112
aS'w+2=in'
p113
aS'w+2=nation'
p114
aS'w+2=nearby'
p115
aS'w+2=never'
p116
aS'w+2=of'
p117
aS'w+2=perception'
p118
aS'w+2=political'
p119
aS'w+2=quarterback'
p120
aS'w+2=record'
p121
aS'w+2=relative'
p122
aS'w+2=six'
p123
aS'w+2=some'
p124
aS'w+2=the'
p125
aS'w+2=they'
p126
aS'w+2=window'
p127
aS'w+2=would'
p128
aS'w+2=wrist'
p129
aS'w+2=young'
p130
aS"w-1='s"
p131
aS'w-1=,'
p132
aS'w-1=House'
p133
aS'w-1=already'
p134
aS'w-1=and'
p135
aS'w-1=at'
p136
aS'w-1=attack'
p137
aS'w-1=be'
p138
aS'w-1=blast'
p139
aS'w-1=can'
p140
aS'w-1=completely'
p141
aS'w-1=could'
p142
aS'w-1=country'
p143
aS'w-1=dream'
p144
aS'w-1=explosion'
p145
aS'w-1=have'
p146
aS'w-1=it'
p147
aS'w-1=of'
p148
aS'w-1=restore'
p149
aS'w-1=she'
p150
aS'w-1=skyscraper'
p151
aS'w-1=the'
p152
aS'w-1=they'
p153
aS'w-1=to'
p154
aS'w-1=violence'
p155
aS'w-1=war'
p156
aS'w-1=while'
p157
aS'w-1=window'
p158
aS"w-2='s"
p159
aS'w-2=,'
p160
aS'w-2=Clinton'
p161
aS'w-2=White'
p162
aS'w-2=Zimbabwe'
p163
aS'w-2=a'
p164
aS'w-2=after'
p165
aS'w-2=aim'
p166
aS'w-2=and'
p167
aS'w-2=around'
p168
aS'w-2=assumption'
p169
aS'w-2=be'
p170
aS'w-2=because'
p171
aS'w-2=blast'
p172
aS'w-2=civil'
p173
aS'w-2=friend'
p174
aS'w-2=gleaming'
p175
aS'w-2=have'
p176
aS'w-2=hope'
p177
aS'w-2=its'
p178
aS'w-2=life'
p179
aS'w-2=metal'
p180
aS'w-2=million'
p181
aS'w-2=of'
p182
aS'w-2=rebuild'
p183
aS'w-2=region'
p184
aS'w-2=say'
p185
aS'w-2=series'
p186
aS'w-2=that'
p187
aS'w-2=the'
p188
aS'w-2=tranquility'
p189
aS'w-2=try'
p190
aS'w-2=we'
p191
aS'w-2=which'
p192
aS'w-2=window'
p193
asS'dtype'
p194
cnumpy
float64
p195
sS'vocabulary_'
p196
(dp197
g133
I124
sg150
I141
sg51
I42
sg59
I50
sg65
I56
sg163
I154
sg91
I82
sg191
I182
sg50
I41
sg26
I17
sg40
I31
sg192
I183
sg184
I175
sg128
I119
sg55
I46
sg179
I170
sg105
I96
sg61
I52
sg112
I103
sg103
I94
sg113
I104
sg73
I64
sg41
I32
sg11
I2
sg80
I71
sg182
I173
sg32
I23
sg148
I139
sg27
I18
sg154
I145
sg168
I159
sg68
I59
sg156
I147
sg167
I158
sg114
I105
sg151
I142
sg95
I86
sg39
I30
sg76
I67
sg94
I85
sg87
I78
sg79
I70
sg57
I48
sg190
I181
sg181
I172
sg14
I5
sg30
I21
sg48
I39
sg140
I131
sg92
I83
sg90
I81
sg137
I128
sg174
I165
sg155
I146
sg12
I3
sg185
I176
sg58
I49
sg141
I132
sg125
I116
sg175
I166
sg104
I95
sg160
I151
sg180
I171
sg189
I180
sg20
I11
sg116
I107
sg138
I129
sg89
I80
sg145
I136
sg132
I123
sg188
I179
sg60
I51
sg93
I84
sg64
I55
sg122
I113
sg83
I74
sg85
I76
sg88
I79
sg166
I157
sg47
I38
sg106
I97
sg28
I19
sg16
I7
sg15
I6
sg110
I101
sg164
I155
sg153
I144
sg70
I61
sg130
I121
sg146
I137
sg25
I16
sg144
I135
sg33
I24
sg178
I169
sg100
I91
sg52
I43
sg46
I37
sg177
I168
sg24
I15
sg82
I73
sg84
I75
sg142
I133
sg22
I13
sg18
I9
sg108
I99
sg131
I122
sg126
I117
sg66
I57
sg123
I114
sg53
I44
sg176
I167
sg129
I120
sg23
I14
sg9
I0
sg186
I177
sg10
I1
sg187
I178
sg96
I87
sg81
I72
sg21
I12
sg101
I92
sg97
I88
sg107
I98
sg67
I58
sg134
I125
sg35
I26
sg71
I62
sg124
I115
sg86
I77
sg43
I34
sg99
I90
sg173
I164
sg49
I40
sg120
I111
sg54
I45
sg169
I160
sg34
I25
sg98
I89
sg115
I106
sg13
I4
sg31
I22
sg119
I110
sg171
I162
sg139
I130
sg121
I112
sg118
I109
sg29
I20
sg78
I69
sg19
I10
sg74
I65
sg75
I66
sg117
I108
sg36
I27
sg102
I93
sg165
I156
sg162
I153
sg56
I47
sg161
I152
sg158
I149
sg69
I60
sg147
I138
sg135
I126
sg37
I28
sg44
I35
sg149
I140
sg143
I134
sg193
I184
sg109
I100
sg38
I29
sg127
I118
sg77
I68
sg170
I161
sg157
I148
sg111
I102
sg136
I127
sg152
I143
sg72
I63
sg183
I174
sg45
I36
sg17
I8
sg42
I33
sg63
I54
sg62
I53
sg172
I163
sg159
I150
ssS'separator'
p198
S'='
sS'sparse'
p199
I01
sb.