ccopy_reg
_reconstructor
p1
(csklearn.feature_extraction.dict_vectorizer
DictVectorizer
p2
c__builtin__
object
p3
NtRp4
(dp5
S'vocabulary_'
p6
(dp7
S'dobj=stuff'
p8
I76
sS'w-2=negotiation'
p9
I301
sS'prep=before'
p10
I118
sS'nsubj=Falwell'
p11
I90
sS'w-2=cabinet'
p12
I284
sS'w-2=mean'
p13
I299
sS'tmod=week'
p14
I126
sS'advcl=lose'
p15
I7
sS'dobj=teaching'
p16
I78
sS'w+1=earlier'
p17
I141
sS'w-2=media'
p18
I300
sS'ccomp=hold'
p19
I40
sS'w-2=refuse'
p20
I311
sS'w+2=unless'
p21
I218
sS'conj=join'
p22
I46
sS'w-2=Eitan'
p23
I267
sS'w-2=people'
p24
I307
sS'w+2=prime'
p25
I207
sS'dep=say'
p26
I53
sS'nsubj=Defrino'
p27
I88
sS'w-2=she'
p28
I314
sS'w+2=November'
p29
I175
sS'w-1=but'
p30
I239
sS'w-2=abuse'
p31
I277
sS'w+1=because'
p32
I138
sS'advcl=quote'
p33
I10
sS'dobj=smoking'
p34
I74
sS"w+2='s"
p35
I166
sS'w+1=negotiation'
p36
I146
sS'w-2=smoker'
p37
I315
sS'w-1=be'
p38
I238
sS'w-2=Adrienne'
p39
I263
sS'advmod=well'
p40
I24
sS'w+2=they'
p41
I216
sS'conj=unite'
p42
I51
sS'w+2=cabinet'
p43
I186
sS'w+1=over'
p44
I149
sS'w-2=when'
p45
I326
sS'w-1=who'
p46
I259
sS'w-1=Hammer'
p47
I226
sS'dobj=race'
p48
I71
sS'w+2=post'
p49
I205
sS'w+2=side'
p50
I212
sS'w+2=,'
p51
I167
sS'xcomp=take'
p52
I334
sS'w-1=Pyongyang'
p53
I229
sS'dobj=cabinet'
p54
I58
sS'w-2=just'
p55
I298
sS'xcomp=argue'
p56
I329
sS'w+2=this'
p57
I217
sS'w+2=Army'
p58
I170
sS'dobj=campaign'
p59
I59
sS'prep=among'
p60
I115
sS'w+1=work'
p61
I164
sS'w+2=ppp-led'
p62
I206
sS'w-2=have'
p63
I293
sS'w-1=smoker'
p64
I255
sS'w+2=region'
p65
I209
sS'w-2=adviser'
p66
I278
sS'w-2=they'
p67
I319
sS'advcl=elect'
p68
I4
sS'w+2=ruling'
p69
I211
sS'prep=by'
p70
I119
sS'w+2=and'
p71
I179
sS'tmod=#DATE#'
p72
I124
sS'w+2=report'
p73
I210
sS'nsubj=aide'
p74
I97
sS'w-1=,'
p75
I221
sS'w-2=decade'
p76
I288
sS'w-2=offer'
p77
I303
sS'w-2=Mugabe'
p78
I271
sS'w-1=Falwell'
p79
I224
sS'w+2=Uri'
p80
I177
sS'w-2=israeli'
p81
I297
sS'advcl=meet'
p82
I9
sS'dobj=coalition'
p83
I60
sS'w-1=should'
p84
I254
sS'partmod=continue'
p85
I112
sS'dobj=school'
p86
I73
sS'w+1=domestic'
p87
I139
sS'dobj=job'
p88
I64
sS'w+2=Olmert'
p89
I176
sS'w-2=.'
p90
I262
sS'w+2=army'
p91
I183
sS'cop=be'
p92
I52
sS'w-1=they'
p93
I257
sS'dobj=panel'
p94
I67
sS'advmod=how'
p95
I19
sS'aux=do'
p96
I30
sS'dobj=negotiation'
p97
I66
sS'w-2=he'
p98
I294
sS'cc=or'
p99
I38
sS'dobj=drinking'
p100
I61
sS'dobj=wing'
p101
I81
sS'w-1=aide'
p102
I233
sS'appos=Charlene'
p103
I27
sS'aux=will'
p104
I35
sS'dobj=Majority'
p105
I55
sS'w+1=drinking'
p106
I140
sS'w-2=say'
p107
I313
sS'w+2=Cabinet'
p108
I171
sS'w+2=well'
p109
I219
sS'w-2=course'
p110
I287
sS'advmod=just'
p111
I20
sS'w-1=and'
p112
I236
sS'nsubj=Spielberg'
p113
I96
sS'prep=at'
p114
I117
sS'w+1=in'
p115
I143
sS'prep=as'
p116
I116
sS'w-1=will'
p117
I260
sS'w-2=I'
p118
I269
sS'w-1=or'
p119
I251
sS'nsubj=people'
p120
I106
sS'advcl=restart'
p121
I12
sS'w+1=he'
p122
I142
sS'w+2=military'
p123
I198
sS'nsubj=panel'
p124
I104
sS'partmod=contend'
p125
I111
sS'aux=have'
p126
I31
sS'w-1=Cabel'
p127
I223
sS'w-2=but'
p128
I283
sS'nsubj=Griffen'
p129
I91
sS'dobj=post'
p130
I70
sS'w+2=argue'
p131
I182
sS'dobj=Kolkata'
p132
I54
sS'nsubj=Pyongyang'
p133
I95
sS'w+2=Moral'
p134
I174
sS'partmod=say'
p135
I113
sS'w-2=Defrino'
p136
I266
sS'advcl=diagnose'
p137
I3
sS'w-2=Sadrist'
p138
I274
sS'w+1=rebel-held'
p139
I150
sS'w-2=high'
p140
I296
sS'w+1=she'
p141
I153
sS'w+2=game'
p142
I191
sS'w-2=time'
p143
I321
sS'w-2=president'
p144
I310
sS'nsubj=leader'
p145
I100
sS'w-2=worker'
p146
I328
sS'dobj=talk'
p147
I77
sS'advmod=soon'
p148
I23
sS'w-1=consider'
p149
I240
sS'advcl=believe'
p150
I1
sS'nsubj=Hammer'
p151
I92
sS'nsubj=Palestinians'
p152
I94
sS'w-1=Maoists'
p153
I228
sS'w-2=other'
p154
I305
sS'w+2=Charlene'
p155
I172
sS'w+1=NATO'
p156
I135
sS'w-2=point'
p157
I309
sS'w-1=I'
p158
I227
sS'aux=should'
p159
I33
sS'advmod=when'
p160
I25
sS'nsubj=Downer'
p161
I89
sS'advcl=run'
p162
I14
sS'w+2=Friday'
p163
I173
sS'w+1=on'
p164
I147
sS'advcl=restore'
p165
I13
sS'w-2=decide'
p166
I289
sS'nsubj=minister'
p167
I102
sS'w-1=Service'
p168
I230
sS'w+1=or'
p169
I148
sS'nsubj=Cabel'
p170
I86
sS'w+2=because'
p171
I185
sS'xcomp=support'
p172
I333
sS'w-1=have'
p173
I242
sS'w-2=believe'
p174
I281
sS'w+1=time'
p175
I162
sS'w-1=Spielberg'
p176
I231
sS'w-1=after'
p177
I232
sS'w+2=if'
p178
I194
sS'w+1=stall'
p179
I155
sS'w+2=when'
p180
I220
sS'w+1=just'
p181
I144
sS'w-1=no'
p182
I249
sS"w+2=''"
p183
I165
sS'advcl=want'
p184
I15
sS'w-1=he'
p185
I243
sS'nsubj=media'
p186
I101
sS'w+2=four'
p187
I190
sS'nsubj=reporter'
p188
I108
sS'dobj=game'
p189
I62
sS'dobj=army'
p190
I57
sS'w-1=panel'
p191
I252
sS'nsubj=call'
p192
I98
sS'w+1=talk'
p193
I158
sS'w-2=such'
p194
I316
sS'dobj=life'
p195
I65
sS'aux=can'
p196
I29
sS'complm=that'
p197
I41
sS'w-1=staffer'
p198
I256
sS'dobj=sport'
p199
I75
sS'complm=whether'
p200
I42
sS'tmod=month'
p201
I125
sS'dobj=area'
p202
I56
sS'w+2=government'
p203
I192
sS'prep=after'
p204
I114
sS'w-1=party'
p205
I253
sS'w-2=we'
p206
I324
sS'w+2=race'
p207
I208
sS'w-2=call'
p208
I285
sS'conj=accept'
p209
I43
sS'advcl=demand'
p210
I2
sS'w-2=to'
p211
I322
sS'prep=to'
p212
I123
sS'w+2=job'
p213
I196
sS'cc=and'
p214
I36
sS'nsubj=challenger'
p215
I99
sS'w-2=relax'
p216
I312
sS'dobj=region'
p217
I72
sS'w-2=Steven'
p218
I276
sS'w-1=almost'
p219
I235
sS'nsubj=president'
p220
I107
sS'w+2=the'
p221
I214
sS'w+1=the'
p222
I160
sS'w+2=interim'
p223
I195
sS'advmod=almost'
p224
I18
sS'w-2=News'
p225
I272
sS'w-1=just'
p226
I246
sS'w+2=politics'
p227
I204
sS'xcomp=protest'
p228
I330
sS'advcl=make'
p229
I8
sS'w+1=last'
p230
I145
sS'aux=to'
p231
I34
sS'w+1=they'
p232
I161
sS'w-2=Huckabee'
p233
I268
sS'w-2=both'
p234
I282
sS'w+2=artistic'
p235
I184
sS'advmod=why'
p236
I26
sS'w-2=oblige'
p237
I302
sS'w+1=Kolkata'
p238
I133
sS'conj=resign'
p239
I49
sS'w-2=threaten'
p240
I320
sS'conj=move'
p241
I48
sS'prep=in'
p242
I120
sS'advmod=maybe'
p243
I22
sS'nsubj=patient'
p244
I105
sS'w+2=month'
p245
I199
sS'tmod=year'
p246
I127
sS'w-2=be'
p247
I280
sS'w-2=excuse'
p248
I291
sS'w+2=panel'
p249
I202
sS'w-2=Sarah'
p250
I275
sS'nsubj=#PRP#'
p251
I85
sS'w+2=peace'
p252
I203
sS'w+2=move'
p253
I200
sS'w-2=Moqtada'
p254
I270
sS'w+2=sport'
p255
I213
sS'nsubj=Maoists'
p256
I93
sS'w-2=top'
p257
I323
sS'w-2=weekday'
p258
I325
sS'w-2=help'
p259
I295
sS'w+1=when'
p260
I163
sS'w+2=life'
p261
I197
sS'w-1=as'
p262
I237
sS'conj=leave'
p263
I47
sS'w+2=any'
p264
I180
sS'cc=but'
p265
I37
sS'advcl=back'
p266
I0
sS'advcl=re-elected'
p267
I11
sS'w+1=support'
p268
I156
sS'nsubj=Clinton'
p269
I87
sS'advcl=go'
p270
I6
sS'w-2=America'
p271
I264
sS'prep=over'
p272
I122
sS'w+1=smoking'
p273
I154
sS'w-2=after'
p274
I279
sS'advmod=ago'
p275
I17
sS'w+1=as'
p276
I137
sS'w-1=either'
p277
I241
sS'w+1=!'
p278
I128
sS'w+2=even'
p279
I188
sS'dobj=work'
p280
I82
sS'w-2=will'
p281
I327
sS'w+2=?'
p282
I169
sS"w+1='"
p283
I129
sS'w-2=ought'
p284
I306
sS'advmod=later'
p285
I21
sS'w+1=,'
p286
I130
sS'dobj=government'
p287
I63
sS'w+1=.'
p288
I131
sS'nsubj=who'
p289
I110
sS'dobj=party'
p290
I68
sS'xcomp=stall'
p291
I331
sS'w+2=.'
p292
I168
sS'ccomp=continue'
p293
I39
sS'w+2=for'
p294
I189
sS'w-2=pledge'
p295
I308
sS'neg=not'
p296
I84
sS'nsubj=offer'
p297
I103
sS'w-2=,'
p298
I261
sS'w-1=to'
p299
I258
sS'w-1=it'
p300
I245
sS'aux=must'
p301
I32
sS'w+1=take'
p302
I157
sS'w+2=he'
p303
I193
sS'w+2=campaign'
p304
I187
sS'dobj=politics'
p305
I69
sS'dobj=way'
p306
I79
sS'w-2=Palestinians'
p307
I273
sS'w-1=Griffen'
p308
I225
sS'w+1=school'
p309
I152
sS'conj=eat'
p310
I44
sS'advmod=after'
p311
I16
sS'conj=enable'
p312
I45
sS'w+1=Mr.'
p313
I134
sS'w-2=do'
p314
I290
sS'dobj=which'
p315
I80
sS'w-1=--'
p316
I222
sS'w+2=these'
p317
I215
sS'w-1=in'
p318
I244
sS'w-2=the'
p319
I318
sS'w+2=area'
p320
I181
sS'conj=start'
p321
I50
sS'w+1=a'
p322
I136
sS'w+1=teaching'
p323
I159
sS'w-1=not'
p324
I250
sS'advcl=extend'
p325
I5
sS'w-2=supporter'
p326
I317
sS'w-1=must'
p327
I248
sS'w-2=opportunity'
p328
I304
sS'w+1=report'
p329
I151
sS'nsubj=smoker'
p330
I109
sS'w+2=nasty'
p331
I201
sS'prep=on'
p332
I121
sS'mark=after'
p333
I83
sS'w-2=force'
p334
I292
sS'aux=be'
p335
I28
sS'w-1=al-Sadr'
p336
I234
sS'xcomp=stay'
p337
I332
sS'w-1=minister'
p338
I247
sS'w-2=Clinton'
p339
I265
sS'w-2=can'
p340
I286
sS'w+2=a'
p341
I178
sS'w+1=Israel'
p342
I132
ssS'dtype'
p343
cnumpy
float64
p344
sS'feature_names_'
p345
(lp346
g266
ag150
ag210
ag137
ag68
ag325
ag270
ag15
ag229
ag82
ag33
ag267
ag121
ag165
ag162
ag184
ag311
ag275
ag224
ag95
ag111
ag285
ag243
ag148
ag40
ag160
ag236
ag103
ag335
ag196
ag96
ag126
ag301
ag159
ag231
ag104
ag214
ag265
ag99
ag293
ag19
ag197
ag200
ag209
ag310
ag312
ag22
ag263
ag241
ag239
ag321
ag42
ag92
ag26
ag132
ag105
ag202
ag190
ag54
ag59
ag83
ag100
ag189
ag287
ag88
ag195
ag97
ag94
ag290
ag305
ag130
ag48
ag217
ag86
ag34
ag199
ag8
ag147
ag16
ag306
ag315
ag101
ag280
ag333
ag296
ag251
ag170
ag269
ag27
ag161
ag11
ag129
ag151
ag256
ag152
ag133
ag113
ag74
ag192
ag215
ag145
ag186
ag167
ag297
ag124
ag244
ag120
ag220
ag188
ag330
ag289
ag125
ag85
ag135
ag204
ag60
ag116
ag114
ag10
ag70
ag242
ag332
ag272
ag212
ag72
ag201
ag14
ag246
ag278
ag283
ag286
ag288
ag342
ag238
ag313
ag156
ag322
ag276
ag32
ag87
ag106
ag17
ag122
ag115
ag181
ag230
ag36
ag164
ag169
ag44
ag139
ag329
ag309
ag141
ag273
ag179
ag268
ag302
ag193
ag323
ag222
ag232
ag175
ag260
ag61
ag183
ag35
ag51
ag292
ag282
ag58
ag108
ag155
ag163
ag134
ag29
ag89
ag80
ag341
ag71
ag264
ag320
ag131
ag91
ag235
ag171
ag43
ag304
ag279
ag294
ag187
ag142
ag203
ag303
ag178
ag223
ag213
ag261
ag123
ag245
ag253
ag331
ag249
ag252
ag227
ag49
ag62
ag25
ag207
ag65
ag73
ag69
ag50
ag255
ag221
ag317
ag41
ag57
ag21
ag109
ag180
ag75
ag316
ag127
ag79
ag308
ag47
ag158
ag153
ag53
ag168
ag176
ag177
ag102
ag336
ag219
ag112
ag262
ag38
ag30
ag149
ag277
ag173
ag185
ag318
ag300
ag226
ag338
ag327
ag182
ag324
ag119
ag191
ag205
ag84
ag64
ag198
ag93
ag299
ag46
ag117
ag298
ag90
ag39
ag271
ag339
ag136
ag23
ag233
ag118
ag254
ag78
ag225
ag307
ag138
ag250
ag218
ag31
ag66
ag274
ag247
ag174
ag234
ag128
ag12
ag208
ag340
ag110
ag76
ag166
ag314
ag248
ag334
ag63
ag98
ag259
ag140
ag81
ag55
ag13
ag18
ag9
ag237
ag77
ag328
ag154
ag284
ag24
ag295
ag157
ag144
ag20
ag216
ag107
ag28
ag37
ag194
ag326
ag319
ag67
ag240
ag143
ag211
ag257
ag206
ag258
ag45
ag281
ag146
ag56
ag228
ag291
ag337
ag172
ag52
asS'separator'
p347
S'='
sS'sparse'
p348
I01
sb.