ccopy_reg
_reconstructor
p1
(csklearn.feature_extraction.dict_vectorizer
DictVectorizer
p2
c__builtin__
object
p3
NtRp4
(dp5
S'sort'
p6
I01
sS'feature_names_'
p7
(lp8
S'advcl=understand'
p9
aS'advmod=already'
p10
aS'advmod=just'
p11
aS'advmod=much'
p12
aS'advmod=really'
p13
aS'advmod=why'
p14
aS'aux=be'
p15
aS'aux=do'
p16
aS'aux=should'
p17
aS'aux=to'
p18
aS'auxpass=be'
p19
aS'cc=and'
p20
aS'cc=but'
p21
aS'ccomp=share'
p22
aS'complm=that'
p23
aS'conj=blame'
p24
aS'conj=hate'
p25
aS'conj=honor'
p26
aS'dep=much'
p27
aS'dep=tell'
p28
aS'dep=try'
p29
aS'det=those'
p30
aS'dobj=#NUMBER#'
p31
aS'dobj=#PRP#'
p32
aS'dobj=America'
p33
aS'dobj=Bush'
p34
aS'dobj=Islam'
p35
aS'dobj=Musharraf'
p36
aS'dobj=Music'
p37
aS'dobj=Russia'
p38
aS'dobj=Russians'
p39
aS'dobj=abortion'
p40
aS'dobj=action'
p41
aS'dobj=buying'
p42
aS'dobj=crime'
p43
aS'dobj=dictator'
p44
aS'dobj=enemy'
p45
aS'dobj=people'
p46
aS'neg=not'
p47
aS'nsubj=#PRP#'
p48
aS'nsubj=extremist'
p49
aS'nsubj=hate'
p50
aS'nsubj=party'
p51
aS'nsubj=who'
p52
aS'nsubjpass=#PRP#'
p53
aS'num=#NUMBER#'
p54
aS'parataxis=launch'
p55
aS'prep=about'
p56
aS'prep=as'
p57
aS'prep=at'
p58
aS'prep=because'
p59
aS'prep=by'
p60
aS'prep=from'
p61
aS'prep=in'
p62
aS'prep=on'
p63
aS'prep=with'
p64
aS'rcmod=do'
p65
aS'w+1=,'
p66
aS'w+1=.'
p67
aS'w+1=;'
p68
aS'w+1=America'
p69
aS'w+1=Islam'
p70
aS'w+1=Musharraf'
p71
aS'w+1=Muslims'
p72
aS'w+1=President'
p73
aS'w+1=Russia'
p74
aS'w+1=Russians'
p75
aS'w+1=World'
p76
aS'w+1=abortion'
p77
aS'w+1=about'
p78
aS'w+1=and'
p79
aS'w+1=at'
p80
aS'w+1=be'
p81
aS'w+1=by'
p82
aS'w+1=circuit'
p83
aS'w+1=crime'
p84
aS'w+1=dictator'
p85
aS'w+1=each'
p86
aS'w+1=in'
p87
aS'w+1=it'
p88
aS'w+1=journalism'
p89
aS'w+1=mail'
p90
aS'w+1=message'
p91
aS'w+1=on'
p92
aS'w+1=one'
p93
aS'w+1=only'
p94
aS'w+1=people'
p95
aS'w+1=speech'
p96
aS'w+1=the'
p97
aS'w+1=they'
p98
aS'w+1=to'
p99
aS'w+1=vote'
p100
aS'w+1=who'
p101
aS"w+2=''"
p102
aS'w+2=,'
p103
aS'w+2=.'
p104
aS'w+2=Bush'
p105
aS'w+2=Music'
p106
aS'w+2=Palestinians'
p107
aS'w+2=against'
p108
aS'w+2=ambassador'
p109
aS'w+2=and'
p110
aS'w+2=another'
p111
aS'w+2=as'
p112
aS'w+2=because'
p113
aS'w+2=before'
p114
aS'w+2=buying'
p115
aS'w+2=charge'
p116
aS'w+2=conflict'
p117
aS'w+2=deserve'
p118
aS'w+2=enemy'
p119
aS'w+2=from'
p120
aS'w+2=guilt'
p121
aS'w+2=home'
p122
aS'w+2=lose'
p123
aS'w+2=on'
p124
aS'w+2=other'
p125
aS'w+2=people'
p126
aS'w+2=prior'
p127
aS'w+2=share'
p128
aS'w+2=that'
p129
aS'w+2=the'
p130
aS'w+2=we'
p131
aS'w+2=with'
p132
aS'w+2=you'
p133
aS"w-1=''"
p134
aS'w-1=,'
p135
aS'w-1=I'
p136
aS'w-1=Nawaz'
p137
aS'w-1=a'
p138
aS'w-1=already'
p139
aS'w-1=and'
p140
aS'w-1=anti-muslim'
p141
aS'w-1=be'
p142
aS'w-1=bring'
p143
aS'w-1=he'
p144
aS'w-1=irresponsible'
p145
aS'w-1=just'
p146
aS'w-1=monitor'
p147
aS'w-1=not'
p148
aS'w-1=of'
p149
aS'w-1=party'
p150
aS'w-1=post-election'
p151
aS'w-1=promote'
p152
aS'w-1=promulgate'
p153
aS'w-1=prosecute'
p154
aS'w-1=really'
p155
aS'w-1=receive'
p156
aS'w-1=should'
p157
aS'w-1=spread'
p158
aS'w-1=the'
p159
aS'w-1=they'
p160
aS'w-1=through'
p161
aS'w-1=to'
p162
aS'w-1=two'
p163
aS'w-1=who'
p164
aS"w-2=''"
p165
aS'w-2=,'
p166
aS'w-2=.'
p167
aS'w-2=I'
p168
aS'w-2=a'
p169
aS'w-2=act'
p170
aS'w-2=allege'
p171
aS'w-2=allegedly'
p172
aS'w-2=and'
p173
aS'w-2=as'
p174
aS'w-2=be'
p175
aS'w-2=broadcast'
p176
aS'w-2=commit'
p177
aS'w-2=crime'
p178
aS'w-2=do'
p179
aS'w-2=have'
p180
aS'w-2=he'
p181
aS'w-2=ideology'
p182
aS'w-2=incitement'
p183
aS'w-2=kind'
p184
aS'w-2=love'
p185
aS'w-2=making'
p186
aS'w-2=murder'
p187
aS'w-2=not'
p188
aS'w-2=on'
p189
aS'w-2=out'
p190
aS'w-2=people'
p191
aS'w-2=political'
p192
aS'w-2=reason'
p193
aS'w-2=redemption'
p194
aS'w-2=scandal'
p195
aS'w-2=thing'
p196
aS'w-2=those'
p197
aS'w-2=to'
p198
aS'w-2=unpatriotic'
p199
aS'w-2=use'
p200
aS'w-2=we'
p201
aS'w-2=which'
p202
aS'w-2=who'
p203
aS'xcomp=do'
p204
aS'xcomp=lose'
p205
asS'dtype'
p206
cnumpy
float64
p207
sS'vocabulary_'
p208
(dp209
g27
I18
sg120
I111
sg70
I61
sg185
I176
sg203
I194
sg201
I192
sg115
I106
sg191
I182
sg123
I114
sg202
I193
sg194
I185
sg49
I40
sg141
I132
sg107
I98
sg129
I120
sg199
I190
sg198
I189
sg186
I177
sg200
I191
sg122
I113
sg172
I163
sg164
I155
sg161
I152
sg75
I66
sg24
I15
sg52
I43
sg40
I31
sg22
I13
sg149
I140
sg84
I75
sg189
I180
sg162
I153
sg60
I51
sg110
I101
sg173
I164
sg184
I175
sg163
I154
sg158
I149
sg51
I42
sg171
I162
sg32
I23
sg28
I19
sg179
I170
sg47
I38
sg29
I20
sg178
I169
sg36
I27
sg33
I24
sg16
I7
sg181
I172
sg127
I118
sg74
I65
sg10
I1
sg13
I4
sg11
I2
sg130
I121
sg58
I49
sg65
I56
sg57
I48
sg154
I145
sg166
I157
sg111
I102
sg167
I158
sg64
I55
sg89
I80
sg108
I99
sg94
I85
sg50
I41
sg46
I37
sg142
I133
sg118
I109
sg196
I187
sg135
I126
sg188
I179
sg88
I79
sg96
I87
sg168
I159
sg91
I82
sg174
I165
sg56
I47
sg113
I104
sg182
I173
sg136
I127
sg44
I35
sg17
I8
sg30
I21
sg101
I92
sg190
I181
sg92
I83
sg69
I60
sg169
I160
sg93
I84
sg105
I96
sg119
I110
sg128
I119
sg106
I97
sg80
I71
sg54
I45
sg34
I25
sg147
I138
sg102
I93
sg109
I100
sg144
I135
sg204
I195
sg86
I77
sg25
I16
sg156
I147
sg177
I168
sg205
I196
sg143
I134
sg170
I161
sg19
I10
sg35
I26
sg23
I14
sg95
I86
sg155
I146
sg73
I64
sg150
I141
sg59
I50
sg137
I128
sg14
I5
sg37
I28
sg180
I171
sg121
I112
sg20
I11
sg62
I53
sg71
I62
sg192
I183
sg12
I3
sg97
I88
sg82
I73
sg83
I74
sg26
I17
sg146
I137
sg81
I72
sg38
I29
sg21
I12
sg98
I89
sg41
I32
sg76
I67
sg139
I130
sg53
I44
sg133
I124
sg153
I144
sg193
I184
sg87
I78
sg85
I76
sg132
I123
sg48
I39
sg78
I69
sg61
I52
sg134
I125
sg125
I116
sg197
I188
sg9
I0
sg183
I174
sg45
I36
sg18
I9
sg116
I107
sg117
I108
sg31
I22
sg176
I167
sg112
I103
sg160
I151
sg114
I105
sg39
I30
sg165
I156
sg66
I57
sg67
I58
sg72
I63
sg104
I95
sg103
I94
sg124
I115
sg99
I90
sg68
I59
sg145
I136
sg157
I148
sg79
I70
sg138
I129
sg140
I131
sg152
I143
sg126
I117
sg195
I186
sg151
I142
sg131
I122
sg187
I178
sg175
I166
sg148
I139
sg90
I81
sg159
I150
sg63
I54
sg100
I91
sg15
I6
sg43
I34
sg55
I46
sg42
I33
sg77
I68
ssS'separator'
p210
S'='
sS'sparse'
p211
I01
sb.