ccopy_reg
_reconstructor
p1
(csklearn.feature_extraction.dict_vectorizer
DictVectorizer
p2
c__builtin__
object
p3
NtRp4
(dp5
S'sort'
p6
I01
sS'feature_names_'
p7
(lp8
S'advcl=congratulate'
p9
aS'advcl=drive'
p10
aS'amod=informal'
p11
aS'amod=numerous'
p12
aS'amod=one-on-one'
p13
aS'aux=be'
p14
aS'cc=and'
p15
aS'ccomp=discourage'
p16
aS'ccomp=hair'
p17
aS'conj=pose'
p18
aS'conj=smoke'
p19
aS'dep=meanwhile'
p20
aS'det=a'
p21
aS'dobj=pipe'
p22
aS'nn=adult'
p23
aS'nn=businessman'
p24
aS'nsubj=Dogan'
p25
aS'nsubj=Minister'
p26
aS'nsubj=Zeidan'
p27
aS'nsubj=cambodian'
p28
aS'nsubj=group'
p29
aS'nsubj=radio'
p30
aS'nsubj=worker'
p31
aS'poss=city'
p32
aS'prep=about'
p33
aS'prep=at'
p34
aS'prep=in'
p35
aS'prep=on'
p36
aS'prep=over'
p37
aS'prep=with'
p38
aS'w+1=,'
p39
aS'w+1=.'
p40
aS'w+1=about'
p41
aS'w+1=and'
p42
aS'w+1=format'
p43
aS'w+1=in'
p44
aS'w+1=on'
p45
aS'w+1=over'
p46
aS'w+1=room'
p47
aS'w+1=to'
p48
aS'w+1=with'
p49
aS'w+2=,'
p50
aS'w+2=.'
p51
aS'w+2=a'
p52
aS'w+2=and'
p53
aS'w+2=life'
p54
aS'w+2=nobody'
p55
aS'w+2=one'
p56
aS'w+2=plastic'
p57
aS'w+2=play'
p58
aS'w+2=pose'
p59
aS'w+2=pride'
p60
aS'w+2=rally'
p61
aS'w+2=she'
p62
aS'w+2=smoke'
p63
aS'w+2=strong'
p64
aS'w+2=the'
p65
aS'w-1=,'
p66
aS'w-1=.'
p67
aS'w-1=Fernald'
p68
aS'w-1=Zeidan'
p69
aS'w-1=a'
p70
aS'w-1=across'
p71
aS'w-1=adult'
p72
aS'w-1=and'
p73
aS'w-1=be'
p74
aS'w-1=businessman'
p75
aS'w-1=informal'
p76
aS'w-1=one-on-one'
p77
aS'w-1=radio'
p78
aS'w-1=soldier'
p79
aS'w-1=these'
p80
aS'w-1=while'
p81
aS'w-1=worker'
p82
aS'w-2=,'
p83
aS'w-2=60'
p84
aS'w-2=Ivan'
p85
aS'w-2=Thai'
p86
aS'w-2=Zeina'
p87
aS'w-2=card'
p88
aS'w-2=clinic'
p89
aS'w-2=fireside'
p90
aS'w-2=house'
p91
aS'w-2=infiltrate'
p92
aS'w-2=lengthy'
p93
aS'w-2=like'
p94
aS'w-2=man'
p95
aS'w-2=mother'
p96
aS'w-2=smile'
p97
aS'w-2=spread'
p98
aS'w-2=website'
p99
aS'xcomp=rally'
p100
asS'dtype'
p101
cnumpy
float64
p102
sS'vocabulary_'
p103
(dp104
g10
I1
sg99
I90
sg60
I51
sg91
I82
sg46
I37
sg27
I18
sg82
I73
sg59
I50
sg63
I54
sg53
I44
sg11
I2
sg32
I23
sg47
I38
sg9
I0
sg72
I63
sg49
I40
sg65
I56
sg34
I25
sg83
I74
sg88
I79
sg38
I29
sg94
I85
sg22
I13
sg74
I65
sg86
I77
sg67
I58
sg66
I57
sg20
I11
sg75
I66
sg97
I88
sg24
I15
sg95
I86
sg57
I48
sg16
I7
sg56
I47
sg96
I87
sg25
I16
sg79
I70
sg21
I12
sg70
I61
sg19
I10
sg71
I62
sg77
I68
sg92
I83
sg18
I9
sg68
I59
sg33
I24
sg90
I81
sg78
I69
sg89
I80
sg80
I71
sg15
I6
sg98
I89
sg30
I21
sg17
I8
sg55
I46
sg76
I67
sg93
I84
sg62
I53
sg35
I26
sg44
I35
sg64
I55
sg45
I36
sg41
I32
sg13
I4
sg26
I17
sg61
I52
sg23
I14
sg37
I28
sg42
I33
sg87
I78
sg31
I22
sg39
I30
sg40
I31
sg51
I42
sg69
I60
sg50
I41
sg48
I39
sg73
I64
sg84
I75
sg12
I3
sg54
I45
sg58
I49
sg43
I34
sg28
I19
sg29
I20
sg81
I72
sg36
I27
sg85
I76
sg14
I5
sg100
I91
sg52
I43
ssS'separator'
p105
S'='
sS'sparse'
p106
I01
sb.