ccopy_reg
_reconstructor
p1
(csklearn.feature_extraction.dict_vectorizer
DictVectorizer
p2
c__builtin__
object
p3
NtRp4
(dp5
S'sort'
p6
I01
sS'feature_names_'
p7
(lp8
S'acomp=much'
p9
aS'advcl=create'
p10
aS'advcl=cut'
p11
aS'advcl=face'
p12
aS'advcl=go'
p13
aS'advcl=maintain'
p14
aS'advcl=predict'
p15
aS'advcl=see'
p16
aS'advcl=take'
p17
aS'advmod=also'
p18
aS'advmod=even'
p19
aS'advmod=first'
p20
aS'advmod=fraudulently'
p21
aS'advmod=how'
p22
aS'advmod=illegally'
p23
aS'advmod=immediately'
p24
aS'advmod=just'
p25
aS'advmod=legally'
p26
aS'advmod=maybe'
p27
aS'advmod=naturally'
p28
aS'advmod=recently'
p29
aS'advmod=south'
p30
aS'advmod=unlawfully'
p31
aS'advmod=yet'
p32
aS'aux=can'
p33
aS'aux=could'
p34
aS'aux=do'
p35
aS'aux=have'
p36
aS'aux=must'
p37
aS'aux=to'
p38
aS'aux=will'
p39
aS'auxpass=be'
p40
aS'cc=and'
p41
aS'ccomp=act'
p42
aS'ccomp=come'
p43
aS'ccomp=determine'
p44
aS'ccomp=dry'
p45
aS'ccomp=make'
p46
aS'ccomp=need'
p47
aS'ccomp=occur'
p48
aS'ccomp=violate'
p49
aS'complm=that'
p50
aS'conj=circulate'
p51
aS'conj=go'
p52
aS'conj=identical'
p53
aS'conj=seek'
p54
aS'conj=share'
p55
aS'conj=speak'
p56
aS'conj=target'
p57
aS'conj=use'
p58
aS'dep=difficult'
p59
aS'dep=if'
p60
aS'dep=order'
p61
aS'dep=say'
p62
aS'dobj=$'
p63
aS'dobj=advice'
p64
aS'dobj=agreement'
p65
aS'dobj=approval'
p66
aS'dobj=arrest'
p67
aS'dobj=assistance'
p68
aS'dobj=assurance'
p69
aS'dobj=authorization'
p70
aS'dobj=book'
p71
aS'dobj=budget'
p72
aS'dobj=capital'
p73
aS'dobj=confession'
p74
aS'dobj=consensus'
p75
aS'dobj=cooperation'
p76
aS'dobj=credit'
p77
aS'dobj=datum'
p78
aS'dobj=declaration'
p79
aS'dobj=degree'
p80
aS'dobj=detail'
p81
aS'dobj=document'
p82
aS'dobj=donation'
p83
aS'dobj=equipment'
p84
aS'dobj=figure'
p85
aS'dobj=freedom'
p86
aS'dobj=fund'
p87
aS'dobj=homeland'
p88
aS'dobj=idea'
p89
aS'dobj=information'
p90
aS'dobj=intelligence'
p91
aS'dobj=justice'
p92
aS'dobj=kilogram'
p93
aS'dobj=license'
p94
aS'dobj=line'
p95
aS'dobj=loan'
p96
aS'dobj=majority'
p97
aS'dobj=margin'
p98
aS'dobj=material'
p99
aS'dobj=number'
p100
aS'dobj=order'
p101
aS'dobj=papers'
p102
aS'dobj=percent'
p103
aS'dobj=permission'
p104
aS'dobj=permit'
p105
aS'dobj=position'
p106
aS'dobj=quorum'
p107
aS'dobj=record'
p108
aS'dobj=release'
p109
aS'dobj=residence'
p110
aS'dobj=result'
p111
aS'dobj=rifle'
p112
aS'dobj=score'
p113
aS'dobj=sentence'
p114
aS'dobj=share'
p115
aS'dobj=snapshot'
p116
aS'dobj=so-called'
p117
aS'dobj=something'
p118
aS'dobj=statement'
p119
aS'dobj=status'
p120
aS'dobj=supplies'
p121
aS'dobj=support'
p122
aS'dobj=technology'
p123
aS'dobj=that'
p124
aS'dobj=title'
p125
aS'dobj=video'
p126
aS'dobj=videotape'
p127
aS'dobj=visa'
p128
aS'dobj=waiver'
p129
aS'dobj=warrant'
p130
aS'dobj=weapon'
p131
aS'dobj=which'
p132
aS'dobj=yield'
p133
aS'mark=after'
p134
aS'mark=because'
p135
aS'mark=if'
p136
aS'mark=in'
p137
aS'mark=so'
p138
aS'mark=though'
p139
aS'mark=unless'
p140
aS'mark=until'
p141
aS'neg=not'
p142
aS'nsubj=#PRP#'
p143
aS'nsubj=Bush'
p144
aS'nsubj=Democrats'
p145
aS'nsubj=Gingras'
p146
aS'nsubj=India'
p147
aS'nsubj=Iran'
p148
aS'nsubj=Korea'
p149
aS'nsubj=Meylor'
p150
aS'nsubj=Sarkozy'
p151
aS'nsubj=Vazquez'
p152
aS'nsubj=al-qaida'
p153
aS'nsubj=attempt'
p154
aS'nsubj=biologist'
p155
aS'nsubj=bloc'
p156
aS'nsubj=bribe'
p157
aS'nsubj=church'
p158
aS'nsubj=company'
p159
aS'nsubj=crackdown'
p160
aS'nsubj=developer'
p161
aS'nsubj=group'
p162
aS'nsubj=man'
p163
aS'nsubj=mother'
p164
aS'nsubj=official'
p165
aS'nsubj=orphanage'
p166
aS'nsubj=president'
p167
aS'nsubj=someone'
p168
aS'nsubj=tax'
p169
aS'nsubj=waysto'
p170
aS'nsubj=year'
p171
aS'nsubjpass=#NUMBER#'
p172
aS'nsubjpass=#PRP#'
p173
aS'nsubjpass=U.S.'
p174
aS'nsubjpass=antibiotic'
p175
aS'nsubjpass=approval'
p176
aS'nsubjpass=consent'
p177
aS'nsubjpass=enrichment'
p178
aS'nsubjpass=evidence'
p179
aS'nsubjpass=information'
p180
aS'nsubjpass=number'
p181
aS'nsubjpass=recording'
p182
aS'nsubjpass=some'
p183
aS'nsubjpass=support'
p184
aS'nsubjpass=tape'
p185
aS'nsubjpass=vaccine'
p186
aS'nsubjpass=weapon'
p187
aS'partmod=use'
p188
aS'prep=about'
p189
aS'prep=before'
p190
aS'prep=by'
p191
aS'prep=despite'
p192
aS'prep=during'
p193
aS'prep=for'
p194
aS'prep=from'
p195
aS'prep=in'
p196
aS'prep=over'
p197
aS'prep=through'
p198
aS'prep=to'
p199
aS'prep=under'
p200
aS'prep=with'
p201
aS'prep=without'
p202
aS'tmod=#DATE#'
p203
aS'tmod=month'
p204
aS'w+1=,'
p205
aS'w+1=.'
p206
aS'w+1=46'
p207
aS'w+1=700'
p208
aS'w+1=a'
p209
aS'w+1=accurate'
p210
aS'w+1=and'
p211
aS'w+1=approval'
p212
aS'w+1=asylum'
p213
aS'w+1=authorization'
p214
aS'w+1=because'
p215
aS'w+1=bed'
p216
aS'w+1=before'
p217
aS'w+1=book'
p218
aS'w+1=by'
p219
aS'w+1=capital'
p220
aS'w+1=confession'
p221
aS'w+1=congressional'
p222
aS'w+1=construction'
p223
aS'w+1=court'
p224
aS'w+1=credit'
p225
aS'w+1=datum'
p226
aS'w+1=diplomatic'
p227
aS'w+1=donation'
p228
aS'w+1=dry'
p229
aS'w+1=during'
p230
aS'w+1=enough'
p231
aS'w+1=equipment'
p232
aS'w+1=exact'
p233
aS'w+1=fresh'
p234
aS'w+1=from'
p235
aS'w+1=fuel'
p236
aS'w+1=full'
p237
aS'w+1=fund'
p238
aS'w+1=he'
p239
aS'w+1=illegally'
p240
aS'w+1=immediately'
p241
aS'w+1=in'
p242
aS'w+1=information'
p243
aS'w+1=israeli'
p244
aS'w+1=its'
p245
aS'w+1=just'
p246
aS'w+1=justice'
p247
aS'w+1=legal'
p248
aS'w+1=legally'
p249
aS'w+1=long-denied'
p250
aS'w+1=many'
p251
aS'w+1=maximum'
p252
aS'w+1=more'
p253
aS'w+1=mortgage'
p254
aS'w+1=much'
p255
aS'w+1=need'
p256
aS'w+1=new'
p257
aS'w+1=nuclear'
p258
aS'w+1=ownership'
p259
aS'w+1=parliamentary'
p260
aS'w+1=permanent'
p261
aS'w+1=permission'
p262
aS'w+1=private'
p263
aS'w+1=reliable'
p264
aS'w+1=russian'
p265
aS'w+1=score'
p266
aS'w+1=snapshot'
p267
aS'w+1=specific'
p268
aS'w+1=such'
p269
aS'w+1=telephone'
p270
aS'w+1=the'
p271
aS'w+1=they'
p272
aS'w+1=those'
p273
aS'w+1=through'
p274
aS'w+1=training'
p275
aS'w+1=travel'
p276
aS'w+1=under'
p277
aS'w+1=uranium'
p278
aS'w+1=use'
p279
aS'w+1=videotape'
p280
aS'w+1=visa'
p281
aS'w+1=weapon'
p282
aS'w+1=without'
p283
aS'w+1=you'
p284
aS'w+2=$'
p285
aS"w+2=''"
p286
aS'w+2=,'
p287
aS'w+2=.'
p288
aS'w+2=Associated'
p289
aS'w+2=Development'
p290
aS'w+2=Israel'
p291
aS'w+2=Kalashnikov'
p292
aS'w+2=Pentagon'
p293
aS'w+2=Turkey'
p294
aS'w+2=U.S.'
p295
aS'w+2=Voice'
p296
aS'w+2=a'
p297
aS'w+2=about'
p298
aS'w+2=advice'
p299
aS'w+2=and'
p300
aS'w+2=any'
p301
aS'w+2=approval'
p302
aS'w+2=arrest'
p303
aS'w+2=assurance'
p304
aS'w+2=authorization'
p305
aS'w+2=better'
p306
aS'w+2=book'
p307
aS'w+2=circulate'
p308
aS'w+2=civil'
p309
aS'w+2=comfortable'
p310
aS'w+2=consensus'
p311
aS'w+2=controversial'
p312
aS'w+2=cooperation'
p313
aS'w+2=counterfeiting'
p314
aS'w+2=court'
p315
aS'w+2=cruel'
p316
aS'w+2=despite'
p317
aS'w+2=detail'
p318
aS'w+2=document'
p319
aS'w+2=economic'
p320
aS'w+2=election'
p321
aS'w+2=eliminate'
p322
aS'w+2=embezzlement'
p323
aS'w+2=enrichment'
p324
aS'w+2=entry'
p325
aS'w+2=equipment'
p326
aS'w+2=figure'
p327
aS'w+2=fixed'
p328
aS'w+2=for'
p329
aS'w+2=fraud'
p330
aS'w+2=freedom'
p331
aS'w+2=from'
p332
aS'w+2=fuel'
p333
aS'w+2=full'
p334
aS'w+2=fund'
p335
aS'w+2=genuine'
p336
aS'w+2=grudging'
p337
aS'w+2=idea'
p338
aS'w+2=identification'
p339
aS'w+2=in'
p340
aS'w+2=independent'
p341
aS'w+2=information'
p342
aS'w+2=key'
p343
aS'w+2=kilogram'
p344
aS'w+2=land'
p345
aS'w+2=latest'
p346
aS'w+2=legal'
p347
aS'w+2=license'
p348
aS'w+2=loan'
p349
aS'w+2=majority'
p350
aS'w+2=mandate'
p351
aS'w+2=many'
p352
aS'w+2=master'
p353
aS'w+2=mistreatment'
p354
aS'w+2=more'
p355
aS'w+2=necessary'
p356
aS'w+2=net'
p357
aS'w+2=new'
p358
aS'w+2=nuclear'
p359
aS'w+2=of'
p360
aS'w+2=or'
p361
aS'w+2=order'
p362
aS'w+2=other'
p363
aS'w+2=over'
p364
aS'w+2=papers'
p365
aS'w+2=parent'
p366
aS'w+2=pepper'
p367
aS'w+2=percent'
p368
aS'w+2=permit'
p369
aS'w+2=petrol'
p370
aS'w+2=phone'
p371
aS'w+2=position'
p372
aS'w+2=prescription'
p373
aS'w+2=prison'
p374
aS'w+2=quorum'
p375
aS'w+2=raw'
p376
aS'w+2=release'
p377
aS'w+2=republican'
p378
aS'w+2=required'
p379
aS'w+2=residence'
p380
aS'w+2=result'
p381
aS'w+2=satellite'
p382
aS'w+2=search'
p383
aS'w+2=share'
p384
aS'w+2=so-called'
p385
aS'w+2=statement'
p386
aS'w+2=such'
p387
aS'w+2=supplies'
p388
aS'w+2=support'
p389
aS'w+2=technology'
p390
aS'w+2=the'
p391
aS'w+2=theend'
p392
aS'w+2=through'
p393
aS'w+2=title'
p394
aS'w+2=to'
p395
aS'w+2=torture'
p396
aS'w+2=travel'
p397
aS'w+2=use'
p398
aS'w+2=visa'
p399
aS'w+2=vote'
p400
aS'w+2=waiver'
p401
aS'w+2=warrant'
p402
aS'w+2=weapon'
p403
aS'w+2=yield'
p404
aS'w-1=,'
p405
aS'w-1=60'
p406
aS'w-1=Gingras'
p407
aS'w-1=India'
p408
aS'w-1=Iran'
p409
aS'w-1=Korea'
p410
aS'w-1=Margolis'
p411
aS'w-1=Meylor'
p412
aS'w-1=Sarkozy'
p413
aS'w-1=after'
p414
aS'w-1=and'
p415
aS'w-1=be'
p416
aS'w-1=bloc'
p417
aS'w-1=can'
p418
aS'w-1=candidate'
p419
aS'w-1=company'
p420
aS'w-1=datum'
p421
aS'w-1=developer'
p422
aS'w-1=difficulty'
p423
aS'w-1=document'
p424
aS'w-1=evidence'
p425
aS'w-1=first'
p426
aS'w-1=fraudulently'
p427
aS'w-1=from'
p428
aS'w-1=have'
p429
aS'w-1=he'
p430
aS'w-1=help'
p431
aS'w-1=illegally'
p432
aS'w-1=in'
p433
aS'w-1=include'
p434
aS'w-1=information'
p435
aS'w-1=it'
p436
aS'w-1=money'
p437
aS'w-1=mother'
p438
aS'w-1=must'
p439
aS'w-1=not'
p440
aS'w-1=of'
p441
aS'w-1=official'
p442
aS'w-1=on'
p443
aS'w-1=or'
p444
aS'w-1=organization'
p445
aS'w-1=president'
p446
aS'w-1=recently'
p447
aS'w-1=someone'
p448
aS'w-1=speech'
p449
aS'w-1=start'
p450
aS'w-1=they'
p451
aS'w-1=to'
p452
aS'w-1=trouble'
p453
aS'w-1=unlawfully'
p454
aS'w-1=verdict'
p455
aS'w-1=video'
p456
aS'w-1=visa'
p457
aS'w-1=waysto'
p458
aS'w-1=we'
p459
aS'w-1=will'
p460
aS'w-1=without'
p461
aS'w-2=$'
p462
aS'w-2=,'
p463
aS'w-2=.'
p464
aS'w-2=1996'
p465
aS'w-2=Agency'
p466
aS'w-2=Bush'
p467
aS'w-2=Democrats'
p468
aS'w-2=India'
p469
aS'w-2=Iran'
p470
aS'w-2=Mr.'
p471
aS'w-2=NASA'
p472
aS'w-2=North'
p473
aS'w-2=Strip'
p474
aS'w-2=a'
p475
aS'w-2=ability'
p476
aS'w-2=able'
p477
aS'w-2=adoption'
p478
aS'w-2=against'
p479
aS'w-2=allege'
p480
aS'w-2=also'
p481
aS'w-2=ambition'
p482
aS'w-2=and'
p483
aS'w-2=attempt'
p484
aS'w-2=ban'
p485
aS'w-2=be'
p486
aS'w-2=biologist'
p487
aS'w-2=bribe'
p488
aS'w-2=by'
p489
aS'w-2=can'
p490
aS'w-2=century'
p491
aS'w-2=charter'
p492
aS'w-2=child'
p493
aS'w-2=church'
p494
aS'w-2=cite'
p495
aS'w-2=consent'
p496
aS'w-2=cost'
p497
aS'w-2=could'
p498
aS'w-2=country'
p499
aS'w-2=day'
p500
aS'w-2=delay'
p501
aS'w-2=determine'
p502
aS'w-2=difficult'
p503
aS'w-2=difficulty'
p504
aS'w-2=do'
p505
aS'w-2=dollar'
p506
aS'w-2=effort'
p507
aS'w-2=engineering'
p508
aS'w-2=evidence'
p509
aS'w-2=expect'
p510
aS'w-2=experience'
p511
aS'w-2=find'
p512
aS'w-2=gay'
p513
aS'w-2=government'
p514
aS'w-2=group'
p515
aS'w-2=guilty'
p516
aS'w-2=hard'
p517
aS'w-2=harder'
p518
aS'w-2=have'
p519
aS'w-2=he'
p520
aS'w-2=head'
p521
aS'w-2=heavily'
p522
aS'w-2=help'
p523
aS'w-2=here'
p524
aS'w-2=hope'
p525
aS'w-2=how'
p526
aS'w-2=if'
p527
aS'w-2=in'
p528
aS'w-2=insist'
p529
aS'w-2=it'
p530
aS'w-2=late'
p531
aS'w-2=lawyer'
p532
aS'w-2=let'
p533
aS'w-2=letter'
p534
aS'w-2=likely'
p535
aS'w-2=little'
p536
aS'w-2=location'
p537
aS'w-2=manage'
p538
aS'w-2=member'
p539
aS'w-2=militant'
p540
aS'w-2=month'
p541
aS'w-2=must'
p542
aS'w-2=nation'
p543
aS'w-2=need'
p544
aS'w-2=of'
p545
aS'w-2=officer'
p546
aS'w-2=official'
p547
aS'w-2=order'
p548
aS'w-2=orphanage'
p549
aS'w-2=other'
p550
aS'w-2=people'
p551
aS'w-2=permit'
p552
aS'w-2=practice'
p553
aS'w-2=president'
p554
aS'w-2=prospect'
p555
aS'w-2=recording'
p556
aS'w-2=regard'
p557
aS'w-2=region'
p558
aS'w-2=resign'
p559
aS'w-2=right'
p560
aS'w-2=room'
p561
aS'w-2=schedule'
p562
aS'w-2=seek'
p563
aS'w-2=solution'
p564
aS'w-2=state'
p565
aS'w-2=study'
p566
aS'w-2=talk'
p567
aS'w-2=tape'
p568
aS'w-2=terrorist'
p569
aS'w-2=that'
p570
aS'w-2=the'
p571
aS'w-2=to'
p572
aS'w-2=torture'
p573
aS'w-2=try'
p574
aS'w-2=unreliable'
p575
aS'w-2=until'
p576
aS'w-2=use'
p577
aS'w-2=vice'
p578
aS'w-2=victory'
p579
aS'w-2=war'
p580
aS'w-2=we'
p581
aS'w-2=weapon'
p582
aS'w-2=which'
p583
aS'w-2=who'
p584
aS'w-2=without'
p585
aS'w-2=year'
p586
aS'w-2=you'
p587
aS'xcomp=assist'
p588
aS'xcomp=challenge'
p589
aS'xcomp=cross'
p590
aS'xcomp=have'
p591
aS'xcomp=help'
p592
aS'xcomp=keep'
p593
aS'xcomp=override'
p594
aS'xcomp=return'
p595
aS'xcomp=say'
p596
aS'xcomp=solve'
p597
aS'xcomp=suspend'
p598
aS'xcomp=use'
p599
asS'dtype'
p600
cnumpy
float64
p601
sS'vocabulary_'
p602
(dp603
g190
I181
sg31
I22
sg334
I325
sg168
I159
sg36
I27
sg113
I104
sg90
I81
sg581
I572
sg127
I118
sg551
I542
sg103
I94
sg332
I323
sg61
I52
sg599
I590
sg227
I218
sg398
I389
sg419
I410
sg408
I399
sg44
I35
sg544
I535
sg331
I322
sg191
I182
sg499
I490
sg326
I317
sg268
I259
sg353
I344
sg468
I459
sg407
I398
sg540
I531
sg325
I316
sg165
I156
sg473
I464
sg150
I141
sg25
I16
sg597
I588
sg242
I233
sg396
I387
sg460
I451
sg337
I328
sg416
I407
sg417
I408
sg497
I488
sg409
I400
sg571
I562
sg382
I373
sg124
I115
sg370
I361
sg305
I296
sg456
I447
sg453
I444
sg446
I437
sg246
I237
sg343
I334
sg17
I8
sg184
I175
sg359
I350
sg140
I131
sg585
I576
sg395
I386
sg339
I330
sg367
I358
sg12
I3
sg32
I23
sg26
I17
sg10
I1
sg488
I479
sg384
I375
sg429
I420
sg316
I307
sg276
I267
sg88
I79
sg340
I331
sg109
I100
sg106
I97
sg525
I516
sg351
I342
sg252
I243
sg114
I105
sg424
I415
sg448
I439
sg189
I180
sg33
I24
sg50
I41
sg179
I170
sg258
I249
sg204
I195
sg347
I338
sg224
I215
sg400
I391
sg104
I95
sg428
I419
sg322
I313
sg507
I498
sg509
I500
sg401
I392
sg372
I363
sg271
I262
sg153
I144
sg240
I231
sg128
I119
sg272
I263
sg515
I506
sg28
I19
sg273
I264
sg93
I84
sg108
I99
sg79
I70
sg374
I365
sg173
I164
sg196
I187
sg449
I440
sg435
I426
sg345
I336
sg126
I117
sg570
I561
sg241
I232
sg478
I469
sg199
I190
sg425
I416
sg566
I557
sg482
I473
sg177
I168
sg303
I294
sg548
I539
sg387
I378
sg593
I584
sg111
I102
sg259
I250
sg154
I145
sg438
I429
sg329
I320
sg169
I160
sg432
I423
sg413
I404
sg15
I6
sg211
I202
sg49
I40
sg436
I427
sg514
I505
sg485
I476
sg218
I209
sg208
I199
sg132
I123
sg92
I83
sg433
I424
sg454
I445
sg162
I153
sg72
I63
sg563
I554
sg131
I122
sg136
I127
sg213
I204
sg292
I283
sg137
I128
sg516
I507
sg553
I544
sg166
I157
sg565
I556
sg105
I96
sg62
I53
sg262
I253
sg265
I256
sg144
I135
sg442
I433
sg577
I568
sg130
I121
sg327
I318
sg122
I113
sg467
I458
sg545
I536
sg452
I443
sg426
I417
sg354
I345
sg355
I346
sg377
I368
sg68
I59
sg505
I496
sg178
I169
sg555
I546
sg284
I275
sg455
I446
sg9
I0
sg529
I520
sg375
I366
sg501
I492
sg380
I371
sg402
I393
sg281
I272
sg188
I179
sg197
I188
sg496
I487
sg76
I67
sg54
I45
sg159
I150
sg239
I230
sg308
I299
sg64
I55
sg591
I582
sg418
I409
sg547
I538
sg254
I245
sg51
I42
sg477
I468
sg274
I265
sg164
I155
sg296
I287
sg383
I374
sg282
I273
sg46
I37
sg97
I88
sg194
I185
sg323
I314
sg368
I359
sg260
I251
sg596
I587
sg14
I5
sg445
I436
sg474
I465
sg386
I377
sg192
I183
sg471
I462
sg410
I401
sg579
I570
sg156
I147
sg220
I211
sg207
I198
sg319
I310
sg117
I108
sg40
I31
sg238
I229
sg311
I302
sg538
I529
sg250
I241
sg279
I270
sg167
I158
sg149
I140
sg595
I586
sg486
I477
sg542
I533
sg69
I60
sg465
I456
sg411
I402
sg27
I18
sg560
I551
sg118
I109
sg277
I268
sg55
I46
sg255
I246
sg267
I258
sg170
I161
sg147
I138
sg291
I282
sg392
I383
sg491
I482
sg225
I216
sg541
I532
sg221
I212
sg361
I352
sg216
I207
sg573
I564
sg552
I543
sg360
I351
sg171
I162
sg157
I148
sg415
I406
sg304
I295
sg75
I66
sg243
I234
sg556
I547
sg20
I11
sg298
I289
sg202
I193
sg388
I379
sg484
I475
sg302
I293
sg561
I552
sg314
I305
sg78
I69
sg592
I583
sg174
I165
sg362
I353
sg356
I347
sg397
I388
sg306
I297
sg266
I257
sg215
I206
sg47
I38
sg569
I560
sg437
I428
sg350
I341
sg85
I76
sg470
I461
sg139
I130
sg320
I311
sg182
I173
sg524
I515
sg80
I71
sg176
I167
sg427
I418
sg56
I47
sg583
I574
sg346
I337
sg379
I370
sg57
I48
sg152
I143
sg19
I10
sg66
I57
sg493
I484
sg293
I284
sg256
I247
sg390
I381
sg101
I92
sg510
I501
sg228
I219
sg161
I152
sg35
I26
sg364
I355
sg466
I457
sg534
I525
sg481
I472
sg39
I30
sg582
I573
sg245
I236
sg352
I343
sg357
I348
sg358
I349
sg73
I64
sg212
I203
sg318
I309
sg201
I192
sg349
I340
sg365
I356
sg598
I589
sg278
I269
sg222
I213
sg341
I332
sg549
I540
sg527
I518
sg469
I460
sg528
I519
sg554
I545
sg447
I438
sg500
I491
sg543
I534
sg30
I21
sg530
I521
sg261
I252
sg536
I527
sg333
I324
sg406
I397
sg89
I80
sg86
I77
sg575
I566
sg53
I44
sg77
I68
sg422
I413
sg74
I65
sg502
I493
sg58
I49
sg94
I85
sg309
I300
sg414
I405
sg286
I277
sg330
I321
sg84
I75
sg18
I9
sg181
I172
sg458
I449
sg81
I72
sg371
I362
sg135
I126
sg217
I208
sg584
I575
sg519
I510
sg513
I504
sg41
I32
sg98
I89
sg200
I191
sg129
I120
sg42
I33
sg145
I136
sg393
I384
sg219
I210
sg45
I36
sg289
I280
sg151
I142
sg451
I442
sg559
I550
sg580
I571
sg399
I390
sg487
I478
sg564
I555
sg533
I524
sg412
I403
sg403
I394
sg578
I569
sg389
I380
sg394
I385
sg16
I7
sg141
I132
sg143
I134
sg275
I266
sg158
I149
sg247
I238
sg186
I177
sg99
I90
sg457
I448
sg431
I422
sg244
I235
sg562
I553
sg34
I25
sg420
I411
sg512
I503
sg110
I101
sg102
I93
sg60
I51
sg461
I452
sg119
I110
sg376
I367
sg37
I28
sg91
I82
sg59
I50
sg423
I414
sg385
I376
sg421
I412
sg492
I483
sg589
I580
sg508
I499
sg23
I14
sg134
I125
sg183
I174
sg521
I512
sg163
I154
sg172
I163
sg489
I480
sg11
I2
sg234
I225
sg498
I489
sg112
I103
sg70
I61
sg63
I54
sg321
I312
sg29
I20
sg335
I326
sg558
I549
sg160
I151
sg567
I558
sg283
I274
sg517
I508
sg52
I43
sg479
I470
sg490
I481
sg443
I434
sg404
I395
sg342
I333
sg301
I292
sg444
I435
sg317
I308
sg441
I432
sg348
I339
sg572
I563
sg300
I291
sg203
I194
sg483
I474
sg344
I335
sg450
I441
sg480
I471
sg263
I254
sg142
I133
sg574
I565
sg226
I217
sg594
I585
sg520
I511
sg472
I463
sg48
I39
sg253
I244
sg557
I548
sg290
I281
sg65
I56
sg494
I485
sg307
I298
sg391
I382
sg187
I178
sg236
I227
sg463
I454
sg312
I303
sg464
I455
sg462
I453
sg100
I91
sg133
I124
sg522
I513
sg405
I396
sg115
I106
sg299
I290
sg123
I114
sg280
I271
sg338
I329
sg232
I223
sg526
I517
sg198
I189
sg87
I78
sg550
I541
sg237
I228
sg230
I221
sg214
I205
sg120
I111
sg125
I116
sg475
I466
sg576
I567
sg531
I522
sg504
I495
sg95
I86
sg546
I537
sg430
I421
sg588
I579
sg251
I242
sg264
I255
sg539
I530
sg121
I112
sg476
I467
sg24
I15
sg235
I226
sg83
I74
sg175
I166
sg568
I559
sg439
I430
sg495
I486
sg373
I364
sg586
I577
sg231
I222
sg324
I315
sg366
I357
sg223
I214
sg71
I62
sg310
I301
sg535
I526
sg315
I306
sg22
I13
sg369
I360
sg295
I286
sg532
I523
sg511
I502
sg195
I186
sg363
I354
sg21
I12
sg523
I514
sg229
I220
sg378
I369
sg459
I450
sg116
I107
sg38
I29
sg587
I578
sg107
I98
sg13
I4
sg269
I260
sg537
I528
sg257
I248
sg294
I285
sg233
I224
sg180
I171
sg148
I139
sg205
I196
sg206
I197
sg328
I319
sg67
I58
sg288
I279
sg287
I278
sg82
I73
sg336
I327
sg138
I129
sg285
I276
sg249
I240
sg193
I184
sg506
I497
sg185
I176
sg146
I137
sg43
I34
sg590
I581
sg96
I87
sg270
I261
sg518
I509
sg209
I200
sg440
I431
sg381
I372
sg503
I494
sg434
I425
sg155
I146
sg248
I239
sg313
I304
sg210
I201
sg297
I288
ssS'separator'
p604
S'='
sS'sparse'
p605
I01
sb.