ccopy_reg
_reconstructor
p1
(csklearn.feature_extraction.dict_vectorizer
DictVectorizer
p2
c__builtin__
object
p3
NtRp4
(dp5
S'sort'
p6
I01
sS'feature_names_'
p7
(lp8
S'acomp=difficult'
p9
aS'advmod=ahhh'
p10
aS'advmod=ever'
p11
aS'advmod=so'
p12
aS'advmod=why'
p13
aS'aux=be'
p14
aS'aux=can'
p15
aS'aux=have'
p16
aS'aux=should'
p17
aS'aux=to'
p18
aS'auxpass=be'
p19
aS'auxpass=get'
p20
aS'cc=and'
p21
aS'complm=that'
p22
aS'complm=whether'
p23
aS'conj=take'
p24
aS'dep=that'
p25
aS'det=the'
p26
aS'dobj=citizen'
p27
aS'dobj=homeowner'
p28
aS'dobj=need'
p29
aS'dobj=people'
p30
aS'dobj=time'
p31
aS'dobj=yourselve'
p32
aS'mark=if'
p33
aS'neg=never'
p34
aS'nsubj=#PRP#'
p35
aS'nsubj=Citibank'
p36
aS'nsubj=nation'
p37
aS'nsubj=phillippe'
p38
aS'nsubj=who'
p39
aS'nsubjpass=#PRP#'
p40
aS'nsubjpass=Tsvangirai'
p41
aS'nsubjpass=people'
p42
aS'prep=about'
p43
aS'prep=by'
p44
aS'prep=in'
p45
aS'prep=of'
p46
aS'prep=on'
p47
aS'prep=with'
p48
aS'prt=out'
p49
aS'w+1=,'
p50
aS'w+1=-rrb-'
p51
aS'w+1=.'
p52
aS'w+1=?'
p53
aS'w+1=a'
p54
aS'w+1=about'
p55
aS'w+1=and'
p56
aS'w+1=be'
p57
aS'w+1=by'
p58
aS'w+1=homeowner'
p59
aS'w+1=more'
p60
aS'w+1=need'
p61
aS'w+1=on'
p62
aS'w+1=out'
p63
aS'w+1=people'
p64
aS'w+1=spouse'
p65
aS'w+1=the'
p66
aS'w+1=yourselve'
p67
aS"w+2=''"
p68
aS'w+2=,'
p69
aS'w+2=.'
p70
aS'w+2=Canada'
p71
aS'w+2=citizen'
p72
aS'w+2=difficult'
p73
aS'w+2=election'
p74
aS'w+2=it'
p75
aS'w+2=low'
p76
aS'w+2=need'
p77
aS'w+2=of'
p78
aS'w+2=second'
p79
aS'w+2=take'
p80
aS'w+2=they'
p81
aS'w+2=to'
p82
aS'w+2=witherspoon'
p83
aS'w-1=.'
p84
aS'w-1=Citibank'
p85
aS'w-1=I'
p86
aS'w-1=be'
p87
aS'w-1=can'
p88
aS'w-1=drug'
p89
aS'w-1=ever'
p90
aS'w-1=feel'
p91
aS'w-1=get'
p92
aS'w-1=have'
p93
aS'w-1=make'
p94
aS'w-1=or'
p95
aS'w-1=phillippe'
p96
aS'w-1=the'
p97
aS'w-1=to'
p98
aS'w-1=who'
p99
aS'w-2=,'
p100
aS'w-2=.'
p101
aS'w-2=I'
p102
aS'w-2=against'
p103
aS'w-2=attempt'
p104
aS'w-2=for'
p105
aS'w-2=have'
p106
aS'w-2=he'
p107
aS'w-2=lie'
p108
aS'w-2=nation'
p109
aS'w-2=never'
p110
aS'w-2=partner'
p111
aS'w-2=people'
p112
aS'w-2=should'
p113
aS'w-2=side'
p114
aS'w-2=that'
p115
aS'w-2=the'
p116
aS'w-2=they'
p117
aS'w-2=those'
p118
aS'w-2=to'
p119
aS'w-2=try'
p120
aS'w-2=way'
p121
aS'w-2=wrong'
p122
aS'w-2=you'
p123
aS'xcomp=express'
p124
asS'dtype'
p125
cnumpy
float64
p126
sS'vocabulary_'
p127
(dp128
g83
I74
sg60
I51
sg24
I15
sg76
I67
sg52
I43
sg74
I65
sg110
I101
sg59
I50
sg27
I18
sg111
I102
sg26
I17
sg44
I35
sg30
I21
sg103
I94
sg99
I90
sg114
I105
sg95
I86
sg39
I30
sg73
I64
sg20
I11
sg117
I108
sg98
I89
sg119
I110
sg89
I80
sg124
I115
sg61
I52
sg120
I111
sg10
I1
sg11
I2
sg116
I107
sg107
I98
sg72
I63
sg29
I20
sg28
I19
sg12
I3
sg102
I93
sg100
I91
sg108
I99
sg101
I92
sg48
I39
sg112
I103
sg16
I7
sg49
I40
sg87
I78
sg9
I0
sg84
I75
sg42
I33
sg88
I79
sg63
I54
sg41
I32
sg91
I82
sg122
I113
sg109
I100
sg43
I34
sg65
I56
sg86
I77
sg17
I8
sg82
I73
sg62
I53
sg36
I27
sg25
I16
sg93
I84
sg68
I59
sg75
I66
sg34
I25
sg19
I10
sg15
I6
sg22
I13
sg64
I55
sg23
I14
sg81
I72
sg77
I68
sg13
I4
sg106
I97
sg21
I12
sg115
I106
sg66
I57
sg80
I71
sg58
I49
sg57
I48
sg105
I96
sg40
I31
sg45
I36
sg90
I81
sg121
I112
sg35
I26
sg55
I46
sg71
I62
sg118
I109
sg18
I9
sg123
I114
sg113
I104
sg31
I22
sg92
I83
sg37
I28
sg56
I47
sg50
I41
sg51
I42
sg78
I69
sg70
I61
sg69
I60
sg53
I44
sg85
I76
sg79
I70
sg94
I85
sg96
I87
sg54
I45
sg46
I37
sg67
I58
sg97
I88
sg104
I95
sg47
I38
sg14
I5
sg33
I24
sg38
I29
sg32
I23
ssS'separator'
p129
S'='
sS'sparse'
p130
I01
sb.