ccopy_reg
_reconstructor
p1
(csklearn.feature_extraction.dict_vectorizer
DictVectorizer
p2
c__builtin__
object
p3
NtRp4
(dp5
S'sort'
p6
I01
sS'feature_names_'
p7
(lp8
S'advcl=call'
p9
aS'advcl=describe'
p10
aS'advcl=pertinent'
p11
aS'advcl=positive'
p12
aS'advmod=abroad'
p13
aS'advmod=ago'
p14
aS'advmod=already'
p15
aS'advmod=especially'
p16
aS'advmod=illegally'
p17
aS'advmod=newly'
p18
aS'advmod=oversea'
p19
aS'advmod=overseas'
p20
aS'advmod=recently'
p21
aS'advmod=usually'
p22
aS'advmod=where'
p23
aS'aux=be'
p24
aS'aux=can'
p25
aS'aux=could'
p26
aS'aux=have'
p27
aS'aux=to'
p28
aS'aux=will'
p29
aS'auxpass=be'
p30
aS'auxpass=become'
p31
aS'cc=and'
p32
aS'cc=or'
p33
aS'ccomp=need'
p34
aS'complm=that'
p35
aS'conj=adopt'
p36
aS'conj=be'
p37
aS'conj=convince'
p38
aS'conj=describe'
p39
aS'conj=develop'
p40
aS'conj=get'
p41
aS'conj=give'
p42
aS'dep=afford'
p43
aS'dep=hope'
p44
aS'dep=if'
p45
aS'dep=whose'
p46
aS'dobj=#NUMBER#'
p47
aS'dobj=Bird'
p48
aS'dobj=Lynch'
p49
aS'dobj=acre'
p50
aS'dobj=arm'
p51
aS'dobj=asset'
p52
aS'dobj=baby'
p53
aS'dobj=bomb'
p54
aS'dobj=brand'
p55
aS'dobj=capability'
p56
aS'dobj=cattle'
p57
aS'dobj=cessation'
p58
aS'dobj=company'
p59
aS'dobj=contribution'
p60
aS'dobj=culture'
p61
aS'dobj=defibrillator'
p62
aS'dobj=education'
p63
aS'dobj=expertise'
p64
aS'dobj=farmland'
p65
aS'dobj=firm'
p66
aS'dobj=gold'
p67
aS'dobj=hardware'
p68
aS'dobj=item'
p69
aS'dobj=knowledge'
p70
aS'dobj=land'
p71
aS'dobj=material'
p72
aS'dobj=missile'
p73
aS'dobj=momentum'
p74
aS'dobj=mortgage'
p75
aS'dobj=operation'
p76
aS'dobj=part'
p77
aS'dobj=picture'
p78
aS'dobj=power'
p79
aS'dobj=program'
p80
aS'dobj=residency'
p81
aS'dobj=skill'
p82
aS'dobj=staff'
p83
aS'dobj=stake'
p84
aS'dobj=tb'
p85
aS'dobj=technology'
p86
aS'dobj=the'
p87
aS'dobj=tract'
p88
aS'dobj=urgency'
p89
aS'dobj=weapon'
p90
aS'dobj=what'
p91
aS'mark=for'
p92
aS'mark=if'
p93
aS'nn=people'
p94
aS'nsubj=#PRP#'
p95
aS'nsubj=Earls'
p96
aS'nsubj=Iran'
p97
aS'nsubj=Iranians'
p98
aS'nsubj=Moscow'
p99
aS'nsubj=charge'
p100
aS'nsubj=company'
p101
aS'nsubj=deal'
p102
aS'nsubj=government'
p103
aS'nsubj=hunt'
p104
aS'nsubj=know-how'
p105
aS'nsubj=museum'
p106
aS'nsubj=people'
p107
aS'nsubj=push'
p108
aS'nsubj=reason'
p109
aS'nsubj=school'
p110
aS'nsubj=terrorist'
p111
aS'nsubj=which'
p112
aS'nsubjpass=part'
p113
aS'nsubjpass=plane'
p114
aS'prep=along'
p115
aS'prep=as'
p116
aS'prep=at'
p117
aS'prep=by'
p118
aS'prep=for'
p119
aS'prep=from'
p120
aS'prep=in'
p121
aS'prep=on'
p122
aS'prep=out'
p123
aS'prep=over'
p124
aS'prep=since'
p125
aS'prep=through'
p126
aS'prep=while'
p127
aS'prep=with'
p128
aS'prep=without'
p129
aS'w+1=,'
p130
aS'w+1=223,000'
p131
aS'w+1=Merrill'
p132
aS'w+1=Stinger'
p133
aS'w+1=a'
p134
aS'w+1=actually'
p135
aS'w+1=aircraft'
p136
aS'w+1=along'
p137
aS'w+1=and'
p138
aS'w+1=any'
p139
aS'w+1=arm'
p140
aS'w+1=as'
p141
aS'w+1=be'
p142
aS'w+1=because'
p143
aS'w+1=building'
p144
aS'w+1=by'
p145
aS'w+1=can'
p146
aS'w+1=company'
p147
aS'w+1=contribution'
p148
aS'w+1=farmland'
p149
aS'w+1=foreign'
p150
aS'w+1=freedom'
p151
aS'w+1=from'
p152
aS'w+1=gold'
p153
aS'w+1=home'
p154
aS'w+1=in'
p155
aS'w+1=its'
p156
aS'w+1=just'
p157
aS'w+1=knowledge'
p158
aS'w+1=land'
p159
aS'w+1=large'
p160
aS'w+1=many'
p161
aS'w+1=mechanical'
p162
aS'w+1=military'
p163
aS'w+1=mobile'
p164
aS'w+1=momentum'
p165
aS'w+1=more'
p166
aS'w+1=nuclear'
p167
aS'w+1=oil'
p168
aS'w+1=on'
p169
aS'w+1=one'
p170
aS'w+1=other'
p171
aS'w+1=overseas'
p172
aS'w+1=permanent'
p173
aS'w+1=predictive'
p174
aS'w+1=radioactive'
p175
aS'w+1=skill'
p176
aS'w+1=small'
p177
aS'w+1=tb'
p178
aS'w+1=technology'
p179
aS'w+1=the'
p180
aS'w+1=through'
p181
aS'w+1=wealth'
p182
aS'w+1=weapon'
p183
aS'w+2=,'
p184
aS'w+2=.'
p185
aS'w+2=Lynch'
p186
aS'w+2=a'
p187
aS'w+2=abroad'
p188
aS'w+2=acre'
p189
aS'w+2=and'
p190
aS'w+2=another'
p191
aS'w+2=arm'
p192
aS'w+2=asset'
p193
aS'w+2=atom'
p194
aS'w+2=baby'
p195
aS'w+2=biological'
p196
aS'w+2=brand'
p197
aS'w+2=capability'
p198
aS'w+2=cattle'
p199
aS'w+2=company'
p200
aS'w+2=complete'
p201
aS'w+2=control'
p202
aS'w+2=develop'
p203
aS'w+2=education'
p204
aS'w+2=enrichment'
p205
aS'w+2=european'
p206
aS'w+2=external'
p207
aS'w+2=for'
p208
aS'w+2=from'
p209
aS'w+2=get'
p210
aS'w+2=hardware'
p211
aS'w+2=help'
p212
aS'w+2=if'
p213
aS'w+2=in'
p214
aS'w+2=it'
p215
aS'w+2=land'
p216
aS'w+2=material'
p217
aS'w+2=missile'
p218
aS'w+2=mortgage'
p219
aS'w+2=new'
p220
aS'w+2=nickname'
p221
aS'w+2=non-transparent'
p222
aS'w+2=nuclear'
p223
aS'w+2=of'
p224
aS'w+2=oil'
p225
aS'w+2=other'
p226
aS'w+2=overseas'
p227
aS'w+2=own'
p228
aS'w+2=part'
p229
aS'w+2=permit'
p230
aS'w+2=phone'
p231
aS'w+2=power'
p232
aS'w+2=residency'
p233
aS'w+2=skill'
p234
aS'w+2=stake'
p235
aS'w+2=technology'
p236
aS'w+2=than'
p237
aS'w+2=that'
p238
aS'w+2=the'
p239
aS'w+2=to'
p240
aS'w+2=tract'
p241
aS'w+2=we'
p242
aS'w+2=weapon'
p243
aS"w-1='s"
p244
aS'w-1=.'
p245
aS'w-1=Earls'
p246
aS'w-1=Flight'
p247
aS'w-1=Iran'
p248
aS'w-1=Iranians'
p249
aS'w-1=Qatar'
p250
aS'w-1=and'
p251
aS'w-1=be'
p252
aS'w-1=become'
p253
aS'w-1=by'
p254
aS'w-1=can'
p255
aS'w-1=contractor'
p256
aS'w-1=could'
p257
aS'w-1=dollar'
p258
aS'w-1=eventually'
p259
aS'w-1=extremist'
p260
aS'w-1=for'
p261
aS'w-1=from'
p262
aS'w-1=government'
p263
aS'w-1=have'
p264
aS'w-1=he'
p265
aS'w-1=illegally'
p266
aS'w-1=in'
p267
aS'w-1=it'
p268
aS'w-1=newly'
p269
aS'w-1=object'
p270
aS'w-1=of'
p271
aS'w-1=on'
p272
aS'w-1=or'
p273
aS'w-1=people'
p274
aS'w-1=recently'
p275
aS'w-1=terrorist'
p276
aS'w-1=they'
p277
aS'w-1=to'
p278
aS'w-1=we'
p279
aS'w-1=will'
p280
aS'w-2=,'
p281
aS'w-2=.'
p282
aS'w-2=70,000'
p283
aS'w-2=Brazil'
p284
aS'w-2=Dr.'
p285
aS'w-2=Iran'
p286
aS'w-2=Moscow'
p287
aS'w-2=Taylor'
p288
aS'w-2=Tehran'
p289
aS'w-2=a'
p290
aS'w-2=able'
p291
aS'w-2=afford'
p292
aS'w-2=allow'
p293
aS'w-2=already'
p294
aS'w-2=and'
p295
aS'w-2=attend'
p296
aS'w-2=be'
p297
aS'w-2=billion'
p298
aS'w-2=but'
p299
aS'w-2=chance'
p300
aS'w-2=company'
p301
aS'w-2=conspiracy'
p302
aS'w-2=currency'
p303
aS'w-2=deal'
p304
aS'w-2=determine'
p305
aS'w-2=difficulty'
p306
aS'w-2=dollar'
p307
aS'w-2=easy'
p308
aS'w-2=for'
p309
aS'w-2=have'
p310
aS'w-2=hell-bent'
p311
aS'w-2=help'
p312
aS'w-2=if'
p313
aS'w-2=incentive'
p314
aS'w-2=it'
p315
aS'w-2=land'
p316
aS'w-2=landowner'
p317
aS'w-2=leader'
p318
aS'w-2=manufacture'
p319
aS'w-2=museum'
p320
aS'w-2=nation'
p321
aS'w-2=neighbor'
p322
aS'w-2=now'
p323
aS'w-2=of'
p324
aS'w-2=only'
p325
aS'w-2=oversea'
p326
aS'w-2=plan'
p327
aS'w-2=push'
p328
aS'w-2=reason'
p329
aS'w-2=risk'
p330
aS'w-2=say'
p331
aS'w-2=science'
p332
aS'w-2=seek'
p333
aS'w-2=separatist'
p334
aS'w-2=she'
p335
aS'w-2=term'
p336
aS'w-2=terrorist'
p337
aS'w-2=that'
p338
aS'w-2=the'
p339
aS'w-2=they'
p340
aS'w-2=try'
p341
aS'w-2=want'
p342
aS'w-2=we'
p343
aS'w-2=website'
p344
aS'w-2=what'
p345
aS'w-2=where'
p346
aS'w-2=which'
p347
aS'w-2=will'
p348
aS'w-2=year'
p349
aS'xcomp=build'
p350
aS'xcomp=catch'
p351
aS'xcomp=create'
p352
aS'xcomp=enrich'
p353
aS'xcomp=establish'
p354
aS'xcomp=get'
p355
aS'xcomp=put'
p356
asS'dtype'
p357
cnumpy
float64
p358
sS'vocabulary_'
p359
(dp360
g298
I289
sg70
I61
sg343
I334
sg211
I202
sg227
I218
sg287
I278
sg109
I100
sg340
I331
sg206
I197
sg296
I287
sg118
I109
sg66
I57
sg61
I52
sg323
I314
sg144
I135
sg344
I335
sg155
I146
sg280
I271
sg254
I245
sg252
I243
sg248
I239
sg339
I330
sg346
I337
sg289
I280
sg269
I260
sg330
I321
sg157
I148
sg50
I41
sg64
I55
sg223
I214
sg234
I225
sg240
I231
sg169
I160
sg81
I72
sg264
I255
sg213
I204
sg214
I205
sg215
I206
sg325
I316
sg257
I248
sg253
I244
sg25
I16
sg35
I26
sg167
I158
sg326
I317
sg350
I341
sg338
I329
sg180
I171
sg332
I323
sg309
I300
sg121
I112
sg329
I320
sg318
I309
sg140
I131
sg216
I207
sg197
I188
sg104
I95
sg235
I226
sg133
I124
sg262
I253
sg80
I71
sg9
I0
sg354
I345
sg159
I150
sg87
I78
sg14
I5
sg138
I129
sg68
I59
sg65
I56
sg67
I58
sg46
I37
sg88
I79
sg250
I241
sg208
I199
sg303
I294
sg171
I162
sg266
I257
sg139
I130
sg268
I259
sg195
I186
sg267
I258
sg242
I233
sg198
I189
sg37
I28
sg333
I324
sg89
I80
sg90
I81
sg93
I84
sg232
I223
sg200
I191
sg23
I14
sg334
I325
sg123
I114
sg79
I70
sg115
I106
sg324
I315
sg146
I137
sg278
I269
sg16
I7
sg336
I327
sg314
I305
sg356
I347
sg233
I224
sg103
I94
sg124
I115
sg141
I132
sg60
I51
sg74
I65
sg85
I76
sg152
I143
sg352
I343
sg42
I33
sg92
I83
sg162
I153
sg255
I246
sg291
I282
sg181
I172
sg300
I291
sg31
I22
sg196
I187
sg228
I219
sg52
I43
sg183
I174
sg84
I75
sg335
I326
sg119
I110
sg225
I216
sg40
I31
sg153
I144
sg30
I21
sg244
I235
sg13
I4
sg59
I50
sg131
I122
sg106
I97
sg29
I20
sg201
I192
sg156
I147
sg256
I247
sg192
I183
sg91
I82
sg158
I149
sg114
I105
sg274
I265
sg55
I46
sg20
I11
sg316
I307
sg293
I284
sg63
I54
sg301
I292
sg11
I2
sg224
I215
sg178
I169
sg49
I40
sg251
I242
sg54
I45
sg221
I212
sg229
I220
sg129
I120
sg209
I200
sg143
I134
sg34
I25
sg337
I328
sg149
I140
sg51
I42
sg286
I277
sg347
I338
sg327
I318
sg174
I165
sg38
I29
sg236
I227
sg127
I118
sg69
I60
sg58
I49
sg302
I293
sg15
I6
sg220
I211
sg48
I39
sg285
I276
sg10
I1
sg319
I310
sg191
I182
sg107
I98
sg128
I119
sg33
I24
sg304
I295
sg179
I170
sg247
I238
sg313
I304
sg276
I267
sg275
I266
sg321
I312
sg96
I87
sg315
I306
sg168
I159
sg99
I90
sg150
I141
sg173
I164
sg193
I184
sg102
I93
sg44
I35
sg170
I161
sg43
I34
sg294
I285
sg305
I296
sg212
I203
sg222
I213
sg284
I275
sg231
I222
sg18
I9
sg310
I301
sg355
I346
sg32
I23
sg147
I138
sg12
I3
sg83
I74
sg145
I136
sg142
I133
sg203
I194
sg175
I166
sg57
I48
sg108
I99
sg154
I145
sg135
I126
sg95
I86
sg72
I63
sg210
I201
sg47
I38
sg26
I17
sg243
I234
sg45
I36
sg137
I128
sg172
I163
sg113
I104
sg41
I32
sg111
I102
sg56
I47
sg176
I167
sg110
I101
sg246
I237
sg297
I288
sg132
I123
sg322
I313
sg194
I185
sg17
I8
sg122
I113
sg218
I209
sg249
I240
sg283
I274
sg112
I103
sg182
I173
sg320
I311
sg21
I12
sg259
I250
sg237
I228
sg177
I168
sg353
I344
sg238
I229
sg345
I336
sg272
I263
sg342
I333
sg273
I264
sg189
I180
sg160
I151
sg271
I262
sg190
I181
sg295
I286
sg308
I299
sg258
I249
sg260
I251
sg341
I332
sg19
I10
sg125
I116
sg166
I157
sg165
I156
sg94
I85
sg331
I322
sg239
I230
sg117
I108
sg348
I339
sg116
I107
sg281
I272
sg282
I273
sg27
I18
sg299
I290
sg207
I198
sg245
I236
sg105
I96
sg217
I208
sg86
I77
sg188
I179
sg163
I154
sg126
I117
sg98
I89
sg202
I193
sg148
I139
sg290
I281
sg277
I268
sg306
I297
sg75
I66
sg265
I256
sg161
I152
sg71
I62
sg351
I342
sg241
I232
sg292
I283
sg36
I27
sg349
I340
sg205
I196
sg219
I210
sg78
I69
sg100
I91
sg230
I221
sg263
I254
sg62
I53
sg270
I261
sg120
I111
sg226
I217
sg312
I303
sg151
I142
sg279
I270
sg28
I19
sg53
I44
sg199
I190
sg82
I73
sg186
I177
sg328
I319
sg164
I155
sg77
I68
sg97
I88
sg261
I252
sg130
I121
sg288
I279
sg73
I64
sg185
I176
sg184
I175
sg136
I127
sg76
I67
sg39
I30
sg307
I298
sg22
I13
sg317
I308
sg101
I92
sg134
I125
sg311
I302
sg204
I195
sg24
I15
sg187
I178
ssS'separator'
p361
S'='
sS'sparse'
p362
I01
sb.