ccopy_reg
_reconstructor
p1
(csklearn.feature_extraction.dict_vectorizer
DictVectorizer
p2
c__builtin__
object
p3
NtRp4
(dp5
S'sort'
p6
I01
sS'feature_names_'
p7
(lp8
S'advmod=at'
p9
aS'advmod=even'
p10
aS'advmod=first'
p11
aS'advmod=here'
p12
aS'advmod=notably'
p13
aS'advmod=sometimes'
p14
aS'advmod=very'
p15
aS'amod=#NUMBER#'
p16
aS'amod=act'
p17
aS'amod=adult'
p18
aS'amod=affluent'
p19
aS'amod=all-boy'
p20
aS'amod=chatter'
p21
aS'amod=different'
p22
aS'amod=eager'
p23
aS'amod=economic'
p24
aS'amod=educate'
p25
aS'amod=educational'
p26
aS'amod=elite'
p27
aS'amod=emerge'
p28
aS'amod=english'
p29
aS'amod=english-language'
p30
aS'amod=entrepreneurial'
p31
aS'amod=few'
p32
aS'amod=first'
p33
aS'amod=free'
p34
aS'amod=graduate'
p35
aS'amod=heavyweight'
p36
aS'amod=islamic'
p37
aS'amod=large'
p38
aS'amod=lower'
p39
aS'amod=lowest'
p40
aS'amod=middle'
p41
aS'amod=monthly'
p42
aS'amod=new'
p43
aS'amod=non-core'
p44
aS'amod=own'
p45
aS'amod=polish'
p46
aS'amod=political'
p47
aS'amod=popular'
p48
aS'amod=primary'
p49
aS'amod=privileged'
p50
aS'amod=professional'
p51
aS'amod=recent'
p52
aS'amod=religious'
p53
aS'amod=remedial'
p54
aS'amod=republican'
p55
aS'amod=require'
p56
aS'amod=sew'
p57
aS'amod=single'
p58
aS'amod=tailor'
p59
aS'amod=upcoming'
p60
aS'amod=upper'
p61
aS'amod=upper-middle'
p62
aS'amod=various'
p63
aS'amod=weekly'
p64
aS'amod=whole'
p65
aS'amod=work'
p66
aS'appos=fight'
p67
aS'appos=hour'
p68
aS'appos=who'
p69
aS'aux=to'
p70
aS'auxpass=be'
p71
aS'cc=and'
p72
aS'cc=or'
p73
aS'complm=that'
p74
aS'conj=any'
p75
aS'conj=army'
p76
aS'conj=benefit'
p77
aS'conj=caste'
p78
aS'conj=color'
p79
aS'conj=day'
p80
aS'conj=exercise'
p81
aS'conj=integrity'
p82
aS'conj=many'
p83
aS'conj=poor'
p84
aS'conj=population'
p85
aS'conj=take'
p86
aS'conj=the'
p87
aS'conj=voter'
p88
aS'cop=be'
p89
aS'dep=arrive'
p90
aS'dep=be'
p91
aS'dep=change'
p92
aS'dep=each'
p93
aS'dep=though'
p94
aS'det=a'
p95
aS'det=all'
p96
aS'det=another'
p97
aS'det=that'
p98
aS'det=the'
p99
aS'det=this'
p100
aS'dobj=#NUMBER#'
p101
aS'nn=Art'
p102
aS'nn=English'
p103
aS'nn=Hajj'
p104
aS'nn=aerobic'
p105
aS'nn=afternoon'
p106
aS'nn=art'
p107
aS'nn=coed'
p108
aS'nn=cooking'
p109
aS'nn=dance'
p110
aS'nn=drama'
p111
aS'nn=education'
p112
aS'nn=evening'
p113
aS'nn=freshman'
p114
aS'nn=gender'
p115
aS'nn=history'
p116
aS'nn=hobbyist'
p117
aS'nn=language'
p118
aS'nn=meditation'
p119
aS'nn=memory'
p120
aS'nn=merchant'
p121
aS'nn=middle'
p122
aS'nn=parenting'
p123
aS'nn=rowing'
p124
aS'nn=ruling'
p125
aS'nn=sex'
p126
aS'nn=slave'
p127
aS'nn=training'
p128
aS'nn=typing'
p129
aS'nn=weight'
p130
aS'nn=world'
p131
aS'nsubj=#PRP#'
p132
aS'nsubj=more'
p133
aS'nsubj=opportunity'
p134
aS'nsubj=this'
p135
aS'nsubjpass=professional'
p136
aS'nsubjpass=tornado'
p137
aS'num=#NUMBER#'
p138
aS'partmod=accuse'
p139
aS'partmod=base'
p140
aS'partmod=contain'
p141
aS'partmod=offer'
p142
aS'poss=#PRP#'
p143
aS'poss=India'
p144
aS'poss=Pakistan'
p145
aS'poss=Schnabel'
p146
aS'poss=Thailand'
p147
aS'poss=country'
p148
aS'poss=nation'
p149
aS'prep=among'
p150
aS'prep=as'
p151
aS'prep=at'
p152
aS'prep=for'
p153
aS'prep=from'
p154
aS'prep=in'
p155
aS'prep=of'
p156
aS'prep=on'
p157
aS'prep=since'
p158
aS'prep=through'
p159
aS'rcmod=accuse'
p160
aS'rcmod=by-product'
p161
aS'rcmod=citizen'
p162
aS'rcmod=democracy'
p163
aS'rcmod=despise'
p164
aS'rcmod=employ'
p165
aS'rcmod=experience'
p166
aS'rcmod=fuel'
p167
aS'rcmod=know'
p168
aS'rcmod=lesson'
p169
aS'rcmod=live'
p170
aS'rcmod=reach'
p171
aS'rcmod=resent'
p172
aS'rcmod=say'
p173
aS'rcmod=support'
p174
aS"w+1=''"
p175
aS'w+1=,'
p176
aS'w+1=-'
p177
aS'w+1=--'
p178
aS'w+1=.'
p179
aS'w+1=:'
p180
aS'w+1=;'
p181
aS'w+1=?'
p182
aS'w+1=Americans'
p183
aS'w+1=New'
p184
aS'w+1=Palestinians'
p185
aS'w+1=a'
p186
aS'w+1=accuse'
p187
aS'w+1=agenda'
p188
aS'w+1=american'
p189
aS'w+1=and'
p190
aS'w+1=area'
p191
aS'w+1=as'
p192
aS'w+1=at'
p193
aS'w+1=athlete'
p194
aS'w+1=background'
p195
aS'w+1=be'
p196
aS'w+1=buyer'
p197
aS'w+1=c'
p198
aS'w+1=can'
p199
aS'w+1=citizen'
p200
aS'w+1=clash'
p201
aS'w+1=community'
p202
aS'w+1=conflict'
p203
aS'w+1=consider'
p204
aS'w+1=contain'
p205
aS'w+1=continue'
p206
aS'w+1=democrat'
p207
aS'w+1=discussion'
p208
aS'w+1=do'
p209
aS'w+1=each'
p210
aS'w+1=education'
p211
aS'w+1=effort'
p212
aS'w+1=event'
p213
aS'w+1=family'
p214
aS'w+1=feel'
p215
aS'w+1=for'
p216
aS'w+1=form'
p217
aS'w+1=formation'
p218
aS'w+1=french'
p219
aS'w+1=from'
p220
aS'w+1=grandparent'
p221
aS'w+1=grow'
p222
aS'w+1=have'
p223
aS'w+1=he'
p224
aS'w+1=here'
p225
aS'w+1=in'
p226
aS'w+1=into'
p227
aS'w+1=investor'
p228
aS'w+1=level'
p229
aS'w+1=life'
p230
aS'w+1=line'
p231
aS'w+1=man'
p232
aS'w+1=of'
p233
aS'w+1=offer'
p234
aS'w+1=on'
p235
aS'w+1=or'
p236
aS'w+1=out'
p237
aS'w+1=people'
p238
aS'w+1=press'
p239
aS'w+1=professional'
p240
aS'w+1=range'
p241
aS'w+1=restart'
p242
aS'w+1=root'
p243
aS'w+1=segment'
p244
aS'w+1=service'
p245
aS'w+1=since'
p246
aS'w+1=size'
p247
aS'w+1=so'
p248
aS'w+1=sportsman'
p249
aS'w+1=stage'
p250
aS'w+1=still'
p251
aS'w+1=tax'
p252
aS'w+1=taxpayer'
p253
aS'w+1=teach'
p254
aS'w+1=team'
p255
aS'w+1=that'
p256
aS'w+1=there'
p257
aS'w+1=they'
p258
aS'w+1=through'
p259
aS'w+1=time'
p260
aS'w+1=to'
p261
aS'w+1=together'
p262
aS'w+1=too'
p263
aS'w+1=total'
p264
aS'w+1=tourist'
p265
aS'w+1=treatment'
p266
aS'w+1=undecided'
p267
aS'w+1=voter'
p268
aS'w+1=when'
p269
aS'w+1=where'
p270
aS'w+1=white'
p271
aS'w+1=who'
p272
aS'w+1=whom'
p273
aS'w+1=will'
p274
aS'w+1=with'
p275
aS'w+1=work'
p276
aS'w+1=worker'
p277
aS'w+1=yoga'
p278
aS'w+1=you'
p279
aS"w+2='"
p280
aS"w+2=''"
p281
aS'w+2=,'
p282
aS'w+2=.'
p283
aS'w+2=20'
p284
aS'w+2=2003'
p285
aS'w+2=Aceh'
p286
aS'w+2=Barnard'
p287
aS'w+2=China'
p288
aS'w+2=Dr.'
p289
aS'w+2=England'
p290
aS'w+2=English'
p291
aS'w+2=Fatick'
p292
aS'w+2=Harvard'
p293
aS'w+2=I'
p294
aS'w+2=Islam'
p295
aS'w+2=Mohamed'
p296
aS'w+2=Morocco'
p297
aS'w+2=Mr.'
p298
aS'w+2=New'
p299
aS'w+2=Santa'
p300
aS'w+2=Sydney'
p301
aS'w+2=Virginia'
p302
aS'w+2=West'
p303
aS'w+2=a'
p304
aS'w+2=access'
p305
aS'w+2=administrator'
p306
aS'w+2=afford'
p307
aS'w+2=already'
p308
aS'w+2=among'
p309
aS'w+2=and'
p310
aS'w+2=as'
p311
aS'w+2=attack'
p312
aS'w+2=back'
p313
aS'w+2=be'
p314
aS'w+2=because'
p315
aS'w+2=both'
p316
aS'w+2=boy'
p317
aS'w+2=business'
p318
aS'w+2=but'
p319
aS'w+2=buy'
p320
aS'w+2=by'
p321
aS'w+2=caste'
p322
aS'w+2=challenge'
p323
aS'w+2=chemical'
p324
aS'w+2=color'
p325
aS'w+2=could'
p326
aS'w+2=cut'
p327
aS'w+2=destination'
p328
aS'w+2=display'
p329
aS'w+2=distracting'
p330
aS'w+2=divert'
p331
aS'w+2=drug'
p332
aS'w+2=each'
p333
aS'w+2=eager'
p334
aS'w+2=eat'
p335
aS'w+2=embroidery'
p336
aS'w+2=essential'
p337
aS'w+2=f-5'
p338
aS'w+2=few'
p339
aS'w+2=fight'
p340
aS'w+2=fill'
p341
aS'w+2=follow'
p342
aS'w+2=from'
p343
aS'w+2=grow'
p344
aS'w+2=have'
p345
aS'w+2=he'
p346
aS'w+2=help'
p347
aS'w+2=high'
p348
aS'w+2=hike'
p349
aS'w+2=hold'
p350
aS'w+2=how'
p351
aS'w+2=if'
p352
aS'w+2=in'
p353
aS'w+2=include'
p354
aS'w+2=increase'
p355
aS'w+2=inform'
p356
aS'w+2=inherit'
p357
aS'w+2=inmate'
p358
aS'w+2=integrity'
p359
aS'w+2=it'
p360
aS'w+2=know'
p361
aS'w+2=leadership'
p362
aS'w+2=learn'
p363
aS'w+2=live'
p364
aS'w+2=many'
p365
aS'w+2=most'
p366
aS'w+2=multiply'
p367
aS'w+2=not'
p368
aS'w+2=now'
p369
aS'w+2=of'
p370
aS'w+2=offer'
p371
aS'w+2=on'
p372
aS'w+2=one'
p373
aS'w+2=or'
p374
aS'w+2=over'
p375
aS'w+2=overcrowded'
p376
aS'w+2=people'
p377
aS'w+2=physics'
p378
aS'w+2=poor'
p379
aS'w+2=provide'
p380
aS'w+2=provider'
p381
aS'w+2=pull'
p382
aS'w+2=reach'
p383
aS'w+2=refugee'
p384
aS'w+2=represent'
p385
aS'w+2=resort'
p386
aS'w+2=restavek'
p387
aS'w+2=rich'
p388
aS'w+2=say'
p389
aS'w+2=seeSenator'
p390
aS'w+2=she'
p391
aS'w+2=show'
p392
aS'w+2=similar'
p393
aS'w+2=so-called'
p394
aS'w+2=social'
p395
aS'w+2=spend'
p396
aS'w+2=start'
p397
aS'w+2=still'
p398
aS'w+2=student'
p399
aS'w+2=study'
p400
aS'w+2=suburb'
p401
aS'w+2=suppose'
p402
aS'w+2=teach'
p403
aS'w+2=that'
p404
aS'w+2=the'
p405
aS'w+2=these'
p406
aS'w+2=they'
p407
aS'w+2=think'
p408
aS'w+2=this'
p409
aS'w+2=those'
p410
aS'w+2=three'
p411
aS'w+2=through'
p412
aS'w+2=to'
p413
aS'w+2=today'
p414
aS'w+2=together'
p415
aS'w+2=turn'
p416
aS'w+2=unwittingly'
p417
aS'w+2=urban'
p418
aS'w+2=voter'
p419
aS'w+2=well'
p420
aS'w+2=what'
p421
aS'w+2=where'
p422
aS'w+2=which'
p423
aS'w+2=while'
p424
aS'w+2=who'
p425
aS'w+2=with'
p426
aS'w+2=would'
p427
aS'w+2=young'
p428
aS"w-1='s"
p429
aS'w-1=,'
p430
aS'w-1=.'
p431
aS'w-1=11'
p432
aS'w-1=Art'
p433
aS'w-1=English'
p434
aS'w-1=Hajj'
p435
aS'w-1=a'
p436
aS'w-1=across'
p437
aS'w-1=act'
p438
aS'w-1=aerobic'
p439
aS'w-1=affluent'
p440
aS'w-1=afternoon'
p441
aS'w-1=all'
p442
aS'w-1=all-boy'
p443
aS'w-1=along'
p444
aS'w-1=and'
p445
aS'w-1=another'
p446
aS'w-1=art'
p447
aS'w-1=at'
p448
aS'w-1=attend'
p449
aS'w-1=backward'
p450
aS'w-1=be'
p451
aS'w-1=business'
p452
aS'w-1=cancel'
p453
aS'w-1=chatter'
p454
aS'w-1=coed'
p455
aS'w-1=cooking'
p456
aS'w-1=dance'
p457
aS'w-1=different'
p458
aS'w-1=drama'
p459
aS'w-1=educate'
p460
aS'w-1=educational'
p461
aS'w-1=elite'
p462
aS'w-1=emerge'
p463
aS'w-1=english'
p464
aS'w-1=english-language'
p465
aS'w-1=entrepreneurial'
p466
aS'w-1=exercise'
p467
aS'w-1=first'
p468
aS'w-1=for'
p469
aS'w-1=four'
p470
aS'w-1=freshman'
p471
aS'w-1=from'
p472
aS'w-1=gender'
p473
aS'w-1=graduate'
p474
aS'w-1=gym'
p475
aS'w-1=heavyweight'
p476
aS'w-1=history'
p477
aS'w-1=hobbyist'
p478
aS'w-1=hold'
p479
aS'w-1=in'
p480
aS'w-1=increase'
p481
aS'w-1=language'
p482
aS'w-1=large'
p483
aS'w-1=lower'
p484
aS'w-1=lower-middle'
p485
aS'w-1=lowest'
p486
aS'w-1=meditation'
p487
aS'w-1=memory'
p488
aS'w-1=merchant'
p489
aS'w-1=middle'
p490
aS'w-1=monthly'
p491
aS'w-1=new'
p492
aS'w-1=non-core'
p493
aS'w-1=of'
p494
aS'w-1=offer'
p495
aS'w-1=once'
p496
aS'w-1=one'
p497
aS'w-1=own'
p498
aS'w-1=parenting'
p499
aS'w-1=per'
p500
aS'w-1=polish'
p501
aS'w-1=political'
p502
aS'w-1=popular'
p503
aS'w-1=privileged'
p504
aS'w-1=professional'
p505
aS'w-1=recent'
p506
aS'w-1=religious'
p507
aS'w-1=remedial'
p508
aS'w-1=require'
p509
aS'w-1=rowing'
p510
aS'w-1=ruling'
p511
aS'w-1=say'
p512
aS'w-1=second'
p513
aS'w-1=sew'
p514
aS'w-1=sex'
p515
aS'w-1=she'
p516
aS'w-1=slave'
p517
aS'w-1=social'
p518
aS'w-1=sometimes'
p519
aS'w-1=space-to-earth'
p520
aS'w-1=tailor'
p521
aS'w-1=take'
p522
aS'w-1=the'
p523
aS'w-1=this'
p524
aS'w-1=to'
p525
aS'w-1=training'
p526
aS'w-1=typing'
p527
aS'w-1=upcoming'
p528
aS'w-1=upper'
p529
aS'w-1=upper-middle'
p530
aS'w-1=we'
p531
aS'w-1=weekly'
p532
aS'w-1=weight'
p533
aS'w-1=whole'
p534
aS'w-1=with'
p535
aS'w-1=work'
p536
aS'w-1=world'
p537
aS"w-2=''"
p538
aS"w-2='s"
p539
aS'w-2=,'
p540
aS'w-2=-rrb-'
p541
aS'w-2=.'
p542
aS'w-2=11'
p543
aS'w-2=1997'
p544
aS'w-2=9'
p545
aS'w-2=Schnabel'
p546
aS'w-2=a'
p547
aS'w-2=affect'
p548
aS'w-2=affluent'
p549
aS'w-2=after'
p550
aS'w-2=american'
p551
aS'w-2=among'
p552
aS'w-2=and'
p553
aS'w-2=apart'
p554
aS'w-2=as'
p555
aS'w-2=asleep'
p556
aS'w-2=assignment'
p557
aS'w-2=at'
p558
aS'w-2=attend'
p559
aS'w-2=back'
p560
aS'w-2=be'
p561
aS'w-2=because'
p562
aS'w-2=believe'
p563
aS'w-2=bit'
p564
aS'w-2=black'
p565
aS'w-2=cake'
p566
aS'w-2=child'
p567
aS'w-2=choose'
p568
aS'w-2=clinic'
p569
aS'w-2=color'
p570
aS'w-2=come'
p571
aS'w-2=cultural'
p572
aS'w-2=cut'
p573
aS'w-2=daughter'
p574
aS'w-2=day'
p575
aS'w-2=educate'
p576
aS'w-2=enrol'
p577
aS'w-2=entire'
p578
aS'w-2=establish'
p579
aS'w-2=evening'
p580
aS'w-2=expand'
p581
aS'w-2=fairly'
p582
aS'w-2=few'
p583
aS'w-2=find'
p584
aS'w-2=finish'
p585
aS'w-2=fly'
p586
aS'w-2=for'
p587
aS'w-2=from'
p588
aS'w-2=gender'
p589
aS'w-2=go'
p590
aS'w-2=grade'
p591
aS'w-2=grow'
p592
aS'w-2=hard-working'
p593
aS'w-2=have'
p594
aS'w-2=he'
p595
aS'w-2=hold'
p596
aS'w-2=hope'
p597
aS'w-2=host'
p598
aS'w-2=house'
p599
aS'w-2=huge'
p600
aS'w-2=importance'
p601
aS'w-2=in'
p602
aS'w-2=instructor'
p603
aS'w-2=instrument'
p604
aS'w-2=interrupt'
p605
aS'w-2=into'
p606
aS'w-2=islamic'
p607
aS'w-2=it'
p608
aS'w-2=its'
p609
aS'w-2=large'
p610
aS'w-2=lower'
p611
aS'w-2=many'
p612
aS'w-2=million'
p613
aS'w-2=million-strong'
p614
aS'w-2=most'
p615
aS'w-2=my'
p616
aS'w-2=new'
p617
aS'w-2=of'
p618
aS'w-2=offer'
p619
aS'w-2=offering'
p620
aS'w-2=officer'
p621
aS'w-2=on'
p622
aS'w-2=or'
p623
aS'w-2=other'
p624
aS'w-2=over'
p625
aS'w-2=primarily'
p626
aS'w-2=primary'
p627
aS'w-2=produce'
p628
aS'w-2=professional'
p629
aS'w-2=pupil'
p630
aS'w-2=race'
p631
aS'w-2=receive'
p632
aS'w-2=register'
p633
aS'w-2=regularly'
p634
aS'w-2=republican'
p635
aS'w-2=resurgent'
p636
aS'w-2=return'
p637
aS'w-2=rise'
p638
aS'w-2=say'
p639
aS'w-2=seminar'
p640
aS'w-2=she'
p641
aS'w-2=significantly'
p642
aS'w-2=similar'
p643
aS'w-2=single'
p644
aS'w-2=six'
p645
aS'w-2=special'
p646
aS'w-2=start'
p647
aS'w-2=student'
p648
aS'w-2=super'
p649
aS'w-2=take'
p650
aS'w-2=teach'
p651
aS'w-2=that'
p652
aS'w-2=the'
p653
aS'w-2=these'
p654
aS'w-2=they'
p655
aS'w-2=this'
p656
aS'w-2=those'
p657
aS'w-2=to'
p658
aS'w-2=type'
p659
aS'w-2=upper'
p660
aS'w-2=urban'
p661
aS'w-2=various'
p662
aS'w-2=very'
p663
aS'w-2=walk'
p664
aS'w-2=we'
p665
aS'w-2=white'
p666
aS'w-2=will'
p667
aS'w-2=win'
p668
aS'w-2=with'
p669
asS'dtype'
p670
cnumpy
float64
p671
sS'vocabulary_'
p672
(dp673
g67
I58
sg509
I500
sg665
I656
sg339
I330
sg557
I548
sg217
I208
sg337
I328
sg599
I590
sg486
I477
sg319
I310
sg35
I26
sg229
I220
sg320
I311
sg221
I212
sg619
I610
sg211
I202
sg589
I580
sg617
I608
sg306
I297
sg96
I87
sg460
I451
sg655
I646
sg559
I550
sg277
I268
sg256
I247
sg592
I583
sg145
I136
sg464
I455
sg549
I540
sg401
I392
sg336
I327
sg554
I545
sg512
I503
sg367
I358
sg147
I138
sg10
I1
sg296
I287
sg492
I483
sg75
I66
sg628
I619
sg400
I391
sg588
I579
sg263
I254
sg435
I426
sg49
I40
sg93
I84
sg659
I650
sg348
I339
sg162
I153
sg234
I225
sg28
I19
sg583
I574
sg451
I442
sg552
I543
sg309
I300
sg206
I197
sg291
I282
sg214
I205
sg653
I644
sg253
I244
sg358
I349
sg566
I557
sg638
I629
sg53
I44
sg233
I224
sg202
I193
sg413
I404
sg649
I640
sg612
I603
sg230
I221
sg447
I438
sg236
I227
sg428
I419
sg505
I496
sg535
I526
sg394
I385
sg530
I521
sg453
I444
sg437
I428
sg51
I42
sg352
I343
sg94
I85
sg111
I102
sg110
I101
sg421
I412
sg360
I351
sg597
I588
sg54
I45
sg312
I303
sg425
I416
sg586
I577
sg455
I446
sg513
I504
sg74
I65
sg238
I229
sg252
I243
sg9
I0
sg175
I166
sg30
I21
sg481
I472
sg321
I312
sg651
I642
sg587
I578
sg314
I305
sg258
I249
sg598
I589
sg38
I29
sg119
I110
sg514
I505
sg278
I269
sg414
I405
sg155
I146
sg503
I494
sg139
I130
sg515
I506
sg216
I207
sg643
I634
sg398
I389
sg387
I378
sg42
I33
sg631
I622
sg194
I185
sg177
I168
sg222
I213
sg472
I463
sg381
I372
sg68
I59
sg125
I116
sg143
I134
sg190
I181
sg508
I499
sg308
I299
sg355
I346
sg351
I342
sg396
I387
sg397
I388
sg461
I452
sg371
I362
sg474
I465
sg12
I3
sg114
I105
sg646
I637
sg565
I556
sg534
I525
sg100
I91
sg406
I397
sg480
I471
sg265
I256
sg169
I160
sg405
I396
sg541
I532
sg523
I514
sg64
I55
sg79
I70
sg262
I253
sg356
I347
sg584
I575
sg78
I69
sg369
I360
sg368
I359
sg165
I156
sg163
I154
sg39
I30
sg137
I128
sg438
I429
sg16
I7
sg543
I534
sg287
I278
sg563
I554
sg99
I90
sg576
I567
sg440
I431
sg412
I403
sg661
I652
sg611
I602
sg537
I528
sg285
I276
sg623
I614
sg200
I191
sg128
I119
sg504
I495
sg618
I609
sg122
I113
sg444
I435
sg199
I190
sg197
I188
sg506
I497
sg622
I613
sg525
I516
sg255
I246
sg468
I459
sg243
I234
sg141
I132
sg317
I308
sg115
I106
sg279
I270
sg567
I558
sg470
I461
sg244
I235
sg20
I11
sg149
I140
sg251
I242
sg467
I458
sg305
I296
sg650
I641
sg424
I415
sg192
I183
sg193
I184
sg432
I423
sg630
I621
sg104
I95
sg47
I38
sg498
I489
sg213
I204
sg632
I623
sg25
I16
sg600
I591
sg259
I250
sg24
I15
sg573
I564
sg315
I306
sg411
I402
sg490
I481
sg475
I466
sg270
I261
sg36
I27
sg378
I369
sg32
I23
sg641
I632
sg153
I144
sg18
I9
sg664
I655
sg376
I367
sg441
I432
sg500
I491
sg289
I280
sg609
I600
sg521
I512
sg422
I413
sg311
I302
sg174
I165
sg354
I345
sg496
I487
sg164
I155
sg518
I509
sg456
I447
sg364
I355
sg61
I52
sg71
I62
sg497
I488
sg429
I420
sg326
I317
sg90
I81
sg476
I467
sg625
I616
sg166
I157
sg483
I474
sg80
I71
sg302
I293
sg579
I570
sg389
I380
sg556
I547
sg212
I203
sg113
I104
sg257
I248
sg388
I379
sg342
I333
sg88
I79
sg544
I535
sg189
I180
sg644
I635
sg391
I382
sg408
I399
sg297
I288
sg109
I100
sg299
I290
sg325
I316
sg533
I524
sg426
I417
sg390
I381
sg50
I41
sg392
I383
sg420
I411
sg349
I340
sg520
I511
sg626
I617
sg462
I453
sg629
I620
sg183
I174
sg22
I13
sg144
I135
sg454
I445
sg374
I365
sg489
I480
sg538
I529
sg135
I126
sg370
I361
sg14
I5
sg550
I541
sg572
I563
sg328
I319
sg261
I252
sg98
I89
sg55
I46
sg445
I436
sg264
I255
sg248
I239
sg15
I6
sg568
I559
sg465
I456
sg585
I576
sg344
I335
sg362
I353
sg46
I37
sg501
I492
sg382
I373
sg130
I121
sg121
I112
sg295
I286
sg471
I462
sg380
I371
sg172
I163
sg386
I377
sg290
I281
sg516
I507
sg26
I17
sg343
I334
sg478
I469
sg607
I598
sg140
I131
sg574
I565
sg330
I321
sg359
I350
sg33
I24
sg322
I313
sg605
I596
sg271
I262
sg590
I581
sg188
I179
sg40
I31
sg97
I88
sg81
I72
sg606
I597
sg410
I401
sg108
I99
sg219
I210
sg379
I370
sg409
I400
sg246
I237
sg195
I186
sg116
I107
sg21
I12
sg526
I517
sg417
I408
sg560
I551
sg120
I111
sg482
I473
sg284
I275
sg613
I604
sg19
I10
sg637
I628
sg43
I34
sg375
I366
sg383
I374
sg669
I660
sg419
I410
sg365
I356
sg124
I115
sg161
I152
sg463
I454
sg85
I76
sg434
I425
sg73
I64
sg69
I60
sg645
I636
sg602
I593
sg208
I199
sg207
I198
sg377
I368
sg65
I56
sg635
I626
sg231
I222
sg191
I182
sg173
I164
sg575
I566
sg591
I582
sg608
I599
sg581
I572
sg666
I657
sg218
I209
sg272
I263
sg223
I214
sg570
I561
sg495
I486
sg571
I562
sg347
I338
sg604
I595
sg546
I537
sg138
I129
sg245
I236
sg281
I272
sg524
I515
sg620
I611
sg657
I648
sg11
I2
sg44
I35
sg491
I482
sg385
I376
sg648
I639
sg313
I304
sg488
I479
sg232
I223
sg578
I569
sg300
I291
sg332
I323
sg41
I32
sg536
I527
sg511
I502
sg569
I560
sg23
I14
sg594
I585
sg60
I51
sg72
I63
sg636
I627
sg334
I325
sg393
I384
sg527
I518
sg83
I74
sg274
I265
sg196
I187
sg63
I54
sg452
I443
sg532
I523
sg399
I390
sg82
I73
sg225
I216
sg178
I169
sg133
I124
sg487
I478
sg615
I606
sg226
I217
sg402
I393
sg235
I226
sg132
I123
sg363
I354
sg184
I175
sg267
I258
sg660
I651
sg227
I218
sg171
I162
sg268
I259
sg45
I36
sg341
I332
sg522
I513
sg101
I92
sg449
I440
sg582
I573
sg134
I125
sg160
I151
sg507
I498
sg327
I318
sg338
I329
sg228
I219
sg203
I194
sg247
I238
sg493
I484
sg654
I645
sg395
I386
sg288
I279
sg466
I457
sg616
I607
sg423
I414
sg561
I552
sg473
I464
sg156
I147
sg59
I50
sg157
I148
sg276
I267
sg293
I284
sg350
I341
sg499
I490
sg107
I98
sg103
I94
sg58
I49
sg469
I460
sg86
I77
sg316
I307
sg84
I75
sg237
I228
sg106
I97
sg66
I57
sg76
I67
sg603
I594
sg57
I48
sg404
I395
sg301
I292
sg596
I587
sg92
I83
sg366
I357
sg105
I96
sg118
I109
sg353
I344
sg642
I633
sg415
I406
sg201
I192
sg553
I544
sg333
I324
sg548
I539
sg443
I434
sg372
I363
sg439
I430
sg494
I485
sg340
I331
sg610
I601
sg658
I649
sg310
I301
sg91
I82
sg180
I171
sg273
I264
sg502
I493
sg62
I53
sg89
I80
sg510
I501
sg477
I468
sg418
I409
sg595
I586
sg158
I149
sg539
I530
sg48
I39
sg275
I266
sg458
I449
sg593
I584
sg639
I630
sg427
I418
sg152
I143
sg667
I658
sg151
I142
sg250
I241
sg540
I531
sg542
I533
sg346
I337
sg450
I441
sg292
I283
sg545
I536
sg329
I320
sg150
I141
sg431
I422
sg430
I421
sg112
I103
sg564
I555
sg123
I114
sg29
I20
sg446
I437
sg558
I549
sg555
I546
sg126
I117
sg433
I424
sg159
I150
sg187
I178
sg27
I18
sg373
I364
sg624
I615
sg52
I43
sg205
I196
sg77
I68
sg485
I476
sg403
I394
sg416
I407
sg547
I538
sg303
I294
sg95
I86
sg436
I427
sg242
I233
sg260
I251
sg239
I230
sg56
I47
sg621
I612
sg210
I201
sg551
I542
sg640
I631
sg517
I508
sg131
I122
sg220
I211
sg146
I137
sg102
I93
sg663
I654
sg479
I470
sg167
I158
sg254
I245
sg407
I398
sg529
I520
sg142
I133
sg633
I624
sg345
I336
sg148
I139
sg384
I375
sg662
I653
sg323
I314
sg668
I659
sg519
I510
sg127
I118
sg656
I647
sg324
I315
sg457
I448
sg580
I571
sg331
I322
sg442
I433
sg204
I195
sg154
I145
sg31
I22
sg647
I638
sg448
I439
sg269
I260
sg170
I161
sg286
I277
sg185
I176
sg531
I522
sg70
I61
sg240
I231
sg34
I25
sg241
I232
sg335
I326
sg266
I257
sg627
I618
sg298
I289
sg117
I108
sg87
I78
sg176
I167
sg179
I170
sg652
I643
sg283
I274
sg282
I273
sg601
I592
sg181
I172
sg13
I4
sg280
I271
sg182
I173
sg215
I206
sg168
I159
sg577
I568
sg209
I200
sg484
I475
sg136
I127
sg528
I519
sg294
I285
sg249
I240
sg307
I298
sg186
I177
sg198
I189
sg614
I605
sg37
I28
sg357
I348
sg17
I8
sg224
I215
sg562
I553
sg318
I309
sg459
I450
sg634
I625
sg361
I352
sg304
I295
sg129
I120
ssS'separator'
p674
S'='
sS'sparse'
p675
I01
sb.