ccopy_reg
_reconstructor
p1
(csklearn.feature_extraction.dict_vectorizer
DictVectorizer
p2
c__builtin__
object
p3
NtRp4
(dp5
S'sort'
p6
I01
sS'feature_names_'
p7
(lp8
S'advcl=brutalize'
p9
aS'advcl=busy'
p10
aS'advcl=come'
p11
aS'advcl=destroy'
p12
aS'advcl=end'
p13
aS'advcl=erupt'
p14
aS'advcl=go'
p15
aS'advcl=say'
p16
aS'advcl=show'
p17
aS'advcl=strike'
p18
aS'advmod=actually'
p19
aS'advmod=easily'
p20
aS'advmod=even'
p21
aS'advmod=how'
p22
aS'advmod=later'
p23
aS'advmod=much'
p24
aS'advmod=peacefully'
p25
aS'advmod=recently'
p26
aS'advmod=still'
p27
aS'advmod=there'
p28
aS'advmod=voluntarily'
p29
aS'advmod=yet'
p30
aS'aux=be'
p31
aS'aux=can'
p32
aS'aux=could'
p33
aS'aux=have'
p34
aS'aux=to'
p35
aS'aux=will'
p36
aS'auxpass=be'
p37
aS'cc=and'
p38
aS'cc=but'
p39
aS'ccomp=allow'
p40
aS'ccomp=back'
p41
aS'ccomp=ravage'
p42
aS'ccomp=spend'
p43
aS'ccomp=want'
p44
aS'complm=that'
p45
aS'conj=achieve'
p46
aS'conj=bring'
p47
aS'conj=carry'
p48
aS'conj=encourage'
p49
aS'conj=focus'
p50
aS'conj=give'
p51
aS'conj=heal'
p52
aS'conj=help'
p53
aS'conj=park'
p54
aS'conj=provide'
p55
aS'conj=rebuild'
p56
aS'conj=restore'
p57
aS'conj=resume'
p58
aS'conj=return'
p59
aS'conj=stabilize'
p60
aS'conj=turn'
p61
aS'conj=vaccinate'
p62
aS'conj=with'
p63
aS'dep=be'
p64
aS'dep=fray'
p65
aS'dep=if'
p66
aS'dep=order'
p67
aS'dep=that'
p68
aS'dobj=#NUMBER#'
p69
aS'dobj=#PRP#'
p70
aS'dobj=Aceh'
p71
aS'dobj=Afghanistan'
p72
aS'dobj=Congo'
p73
aS'dobj=Georgia'
p74
aS'dobj=Iraq'
p75
aS'dobj=Orleans'
p76
aS'dobj=PNTL'
p77
aS'dobj=area'
p78
aS'dobj=base'
p79
aS'dobj=bridge'
p80
aS'dobj=business'
p81
aS'dobj=city'
p82
aS'dobj=coast'
p83
aS'dobj=community'
p84
aS'dobj=confidence'
p85
aS'dobj=cooperation'
p86
aS'dobj=country'
p87
aS'dobj=credibility'
p88
aS'dobj=economy'
p89
aS'dobj=effort'
p90
aS'dobj=facility'
p91
aS'dobj=force'
p92
aS'dobj=foundation'
p93
aS'dobj=government'
p94
aS'dobj=home'
p95
aS'dobj=house'
p96
aS'dobj=housing'
p97
aS'dobj=impoverished'
p98
aS'dobj=industry'
p99
aS'dobj=infrastructure'
p100
aS'dobj=landmark'
p101
aS'dobj=life'
p102
aS'dobj=marketplace'
p103
aS'dobj=military'
p104
aS'dobj=much'
p105
aS'dobj=nation'
p106
aS'dobj=operation'
p107
aS'dobj=outpost'
p108
aS'dobj=part'
p109
aS'dobj=property'
p110
aS'dobj=province'
p111
aS'dobj=relation'
p112
aS'dobj=relationship'
p113
aS'dobj=sector'
p114
aS'dobj=sense'
p115
aS'dobj=shrine'
p116
aS'dobj=some'
p117
aS'dobj=state'
p118
aS'dobj=structure'
p119
aS'dobj=support'
p120
aS'dobj=system'
p121
aS'dobj=temple'
p122
aS'dobj=tie'
p123
aS'dobj=tier'
p124
aS'dobj=tissue'
p125
aS'dobj=town'
p126
aS'dobj=trust'
p127
aS'dobj=village'
p128
aS'dobj=water'
p129
aS'mark=after'
p130
aS'mark=as'
p131
aS'mark=because'
p132
aS'mark=in'
p133
aS'mark=until'
p134
aS'mark=while'
p135
aS'neg=not'
p136
aS'nsubj=#PRP#'
p137
aS'nsubj=$'
p138
aS'nsubj=Afghanistan'
p139
aS'nsubj=Afghans'
p140
aS'nsubj=Haiti'
p141
aS'nsubj=Iraq'
p142
aS'nsubj=Kenya'
p143
aS'nsubj=Liberia'
p144
aS'nsubj=Somalia'
p145
aS'nsubj=States'
p146
aS'nsubj=agency'
p147
aS'nsubj=al-Qaida'
p148
aS'nsubj=al-qaida'
p149
aS'nsubj=citizen'
p150
aS'nsubj=community'
p151
aS'nsubj=country'
p152
aS'nsubj=effort'
p153
aS'nsubj=government'
p154
aS'nsubj=newcomer'
p155
aS'nsubj=part'
p156
aS'nsubj=people'
p157
aS'nsubj=stock'
p158
aS'nsubj=survivor'
p159
aS'nsubj=tear'
p160
aS'nsubj=terrorist'
p161
aS'nsubj=tower'
p162
aS'nsubj=who'
p163
aS'nsubjpass=Halabja'
p164
aS'nsubjpass=bridge'
p165
aS'nsubjpass=country'
p166
aS'nsubjpass=distillery'
p167
aS'nsubjpass=home'
p168
aS'nsubjpass=nation'
p169
aS'nsubjpass=need'
p170
aS'nsubjpass=road'
p171
aS'nsubjpass=some'
p172
aS'nsubjpass=that'
p173
aS'nsubjpass=town'
p174
aS'nsubjpass=which'
p175
aS'parataxis=diminish'
p176
aS'prep=after'
p177
aS'prep=along'
p178
aS'prep=as'
p179
aS'prep=at'
p180
aS'prep=between'
p181
aS'prep=by'
p182
aS'prep=despite'
p183
aS'prep=for'
p184
aS'prep=from'
p185
aS'prep=in'
p186
aS'prep=near'
p187
aS'prep=of'
p188
aS'prep=since'
p189
aS'prep=than'
p190
aS'prep=to'
p191
aS'prep=with'
p192
aS'prep=without'
p193
aS'tmod=month'
p194
aS'tmod=year'
p195
aS"w+1=''"
p196
aS'w+1=,'
p197
aS'w+1=.'
p198
aS'w+1=Aceh'
p199
aS'w+1=Afghanistan'
p200
aS'w+1=Congo'
p201
aS'w+1=Georgia'
p202
aS'w+1=Iraq'
p203
aS'w+1=Japan'
p204
aS'w+1=New'
p205
aS'w+1=PNTL'
p206
aS'w+1=Washington'
p207
aS'w+1=a'
p208
aS'w+1=after'
p209
aS'w+1=along'
p210
aS'w+1=and'
p211
aS'w+1=area'
p212
aS'w+1=as'
p213
aS'w+1=at'
p214
aS'w+1=be'
p215
aS'w+1=between'
p216
aS'w+1=bridge'
p217
aS'w+1=confidence'
p218
aS'w+1=country'
p219
aS'w+1=critical'
p220
aS'w+1=during'
p221
aS'w+1=each'
p222
aS'w+1=effort'
p223
aS'w+1=facility'
p224
aS'w+1=four'
p225
aS'w+1=fray'
p226
aS'w+1=from'
p227
aS'w+1=he'
p228
aS'w+1=home'
p229
aS'w+1=in'
p230
aS'w+1=infrastructure'
p231
aS'w+1=it'
p232
aS'w+1=its'
p233
aS'w+1=itself'
p234
aS'w+1=key'
p235
aS'w+1=korean'
p236
aS'w+1=large-scale'
p237
aS'w+1=local'
p238
aS'w+1=much'
p239
aS'w+1=part'
p240
aS'w+1=public'
p241
aS'w+1=relation'
p242
aS'w+1=since'
p243
aS'w+1=some'
p244
aS'w+1=state'
p245
aS'w+1=support'
p246
aS'w+1=that'
p247
aS'w+1=the'
p248
aS'w+1=they'
p249
aS'w+1=this'
p250
aS'w+1=those'
p251
aS'w+1=tie'
p252
aS'w+1=trust'
p253
aS'w+1=tsunami-stricken'
p254
aS'w+1=village'
p255
aS'w+1=water'
p256
aS'w+1=we'
p257
aS'w+1=where'
p258
aS'w+1=worker'
p259
aS"w+2='"
p260
aS"w+2=''"
p261
aS"w+2='s"
p262
aS'w+2=,'
p263
aS'w+2=.'
p264
aS'w+2=Aceh'
p265
aS'w+2=Ground'
p266
aS'w+2=Lebanon'
p267
aS'w+2=Liberia'
p268
aS'w+2=Orleans'
p269
aS'w+2=Red'
p270
aS'w+2=September'
p271
aS'w+2=U.S.'
p272
aS'w+2=Yeltsin'
p273
aS'w+2=a'
p274
aS'w+2=aging'
p275
aS'w+2=airstrip'
p276
aS'w+2=and'
p277
aS'w+2=apparatus'
p278
aS'w+2=area'
p279
aS'w+2=as'
p280
aS'w+2=base'
p281
aS'w+2=battered'
p282
aS'w+2=between'
p283
aS'w+2=bridge'
p284
aS'w+2=business'
p285
aS'w+2=but'
p286
aS'w+2=community'
p287
aS'w+2=consume'
p288
aS'w+2=country'
p289
aS'w+2=credibility'
p290
aS'w+2=decade'
p291
aS'w+2=destroy'
p292
aS'w+2=devastate'
p293
aS'w+2=disaster'
p294
aS'w+2=economy'
p295
aS'w+2=element'
p296
aS'w+2=emerge'
p297
aS'w+2=entire'
p298
aS'w+2=facility'
p299
aS'w+2=fail'
p300
aS'w+2=failed'
p301
aS'w+2=for'
p302
aS'w+2=foundation'
p303
aS'w+2=government'
p304
aS'w+2=have'
p305
aS'w+2=home'
p306
aS'w+2=hope'
p307
aS'w+2=house'
p308
aS'w+2=impoverished'
p309
aS'w+2=in'
p310
aS'w+2=infrastructure'
p311
aS'w+2=it'
p312
aS'w+2=landmark'
p313
aS'w+2=life'
p314
aS'w+2=middle'
p315
aS'w+2=military'
p316
aS'w+2=mostly'
p317
aS'w+2=new'
p318
aS'w+2=of'
p319
aS'w+2=often'
p320
aS'w+2=oil'
p321
aS'w+2=one'
p322
aS'w+2=or'
p323
aS'w+2=other'
p324
aS'w+2=outpost'
p325
aS'w+2=own'
p326
aS'w+2=palestinian'
p327
aS'w+2=public'
p328
aS'w+2=ravage'
p329
aS'w+2=reconcile'
p330
aS'w+2=relation'
p331
aS'w+2=russian'
p332
aS'w+2=sense'
p333
aS'w+2=several'
p334
aS'w+2=shatter'
p335
aS"w+2=shi'ite"
p336
aS'w+2=stabilize'
p337
aS'w+2=state'
p338
aS'w+2=story'
p339
aS'w+2=stronger'
p340
aS'w+2=support'
p341
aS'w+2=surveillance'
p342
aS'w+2=temple'
p343
aS'w+2=that'
p344
aS'w+2=the'
p345
aS'w+2=there'
p346
aS'w+2=to'
p347
aS'w+2=town'
p348
aS'w+2=transatlantic'
p349
aS'w+2=tribal'
p350
aS'w+2=village'
p351
aS'w+2=war-devastated'
p352
aS'w+2=war-shattered'
p353
aS'w+2=war-torn'
p354
aS'w+2=whole'
p355
aS'w+2=with'
p356
aS'w+2=year'
p357
aS'w+2=yet'
p358
aS'w-1=,'
p359
aS'w-1=--'
p360
aS'w-1=.'
p361
aS'w-1=Afghans'
p362
aS'w-1=Haiti'
p363
aS'w-1=Iraq'
p364
aS'w-1=Kenya'
p365
aS'w-1=Somalia'
p366
aS'w-1=States'
p367
aS'w-1=about'
p368
aS'w-1=actually'
p369
aS'w-1=ally'
p370
aS'w-1=and'
p371
aS'w-1=as'
p372
aS'w-1=at'
p373
aS'w-1=be'
p374
aS'w-1=begin'
p375
aS'w-1=can'
p376
aS'w-1=certainly'
p377
aS'w-1=citizen'
p378
aS'w-1=community'
p379
aS'w-1=could'
p380
aS'w-1=country'
p381
aS'w-1=cyclone'
p382
aS'w-1=easily'
p383
aS'w-1=for'
p384
aS'w-1=government'
p385
aS'w-1=have'
p386
aS'w-1=he'
p387
aS'w-1=help'
p388
aS'w-1=in'
p389
aS'w-1=include'
p390
aS'w-1=later'
p391
aS'w-1=newcomer'
p392
aS'w-1=not'
p393
aS'w-1=of'
p394
aS'w-1=on'
p395
aS'w-1=organize'
p396
aS'w-1=people'
p397
aS'w-1=say'
p398
aS'w-1=start'
p399
aS'w-1=still'
p400
aS'w-1=they'
p401
aS'w-1=to'
p402
aS'w-1=toward'
p403
aS'w-1=we'
p404
aS'w-1=will'
p405
aS'w-1=with'
p406
aS"w-2='s"
p407
aS'w-2=,'
p408
aS'w-2=-'
p409
aS'w-2=750'
p410
aS'w-2=I'
p411
aS'w-2=Liberia'
p412
aS'w-2=Taleban'
p413
aS'w-2=United'
p414
aS'w-2=Weitz'
p415
aS'w-2=ability'
p416
aS'w-2=able'
p417
aS'w-2=after'
p418
aS'w-2=again'
p419
aS'w-2=agency'
p420
aS'w-2=al-Qaida'
p421
aS'w-2=allow'
p422
aS'w-2=and'
p423
aS'w-2=as'
p424
aS'w-2=assistance'
p425
aS'w-2=attempt'
p426
aS'w-2=attention'
p427
aS'w-2=back'
p428
aS'w-2=battle'
p429
aS'w-2=be'
p430
aS'w-2=because'
p431
aS'w-2=begin'
p432
aS'w-2=beginning'
p433
aS'w-2=best'
p434
aS'w-2=billion'
p435
aS'w-2=boost'
p436
aS'w-2=but'
p437
aS'w-2=can'
p438
aS'w-2=challenge'
p439
aS'w-2=chance'
p440
aS'w-2=charge'
p441
aS'w-2=community'
p442
aS'w-2=continue'
p443
aS'w-2=cost'
p444
aS'w-2=country'
p445
aS'w-2=critically'
p446
aS'w-2=demolish'
p447
aS'w-2=determine'
p448
aS'w-2=disarmament'
p449
aS'w-2=discussion'
p450
aS'w-2=dollar'
p451
aS'w-2=effort'
p452
aS'w-2=environment'
p453
aS'w-2=family'
p454
aS'w-2=fight'
p455
aS'w-2=focus'
p456
aS'w-2=force'
p457
aS'w-2=government'
p458
aS'w-2=hard'
p459
aS'w-2=have'
p460
aS'w-2=he'
p461
aS'w-2=help'
p462
aS'w-2=hope'
p463
aS'w-2=how'
p464
aS'w-2=important'
p465
aS'w-2=in'
p466
aS'w-2=individual'
p467
aS'w-2=iraqi'
p468
aS'w-2=issue'
p469
aS'w-2=little'
p470
aS'w-2=make'
p471
aS'w-2=material'
p472
aS'w-2=mean'
p473
aS'w-2=mediator'
p474
aS'w-2=mine'
p475
aS'w-2=mosque'
p476
aS'w-2=most'
p477
aS'w-2=need'
p478
aS'w-2=not'
p479
aS'w-2=obstacle'
p480
aS'w-2=or'
p481
aS'w-2=order'
p482
aS'w-2=plan'
p483
aS'w-2=process'
p484
aS'w-2=program'
p485
aS'w-2=progress'
p486
aS'w-2=protect'
p487
aS'w-2=provision'
p488
aS'w-2=quickly'
p489
aS'w-2=reach'
p490
aS'w-2=recently'
p491
aS'w-2=recover'
p492
aS'w-2=related'
p493
aS'w-2=resource'
p494
aS'w-2=responsibility'
p495
aS'w-2=return'
p496
aS'w-2=revenue'
p497
aS'w-2=rights'
p498
aS'w-2=role'
p499
aS'w-2=ruin'
p500
aS'w-2=scrap'
p501
aS'w-2=so'
p502
aS'w-2=speak'
p503
aS'w-2=spend'
p504
aS'w-2=start'
p505
aS'w-2=stock'
p506
aS'w-2=struggle'
p507
aS'w-2=take'
p508
aS'w-2=task'
p509
aS'w-2=terrorist'
p510
aS'w-2=that'
p511
aS'w-2=the'
p512
aS'w-2=they'
p513
aS'w-2=to'
p514
aS'w-2=together'
p515
aS'w-2=tool'
p516
aS'w-2=tower'
p517
aS'w-2=try'
p518
aS'w-2=until'
p519
aS'w-2=up'
p520
aS'w-2=use'
p521
aS'w-2=village'
p522
aS'w-2=voluntarily'
p523
aS'w-2=want'
p524
aS'w-2=water'
p525
aS'w-2=way'
p526
aS'w-2=we'
p527
aS'w-2=which'
p528
aS'w-2=will'
p529
aS'w-2=willing'
p530
aS'w-2=work'
p531
aS'xcomp=help'
p532
aS'xcomp=implement'
p533
aS'xcomp=program'
p534
aS'xcomp=provide'
p535
asS'dtype'
p536
cnumpy
float64
p537
sS'vocabulary_'
p538
(dp539
g101
I92
sg156
I147
sg330
I321
sg14
I5
sg435
I426
sg527
I518
sg160
I151
sg105
I96
sg283
I274
sg240
I231
sg377
I368
sg286
I277
sg113
I104
sg129
I120
sg478
I469
sg148
I139
sg513
I504
sg410
I401
sg87
I78
sg181
I172
sg445
I436
sg247
I238
sg349
I340
sg56
I47
sg154
I145
sg479
I470
sg370
I361
sg43
I34
sg398
I389
sg281
I272
sg99
I90
sg475
I466
sg303
I294
sg320
I311
sg456
I447
sg255
I246
sg334
I325
sg195
I186
sg405
I396
sg49
I40
sg364
I355
sg336
I327
sg90
I81
sg374
I365
sg444
I435
sg454
I445
sg512
I503
sg11
I2
sg494
I485
sg236
I227
sg132
I123
sg289
I280
sg62
I53
sg124
I115
sg347
I338
sg465
I456
sg159
I150
sg484
I475
sg386
I377
sg300
I291
sg310
I301
sg312
I303
sg463
I454
sg504
I495
sg380
I371
sg32
I23
sg45
I36
sg258
I249
sg194
I185
sg78
I69
sg519
I510
sg67
I58
sg145
I136
sg452
I443
sg511
I502
sg248
I239
sg149
I140
sg275
I266
sg301
I292
sg249
I240
sg251
I242
sg332
I323
sg186
I177
sg230
I221
sg368
I359
sg104
I95
sg317
I308
sg30
I21
sg379
I370
sg319
I310
sg10
I1
sg191
I182
sg333
I324
sg400
I391
sg211
I202
sg401
I392
sg79
I70
sg144
I135
sg302
I293
sg495
I486
sg482
I473
sg350
I341
sg458
I449
sg143
I134
sg389
I380
sg170
I161
sg415
I406
sg266
I257
sg427
I418
sg42
I33
sg115
I106
sg308
I299
sg133
I124
sg321
I312
sg531
I522
sg523
I514
sg190
I181
sg128
I119
sg44
I35
sg171
I162
sg442
I433
sg182
I173
sg521
I512
sg282
I273
sg378
I369
sg324
I315
sg120
I111
sg481
I472
sg178
I169
sg163
I154
sg486
I477
sg253
I244
sg533
I524
sg259
I250
sg402
I393
sg46
I37
sg70
I61
sg65
I56
sg12
I3
sg383
I374
sg416
I407
sg217
I208
sg342
I333
sg315
I306
sg329
I320
sg487
I478
sg508
I499
sg213
I204
sg214
I205
sg86
I77
sg501
I492
sg341
I332
sg228
I219
sg227
I218
sg51
I42
sg419
I410
sg173
I164
sg376
I367
sg439
I430
sg417
I408
sg440
I431
sg406
I397
sg443
I434
sg200
I191
sg326
I317
sg20
I11
sg74
I65
sg498
I489
sg491
I482
sg184
I175
sg68
I59
sg257
I248
sg515
I506
sg355
I346
sg284
I275
sg505
I496
sg360
I351
sg252
I243
sg280
I271
sg183
I174
sg338
I329
sg264
I255
sg165
I156
sg37
I28
sg57
I48
sg392
I383
sg84
I75
sg414
I405
sg27
I18
sg24
I15
sg223
I214
sg18
I9
sg153
I144
sg291
I282
sg218
I209
sg455
I446
sg71
I62
sg80
I71
sg125
I116
sg356
I347
sg239
I230
sg97
I88
sg269
I260
sg54
I45
sg441
I432
sg396
I387
sg477
I468
sg328
I319
sg357
I348
sg297
I288
sg506
I497
sg422
I413
sg323
I314
sg94
I85
sg278
I269
sg225
I216
sg418
I409
sg493
I484
sg371
I362
sg366
I357
sg299
I290
sg157
I148
sg507
I498
sg202
I193
sg48
I39
sg339
I330
sg279
I270
sg164
I155
sg436
I427
sg193
I184
sg426
I417
sg382
I373
sg254
I245
sg60
I51
sg271
I262
sg407
I398
sg296
I287
sg206
I197
sg122
I113
sg473
I464
sg532
I523
sg59
I50
sg534
I525
sg238
I229
sg298
I289
sg510
I501
sg85
I76
sg158
I149
sg412
I403
sg108
I99
sg123
I114
sg467
I458
sg243
I234
sg216
I207
sg21
I12
sg428
I419
sg28
I19
sg403
I394
sg95
I86
sg135
I126
sg496
I487
sg36
I27
sg233
I224
sg318
I309
sg272
I263
sg146
I137
sg447
I438
sg192
I183
sg316
I307
sg151
I142
sg112
I103
sg147
I138
sg466
I457
sg83
I74
sg492
I483
sg92
I83
sg483
I474
sg468
I459
sg490
I481
sg288
I279
sg212
I203
sg82
I73
sg294
I285
sg63
I54
sg470
I461
sg476
I467
sg367
I358
sg307
I298
sg169
I160
sg448
I439
sg453
I444
sg309
I300
sg40
I31
sg155
I146
sg261
I252
sg152
I143
sg17
I8
sg25
I16
sg138
I129
sg201
I192
sg497
I488
sg220
I211
sg102
I93
sg166
I157
sg485
I476
sg75
I66
sg460
I451
sg38
I29
sg199
I190
sg522
I513
sg111
I102
sg174
I165
sg215
I206
sg287
I278
sg488
I479
sg352
I343
sg262
I253
sg203
I194
sg516
I507
sg363
I354
sg229
I220
sg245
I236
sg295
I286
sg526
I517
sg509
I500
sg517
I508
sg232
I223
sg134
I125
sg137
I128
sg205
I196
sg196
I187
sg39
I30
sg499
I490
sg489
I480
sg520
I511
sg69
I60
sg388
I379
sg98
I89
sg33
I24
sg353
I344
sg127
I118
sg425
I416
sg503
I494
sg66
I57
sg118
I109
sg210
I201
sg55
I46
sg432
I423
sg161
I152
sg500
I491
sg267
I258
sg231
I222
sg381
I372
sg81
I72
sg430
I421
sg313
I304
sg188
I179
sg13
I4
sg474
I465
sg224
I215
sg130
I121
sg172
I163
sg116
I107
sg88
I79
sg93
I84
sg384
I375
sg77
I68
sg61
I52
sg198
I189
sg26
I17
sg150
I141
sg434
I425
sg121
I112
sg167
I158
sg256
I247
sg450
I441
sg459
I450
sg433
I424
sg344
I335
sg429
I420
sg446
I437
sg351
I342
sg306
I297
sg277
I268
sg292
I283
sg524
I515
sg480
I471
sg142
I133
sg64
I55
sg290
I281
sg354
I345
sg528
I519
sg16
I7
sg394
I385
sg514
I505
sg395
I386
sg423
I414
sg226
I217
sg399
I390
sg19
I10
sg260
I251
sg343
I334
sg518
I509
sg250
I241
sg461
I452
sg189
I180
sg413
I404
sg140
I131
sg9
I0
sg141
I132
sg96
I87
sg168
I159
sg72
I63
sg89
I80
sg345
I336
sg180
I171
sg529
I520
sg179
I170
sg408
I399
sg409
I400
sg34
I25
sg139
I130
sg437
I428
sg268
I259
sg361
I352
sg359
I350
sg207
I198
sg119
I110
sg73
I64
sg420
I411
sg100
I91
sg411
I402
sg76
I67
sg424
I415
sg204
I195
sg464
I455
sg53
I44
sg322
I313
sg449
I440
sg397
I388
sg221
I212
sg276
I267
sg304
I295
sg335
I326
sg472
I463
sg47
I38
sg91
I82
sg530
I521
sg175
I166
sg114
I105
sg502
I493
sg471
I462
sg131
I122
sg535
I526
sg387
I378
sg222
I213
sg346
I337
sg340
I331
sg242
I233
sg103
I94
sg293
I284
sg469
I460
sg177
I168
sg237
I228
sg327
I318
sg305
I296
sg41
I32
sg331
I322
sg337
I328
sg273
I264
sg421
I412
sg391
I382
sg136
I127
sg22
I13
sg385
I376
sg311
I302
sg185
I176
sg241
I232
sg29
I20
sg52
I43
sg462
I453
sg209
I200
sg58
I49
sg265
I256
sg404
I395
sg35
I26
sg348
I339
sg246
I237
sg15
I6
sg162
I153
sg362
I353
sg438
I429
sg109
I100
sg234
I225
sg117
I108
sg219
I210
sg23
I14
sg197
I188
sg369
I360
sg244
I235
sg263
I254
sg187
I178
sg107
I98
sg235
I226
sg126
I117
sg451
I442
sg314
I305
sg365
I356
sg106
I97
sg270
I261
sg208
I199
sg393
I384
sg50
I41
sg375
I366
sg525
I516
sg110
I101
sg373
I364
sg372
I363
sg390
I381
sg431
I422
sg285
I276
sg457
I448
sg31
I22
sg176
I167
sg358
I349
sg325
I316
sg274
I265
ssS'separator'
p540
S'='
sS'sparse'
p541
I01
sb.