ccopy_reg
_reconstructor
p1
(csklearn.feature_extraction.dict_vectorizer
DictVectorizer
p2
c__builtin__
object
p3
NtRp4
(dp5
S'sort'
p6
I01
sS'feature_names_'
p7
(lp8
S'advcl=attend'
p9
aS'advcl=leave'
p10
aS'aux=have'
p11
aS'complm=that'
p12
aS'det=a'
p13
aS'nn=Naples'
p14
aS'nn=clover'
p15
aS'nsubj=#PRP#'
p16
aS'nsubj=group'
p17
aS'nsubj=opportunity'
p18
aS'nsubj=that'
p19
aS'prep=by'
p20
aS'prep=follow'
p21
aS'w+1=.'
p22
aS'w+1=after'
p23
aS'w+1=follow'
p24
aS'w+1=once'
p25
aS'w+1=since'
p26
aS'w+1=when'
p27
aS'w+2=a'
p28
aS'w+2=again'
p29
aS'w+2=she'
p30
aS'w+2=the'
p31
aS'w+2=they'
p32
aS'w-1=Naples'
p33
aS'w-1=clover'
p34
aS'w-1=have'
p35
aS'w-1=she'
p36
aS'w-1=this'
p37
aS'w-2=a'
p38
aS'w-2=but'
p39
aS'w-2=like'
p40
aS'w-2=opportunity'
p41
aS'w-2=see'
p42
aS'w-2=that'
p43
asS'dtype'
p44
cnumpy
float64
p45
sS'vocabulary_'
p46
(dp47
g42
I33
sg27
I18
sg29
I20
sg37
I28
sg23
I14
sg34
I25
sg31
I22
sg39
I30
sg24
I15
sg14
I5
sg12
I3
sg25
I16
sg32
I23
sg11
I2
sg22
I13
sg18
I9
sg36
I27
sg19
I10
sg40
I31
sg10
I1
sg43
I34
sg41
I32
sg9
I0
sg21
I12
sg26
I17
sg20
I11
sg17
I8
sg30
I21
sg33
I24
sg15
I6
sg38
I29
sg13
I4
sg16
I7
sg28
I19
sg35
I26
ssS'separator'
p48
S'='
sS'sparse'
p49
I01
sb.