ccopy_reg
_reconstructor
p1
(csklearn.feature_extraction.dict_vectorizer
DictVectorizer
p2
c__builtin__
object
p3
NtRp4
(dp5
S'vocabulary_'
p6
(dp7
S'advmod=then'
p8
I51
sS'advmod=briefly'
p9
I23
sS'nsubj=France'
p10
I132
sS'xcomp=listen'
p11
I703
sS'dep=now'
p12
I98
sS'w+2=Job'
p13
I277
sS'advmod=past'
p14
I43
sS'w-1=regularly'
p15
I466
sS'w+2=japanese'
p16
I337
sS'w-2=Muslims'
p17
I520
sS'advcl=deploy'
p18
I5
sS'w+2=full'
p19
I324
sS'advmod=generally'
p20
I33
sS'prep=next'
p21
I218
sS'w-2=russian'
p22
I655
sS'w+2=protest'
p23
I357
sS'ccomp=choice'
p24
I70
sS'w+2=but'
p25
I299
sS'w-2=election'
p26
I576
sS'w-2=Texas'
p27
I530
sS'dep=many'
p28
I97
sS'w-2=can'
p29
I556
sS'w-2=Japan'
p30
I516
sS'w-2=bloc'
p31
I552
sS'w-2=they'
p32
I673
sS'prep=by'
p33
I211
sS'advmod=energetically'
p34
I27
sS'w-2=country'
p35
I563
sS'nsubj=migrant'
p36
I171
sS'w-2=refuse'
p37
I648
sS'nsubj=government'
p38
I166
sS'w-2=not'
p39
I625
sS'w+2=conversation'
p40
I302
sS'w+2=dozen'
p41
I311
sS'w-1=jointly'
p42
I447
sS'w-2=now'
p43
I626
sS'w-1=say'
p44
I469
sS'advcl=devote'
p45
I6
sS'nsubj=official'
p46
I175
sS'w+2=base'
p47
I295
sS'w+2=militia'
p48
I343
sS'conj=watch'
p49
I93
sS'w-2=sentence'
p50
I658
sS'w-1=activist'
p51
I410
sS'w-1=Medvedev'
p52
I399
sS'w-2=better'
p53
I551
sS'w-1=voter'
p54
I486
sS'nsubj=Muslims'
p55
I141
sS'advmod=so'
p56
I48
sS'w-2=from'
p57
I587
sS'w+2=peace'
p58
I350
sS'w-2=we'
p59
I684
sS'xcomp=announce'
p60
I696
sS'tmod=year'
p61
I233
sS'advmod=better'
p62
I22
sS'w-1=will'
p63
I488
sS'w-1=see'
p64
I470
sS'w-2=parent'
p65
I634
sS'w-2=movement'
p66
I621
sS'w-2=people'
p67
I638
sS'w-1=Americans'
p68
I394
sS'conj=stop'
p69
I90
sS'w-1=by'
p70
I426
sS'tmod=December'
p71
I231
sS'w-1=be'
p72
I421
sS'advmod=eventually'
p73
I30
sS'w-2=militia'
p74
I615
sS'w-2=persuade'
p75
I640
sS'w-1=troops'
p76
I484
sS'w-2=the'
p77
I672
sS'cc=rather'
p78
I68
sS'nsubj=queen'
p79
I184
sS'w+2=activity'
p80
I286
sS'advmod=earlier'
p81
I26
sS'nsubj=aircraft'
p82
I151
sS'nsubj=leader'
p83
I169
sS'w-2=Gibson'
p84
I514
sS'w-2=mother'
p85
I620
sS'mark=because'
p86
I113
sS'w-2=who'
p87
I687
sS'mark=unless'
p88
I118
sS'w-2=decision'
p89
I567
sS'w+2=to'
p90
I377
sS'w+1=on'
p91
I256
sS'w-2=many'
p92
I611
sS'w+2=last'
p93
I339
sS'w-2=important'
p94
I600
sS'w-2=Republic'
p95
I523
sS'w+1=or'
p96
I257
sS'w-2=home'
p97
I596
sS'w-1=have'
p98
I444
sS'ccomp=say'
p99
I74
sS'w+2=anti-terrorist'
p100
I290
sS'xcomp=set'
p101
I708
sS'w-2=migrant'
p102
I614
sS'dep=though'
p103
I102
sS'w+2=in'
p104
I333
sS'w-2=week'
p105
I685
sS'w+2=what'
p106
I384
sS'w+2=it'
p107
I335
sS'ccomp=irrelevant'
p108
I72
sS'nsubj=Simonyi'
p109
I146
sS'w+2=attack'
p110
I294
sS'advcl=marry'
p111
I12
sS'advmod=strongly'
p112
I50
sS'prep=about'
p113
I205
sS'aux=can'
p114
I56
sS'complm=that'
p115
I76
sS'nsubj=visitor'
p116
I195
sS'w+2=planned'
p117
I351
sS'w+2=either'
p118
I313
sS'w+2=will'
p119
I387
sS'nsubj=Armington'
p120
I127
sS'w-1=from'
p121
I441
sS'w+1=not'
p122
I255
sS'w-2=HRT'
p123
I515
sS'advcl=be'
p124
I1
sS'w+1=strongly'
p125
I263
sS'w-2=that'
p126
I671
sS'w+2=freeze'
p127
I322
sS'w-1=communication'
p128
I429
sS'w-1=morus'
p129
I450
sS'xcomp=protest'
p130
I705
sS'advmod=only'
p131
I42
sS'w+2=be'
p132
I296
sS'w-1=Venezuela'
p133
I406
sS'w-1=militia'
p134
I449
sS'nsubj=Israel'
p135
I134
sS'w-2=group'
p136
I590
sS'nsubj=militia'
p137
I173
sS'prep=as'
p138
I209
sS'w-1=already'
p139
I416
sS'nsubjpass=#PRP#'
p140
I201
sS'advmod=too'
p141
I52
sS'prep=in'
p142
I216
sS'w-2=Djibouti'
p143
I507
sS'aux=would'
p144
I63
sS'w-2=leader'
p145
I605
sS'w-2=citizen'
p146
I561
sS'w-1=about'
p147
I408
sS'nsubj=Seoul'
p148
I145
sS'w+2=political'
p149
I352
sS'w-1=community'
p150
I430
sS'w+2=future'
p151
I325
sS'w-1=nation'
p152
I452
sS'w-1=energetically'
p153
I436
sS'prep=to'
p154
I224
sS'w-2=Syvester'
p155
I529
sS'advcl=opt'
p156
I14
sS'w-2=mining'
p157
I617
sS'w-2=eligible'
p158
I577
sS'w-2=meeting'
p159
I613
sS'xcomp=improve'
p160
I702
sS'w+1=and'
p161
I238
sS'w+2=even'
p162
I315
sS'xcomp=beg'
p163
I698
sS'prep=for'
p164
I214
sS'w+2=society'
p165
I363
sS'w-2=responsibility'
p166
I652
sS'w-1=should'
p167
I473
sS'conj=boost'
p168
I80
sS'nsubj=that'
p169
I191
sS'w-1=Israel'
p170
I398
sS'w-2=capital'
p171
I557
sS'advmod=here'
p172
I35
sS'xcomp=become'
p173
I697
sS'dobj=which'
p174
I109
sS'w-1=in'
p175
I446
sS'w+2=cheating'
p176
I300
sS'nsubj=group'
p177
I167
sS'advcl=invite'
p178
I8
sS'nsubj=day'
p179
I158
sS'w-1=the'
p180
I479
sS'w+1=otherwise'
p181
I258
sS'advcl=welcome'
p182
I16
sS'w-2=evening'
p183
I581
sS'w-2=need'
p184
I622
sS'mark=if'
p185
I115
sS'w+2=act'
p186
I284
sS'w-2=change'
p187
I559
sS'w-2=even'
p188
I580
sS'w-2=detector'
p189
I570
sS'mark=in'
p190
I116
sS'w-2=Zoellick'
p191
I534
sS'advmod=directly'
p192
I25
sS'w-1=actively'
p193
I409
sS'nsubj=chance'
p194
I154
sS'w-1=Nolasco'
p195
I402
sS'advmod=jointly'
p196
I38
sS'w-2=18'
p197
I497
sS'w+2=when'
p198
I386
sS'w-2=court'
p199
I564
sS'w-1=many'
p200
I448
sS'advmod=peacefully'
p201
I44
sS'advcl=contribute'
p202
I3
sS'w+2=next'
p203
I346
sS'w-2=player'
p204
I642
sS'conj=verify'
p205
I91
sS'w+2=talk'
p206
I369
sS'nsubj=troops'
p207
I193
sS'w-2=benefit'
p208
I550
sS'prep=include'
p209
I217
sS'w-2=age'
p210
I539
sS'dobj=support'
p211
I106
sS'nsubj=who'
p212
I197
sS'w-2=eager'
p213
I574
sS'w-2=Bush'
p214
I506
sS'w-2=of'
p215
I627
sS'acomp=fair'
p216
I0
sS'w-1=to'
p217
I483
sS'advmod=especially'
p218
I28
sS'nsubj=adventure'
p219
I149
sS'nsubj=percent'
p220
I180
sS'w-2=state'
p221
I667
sS'w+2=dot'
p222
I310
sS'nsubj=party'
p223
I178
sS'dobj=#PRP#'
p224
I103
sS'w-2=do'
p225
I571
sS'nsubj=head'
p226
I168
sS'w-2=Rosa'
p227
I524
sS'w-1=aircraft'
p228
I414
sS'w+2=upcome'
p229
I380
sS'conj=vote'
p230
I92
sS'nsubj=Dabelea'
p231
I130
sS'nsubj=Union'
p232
I147
sS'w-2=ability'
p233
I535
sS'nsubj=Japan'
p234
I135
sS'xcomp=put'
p235
I706
sS'nsubj=soldier'
p236
I188
sS'ccomp=give'
p237
I71
sS'w+1=as'
p238
I239
sS'w+2=reconstruction'
p239
I359
sS'w+1=at'
p240
I240
sS'w-1=11'
p241
I393
sS'w-1=sometimes'
p242
I476
sS'w+2=debate'
p243
I304
sS'w-2=like'
p244
I607
sS'w-2=two'
p245
I679
sS'w-1=currently'
p246
I434
sS'advmod=actively'
p247
I17
sS'w+2=under'
p248
I379
sS'mark=for'
p249
I114
sS'w-1=country'
p250
I433
sS'w-2=Dubai'
p251
I509
sS'w-1=would'
p252
I490
sS'dep=seem'
p253
I100
sS'w-2=Geneva'
p254
I513
sS'w-1=can'
p255
I427
sS'w+2=NATO'
p256
I280
sS'w-2=Russia'
p257
I525
sS'nsubj=Mensah'
p258
I140
sS'w-1=exhibitor'
p259
I439
sS'w-1=reject'
p260
I467
sS'w-2=able'
p261
I536
sS'w+1=through'
p262
I266
sS'w-2=chance'
p263
I558
sS'w-2=require'
p264
I650
sS'w-2=continue'
p265
I562
sS'w+2=most'
p266
I344
sS'w-1=those'
p267
I482
sS'w+1=two'
p268
I267
sS'w+1=lender'
p269
I250
sS'advmod=when'
p270
I53
sS'w-2=rights'
p271
I654
sS'w-2=support'
p272
I669
sS'w-2=she'
p273
I661
sS'w+2=Monday'
p274
I278
sS'advmod=along'
p275
I19
sS'w+2=make'
p276
I341
sS'w-2=old'
p277
I629
sS'w+2=bring'
p278
I298
sS'w-1=reportedly'
p279
I468
sS'w+2=reflect'
p280
I360
sS'w+2=they'
p281
I373
sS'w+2=something'
p282
I365
sS'nsubj=Bush'
p283
I128
sS'w+2=at'
p284
I293
sS'advcl=labor-intensive'
p285
I11
sS'w+2=as'
p286
I292
sS'w-2=select'
p287
I657
sS'w+2=include'
p288
I334
sS'w-2=everyone'
p289
I582
sS'w-2=visa'
p290
I681
sS'w+1=shoulder'
p291
I261
sS'auxpass=be'
p292
I64
sS'dep=result'
p293
I99
sS'w+2=govern'
p294
I327
sS'w+2=judgment'
p295
I338
sS'w-2=visitor'
p296
I682
sS'w+2=could'
p297
I303
sS'conj=grata'
p298
I85
sS'advmod=long'
p299
I39
sS'w-2=opt'
p300
I631
sS'w-2=last'
p301
I604
sS'w-2=mdc'
p302
I612
sS'w-2=desire'
p303
I569
sS'nsubj=Putin'
p304
I144
sS'advmod=much'
p305
I40
sS'w+1=next'
p306
I254
sS'w-1=fully'
p307
I442
sS'w-2=several'
p308
I660
sS'w-2=Art'
p309
I503
sS'w+2=anti-government'
p310
I289
sS'w+1=there'
p311
I264
sS'w-2=hand'
p312
I591
sS'advmod=gracefully'
p313
I34
sS'nsubj=Johnson'
p314
I136
sS'nsubj=#NUMBER#'
p315
I122
sS'w-2=1990'
p316
I499
sS'w+2=free'
p317
I321
sS'conj=know'
p318
I86
sS'w-1=must'
p319
I451
sS'w+2=sport'
p320
I366
sS'w-2=those'
p321
I675
sS'conj=attend'
p322
I79
sS'w+2=governance'
p323
I328
sS'prep=off'
p324
I219
sS'w-1=people'
p325
I464
sS'w-2=Warramunga'
p326
I532
sS'w+2=Moussa'
p327
I279
sS'advcl=deem'
p328
I4
sS'advmod=freely'
p329
I31
sS'w+1=nation'
p330
I253
sS'w-2=off'
p331
I628
sS'w-2=political'
p332
I644
sS'w-2=month'
p333
I619
sS'nsubj=school'
p334
I186
sS'w-2=decline'
p335
I568
sS'nsubj=president'
p336
I182
sS"w-2=''"
p337
I491
sS'w-2=tradition'
p338
I677
sS'w-2=Europe'
p339
I510
sS'advmod=sometimes'
p340
I49
sS'w-2=after'
p341
I538
sS'w+1=fully'
p342
I248
sS'nsubj=expert'
p343
I162
sS'w+2=he'
p344
I330
sS'nsubj=word'
p345
I199
sS'nsubj=ngo'
p346
I174
sS'nsubj=freedom'
p347
I164
sS'w-1=entertainer'
p348
I437
sS'w-2=choose'
p349
I560
sS'dobj=shoulder'
p350
I105
sS'w+2=defend'
p351
I306
sS'w-2=inmate'
p352
I601
sS'w-1=any'
p353
I419
sS'w-2=welcome'
p354
I686
sS'w-2=negotiation'
p355
I623
sS'w-2=world'
p356
I692
sS'w-1=parent'
p357
I462
sS'w+2=say'
p358
I361
sS'prep=without'
p359
I228
sS'w-2=Nour'
p360
I521
sS'nsubj=military'
p361
I172
sS'w-2=Arthur'
p362
I504
sS"w-2='s"
p363
I492
sS'w+1=freely'
p364
I247
sS'w-1=she'
p365
I471
sS'w-1=never'
p366
I454
sS'w+2=from'
p367
I323
sS'w+2=poverty'
p368
I354
sS'parataxis=reflect'
p369
I202
sS'w-2=would'
p370
I693
sS'w-2=resident'
p371
I651
sS'w-2=Zimbabwe'
p372
I533
sS'parataxis=see'
p373
I203
sS'dep=survey'
p374
I101
sS'w-2=both'
p375
I553
sS'w-2=go'
p376
I589
sS'w-1=Mensah'
p377
I400
sS'w+2=would'
p378
I389
sS'w+1=because'
p379
I242
sS'w-2=Putin'
p380
I522
sS'prep=depend'
p381
I212
sS'w+2=politics'
p382
I353
sS'w-2=among'
p383
I544
sS'w+2=whatever'
p384
I385
sS'w+2=those'
p385
I375
sS'w-2=190'
p386
I498
sS'conj=participate'
p387
I88
sS'nsubj=player'
p388
I181
sS'w-2=Maasais'
p389
I518
sS'w+2=this'
p390
I374
sS'w-2=student'
p391
I668
sS'w+2=rare'
p392
I358
sS'w-2=space'
p393
I665
sS'w-2=plan'
p394
I641
sS'w-1=Dabelea'
p395
I396
sS'w+2=protect'
p396
I356
sS'w-2=employee'
p397
I578
sS'advmod=even'
p398
I29
sS'w+1=directly'
p399
I245
sS'w-1=other'
p400
I461
sS'nsubj=some'
p401
I189
sS'w-2=million'
p402
I616
sS'conj=complain'
p403
I81
sS'w-2=expect'
p404
I583
sS'mark=while'
p405
I119
sS'w+2=activist'
p406
I285
sS'aux=do'
p407
I57
sS'w+2=over'
p408
I349
sS'w-1=opposition'
p409
I459
sS'w-2=interested'
p410
I602
sS'w-2=also'
p411
I543
sS'aux=will'
p412
I62
sS'advmod=already'
p413
I20
sS'w-2=right'
p414
I653
sS'w-2=patient'
p415
I636
sS'w-2=Dr.'
p416
I508
sS'prep=outside'
p417
I221
sS'w+2=another'
p418
I288
sS'nsubj=people'
p419
I179
sS'prep=with'
p420
I227
sS'cc=or'
p421
I67
sS'w+2=once'
p422
I347
sS'w+2=military'
p423
I342
sS'nsubj=community'
p424
I156
sS'w-2=troops'
p425
I678
sS'w-2=school'
p426
I656
sS'w+2=its'
p427
I336
sS'conj=confirm'
p428
I82
sS'w-2=downside'
p429
I573
sS'ccomp=tilted'
p430
I75
sS'w-2=if'
p431
I598
sS'nsubj=trust'
p432
I194
sS'nsubj=exhibitor'
p433
I161
sS'w+2=suicide'
p434
I368
sS'w-2=learn'
p435
I606
sS'w-2=faith'
p436
I584
sS'w-2=willing'
p437
I690
sS'w-2=it'
p438
I603
sS'w-1=woman'
p439
I489
sS'w+2=do'
p440
I309
sS'w-2=either'
p441
I575
sS'w-1=personally'
p442
I465
sS'nsubj=Al-Haj'
p443
I125
sS'w-2=service'
p444
I659
sS'w+2=transport'
p445
I378
sS'w-1=for'
p446
I440
sS'w+2=exchange'
p447
I317
sS'w-1=soldier'
p448
I475
sS'w+2=week'
p449
I383
sS'w+2=help'
p450
I331
sS'w+1=party'
p451
I259
sS'w-2=peacekeeping'
p452
I637
sS'xcomp=raise'
p453
I707
sS'w+2=January'
p454
I276
sS'xcomp=mark'
p455
I704
sS"w+2=''"
p456
I270
sS'nsubj=country'
p457
I157
sS'w-2=Swaraj'
p458
I528
sS'w+2=four'
p459
I320
sS'nsubj=%'
p460
I124
sS'advmod=also'
p461
I21
sS'xcomp=break'
p462
I699
sS'mark=although'
p463
I111
sS'w-2=accuse'
p464
I537
sS'nsubj=Zoellick'
p465
I148
sS'w-1=Armington'
p466
I395
sS'advmod=necessarily'
p467
I41
sS'w-2=States'
p468
I527
sS'w-2=110,000'
p469
I495
sS'w-2=ngo'
p470
I624
sS'advmod=why'
p471
I54
sS'w-2=Fregosi'
p472
I512
sS'cc=and'
p473
I65
sS'nsubj=student'
p474
I190
sS'w+2=National'
p475
I281
sS'prep=under'
p476
I225
sS'nsubj=Medvedev'
p477
I139
sS'advmod=currently'
p478
I24
sS'w+1=be'
p479
I241
sS'w-1=but'
p480
I425
sS'w-1=they'
p481
I481
sS'w-2=some'
p482
I664
sS'conj=say'
p483
I89
sS'w+2=some'
p484
I364
sS'w+1=state'
p485
I262
sS'w+2=Georgia'
p486
I274
sS'w-2=agree'
p487
I540
sS'w+1=in'
p488
I249
sS'w-2=immigrant'
p489
I599
sS'w-2=force'
p490
I585
sS'nsubj=#PRP#'
p491
I123
sS'w+2=such'
p492
I367
sS'w+2=year'
p493
I390
sS'w+2=family'
p494
I318
sS'w-1=cease'
p495
I428
sS'cc=but'
p496
I66
sS'w-2=decide'
p497
I566
sS'w+2=get'
p498
I326
sS'nsubj=parent'
p499
I177
sS'xcomp=end'
p500
I700
sS'rel=in'
p501
I230
sS'w-2=party'
p502
I635
sS'w-1=company'
p503
I431
sS'nsubj=Nolasco'
p504
I142
sS'nsubj=Gibson'
p505
I133
sS'w+2=workshop'
p506
I388
sS'w-2=show'
p507
I663
sS'w+2=negotiation'
p508
I345
sS'xcomp=hold'
p509
I701
sS'w-1=gracefully'
p510
I443
sS'aux=must'
p511
I59
sS'w-2=crisis'
p512
I565
sS'w-2=hesitant'
p513
I595
sS'w+1=this'
p514
I265
sS'w+2=time'
p515
I376
sS'w-1=site'
p516
I474
sS'w-1=better'
p517
I423
sS'nsubj=Matthew'
p518
I138
sS'nsubj=worker'
p519
I200
sS'w+2=educational'
p520
I312
sS'w-2=be'
p521
I549
sS'w-1=themselves'
p522
I480
sS'nsubj=Ethiopians'
p523
I131
sS'w-2=8,000'
p524
I502
sS'w-2=system'
p525
I670
sS'prep=on'
p526
I220
sS'mark=after'
p527
I110
sS'w-1=Romanians'
p528
I405
sS'w-2=159'
p529
I496
sS'nsubj=man'
p530
I170
sS'nsubj=resident'
p531
I185
sS'w-2=by'
p532
I555
sS'dobj=there'
p533
I107
sS'nsubj=which'
p534
I196
sS'w-1=after'
p535
I413
sS'tmod=week'
p536
I232
sS'nsubj=Maasais'
p537
I137
sS'w+2=democratic'
p538
I307
sS'nsubj=everyone'
p539
I160
sS'w-1=daughter'
p540
I435
sS'w+1=via'
p541
I268
sS'w+2=election'
p542
I314
sS'parataxis=urge'
p543
I204
sS'nsubj=citizen'
p544
I155
sS'w-2=percussion'
p545
I639
sS'nsubj=woman'
p546
I198
sS'w-1=November'
p547
I403
sS'w+2=that'
p548
I370
sS'w-2=to'
p549
I676
sS'w+1=librarian'
p550
I251
sS'w-2=25,000'
p551
I501
sS'nsubj=Americans'
p552
I126
sS'w-1=who'
p553
I487
sS'w-2=get'
p554
I588
sS'w-2=want'
p555
I683
sS'w+2=any'
p556
I291
sS'w-1=or'
p557
I460
sS'w-2=whose'
p558
I688
sS'w-1=stop'
p559
I477
sS'w-2=Brotherhood'
p560
I505
sS'advcl=present'
p561
I15
sS'w-1=ask'
p562
I420
sS'w-1=of'
p563
I456
sS'w-2=2300'
p564
I500
sS'w+2=fight'
p565
I319
sS'dep=either'
p566
I96
sS'w-2=pledge'
p567
I643
sS'w+2=and'
p568
I287
sS'w-1=ship'
p569
I472
sS'w-2=and'
p570
I545
sS'w-2=hope'
p571
I597
sS'w+2=confirm'
p572
I301
sS'conj=factor'
p573
I84
sS'advmod=actually'
p574
I18
sS'conj=lobby'
p575
I87
sS'w-2=privilege'
p576
I647
sS'prep=across'
p577
I206
sS'mark=so'
p578
I117
sS'w-2=violation'
p579
I680
sS'w+2=only'
p580
I348
sS'w-2=freedom'
p581
I586
sS'w-1=necessarily'
p582
I453
sS'nsubj=faction'
p583
I163
sS'w-2=worker'
p584
I691
sS'w-2=enough'
p585
I579
sS'conj=draft'
p586
I83
sS'w-2=he'
p587
I593
sS'prep=since'
p588
I222
sS'w-2=minister'
p589
I618
sS'advcl=observe'
p590
I13
sS'advmod=fully'
p591
I32
sS'w-2=possibility'
p592
I645
sS'nsubj=those'
p593
I192
sS'prep=at'
p594
I210
sS'w-2=will'
p595
I689
sS'w+2=hostility'
p596
I332
sS'w-2=,'
p597
I493
sS'w-1=actually'
p598
I411
sS'w-2=.'
p599
I494
sS'w-2=Maoists'
p600
I519
sS'w-1=and'
p601
I418
sS'w+2=Iraq'
p602
I275
sS'w+2=development'
p603
I308
sS'aux=have'
p604
I58
sS'w-2=but'
p605
I554
sS'w-2=think'
p606
I674
sS'prep=via'
p607
I226
sS'advcl=bear'
p608
I2
sS'w+1=peacefully'
p609
I260
sS'w-1=.'
p610
I392
sS'w-1=,'
p611
I391
sS'dep=as'
p612
I95
sS'w+2=maintain'
p613
I340
sS'w-2=as'
p614
I547
sS'w-2=man'
p615
I610
sS'nsubj=score'
p616
I187
sS'w-1=also'
p617
I417
sS'prep=through'
p618
I223
sS'w+2=Wednesday'
p619
I282
sS'w-2=other'
p620
I632
sS'w-1=I'
p621
I397
sS'aux=should'
p622
I60
sS'w-2=out'
p623
I633
sS'nsubj=age'
p624
I150
sS'w-2=Saturday'
p625
I526
sS'w-2=appreciate'
p626
I546
sS'dobj=time'
p627
I108
sS'prt=in'
p628
I229
sS'w-1=volunteer'
p629
I485
sS'w-1=a'
p630
I407
sS'mark=as'
p631
I112
sS'w-1=he'
p632
I445
sS'w+1=each'
p633
I246
sS'w+1=many'
p634
I252
sS'w+2=there'
p635
I372
sS'w-1=before'
p636
I422
sS'w-1=party'
p637
I463
sS'neg=never'
p638
I120
sS'advcl=know'
p639
I10
sS'w-2=Filipino'
p640
I511
sS'w-2=major'
p641
I609
sS'nsubj=antidepressant'
p642
I152
sS'nsubj=public'
p643
I183
sS'complm=whether'
p644
I77
sS'advmod=regularly'
p645
I46
sS'w+2=various'
p646
I381
sS'prep=after'
p647
I207
sS'nsubj=opposition'
p648
I176
sS'conj=accept'
p649
I78
sS'w+2=watch'
p650
I382
sS'advcl=jail'
p651
I9
sS'w-2=year'
p652
I694
sS'w+2=have'
p653
I329
sS'ccomp=be'
p654
I69
sS'w-2=opposition'
p655
I630
sS'w+1=with'
p656
I269
sS'prep=against'
p657
I208
sS'w-1=Olympiad'
p658
I404
sS'advmod=in'
p659
I37
sS'advmod=personally'
p660
I45
sS'w-2=religious'
p661
I649
sS'nsubj=Citizens'
p662
I129
sS'w-2=likely'
p663
I608
sS'dobj=saibanin'
p664
I104
sS'nsubj=brother'
p665
I153
sS'w+2=pro-democracy'
p666
I355
sS'advmod=how'
p667
I36
sS'w-2=princess'
p668
I646
sS'w-2=have'
p669
I592
sS'w-1=even'
p670
I438
sS'w-1=all'
p671
I415
sS'prep=from'
p672
I215
sS'w-2=donor'
p673
I572
sS'w-2=start'
p674
I666
sS'w-2=help'
p675
I594
sS'w-2=bar'
p676
I548
sS'nsubj=frigate'
p677
I165
sS'aux=to'
p678
I61
sS'w-2=you'
p679
I695
sS'w-2=should'
p680
I662
sS'w-2=Kyi'
p681
I517
sS'w+2=the'
p682
I371
sS'w-1=only'
p683
I458
sS'w-2=al-qaida'
p684
I541
sS'w+2=;'
p685
I273
sS'w+2=event'
p686
I316
sS'nsubj=donor'
p687
I159
sS'advcl=establish'
p688
I7
sS'w+1=country'
p689
I244
sS'w+1=-'
p690
I235
sS'w+1=,'
p691
I234
sS'w+1=.'
p692
I236
sS'w-1=briefly'
p693
I424
sS'nsubj=Nour'
p694
I143
sS'dep=after'
p695
I94
sS'w+2=.'
p696
I272
sS'w+2=,'
p697
I271
sS'w-1=Mutambara'
p698
I401
sS'neg=not'
p699
I121
sS'w+1=?'
p700
I237
sS'prep=during'
p701
I213
sS'w+2=decide'
p702
I305
sS'xcomp=shoulder'
p703
I709
sS'w-2=Union'
p704
I531
sS'w-2=allow'
p705
I542
sS'w-1=adventure'
p706
I412
sS'w-1=on'
p707
I457
sS'w-1=continue'
p708
I432
sS'w-1=not'
p709
I455
sS'w+2=significant'
p710
I362
sS'w+1=but'
p711
I243
sS'ccomp=mean'
p712
I73
sS'advmod=reportedly'
p713
I47
sS'w-1=that'
p714
I478
sS'aux=be'
p715
I55
sS'w+2=big'
p716
I297
sS'w+2=a'
p717
I283
ssS'dtype'
p718
cnumpy
float64
p719
sS'feature_names_'
p720
(lp721
g216
ag124
ag608
ag202
ag328
ag18
ag45
ag688
ag178
ag651
ag639
ag285
ag111
ag590
ag156
ag561
ag182
ag247
ag574
ag275
ag413
ag461
ag62
ag9
ag478
ag192
ag81
ag34
ag218
ag398
ag73
ag329
ag591
ag20
ag313
ag172
ag667
ag659
ag196
ag299
ag305
ag467
ag131
ag14
ag201
ag660
ag645
ag713
ag56
ag340
ag112
ag8
ag141
ag270
ag471
ag715
ag114
ag407
ag604
ag511
ag622
ag678
ag412
ag144
ag292
ag473
ag496
ag421
ag78
ag654
ag24
ag237
ag108
ag712
ag99
ag430
ag115
ag644
ag649
ag322
ag168
ag403
ag428
ag586
ag573
ag298
ag318
ag575
ag387
ag483
ag69
ag205
ag230
ag49
ag695
ag612
ag566
ag28
ag12
ag293
ag253
ag374
ag103
ag224
ag664
ag350
ag211
ag533
ag627
ag174
ag527
ag463
ag631
ag86
ag249
ag185
ag190
ag578
ag88
ag405
ag638
ag699
ag315
ag491
ag460
ag443
ag552
ag120
ag283
ag662
ag231
ag523
ag10
ag505
ag135
ag234
ag314
ag537
ag518
ag477
ag258
ag55
ag504
ag694
ag304
ag148
ag109
ag232
ag465
ag219
ag624
ag82
ag642
ag665
ag194
ag544
ag424
ag457
ag179
ag687
ag539
ag433
ag343
ag583
ag347
ag677
ag38
ag177
ag226
ag83
ag530
ag36
ag361
ag137
ag346
ag46
ag648
ag499
ag223
ag419
ag220
ag388
ag336
ag643
ag79
ag531
ag334
ag616
ag236
ag401
ag474
ag169
ag593
ag207
ag432
ag116
ag534
ag212
ag546
ag345
ag519
ag140
ag369
ag373
ag543
ag113
ag577
ag647
ag657
ag138
ag594
ag33
ag381
ag701
ag164
ag672
ag142
ag209
ag21
ag324
ag526
ag417
ag588
ag618
ag154
ag476
ag607
ag420
ag359
ag628
ag501
ag71
ag536
ag61
ag691
ag690
ag692
ag700
ag161
ag238
ag240
ag479
ag379
ag711
ag689
ag399
ag633
ag364
ag342
ag488
ag269
ag550
ag634
ag330
ag306
ag122
ag91
ag96
ag181
ag451
ag609
ag291
ag485
ag125
ag311
ag514
ag262
ag268
ag541
ag656
ag456
ag697
ag696
ag685
ag486
ag602
ag454
ag13
ag274
ag327
ag256
ag475
ag619
ag717
ag186
ag406
ag80
ag568
ag418
ag310
ag100
ag556
ag286
ag284
ag110
ag47
ag132
ag716
ag278
ag25
ag176
ag572
ag40
ag297
ag243
ag702
ag351
ag538
ag603
ag440
ag222
ag41
ag520
ag118
ag542
ag162
ag686
ag447
ag494
ag565
ag459
ag317
ag127
ag367
ag19
ag151
ag498
ag294
ag323
ag653
ag344
ag450
ag596
ag104
ag288
ag107
ag427
ag16
ag295
ag93
ag613
ag276
ag423
ag48
ag266
ag508
ag203
ag422
ag580
ag408
ag58
ag117
ag149
ag382
ag368
ag666
ag396
ag23
ag392
ag239
ag280
ag358
ag710
ag165
ag484
ag282
ag320
ag492
ag434
ag206
ag548
ag682
ag635
ag281
ag390
ag385
ag515
ag90
ag445
ag248
ag229
ag646
ag650
ag449
ag106
ag384
ag198
ag119
ag506
ag378
ag493
ag611
ag610
ag241
ag68
ag466
ag395
ag621
ag170
ag52
ag377
ag698
ag195
ag547
ag658
ag528
ag133
ag630
ag147
ag193
ag51
ag598
ag706
ag535
ag228
ag671
ag139
ag617
ag601
ag353
ag562
ag72
ag636
ag517
ag693
ag480
ag70
ag255
ag495
ag128
ag150
ag503
ag708
ag250
ag246
ag540
ag153
ag348
ag670
ag259
ag446
ag121
ag307
ag510
ag98
ag632
ag175
ag42
ag200
ag134
ag129
ag319
ag152
ag582
ag366
ag709
ag563
ag707
ag683
ag409
ag557
ag400
ag357
ag637
ag325
ag442
ag15
ag260
ag279
ag44
ag64
ag365
ag569
ag167
ag516
ag448
ag242
ag559
ag714
ag180
ag522
ag481
ag267
ag217
ag76
ag629
ag54
ag553
ag63
ag439
ag252
ag337
ag363
ag597
ag599
ag469
ag529
ag197
ag386
ag316
ag564
ag551
ag524
ag309
ag362
ag560
ag214
ag143
ag416
ag251
ag339
ag640
ag472
ag254
ag84
ag123
ag30
ag681
ag389
ag600
ag17
ag360
ag380
ag95
ag227
ag257
ag625
ag468
ag458
ag155
ag27
ag704
ag326
ag372
ag191
ag233
ag261
ag464
ag341
ag210
ag487
ag684
ag705
ag411
ag383
ag570
ag626
ag614
ag676
ag521
ag208
ag53
ag31
ag375
ag605
ag532
ag29
ag171
ag263
ag187
ag349
ag146
ag265
ag35
ag199
ag512
ag497
ag89
ag335
ag303
ag189
ag225
ag673
ag429
ag213
ag441
ag26
ag158
ag397
ag585
ag188
ag183
ag289
ag404
ag436
ag490
ag581
ag57
ag554
ag376
ag136
ag312
ag669
ag587
ag675
ag513
ag97
ag571
ag431
ag489
ag94
ag352
ag410
ag438
ag301
ag145
ag435
ag244
ag663
ag641
ag615
ag92
ag302
ag159
ag102
ag74
ag402
ag157
ag589
ag333
ag85
ag66
ag184
ag355
ag470
ag39
ag43
ag215
ag331
ag277
ag655
ag300
ag620
ag623
ag65
ag502
ag415
ag452
ag67
ag545
ag75
ag394
ag204
ag567
ag332
ag592
ag668
ag576
ag37
ag661
ag264
ag371
ag166
ag414
ag271
ag22
ag426
ag287
ag50
ag444
ag308
ag273
ag680
ag507
ag482
ag393
ag674
ag221
ag391
ag272
ag525
ag126
ag77
ag32
ag606
ag321
ag549
ag338
ag425
ag245
ag579
ag290
ag296
ag555
ag59
ag105
ag354
ag87
ag558
ag595
ag437
ag584
ag356
ag370
ag652
ag679
ag60
ag173
ag163
ag462
ag500
ag509
ag160
ag11
ag455
ag130
ag235
ag453
ag101
ag703
asS'separator'
p722
S'='
sS'sparse'
p723
I01
sb.