ccopy_reg
_reconstructor
p1
(csklearn.feature_extraction.dict_vectorizer
DictVectorizer
p2
c__builtin__
object
p3
NtRp4
(dp5
S'sort'
p6
I01
sS'feature_names_'
p7
(lp8
S'acomp=downward'
p9
aS'acomp=due'
p10
aS'advcl=agree'
p11
aS'advcl=allow'
p12
aS'advcl=begin'
p13
aS'advcl=deliver'
p14
aS'advcl=die'
p15
aS'advcl=do'
p16
aS'advcl=fail'
p17
aS'advcl=kick'
p18
aS'advcl=reject'
p19
aS'advcl=run'
p20
aS'advcl=trade'
p21
aS'advmod=ago'
p22
aS'advmod=almost'
p23
aS'advmod=already'
p24
aS'advmod=but'
p25
aS'advmod=even'
p26
aS'advmod=everywhere'
p27
aS'advmod=forever'
p28
aS'advmod=horizontally'
p29
aS'advmod=just'
p30
aS'advmod=last'
p31
aS'advmod=nearly'
p32
aS'advmod=now'
p33
aS'advmod=probably'
p34
aS'advmod=quickly'
p35
aS'advmod=reportedly'
p36
aS'advmod=simply'
p37
aS'advmod=soon'
p38
aS'advmod=suddenly'
p39
aS'advmod=then'
p40
aS'advmod=though'
p41
aS'advmod=totally'
p42
aS'advmod=when'
p43
aS'advmod=where'
p44
aS'advmod=why'
p45
aS'amod=brutal'
p46
aS'amod=classic'
p47
aS'amod=deadly'
p48
aS'amod=disorderly'
p49
aS'amod=economic'
p50
aS'amod=entire'
p51
aS'amod=eventual'
p52
aS'amod=financial'
p53
aS'amod=humanitarian'
p54
aS'amod=imminent'
p55
aS'amod=immune'
p56
aS'amod=latest'
p57
aS'amod=near'
p58
aS'amod=possible'
p59
aS'amod=propose'
p60
aS'amod=quick'
p61
aS'amod=small'
p62
aS'amod=soviet'
p63
aS'amod=sub-prime'
p64
aS'amod=sudden'
p65
aS'amod=swift'
p66
aS'amod=total'
p67
aS'amod=virtual'
p68
aS'appos=worker'
p69
aS'aux=be'
p70
aS'aux=can'
p71
aS'aux=could'
p72
aS'aux=do'
p73
aS'aux=have'
p74
aS'aux=may'
p75
aS'aux=might'
p76
aS'aux=to'
p77
aS'aux=will'
p78
aS'aux=would'
p79
aS'cc=and'
p80
aS'cc=but'
p81
aS'cc=or'
p82
aS'ccomp=available'
p83
aS'ccomp=broadcast'
p84
aS'ccomp=gush'
p85
aS'ccomp=present'
p86
aS'complm=that'
p87
aS'complm=whether'
p88
aS'conj=Congo'
p89
aS'conj=bring'
p90
aS'conj=call'
p91
aS'conj=crisis'
p92
aS'conj=destroy'
p93
aS'conj=die'
p94
aS'conj=disappear'
p95
aS'conj=fear'
p96
aS'conj=get'
p97
aS'conj=go'
p98
aS'conj=lose'
p99
aS'conj=people'
p100
aS'conj=soul'
p101
aS'conj=stack'
p102
aS'conj=start'
p103
aS'conj=sweep'
p104
aS'conj=war'
p105
aS'cop=be'
p106
aS'dep=$'
p107
aS'dep=before'
p108
aS'dep=come'
p109
aS'dep=deport'
p110
aS'dep=do'
p111
aS'dep=negotiation'
p112
aS'dep=sign'
p113
aS'dep=that'
p114
aS'det=a'
p115
aS'det=any'
p116
aS'det=the'
p117
aS'dobj=arrangement'
p118
aS'dobj=bridge'
p119
aS'dobj=building'
p120
aS'dobj=container'
p121
aS'dobj=lung'
p122
aS'dobj=minaret'
p123
aS'dobj=service'
p124
aS'dobj=that'
p125
aS'dobj=time'
p126
aS'dobj=way'
p127
aS'infmod=reach'
p128
aS'mark=after'
p129
aS'mark=as'
p130
aS'mark=because'
p131
aS'mark=before'
p132
aS'mark=if'
p133
aS'mark=in'
p134
aS'mark=since'
p135
aS'mark=unless'
p136
aS'neg=never'
p137
aS'neg=not'
p138
aS'nn=bridge'
p139
aS'nn=building'
p140
aS'nn=business'
p141
aS'nn=coalition'
p142
aS'nn=insurgency'
p143
aS'nn=market'
p144
aS'nn=mortgage'
p145
aS'nn=system'
p146
aS'nn=talk'
p147
aS'nsubj=#NUMBER#'
p148
aS'nsubj=#PRP#'
p149
aS'nsubj=AIG'
p150
aS'nsubj=Brothers'
p151
aS'nsubj=Mutual'
p152
aS'nsubj=Pact'
p153
aS'nsubj=Pyongyang'
p154
aS'nsubj=Round'
p155
aS'nsubj=Tambo'
p156
aS'nsubj=Union'
p157
aS'nsubj=accord'
p158
aS'nsubj=agreement'
p159
aS'nsubj=attempt'
p160
aS'nsubj=baht'
p161
aS'nsubj=bridge'
p162
aS'nsubj=building'
p163
aS'nsubj=business'
p164
aS'nsubj=campaign'
p165
aS'nsubj=care'
p166
aS'nsubj=cease-fire'
p167
aS'nsubj=ceasefire'
p168
aS'nsubj=center'
p169
aS'nsubj=civilian'
p170
aS'nsubj=coalition'
p171
aS'nsubj=conflict'
p172
aS'nsubj=court'
p173
aS'nsubj=economy'
p174
aS'nsubj=effect'
p175
aS'nsubj=everything'
p176
aS'nsubj=explosion'
p177
aS'nsubj=force'
p178
aS'nsubj=generation'
p179
aS'nsubj=government'
p180
aS'nsubj=half'
p181
aS'nsubj=heavyweight'
p182
aS'nsubj=hillside'
p183
aS'nsubj=house'
p184
aS'nsubj=infrastructure'
p185
aS'nsubj=leg'
p186
aS'nsubj=market'
p187
aS'nsubj=mechanism'
p188
aS'nsubj=movement'
p189
aS'nsubj=mud-brick'
p190
aS'nsubj=negotiation'
p191
aS'nsubj=paradigm'
p192
aS'nsubj=part'
p193
aS'nsubj=people'
p194
aS'nsubj=pillar'
p195
aS'nsubj=power'
p196
aS'nsubj=process'
p197
aS'nsubj=quarry'
p198
aS'nsubj=regime'
p199
aS'nsubj=rig'
p200
aS'nsubj=roof'
p201
aS'nsubj=round'
p202
aS'nsubj=school'
p203
aS'nsubj=seconds'
p204
aS'nsubj=service'
p205
aS'nsubj=several'
p206
aS'nsubj=simulated'
p207
aS'nsubj=state'
p208
aS'nsubj=stock'
p209
aS'nsubj=stretch'
p210
aS'nsubj=system'
p211
aS'nsubj=talk'
p212
aS'nsubj=that'
p213
aS'nsubj=these'
p214
aS'nsubj=tower'
p215
aS'nsubj=trial'
p216
aS'nsubj=truce'
p217
aS'nsubj=wall'
p218
aS'nsubj=which'
p219
aS'nsubj=woman'
p220
aS'parataxis=work'
p221
aS'partmod=wade'
p222
aS'poss=#PRP#'
p223
aS'poss=Center'
p224
aS'poss=Iraq'
p225
aS'poss=year'
p226
aS'predet=such'
p227
aS'prep=about'
p228
aS'prep=after'
p229
aS'prep=along'
p230
aS'prep=as'
p231
aS'prep=at'
p232
aS'prep=during'
p233
aS'prep=for'
p234
aS'prep=from'
p235
aS'prep=in'
p236
aS'prep=include'
p237
aS'prep=of'
p238
aS'prep=on'
p239
aS'prep=over'
p240
aS'prep=to'
p241
aS'prep=under'
p242
aS'prep=while'
p243
aS'prep=with'
p244
aS'prep=within'
p245
aS'rcmod=expect'
p246
aS'rcmod=finish'
p247
aS'rcmod=follow'
p248
aS'rcmod=span'
p249
aS'rcmod=suffer'
p250
aS'rcmod=underpin'
p251
aS'rcmod=will'
p252
aS'rcmod=witness'
p253
aS'tmod=#DATE#'
p254
aS'tmod=day'
p255
aS'tmod=month'
p256
aS'tmod=week'
p257
aS"w+1=''"
p258
aS'w+1=,'
p259
aS'w+1=-'
p260
aS'w+1=--'
p261
aS'w+1=.'
p262
aS'w+1=10'
p263
aS'w+1=a'
p264
aS'w+1=about'
p265
aS'w+1=after'
p266
aS'w+1=along'
p267
aS'w+1=and'
p268
aS'w+1=as'
p269
aS'w+1=at'
p270
aS'w+1=be'
p271
aS'w+1=because'
p272
aS'w+1=bridge'
p273
aS'w+1=building'
p274
aS'w+1=can'
p275
aS'w+1=container'
p276
aS'w+1=downward'
p277
aS'w+1=due'
p278
aS'w+1=during'
p279
aS'w+1=economy'
p280
aS'w+1=every'
p281
aS'w+1=everywhere'
p282
aS'w+1=for'
p283
aS'w+1=forever'
p284
aS'w+1=from'
p285
aS'w+1=he'
p286
aS'w+1=home'
p287
aS'w+1=if'
p288
aS'w+1=in'
p289
aS'w+1=into'
p290
aS'w+1=last'
p291
aS'w+1=late'
p292
aS'w+1=leave'
p293
aS'w+1=lung'
p294
aS'w+1=more'
p295
aS'w+1=of'
p296
aS'w+1=on'
p297
aS'w+1=or'
p298
aS'w+1=over'
p299
aS'w+1=remain'
p300
aS'w+1=seven'
p301
aS'w+1=social'
p302
aS'w+1=state'
p303
aS'w+1=stock'
p304
aS'w+1=the'
p305
aS'w+1=then'
p306
aS'w+1=they'
p307
aS'w+1=time'
p308
aS'w+1=to'
p309
aS'w+1=towards'
p310
aS'w+1=two'
p311
aS'w+1=under'
p312
aS'w+1=unless'
p313
aS'w+1=wall'
p314
aS'w+1=we'
p315
aS'w+1=when'
p316
aS'w+1=while'
p317
aS'w+1=with'
p318
aS'w+1=without'
p319
aS'w+1=would'
p320
aS"w+2=''"
p321
aS'w+2=,'
p322
aS'w+2=.'
p323
aS'w+2=1989'
p324
aS'w+2=1991'
p325
aS'w+2=1992'
p326
aS'w+2=2000'
p327
aS'w+2=350'
p328
aS'w+2=Angkor'
p329
aS'w+2=Clack'
p330
aS'w+2=Communism'
p331
aS'w+2=East'
p332
aS'w+2=I'
p333
aS'w+2=Indiana'
p334
aS'w+2=Iraq'
p335
aS'w+2=Israel'
p336
aS'w+2=Lehman'
p337
aS'w+2=Minnesota'
p338
aS'w+2=Mr.'
p339
aS'w+2=Obama'
p340
aS'w+2=Raton'
p341
aS'w+2=Sudan'
p342
aS'w+2=Sunday'
p343
aS'w+2=a'
p344
aS'w+2=additional'
p345
aS'w+2=agony'
p346
aS'w+2=agree'
p347
aS'w+2=american'
p348
aS'w+2=anarchy'
p349
aS'w+2=and'
p350
aS'w+2=any'
p351
aS'w+2=as'
p352
aS'w+2=at'
p353
aS'w+2=be'
p354
aS'w+2=bipartisan'
p355
aS'w+2=bring'
p356
aS'w+2=building'
p357
aS'w+2=bury'
p358
aS'w+2=but'
p359
aS'w+2=come'
p360
aS'w+2=concession'
p361
aS'w+2=create'
p362
aS'w+2=crisis'
p363
aS'w+2=crop'
p364
aS'w+2=day'
p365
aS'w+2=democracy'
p366
aS'w+2=devolution'
p367
aS'w+2=disappear'
p368
aS'w+2=early'
p369
aS'w+2=ensure'
p370
aS'w+2=expect'
p371
aS'w+2=fall'
p372
aS'w+2=fear'
p373
aS'w+2=force'
p374
aS'w+2=freeway'
p375
aS'w+2=global'
p376
aS'w+2=government'
p377
aS'w+2=harm'
p378
aS'w+2=have'
p379
aS'w+2=he'
p380
aS'w+2=hope'
p381
aS'w+2=horizontally'
p382
aS'w+2=if'
p383
aS'w+2=in'
p384
aS'w+2=insecurity'
p385
aS'w+2=international'
p386
aS'w+2=it'
p387
aS'w+2=lack'
p388
aS'w+2=last'
p389
aS'w+2=major'
p390
aS'w+2=many'
p391
aS'w+2=mosque'
p392
aS'w+2=negotiation'
p393
aS'w+2=nine'
p394
aS'w+2=of'
p395
aS'w+2=oil'
p396
aS'w+2=one'
p397
aS'w+2=only'
p398
aS'w+2=political'
p399
aS'w+2=power'
p400
aS'w+2=present'
p401
aS'w+2=price'
p402
aS'w+2=read'
p403
aS'w+2=rescue'
p404
aS'w+2=service'
p405
aS'w+2=several'
p406
aS'w+2=she'
p407
aS'w+2=spending'
p408
aS'w+2=state'
p409
aS'w+2=struggle'
p410
aS'w+2=such'
p411
aS'w+2=than'
p412
aS'w+2=that'
p413
aS'w+2=the'
p414
aS'w+2=there'
p415
aS'w+2=they'
p416
aS'w+2=this'
p417
aS'w+2=though'
p418
aS'w+2=thousand'
p419
aS'w+2=throw'
p420
aS'w+2=time'
p421
aS'w+2=to'
p422
aS'w+2=way'
p423
aS'w+2=we'
p424
aS'w+2=week'
p425
aS'w+2=western'
p426
aS'w+2=which'
p427
aS'w+2=white'
p428
aS'w+2=would'
p429
aS'w+2=year'
p430
aS'w+2=you'
p431
aS"w-1=''"
p432
aS"w-1='s"
p433
aS'w-1=,'
p434
aS'w-1=Belles'
p435
aS'w-1=Brothers'
p436
aS'w-1=Convention'
p437
aS'w-1=Gaza'
p438
aS'w-1=Mutual'
p439
aS'w-1=Pact'
p440
aS'w-1=Palestinians'
p441
aS'w-1=Round'
p442
aS'w-1=Syria'
p443
aS'w-1=Tambo'
p444
aS'w-1=Union'
p445
aS'w-1=a'
p446
aS'w-1=accord'
p447
aS'w-1=after'
p448
aS'w-1=agreement'
p449
aS'w-1=almost'
p450
aS'w-1=already'
p451
aS'w-1=and'
p452
aS'w-1=any'
p453
aS'w-1=avert'
p454
aS'w-1=baht'
p455
aS'w-1=be'
p456
aS'w-1=begin'
p457
aS'w-1=bridge'
p458
aS'w-1=building'
p459
aS'w-1=business'
p460
aS'w-1=but'
p461
aS'w-1=can'
p462
aS'w-1=cease-fire'
p463
aS'w-1=coalition'
p464
aS'w-1=complete'
p465
aS'w-1=could'
p466
aS'w-1=country'
p467
aS'w-1=deadly'
p468
aS'w-1=disorderly'
p469
aS'w-1=economic'
p470
aS'w-1=economy'
p471
aS'w-1=even'
p472
aS'w-1=eventual'
p473
aS'w-1=everything'
p474
aS'w-1=explain'
p475
aS'w-1=face'
p476
aS'w-1=final-round'
p477
aS'w-1=financial'
p478
aS'w-1=force'
p479
aS'w-1=from'
p480
aS'w-1=government'
p481
aS'w-1=have'
p482
aS'w-1=highway'
p483
aS'w-1=hillside'
p484
aS'w-1=house'
p485
aS'w-1=humanitarian'
p486
aS'w-1=imminent'
p487
aS'w-1=insurgency'
p488
aS'w-1=issue'
p489
aS'w-1=it'
p490
aS'w-1=just'
p491
aS'w-1=latest'
p492
aS'w-1=market'
p493
aS'w-1=may'
p494
aS'w-1=might'
p495
aS'w-1=mortgage'
p496
aS'w-1=movement'
p497
aS'w-1=near'
p498
aS'w-1=nearly'
p499
aS'w-1=negotiation'
p500
aS'w-1=never'
p501
aS'w-1=not'
p502
aS'w-1=of'
p503
aS'w-1=or'
p504
aS'w-1=paradigm'
p505
aS'w-1=people'
p506
aS'w-1=political'
p507
aS'w-1=possible'
p508
aS'w-1=process'
p509
aS'w-1=quarry'
p510
aS'w-1=quick'
p511
aS'w-1=quickly'
p512
aS'w-1=regime'
p513
aS'w-1=rig'
p514
aS'w-1=river'
p515
aS'w-1=roof'
p516
aS'w-1=school'
p517
aS'w-1=shrine'
p518
aS'w-1=simulated'
p519
aS'w-1=soon'
p520
aS'w-1=soviet'
p521
aS'w-1=sudden'
p522
aS'w-1=suddenly'
p523
aS'w-1=swift'
p524
aS'w-1=system'
p525
aS'w-1=talk'
p526
aS'w-1=that'
p527
aS'w-1=the'
p528
aS'w-1=these'
p529
aS'w-1=they'
p530
aS'w-1=to'
p531
aS'w-1=total'
p532
aS'w-1=totally'
p533
aS'w-1=towards'
p534
aS'w-1=tower'
p535
aS'w-1=truce'
p536
aS'w-1=virtual'
p537
aS'w-1=wall'
p538
aS'w-1=which'
p539
aS'w-1=why'
p540
aS'w-1=will'
p541
aS'w-1=with'
p542
aS'w-1=woman'
p543
aS"w-2=''"
p544
aS'w-2=,'
p545
aS'w-2=.'
p546
aS'w-2=2002'
p547
aS'w-2=AIG'
p548
aS'w-2=Adelaide'
p549
aS'w-2=Center'
p550
aS'w-2=Courts'
p551
aS'w-2=Development'
p552
aS'w-2=Gaza'
p553
aS'w-2=Government'
p554
aS'w-2=Iraq'
p555
aS'w-2=Israel'
p556
aS'w-2=Lehman'
p557
aS'w-2=Oslo'
p558
aS'w-2=Palestinians'
p559
aS'w-2=River'
p560
aS'w-2=Soviet'
p561
aS'w-2=Thai'
p562
aS'w-2=Warsaw'
p563
aS'w-2=Washington'
p564
aS'w-2=Weapons'
p565
aS'w-2=a'
p566
aS'w-2=about'
p567
aS'w-2=accident'
p568
aS'w-2=administration'
p569
aS'w-2=after'
p570
aS'w-2=agreement'
p571
aS'w-2=all'
p572
aS'w-2=allow'
p573
aS'w-2=and'
p574
aS'w-2=as'
p575
aS'w-2=askariya'
p576
aS'w-2=authority'
p577
aS'w-2=available'
p578
aS'w-2=avert'
p579
aS'w-2=be'
p580
aS'w-2=because'
p581
aS'w-2=before'
p582
aS'w-2=blame'
p583
aS'w-2=bleeding'
p584
aS'w-2=bridge'
p585
aS'w-2=brink'
p586
aS'w-2=brutal'
p587
aS'w-2=building'
p588
aS'w-2=but'
p589
aS'w-2=by'
p590
aS'w-2=campaign'
p591
aS'w-2=cause'
p592
aS'w-2=cave'
p593
aS'w-2=ceasefire'
p594
aS'w-2=center'
p595
aS'w-2=central'
p596
aS'w-2=church'
p597
aS'w-2=civilian'
p598
aS'w-2=coalition'
p599
aS'w-2=communist'
p600
aS'w-2=country'
p601
aS'w-2=court'
p602
aS'w-2=credit'
p603
aS'w-2=dam'
p604
aS'w-2=danger'
p605
aS'w-2=death'
p606
aS'w-2=debris'
p607
aS'w-2=deficiency'
p608
aS'w-2=dependence'
p609
aS'w-2=do'
p610
aS'w-2=economy'
p611
aS'w-2=eight'
p612
aS'w-2=entire'
p613
aS'w-2=erode'
p614
aS'w-2=exemplify'
p615
aS'w-2=face'
p616
aS'w-2=farming'
p617
aS'w-2=financial'
p618
aS'w-2=firm'
p619
aS'w-2=follow'
p620
aS'w-2=for'
p621
aS'w-2=force'
p622
aS'w-2=fragile'
p623
aS'w-2=from'
p624
aS'w-2=fundamentalist'
p625
aS'w-2=global'
p626
aS'w-2=government'
p627
aS'w-2=hammer'
p628
aS'w-2=have'
p629
aS'w-2=he'
p630
aS'w-2=head'
p631
aS'w-2=healthcare'
p632
aS'w-2=high'
p633
aS'w-2=hope'
p634
aS'w-2=house'
p635
aS'w-2=housing'
p636
aS'w-2=immune'
p637
aS'w-2=in'
p638
aS'w-2=include'
p639
aS'w-2=infrastructure'
p640
aS'w-2=institution'
p641
aS'w-2=islamist'
p642
aS'w-2=it'
p643
aS'w-2=leg'
p644
aS'w-2=likely'
p645
aS'w-2=loop'
p646
aS'w-2=major'
p647
aS'w-2=military'
p648
aS'w-2=month'
p649
aS'w-2=mud-brick'
p650
aS'w-2=norwegian-brokered'
p651
aS'w-2=not'
p652
aS'w-2=now'
p653
aS'w-2=of'
p654
aS'w-2=off'
p655
aS'w-2=one'
p656
aS'w-2=or'
p657
aS'w-2=peace'
p658
aS'w-2=pipe'
p659
aS'w-2=politician'
p660
aS'w-2=power-sharing'
p661
aS'w-2=prevent'
p662
aS'w-2=probably'
p663
aS'w-2=process'
p664
aS'w-2=propose'
p665
aS'w-2=province'
p666
aS'w-2=quote'
p667
aS'w-2=rebel'
p668
aS'w-2=risk'
p669
aS'w-2=road'
p670
aS'w-2=say'
p671
aS'w-2=school'
p672
aS'w-2=sector'
p673
aS'w-2=see'
p674
aS'w-2=service'
p675
aS'w-2=since'
p676
aS'w-2=small'
p677
aS'w-2=some'
p678
aS'w-2=stalemate'
p679
aS'w-2=state'
p680
aS'w-2=stock'
p681
aS'w-2=structure'
p682
aS'w-2=sub-prime'
p683
aS'w-2=such'
p684
aS'w-2=summit'
p685
aS'w-2=system'
p686
aS'w-2=talk'
p687
aS'w-2=textile'
p688
aS'w-2=that'
p689
aS'w-2=the'
p690
aS'w-2=they'
p691
aS'w-2=those'
p692
aS'w-2=threaten'
p693
aS'w-2=to'
p694
aS'w-2=trial'
p695
aS'w-2=truce'
p696
aS'w-2=two'
p697
aS'w-2=under'
p698
aS'w-2=unity'
p699
aS'w-2=verge'
p700
aS'w-2=we'
p701
aS'w-2=when'
p702
aS'w-2=with'
p703
aS'w-2=worker'
p704
aS'w-2=year'
p705
aS'xcomp=bury'
p706
aS'xcomp=cause'
p707
aS'xcomp=earn'
p708
aS'xcomp=lead'
p709
aS'xcomp=leave'
p710
aS'xcomp=throw'
p711
asS'dtype'
p712
cnumpy
float64
p713
sS'vocabulary_'
p714
(dp715
g40
I31
sg609
I600
sg62
I53
sg307
I298
sg193
I184
sg512
I503
sg701
I692
sg569
I560
sg375
I366
sg606
I597
sg461
I452
sg635
I626
sg508
I499
sg382
I373
sg548
I539
sg359
I350
sg538
I529
sg249
I240
sg201
I192
sg386
I377
sg35
I26
sg197
I188
sg183
I174
sg708
I699
sg710
I701
sg346
I337
sg465
I456
sg470
I461
sg369
I360
sg691
I682
sg676
I667
sg164
I155
sg378
I369
sg245
I236
sg601
I592
sg91
I82
sg678
I669
sg180
I171
sg64
I55
sg699
I690
sg493
I484
sg15
I6
sg462
I453
sg303
I294
sg468
I459
sg226
I217
sg274
I265
sg624
I615
sg30
I21
sg406
I397
sg93
I84
sg169
I160
sg541
I532
sg9
I0
sg75
I66
sg347
I338
sg199
I190
sg642
I633
sg277
I268
sg456
I447
sg392
I383
sg690
I681
sg582
I573
sg246
I237
sg225
I216
sg669
I660
sg42
I33
sg536
I527
sg628
I619
sg131
I122
sg76
I67
sg296
I287
sg547
I538
sg331
I322
sg136
I127
sg422
I413
sg297
I288
sg640
I631
sg389
I380
sg298
I289
sg46
I37
sg664
I655
sg482
I473
sg330
I321
sg383
I374
sg272
I263
sg679
I670
sg384
I375
sg488
I479
sg387
I378
sg616
I607
sg325
I316
sg572
I563
sg466
I457
sg533
I524
sg228
I219
sg539
I530
sg87
I78
sg556
I547
sg256
I247
sg227
I218
sg583
I574
sg282
I273
sg700
I691
sg247
I238
sg177
I168
sg241
I232
sg128
I119
sg419
I410
sg689
I680
sg305
I296
sg559
I550
sg621
I612
sg354
I345
sg349
I340
sg292
I283
sg670
I661
sg651
I642
sg451
I442
sg50
I41
sg214
I205
sg236
I227
sg28
I19
sg79
I70
sg283
I274
sg576
I567
sg51
I42
sg258
I249
sg594
I585
sg250
I241
sg477
I468
sg184
I175
sg204
I195
sg480
I471
sg683
I674
sg222
I213
sg563
I554
sg399
I390
sg126
I117
sg521
I512
sg360
I351
sg17
I8
sg22
I13
sg534
I525
sg268
I259
sg530
I521
sg122
I113
sg210
I201
sg160
I151
sg34
I25
sg115
I106
sg567
I558
sg273
I264
sg213
I204
sg490
I481
sg627
I618
sg478
I469
sg370
I361
sg428
I419
sg424
I415
sg315
I306
sg511
I502
sg551
I542
sg19
I10
sg178
I169
sg528
I519
sg143
I134
sg439
I430
sg102
I93
sg341
I332
sg27
I18
sg301
I292
sg133
I124
sg588
I579
sg400
I391
sg134
I125
sg41
I32
sg584
I575
sg44
I35
sg592
I583
sg365
I356
sg578
I569
sg212
I203
sg602
I593
sg550
I541
sg158
I149
sg554
I545
sg68
I59
sg117
I108
sg363
I354
sg450
I441
sg237
I228
sg217
I208
sg560
I551
sg327
I318
sg342
I333
sg498
I489
sg654
I645
sg682
I673
sg275
I266
sg140
I131
sg146
I137
sg531
I522
sg579
I570
sg251
I242
sg188
I179
sg408
I399
sg693
I684
sg610
I601
sg48
I39
sg157
I148
sg190
I181
sg37
I28
sg489
I480
sg537
I528
sg240
I231
sg269
I260
sg270
I261
sg637
I628
sg286
I277
sg697
I688
sg285
I276
sg519
I510
sg99
I90
sg467
I458
sg562
I553
sg648
I639
sg196
I187
sg304
I295
sg441
I432
sg459
I450
sg542
I533
sg367
I358
sg677
I668
sg311
I302
sg43
I34
sg20
I11
sg206
I197
sg338
I329
sg230
I221
sg688
I679
sg234
I225
sg144
I135
sg587
I578
sg114
I105
sg356
I347
sg514
I505
sg396
I387
sg69
I60
sg600
I591
sg353
I344
sg479
I470
sg145
I136
sg352
I343
sg371
I362
sg320
I311
sg409
I400
sg577
I568
sg433
I424
sg535
I526
sg202
I193
sg435
I426
sg54
I45
sg141
I132
sg156
I147
sg253
I244
sg615
I606
sg362
I353
sg216
I207
sg337
I328
sg458
I449
sg208
I199
sg148
I139
sg24
I15
sg238
I229
sg407
I398
sg436
I427
sg505
I496
sg159
I150
sg312
I303
sg119
I110
sg65
I56
sg618
I609
sg67
I58
sg361
I352
sg432
I423
sg108
I99
sg692
I683
sg31
I22
sg336
I327
sg153
I144
sg430
I421
sg139
I130
sg663
I654
sg655
I646
sg56
I47
sg649
I640
sg573
I564
sg84
I75
sg85
I76
sg444
I435
sg10
I1
sg544
I535
sg510
I501
sg252
I243
sg395
I386
sg570
I561
sg385
I376
sg309
I300
sg607
I598
sg248
I239
sg484
I475
sg452
I443
sg116
I107
sg561
I552
sg162
I153
sg586
I577
sg96
I87
sg453
I444
sg82
I73
sg142
I133
sg662
I653
sg603
I594
sg348
I339
sg276
I267
sg591
I582
sg203
I194
sg598
I589
sg388
I379
sg501
I492
sg198
I189
sg372
I363
sg625
I616
sg626
I617
sg680
I671
sg21
I12
sg497
I488
sg209
I200
sg299
I290
sg506
I497
sg49
I40
sg645
I636
sg255
I246
sg417
I408
sg152
I143
sg568
I559
sg86
I77
sg207
I198
sg181
I172
sg329
I320
sg555
I546
sg191
I182
sg485
I476
sg475
I466
sg420
I411
sg26
I17
sg173
I164
sg123
I114
sg673
I664
sg243
I234
sg186
I177
sg73
I64
sg703
I694
sg78
I69
sg404
I395
sg391
I382
sg12
I3
sg326
I317
sg343
I334
sg194
I185
sg244
I235
sg175
I166
sg357
I348
sg334
I325
sg83
I74
sg111
I102
sg154
I145
sg518
I509
sg150
I141
sg638
I629
sg486
I477
sg205
I196
sg200
I191
sg614
I605
sg643
I634
sg413
I404
sg604
I595
sg366
I357
sg280
I271
sg526
I517
sg161
I152
sg483
I474
sg447
I438
sg675
I666
sg328
I319
sg381
I372
sg314
I305
sg220
I211
sg294
I285
sg425
I416
sg543
I534
sg448
I439
sg319
I310
sg321
I312
sg617
I608
sg455
I446
sg340
I331
sg266
I257
sg571
I562
sg179
I170
sg284
I275
sg641
I632
sg182
I173
sg118
I109
sg464
I455
sg192
I183
sg516
I507
sg613
I604
sg63
I54
sg39
I30
sg60
I51
sg667
I658
sg45
I36
sg629
I620
sg168
I159
sg80
I71
sg100
I91
sg242
I233
sg520
I511
sg437
I428
sg23
I14
sg491
I482
sg522
I513
sg221
I212
sg460
I451
sg224
I215
sg685
I676
sg623
I614
sg58
I49
sg695
I686
sg585
I576
sg702
I693
sg261
I252
sg288
I279
sg287
I278
sg658
I649
sg289
I280
sg513
I504
sg125
I116
sg149
I140
sg492
I483
sg265
I256
sg390
I381
sg644
I635
sg619
I610
sg469
I460
sg674
I665
sg418
I409
sg706
I697
sg290
I281
sg696
I687
sg605
I596
sg81
I72
sg394
I385
sg463
I454
sg302
I293
sg517
I508
sg223
I214
sg443
I434
sg557
I548
sg454
I445
sg345
I336
sg657
I648
sg72
I63
sg171
I162
sg257
I248
sg393
I384
sg423
I414
sg524
I515
sg410
I401
sg218
I209
sg267
I258
sg132
I123
sg595
I586
sg97
I88
sg16
I7
sg681
I672
sg364
I355
sg421
I412
sg636
I627
sg495
I486
sg427
I418
sg187
I178
sg405
I396
sg496
I487
sg580
I571
sg376
I367
sg660
I651
sg665
I656
sg596
I587
sg698
I689
sg358
I349
sg239
I230
sg129
I120
sg471
I462
sg631
I622
sg590
I581
sg219
I210
sg13
I4
sg593
I584
sg373
I364
sg709
I700
sg293
I284
sg109
I100
sg92
I83
sg672
I663
sg11
I2
sg110
I101
sg412
I403
sg687
I678
sg540
I531
sg611
I602
sg98
I89
sg176
I167
sg163
I154
sg351
I342
sg504
I495
sg322
I313
sg438
I429
sg659
I650
sg599
I590
sg686
I677
sg487
I478
sg503
I494
sg211
I202
sg694
I685
sg350
I341
sg254
I245
sg574
I565
sg612
I603
sg634
I625
sg263
I254
sg317
I308
sg532
I523
sg402
I393
sg608
I599
sg398
I389
sg656
I647
sg32
I23
sg403
I394
sg106
I97
sg704
I695
sg507
I498
sg57
I48
sg666
I657
sg630
I621
sg295
I286
sg318
I309
sg105
I96
sg33
I24
sg650
I641
sg671
I662
sg107
I98
sg414
I405
sg232
I223
sg151
I142
sg231
I222
sg113
I104
sg545
I536
sg632
I623
sg546
I537
sg53
I44
sg380
I371
sg335
I326
sg74
I65
sg589
I580
sg300
I291
sg401
I392
sg434
I425
sg652
I643
sg653
I644
sg47
I38
sg281
I272
sg368
I359
sg104
I95
sg575
I566
sg38
I29
sg553
I544
sg324
I315
sg94
I85
sg620
I611
sg474
I465
sg397
I388
sg71
I62
sg278
I269
sg310
I301
sg431
I422
sg112
I103
sg279
I270
sg525
I516
sg59
I50
sg377
I368
sg566
I557
sg509
I500
sg449
I440
sg411
I402
sg189
I180
sg90
I81
sg313
I304
sg646
I637
sg446
I437
sg166
I157
sg308
I299
sg707
I698
sg523
I514
sg130
I121
sg36
I27
sg95
I86
sg124
I115
sg639
I630
sg415
I406
sg174
I165
sg137
I128
sg647
I638
sg88
I79
sg416
I407
sg552
I543
sg55
I46
sg229
I220
sg195
I186
sg170
I161
sg66
I57
sg52
I43
sg705
I696
sg120
I111
sg379
I370
sg473
I464
sg476
I467
sg18
I9
sg291
I282
sg529
I520
sg597
I588
sg121
I112
sg135
I126
sg25
I16
sg172
I163
sg472
I463
sg499
I490
sg481
I472
sg235
I226
sg440
I431
sg89
I80
sg661
I652
sg165
I156
sg316
I307
sg332
I323
sg306
I297
sg565
I556
sg77
I68
sg668
I659
sg445
I436
sg429
I420
sg215
I206
sg355
I346
sg101
I92
sg339
I330
sg500
I491
sg622
I613
sg260
I251
sg259
I250
sg262
I253
sg549
I540
sg14
I5
sg323
I314
sg684
I675
sg426
I417
sg138
I129
sg442
I433
sg233
I224
sg61
I52
sg127
I118
sg558
I549
sg633
I624
sg185
I176
sg333
I324
sg515
I506
sg103
I94
sg264
I255
sg502
I493
sg564
I555
sg457
I448
sg167
I158
sg271
I262
sg711
I702
sg494
I485
sg374
I365
sg581
I572
sg527
I518
sg70
I61
sg29
I20
sg344
I335
sg147
I138
sg155
I146
ssS'separator'
p716
S'='
sS'sparse'
p717
I01
sb.