ccopy_reg
_reconstructor
p1
(csklearn.feature_extraction.dict_vectorizer
DictVectorizer
p2
c__builtin__
object
p3
NtRp4
(dp5
S'sort'
p6
I01
sS'feature_names_'
p7
(lp8
S'advcl=approve'
p9
aS'advcl=call'
p10
aS'advcl=combine'
p11
aS'advcl=find'
p12
aS'advcl=restrict'
p13
aS'advcl=successful'
p14
aS'advcl=work'
p15
aS'advmod=also'
p16
aS'advmod=altogether'
p17
aS'advmod=completely'
p18
aS'advmod=counter'
p19
aS'advmod=effectively'
p20
aS'advmod=entirely'
p21
aS'advmod=even'
p22
aS'advmod=eventually'
p23
aS'advmod=finally'
p24
aS'advmod=how'
p25
aS'advmod=instead'
p26
aS'advmod=now'
p27
aS'advmod=probably'
p28
aS'advmod=simply'
p29
aS'advmod=so'
p30
aS'advmod=there'
p31
aS'advmod=thereby'
p32
aS'advmod=verifiably'
p33
aS'advmod=virtually'
p34
aS"aux='ll"
p35
aS'aux=be'
p36
aS'aux=can'
p37
aS'aux=could'
p38
aS'aux=do'
p39
aS'aux=have'
p40
aS'aux=may'
p41
aS'aux=might'
p42
aS'aux=must'
p43
aS'aux=should'
p44
aS'aux=to'
p45
aS'aux=will'
p46
aS'aux=would'
p47
aS'auxpass=be'
p48
aS'cc=and'
p49
aS'cc=but'
p50
aS'cc=or'
p51
aS'ccomp=call'
p52
aS'ccomp=diminish'
p53
aS'ccomp=fail'
p54
aS'ccomp=greater'
p55
aS'ccomp=mistake'
p56
aS'ccomp=occur'
p57
aS'ccomp=precondition'
p58
aS'ccomp=prohibit'
p59
aS'ccomp=say'
p60
aS'complm=that'
p61
aS'conj=achieve'
p62
aS'conj=allay'
p63
aS'conj=allow'
p64
aS'conj=assure'
p65
aS'conj=avoid'
p66
aS'conj=boost'
p67
aS'conj=constrain'
p68
aS'conj=control'
p69
aS'conj=cut'
p70
aS'conj=drop'
p71
aS'conj=encourage'
p72
aS'conj=force'
p73
aS'conj=grant'
p74
aS'conj=have'
p75
aS'conj=increase'
p76
aS'conj=integrate'
p77
aS'conj=invest'
p78
aS'conj=make'
p79
aS'conj=peace'
p80
aS'conj=posture'
p81
aS'conj=promote'
p82
aS'conj=put'
p83
aS'conj=reduce'
p84
aS'conj=restore'
p85
aS'conj=secure'
p86
aS'conj=shift'
p87
aS'conj=space'
p88
aS'conj=spend'
p89
aS'dep=can'
p90
aS'dep=controversy'
p91
aS'dep=if'
p92
aS'dep=make'
p93
aS'dep=order'
p94
aS'dep=secure'
p95
aS'dep=so'
p96
aS'dep=that'
p97
aS'dep=week'
p98
aS'dep=while'
p99
aS'dobj=#NUMBER#'
p100
aS'dobj=#PRP#'
p101
aS'dobj=Bourne'
p102
aS'dobj=Egypt'
p103
aS'dobj=FGM'
p104
aS'dobj=Hispanics'
p105
aS'dobj=Islam'
p106
aS'dobj=Israel'
p107
aS'dobj=Laden'
p108
aS'dobj=Styrofoam'
p109
aS'dobj=a'
p110
aS'dobj=al-Qaida'
p111
aS'dobj=all'
p112
aS'dobj=allergen'
p113
aS'dobj=alliance'
p114
aS'dobj=arm'
p115
aS'dobj=arsenal'
p116
aS'dobj=attacker'
p117
aS'dobj=barrier'
p118
aS'dobj=basis'
p119
aS'dobj=behavior'
p120
aS'dobj=billboard'
p121
aS'dobj=cancer'
p122
aS'dobj=capability'
p123
aS'dobj=cause'
p124
aS'dobj=charge'
p125
aS'dobj=corruption'
p126
aS'dobj=cost'
p127
aS'dobj=council'
p128
aS'dobj=counterfeiting'
p129
aS'dobj=creation'
p130
aS'dobj=deficit'
p131
aS'dobj=designation'
p132
aS'dobj=deterrent'
p133
aS'dobj=diamond'
p134
aS'dobj=discrimination'
p135
aS'dobj=disease'
p136
aS'dobj=dissenter'
p137
aS'dobj=duty'
p138
aS'dobj=earmark'
p139
aS'dobj=election'
p140
aS'dobj=element'
p141
aS'dobj=epidemic'
p142
aS'dobj=extremism'
p143
aS'dobj=farmer'
p144
aS'dobj=force'
p145
aS'dobj=form'
p146
aS'dobj=funding'
p147
aS'dobj=gap'
p148
aS'dobj=gas'
p149
aS'dobj=girl'
p150
aS'dobj=haven'
p151
aS'dobj=hideout'
p152
aS'dobj=hunger'
p153
aS'dobj=idea'
p154
aS'dobj=impunity'
p155
aS'dobj=inequality'
p156
aS'dobj=insurgent'
p157
aS'dobj=intermediary'
p158
aS'dobj=job'
p159
aS'dobj=jurisdiction'
p160
aS'dobj=law'
p161
aS'dobj=leadership'
p162
aS'dobj=limit'
p163
aS'dobj=loan'
p164
aS'dobj=lot'
p165
aS'dobj=malnutrition'
p166
aS'dobj=movement'
p167
aS'dobj=need'
p168
aS'dobj=note'
p169
aS'dobj=obstacle'
p170
aS'dobj=opponent'
p171
aS'dobj=opposition'
p172
aS'dobj=oversight'
p173
aS'dobj=parachute'
p174
aS'dobj=people'
p175
aS'dobj=perception'
p176
aS'dobj=poverty'
p177
aS'dobj=problem'
p178
aS'dobj=program'
p179
aS'dobj=racism'
p180
aS'dobj=radical'
p181
aS'dobj=risk'
p182
aS'dobj=rival'
p183
aS'dobj=sanctuary'
p184
aS'dobj=shortage'
p185
aS'dobj=skepticism'
p186
aS'dobj=some'
p187
aS'dobj=source'
p188
aS'dobj=statute'
p189
aS'dobj=step'
p190
aS'dobj=stockpile'
p191
aS'dobj=stop'
p192
aS'dobj=subsidy'
p193
aS'dobj=tariff'
p194
aS'dobj=tax'
p195
aS'dobj=tb'
p196
aS'dobj=terrorism'
p197
aS'dobj=terrorist'
p198
aS'dobj=tetanus'
p199
aS'dobj=violence'
p200
aS'dobj=virulence'
p201
aS'dobj=virus'
p202
aS'dobj=waiver'
p203
aS'dobj=weapon'
p204
aS'dobj=woman'
p205
aS'mark=after'
p206
aS'mark=as'
p207
aS'mark=because'
p208
aS'mark=if'
p209
aS'mark=in'
p210
aS'mark=since'
p211
aS'mark=until'
p212
aS'mark=while'
p213
aS'neg=not'
p214
aS'nsubj=#PRP#'
p215
aS'nsubj=Belarus'
p216
aS'nsubj=Bush'
p217
aS'nsubj=Korea'
p218
aS'nsubj=agreement'
p219
aS'nsubj=amendment'
p220
aS'nsubj=assault'
p221
aS'nsubj=century'
p222
aS'nsubj=change'
p223
aS'nsubj=deal'
p224
aS'nsubj=disease'
p225
aS'nsubj=end'
p226
aS'nsubj=growth'
p227
aS'nsubj=loss'
p228
aS'nsubj=only'
p229
aS'nsubj=opportunity'
p230
aS'nsubj=option'
p231
aS'nsubj=order'
p232
aS'nsubj=plan'
p233
aS'nsubj=proposal'
p234
aS'nsubj=surgery'
p235
aS'nsubj=system'
p236
aS'nsubj=that'
p237
aS'nsubj=threat'
p238
aS'nsubj=treatment'
p239
aS'nsubj=week'
p240
aS'nsubj=which'
p241
aS'nsubjpass=#NUMBER#'
p242
aS'nsubjpass=#PRP#'
p243
aS'nsubjpass=Japan'
p244
aS'nsubjpass=States'
p245
aS'nsubjpass=Taliban'
p246
aS'nsubjpass=basis'
p247
aS'nsubjpass=command'
p248
aS'nsubjpass=condition'
p249
aS'nsubjpass=contestant'
p250
aS'nsubjpass=margin'
p251
aS'nsubjpass=other'
p252
aS'nsubjpass=party'
p253
aS'nsubjpass=polo'
p254
aS'nsubjpass=poverty'
p255
aS'nsubjpass=risk'
p256
aS'nsubjpass=subsidy'
p257
aS'nsubjpass=tariff'
p258
aS'nsubjpass=team'
p259
aS'nsubjpass=tetanus'
p260
aS'nsubjpass=that'
p261
aS'nsubjpass=threat'
p262
aS'nsubjpass=transmission'
p263
aS'nsubjpass=voter'
p264
aS'nsubjpass=wall'
p265
aS'partmod=allow'
p266
aS'partmod=indicate'
p267
aS'prep=after'
p268
aS'prep=against'
p269
aS'prep=among'
p270
aS'prep=around'
p271
aS'prep=as'
p272
aS'prep=before'
p273
aS'prep=by'
p274
aS'prep=despite'
p275
aS'prep=either'
p276
aS'prep=for'
p277
aS'prep=from'
p278
aS'prep=give'
p279
aS'prep=in'
p280
aS'prep=on'
p281
aS'prep=over'
p282
aS'prep=through'
p283
aS'prep=to'
p284
aS'prep=under'
p285
aS'prep=with'
p286
aS'prep=within'
p287
aS'rel=in'
p288
aS'rel=under'
p289
aS'tmod=week'
p290
aS'tmod=year'
p291
aS"w+1=''"
p292
aS'w+1=,'
p293
aS'w+1=.'
p294
aS'w+1=America'
p295
aS'w+1=Bourne'
p296
aS'w+1=Egypt'
p297
aS'w+1=FGM'
p298
aS'w+1=Hispanics'
p299
aS'w+1=Islam'
p300
aS'w+1=Israel'
p301
aS'w+1=North'
p302
aS'w+1=Russia'
p303
aS'w+1=U.S.'
p304
aS'w+1=a'
p305
aS'w+1=adult'
p306
aS'w+1=after'
p307
aS'w+1=al-Qaida'
p308
aS'w+1=all'
p309
aS'w+1=allergen'
p310
aS'w+1=and'
p311
aS'w+1=any'
p312
aS'w+1=as'
p313
aS'w+1=before'
p314
aS'w+1=billboard'
p315
aS'w+1=billion'
p316
aS'w+1=bin'
p317
aS'w+1=broadcast'
p318
aS'w+1=bureaucratic'
p319
aS'w+1=by'
p320
aS'w+1=completely'
p321
aS'w+1=constitutional'
p322
aS'w+1=corruption'
p323
aS'w+1=counterfeiting'
p324
aS'w+1=discrimination'
p325
aS'w+1=dissenter'
p326
aS'w+1=division'
p327
aS'w+1=drug'
p328
aS'w+1=duty'
p329
aS'w+1=each'
p330
aS'w+1=either'
p331
aS'w+1=ethnic'
p332
aS'w+1=executive'
p333
aS'w+1=extremism'
p334
aS'w+1=factional'
p335
aS'w+1=from'
p336
aS'w+1=funding'
p337
aS'w+1=girl'
p338
aS'w+1=greenhouse'
p339
aS'w+1=he'
p340
aS'w+1=higher'
p341
aS'w+1=hunger'
p342
aS'w+1=if'
p343
aS'w+1=impunity'
p344
aS'w+1=in'
p345
aS'w+1=inequality'
p346
aS'w+1=insurgent'
p347
aS'w+1=intermediary'
p348
aS'w+1=it'
p349
aS'w+1=its'
p350
aS'w+1=loan'
p351
aS'w+1=long-standing'
p352
aS'w+1=malnutrition'
p353
aS'w+1=more'
p354
aS'w+1=one'
p355
aS'w+1=or'
p356
aS'w+1=other'
p357
aS'w+1=over'
p358
aS'w+1=political'
p359
aS'w+1=poverty'
p360
aS'w+1=presidential'
p361
aS'w+1=racial'
p362
aS'w+1=racism'
p363
aS'w+1=recur'
p364
aS'w+1=risky'
p365
aS'w+1=safe'
p366
aS'w+1=sectarian'
p367
aS'w+1=so-called'
p368
aS'w+1=some'
p369
aS'w+1=subsidy'
p370
aS'w+1=tariff'
p371
aS'w+1=tb'
p372
aS'w+1=term'
p373
aS'w+1=terrorism'
p374
aS'w+1=terrorist'
p375
aS'w+1=tetanus'
p376
aS'w+1=that'
p377
aS'w+1=the'
p378
aS'w+1=these'
p379
aS'w+1=they'
p380
aS'w+1=those'
p381
aS'w+1=virus'
p382
aS'w+1=what'
p383
aS'w+2=$'
p384
aS"w+2=''"
p385
aS"w+2='s"
p386
aS'w+2=,'
p387
aS'w+2=.'
p388
aS'w+2=17'
p389
aS'w+2=1936'
p390
aS'w+2=2015'
p391
aS'w+2=25,000'
p392
aS'w+2=50,000'
p393
aS'w+2=Asia'
p394
aS'w+2=I'
p395
aS'w+2=Korea'
p396
aS'w+2=Laden'
p397
aS'w+2=Mexico'
p398
aS'w+2=North'
p399
aS'w+2=Styrofoam'
p400
aS'w+2=U.S.'
p401
aS'w+2=achievement'
p402
aS'w+2=al-qaida'
p403
aS'w+2=all'
p404
aS'w+2=allay'
p405
aS'w+2=alliance'
p406
aS'w+2=altogether'
p407
aS'w+2=among'
p408
aS'w+2=and'
p409
aS'w+2=around'
p410
aS'w+2=as'
p411
aS'w+2=attacker'
p412
aS'w+2=basis'
p413
aS'w+2=before'
p414
aS'w+2=birth'
p415
aS'w+2=blood'
p416
aS'w+2=but'
p417
aS'w+2=cancer'
p418
aS'w+2=circulate'
p419
aS'w+2=collaborative'
p420
aS'w+2=constitutional'
p421
aS'w+2=control'
p422
aS'w+2=controversy'
p423
aS'w+2=corruption'
p424
aS'w+2=could'
p425
aS'w+2=creation'
p426
aS'w+2=deficit'
p427
aS'w+2=denomination'
p428
aS'w+2=designation'
p429
aS'w+2=direct'
p430
aS'w+2=discrimination'
p431
aS'w+2=disease'
p432
aS'w+2=driving'
p433
aS'w+2=earmark'
p434
aS'w+2=elect'
p435
aS'w+2=even'
p436
aS'w+2=expand'
p437
aS'w+2=extremist'
p438
aS'w+2=farmer'
p439
aS'w+2=federal'
p440
aS'w+2=five'
p441
aS'w+2=for'
p442
aS'w+2=force'
p443
aS'w+2=from'
p444
aS'w+2=gap'
p445
aS'w+2=gas'
p446
aS'w+2=golden'
p447
aS'w+2=have'
p448
aS'w+2=haven'
p449
aS'w+2=he'
p450
aS'w+2=idea'
p451
aS'w+2=if'
p452
aS'w+2=impression'
p453
aS'w+2=in'
p454
aS'w+2=income'
p455
aS'w+2=its'
p456
aS'w+2=job'
p457
aS'w+2=jurisdiction'
p458
aS'w+2=law'
p459
aS'w+2=leadership'
p460
aS'w+2=limit'
p461
aS'w+2=lot'
p462
aS'w+2=many'
p463
aS'w+2=meningitis'
p464
aS'w+2=meningitis-a'
p465
aS'w+2=military'
p466
aS'w+2=ministry'
p467
aS'w+2=movement'
p468
aS'w+2=need'
p469
aS'w+2=next'
p470
aS'w+2=nuclear'
p471
aS'w+2=obstacle'
p472
aS'w+2=of'
p473
aS'w+2=on'
p474
aS'w+2=opponent'
p475
aS'w+2=opposition'
p476
aS'w+2=people'
p477
aS'w+2=perception'
p478
aS'w+2=politics'
p479
aS'w+2=popular'
p480
aS'w+2=possible'
p481
aS'w+2=problem'
p482
aS'w+2=protein'
p483
aS'w+2=put'
p484
aS'w+2=radical'
p485
aS'w+2=reason'
p486
aS'w+2=reduce'
p487
aS'w+2=residual'
p488
aS'w+2=risk'
p489
aS'w+2=root'
p490
aS'w+2=safe'
p491
aS'w+2=sanctuary'
p492
aS'w+2=shortage'
p493
aS'w+2=skepticism'
p494
aS'w+2=statute'
p495
aS'w+2=stop'
p496
aS'w+2=team'
p497
aS'w+2=term'
p498
aS'w+2=terrorist'
p499
aS'w+2=that'
p500
aS'w+2=the'
p501
aS'w+2=there'
p502
aS'w+2=they'
p503
aS'w+2=threat'
p504
aS'w+2=to'
p505
aS'w+2=violence'
p506
aS'w+2=waiver'
p507
aS'w+2=week'
p508
aS'w+2=while'
p509
aS'w+2=with'
p510
aS'w+2=worst'
p511
aS"w-1='ll"
p512
aS'w-1=,'
p513
aS'w-1=-rrb-'
p514
aS'w-1=Korea'
p515
aS'w-1=after'
p516
aS'w-1=and'
p517
aS'w-1=at'
p518
aS'w-1=be'
p519
aS'w-1=by'
p520
aS'w-1=completely'
p521
aS'w-1=consider'
p522
aS'w-1=could'
p523
aS'w-1=deal'
p524
aS'w-1=effectively'
p525
aS'w-1=entirely'
p526
aS'w-1=envision'
p527
aS'w-1=eventually'
p528
aS'w-1=finally'
p529
aS'w-1=for'
p530
aS'w-1=girl'
p531
aS'w-1=have'
p532
aS'w-1=help'
p533
aS'w-1=in'
p534
aS'w-1=include'
p535
aS'w-1=it'
p536
aS'w-1=might'
p537
aS'w-1=not'
p538
aS'w-1=now'
p539
aS'w-1=of'
p540
aS'w-1=on'
p541
aS'w-1=online'
p542
aS'w-1=or'
p543
aS'w-1=probably'
p544
aS'w-1=proceedings'
p545
aS'w-1=say'
p546
aS'w-1=should'
p547
aS'w-1=simply'
p548
aS'w-1=suggest'
p549
aS'w-1=than'
p550
aS'w-1=that'
p551
aS'w-1=then'
p552
aS'w-1=thereby'
p553
aS'w-1=they'
p554
aS'w-1=to'
p555
aS'w-1=toward'
p556
aS'w-1=treatment'
p557
aS'w-1=verifiably'
p558
aS'w-1=virtually'
p559
aS'w-1=we'
p560
aS'w-1=week'
p561
aS'w-1=which'
p562
aS'w-1=while'
p563
aS'w-1=will'
p564
aS'w-1=with'
p565
aS'w-1=would'
p566
aS"w-2=''"
p567
aS'w-2=,'
p568
aS'w-2=Act'
p569
aS'w-2=Belarus'
p570
aS'w-2=Biya'
p571
aS'w-2=Bush'
p572
aS'w-2=Congress'
p573
aS'w-2=Faso'
p574
aS'w-2=Friday'
p575
aS'w-2=Hughes'
p576
aS'w-2=India'
p577
aS'w-2=North'
p578
aS'w-2=Obey'
p579
aS'w-2=States'
p580
aS'w-2=Taliban'
p581
aS'w-2=ability'
p582
aS'w-2=able'
p583
aS'w-2=action'
p584
aS'w-2=addition'
p585
aS'w-2=agree'
p586
aS'w-2=agreement'
p587
aS'w-2=ahead'
p588
aS'w-2=aim'
p589
aS'w-2=amend'
p590
aS'w-2=and'
p591
aS'w-2=approach'
p592
aS'w-2=as'
p593
aS'w-2=asset'
p594
aS'w-2=athlete'
p595
aS'w-2=barrier'
p596
aS'w-2=basis'
p597
aS'w-2=be'
p598
aS'w-2=beautification'
p599
aS'w-2=because'
p600
aS'w-2=blueprint'
p601
aS'w-2=budget'
p602
aS'w-2=but'
p603
aS'w-2=campaign'
p604
aS'w-2=can'
p605
aS'w-2=candidate'
p606
aS'w-2=century'
p607
aS'w-2=change'
p608
aS'w-2=choose'
p609
aS'w-2=civilization'
p610
aS'w-2=command'
p611
aS'w-2=commitment'
p612
aS'w-2=constitution'
p613
aS'w-2=could'
p614
aS'w-2=court'
p615
aS'w-2=currency'
p616
aS'w-2=deal'
p617
aS'w-2=desire'
p618
aS'w-2=detect'
p619
aS'w-2=determine'
p620
aS'w-2=diamond'
p621
aS'w-2=disarm'
p622
aS'w-2=disease'
p623
aS'w-2=do'
p624
aS'w-2=down'
p625
aS'w-2=early'
p626
aS'w-2=effort'
p627
aS'w-2=election'
p628
aS'w-2=employer'
p629
aS'w-2=expect'
p630
aS'w-2=expert'
p631
aS'w-2=fight'
p632
aS'w-2=focus'
p633
aS'w-2=go'
p634
aS'w-2=goal'
p635
aS'w-2=hard'
p636
aS'w-2=harder'
p637
aS'w-2=have'
p638
aS'w-2=how'
p639
aS'w-2=if'
p640
aS'w-2=intend'
p641
aS'w-2=isolate'
p642
aS'w-2=it'
p643
aS'w-2=key'
p644
aS'w-2=last'
p645
aS'w-2=limit'
p646
aS'w-2=majority'
p647
aS'w-2=manifestation'
p648
aS'w-2=more'
p649
aS'w-2=move'
p650
aS'w-2=must'
p651
aS'w-2=not'
p652
aS'w-2=obtain'
p653
aS'w-2=of'
p654
aS'w-2=order'
p655
aS'w-2=other'
p656
aS'w-2=oxygen'
p657
aS'w-2=plan'
p658
aS'w-2=play'
p659
aS'w-2=polo'
p660
aS'w-2=population'
p661
aS'w-2=possible'
p662
aS'w-2=poverty'
p663
aS'w-2=preparedness'
p664
aS'w-2=problem'
p665
aS'w-2=process'
p666
aS'w-2=progress'
p667
aS'w-2=promise'
p668
aS'w-2=proposal'
p669
aS'w-2=quickly'
p670
aS'w-2=recently'
p671
aS'w-2=reduce'
p672
aS'w-2=reform'
p673
aS'w-2=region'
p674
aS'w-2=scheme'
p675
aS'w-2=second'
p676
aS'w-2=seek'
p677
aS'w-2=should'
p678
aS'w-2=stability'
p679
aS'w-2=step'
p680
aS'w-2=surgery'
p681
aS'w-2=system'
p682
aS'w-2=take'
p683
aS'w-2=talk'
p684
aS'w-2=team'
p685
aS'w-2=terror'
p686
aS'w-2=that'
p687
aS'w-2=the'
p688
aS'w-2=then'
p689
aS'w-2=they'
p690
aS'w-2=threat'
p691
aS'w-2=to'
p692
aS'w-2=towards'
p693
aS'w-2=try'
p694
aS'w-2=vertical'
p695
aS'w-2=vote'
p696
aS'w-2=vow'
p697
aS'w-2=want'
p698
aS'w-2=way'
p699
aS'w-2=we'
p700
aS'w-2=which'
p701
aS'w-2=will'
p702
aS'w-2=with'
p703
aS'w-2=work'
p704
aS'w-2=would'
p705
aS'w-2=you'
p706
aS'xcomp=build'
p707
aS'xcomp=debt'
p708
aS'xcomp=exist'
p709
aS'xcomp=hear'
p710
aS'xcomp=prevent'
p711
aS'xcomp=travel'
p712
aS'xcomp=undermine'
p713
asS'dtype'
p714
cnumpy
float64
p715
sS'vocabulary_'
p716
(dp717
g391
I382
sg308
I299
sg161
I152
sg581
I572
sg141
I132
sg197
I188
sg198
I189
sg712
I703
sg52
I43
sg700
I691
sg17
I8
sg408
I399
sg415
I406
sg347
I338
sg522
I513
sg610
I601
sg426
I417
sg575
I566
sg34
I25
sg429
I420
sg470
I461
sg557
I548
sg417
I408
sg628
I619
sg550
I541
sg585
I576
sg424
I415
sg13
I4
sg392
I383
sg326
I317
sg689
I680
sg56
I47
sg601
I592
sg243
I234
sg690
I681
sg274
I265
sg287
I278
sg513
I504
sg377
I368
sg191
I182
sg566
I557
sg475
I466
sg546
I537
sg427
I418
sg138
I129
sg238
I229
sg303
I294
sg697
I688
sg186
I177
sg468
I459
sg120
I111
sg379
I370
sg30
I21
sg633
I624
sg641
I632
sg345
I336
sg564
I555
sg72
I63
sg130
I121
sg461
I452
sg604
I595
sg63
I54
sg653
I644
sg520
I511
sg382
I373
sg519
I510
sg23
I14
sg104
I95
sg588
I579
sg184
I175
sg244
I235
sg189
I180
sg688
I679
sg497
I488
sg548
I539
sg335
I326
sg116
I107
sg252
I243
sg176
I167
sg393
I384
sg416
I407
sg647
I638
sg208
I199
sg42
I33
sg471
I462
sg322
I313
sg664
I655
sg505
I496
sg405
I396
sg356
I347
sg666
I657
sg86
I77
sg532
I523
sg60
I51
sg264
I255
sg12
I3
sg452
I443
sg90
I81
sg124
I115
sg102
I93
sg454
I445
sg669
I660
sg57
I48
sg41
I32
sg167
I158
sg523
I514
sg37
I28
sg61
I52
sg271
I262
sg512
I503
sg77
I68
sg708
I699
sg495
I486
sg576
I567
sg99
I90
sg284
I275
sg364
I355
sg66
I57
sg492
I483
sg627
I618
sg507
I498
sg687
I678
sg362
I353
sg450
I441
sg380
I371
sg381
I372
sg240
I231
sg375
I366
sg84
I75
sg280
I271
sg232
I223
sg47
I38
sg352
I343
sg137
I128
sg713
I704
sg374
I365
sg337
I328
sg71
I62
sg363
I354
sg660
I651
sg695
I686
sg136
I127
sg179
I170
sg10
I1
sg311
I302
sg344
I335
sg177
I168
sg79
I70
sg655
I646
sg246
I237
sg89
I80
sg595
I586
sg134
I125
sg619
I610
sg629
I620
sg28
I19
sg113
I104
sg442
I433
sg616
I607
sg357
I348
sg131
I122
sg67
I58
sg98
I89
sg168
I159
sg237
I228
sg536
I527
sg436
I427
sg644
I635
sg173
I164
sg534
I525
sg227
I218
sg367
I358
sg433
I424
sg140
I131
sg677
I668
sg204
I195
sg209
I200
sg608
I599
sg210
I201
sg324
I315
sg230
I221
sg704
I695
sg462
I453
sg586
I577
sg132
I123
sg105
I96
sg615
I606
sg428
I419
sg476
I467
sg376
I367
sg87
I78
sg251
I242
sg217
I208
sg489
I480
sg248
I239
sg457
I448
sg175
I166
sg288
I279
sg667
I658
sg147
I138
sg654
I645
sg195
I186
sg555
I546
sg26
I17
sg631
I622
sg400
I391
sg596
I587
sg101
I92
sg93
I84
sg662
I653
sg547
I538
sg675
I666
sg321
I312
sg18
I9
sg421
I412
sg267
I258
sg524
I515
sg529
I520
sg481
I472
sg582
I573
sg420
I411
sg648
I639
sg366
I357
sg683
I674
sg514
I505
sg521
I512
sg282
I273
sg27
I18
sg196
I187
sg443
I434
sg419
I410
sg404
I395
sg301
I292
sg59
I50
sg261
I252
sg152
I143
sg490
I481
sg487
I478
sg174
I165
sg583
I574
sg117
I108
sg565
I556
sg194
I185
sg494
I485
sg589
I580
sg255
I246
sg192
I183
sg394
I385
sg257
I248
sg365
I356
sg671
I662
sg245
I236
sg277
I268
sg97
I88
sg109
I100
sg390
I381
sg578
I569
sg95
I86
sg411
I402
sg676
I667
sg612
I603
sg259
I250
sg515
I506
sg509
I500
sg127
I118
sg388
I379
sg183
I174
sg48
I39
sg302
I293
sg85
I76
sg107
I98
sg526
I517
sg425
I416
sg112
I103
sg216
I207
sg472
I463
sg645
I636
sg592
I583
sg499
I490
sg273
I264
sg618
I609
sg496
I487
sg218
I209
sg590
I581
sg651
I642
sg599
I590
sg202
I193
sg632
I623
sg111
I102
sg488
I479
sg121
I112
sg350
I341
sg219
I210
sg142
I133
sg188
I179
sg617
I608
sg438
I429
sg510
I501
sg447
I438
sg361
I352
sg62
I53
sg299
I290
sg570
I561
sg242
I233
sg306
I297
sg118
I109
sg319
I310
sg709
I700
sg607
I598
sg484
I475
sg403
I394
sg266
I257
sg206
I197
sg373
I364
sg622
I613
sg567
I558
sg473
I464
sg642
I633
sg486
I477
sg372
I363
sg474
I465
sg397
I388
sg517
I508
sg342
I333
sg360
I351
sg609
I600
sg75
I66
sg158
I149
sg460
I451
sg24
I15
sg435
I426
sg563
I554
sg353
I344
sg260
I251
sg579
I570
sg359
I350
sg82
I73
sg91
I82
sg673
I664
sg441
I432
sg527
I518
sg354
I345
sg444
I435
sg351
I342
sg545
I536
sg659
I650
sg611
I602
sg525
I516
sg153
I144
sg234
I225
sg634
I625
sg265
I256
sg602
I593
sg155
I146
sg32
I23
sg156
I147
sg482
I473
sg479
I470
sg358
I349
sg705
I696
sg115
I106
sg456
I447
sg114
I105
sg437
I428
sg368
I359
sg440
I431
sg180
I171
sg701
I692
sg22
I13
sg31
I22
sg485
I476
sg159
I150
sg630
I621
sg163
I154
sg213
I204
sg693
I684
sg554
I545
sg96
I87
sg39
I30
sg542
I533
sg665
I656
sg703
I694
sg298
I289
sg597
I588
sg46
I37
sg331
I322
sg463
I454
sg76
I67
sg256
I247
sg401
I392
sg657
I648
sg286
I277
sg51
I42
sg466
I457
sg445
I436
sg348
I339
sg446
I437
sg250
I241
sg477
I468
sg145
I136
sg317
I308
sg658
I649
sg556
I547
sg640
I631
sg577
I568
sg434
I425
sg74
I65
sg606
I597
sg119
I110
sg235
I226
sg643
I634
sg33
I24
sg55
I46
sg154
I145
sg178
I169
sg574
I565
sg346
I337
sg122
I113
sg224
I215
sg83
I74
sg355
I346
sg228
I219
sg620
I611
sg181
I172
sg684
I675
sg312
I303
sg262
I253
sg626
I617
sg143
I134
sg431
I422
sg385
I376
sg559
I550
sg144
I135
sg16
I7
sg69
I60
sg480
I471
sg623
I614
sg172
I163
sg81
I72
sg328
I319
sg710
I701
sg504
I495
sg553
I544
sg133
I124
sg580
I571
sg165
I156
sg469
I460
sg638
I629
sg151
I142
sg49
I40
sg371
I362
sg285
I276
sg203
I194
sg263
I254
sg320
I311
sg276
I267
sg297
I288
sg157
I148
sg561
I552
sg493
I484
sg706
I697
sg386
I377
sg685
I676
sg396
I387
sg343
I334
sg190
I181
sg291
I282
sg573
I564
sg349
I340
sg212
I203
sg215
I206
sg413
I404
sg464
I455
sg506
I497
sg295
I286
sg292
I283
sg668
I659
sg50
I41
sg670
I661
sg327
I318
sg478
I469
sg100
I91
sg533
I524
sg414
I405
sg38
I29
sg406
I397
sg290
I281
sg275
I266
sg92
I83
sg139
I130
sg508
I499
sg279
I270
sg43
I34
sg418
I409
sg123
I114
sg625
I616
sg35
I26
sg594
I585
sg103
I94
sg537
I528
sg296
I287
sg598
I589
sg483
I474
sg281
I272
sg135
I126
sg711
I702
sg241
I232
sg516
I507
sg661
I652
sg300
I291
sg64
I55
sg584
I575
sg528
I519
sg309
I300
sg78
I69
sg236
I227
sg223
I214
sg339
I330
sg681
I672
sg636
I627
sg254
I245
sg500
I491
sg399
I390
sg222
I213
sg15
I6
sg605
I596
sg541
I532
sg20
I11
sg698
I689
sg543
I534
sg621
I612
sg146
I137
sg205
I196
sg682
I673
sg110
I101
sg540
I531
sg318
I309
sg226
I217
sg649
I640
sg692
I683
sg409
I400
sg591
I582
sg229
I220
sg696
I687
sg458
I449
sg201
I192
sg694
I685
sg691
I682
sg491
I482
sg587
I578
sg646
I637
sg126
I117
sg686
I677
sg88
I79
sg635
I626
sg672
I663
sg315
I306
sg624
I615
sg185
I176
sg70
I61
sg459
I450
sg501
I492
sg702
I693
sg272
I263
sg568
I559
sg453
I444
sg125
I116
sg407
I398
sg310
I301
sg383
I374
sg40
I31
sg220
I211
sg603
I594
sg316
I307
sg129
I120
sg14
I5
sg270
I261
sg160
I151
sg389
I380
sg652
I643
sg511
I502
sg432
I423
sg449
I440
sg162
I153
sg451
I442
sg593
I584
sg253
I244
sg200
I191
sg65
I56
sg639
I630
sg283
I274
sg562
I553
sg656
I647
sg422
I413
sg44
I35
sg552
I543
sg169
I160
sg370
I361
sg19
I10
sg340
I331
sg221
I212
sg68
I59
sg54
I45
sg569
I560
sg258
I249
sg207
I198
sg572
I563
sg330
I321
sg398
I389
sg199
I190
sg502
I493
sg679
I670
sg336
I327
sg233
I224
sg402
I393
sg439
I430
sg21
I12
sg707
I698
sg193
I184
sg412
I403
sg289
I280
sg503
I494
sg108
I99
sg80
I71
sg268
I259
sg410
I401
sg171
I162
sg249
I240
sg332
I323
sg9
I0
sg448
I439
sg225
I216
sg539
I530
sg571
I562
sg269
I260
sg239
I230
sg29
I20
sg650
I641
sg150
I141
sg58
I49
sg423
I414
sg182
I173
sg325
I316
sg211
I202
sg214
I205
sg25
I16
sg94
I85
sg73
I64
sg430
I421
sg278
I269
sg498
I489
sg307
I298
sg106
I97
sg170
I161
sg560
I551
sg45
I36
sg314
I305
sg678
I669
sg334
I325
sg323
I314
sg166
I157
sg313
I304
sg558
I549
sg544
I535
sg465
I456
sg187
I178
sg455
I446
sg530
I521
sg293
I284
sg294
I285
sg674
I665
sg338
I329
sg699
I690
sg369
I360
sg387
I378
sg680
I671
sg378
I369
sg384
I375
sg149
I140
sg333
I324
sg614
I605
sg341
I332
sg395
I386
sg531
I522
sg663
I654
sg11
I2
sg164
I155
sg613
I604
sg637
I628
sg305
I296
sg329
I320
sg538
I529
sg304
I295
sg518
I509
sg535
I526
sg600
I591
sg128
I119
sg148
I139
sg551
I542
sg36
I27
sg549
I540
sg53
I44
sg467
I458
sg247
I238
sg231
I222
ssS'separator'
p718
S'='
sS'sparse'
p719
I01
sb.