ccopy_reg
_reconstructor
p1
(csklearn.feature_extraction.dict_vectorizer
DictVectorizer
p2
c__builtin__
object
p3
NtRp4
(dp5
S'vocabulary_'
p6
(dp7
S'w-2=bone'
p8
I222
sS'w-2=script'
p9
I262
sS'w+2=human'
p10
I145
sS'conj=not'
p11
I34
sS'w+2=not'
p12
I154
sS'conj=protect'
p13
I35
sS'w-1=do'
p14
I184
sS'conj=morph'
p15
I33
sS'conj=direct'
p16
I30
sS'nsubj=everyone'
p17
I67
sS'w+2=upright'
p18
I170
sS'nsubjpass=version'
p19
I87
sS'w-2=crop'
p20
I228
sS'advmod=specially'
p21
I12
sS'dobj=agriculture'
p22
I42
sS'w-2=people'
p23
I256
sS'w+1=taxi'
p24
I114
sS'w+2=increase'
p25
I149
sS'w-1=Leone'
p26
I175
sS'w-2=virus'
p27
I268
sS'w+2=improve'
p28
I147
sS'w+2=higher'
p29
I144
sS'w-2=member'
p30
I250
sS'w-1=colonist'
p31
I181
sS'w+2=that'
p32
I164
sS'w-1=be'
p33
I179
sS'advmod=well'
p34
I14
sS'w+2=.'
p35
I124
sS'w+2=in'
p36
I148
sS'w-2=help'
p37
I241
sS'w-1=army'
p38
I178
sS'w-2=new'
p39
I253
sS'w-1=nation'
p40
I191
sS'w-1=world'
p41
I205
sS'nsubjpass=motorbike'
p42
I83
sS'advcl=same'
p43
I5
sS'nsubjpass=film'
p44
I82
sS'w-2=human'
p45
I243
sS'w+2=morph'
p46
I152
sS'nsubjpass=#PRP#'
p47
I79
sS'xcomp=cause'
p48
I269
sS'w-2=have'
p49
I239
sS'nsubj=phinney'
p50
I72
sS'w-2=they'
p51
I266
sS'conj=solve'
p52
I37
sS'w-1=to'
p53
I201
sS'prep=by'
p54
I91
sS'w+2=shorter'
p55
I159
sS'w-2=and'
p56
I218
sS'w-2=country'
p57
I227
sS'w-2=grow'
p58
I238
sS'dobj=#PRP#'
p59
I41
sS'w-1=program'
p60
I194
sS'neg=not'
p61
I57
sS'prep=in'
p62
I94
sS'nsubj=earth'
p63
I66
sS'w+2=change'
p64
I134
sS'nsubjpass=bone'
p65
I80
sS'w+1=this'
p66
I117
sS'w-2=means'
p67
I249
sS'w-2=the'
p68
I265
sS'w-2=but'
p69
I223
sS'nsubj=farmer'
p70
I68
sS'w+2=Ian'
p71
I126
sS'w+2=local'
p72
I151
sS'w-2=ability'
p73
I215
sS'w+2=again'
p74
I129
sS'w+2=agriculture'
p75
I130
sS'dobj=this'
p76
I53
sS'w+2=car'
p77
I132
sS'aux=will'
p78
I21
sS'ccomp=believe'
p79
I27
sS'advmod=now'
p80
I9
sS'advmod=so'
p81
I10
sS'w+2=new'
p82
I153
sS'w-2=say'
p83
I261
sS'dobj=product'
p84
I48
sS'dobj=car'
p85
I44
sS'advmod=culturally'
p86
I7
sS'w+2=the'
p87
I165
sS'prep=at'
p88
I90
sS'w-1=will'
p89
I204
sS'w-2=,'
p90
I208
sS'nsubj=people'
p91
I71
sS'prep=with'
p92
I97
sS'cc=or'
p93
I25
sS'w+1=he'
p94
I108
sS'dep=adapt'
p95
I39
sS'aux=may'
p96
I18
sS'w+1=themselves'
p97
I116
sS'w+1=well'
p98
I120
sS'aux=have'
p99
I17
sS'conj=stop'
p100
I38
sS'nsubj=saga'
p101
I75
sS'w-2=French'
p102
I210
sS'w-1=well'
p103
I203
sS'nsubjpass=that'
p104
I86
sS'w-1=sector'
p105
I197
sS'dobj=capability'
p106
I43
sS'w-1=.'
p107
I173
sS'w-2=plan'
p108
I257
sS'w-1=,'
p109
I172
sS'w-2=cost'
p110
I226
sS'w-2=not'
p111
I254
sS'w-2=now'
p112
I255
sS'w-1=can'
p113
I180
sS'w-2=Mohan'
p114
I212
sS'w-2=need'
p115
I252
sS'w-2=agricultural'
p116
I217
sS'w+2=principle'
p117
I156
sS'w-2=best'
p118
I221
sS'w-2=learn'
p119
I246
sS'w-2=able'
p120
I216
sS'w-1=say'
p121
I195
sS'w-2=it'
p122
I245
sS'w-2=poor'
p123
I258
sS'w-2=continue'
p124
I225
sS'dep=some'
p125
I40
sS'dobj=problem'
p126
I47
sS'advcl=necessary'
p127
I4
sS'advmod=sooner'
p128
I11
sS'w-2=film'
p129
I236
sS'nsubjpass=story'
p130
I84
sS'w+2=to'
p131
I168
sS'acomp=inadequately'
p132
I0
sS'w+2=cause'
p133
I133
sS'w-2=MBA'
p134
I211
sS'w+2=unpredictable'
p135
I169
sS'w-1=phinney'
p136
I193
sS'w+2=such'
p137
I163
sS'w-2=step'
p138
I263
sS'prep=for'
p139
I92
sS'w+1=or'
p140
I111
sS'w-1=a'
p141
I176
sS'w-2=how'
p142
I242
sS'w+1=we'
p143
I119
sS'w-1=have'
p144
I188
sS'w+2=different'
p145
I138
sS'nsubjpass=which'
p146
I88
sS'w+2=program'
p147
I157
sS'nsubj=Leone'
p148
I61
sS'w+2=if'
p149
I146
sS'w-2=maybe'
p150
I248
sS"w+2=''"
p151
I122
sS'nsubj=country'
p152
I65
sS'w+2=future'
p153
I140
sS'w-1=country'
p154
I182
sS'w+1=global'
p155
I107
sS'prep=start'
p156
I95
sS'w-1=in'
p157
I189
sS'ccomp=matter'
p158
I28
sS'w-1=script'
p159
I196
sS'w+1=from'
p160
I106
sS'nsubjpass=car'
p161
I81
sS'nsubj=plan'
p162
I73
sS'auxpass=be'
p163
I22
sS'aux=can'
p164
I16
sS'complm=that'
p165
I29
sS'w+2=Australia'
p166
I125
sS'advmod=successfully'
p167
I13
sS'w+2=they'
p168
I167
sS'dobj=look'
p169
I45
sS'w-2=program'
p170
I260
sS'nsubj=anyone'
p171
I62
sS'w-2=motorbike'
p172
I251
sS'w-1=farmer'
p173
I185
sS'advcl=change'
p174
I1
sS'w-1=you'
p175
I206
sS'dobj=shape'
p176
I50
sS'w-2=he'
p177
I240
sS'w-1=film'
p178
I186
sS'w-1=must'
p179
I190
sS'cc=and'
p180
I23
sS'w-2=livestock'
p181
I247
sS'w+2=have'
p182
I142
sS'w-2=problem'
p183
I259
sS'conj=improve'
p184
I32
sS'w-2=earth'
p185
I231
sS'w+1=with'
p186
I121
sS'w+1=the'
p187
I115
sS'w-2=be'
p188
I220
sS'w-2=feature'
p189
I234
sS'w+1=be'
p190
I103
sS'w+2=develop'
p191
I137
sS'cc=but'
p192
I24
sS'w-2=fantasy-adventure'
p193
I233
sS'w-2=develop'
p194
I229
sS'w+2=artistic'
p195
I131
sS'w-1=Elvis'
p196
I174
sS'nsubj=step'
p197
I77
sS'w-2=forward'
p198
I237
sS'w+2=global'
p199
I141
sS'conj=say'
p200
I36
sS'w+2=some'
p201
I161
sS'advmod=how'
p202
I8
sS'w-1=culturally'
p203
I183
sS'w+1=its'
p204
I110
sS'w+1=for'
p205
I105
sS'w+1=in'
p206
I109
sS'w+2=shape'
p207
I158
sS'nsubj=army'
p208
I63
sS'w-2=increase'
p209
I244
sS'w-2=Sierra'
p210
I213
sS'nsubj=#PRP#'
p211
I58
sS'prep=from'
p212
I93
sS'nsubj=colonist'
p213
I64
sS'w-1=and'
p214
I177
sS'advcl=continue'
p215
I2
sS"w+1=''"
p216
I98
sS'prep=to'
p217
I96
sS'dobj=program'
p218
I49
sS'nsubj=sector'
p219
I76
sS'aux=to'
p220
I20
sS'w-2=a'
p221
I214
sS'w+2=climate'
p222
I135
sS'xcomp=demand'
p223
I270
sS'ccomp=Duke'
p224
I26
sS'w+2=film'
p225
I139
sS'nsubj=nation'
p226
I70
sS'w+1=and'
p227
I102
sS'dobj=technique'
p228
I52
sS'advcl=demonstrate'
p229
I3
sS'dobj=some'
p230
I51
sS'w+2=PEPFAR'
p231
I127
sS'w+2=coaching'
p232
I136
sS'w-1=for'
p233
I187
sS'w+1=,'
p234
I99
sS'nsubjpass=style'
p235
I85
sS'w+1=.'
p236
I100
sS'w+2=of'
p237
I155
sS'w-2=that'
p238
I264
sS'w-2=anyone'
p239
I219
sS'w+1=some'
p240
I112
sS'w+2=way'
p241
I171
sS'w+2=,'
p242
I123
sS'w+1=to'
p243
I118
sS'w-2=difficulty'
p244
I230
sS'w-1=specially'
p245
I198
sS'mark=so'
p246
I56
sS'advmod=again'
p247
I6
sS'w+2=solve'
p248
I160
sS'w+2=store'
p249
I162
sS'nsubj=that'
p250
I78
sS'aux=must'
p251
I19
sS'w+2=he'
p252
I143
sS'w-2=field'
p253
I235
sS'dobj=way'
p254
I54
sS'parataxis=fix'
p255
I89
sS'w-2=.'
p256
I209
sS'w+2=life'
p257
I150
sS'conj=have'
p258
I31
sS'w-1=successfully'
p259
I199
sS'dobj=which'
p260
I55
sS'w+2=these'
p261
I166
sS'w+1=...'
p262
I101
sS'w-2=try'
p263
I267
sS'nsubj=program'
p264
I74
sS'w-1=not'
p265
I192
sS'nsubj=group'
p266
I69
sS'dobj=principle'
p267
I46
sS'w+1=capacity'
p268
I104
sS'w-2=everyone'
p269
I232
sS'nsubj=Gaiman'
p270
I60
sS'w+1=start'
p271
I113
sS'aux=be'
p272
I15
sS'w-1=suggest'
p273
I200
sS'w-1=we'
p274
I202
sS'xcomp=make'
p275
I271
sS'nsubj=Elvis'
p276
I59
sS'xcomp=upright'
p277
I272
sS'w-2=change'
p278
I224
sS'w+2=a'
p279
I128
sS"w-2='s"
p280
I207
ssS'dtype'
p281
cnumpy
float64
p282
sS'feature_names_'
p283
(lp284
g132
ag174
ag215
ag229
ag127
ag43
ag247
ag86
ag202
ag80
ag81
ag128
ag21
ag167
ag34
ag272
ag164
ag99
ag96
ag251
ag220
ag78
ag163
ag180
ag192
ag93
ag224
ag79
ag158
ag165
ag16
ag258
ag184
ag15
ag11
ag13
ag200
ag52
ag100
ag95
ag125
ag59
ag22
ag106
ag85
ag169
ag267
ag126
ag84
ag218
ag176
ag230
ag228
ag76
ag254
ag260
ag246
ag61
ag211
ag276
ag270
ag148
ag171
ag208
ag213
ag152
ag63
ag17
ag70
ag266
ag226
ag91
ag50
ag162
ag264
ag101
ag219
ag197
ag250
ag47
ag65
ag161
ag44
ag42
ag130
ag235
ag104
ag19
ag146
ag255
ag88
ag54
ag139
ag212
ag62
ag156
ag217
ag92
ag216
ag234
ag236
ag262
ag227
ag190
ag268
ag205
ag160
ag155
ag94
ag206
ag204
ag140
ag240
ag271
ag24
ag187
ag97
ag66
ag243
ag143
ag98
ag186
ag151
ag242
ag35
ag166
ag71
ag231
ag279
ag74
ag75
ag195
ag77
ag133
ag64
ag222
ag232
ag191
ag145
ag225
ag153
ag199
ag182
ag252
ag29
ag10
ag149
ag28
ag36
ag25
ag257
ag72
ag46
ag82
ag12
ag237
ag117
ag147
ag207
ag55
ag248
ag201
ag249
ag137
ag32
ag87
ag261
ag168
ag131
ag135
ag18
ag241
ag109
ag107
ag196
ag26
ag141
ag214
ag38
ag33
ag113
ag31
ag154
ag203
ag14
ag173
ag178
ag233
ag144
ag157
ag179
ag40
ag265
ag136
ag60
ag121
ag159
ag105
ag245
ag259
ag273
ag53
ag274
ag103
ag89
ag41
ag175
ag280
ag90
ag256
ag102
ag134
ag114
ag210
ag221
ag73
ag120
ag116
ag56
ag239
ag188
ag118
ag8
ag69
ag278
ag124
ag110
ag57
ag20
ag194
ag244
ag185
ag269
ag193
ag189
ag253
ag129
ag198
ag58
ag49
ag177
ag37
ag142
ag45
ag209
ag122
ag119
ag181
ag150
ag67
ag30
ag172
ag115
ag39
ag111
ag112
ag23
ag108
ag123
ag183
ag170
ag83
ag9
ag138
ag238
ag68
ag51
ag263
ag27
ag48
ag223
ag275
ag277
asS'separator'
p285
S'='
sS'sparse'
p286
I01
sb.