ccopy_reg
_reconstructor
p1
(csklearn.feature_extraction.dict_vectorizer
DictVectorizer
p2
c__builtin__
object
p3
NtRp4
(dp5
S'vocabulary_'
p6
(dp7
S'nsubjpass=regulation'
p8
I534
sS'w-1=resolution'
p9
I1239
sS'w-2=cloud'
p10
I1377
sS'advmod=en'
p11
I50
sS'w+2=health'
p12
I921
sS'w+2=but'
p13
I856
sS'nsubj=Abizaid'
p14
I367
sS'w-2=offer'
p15
I1495
sS'w+1=important'
p16
I686
sS'w+1=south'
p17
I737
sS'w-2=new'
p18
I1490
sS'w+1=around'
p19
I639
sS'w-2=need'
p20
I1489
sS'xcomp=bring'
p21
I1622
sS'advmod=smoothly'
p22
I75
sS'nsubjpass=cut'
p23
I524
sS'dep=be'
p24
I205
sS'xcomp=mandate'
p25
I1646
sS'w-2=some'
p26
I1550
sS'nsubj=Nations'
p27
I391
sS'w+2=December'
p28
I797
sS'w+2=same-sex'
p29
I1021
sS'w+2=piece'
p30
I1002
sS'advcl=low'
p31
I20
sS'dobj=banknote'
p32
I250
sS'w+2=several'
p33
I1031
sS'dobj=urine'
p34
I334
sS'w-1=will'
p35
I1280
sS'w+2=everybody'
p36
I899
sS'w-2=package'
p37
I1502
sS'w+1=-lrb-'
p38
I614
sS'nsubj=number'
p39
I458
sS'w+1=it'
p40
I692
sS'w-2=vigor'
p41
I1593
sS'w-2=time'
p42
I1576
sS'w-2=before'
p43
I1362
sS'w-1=food'
p44
I1175
sS'w-1=spectacular'
p45
I1248
sS'w-2=advocacy'
p46
I1347
sS'w-2=who'
p47
I1606
sS'w-1=free'
p48
I1178
sS'w+1=of'
p49
I713
sS'w-2=soon'
p50
I1552
sS'w-1=state'
p51
I1249
sS'w-2=2006'
p52
I1296
sS'w+1=on'
p53
I715
sS'w-1=with'
p54
I1281
sS'w+1=or'
p55
I717
sS'w+2=my'
p56
I974
sS'w-2=continue'
p57
I1385
sS'w-2=Africa'
p58
I1300
sS'ccomp=say'
p59
I141
sS'dobj=Ruth'
p60
I241
sS'dobj=portion'
p61
I309
sS'w-2=only'
p62
I1498
sS'nsubj=suffering'
p63
I494
sS'w-1=could'
p64
I1154
sS'w-1=you'
p65
I1287
sS'dep=over'
p66
I217
sS'advcl=be'
p67
I4
sS'w-2=that'
p68
I1568
sS'w-2=revenue-sharing'
p69
I1533
sS'w+1=the'
p70
I743
sS'w-1=similarly'
p71
I1245
sS'dobj=flame'
p72
I271
sS'nsubj=week'
p73
I507
sS'advcl=atrocity'
p74
I3
sS'w+2=international'
p75
I936
sS'w+1=something'
p76
I735
sS'w-2=year'
p77
I1615
sS'w+1=iraqi'
p78
I690
sS'w-2=record'
p79
I1525
sS'w-2=each'
p80
I1411
sS'nsubj=house'
p81
I441
sS'nsubjpass=referendum'
p82
I532
sS'xcomp=establish'
p83
I1638
sS'nsubj=senate'
p84
I488
sS'advcl=fail'
p85
I14
sS'w-2=order'
p86
I1500
sS'w-1=mother'
p87
I1208
sS'w-1=should'
p88
I1244
sS'conj=law'
p89
I173
sS'nsubj=that'
p90
I496
sS'advmod=here'
p91
I55
sS'w-1=elephant'
p92
I1168
sS'w-2=prison'
p93
I1517
sS'w-2=rough'
p94
I1535
sS'nsubj=group'
p95
I440
sS'conj=be'
p96
I154
sS'w-1=Senate'
p97
I1124
sS'prt=around'
p98
I591
sS'w-2=fine'
p99
I1425
sS'advmod=where'
p100
I86
sS'w+2=background'
p101
I845
sS'w+2=reform'
p102
I1014
sS'nsubj=King'
p103
I386
sS'w+2=call'
p104
I858
sS'prep=out'
p105
I581
sS'w+2=30'
p106
I785
sS'w+2=cross'
p107
I878
sS'prep=include'
p108
I574
sS'nsubj=Nepal'
p109
I392
sS'w+1=separate'
p110
I727
sS'w+2=see'
p111
I1025
sS'w+2=amendment'
p112
I834
sS'w+1=both'
p113
I650
sS'w+2=Sudan'
p114
I825
sS'nsubj=moment'
p115
I453
sS'w+2=set'
p116
I1030
sS'xcomp=implement'
p117
I1641
sS'w-1=to'
p118
I1261
sS'tmod=p.m.'
p119
I607
sS'dobj=version'
p120
I335
sS'w-2=U.S.'
p121
I1339
sS'w-2=state'
p122
I1557
sS'w-2=legislation'
p123
I1467
sS'dobj=#PRP#'
p124
I232
sS'w-2=Sundaravej'
p125
I1336
sS'w+2=constitutional'
p126
I871
sS'w+2=return'
p127
I1019
sS'w+2=distribute'
p128
I887
sS'w+2=comprehensive'
p129
I869
sS'nsubj=Musharraf'
p130
I390
sS'w-2=delay'
p131
I1400
sS'w-2=win'
p132
I1609
sS'w+1=Saturday'
p133
I625
sS'xcomp=claim'
p134
I1625
sS'xcomp=prohibit'
p135
I1650
sS'advcl=divide'
p136
I10
sS'nsubj=Assembly'
p137
I370
sS'nsubjpass=duty'
p138
I526
sS'nsubj=Sundaravej'
p139
I400
sS'w-2=hour'
p140
I1447
sS'w+1=through'
p141
I751
sS'w-2=require'
p142
I1531
sS'w+2=because'
p143
I847
sS'ccomp=make'
p144
I133
sS'w+2=time'
p145
I1064
sS'w-2=Ford'
p146
I1312
sS'dobj=authority'
p147
I248
sS'w+2=bring'
p148
I853
sS'prep=above'
p149
I552
sS'w-1=Nepal'
p150
I1119
sS'dobj=tradition'
p151
I333
sS'w+1=Friday'
p152
I622
sS'w+2=Saturday'
p153
I820
sS'w-1=force'
p154
I1177
sS'prep=despite'
p155
I567
sS'nsubj=refinery'
p156
I483
sS'w-2=duty'
p157
I1410
sS'w+2=House'
p158
I801
sS'dobj=commission'
p159
I260
sS'w-1=Abizaid'
p160
I1099
sS'w-1=each'
p161
I1165
sS'dep=arrive'
p162
I203
sS'w+1=Wednesday'
p163
I628
sS'xcomp=require'
p164
I1653
sS'dobj=torch'
p165
I332
sS'w+1=soon'
p166
I736
sS'nsubj=president'
p167
I474
sS'w-2=should'
p168
I1547
sS'w-2=infection'
p169
I1455
sS'prep=of'
p170
I578
sS'advmod=maybe'
p171
I61
sS'dobj=something'
p172
I321
sS'w-2=from'
p173
I1433
sS'w+2=golden'
p174
I913
sS'w+2=back'
p175
I844
sS'w-2=up'
p176
I1590
sS'w-2=those'
p177
I1574
sS'prep=on'
p178
I579
sS'dobj=body'
p179
I253
sS'ccomp=step'
p180
I143
sS'partmod=wander'
p181
I549
sS'w+1=Baghdad'
p182
I619
sS'nsubj=year'
p183
I515
sS'w+2=immunity'
p184
I928
sS'w+2=version'
p185
I1075
sS'w+1=counterfeit'
p186
I658
sS'dep=as'
p187
I204
sS'conj=send'
p188
I186
sS'w-2=choose'
p189
I1373
sS'conj=carry'
p190
I155
sS'w-1=28'
p191
I1096
sS'w+2=Congress'
p192
I796
sS'w+2=transit'
p193
I1071
sS'w+2=football'
p194
I906
sS'advcl=sign'
p195
I26
sS'w-2=attempt'
p196
I1358
sS'w-1=curfew'
p197
I1157
sS'w+2=nonbinding'
p198
I979
sS'w-1=never'
p199
I1214
sS'rel=that'
p200
I602
sS'w+2=order'
p201
I990
sS'xcomp=meet'
p202
I1647
sS'csubjpass=against'
p203
I199
sS'w-2=constitutional'
p204
I1384
sS'w-2=go'
p205
I1438
sS'w-2=long'
p206
I1473
sS'w-2=budget'
p207
I1365
sS'nsubj=package'
p208
I463
sS'nsubj=Sunrise'
p209
I401
sS'nsubj=state'
p210
I490
sS'w-2=mission'
p211
I1481
sS'dobj=date'
p212
I265
sS'w-2=would'
p213
I1613
sS'xcomp=oppose'
p214
I1648
sS'w+2=this'
p215
I1060
sS'nsubj=artist'
p216
I409
sS'w+1=between'
p217
I648
sS'w+2=protect'
p218
I1008
sS'nsubj=recruit'
p219
I481
sS'w-2=family'
p220
I1424
sS'w-2=international'
p221
I1456
sS'w-2=expect'
p222
I1419
sS'w-2=detainee'
p223
I1401
sS'mark=while'
p224
I353
sS'dep=so'
p225
I220
sS'amod=long'
p226
I94
sS'conj=expand'
p227
I164
sS'w+1=Sunday'
p228
I626
sS'w-2=with'
p229
I1610
sS'nsubj=vehicle'
p230
I504
sS'w+1=uniform'
p231
I758
sS'w+2=new'
p232
I975
sS'nsubj=Castro'
p233
I374
sS'w-2=patient'
p234
I1506
sS'w+1=Frank'
p235
I621
sS'nsubjpass=craft'
p236
I523
sS'dobj=flag'
p237
I270
sS'cc=or'
p238
I115
sS'w+2=military'
p239
I966
sS'w-1=temporary'
p240
I1255
sS'nn=mountain'
p241
I360
sS'w-2=200'
p242
I1295
sS'w-2=if'
p243
I1449
sS'w-2=in'
p244
I1453
sS'w-1=Democrats'
p245
I1109
sS'w-2=legislator'
p246
I1468
sS'w-2=it'
p247
I1459
sS'nsubj=tribeswoman'
p248
I502
sS'advmod=down'
p249
I47
sS'w+2=die'
p250
I885
sS'w-2=parliament'
p251
I1504
sS'nsubj=woman'
p252
I513
sS'w+1=fad'
p253
I673
sS'ccomp=allow'
p254
I117
sS'dobj=gene'
p255
I272
sS'w+1=without'
p256
I766
sS'w-2=meet'
p257
I1478
sS'w-2=motorcade'
p258
I1485
sS'prt=through'
p259
I597
sS'w-2=cell'
p260
I1370
sS'advmod=also'
p261
I39
sS'w-2=convoy'
p262
I1387
sS'w-2=disease'
p263
I1406
sS'mark=although'
p264
I341
sS'nn=opportunity'
p265
I361
sS'nsubj=Chernomyrdin'
p266
I375
sS'advcl=take'
p267
I29
sS'nsubj=time'
p268
I498
sS'xcomp=enough'
p269
I1636
sS'w-2=have'
p270
I1442
sS'dep=commit'
p271
I207
sS'dobj=headquarters'
p272
I276
sS'w-1=soon'
p273
I1247
sS'w+1=away'
p274
I643
sS'nsubj=worst'
p275
I514
sS'nsubj=Iraq'
p276
I383
sS'w-1=just'
p277
I1193
sS'nsubj=convoy'
p278
I422
sS'nsubj=law'
p279
I445
sS'w-1=law'
p280
I1195
sS'w+1=if'
p281
I683
sS'w-2=let'
p282
I1469
sS'w+1=in'
p283
I687
sS'w-2=veto'
p284
I1592
sS'rcmod=drop'
p285
I600
sS'dobj=that'
p286
I329
sS'nsubj=#PRP#'
p287
I364
sS'w+2=little'
p288
I957
sS'w+2=last'
p289
I948
sS'poss=#PRP#'
p290
I550
sS'dobj=#NUMBER#'
p291
I231
sS'w+2=third'
p292
I1059
sS'w+2=Benin'
p293
I790
sS'nsubj=opportunity'
p294
I461
sS'w-2=increase'
p295
I1454
sS'w-1=without'
p296
I1282
sS'w+2=war'
p297
I1078
sS'advmod=all'
p298
I36
sS'advcl=do'
p299
I11
sS'advcl=prevail'
p300
I23
sS'w-2=process'
p301
I1519
sS'w-2=import'
p302
I1452
sS'w-2=deadline'
p303
I1398
sS'mark=after'
p304
I340
sS'xcomp=make'
p305
I1645
sS'w-2=street'
p306
I1561
sS'advcl=say'
p307
I25
sS'w-1=do'
p308
I1164
sS'conj=allow'
p309
I149
sS'w-1=34'
p310
I1097
sS'conj=come'
p311
I156
sS'w-1=nationwide'
p312
I1213
sS'w+2=relatively'
p313
I1015
sS'w-1=board'
p314
I1145
sS'amod=other'
p315
I95
sS'ccomp=provide'
p316
I139
sS'w-2=recruit'
p317
I1526
sS'w+2=May'
p318
I809
sS'w-2=zone'
p319
I1618
sS'dobj=amnesty'
p320
I245
sS'w+2=democrat'
p321
I882
sS'w+2=introduce'
p322
I938
sS'w+2=out'
p323
I991
sS'w-2=to'
p324
I1577
sS'w-1=ship'
p325
I1243
sS'w-2=and'
p326
I1353
sS'w+1=10'
p327
I616
sS'w+2=price'
p328
I1007
sS'advcl=adopt'
p329
I2
sS'w-2=one'
p330
I1497
sS'tmod=time'
p331
I608
sS'w-2=he'
p332
I1443
sS'prep=since'
p333
I583
sS'w+1=begin'
p334
I647
sS'w+2=would'
p335
I1085
sS'w-2=underlie'
p336
I1588
sS'dep=introduce'
p337
I214
sS'w+1=what'
p338
I762
sS'w-1=prayer'
p339
I1228
sS'w+2=15'
p340
I776
sS'w+2=10'
p341
I774
sS'w-2=self-imposed'
p342
I1543
sS'w+2=13'
p343
I775
sS'w+1=sweeping'
p344
I741
sS'xcomp=ensure'
p345
I1637
sS'nn=bill'
p346
I358
sS'advmod=soon'
p347
I77
sS'w-1=diamond'
p348
I1163
sS'conj=bar'
p349
I153
sS'w+1=easily'
p350
I669
sS'w-2=other'
p351
I1501
sS'aux=should'
p352
I107
sS'w-2=council'
p353
I1390
sS'w+2=Mauritania'
p354
I808
sS'nsubj=medicine'
p355
I452
sS'w+2=government'
p356
I915
sS'dobj=assessment'
p357
I247
sS'w+1=down'
p358
I664
sS'w-2=recent'
p359
I1524
sS'w-1=agreement'
p360
I1132
sS'w-1=they'
p361
I1259
sS'w-2=medal'
p362
I1477
sS'w-1=pressure'
p363
I1230
sS'mark=once'
p364
I349
sS'w-1=envoy'
p365
I1169
sS'w+1=each'
p366
I667
sS'w+1=Monday'
p367
I624
sS'nsubj=camel'
p368
I416
sS'prep=after'
p369
I554
sS'dep=swear'
p370
I221
sS'w-2=writer'
p371
I1614
sS'prep=against'
p372
I555
sS'w-1=extension'
p373
I1172
sS'w-2=although'
p374
I1351
sS'dobj=reform'
p375
I311
sS'w-2=resolution'
p376
I1532
sS'advmod=but'
p377
I43
sS'w+2=immigration'
p378
I927
sS'prt=away'
p379
I592
sS'w+1=drop'
p380
I665
sS'w-1=all'
p381
I1133
sS'w+2=tougher'
p382
I1068
sS'nsubj=legislation'
p383
I447
sS'w+2=Barnes'
p384
I789
sS'ccomp=increase'
p385
I129
sS'w+1=before'
p386
I646
sS'w-1=incident'
p387
I1189
sS'w-2=wave'
p388
I1599
sS'w-1=election'
p389
I1167
sS'w+1=new'
p390
I710
sS'w-2=genetic'
p391
I1436
sS'w+1=out'
p392
I718
sS'dobj=House'
p393
I240
sS'w-2=can'
p394
I1369
sS'w-2=difficulty'
p395
I1405
sS'nsubj=monk'
p396
I454
sS'neg=not'
p397
I355
sS'w+1=key'
p398
I696
sS'w-2=freight'
p399
I1431
sS'dep=if'
p400
I213
sS'w+2=israeli-controlled'
p401
I940
sS'prep=into'
p402
I575
sS'w-2=rugged'
p403
I1536
sS'w+2=mutate'
p404
I973
sS'w+2=business'
p405
I855
sS'conj=widespread'
p406
I196
sS'dobj=resolution'
p407
I313
sS'dep=whether'
p408
I226
sS'dobj=bit'
p409
I252
sS'advmod=then'
p410
I80
sS'nsubj=crew'
p411
I425
sS'w+2=driver'
p412
I888
sS'dobj=knowledge'
p413
I283
sS'w+1=earlier'
p414
I668
sS'dobj=information'
p415
I279
sS'w-2=bill'
p416
I1363
sS'w-2=we'
p417
I1600
sS'w-2=rush'
p418
I1537
sS'xcomp=rescind'
p419
I1654
sS'w+1=disagreement'
p420
I663
sS'w+2=between'
p421
I849
sS'w+2=next'
p422
I976
sS'w-2=English'
p423
I1308
sS'w+2=responsibility'
p424
I1018
sS'prep=but'
p425
I565
sS'nsubj=process'
p426
I476
sS'w-2=since'
p427
I1548
sS'xcomp=wave'
p428
I1665
sS'prep=within'
p429
I588
sS'w+1=that'
p430
I742
sS'w+2=reading'
p431
I1012
sS'dobj=Church'
p432
I237
sS'w-2=Democrats'
p433
I1307
sS'advmod=gradually'
p434
I54
sS'w-2=cook'
p435
I1388
sS'ccomp=know'
p436
I130
sS'w+2=approve'
p437
I840
sS'nsubj=legislator'
p438
I448
sS'advmod=just'
p439
I60
sS'w-1=warship'
p440
I1274
sS'advmod=definitely'
p441
I45
sS'nsubj=Niger'
p442
I393
sS'aux=may'
p443
I104
sS'w+2=gender'
p444
I910
sS'nsubj=Congress'
p445
I376
sS'w+2=motion'
p446
I971
sS'w-1=package'
p447
I1222
sS'w+1=A.U.'
p448
I618
sS'w+2=authorization'
p449
I843
sS'dep=leap'
p450
I215
sS'advcl=come'
p451
I6
sS'w-2=succeed'
p452
I1562
sS'nsubj=what'
p453
I508
sS'w+1=just'
p454
I695
sS'w-1=concern'
p455
I1152
sS'w+1=constitutional'
p456
I657
sS'w+2=Church'
p457
I793
sS'w-2=whatever'
p458
I1602
sS'advcl=create'
p459
I8
sS'w-1=have'
p460
I1183
sS'w-2=Senate'
p461
I1333
sS'w+2=if'
p462
I926
sS'xcomp=stage'
p463
I1660
sS'w+2=bill'
p464
I850
sS'w+2=in'
p465
I931
sS'w-2=week'
p466
I1601
sS'nsubj=Altman'
p467
I369
sS'w+2=find'
p468
I903
sS'w-2=proposal'
p469
I1520
sS'advmod=routinely'
p470
I73
sS'prep=about'
p471
I551
sS'aux=can'
p472
I100
sS'dobj=inspection'
p473
I280
sS'dobj=area'
p474
I246
sS'advmod=ultimately'
p475
I84
sS'w+2=either'
p476
I891
sS'dobj=care'
p477
I256
sS'dobj=card'
p478
I255
sS'w-1=government'
p479
I1181
sS'w+1=government'
p480
I679
sS'advmod=only'
p481
I68
sS'dobj=test'
p482
I328
sS'w-1=then'
p483
I1258
sS'w+1=for'
p484
I677
sS'dobj=officer'
p485
I296
sS'w-1=probe'
p486
I1232
sS'w+2=22-point'
p487
I782
sS'ccomp=require'
p488
I140
sS'prep=to'
p489
I585
sS'w+2=expiration'
p490
I900
sS'w-2=voter'
p491
I1596
sS'w-2=lawmaker'
p492
I1465
sS'w-1=repeal'
p493
I1237
sS'w+2=even'
p494
I897
sS'dobj=plan'
p495
I306
sS'w-2=Lyndon'
p496
I1321
sS'rcmod=link'
p497
I601
sS'w+2=how'
p498
I924
sS'nsubj=lawmaker'
p499
I446
sS'w-2=clearly'
p500
I1376
sS'w+2=for'
p501
I907
sS'w+2=outlaw'
p502
I992
sS'w+1=Mayor'
p503
I623
sS'w+2=trade'
p504
I1069
sS'w-2=unable'
p505
I1587
sS'dobj=which'
p506
I339
sS'w-1=--'
p507
I1090
sS'w+2=we'
p508
I1080
sS'w+1=tough'
p509
I754
sS'w-2=moment'
p510
I1482
sS'nsubj=day'
p511
I430
sS'w+2=important'
p512
I929
sS'w-1=eye'
p513
I1173
sS'w+2=house'
p514
I923
sS'w+1=legislation'
p515
I701
sS'w+1=day'
p516
I660
sS'w-2=practice'
p517
I1514
sS'nsubj=hurricane'
p518
I442
sS'prep=onto'
p519
I580
sS'w+2=Tyree'
p520
I827
sS'dobj=Barnes'
p521
I235
sS'w-2=available'
p522
I1360
sS'w+1=off'
p523
I714
sS'w+2=latest'
p524
I949
sS'w-2=perhaps'
p525
I1508
sS'w-1=Altman'
p526
I1100
sS'det=the'
p527
I229
sS'w-2=business'
p528
I1366
sS'dobj=judgment'
p529
I281
sS'w+2=through'
p530
I1063
sS'w+2=1947'
p531
I777
sS'w-2=Rally'
p532
I1329
sS'nsubjpass=FISA'
p533
I516
sS'w-2=regulation'
p534
I1530
sS'w-2=tremendously'
p535
I1580
sS'nsubj=province'
p536
I478
sS'w+1=volunteer'
p537
I761
sS'dobj=extension'
p538
I269
sS'w-1=pilgrim'
p539
I1226
sS'w-2=friend'
p540
I1432
sS'acomp=undetected'
p541
I0
sS'nsubj=Party'
p542
I396
sS'w-2=funeral'
p543
I1435
sS'w+2=month'
p544
I968
sS'w+1=call'
p545
I653
sS'w-2=take'
p546
I1565
sS'prep=over'
p547
I582
sS'w+2=parliament'
p548
I998
sS'nsubj=Russia'
p549
I397
sS'dobj=money'
p550
I292
sS'conj=seem'
p551
I184
sS'ccomp=guide'
p552
I128
sS'conj=limit'
p553
I175
sS'nsubj=storm'
p554
I491
sS'nsubjpass=that'
p555
I536
sS'w+2=measure'
p556
I963
sS'w-2=Resolution'
p557
I1331
sS'w-2=able'
p558
I1343
sS'ccomp=be'
p559
I120
sS'nsubj=Time'
p560
I402
sS'advmod=thanks'
p561
I79
sS'w-1=vote'
p562
I1272
sS'w+2=own'
p563
I995
sS'w-1=yet'
p564
I1286
sS'w+1=authority'
p565
I642
sS'dobj=Cohen'
p566
I238
sS'nsubjpass=bill'
p567
I518
sS'advmod=along'
p568
I37
sS'w-1=ultimately'
p569
I1268
sS'dep=deny'
p570
I208
sS'conj=fall'
p571
I165
sS'parataxis=say'
p572
I540
sS'w+2=while'
p573
I1083
sS'dobj=cost'
p574
I262
sS'w-1=long'
p575
I1199
sS'conj=think'
p576
I191
sS'w+2=tell'
p577
I1049
sS'w+2=pension'
p578
I1000
sS'w-1=Service'
p579
I1126
sS'w+2=media'
p580
I964
sS'w-1=precession'
p581
I1229
sS'w-2=United'
p582
I1340
sS'w+2=good'
p583
I914
sS'dobj=lawn'
p584
I285
sS'xcomp=disband'
p585
I1631
sS'w-1=definitely'
p586
I1162
sS'ccomp=a'
p587
I116
sS'nsubj=effort'
p588
I434
sS'advcl=adjourn'
p589
I1
sS'dobj=virus'
p590
I336
sS'w+1=american'
p591
I632
sS'w+2=insurgent'
p592
I935
sS'w+1=under'
p593
I756
sS'w-2=confident'
p594
I1381
sS'w-2=stimulus'
p595
I1559
sS'w-1=firework'
p596
I1174
sS'w+2=year'
p597
I1086
sS'ccomp=ask'
p598
I118
sS'w-1=autocrat'
p599
I1142
sS'w-2=after'
p600
I1348
sS'partmod=exceed'
p601
I545
sS'w+1=to'
p602
I753
sS'w+2=close'
p603
I865
sS'w+2=he'
p604
I919
sS'w-2=customer'
p605
I1395
sS'w+2=California'
p606
I791
sS'w+2=57.5'
p607
I788
sS'dobj=milestone'
p608
I291
sS'advmod=first'
p609
I53
sS'advmod=nearby'
p610
I65
sS'w-1=measure'
p611
I1204
sS'xcomp=encourage'
p612
I1635
sS'w+2=September'
p613
I823
sS'w-2=first'
p614
I1426
sS'w+2=budget'
p615
I854
sS'w-2=consider'
p616
I1382
sS'w+2=embroidery'
p617
I892
sS'nsubj=torch'
p618
I499
sS'w+2=three-strike'
p619
I1062
sS'w+1=strict'
p620
I739
sS'nsubjpass=consistency'
p621
I522
sS'w+1=parliament'
p622
I721
sS'w+2=desert'
p623
I883
sS'w-2=statement'
p624
I1558
sS'w+2=economic'
p625
I889
sS'w+2=urine'
p626
I1073
sS'auxpass=get'
p627
I112
sS'amod=temporary'
p628
I97
sS'w-1=gradually'
p629
I1182
sS'w-2=difference'
p630
I1403
sS'dep=fund'
p631
I210
sS'nn=touchdown'
p632
I362
sS'w+1=since'
p633
I731
sS'nsubj=Turkey'
p634
I403
sS'partmod=anger'
p635
I541
sS'w-2=turkish'
p636
I1584
sS'w+1=directly'
p637
I662
sS'w-2=previous'
p638
I1516
sS'w+2=temporary'
p639
I1050
sS'w+2=Lighthouse'
p640
I807
sS'w+2=over'
p641
I993
sS'w+2=suffering'
p642
I1046
sS'w+2=many'
p643
I962
sS'w+2=1996'
p644
I778
sS'conj=recommend'
p645
I181
sS'dobj=set'
p646
I320
sS'w+2=papers'
p647
I997
sS'dobj=change'
p648
I257
sS'w-2=plan'
p649
I1510
sS'w-2=earlier'
p650
I1413
sS'w+1=area'
p651
I638
sS'w-2=referendum'
p652
I1527
sS'w+2=off'
p653
I984
sS'w-2=day'
p654
I1397
sS'w-1=Katrina'
p655
I1115
sS'w+2=commit'
p656
I868
sS'conj=establish'
p657
I163
sS'prep=because'
p658
I560
sS'advmod=away'
p659
I41
sS'nsubj=Ford'
p660
I380
sS'w+2=Tuesday'
p661
I826
sS'w+2=air-filled'
p662
I833
sS'conj=use'
p663
I192
sS'w-2=come'
p664
I1378
sS'nsubj=bond'
p665
I414
sS'amod=spectacular'
p666
I96
sS'w+2=January'
p667
I804
sS'w-1=version'
p668
I1270
sS'nsubj=$'
p669
I365
sS'nsubj=Katrina'
p670
I385
sS'nsubjpass=meat'
p671
I531
sS'xcomp=try'
p672
I1663
sS'w+1=non-binding'
p673
I711
sS'dobj=revenue'
p674
I315
sS'w+1=nearby'
p675
I708
sS'nsubj=Democrats'
p676
I378
sS'dobj=package'
p677
I298
sS'w-2=you'
p678
I1617
sS'w+1=here'
p679
I681
sS'dobj=Senate'
p680
I242
sS'dobj=bill'
p681
I251
sS'w-2=harder'
p682
I1441
sS'dep=get'
p683
I211
sS'w+2=some'
p684
I1038
sS'dobj=standard'
p685
I322
sS'w+2=strong'
p686
I1043
sS'w-1=storm'
p687
I1252
sS'w+2=general'
p688
I911
sS'cc=but'
p689
I114
sS'nsubj=parent'
p690
I464
sS'w-1=amendment'
p691
I1136
sS'w+2=segregate'
p692
I1026
sS'advcl=devastate'
p693
I9
sS'w-2=already'
p694
I1350
sS'w-1=bill'
p695
I1144
sS'w+1=along'
p696
I631
sS'w-2=crisis'
p697
I1393
sS'w+2=incident'
p698
I932
sS'xcomp=enact'
p699
I1634
sS'w-2=my'
p700
I1487
sS'partmod=end'
p701
I544
sS'w+2=which'
p702
I1082
sS'w-1=year'
p703
I1285
sS'w+2=Port'
p704
I817
sS'w+2=255'
p705
I784
sS'w-2=wife'
p706
I1607
sS'dobj=cross'
p707
I264
sS'w-1=2007'
p708
I1095
sS'w-1=Parliament'
p709
I1121
sS'tmod=operation'
p710
I606
sS'w-2=early'
p711
I1414
sS'w-2=period'
p712
I1509
sS'conj=take'
p713
I190
sS'w+2=both'
p714
I852
sS'xcomp=demand'
p715
I1630
sS'advmod=similarly'
p716
I74
sS'advmod=recently'
p717
I72
sS'parataxis=die'
p718
I539
sS'w-1=deadline'
p719
I1161
sS'advmod=perhaps'
p720
I69
sS"w+2=''"
p721
I769
sS'w-1=who'
p722
I1279
sS'dobj=pin'
p723
I305
sS'w-2=could'
p724
I1389
sS'w-2=law'
p725
I1464
sS'nsubj=system'
p726
I495
sS'w+1=up'
p727
I759
sS'w-1=Japan'
p728
I1113
sS'nsubj=Turkmenbashi'
p729
I404
sS'w-1=product'
p730
I1233
sS'w-2=try'
p731
I1583
sS'w+1=version'
p732
I760
sS'w+1=appropriation'
p733
I637
sS'w+1=more'
p734
I706
sS'w+1=with'
p735
I765
sS'nsubj=route'
p736
I486
sS'w-1=anniversary'
p737
I1139
sS'w+1=late'
p738
I699
sS'dobj=house'
p739
I277
sS'w-2=do'
p740
I1407
sS'nsubj=cell'
p741
I417
sS'advmod=around'
p742
I40
sS'w-2=,'
p743
I1291
sS'conj=include'
p744
I171
sS'w-2=.'
p745
I1293
sS'w-2=speech'
p746
I1555
sS'nsubj=authority'
p747
I410
sS'w+1=Tauscher'
p748
I627
sS"w-2='"
p749
I1288
sS'dobj=number'
p750
I295
sS'advmod=south'
p751
I78
sS'w+1=major'
p752
I702
sS'w-2=satisfy'
p753
I1538
sS'w-2=South'
p754
I1334
sS'w-2=I'
p755
I1316
sS'w-2=decision'
p756
I1399
sS'w+1=mark'
p757
I703
sS'conj=forecast'
p758
I166
sS'w-1=tradition'
p759
I1264
sS'w+2=Friday'
p760
I799
sS'w-2=a'
p761
I1341
sS'w-1=suffering'
p762
I1254
sS'dobj=motion'
p763
I293
sS'w-2=Act'
p764
I1299
sS'w-1=he'
p765
I1184
sS'w+1=bill'
p766
I649
sS'w+1=similar'
p767
I730
sS'w+1=from'
p768
I678
sS'neg=never'
p769
I354
sS'w-2=list'
p770
I1471
sS'w-2=city'
p771
I1375
sS'nsubj=other'
p772
I462
sS'w-1=how'
p773
I1185
sS'dobj=measure'
p774
I289
sS'w+2=closely-divided'
p775
I866
sS'w+1=iraqi-guarded'
p776
I691
sS'w-1=Khyber'
p777
I1116
sS'amod=win'
p778
I98
sS'w-2=chinese'
p779
I1372
sS'w-2=drive'
p780
I1409
sS'w+2=infection'
p781
I933
sS'nsubj=cyclone'
p782
I428
sS'w-1=sometimes'
p783
I1246
sS'w-2=this'
p784
I1573
sS'mark=since'
p785
I350
sS'w+1=medical'
p786
I704
sS'w+2=U.S.'
p787
I828
sS'w-1=even'
p788
I1170
sS'dobj=point'
p789
I307
sS'prep=from'
p790
I572
sS'w+1=when'
p791
I763
sS'prt=off'
p792
I594
sS'ccomp=undermine'
p793
I144
sS'nsubj=ANC'
p794
I366
sS'nsubj=push'
p795
I479
sS'w-2=larva'
p796
I1462
sS'nsubj=which'
p797
I510
sS'w+1=Congress'
p798
I620
sS'w-2=worker'
p799
I1612
sS'w+1=resolution'
p800
I724
sS'w+1=$'
p801
I612
sS'xcomp=distribute'
p802
I1633
sS'w-1=monk'
p803
I1206
sS'tmod=week'
p804
I610
sS'w+1=,'
p805
I613
sS'w+1=.'
p806
I615
sS'xcomp=strengthen'
p807
I1662
sS'w+2=50'
p808
I787
sS'dep=after'
p809
I201
sS'w+2=iranian'
p810
I939
sS'w-2=such'
p811
I1563
sS'w-2=necessary'
p812
I1488
sS'w-1=quickly'
p813
I1235
sS'w-2=high'
p814
I1444
sS'w-1=car'
p815
I1150
sS'w-2=IAEA'
p816
I1317
sS'w+1=a'
p817
I629
sS'dobj=physical'
p818
I303
sS'w-1=include'
p819
I1190
sS'w-1=that'
p820
I1256
sS'dobj=right'
p821
I317
sS'dobj=law'
p822
I284
sS'w+2=virus'
p823
I1076
sS'w-2=frontier'
p824
I1434
sS'w+2=headquarters'
p825
I920
sS'w-2=people'
p826
I1507
sS'conj=weave'
p827
I195
sS'nsubj=child'
p828
I419
sS'xcomp=use'
p829
I1664
sS'w-1=America'
p830
I1101
sS'w+1=far-reaching'
p831
I674
sS'w-1=Nations'
p832
I1118
sS'nsubj=Hyde'
p833
I382
sS'w-1=african'
p834
I1130
sS'w+1=specific'
p835
I738
sS'nsubj=wife'
p836
I512
sS'w-1=would'
p837
I1284
sS'w+1=undetected'
p838
I757
sS'nsubj=council'
p839
I423
sS'nn=food'
p840
I359
sS'w+1=year'
p841
I767
sS'dep=agree'
p842
I202
sS'w+1=these'
p843
I746
sS'w+1=only'
p844
I716
sS'dobj=meeting'
p845
I290
sS'w+2=mother'
p846
I970
sS'w-2=form'
p847
I1429
sS'w+1=ethic'
p848
I672
sS'w+2=decisive'
p849
I881
sS'nsubj=proposal'
p850
I477
sS'partmod=earmark'
p851
I543
sS'w+2=Hurricane'
p852
I802
sS'nsubjpass=budget'
p853
I519
sS'w+2=misleading'
p854
I967
sS'dobj=gift'
p855
I273
sS'w-1=station'
p856
I1250
sS'w-2=Council'
p857
I1306
sS'conj=jump'
p858
I172
sS'w-2=power'
p859
I1513
sS'w+2=emergency'
p860
I893
sS'w-2=chance'
p861
I1371
sS'w-2=mother'
p862
I1484
sS'w+2=english'
p863
I896
sS'w-1=routinely'
p864
I1240
sS'w+2=to'
p865
I1066
sS'nsubj=cloud'
p866
I420
sS'w-1=student'
p867
I1253
sS'w-2=home'
p868
I1446
sS'w-2=approve'
p869
I1356
sS'w-1=Congress'
p870
I1107
sS'conj=need'
p871
I178
sS'w-2=culture'
p872
I1394
sS'nsubj=period'
p873
I469
sS'w-1=bond'
p874
I1146
sS'w+2=convoy'
p875
I874
sS'dobj=ribbon'
p876
I316
sS'advcl=enter'
p877
I13
sS'w+2=test'
p878
I1051
sS'complm=that'
p879
I146
sS'nsubj=scientist'
p880
I487
sS'tmod=month'
p881
I605
sS'w-2=yet'
p882
I1616
sS'w+2=vote'
p883
I1077
sS'w-1=train'
p884
I1265
sS'dobj=reading'
p885
I310
sS'dep=order'
p886
I216
sS'w+2=President'
p887
I818
sS'w+1=300,000'
p888
I617
sS'w+1=comprehensive'
p889
I656
sS'w-2=for'
p890
I1427
sS'w+1=they'
p891
I747
sS'w+1=those'
p892
I749
sS'advmod=quickly'
p893
I70
sS'prep=in'
p894
I573
sS'w+2=Miami'
p895
I811
sS'w-1=percent'
p896
I1225
sS'advmod=yet'
p897
I87
sS'w-2=refinery'
p898
I1528
sS'xcomp=promote'
p899
I1651
sS'w-1=Niger'
p900
I1120
sS'w+1=immigration'
p901
I685
sS'w+1=overhead'
p902
I720
sS'dobj=infection'
p903
I278
sS'w+2=feudal'
p904
I902
sS'w-1=it'
p905
I1192
sS'nsubj=autocrat'
p906
I411
sS'dobj=mark'
p907
I288
sS'w-2=government'
p908
I1439
sS'nsubjpass=bureaucrat'
p909
I520
sS'w-2=opportunity'
p910
I1499
sS'w-1=if'
p911
I1187
sS'w+2=sanction'
p912
I1022
sS'det=this'
p913
I230
sS'nsubj=Pakistanis'
p914
I394
sS'w-1=in'
p915
I1188
sS'w+2=disband'
p916
I886
sS'w-1=the'
p917
I1257
sS'w-2=Security'
p918
I1332
sS'mark=if'
p919
I346
sS'w-2=camel'
p920
I1368
sS'mark=in'
p921
I347
sS'w+2=log'
p922
I958
sS'amod=first'
p923
I91
sS'nsubj=prayer'
p924
I473
sS'w+2=not'
p925
I981
sS'nsubj=reality'
p926
I480
sS'w+2=day'
p927
I879
sS'w-2=cinderblock'
p928
I1374
sS'nsubj=deadline'
p929
I431
sS'dobj=news'
p930
I294
sS'rcmod=be'
p931
I599
sS'amod=#NUMBER#'
p932
I88
sS'dep=say'
p933
I219
sS'ccomp=live'
p934
I132
sS'w+2=higher'
p935
I922
sS'w-2=through'
p936
I1575
sS'w-1=1591'
p937
I1093
sS'conj=arise'
p938
I152
sS'prep=along'
p939
I556
sS'nsubj=who'
p940
I511
sS'w+2=Kano'
p941
I805
sS'nsubj=truck'
p942
I503
sS'w-2=of'
p943
I1494
sS'w-2=on'
p944
I1496
sS'nsubj=band'
p945
I412
sS'nsubj=drought'
p946
I433
sS'dobj=parliament'
p947
I301
sS'w-1=province'
p948
I1234
sS'w+2=overwhelming'
p949
I994
sS'nsubj=cocaine'
p950
I421
sS'dobj=story'
p951
I324
sS'w+2=sweeping'
p952
I1048
sS'w-2=ability'
p953
I1342
sS'dobj=Congress'
p954
I239
sS'dobj=this'
p955
I330
sS'w+2=car'
p956
I859
sS'w+1=anti-israeli'
p957
I635
sS'advmod=however'
p958
I57
sS'w-1=and'
p959
I1137
sS'aux=must'
p960
I106
sS'w+1=as'
p961
I640
sS'w-2=another'
p962
I1354
sS'w+2=like'
p963
I956
sS'w+1=at'
p964
I641
sS'ccomp=pass'
p965
I136
sS'w-2=computer'
p966
I1380
sS'prt=along'
p967
I590
sS'nsubj=House'
p968
I381
sS'advcl=urge'
p969
I33
sS'w+2=so'
p970
I1037
sS'xcomp=ban'
p971
I1621
sS'mark=for'
p972
I345
sS'dobj=luncheonette'
p973
I287
sS'w-1=can'
p974
I1149
sS'w-2=judge'
p975
I1460
sS'advmod=earlier'
p976
I48
sS'nsubj=power'
p977
I472
sS'nsubj=mother'
p978
I456
sS'w+2=de-baathification'
p979
I880
sS'w-1=say'
p980
I1241
sS'ccomp=sign'
p981
I142
sS'w-1=lawmaker'
p982
I1196
sS'w-2=foreigner'
p983
I1428
sS'advmod=easily'
p984
I49
sS'advmod=when'
p985
I85
sS'w-2=support'
p986
I1564
sS'w+2=Monday'
p987
I813
sS'w-2=key'
p988
I1461
sS'w+2=oil'
p989
I985
sS'nsubj=amendment'
p990
I408
sS'w-1=date'
p991
I1160
sS'nsubj=pilgrim'
p992
I470
sS'dep=#NUMBER#'
p993
I200
sS'auxpass=be'
p994
I111
sS"w-1='s"
p995
I1087
sS'nsubj=probe'
p996
I475
sS'nsubj=bill'
p997
I413
sS'dep=until'
p998
I225
sS'w-2=last'
p999
I1463
sS'advmod=merely'
p1000
I62
sS'w+1=there'
p1001
I745
sS'w-2=must'
p1002
I1486
sS'w-2=spending'
p1003
I1556
sS'nsubj=month'
p1004
I455
sS'nsubj=Johnson'
p1005
I384
sS'w+1=common-sense'
p1006
I655
sS'w-2=numerous'
p1007
I1493
sS'nsubj=#NUMBER#'
p1008
I363
sS'w+2=free'
p1009
I908
sS'dobj=council'
p1010
I263
sS'w+1=its'
p1011
I693
sS'w-2=FISA'
p1012
I1309
sS'w+2=Clean'
p1013
I795
sS'nsubj=crown'
p1014
I427
sS'w+1=definitive'
p1015
I661
sS'nsubj=individual'
p1016
I443
sS'dobj=exercise'
p1017
I268
sS'w-1=Johnson'
p1018
I1114
sS'w-2=sometimes'
p1019
I1551
sS'conj=do'
p1020
I161
sS'w-1=no'
p1021
I1215
sS"w-2=''"
p1022
I1289
sS'dobj=government'
p1023
I274
sS'w-1=want'
p1024
I1273
sS'nsubj=Bank'
p1025
I371
sS'nsubj=extension'
p1026
I435
sS'w-1=Time'
p1027
I1127
sS'w-1=every'
p1028
I1171
sS'w+2=make'
p1029
I960
sS'dobj=embroidery'
p1030
I266
sS'conj=have'
p1031
I168
sS'dobj=constitution'
p1032
I261
sS'nsubjpass=experience'
p1033
I527
sS'w-2=there'
p1034
I1570
sS'w+2=design'
p1035
I884
sS'ccomp=delay'
p1036
I125
sS'w+2=gift'
p1037
I912
sS'advcl=poor'
p1038
I22
sS'nsubj=operator'
p1039
I460
sS"w-2='s"
p1040
I1290
sS'advcl=have'
p1041
I16
sS'w-2=Pervez'
p1042
I1328
sS'w-2=pregnant'
p1043
I1515
sS'w+2=human'
p1044
I925
sS'w+2=stage'
p1045
I1040
sS'xcomp=dissolve'
p1046
I1632
sS'w+1=because'
p1047
I645
sS'w+2=every'
p1048
I898
sS'w+2=council'
p1049
I877
sS'w-2=expire'
p1050
I1421
sS'w+2=South'
p1051
I824
sS'amod=historic'
p1052
I93
sS'w+1=lane'
p1053
I697
sS'w+2=small'
p1054
I1035
sS'w-2=free-trade'
p1055
I1430
sS'w+2=send'
p1056
I1027
sS'w+2=agreement'
p1057
I832
sS'w-2=lawsuit'
p1058
I1466
sS'w-2=which'
p1059
I1604
sS'advmod=even'
p1060
I51
sS'w+2=reconciliation'
p1061
I1013
sS'ccomp=govern'
p1062
I127
sS'dobj=paper'
p1063
I299
sS'w-2=the'
p1064
I1569
sS'w+1=near'
p1065
I707
sS'xcomp=protect'
p1066
I1652
sS'dobj=$'
p1067
I233
sS'w+2=care'
p1068
I861
sS'w+2=card'
p1069
I860
sS'advcl=form'
p1070
I15
sS'nsubj=Council'
p1071
I377
sS'w+2=229'
p1072
I783
sS'prep=with'
p1073
I587
sS'nsubj=agency'
p1074
I407
sS'w-2=session'
p1075
I1545
sS'w+2=quite'
p1076
I1011
sS'conj=learn'
p1077
I174
sS'w-2=Federal'
p1078
I1310
sS'w+2=milestone'
p1079
I965
sS'w-1=recently'
p1080
I1236
sS'w-2=local'
p1081
I1472
sS'w-2=controversial'
p1082
I1386
sS'nsubj=referendum'
p1083
I482
sS'w+2=Kenya'
p1084
I806
sS'w-1=after'
p1085
I1131
sS'w-2=Al-Dabbagh'
p1086
I1301
sS'w+2=largest'
p1087
I947
sS'dobj=bag'
p1088
I249
sS'w+1=critical'
p1089
I659
sS'xcomp=settle'
p1090
I1658
sS'conj=die'
p1091
I159
sS'nsubj=date'
p1092
I429
sS'partmod=make'
p1093
I546
sS'conj=dim'
p1094
I160
sS'w-1=crown'
p1095
I1156
sS'w+2=flame'
p1096
I905
sS'cc=and'
p1097
I113
sS'w+1=by'
p1098
I652
sS'w+2=one-year'
p1099
I988
sS'w-1=week'
p1100
I1276
sS'conj=say'
p1101
I183
sS'w-2=additional'
p1102
I1346
sS'tmod=year'
p1103
I611
sS'w-2=Congress'
p1104
I1305
sS'w-2=immigrant'
p1105
I1451
sS'conj=occur'
p1106
I179
sS'w+1=health'
p1107
I680
sS'w-2=see'
p1108
I1542
sS'amod=additional'
p1109
I89
sS'w-2=truck'
p1110
I1582
sS'w+2=family'
p1111
I901
sS'w+1=into'
p1112
I689
sS'w-2=13-yard'
p1113
I1294
sS'w+2=substantial'
p1114
I1044
sS'w-2=quickly'
p1115
I1522
sS'w+2=legendary'
p1116
I953
sS'advcl=partition'
p1117
I21
sS'w-2=communication'
p1118
I1379
sS'w-2=screen'
p1119
I1540
sS'aux=could'
p1120
I101
sS'prep=like'
p1121
I576
sS'advmod=through'
p1122
I81
sS'w-2=block'
p1123
I1364
sS'w-1=prevent'
p1124
I1231
sS'w+1=law'
p1125
I700
sS'w-2=these'
p1126
I1571
sS'w-2=ship'
p1127
I1546
sS'w-1=Musharraf'
p1128
I1117
sS'w+2=No'
p1129
I814
sS'w+1=significant'
p1130
I729
sS'w-1=briefing'
p1131
I1147
sS'dobj=strength'
p1132
I325
sS'w+1=inspection'
p1133
I688
sS'w-1=1958'
p1134
I1094
sS'nsubj=warship'
p1135
I506
sS'advmod=nationwide'
p1136
I64
sS'dep=have'
p1137
I212
sS'dep=the'
p1138
I224
sS'w-2=failure'
p1139
I1423
sS'w+2=-lrb-'
p1140
I772
sS'w-2=Representatives'
p1141
I1330
sS'w-2=talk'
p1142
I1566
sS'w+2=same'
p1143
I1020
sS'w-1=Castro'
p1144
I1105
sS'w+2=that'
p1145
I1053
sS'w-2=get'
p1146
I1437
sS'w-1=child'
p1147
I1151
sS'w-1=or'
p1148
I1221
sS'w-1=stop'
p1149
I1251
sS'w-1=month'
p1150
I1207
sS'w-1=of'
p1151
I1218
sS'w-2=Hurricane'
p1152
I1315
sS'w+2=it'
p1153
I941
sS'w-2=grant'
p1154
I1440
sS'conj=delay'
p1155
I157
sS'w+1=first'
p1156
I676
sS'w+1=this'
p1157
I748
sS'w+2=mandate'
p1158
I961
sS'w-2=enough'
p1159
I1418
sS'w-2=vote'
p1160
I1595
sS'w+2=purpose'
p1161
I1009
sS'dobj=agreement'
p1162
I243
sS'advmod=now'
p1163
I66
sS'w+2=into'
p1164
I937
sS'w+2=law'
p1165
I950
sS'nsubj=those'
p1166
I497
sS'w-2=will'
p1167
I1608
sS'conj=suspend'
p1168
I189
sS'w-1=8,000'
p1169
I1098
sS'w+2=controversial'
p1170
I873
sS'dobj=sanction'
p1171
I318
sS'ccomp=postpone'
p1172
I138
sS'w-2=iranian'
p1173
I1457
sS'w+2=only'
p1174
I989
sS'w+1=wiretap'
p1175
I764
sS'dobj=kind'
p1176
I282
sS'partmod=say'
p1177
I547
sS'w-2=not'
p1178
I1492
sS'w-2=while'
p1179
I1605
sS'nsubjpass=resolution'
p1180
I535
sS'nsubj=resolution'
p1181
I485
sS'w+1=merely'
p1182
I705
sS'w-2=two'
p1183
I1585
sS'w-2=as'
p1184
I1357
sS'w-2=train'
p1185
I1579
sS'w+2=paper'
p1186
I996
sS'w-1=also'
p1187
I1135
sS'w+2=large'
p1188
I946
sS'w-1=Assembly'
p1189
I1103
sS'w+2=no'
p1190
I977
sS'w+1=during'
p1191
I666
sS'w-2=Bank'
p1192
I1302
sS'dobj=time'
p1193
I331
sS'w-1=oil'
p1194
I1219
sS'det=a'
p1195
I228
sS'dep=find'
p1196
I209
sS'advmod=quietly'
p1197
I71
sS'w+2=tradition'
p1198
I1070
sS'w+1=time'
p1199
I752
sS'w-1=touchdown'
p1200
I1263
sS'advcl=put'
p1201
I24
sS'w+2=there'
p1202
I1056
sS'advmod=immediately'
p1203
I58
sS'w+2=liability'
p1204
I955
sS'w+2=strength'
p1205
I1041
sS'w-2=major'
p1206
I1474
sS'complm=whether'
p1207
I147
sS'w+2=anti-smoking'
p1208
I838
sS'w-2=November'
p1209
I1325
sS'w-1=vehicle'
p1210
I1269
sS'w+2=Eritrea'
p1211
I798
sS'w-1=must'
p1212
I1211
sS'w-2=Health'
p1213
I1313
sS'advmod=in'
p1214
I59
sS'w+2=gruel'
p1215
I916
sS'w+2=than'
p1216
I1052
sS'nsubj=patient'
p1217
I466
sS'w-2=experience'
p1218
I1420
sS'w+2=enact'
p1219
I894
sS'w+2=Senegal'
p1220
I822
sS'conj=loiter'
p1221
I176
sS'aux=to'
p1222
I108
sS'w-1=Botha'
p1223
I1104
sS'w-2=measure'
p1224
I1476
sS'amod=free'
p1225
I92
sS'dep=put'
p1226
I218
sS'w-2=parent'
p1227
I1503
sS'w+2=qualify'
p1228
I1010
sS'w-2=senate'
p1229
I1544
sS'w-1=hurricane'
p1230
I1186
sS'w+2=energy'
p1231
I895
sS'w-1=for'
p1232
I1176
sS'nsubj=father'
p1233
I437
sS'nsubj=Migrants'
p1234
I389
sS'w+2=flag'
p1235
I904
sS'w+2=most'
p1236
I969
sS'w-1=cut'
p1237
I1158
sS'prep=during'
p1238
I568
sS'w+2=second'
p1239
I1023
sS'xcomp=authorize'
p1240
I1620
sS'w-1=now'
p1241
I1217
sS'w-1=not'
p1242
I1216
sS'conj=sign'
p1243
I188
sS'w-1=opportunity'
p1244
I1220
sS'w-2=difficult'
p1245
I1404
sS'dobj=overhead'
p1246
I297
sS'aux=be'
p1247
I99
sS'w-2=unlikely'
p1248
I1589
sS'w+2=Sasha'
p1249
I819
sS'prep=before'
p1250
I561
sS'aux=have'
p1251
I103
sS'ccomp=call'
p1252
I122
sS'nsubjpass=measure'
p1253
I530
sS'advcl=drink'
p1254
I12
sS'w+1=emergency'
p1255
I671
sS'w+1=positive'
p1256
I722
sS'w-2=two-week'
p1257
I1586
sS'w-2=house'
p1258
I1448
sS'w+2=number'
p1259
I982
sS'mark=like'
p1260
I348
sS'nsubj=one-fifth'
p1261
I459
sS'xcomp=call'
p1262
I1623
sS'nsubjpass=knowledge'
p1263
I528
sS'amod=board'
p1264
I90
sS'w-2=they'
p1265
I1572
sS'prep=by'
p1266
I566
sS'w-2=Caravan'
p1267
I1304
sS'prep=between'
p1268
I563
sS'w-2=country'
p1269
I1391
sS'advmod=too'
p1270
I82
sS'ccomp=bang'
p1271
I119
sS'nsubj=government'
p1272
I439
sS'dobj=polygraph'
p1273
I308
sS'w-1=legislation'
p1274
I1197
sS'w+1=numerous'
p1275
I712
sS'nn=Khyber'
p1276
I357
sS'w-2=vow'
p1277
I1597
sS'prep=follow'
p1278
I570
sS'w-1=Russia'
p1279
I1123
sS'w+2=commander-in-chief'
p1280
I867
sS'nsubj=center'
p1281
I418
sS'w+2=annual'
p1282
I836
sS'w+2=pin'
p1283
I1003
sS'nsubj=eye'
p1284
I436
sS'conj=escape'
p1285
I162
sS'prep=both'
p1286
I564
sS'nsubjpass=amendment'
p1287
I517
sS'w-1=by'
p1288
I1148
sS'w-1=be'
p1289
I1143
sS'advmod=eventually'
p1290
I52
sS'w+2=smoothly'
p1291
I1036
sS'nsubj=legislature'
p1292
I449
sS'w-2=risk'
p1293
I1534
sS'w-1=truck'
p1294
I1266
sS'mark=because'
p1295
I343
sS'aux=might'
p1296
I105
sS'w+2=contractor'
p1297
I872
sS'dobj=series'
p1298
I319
sS'advcl=stop'
p1299
I28
sS'conj=want'
p1300
I194
sS'w-1=Senegal'
p1301
I1125
sS'xcomp=see'
p1302
I1657
sS'xcomp=limit'
p1303
I1644
sS'w-2=agency'
p1304
I1349
sS'advmod=once'
p1305
I67
sS'xcomp=come'
p1306
I1626
sS'w-1=which'
p1307
I1278
sS'csubj=go'
p1308
I198
sS'w+1=another'
p1309
I634
sS'w+2=serious'
p1310
I1029
sS'w-1=from'
p1311
I1179
sS'w-1=Friday'
p1312
I1111
sS'w-2=effort'
p1313
I1416
sS'w+2=resolution'
p1314
I1017
sS'w+2=by'
p1315
I857
sS'w+2=be'
p1316
I846
sS'w+2=halfway'
p1317
I918
sS'nsubj=train'
p1318
I501
sS'nsubj=trail'
p1319
I500
sS'aux=would'
p1320
I110
sS'ccomp=miss'
p1321
I134
sS'nsubj=Caravan'
p1322
I373
sS'w+2=impose'
p1323
I930
sS'w+1=immediately'
p1324
I684
sS'w+1=quietly'
p1325
I723
sS'nsubj=whatever'
p1326
I509
sS'w-2=Korea'
p1327
I1320
sS'w+2=Chad'
p1328
I792
sS'w-2=immediately'
p1329
I1450
sS'advmod=ago'
p1330
I35
sS'xcomp=improve'
p1331
I1642
sS'w+1=and'
p1332
I633
sS'dobj=request'
p1333
I312
sS'w+1=judgment'
p1334
I694
sS'partmod=authorize'
p1335
I542
sS'dobj=check'
p1336
I258
sS'conj=deploy'
p1337
I158
sS'w+1=any'
p1338
I636
sS'w-1=parliament'
p1339
I1223
sS'prt=up'
p1340
I598
sS'w-2=60'
p1341
I1297
sS'w-2=special'
p1342
I1554
sS'w+2=these'
p1343
I1057
sS'dobj=budget'
p1344
I254
sS'w-2=State'
p1345
I1335
sS'w-1=Turkey'
p1346
I1128
sS'xcomp=course'
p1347
I1629
sS'w+2=series'
p1348
I1028
sS'advmod=directly'
p1349
I46
sS'w+2=verification'
p1350
I1074
sS'dobj=Bill'
p1351
I236
sS'w+2=wave'
p1352
I1079
sS'w-1=legislator'
p1353
I1198
sS'w-2=life'
p1354
I1470
sS'w+2=similar'
p1355
I1032
sS'dobj=head'
p1356
I275
sS'w+2=2007'
p1357
I780
sS'w+2=2005'
p1358
I779
sS'w+2=parliamentary'
p1359
I999
sS'w-2=activist'
p1360
I1345
sS'w+2=2008'
p1361
I781
sS'nn=Eagle'
p1362
I356
sS'conj=save'
p1363
I182
sS'nsubj=percent'
p1364
I468
sS'w-2=John'
p1365
I1318
sS'w+2=spending'
p1366
I1039
sS'w+2=Mexico'
p1367
I810
sS'advcl=two-third'
p1368
I32
sS'w-2=value'
p1369
I1591
sS'w-1=easily'
p1370
I1166
sS'w+2=normality'
p1371
I980
sS'ccomp=give'
p1372
I126
sS'nsubj=Botha'
p1373
I372
sS'w+2=action'
p1374
I830
sS'w+2=against'
p1375
I831
sS'nsubj=Koroma'
p1376
I387
sS'conj=wait'
p1377
I193
sS'w+1=themselves'
p1378
I744
sS'w+1=nearly'
p1379
I709
sS'prt=out'
p1380
I595
sS'ccomp=check'
p1381
I123
sS'w-1=country'
p1382
I1155
sS'nsubj=motion'
p1383
I457
sS'conj=permanent'
p1384
I180
sS'dobj=supplemental'
p1385
I327
sS'w+2=ceremonial'
p1386
I862
sS'w-1=lottery'
p1387
I1200
sS'tmod=today'
p1388
I609
sS'w-2=cut'
p1389
I1396
sS'w+2=three'
p1390
I1061
sS'w+1=two'
p1391
I755
sS'dobj=examination'
p1392
I267
sS'partmod=urge'
p1393
I548
sS'w-2=ready'
p1394
I1523
sS'nsubj=Parliament'
p1395
I395
sS'prep=for'
p1396
I571
sS'dep=that'
p1397
I223
sS'nsubj=force'
p1398
I438
sS'w-2=together'
p1399
I1578
sS'w+2=legislation'
p1400
I954
sS'w+2=at'
p1401
I842
sS'advcl=want'
p1402
I34
sS'w+2=as'
p1403
I841
sS'nsubj=politician'
p1404
I471
sS'ccomp=concerned'
p1405
I124
sS'xcomp=outlaw'
p1406
I1649
sS'w+2=judgment'
p1407
I942
sS'w+2=could'
p1408
I876
sS'nsubjpass=cinderblock'
p1409
I521
sS'aux=will'
p1410
I109
sS'conj=improve'
p1411
I170
sS'nsubj=parliament'
p1412
I465
sS'xcomp=return'
p1413
I1655
sS'w-2=minute'
p1414
I1480
sS'w-2=reform'
p1415
I1529
sS'w-1=politician'
p1416
I1227
sS'conj=argue'
p1417
I151
sS'w-2=majority'
p1418
I1475
sS'w+1=back'
p1419
I644
sS'xcomp=Act'
p1420
I1619
sS'w+2=with'
p1421
I1084
sS'w+2=play'
p1422
I1004
sS'w-2=-rrb-'
p1423
I1292
sS'w+1=certain'
p1424
I654
sS'conj=approve'
p1425
I150
sS'w-2=ANC'
p1426
I1298
sS'dobj=vote'
p1427
I338
sS'nsubj=English'
p1428
I379
sS'nsubj=stream'
p1429
I492
sS'w-1=people'
p1430
I1224
sS'w+1=right'
p1431
I725
sS'ccomp=use'
p1432
I145
sS'dep=with'
p1433
I227
sS'w-2=violence'
p1434
I1594
sS'w-2=month'
p1435
I1483
sS'nsubjpass=reform'
p1436
I533
sS'w+2=of'
p1437
I983
sS'advmod=sometimes'
p1438
I76
sS'w+2=on'
p1439
I986
sS'w+2=Giunta'
p1440
I800
sS'w+2=polygraph'
p1441
I1005
sS'w+2=checkpoint'
p1442
I863
sS'w+1=so'
p1443
I733
sS'w-2=amendment'
p1444
I1352
sS'w+2=just'
p1445
I943
sS'prt=over'
p1446
I596
sS'prep=without'
p1447
I589
sS'w-1=cyclone'
p1448
I1159
sS'w-2=achieve'
p1449
I1344
sS'w-1=Chad'
p1450
I1106
sS'advcl=lay'
p1451
I19
sS'w-1=she'
p1452
I1242
sS'w+2=from'
p1453
I909
sS'w+2=two'
p1454
I1072
sS'w+2=half'
p1455
I917
sS'w-2=troops'
p1456
I1581
sS'advcl=snap'
p1457
I27
sS'w-2=fail'
p1458
I1422
sS'w-2=historic'
p1459
I1445
sS'w-1=kid'
p1460
I1194
sS'dobj=responsibility'
p1461
I314
sS'ccomp=need'
p1462
I135
sS'w+1=over'
p1463
I719
sS'w+2=request'
p1464
I1016
sS'nsubjpass=law'
p1465
I529
sS'prep=begin'
p1466
I562
sS'w-2=space'
p1467
I1553
sS'w+1=several'
p1468
I728
sS'w+1=final'
p1469
I675
sS'advcl=talk'
p1470
I30
sS'w-2=Buddhist'
p1471
I1303
sS'w+2=behalf'
p1472
I848
sS'aux=do'
p1473
I102
sS'w-2=problem'
p1474
I1518
sS'w-1=Council'
p1475
I1108
sS'w+1=either'
p1476
I670
sS'xcomp=confirm'
p1477
I1627
sS'advmod=already'
p1478
I38
sS'w-2=strange'
p1479
I1560
sS'dobj=piece'
p1480
I304
sS'w+2=another'
p1481
I837
sS'nsubj=people'
p1482
I467
sS'w-1=Representatives'
p1483
I1122
sS'w-2=doubt'
p1484
I1408
sS'w+2=long-delayed'
p1485
I959
sS'advcl=collect'
p1486
I5
sS'w+2=people'
p1487
I1001
sS'w+2=leave'
p1488
I952
sS'xcomp=start'
p1489
I1661
sS'w+2=similiar'
p1490
I1033
sS'w-2=iraqi'
p1491
I1458
sS'w+2=citizenship'
p1492
I864
sS'w+2=tip'
p1493
I1065
sS'w-1=woman'
p1494
I1283
sS'dobj=stick'
p1495
I323
sS'w+2=lawmaker'
p1496
I951
sS'w-1=representative'
p1497
I1238
sS'w+2=week'
p1498
I1081
sS'prep=accord'
p1499
I553
sS'num=#NUMBER#'
p1500
I538
sS'advmod=narrowly'
p1501
I63
sS'nsubj=country'
p1502
I424
sS'ccomp=buy'
p1503
I121
sS'nsubj=Senegal'
p1504
I399
sS'w-1=this'
p1505
I1260
sS'w+2=November'
p1506
I815
sS'w+2=strict'
p1507
I1042
sS'w-2=woman'
p1508
I1611
sS'nsubj=Senate'
p1509
I398
sS'w+2=body'
p1510
I851
sS'prep=under'
p1511
I586
sS'w-1=animal'
p1512
I1138
sS'prep=either'
p1513
I569
sS'w-2=Niyazov'
p1514
I1324
sS'w+1=identical'
p1515
I682
sS"w+2='s"
p1516
I770
sS'w-2=when'
p1517
I1603
sS'conj=hold'
p1518
I169
sS'w-2=eagerness'
p1519
I1412
sS'w-2=security'
p1520
I1541
sS'w-1=already'
p1521
I1134
sS'dobj=suffering'
p1522
I326
sS'mark=until'
p1523
I352
sS'w-1=constitution'
p1524
I1153
sS'nsubj=latest'
p1525
I444
sS'nsubj=crisis'
p1526
I426
sS'w+2=non-binding'
p1527
I978
sS'advcl=kill'
p1528
I18
sS'xcomp=save'
p1529
I1656
sS'w-1=motion'
p1530
I1209
sS'dobj=papers'
p1531
I300
sS'w-2=McCain'
p1532
I1322
sS'w+2=multi-billion'
p1533
I972
sS'mark=before'
p1534
I344
sS'w+2=kind'
p1535
I944
sS'advmod=back'
p1536
I42
sS'conj=get'
p1537
I167
sS'nsubjpass=disease'
p1538
I525
sS'w-1=make'
p1539
I1201
sS'w-1=might'
p1540
I1205
sS'w-2=authority'
p1541
I1359
sS'w-1=into'
p1542
I1191
sS'w-1=narrowly'
p1543
I1212
sS'w-2=be'
p1544
I1361
sS'w+2=landmark'
p1545
I945
sS'xcomp=challenge'
p1546
I1624
sS'w+1=three'
p1547
I750
sS'w-2=tax'
p1548
I1567
sS'w-2=Sunrise'
p1549
I1337
sS'nsubj=majority'
p1550
I450
sS'w-1=torch'
p1551
I1262
sS'w+2=Military'
p1552
I812
sS'w-2=might'
p1553
I1479
sS'advmod=clearly'
p1554
I44
sS'ccomp=perfect'
p1555
I137
sS'w-1=typically'
p1556
I1267
sS'w+1=six'
p1557
I732
sS'nsubj=difference'
p1558
I432
sS'nsubj=version'
p1559
I505
sS'w-2=economy'
p1560
I1415
sS'w-1=Arizona'
p1561
I1102
sS'w+1=some'
p1562
I734
sS'w+2=simple'
p1563
I1034
sS'w+2=information'
p1564
I934
sS'w-2=want'
p1565
I1598
sS'w+2=any'
p1566
I839
sS'advcl=control'
p1567
I7
sS'nsubj=activist'
p1568
I406
sS'w-2=craft'
p1569
I1392
sS'w-1=mountain'
p1570
I1210
sS'w+2=effective'
p1571
I890
sS'conj=set'
p1572
I187
sS'w+2=and'
p1573
I835
sS'tmod=#DATE#'
p1574
I603
sS'xcomp=convince'
p1575
I1628
sS'w-1=visitor'
p1576
I1271
sS'mark=so'
p1577
I351
sS'dobj=amendment'
p1578
I244
sS'nsubj=repeal'
p1579
I484
sS'nsubj=snow'
p1580
I489
sS'cop=be'
p1581
I197
sS'w-2=province'
p1582
I1521
sS'w-2=say'
p1583
I1539
sS'w+2=the'
p1584
I1054
sS'prep=at'
p1585
I559
sS'nsubj=U.S.'
p1586
I405
sS'prep=as'
p1587
I558
sS'dobj=volunteer'
p1588
I337
sS'w-2=but'
p1589
I1367
sS'w-1=.'
p1590
I1092
sS'w-1=-'
p1591
I1089
sS'w-1=,'
p1592
I1088
sS'xcomp=share'
p1593
I1659
sS'xcomp=lift'
p1594
I1643
sS'nsubj=budget'
p1595
I415
sS'prep=through'
p1596
I584
sS'w+2=one'
p1597
I987
sS'w+1=security'
p1598
I726
sS'w+2=Civil'
p1599
I794
sS'w-1=I'
p1600
I1112
sS'w-2=Oregon'
p1601
I1326
sS'w+2=supplemental'
p1602
I1047
sS'w-2=Switzerland'
p1603
I1338
sS'dep=test'
p1604
I222
sS'w+2=such'
p1605
I1045
sS'nsubj=McCain'
p1606
I388
sS'w-1=a'
p1607
I1129
sS'nsubjpass=which'
p1608
I537
sS'dobj=period'
p1609
I302
sS'w-2=so'
p1610
I1549
sS'dobj=checkpoint'
p1611
I259
sS'mark=as'
p1612
I342
sS'w-2=House'
p1613
I1314
sS'w-2=anti-terror'
p1614
I1355
sS'w+2=security'
p1615
I1024
sS'w+2=portion'
p1616
I1006
sS'w-2=Jr.'
p1617
I1319
sS'w-1=-rrb-'
p1618
I1091
sS'nsubj=measure'
p1619
I451
sS'xcomp=identical'
p1620
I1640
sS'nsubj=Act'
p1621
I368
sS'w+2=they'
p1622
I1058
sS'ccomp=leave'
p1623
I131
sS'w+2=then'
p1624
I1055
sS'w+2=torch'
p1625
I1067
sS'w-2=development'
p1626
I1402
sS'w+1=last'
p1627
I698
sS'w+2=cost'
p1628
I875
sS'dep=buy'
p1629
I206
sS'advcl=hold'
p1630
I17
sS'conj=move'
p1631
I177
sS'advmod=how'
p1632
I56
sS'w-2=Fidel'
p1633
I1311
sS'dobj=legislation'
p1634
I286
sS'w-2=poise'
p1635
I1511
sS'conj=sell'
p1636
I185
sS'w-2=post'
p1637
I1512
sS'w+1=after'
p1638
I630
sS'nsubj=student'
p1639
I493
sS'dobj=Act'
p1640
I234
sS'w-1=Eagle'
p1641
I1110
sS'w-1=we'
p1642
I1275
sS'xcomp=fund'
p1643
I1639
sS'w+2=October'
p1644
I816
sS'w+1=such'
p1645
I740
sS'advcl=travel'
p1646
I31
sS'w-1=get'
p1647
I1180
sS'w-2=Pakistanis'
p1648
I1327
sS'conj=acknowledge'
p1649
I148
sS'w-2=nonbinding'
p1650
I1491
sS'w+2=5'
p1651
I786
sS'w+2=.'
p1652
I773
sS'w+2=,'
p1653
I771
sS'w+2=constitution'
p1654
I870
sS'w-2=past'
p1655
I1505
sS'prep=near'
p1656
I577
sS'w+2=$'
p1657
I768
sS'tmod=legislation'
p1658
I604
sS'w-2=engineer'
p1659
I1417
sS'w-1=another'
p1660
I1140
sS'w+2=I'
p1661
I803
sS'w-2=constitution'
p1662
I1383
sS'w-1=what'
p1663
I1277
sS'prt=down'
p1664
I593
sS'w+1=but'
p1665
I651
sS'w-1=may'
p1666
I1203
sS'w-1=as'
p1667
I1141
sS'w+2=Senate'
p1668
I821
sS'w-2=NFL'
p1669
I1323
sS'prep=alongside'
p1670
I557
sS'w+2=a'
p1671
I829
sS'w-1=man'
p1672
I1202
sS'advmod=typically'
p1673
I83
ssS'dtype'
p1674
cnumpy
float64
p1675
sS'feature_names_'
p1676
(lp1677
g541
ag589
ag329
ag74
ag67
ag1486
ag451
ag1567
ag459
ag693
ag136
ag299
ag1254
ag877
ag85
ag1070
ag1041
ag1630
ag1528
ag1451
ag31
ag1117
ag1038
ag300
ag1201
ag307
ag195
ag1457
ag1299
ag267
ag1470
ag1646
ag1368
ag969
ag1402
ag1330
ag298
ag568
ag1478
ag261
ag742
ag659
ag1536
ag377
ag1554
ag441
ag1349
ag249
ag976
ag984
ag11
ag1060
ag1290
ag609
ag434
ag91
ag1632
ag958
ag1203
ag1214
ag439
ag171
ag1000
ag1501
ag1136
ag610
ag1163
ag1305
ag481
ag720
ag893
ag1197
ag717
ag470
ag716
ag22
ag1438
ag347
ag751
ag561
ag410
ag1122
ag1270
ag1673
ag475
ag985
ag100
ag897
ag932
ag1109
ag1264
ag923
ag1225
ag1052
ag226
ag315
ag666
ag628
ag778
ag1247
ag472
ag1120
ag1473
ag1251
ag443
ag1296
ag960
ag352
ag1222
ag1410
ag1320
ag994
ag627
ag1097
ag689
ag238
ag587
ag254
ag598
ag1271
ag559
ag1503
ag1252
ag1381
ag1405
ag1036
ag1372
ag1062
ag552
ag385
ag436
ag1623
ag934
ag144
ag1321
ag1462
ag965
ag1555
ag1172
ag316
ag488
ag59
ag981
ag180
ag793
ag1432
ag879
ag1207
ag1649
ag309
ag1425
ag1417
ag938
ag349
ag96
ag190
ag311
ag1155
ag1337
ag1091
ag1094
ag1020
ag1285
ag657
ag227
ag571
ag758
ag1537
ag1031
ag1518
ag1411
ag744
ag858
ag89
ag1077
ag553
ag1221
ag1631
ag871
ag1106
ag1384
ag645
ag1363
ag1101
ag551
ag1636
ag188
ag1572
ag1243
ag1168
ag713
ag576
ag663
ag1377
ag1300
ag827
ag406
ag1581
ag1308
ag203
ag993
ag809
ag842
ag162
ag187
ag24
ag1629
ag271
ag570
ag1196
ag631
ag683
ag1137
ag400
ag337
ag450
ag886
ag66
ag1226
ag933
ag225
ag370
ag1604
ag1397
ag1138
ag998
ag408
ag1433
ag1195
ag527
ag913
ag291
ag124
ag1067
ag1640
ag521
ag1351
ag432
ag566
ag954
ag393
ag60
ag680
ag1162
ag1578
ag320
ag474
ag357
ag147
ag1088
ag32
ag681
ag409
ag179
ag1344
ag478
ag477
ag648
ag1336
ag1611
ag159
ag1032
ag574
ag1010
ag707
ag212
ag1030
ag1392
ag1017
ag538
ag237
ag72
ag255
ag855
ag1023
ag1356
ag272
ag739
ag903
ag415
ag473
ag529
ag1176
ag413
ag822
ag584
ag1634
ag973
ag907
ag774
ag845
ag608
ag550
ag763
ag930
ag750
ag485
ag1246
ag677
ag1063
ag1531
ag947
ag1609
ag818
ag1480
ag723
ag495
ag789
ag1273
ag61
ag885
ag375
ag1333
ag407
ag1461
ag674
ag876
ag821
ag1171
ag1298
ag646
ag172
ag685
ag1495
ag951
ag1132
ag1522
ag1385
ag482
ag286
ag955
ag1193
ag165
ag151
ag34
ag120
ag590
ag1588
ag1427
ag506
ag304
ag264
ag1612
ag1295
ag1534
ag972
ag919
ag921
ag1260
ag364
ag785
ag1577
ag1523
ag224
ag769
ag397
ag1362
ag1276
ag346
ag840
ag241
ag265
ag632
ag1008
ag287
ag669
ag794
ag14
ag1621
ag467
ag137
ag1025
ag1373
ag1322
ag233
ag266
ag445
ag1071
ag676
ag1428
ag660
ag968
ag833
ag276
ag1005
ag670
ag103
ag1376
ag1606
ag1234
ag130
ag27
ag109
ag442
ag914
ag1395
ag542
ag549
ag1509
ag1504
ag139
ag209
ag560
ag634
ag729
ag1586
ag1568
ag1074
ag990
ag216
ag747
ag906
ag945
ag997
ag665
ag1595
ag368
ag741
ag1281
ag828
ag866
ag950
ag278
ag839
ag1502
ag411
ag1526
ag1014
ag782
ag1092
ag511
ag929
ag1558
ag946
ag588
ag1026
ag1284
ag1233
ag1398
ag1272
ag95
ag81
ag518
ag1016
ag1525
ag279
ag499
ag383
ag438
ag1292
ag1550
ag1619
ag355
ag115
ag396
ag1004
ag978
ag1383
ag39
ag1261
ag1039
ag294
ag772
ag208
ag690
ag1412
ag1217
ag1482
ag1364
ag873
ag992
ag1404
ag977
ag924
ag167
ag996
ag426
ag850
ag536
ag795
ag926
ag219
ag1083
ag156
ag1579
ag1181
ag736
ag880
ag84
ag1580
ag210
ag554
ag1429
ag1639
ag63
ag726
ag90
ag1166
ag268
ag618
ag1319
ag1318
ag248
ag942
ag230
ag1559
ag1135
ag73
ag453
ag1326
ag797
ag940
ag836
ag252
ag275
ag183
ag533
ag1287
ag567
ag853
ag909
ag1409
ag621
ag236
ag23
ag1538
ag138
ag1033
ag1263
ag1465
ag1253
ag671
ag82
ag1436
ag8
ag1180
ag555
ag1608
ag1500
ag718
ag572
ag635
ag1335
ag851
ag701
ag601
ag1093
ag1177
ag1393
ag181
ag290
ag471
ag149
ag1499
ag369
ag372
ag939
ag1670
ag1587
ag1585
ag658
ag1250
ag1466
ag1268
ag1286
ag425
ag1266
ag155
ag1238
ag1513
ag1278
ag1396
ag790
ag894
ag108
ag402
ag1121
ag1656
ag170
ag178
ag519
ag105
ag547
ag333
ag1596
ag489
ag1511
ag1073
ag429
ag1447
ag967
ag98
ag379
ag1664
ag792
ag1380
ag1446
ag259
ag1340
ag931
ag285
ag497
ag200
ag1574
ag1658
ag881
ag710
ag119
ag331
ag1388
ag804
ag1103
ag801
ag805
ag38
ag806
ag327
ag888
ag448
ag182
ag798
ag235
ag152
ag503
ag367
ag133
ag228
ag748
ag163
ag817
ag1638
ag696
ag591
ag1332
ag1309
ag957
ag1338
ag733
ag651
ag19
ag961
ag964
ag565
ag274
ag1419
ag1047
ag386
ag334
ag217
ag766
ag113
ag1665
ag1098
ag545
ag1424
ag1006
ag889
ag456
ag186
ag1089
ag516
ag1015
ag637
ag420
ag358
ag380
ag1191
ag366
ag414
ag350
ag1476
ag1255
ag848
ag253
ag831
ag1469
ag1156
ag484
ag768
ag480
ag1107
ag679
ag1515
ag281
ag1324
ag901
ag16
ag283
ag1133
ag1112
ag78
ag776
ag40
ag1011
ag1334
ag454
ag398
ag1053
ag1627
ag738
ag1125
ag515
ag752
ag757
ag786
ag1182
ag734
ag1065
ag675
ag1379
ag390
ag673
ag1275
ag49
ag523
ag53
ag844
ag55
ag392
ag1463
ag902
ag622
ag1256
ag1325
ag800
ag1431
ag1598
ag110
ag1468
ag1130
ag767
ag633
ag1557
ag1443
ag1562
ag76
ag166
ag17
ag835
ag620
ag1645
ag344
ag430
ag70
ag1378
ag1001
ag843
ag891
ag1157
ag892
ag1547
ag141
ag1199
ag602
ag509
ag1391
ag593
ag838
ag231
ag727
ag732
ag537
ag338
ag791
ag1175
ag735
ag256
ag841
ag1657
ag721
ag1516
ag1653
ag1140
ag1652
ag341
ag343
ag340
ag531
ag644
ag1358
ag1357
ag1361
ag487
ag1072
ag705
ag106
ag1651
ag808
ag607
ag384
ag293
ag606
ag1328
ag457
ag1599
ag1013
ag192
ag28
ag1211
ag760
ag1440
ag158
ag852
ag1661
ag667
ag941
ag1084
ag640
ag354
ag318
ag1367
ag895
ag1552
ag987
ag1129
ag1506
ag1644
ag704
ag887
ag1249
ag153
ag1668
ag1220
ag613
ag1051
ag114
ag661
ag520
ag787
ag1671
ag1374
ag1375
ag1057
ag662
ag112
ag1573
ag1282
ag1481
ag1208
ag1566
ag437
ag1403
ag1401
ag449
ag175
ag101
ag1316
ag143
ag1472
ag421
ag464
ag1510
ag714
ag148
ag615
ag405
ag13
ag1315
ag104
ag956
ag1069
ag1068
ag1386
ag1442
ag1492
ag603
ag775
ag1280
ag656
ag129
ag1654
ag126
ag1297
ag1170
ag875
ag1628
ag1408
ag1049
ag107
ag927
ag979
ag849
ag321
ag623
ag1035
ag250
ag916
ag128
ag412
ag625
ag1571
ag476
ag617
ag860
ag1219
ag1231
ag863
ag494
ag1048
ag36
ag490
ag1111
ag904
ag468
ag1235
ag1096
ag194
ag501
ag1009
ag1453
ag444
ag688
ag1037
ag174
ag583
ag356
ag1215
ag1455
ag1317
ag604
ag825
ag12
ag935
ag514
ag498
ag1044
ag462
ag378
ag184
ag512
ag1323
ag465
ag698
ag781
ag1564
ag592
ag75
ag1164
ag322
ag810
ag401
ag1153
ag1407
ag1445
ag1535
ag1545
ag1188
ag1087
ag289
ag524
ag1165
ag1496
ag1488
ag1116
ag1400
ag1204
ag963
ag288
ag922
ag1485
ag1029
ag1158
ag643
ag556
ag580
ag1079
ag239
ag854
ag544
ag1236
ag846
ag446
ag1533
ag404
ag56
ag232
ag422
ag1190
ag1527
ag198
ag1371
ag925
ag1259
ag1437
ag653
ag989
ag1439
ag1597
ag1099
ag1174
ag201
ag323
ag502
ag641
ag949
ag563
ag1186
ag647
ag548
ag1359
ag578
ag1487
ag30
ag1283
ag1422
ag1441
ag1616
ag328
ag218
ag1161
ag1228
ag1076
ag431
ag1061
ag102
ag313
ag1464
ag1314
ag424
ag127
ag1143
ag29
ag912
ag1239
ag1615
ag111
ag692
ag1056
ag1348
ag1310
ag116
ag33
ag1355
ag1490
ag1563
ag1054
ag1291
ag970
ag684
ag1366
ag1045
ag1205
ag1507
ag686
ag1114
ag1605
ag642
ag1602
ag952
ag577
ag639
ag878
ag1216
ag1145
ag1584
ag1624
ag1202
ag1343
ag1622
ag292
ag215
ag1390
ag619
ag530
ag145
ag1493
ag865
ag1625
ag382
ag504
ag1198
ag193
ag1454
ag626
ag1350
ag185
ag823
ag883
ag297
ag1352
ag508
ag1498
ag702
ag573
ag1421
ag335
ag597
ag995
ag1592
ag1591
ag507
ag1618
ag1590
ag937
ag1134
ag708
ag191
ag310
ag1169
ag160
ag526
ag830
ag1561
ag1189
ag1223
ag1144
ag1450
ag870
ag1475
ag245
ag1641
ag1312
ag1600
ag728
ag1018
ag655
ag777
ag1128
ag832
ag150
ag900
ag709
ag1483
ag1279
ag97
ag1301
ag579
ag1027
ag1346
ag1607
ag834
ag1085
ag360
ag381
ag1521
ag1187
ag691
ag959
ag1512
ag737
ag1660
ag1667
ag599
ag1289
ag695
ag314
ag874
ag1131
ag1288
ag974
ag815
ag1147
ag455
ag1524
ag64
ag1382
ag1095
ag197
ag1237
ag1448
ag991
ag719
ag586
ag348
ag308
ag161
ag1370
ag389
ag92
ag365
ag788
ag1028
ag373
ag513
ag596
ag44
ag1232
ag154
ag48
ag1311
ag1647
ag479
ag629
ag460
ag765
ag773
ag1230
ag911
ag915
ag387
ag819
ag1542
ag905
ag277
ag1460
ag280
ag982
ag1274
ag1353
ag575
ag1387
ag1539
ag1672
ag1666
ag611
ag1540
ag803
ag1150
ag87
ag1530
ag1570
ag1212
ag1543
ag312
ag199
ag1021
ag1242
ag1241
ag1151
ag1194
ag1244
ag1148
ag447
ag1339
ag1430
ag896
ag539
ag1416
ag339
ag581
ag363
ag1124
ag486
ag730
ag948
ag813
ag1080
ag493
ag1497
ag9
ag864
ag980
ag1452
ag325
ag88
ag71
ag783
ag273
ag45
ag51
ag856
ag1149
ag687
ag867
ag762
ag240
ag820
ag917
ag483
ag361
ag1505
ag118
ag1551
ag1200
ag759
ag884
ag1294
ag1556
ag569
ag1210
ag668
ag1576
ag562
ag1024
ag440
ag1642
ag1100
ag1663
ag1307
ag722
ag35
ag54
ag296
ag1494
ag837
ag703
ag564
ag65
ag749
ag1022
ag1040
ag743
ag1423
ag745
ag1113
ag242
ag52
ag1341
ag1426
ag764
ag58
ag1086
ag1192
ag1471
ag1267
ag1104
ag857
ag433
ag423
ag1012
ag1078
ag1633
ag146
ag1213
ag1613
ag1152
ag755
ag816
ag1365
ag1617
ag1327
ag496
ag1532
ag1669
ag1514
ag1209
ag1601
ag1648
ag1042
ag532
ag1141
ag557
ag918
ag461
ag754
ag1345
ag125
ag1549
ag1603
ag121
ag582
ag761
ag953
ag558
ag1449
ag1360
ag1102
ag46
ag600
ag1304
ag694
ag374
ag1444
ag326
ag962
ag1614
ag869
ag1184
ag196
ag1541
ag522
ag1544
ag43
ag416
ag1123
ag207
ag528
ag1589
ag920
ag394
ag260
ag861
ag779
ag189
ag928
ag771
ag500
ag10
ag664
ag1118
ag966
ag594
ag616
ag1662
ag204
ag57
ag1082
ag262
ag435
ag724
ag353
ag1269
ag1569
ag697
ag872
ag605
ag1389
ag654
ag303
ag756
ag131
ag223
ag1626
ag630
ag1245
ag395
ag263
ag740
ag1484
ag780
ag157
ag80
ag1519
ag650
ag711
ag1560
ag1313
ag1659
ag1159
ag222
ag1218
ag1050
ag1458
ag1139
ag220
ag99
ag614
ag890
ag983
ag847
ag1055
ag399
ag540
ag173
ag824
ag543
ag391
ag1146
ag205
ag908
ag1154
ag682
ag270
ag332
ag814
ag1459
ag868
ag140
ag1258
ag243
ag1329
ag1105
ag302
ag244
ag295
ag169
ag221
ag1173
ag1491
ag247
ag975
ag988
ag796
ag999
ag725
ag492
ag1058
ag123
ag246
ag282
ag1354
ag770
ag1081
ag206
ag1206
ag1418
ag1224
ag362
ag257
ag1553
ag1414
ag211
ag510
ag1435
ag862
ag258
ag1002
ag700
ag812
ag20
ag18
ag1650
ag1178
ag1007
ag943
ag15
ag944
ag330
ag62
ag910
ag86
ag351
ag37
ag1227
ag251
ag1655
ag234
ag826
ag525
ag712
ag649
ag1635
ag1637
ag859
ag517
ag1043
ag638
ag93
ag1474
ag301
ag469
ag1582
ag1115
ag1394
ag359
ag79
ag317
ag652
ag898
ag1415
ag534
ag142
ag376
ag69
ag1293
ag94
ag403
ag418
ag753
ag1583
ag1119
ag1520
ag1108
ag342
ag1229
ag1075
ag1127
ag168
ag427
ag1610
ag26
ag1019
ag50
ag1467
ag1342
ag746
ag1003
ag122
ag624
ag595
ag1479
ag306
ag452
ag811
ag986
ag546
ag1142
ag1548
ag68
ag1064
ag1034
ag1126
ag1265
ag784
ag177
ag936
ag42
ag324
ag1399
ag1185
ag535
ag1456
ag1110
ag731
ag636
ag1183
ag1257
ag505
ag336
ag1248
ag176
ag1369
ag284
ag41
ag1434
ag1160
ag491
ag1277
ag1565
ag388
ag417
ag466
ag458
ag1517
ag1059
ag1179
ag47
ag706
ag1167
ag132
ag229
ag1508
ag799
ag213
ag371
ag77
ag882
ag678
ag319
ag1420
ag1240
ag971
ag21
ag1262
ag1546
ag134
ag1306
ag1477
ag1575
ag1347
ag715
ag585
ag1046
ag802
ag699
ag612
ag269
ag345
ag83
ag1643
ag1620
ag117
ag1331
ag1594
ag1303
ag305
ag25
ag202
ag214
ag1406
ag135
ag899
ag1066
ag164
ag419
ag1413
ag1529
ag1302
ag1090
ag1593
ag463
ag1489
ag807
ag672
ag829
ag428
asS'separator'
p1678
S'='
sS'sparse'
p1679
I01
sb.