ccopy_reg
_reconstructor
p1
(csklearn.feature_extraction.dict_vectorizer
DictVectorizer
p2
c__builtin__
object
p3
NtRp4
(dp5
S'vocabulary_'
p6
(dp7
S'xcomp=ask'
p8
I1512
sS'nsubj=Kerry'
p9
I393
sS'w-2=whom'
p10
I1499
sS'w+2=World'
p11
I785
sS'dobj=percent'
p12
I292
sS'nsubjpass=unstoppable'
p13
I520
sS'w-2=Friday'
p14
I1228
sS'dobj=darkness'
p15
I255
sS'w+2=but'
p16
I819
sS'dobj=collection'
p17
I250
sS'w-1=Paisley'
p18
I1055
sS'w+1=whatever'
p19
I718
sS'w-2=happy'
p20
I1363
sS'conj=modify'
p21
I168
sS'nsubj=Ashley'
p22
I358
sS'w-2=need'
p23
I1405
sS'nsubj=business'
p24
I440
sS'acomp=want'
p25
I0
sS'conj=call'
p26
I143
sS'advcl=meet'
p27
I15
sS'nsubj=columnist'
p28
I442
sS'dobj=thesis'
p29
I326
sS'nsubj=Zimbabweans'
p30
I437
sS'nsubjpass=software'
p31
I512
sS'w+2=beautiful'
p32
I808
sS'w+2=whether'
p33
I996
sS'prep=upon'
p34
I560
sS'w-2=Cher'
p35
I1219
sS'w-1=will'
p36
I1186
sS'w-1=composer'
p37
I1095
sS'w+1=-lrb-'
p38
I585
sS'w-1=author'
p39
I1082
sS'w-1=staff'
p40
I1169
sS'nsubj=delegate'
p41
I446
sS'dobj=assessment'
p42
I242
sS'w+1=she'
p43
I687
sS'w-2=time'
p44
I1471
sS'w+2=Chechnya'
p45
I742
sS'w-2=where'
p46
I1496
sS'xcomp=praise'
p47
I1521
sS'advmod=mostly'
p48
I54
sS'nsubj=#PRP#'
p49
I353
sS'w+2=blood'
p50
I815
sS'w-2=who'
p51
I1498
sS'w+1=of'
p52
I667
sS'w-2=2005'
p53
I1200
sS'w+1=on'
p54
I669
sS'w+2=cause'
p55
I822
sS'dobj=expression'
p56
I263
sS'w+2=memory'
p57
I910
sS'w+1=or'
p58
I671
sS'w-1=some'
p59
I1167
sS'ccomp=say'
p60
I125
sS'dep=nostalgic'
p61
I215
sS'nsubj=Marx'
p62
I399
sS'nsubj=publisher'
p63
I477
sS'w+2=identity'
p64
I880
sS'nsubj=Griffith'
p65
I381
sS'w-2=write'
p66
I1507
sS'nsubj=Bela'
p67
I363
sS'prep=around'
p68
I538
sS'w+1=two'
p69
I712
sS'w-1=you'
p70
I1191
sS'xcomp=recommend'
p71
I1525
sS'dep=over'
p72
I217
sS'advcl=be'
p73
I2
sS'w-2=report'
p74
I1440
sS'w-2=that'
p75
I1463
sS'w+1=the'
p76
I704
sS'w+2=-rrb-'
p77
I729
sS'nsubj=West'
p78
I434
sS'w-1=already'
p79
I1077
sS'w-2=number'
p80
I1410
sS'w+1=something'
p81
I694
sS'w-2=record'
p82
I1438
sS'w+1=plenty'
p83
I675
sS'w-2=afterword'
p84
I1294
sS'w-2=columnist'
p85
I1325
sS'ccomp=blame'
p86
I97
sS'w+2=record'
p87
I943
sS'w-2=she'
p88
I1445
sS'dobj=work'
p89
I335
sS'dobj=word'
p90
I334
sS'w+1=child'
p91
I618
sS'w-1=mother'
p92
I1136
sS'nsubj=member'
p93
I464
sS'mark=by'
p94
I343
sS'w-1=should'
p95
I1166
sS'nsubj=that'
p96
I482
sS'conj=hang'
p97
I158
sS'advmod=here'
p98
I46
sS'conj=grow'
p99
I157
sS'xcomp=divide'
p100
I1515
sS'ccomp=send'
p101
I126
sS'w+2=since'
p102
I958
sS'conj=be'
p103
I142
sS'nsubj=Mueller'
p104
I409
sS'aux=could'
p105
I79
sS'w-2=Jose'
p106
I1243
sS'w-1=Zimbabweans'
p107
I1072
sS'nsubj=Adi'
p108
I355
sS'advmod=where'
p109
I74
sS'dobj=script'
p110
I308
sS'w-2=agree'
p111
I1296
sS'w+2=former'
p112
I864
sS'w+2=when'
p113
I995
sS'w+2=call'
p114
I821
sS'w-1=like'
p115
I1129
sS'w+2=Kathy'
p116
I760
sS'prep=include'
p117
I551
sS'w+1=both'
p118
I614
sS'conj=ask'
p119
I139
sS'w+2=politically'
p120
I935
sS'w-1=to'
p121
I1179
sS'advmod=especially'
p122
I40
sS'xcomp=force'
p123
I1516
sS'dobj=#PRP#'
p124
I225
sS'w-2=do'
p125
I1345
sS'w+1=you'
p126
I725
sS'w-2=everything'
p127
I1350
sS'w+2=Huckleberry'
p128
I754
sS'advmod=simply'
p129
I63
sS'nsubj=singer'
p130
I479
sS'w-2=legislature'
p131
I1386
sS'advmod=extensively'
p132
I43
sS'w-1=actually'
p133
I1075
sS'w-2=Mueller'
p134
I1259
sS'nsubj=company'
p135
I443
sS'w+1=he'
p136
I645
sS'w-2=song'
p137
I1449
sS'w+2=all'
p138
I794
sS'nsubjpass=nothing'
p139
I507
sS'w-1=song'
p140
I1168
sS'prt=about'
p141
I563
sS'w+1=postcard'
p142
I677
sS'w+2=late'
p143
I888
sS'nsubjpass=vietnamese'
p144
I521
sS'w+2=wish'
p145
I999
sS'conj=positively'
p146
I174
sS'w-2=Economics'
p147
I1225
sS'ccomp=make'
p148
I116
sS'dobj=majority'
p149
I278
sS'xcomp=say'
p150
I1526
sS'nsubjpass=approach'
p151
I497
sS'w-1=Arabic'
p152
I1014
sS'w-1=Writers'
p153
I1071
sS'conj=lecture'
p154
I165
sS'w+2=J.K.'
p155
I758
sS'prep=despite'
p156
I545
sS'conj=live'
p157
I167
sS'w-1=e-mail'
p158
I1104
sS'dobj=handbook'
p159
I269
sS'dep=belong'
p160
I205
sS'w-1=each'
p161
I1105
sS'w-2=approach'
p162
I1306
sS'w+2=melancholy'
p163
I907
sS'nsubj=president'
p164
I476
sS'nsubj=physician'
p165
I475
sS'w+2=love'
p166
I900
sS'w-2=ballot'
p167
I1314
sS'w+2=follow'
p168
I860
sS'w+2=separate'
p169
I955
sS'w-2=negotiator'
p170
I1406
sS'dobj=something'
p171
I316
sS'advcl=#NUMBER#'
p172
I1
sS'w+1=Syria'
p173
I598
sS'w+1=credit'
p174
I623
sS'w-2=unstoppable'
p175
I1481
sS'conj=write'
p176
I199
sS'conj=feel'
p177
I154
sS'nsubj=year'
p178
I488
sS'nsubjpass=book'
p179
I498
sS'w+2=french'
p180
I865
sS'w-1=Davidson'
p181
I1029
sS'w+2=Thursday'
p182
I778
sS'w+2=say'
p183
I950
sS'w+2=high'
p184
I873
sS'w-1=Alan'
p185
I1012
sS'w-1=myself'
p186
I1140
sS'w-2=you'
p187
I1508
sS'w-1=never'
p188
I1142
sS'w-2=young'
p189
I1509
sS'rel=that'
p190
I571
sS'w-2=go'
p191
I1359
sS'w+1=show'
p192
I689
sS'xcomp=House'
p193
I1510
sS'w+2=JAMA'
p194
I759
sS'conj=elect'
p195
I152
sS'partmod=sincecome'
p196
I531
sS'w-1=Vanguard'
p197
I1067
sS'w-2=would'
p198
I1506
sS'w-1=cable'
p199
I1089
sS'nsubj=engineer'
p200
I450
sS'ccomp=threaten'
p201
I130
sS'nsubj=Allen'
p202
I357
sS'w+2=Egyptians'
p203
I745
sS'dobj=report'
p204
I304
sS'dobj=wish'
p205
I333
sS'w-1=Grisman'
p206
I1032
sS'w+2=report'
p207
I945
sS'w+1=false'
p208
I637
sS'w+2=she'
p209
I957
sS'nsubj=Ralston'
p210
I419
sS'w-2=expect'
p211
I1352
sS'w-2=detainee'
p212
I1340
sS'mark=while'
p213
I349
sS'dep=so'
p214
I218
sS'w-1=Vietnamese'
p215
I1068
sS'w+2=folk'
p216
I859
sS'w-2=with'
p217
I1504
sS'w-2=also'
p218
I1300
sS'dobj=tome'
p219
I328
sS'w+2=new'
p220
I914
sS'nsubj=Castro'
p221
I371
sS'w+1=under'
p222
I713
sS'dep=the'
p223
I220
sS'cc=or'
p224
I91
sS'nsubj=newspaper'
p225
I470
sS'w+1=well'
p226
I716
sS'w-2=troops'
p227
I1476
sS'w-2=exchange'
p228
I1351
sS'w-2=why'
p229
I1500
sS'w+2=majority'
p230
I902
sS'w-2=journalist'
p231
I1380
sS'w+1=hopefully'
p232
I649
sS'conj=publish'
p233
I177
sS'w-2=in'
p234
I1373
sS'w-2=analyst'
p235
I1303
sS'w+2=password'
p236
I929
sS'w-2=it'
p237
I1378
sS'nsubj=everybody'
p238
I451
sS'w-2=Salzman'
p239
I1275
sS'nsubj=Miller'
p240
I404
sS'advmod=down'
p241
I36
sS'w-2=six-page'
p242
I1446
sS'dobj=Gear'
p243
I231
sS'nsubj=England'
p244
I378
sS'w+2=letter'
p245
I896
sS'w-2=agreement'
p246
I1297
sS'mark=although'
p247
I339
sS'w+1=article'
p248
I606
sS'w-2=screenplay'
p249
I1444
sS'ccomp=destine'
p250
I104
sS'w-1=Saddam'
p251
I1061
sS'w+2=ask'
p252
I802
sS'advmod=why'
p253
I75
sS'w-2=have'
p254
I1365
sS'nsubj=colleague'
p255
I441
sS'w+1=will'
p256
I720
sS'w+2=develop'
p257
I835
sS'w+1=propose'
p258
I680
sS'w-2=some'
p259
I1448
sS'w+2=matter'
p260
I906
sS'w+1=in'
p261
I650
sS'w+1=it'
p262
I653
sS'w+1=posititvely'
p263
I676
sS'w+2=commission'
p264
I828
sS'w+1=about'
p265
I601
sS'w+2=light-hearted'
p266
I897
sS'w+2=critical'
p267
I832
sS'dobj=#NUMBER#'
p268
I224
sS'w+2=third'
p269
I983
sS'conj=vernacular'
p270
I196
sS'conj=provide'
p271
I176
sS'advmod=all'
p272
I28
sS'w-2=like'
p273
I1389
sS'w-2=tour'
p274
I1474
sS'w-2=mandate'
p275
I1396
sS'w+1=instrument'
p276
I651
sS'nsubjpass=what'
p277
I522
sS'w-2=teach'
p278
I1461
sS'w-2=malaria'
p279
I1394
sS'nsubj=NationalCommission'
p280
I413
sS'w-1=group'
p281
I1116
sS'w-1=letter'
p282
I1128
sS'w-2=understand'
p283
I1480
sS'nsubj=Ray'
p284
I420
sS'w+1=letter'
p285
I657
sS'mark=after'
p286
I338
sS'w-1=Barroso'
p287
I1017
sS'w-1=Rights'
p288
I1060
sS'w-1=do'
p289
I1102
sS'ccomp=isolate'
p290
I112
sS'dobj=narrative'
p291
I286
sS'w+2=great'
p292
I868
sS'w+2=difference'
p293
I836
sS'prep=compare'
p294
I544
sS'nsubj=Davidson'
p295
I376
sS'ccomp=resume'
p296
I124
sS'w-2=honor'
p297
I1370
sS'nsubjpass=draft'
p298
I501
sS'w-2=what'
p299
I1494
sS'w-2=password'
p300
I1421
sS'dobj=States'
p301
I235
sS'dep=be'
p302
I204
sS'w+2=each'
p303
I843
sS'advmod=posititvely'
p304
I60
sS'purpcl=keep'
p305
I569
sS'w-2=to'
p306
I1472
sS'conj=record'
p307
I179
sS'w-2=and'
p308
I1304
sS'w-1=chick'
p309
I1092
sS'w-2=article'
p310
I1308
sS'w-2=one'
p311
I1416
sS'w+1=e-mail'
p312
I629
sS'tmod=time'
p313
I576
sS'w-2=he'
p314
I1366
sS'w+1=begin'
p315
I611
sS'w-2=all'
p316
I1299
sS'w-1=University'
p317
I1066
sS'w-1=keep'
p318
I1127
sS'w+2=co-write'
p319
I826
sS'w-1=and'
p320
I1080
sS'w+1=what'
p321
I717
sS'nsubj=Miller-Muro'
p322
I405
sS'nsubj=Hicks'
p323
I386
sS'w-1=prayer'
p324
I1155
sS'w+2=12'
p325
I731
sS'ccomp=let'
p326
I114
sS'w+1=so'
p327
I691
sS'w-2=book'
p328
I1319
sS'w+2=foreign'
p329
I862
sS'xcomp=nominate'
p330
I1520
sS'aux=should'
p331
I84
sS'w-2=council'
p332
I1332
sS'w-1=then'
p333
I1177
sS'w+1=down'
p334
I627
sS'w-2=recent'
p335
I1437
sS'w-1=they'
p336
I1178
sS'nsubj=Clarkson'
p337
I374
sS'w+2=track'
p338
I989
sS'w+1=notification'
p339
I665
sS'advcl=history'
p340
I10
sS'w-2=very'
p341
I1485
sS'nsubjpass=word'
p342
I525
sS'w+2=urge'
p343
I991
sS'nsubj=Cher'
p344
I373
sS'w-2=issue'
p345
I1377
sS'prep=after'
p346
I536
sS'advcl=engagement'
p347
I4
sS'w-2=although'
p348
I1301
sS'advmod=but'
p349
I34
sS'w+2=other'
p350
I924
sS'advcl=escape'
p351
I5
sS'w+1=before'
p352
I610
sS'w-2=Boston'
p353
I1214
sS'w-1=enjoy'
p354
I1107
sS'w-1=lyric'
p355
I1131
sS'nsubj=Farina'
p356
I379
sS'xcomp=urge'
p357
I1531
sS'w+1=permit'
p358
I674
sS'w-2=give'
p359
I1358
sS'w-2=can'
p360
I1322
sS'nsubj=musiclennon'
p361
I469
sS'neg=not'
p362
I351
sS'w+1=comment'
p363
I620
sS'xcomp=accuse'
p364
I1511
sS'w+2=essay'
p365
I846
sS'w-2=training'
p366
I1475
sS'w+1=early'
p367
I630
sS'nsubjpass=afterword'
p368
I495
sS'w+2=business'
p369
I818
sS'w+2=education'
p370
I845
sS'dobj=resolution'
p371
I305
sS'conj=understand'
p372
I195
sS'w-2=read'
p373
I1434
sS'w-1=novel'
p374
I1146
sS'advmod=then'
p375
I68
sS'nsubj=Stone'
p376
I427
sS'dobj=that'
p377
I324
sS'w-1=question'
p378
I1159
sS'dobj=charter'
p379
I247
sS'w-2=Kelly'
p380
I1245
sS'w-1=Kristian'
p381
I1043
sS'w-2=Muhammad'
p382
I1260
sS'w-2=obsolete'
p383
I1412
sS'w-2=1960'
p384
I1199
sS'w-2=Pham'
p385
I1268
sS'parataxis=common'
p386
I528
sS'w+2=belong'
p387
I810
sS'ccomp=share'
p388
I128
sS'w-1=Bergman'
p389
I1018
sS'dobj=Mondale'
p390
I234
sS'w+1=that'
p391
I703
sS'w-2=not'
p392
I1408
sS'w-1=turn'
p393
I1180
sS'xcomp=score'
p394
I1527
sS'w-1=say'
p395
I1162
sS'w+2=base'
p396
I805
sS'advmod=so'
p397
I64
sS'w+2=peace'
p398
I930
sS'advmod=just'
p399
I50
sS'dobj=code'
p400
I249
sS'w+2=night'
p401
I916
sS'aux=may'
p402
I82
sS'w+2=stage'
p403
I970
sS'nsubjpass=rule'
p404
I510
sS'w+2=hopeful'
p405
I877
sS'w+2=English'
p406
I746
sS'w+2=screenplay'
p407
I952
sS'w-2=the'
p408
I1464
sS'xcomp=compare'
p409
I1514
sS'advcl=leave'
p410
I13
sS'w-2=Jacob'
p411
I1238
sS'w+1=just'
p412
I654
sS'w+1=extensively'
p413
I636
sS'w-2=answer'
p414
I1305
sS'mark=unless'
p415
I347
sS'nsubj=more'
p416
I466
sS'w+2=first'
p417
I858
sS'w+2=broadcast'
p418
I817
sS'w+2=so-called'
p419
I964
sS'w-1=have'
p420
I1117
sS'nsubj=Coulibaly'
p421
I375
sS'w-1=text'
p422
I1173
sS'w+2=it'
p423
I884
sS'w+2=perform'
p424
I931
sS'w+2=Cross'
p425
I744
sS'w-1=document'
p426
I1103
sS'dep=cap'
p427
I208
sS'w+2=Bush'
p428
I739
sS'prep=about'
p429
I533
sS'aux=can'
p430
I78
sS'w+1=Mondale'
p431
I595
sS'w+1=testimony'
p432
I702
sS'dep=lecture'
p433
I214
sS'w-2=e-mailing'
p434
I1348
sS'w-1=Miller'
p435
I1050
sS'w+2=take'
p436
I976
sS'w+2=produce'
p437
I936
sS'nsubj=Salzman'
p438
I422
sS'advmod=only'
p439
I58
sS'w+1=for'
p440
I639
sS'w-2=McMurtry'
p441
I1255
sS'w-1=deny'
p442
I1101
sS'prep=to'
p443
I559
sS'w+1=music'
p444
I663
sS'nsubj=doj'
p445
I448
sS'nsubj=Nancy'
p446
I412
sS'dobj=article'
p447
I240
sS'w-2=meeting'
p448
I1400
sS'w-1=still'
p449
I1171
sS'w+2=even'
p450
I848
sS'w+2=Lambert'
p451
I763
sS'dobj=plan'
p452
I295
sS'dobj=guide'
p453
I268
sS'dobj=somebody'
p454
I314
sS'w+2=how'
p455
I878
sS'w+1=Ehud'
p456
I592
sS'dobj=play'
p457
I296
sS'w+2=resume'
p458
I947
sS'w+2=for'
p459
I861
sS'conj=decorate'
p460
I149
sS'w+1=extensive'
p461
I635
sS'dobj=which'
p462
I332
sS'w+2=we'
p463
I992
sS'advmod=apart'
p464
I32
sS'nsubj=day'
p465
I445
sS'w-2=comic'
p466
I1327
sS'w-2=O.'
p467
I1265
sS'w+1=day'
p468
I625
sS'dobj=Democrats'
p469
I228
sS'w+2=decorate'
p470
I834
sS'w+1=off'
p471
I668
sS'ccomp=harm'
p472
I111
sS'w+2=latest'
p473
I889
sS'w+2=too'
p474
I988
sS'w-2=Anthony'
p475
I1207
sS'w+2=someone'
p476
I966
sS'w-1=citizen'
p477
I1093
sS'conj=assist'
p478
I140
sS'w-2=story'
p479
I1452
sS'rel=in'
p480
I570
sS'w+2=publish'
p481
I938
sS'w+1=word'
p482
I723
sS'advmod=specifically'
p483
I65
sS'ccomp=remember'
p484
I123
sS'w+2=Trans-Saharan'
p485
I779
sS'w-1=England'
p486
I1030
sS'nsubjpass=much'
p487
I506
sS'advcl=diagnose'
p488
I3
sS'w+2=here'
p489
I872
sS'conj=read'
p490
I178
sS'w+1=short'
p491
I688
sS'xcomp=put'
p492
I1522
sS'w+2=Carrie'
p493
I741
sS'w+1=call'
p494
I616
sS'w-2=take'
p495
I1458
sS'w-1=McMurtry'
p496
I1049
sS'conj=give'
p497
I156
sS'w-2=Jesse'
p498
I1241
sS'iobj=workplace'
p499
I337
sS'nsubjpass=that'
p500
I517
sS'dobj=plenty'
p501
I297
sS'dobj=password'
p502
I291
sS'w+2=famous'
p503
I851
sS'nsubjpass=account'
p504
I494
sS'w-2=able'
p505
I1291
sS'ccomp=be'
p506
I96
sS'xcomp=get'
p507
I1517
sS'w-1=with'
p508
I1187
sS'w+1=30'
p509
I589
sS'w+2=own'
p510
I925
sS'nsubj=minister'
p511
I465
sS'w-2=blank'
p512
I1317
sS'ccomp=condemn'
p513
I101
sS'w+2=tale'
p514
I977
sS'nsubj=Carrie'
p515
I370
sS'w+1=--'
p516
I584
sS'w+2=statement'
p517
I971
sS'w+1=trash'
p518
I711
sS'w-1=send'
p519
I1163
sS'w-2=Billy'
p520
I1213
sS'conj=think'
p521
I192
sS'dobj=foreword'
p522
I266
sS'dobj=maker'
p523
I279
sS'dep=wait'
p524
I222
sS'w-2=composer'
p525
I1329
sS'nsubj=group'
p526
I456
sS'w-2=meaningful'
p527
I1398
sS'advmod=already'
p528
I29
sS'w-2=Svitak'
p529
I1283
sS'nsubj=gold'
p530
I454
sS'dobj=lot'
p531
I276
sS'nsubj=Capra'
p532
I369
sS'w+2=year'
p533
I1006
sS'w-1=McClellan'
p534
I1048
sS'conj=song'
p535
I184
sS'conj=paint'
p536
I170
sS'nsubj=McMurtry'
p537
I403
sS'conj=sing'
p538
I183
sS'w-2=after'
p539
I1293
sS'w+1=to'
p540
I709
sS'w-2=keep'
p541
I1382
sS'w-2=fiction'
p542
I1355
sS'advmod=matter'
p543
I53
sS'nsubj=Moore'
p544
I408
sS'w+2=he'
p545
I870
sS'w-2=David'
p546
I1223
sS'w-2=struggle'
p547
I1454
sS'w+2=somebody'
p548
I965
sS'ccomp=lose'
p549
I115
sS'w+1=papers'
p550
I673
sS'advcl=song'
p551
I21
sS'dep=steal'
p552
I219
sS'conj=have'
p553
I160
sS'w-2=first'
p554
I1356
sS'advmod=realistically'
p555
I61
sS'nsubj=maker'
p556
I461
sS'dobj=Finn'
p557
I230
sS'partmod=ask'
p558
I529
sS'conj=play'
p559
I173
sS"w-1='ll"
p560
I1008
sS'nsubjpass=legislation'
p561
I504
sS'conj=plan'
p562
I172
sS'w+1=story'
p563
I700
sS'tmod=#NUMBER#'
p564
I572
sS'w+2=doctoral'
p565
I840
sS'tmod=day'
p566
I573
sS'nsubj=Barone'
p567
I360
sS'nsubjpass=Korans'
p568
I492
sS'w+2=sentence'
p569
I954
sS'w+1=software'
p570
I692
sS'w+2=Stephen'
p571
I777
sS'w-2=Barone'
p572
I1212
sS'conj=target'
p573
I191
sS'w+2=biography'
p574
I812
sS'advmod=there'
p575
I69
sS'w-1=always'
p576
I1079
sS'w+2=1976'
p577
I732
sS'dobj=home'
p578
I272
sS'w-2=AnalysisJohn'
p579
I1206
sS'w-2=Paul'
p580
I1267
sS'w-2=letter'
p581
I1387
sS'dep=law'
p582
I213
sS'w+2=many'
p583
I905
sS'nsubj=movie'
p584
I468
sS'w-1=article'
p585
I1081
sS'w-2=play'
p586
I1427
sS'w-2=Reading'
p587
I1271
sS'w-2=plan'
p588
I1426
sS'w+2=Ghanem'
p589
I751
sS'w+2=off'
p590
I919
sS'w-2=day'
p591
I1334
sS'w-2=National'
p592
I1261
sS'w-1=computer'
p593
I1097
sS'dobj=problem'
p594
I301
sS'ccomp=try'
p595
I132
sS'w+2=down'
p596
I841
sS'w+1=stop'
p597
I699
sS'w-2=come'
p598
I1326
sS'w-2=instrument'
p599
I1376
sS'w+2=stone'
p600
I972
sS'w+2=advance'
p601
I791
sS'w-1=originally'
p602
I1153
sS'w+1=realistically'
p603
I683
sS'nsubj=T-Pain'
p604
I428
sS'nsubj=Snyder'
p605
I425
sS'w+1=may'
p606
I660
sS'w+1=hit'
p607
I647
sS'nsubjpass=who'
p608
I524
sS'advmod=currently'
p609
I35
sS'nsubj=Democrats'
p610
I377
sS'w-2=ask'
p611
I1310
sS'w-2=visit'
p612
I1488
sS'aux=to'
p613
I85
sS'w+2=maker'
p614
I904
sS'nsubj=Sarkozy'
p615
I423
sS'conj=unable'
p616
I194
sS'w-2=peace'
p617
I1422
sS'conj=suggest'
p618
I190
sS'advcl=see'
p619
I19
sS'conj=stick'
p620
I187
sS'advmod=early'
p621
I38
sS'w+2=Travis'
p622
I780
sS'w-1=textbook'
p623
I1174
sS'cc=but'
p624
I90
sS'w+2=fill'
p625
I855
sS'w+2=film'
p626
I856
sS'xcomp=make'
p627
I1519
sS'w-1=help'
p628
I1119
sS'w-2=feel'
p629
I1354
sS'dobj=music'
p630
I284
sS'w+1=today'
p631
I710
sS'w-2=my'
p632
I1402
sS'w+2=which'
p633
I997
sS'w-2=obsess'
p634
I1411
sS'w-2=demand'
p635
I1337
sS'w+2=compare'
p636
I829
sS'nsubj=man'
p637
I462
sS'w+1=go'
p638
I643
sS'w+1=urgent'
p639
I715
sS'prep=accord'
p640
I534
sS'conj=kind'
p641
I164
sS'w-1=Clarkson'
p642
I1027
sS'nsubj=Abuza'
p643
I354
sS'w-2=wait'
p644
I1489
sS'w+1=history'
p645
I646
sS'w+1=out'
p646
I672
sS'advmod=recently'
p647
I62
sS'nsubj=Howe'
p648
I387
sS'dep=about'
p649
I201
sS'w-2=hard'
p650
I1364
sS'w-2=Leclair'
p651
I1250
sS'w-1=Coulibaly'
p652
I1028
sS'w-2=hold'
p653
I1369
sS'prep=base'
p654
I541
sS'w-1=who'
p655
I1185
sS'ccomp=bode'
p656
I98
sS'w-2=could'
p657
I1331
sS'w-2=innovation'
p658
I1374
sS'dobj=document'
p659
I258
sS'w-2=Hezbollah'
p660
I1232
sS'w+1=up'
p661
I714
sS'w-1=start'
p662
I1170
sS'nsubj=Lincoln'
p663
I396
sS'prep=across'
p664
I535
sS'w+2=America'
p665
I736
sS'w-2=try'
p666
I1477
sS'w-2=express'
p667
I1353
sS'w-2=literacy'
p668
I1390
sS'advcl=something'
p669
I20
sS'w+1=statement'
p670
I698
sS'w+1=more'
p671
I661
sS'w-2=Premonition'
p672
I1269
sS'w+1=with'
p673
I721
sS'nsubjpass=tuberculosis'
p674
I519
sS'w-1=Carrie'
p675
I1023
sS'w-2=,'
p676
I1193
sS'conj=include'
p677
I162
sS'w-2=.'
p678
I1197
sS'w-2=Jakarta'
p679
I1239
sS'aux=have'
p680
I81
sS'w+2=joint'
p681
I886
sS'w+2=Iran'
p682
I757
sS'w-2=thing'
p683
I1469
sS'w+1=speech'
p684
I697
sS'w-2=I'
p685
I1237
sS'w+2=United'
p686
I782
sS'w-2=woman'
p687
I1505
sS'w+1=specifically'
p688
I696
sS'w-2=decision'
p689
I1335
sS'nsubj=Kennedy'
p690
I391
sS'nsubjpass=solution'
p691
I513
sS'w+2=Wednesday'
p692
I784
sS'w-1=Ray'
p693
I1058
sS'nsubj=detainee'
p694
I447
sS'w+2=Friday'
p695
I749
sS'w-2=a'
p696
I1289
sS'w+2=check'
p697
I824
sS'w+2=memo'
p698
I908
sS'w+2=program'
p699
I937
sS'dobj=Bush'
p700
I227
sS'dep=off'
p701
I216
sS'w-2=table'
p702
I1457
sS'w-2=make'
p703
I1392
sS'dobj=album'
p704
I238
sS'w+2=novel'
p705
I917
sS'w-1=he'
p706
I1118
sS'w+1=many'
p707
I659
sS'w-2=tune'
p708
I1478
sS'w+1=anything'
p709
I605
sS'w+1=from'
p710
I642
sS'neg=never'
p711
I350
sS'nsubj=Bergman'
p712
I364
sS'nsubj=Phares'
p713
I418
sS'dobj=novel'
p714
I287
sS'w+2=fashion'
p715
I852
sS'w-2=maker'
p716
I1393
sS'ccomp=do'
p717
I106
sS'w-1=Henry'
p718
I1034
sS'w-1=book'
p719
I1086
sS'w+2=need'
p720
I913
sS'dobj=book'
p721
I245
sS'w-2=Novostei'
p722
I1264
sS'conj=release'
p723
I180
sS'w-2=this'
p724
I1470
sS'mark=since'
p725
I346
sS'w-1=ever'
p726
I1110
sS'w-1=even'
p727
I1109
sS'nsubjpass=testimony'
p728
I516
sS'prep=from'
p729
I549
sS'w+1=when'
p730
I719
sS'prt=off'
p731
I565
sS'nsubj=which'
p732
I484
sS'w-2=detail'
p733
I1339
sS'w+1=resolution'
p734
I685
sS'w+2=Mr.'
p735
I766
sS'w-2=Ban'
p736
I1210
sS'w+1=-'
p737
I583
sS'w+1=,'
p738
I582
sS'w+1=.'
p739
I587
sS'w+2=home'
p740
I876
sS'dobj=artist'
p741
I241
sS'w+1=:'
p742
I591
sS'w+2=recognize'
p743
I942
sS'w-2=Slagle'
p744
I1280
sS'w+1=I'
p745
I593
sS'nsubjpass=code'
p746
I499
sS'w-2=Globe'
p747
I1230
sS'w-2=winner'
p748
I1503
sS'nsubj=Hamidi'
p749
I383
sS'w+1=column'
p750
I619
sS'w+1=a'
p751
I600
sS'w+2=woman'
p752
I1001
sS'w-2=because'
p753
I1316
sS'w-1=that'
p754
I1175
sS'nsubjpass=all'
p755
I496
sS'w-1=Allen'
p756
I1013
sS'nsubj=Grisman'
p757
I382
sS'w+2=source'
p758
I968
sS'dobj=poem'
p759
I298
sS'dobj=law'
p760
I273
sS'nsubj=Ban'
p761
I359
sS'nsubj=figure'
p762
I453
sS'w-2=people'
p763
I1423
sS'w-2=Barakat'
p764
I1211
sS'w+1=sentence'
p765
I686
sS'conj=produce'
p766
I175
sS'w-1=high-end'
p767
I1120
sS'w+1=hard-hitting'
p768
I644
sS'dobj=biography'
p769
I243
sS'w-1=normally'
p770
I1144
sS'w-1=would'
p771
I1190
sS'w+2=child'
p772
I825
sS'w+2=Cher'
p773
I743
sS'w-2=produce'
p774
I1432
sS'w+1=these'
p775
I705
sS'w+2=mother'
p776
I912
sS'w-2=we'
p777
I1492
sS'w-2=Justice'
p778
I1244
sS'w-2=vice'
p779
I1486
sS'nsubjpass=Premonition'
p780
I493
sS'w+2=Foreign'
p781
I748
sS'w+2=speak'
p782
I969
sS'w-1=avoid'
p783
I1083
sS'dobj=tale'
p784
I323
sS'nsubj=Vince'
p785
I432
sS'w-2=Magazine'
p786
I1253
sS'w-2=premiership'
p787
I1428
sS'w+2=to'
p788
I986
sS'w+2=anything'
p789
I798
sS'dobj=history'
p790
I270
sS'conj=need'
p791
I169
sS'w+2=who'
p792
I998
sS'w-2=Orthodox'
p793
I1266
sS'xcomp=recognize'
p794
I1524
sS'w-2=act'
p795
I1292
sS'complm=that'
p796
I135
sS'tmod=month'
p797
I574
sS'w+2=legal'
p798
I892
sS"w+1=''"
p799
I581
sS'w+2=world'
p800
I1004
sS'w+2=President'
p801
I773
sS'w-1=Harris'
p802
I1033
sS'w-2=history'
p803
I1368
sS'advmod=hopefully'
p804
I47
sS'w+1=most'
p805
I662
sS'w-2=for'
p806
I1357
sS'w+1=yesterday'
p807
I724
sS'w+1=they'
p808
I706
sS'xcomp=warn'
p809
I1532
sS'tmod=yesterday'
p810
I580
sS'w-1=creative'
p811
I1099
sS'prep=in'
p812
I550
sS'dobj=debt'
p813
I256
sS'w-1=about'
p814
I1074
sS'conj=available'
p815
I141
sS'prep=amid'
p816
I537
sS'dobj=declaration'
p817
I257
sS'nsubj=the'
p818
I483
sS'w-2=Strauss'
p819
I1282
sS'w-2=e-mail'
p820
I1347
sS'nsubj=outlaw'
p821
I472
sS'conj=co-write'
p822
I145
sS'nsubj=all'
p823
I438
sS'w+1=rap'
p824
I682
sS'w-2=government'
p825
I1361
sS'w+1=book'
p826
I613
sS'w-1=if'
p827
I1122
sS'nsubj=song'
p828
I481
sS'w-2=reading'
p829
I1435
sS'w-1=in'
p830
I1124
sS'w-2=Adi'
p831
I1204
sS'conj=choose'
p832
I144
sS'dep=ago'
p833
I203
sS'w-1=the'
p834
I1176
sS'w+2=issue'
p835
I883
sS'w-1=wait'
p836
I1181
sS'mark=if'
p837
I344
sS'w-2=Korans'
p838
I1247
sS'dobj=workshop'
p839
I336
sS'w-2=state'
p840
I1451
sS'w-1=formal'
p841
I1114
sS'w+1=White'
p842
I599
sS'w+2=lot'
p843
I899
sS'nsubj=Ministry'
p844
I406
sS'dobj=permit'
p845
I293
sS'w-1=father'
p846
I1112
sS'xcomp=take'
p847
I1528
sS'w-2=or'
p848
I1418
sS'nsubj=who'
p849
I485
sS'nsubj=lot'
p850
I460
sS'nsubjpass=obituary'
p851
I508
sS'w-2=of'
p852
I1413
sS'w-2=structure'
p853
I1453
sS'ccomp=necessary'
p854
I118
sS'dep=even'
p855
I210
sS'w-2=-'
p856
I1194
sS'w-2=on'
p857
I1415
sS'w-2=name'
p858
I1403
sS'w+2=release'
p859
I944
sS'w+2=Pamela'
p860
I771
sS'dobj=story'
p861
I321
sS'advmod=again'
p862
I26
sS'w+2=Olmert'
p863
I769
sS'w-2=ability'
p864
I1290
sS'w-2=variant'
p865
I1484
sS'w+2=certain'
p866
I823
sS'w-2=degree'
p867
I1336
sS'w+2=PATRIOT'
p868
I770
sS'w+1=as'
p869
I607
sS'w+1=process'
p870
I678
sS'w-1=currently'
p871
I1100
sS'w+2=so'
p872
I963
sS'advmod=frequently'
p873
I45
sS'advmod=unusually'
p874
I71
sS'w-1=can'
p875
I1090
sS'w-1=Knowles'
p876
I1042
sS'w-2=approval'
p877
I1307
sS'dobj=Initiative'
p878
I232
sS'nsubj=mother'
p879
I467
sS'dobj=frustration'
p880
I267
sS'w-2=kid'
p881
I1383
sS'w-1=Jacob'
p882
I1039
sS'advmod=when'
p883
I73
sS'w-2=support'
p884
I1456
sS'w-2=nothing'
p885
I1409
sS'w-2=Snyder'
p886
I1281
sS'w-2=50'
p887
I1201
sS'auxpass=be'
p888
I88
sS'dobj=single'
p889
I312
sS'w+2=lecture'
p890
I891
sS'w+2=after'
p891
I792
sS'w-2=1,144'
p892
I1198
sS'nsubj=each'
p893
I449
sS'advmod=still'
p894
I66
sS'w-2=discovery'
p895
I1342
sS'w+2=bassist'
p896
I806
sS'dobj=column'
p897
I251
sS'w+2=apart'
p898
I799
sS'w-2=talent'
p899
I1459
sS'w+1=encompass'
p900
I632
sS'conj=student'
p901
I189
sS'nsubj=#NUMBER#'
p902
I352
sS'dobj=someone'
p903
I315
sS'xcomp=turn'
p904
I1530
sS'w+2=thing'
p905
I982
sS'w+2=study'
p906
I974
sS'w+2=extremist'
p907
I850
sS'w-2=FISA'
p908
I1226
sS'dobj=what'
p909
I331
sS"w-1=''"
p910
I1007
sS'w-2=release'
p911
I1439
sS'nsubjpass=#NUMBER#'
p912
I489
sS'tmod=night'
p913
I575
sS'w+2=what'
p914
I994
sS'parataxis=#NUMBER#'
p915
I526
sS'w+2=though'
p916
I984
sS'conj=do'
p917
I151
sS'dep=bring'
p918
I207
sS'w+2=song'
p919
I967
sS'w+1=across'
p920
I602
sS"w-2=''"
p921
I1192
sS'w+1=four'
p922
I640
sS'w-2=reputation'
p923
I1441
sS'nsubjpass=hit'
p924
I503
sS'w-2=Religion'
p925
I1273
sS'w+2=make'
p926
I903
sS'w+2=pleasure'
p927
I933
sS'dobj=constitution'
p928
I253
sS'w+2=grow'
p929
I869
sS'w+2=story'
p930
I973
sS'w-2=there'
p931
I1467
sS'w+2=final'
p932
I857
sS'w-1=Barker'
p933
I1016
sS'w-2=Addis'
p934
I1203
sS'w+1=note'
p935
I664
sS'nsubj=Barroso'
p936
I361
sS'advcl=have'
p937
I8
sS'conj=direct'
p938
I150
sS'w-2=media'
p939
I1399
sS'dobj=speech'
p940
I318
sS'advcl=produce'
p941
I17
sS'dobj=prescription'
p942
I300
sS'w+1=because'
p943
I609
sS'w+1=long'
p944
I658
sS'w+2=South'
p945
I776
sS'w+2=small'
p946
I962
sS'w+1=compare'
p947
I621
sS'w-2=student'
p948
I1455
sS'w-2=themselves'
p949
I1465
sS'dobj=Bank'
p950
I226
sS'conj=speak'
p951
I185
sS'w-2=which'
p952
I1497
sS'w-1=official'
p953
I1149
sS'nsubj=Brahimi'
p954
I366
sS'dobj=most'
p955
I283
sS'w-1=Lehman'
p956
I1044
sS'advmod=even'
p957
I41
sS'nsubj=some'
p958
I480
sS'prep=throughout'
p959
I558
sS'w-1=hsbc'
p960
I1121
sS'dobj=paper'
p961
I288
sS'advmod=ever'
p962
I42
sS'w-2=testimony'
p963
I1462
sS'w+2=local'
p964
I898
sS'aux=will'
p965
I86
sS'ccomp=get'
p966
I109
sS'w-1=Bhutto'
p967
I1019
sS'nsubj=Miranda'
p968
I407
sS'w-2=know'
p969
I1384
sS'prep=with'
p970
I561
sS'w-2=award-winning'
p971
I1313
sS'w+2=add'
p972
I790
sS'ccomp=amount'
p973
I93
sS'w+1=quite'
p974
I681
sS'w+2=75'
p975
I734
sS'w-2=opponent'
p976
I1417
sS'w-1=recently'
p977
I1160
sS'w-2=president'
p978
I1431
sS'w-2=Abbey'
p979
I1202
sS'w-2=willing'
p980
I1502
sS'w+2=do'
p981
I839
sS'advcl=old'
p982
I16
sS'w+2=aspire'
p983
I803
sS'nsubj=Mailer'
p984
I398
sS'w-2=Telly'
p985
I1285
sS'w-2=Rolling'
p986
I1274
sS'w+2=Hawaii'
p987
I752
sS'w+1=critical'
p988
I624
sS'nsubj=Harris'
p989
I384
sS'w-2=Newman'
p990
I1263
sS'w-2=Marx'
p991
I1254
sS'w+1=federal'
p992
I638
sS'w-2=spill'
p993
I1450
sS'w-1=inscription'
p994
I1125
sS'w-1=Cahn'
p995
I1021
sS'cc=and'
p996
I89
sS'w+2=February'
p997
I747
sS'w-1=Mbeki'
p998
I1047
sS'w+1=by'
p999
I615
sS'w+1=be'
p1000
I608
sS'nsubj=author'
p1001
I439
sS'w-1=Taylor'
p1002
I1064
sS'w+2=Urdu'
p1003
I783
sS'conj=say'
p1004
I182
sS'w+2=declaration'
p1005
I833
sS'tmod=year'
p1006
I579
sS'conj=Brooks'
p1007
I136
sS'w-2=Congress'
p1008
I1220
sS'nsubj=Jennifer'
p1009
I389
sS'w+2=George'
p1010
I750
sS'w+1=into'
p1011
I652
sS'w-2=role'
p1012
I1442
sS'xcomp=letter'
p1013
I1518
sS'w+2=legendary'
p1014
I893
sS'dobj=chapter'
p1015
I246
sS'w-1=company'
p1016
I1094
sS'dobj=screenplay'
p1017
I307
sS'prep=like'
p1018
I553
sS'w-2=President'
p1019
I1270
sS'w+1=-rrb-'
p1020
I586
sS'w-2=Alliance'
p1021
I1205
sS'advmod=either'
p1022
I39
sS'nsubjpass=which'
p1023
I523
sS'w-2=Human'
p1024
I1236
sS'w+1=lead'
p1025
I656
sS'prt=that'
p1026
I567
sS'w+2=blog'
p1027
I814
sS'w+2=House'
p1028
I753
sS'dep=what'
p1029
I223
sS'dobj=letter'
p1030
I275
sS'advcl=look'
p1031
I14
sS'prep=of'
p1032
I554
sS'w+2=poem'
p1033
I934
sS'prep=on'
p1034
I555
sS'ccomp=endanger'
p1035
I107
sS'w-1=mysterious'
p1036
I1141
sS'w-1=everybody'
p1037
I1111
sS'w+2=lyric'
p1038
I901
sS'w-2=company'
p1039
I1328
sS'nsubj=winner'
p1040
I486
sS'conj=enjoy'
p1041
I153
sS'w-2=love'
p1042
I1391
sS'w+1=computer'
p1043
I622
sS'w+1=Miranda'
p1044
I594
sS'w+2=succession'
p1045
I975
sS'w-2=never'
p1046
I1407
sS'w-1=Farina'
p1047
I1031
sS'w-1=want'
p1048
I1182
sS'nsubj=woman'
p1049
I487
sS'w-2=talk'
p1050
I1460
sS'w+1=without'
p1051
I722
sS'w-1=Castro'
p1052
I1025
sS'nsubj=Saddam'
p1053
I421
sS'w-2=preparation'
p1054
I1430
sS'w+2=best-selling'
p1055
I811
sS'w+2=that'
p1056
I978
sS'w+2=in'
p1057
I881
sS'w-1=or'
p1058
I1152
sS'w-1=stop'
p1059
I1172
sS'w-1=Capra'
p1060
I1022
sS'advcl=hear'
p1061
I9
sS'w-1=of'
p1062
I1148
sS'w+2=tome'
p1063
I987
sS'w-1=again'
p1064
I1076
sS'w-1=on'
p1065
I1150
sS'nsubj=Folsom'
p1066
I380
sS'w-2=gold'
p1067
I1360
sS'advmod=actually'
p1068
I25
sS'w-1=publisher'
p1069
I1158
sS'w+2=editorial'
p1070
I844
sS'w+2=scratch'
p1071
I951
sS'w+2=Simon'
p1072
I775
sS'w+1=this'
p1073
I707
sS'w+2=read'
p1074
I941
sS'w-1=especially'
p1075
I1108
sS'w-1=Phares'
p1076
I1056
sS'conj=able'
p1077
I137
sS'advmod=now'
p1078
I55
sS'w+2=law'
p1079
I890
sS'w-2=will'
p1080
I1501
sS'w-1=Kassindja'
p1081
I1040
sS'w+2=foreword'
p1082
I863
sS'w-1=Twain'
p1083
I1065
sS'partmod=say'
p1084
I530
sS'w+1=check'
p1085
I617
sS'w+2=express'
p1086
I849
sS'dobj=review'
p1087
I306
sS'w-2=at'
p1088
I1312
sS'w-2=two'
p1089
I1479
sS'w-2=as'
p1090
I1309
sS'w-2=man'
p1091
I1395
sS'w+2=paper'
p1092
I927
sS'w-1=also'
p1093
I1078
sS'w+2=Kronos'
p1094
I762
sS'w+1=during'
p1095
I628
sS'w-2=Brad'
p1096
I1216
sS'w-2=Frank'
p1097
I1227
sS'w+2=Nashville'
p1098
I768
sS'w+2=afterword'
p1099
I793
sS'w-2=Kenneth'
p1100
I1246
sS'w-1=either'
p1101
I1106
sS'nsubj=Writers'
p1102
I436
sS'advcl=put'
p1103
I18
sS'advmod=immediately'
p1104
I49
sS'conj=ignite'
p1105
I161
sS'w+2=singing'
p1106
I961
sS'w-2=draft'
p1107
I1346
sS'w+2=due'
p1108
I842
sS'w-2=Science'
p1109
I1278
sS'w-2=Huckabee'
p1110
I1235
sS'nsubj=Beirut'
p1111
I362
sS'nsubj=Pelosi'
p1112
I416
sS'w-2=Tom'
p1113
I1286
sS'w-2=T-Pain'
p1114
I1284
sS'dobj=essay'
p1115
I261
sS'conj=review'
p1116
I181
sS'w+1=eight'
p1117
I631
sS'w+2=direct'
p1118
I837
sS'w+2=Tuesday'
p1119
I781
sS'w-1=series'
p1120
I1164
sS'ccomp=#NUMBER#'
p1121
I92
sS"aux='ll"
p1122
I76
sS'ccomp=arise'
p1123
I94
sS'w+2=respect'
p1124
I946
sS'nsubj=Bhutto'
p1125
I365
sS'nsubj=Kelly'
p1126
I390
sS'w+2=article'
p1127
I800
sS'w+2=Cardinal'
p1128
I740
sS'dobj=part'
p1129
I290
sS'w-2=really'
p1130
I1436
sS'dobj=succession'
p1131
I322
sS'w-2=Baghdad'
p1132
I1209
sS'w-1=for'
p1133
I1113
sS'dobj=afterword'
p1134
I236
sS'nsubj=father'
p1135
I452
sS'w-2=way'
p1136
I1491
sS'w+2=most'
p1137
I911
sS'w+1=especially'
p1138
I633
sS'w-2=Carlene'
p1139
I1217
sS'w+2=about'
p1140
I788
sS'w-1=Myers'
p1141
I1053
sS'prep=during'
p1142
I546
sS'w-1=Scalia'
p1143
I1062
sS'w-2=half'
p1144
I1362
sS'w-2=improve'
p1145
I1372
sS'w-1=now'
p1146
I1147
sS'w-1=not'
p1147
I1145
sS'w-1=begin'
p1148
I1085
sS'aux=be'
p1149
I77
sS'prep=before'
p1150
I542
sS'ccomp=crown'
p1151
I102
sS'dobj=comment'
p1152
I252
sS'ccomp=call'
p1153
I99
sS'w+2=judge'
p1154
I887
sS'w+2=ethiopian'
p1155
I847
sS'dobj=anything'
p1156
I239
sS'ccomp=tick'
p1157
I131
sS'mark=like'
p1158
I345
sS'advmod=well'
p1159
I72
sS'w+2=971'
p1160
I735
sS'prep=that'
p1161
I557
sS'xcomp=call'
p1162
I1513
sS'w-2=just'
p1163
I1381
sS'w-2=then'
p1164
I1466
sS'w-1=Republicans'
p1165
I1059
sS'w-2=they'
p1166
I1468
sS'prep=by'
p1167
I543
sS'w-2=country'
p1168
I1333
sS'dobj=software'
p1169
I313
sS'nsubj=government'
p1170
I455
sS'w+2=script'
p1171
I953
sS'w+2=tiny'
p1172
I985
sS'w+1=expression'
p1173
I634
sS'dep=address'
p1174
I202
sS'nsubj=composer'
p1175
I444
sS'prep=follow'
p1176
I547
sS'advmod=originally'
p1177
I59
sS'dobj=song'
p1178
I317
sS'w-2=assembly'
p1179
I1311
sS'w+2=annual'
p1180
I796
sS'w-1=Carter'
p1181
I1024
sS'nsubj=Jacob'
p1182
I388
sS'conj=stop'
p1183
I188
sS'w-1=by'
p1184
I1088
sS'w-1=be'
p1185
I1084
sS'ccomp=feature'
p1186
I108
sS'w-2=Cuba'
p1187
I1222
sS'nsubj=Paisley'
p1188
I415
sS'dobj=hit'
p1189
I271
sS'w-1=Vince'
p1190
I1069
sS'w-1=president'
p1191
I1156
sS'mark=because'
p1192
I341
sS'aux=might'
p1193
I83
sS'dobj=series'
p1194
I310
sS'advmod=off'
p1195
I56
sS'ccomp=meet'
p1196
I117
sS'w+2=assessment'
p1197
I804
sS'w-2=classmate'
p1198
I1323
sS'conj=want'
p1199
I197
sS'dobj=statement'
p1200
I319
sS'w-2=how'
p1201
I1371
sS'conj=perform'
p1202
I171
sS'w-2=dictatorship'
p1203
I1341
sS'w+1=2,500'
p1204
I588
sS'nsubj=Maggie'
p1205
I397
sS'advcl=film'
p1206
I6
sS'dobj=sentence'
p1207
I309
sS'dep=include'
p1208
I212
sS'w-1=love'
p1209
I1130
sS'w-2=effort'
p1210
I1349
sS'w-1=only'
p1211
I1151
sS'w+2=by'
p1212
I820
sS'dobj=program'
p1213
I303
sS'w+2=Senator'
p1214
I774
sS'dobj=fiction'
p1215
I264
sS'w+2=be'
p1216
I807
sS'w-2=Sammy'
p1217
I1276
sS'nsubjpass=#PRP#'
p1218
I490
sS'w-1=mostly'
p1219
I1135
sS'advmod=too'
p1220
I70
sS'w-1=Brahimi'
p1221
I1020
sS'aux=would'
p1222
I87
sS'w+2=fiction'
p1223
I854
sS'w-2=democrat'
p1224
I1338
sS'dobj=thing'
p1225
I327
sS'w-1=massive'
p1226
I1132
sS'w+1=song'
p1227
I695
sS'dobj=the'
p1228
I325
sS'advmod=ago'
p1229
I27
sS'w+2=write'
p1230
I1005
sS'w+1=and'
p1231
I604
sS'w+2=german'
p1232
I867
sS'dobj=check'
p1233
I248
sS'dobj=track'
p1234
I329
sS'w-2=Sarkozy'
p1235
I1277
sS'prt=up'
p1236
I568
sS'ccomp=decide'
p1237
I103
sS'conj=commit'
p1238
I146
sS'w+2=these'
p1239
I980
sS'w-2=premise'
p1240
I1429
sS'dep=think'
p1241
I221
sS'w+2=series'
p1242
I956
sS'ccomp=present'
p1243
I121
sS'w+2=pakistani'
p1244
I926
sS'ccomp=want'
p1245
I134
sS'partmod=write'
p1246
I532
sS'w-2=life'
p1247
I1388
sS'w-2=Carrie'
p1248
I1218
sS'w-2=ago'
p1249
I1295
sS'w-2=use'
p1250
I1482
sS'conj=contribute'
p1251
I147
sS'w-2=officer'
p1252
I1414
sS'dobj=Dozier'
p1253
I229
sS'w+2=feeling'
p1254
I853
sS'dobj=editorial'
p1255
I260
sS'w-2=John'
p1256
I1242
sS'nsubj=reporter'
p1257
I478
sS'conj=accomplish'
p1258
I138
sS'ccomp=aspect'
p1259
I95
sS'w-2=page'
p1260
I1420
sS'dobj=e-mail'
p1261
I259
sS'nsubj=Ker-Lindsay'
p1262
I392
sS'ccomp=give'
p1263
I110
sS'conj=film'
p1264
I155
sS'w-2=mcguiness'
p1265
I1397
sS'prt=out'
p1266
I566
sS'w-1=country'
p1267
I1098
sS'w+2=memoirs'
p1268
I909
sS'w-1=newspaper'
p1269
I1143
sS'w-2=Mabrouk'
p1270
I1252
sS'w-2=military'
p1271
I1401
sS'nsubj=joy'
p1272
I459
sS'conj=decide'
p1273
I148
sS'w-1=Hicks'
p1274
I1035
sS'w-1=my'
p1275
I1139
sS'parataxis=Plutarch'
p1276
I527
sS'w-1=Mailer'
p1277
I1046
sS'tmod=today'
p1278
I577
sS'w-2=journal'
p1279
I1379
sS'nsubj=Alan'
p1280
I356
sS'dobj=side'
p1281
I311
sS'w+2=jewish'
p1282
I885
sS'dep=direct'
p1283
I209
sS'w-1=Washington'
p1284
I1070
sS'dobj=examination'
p1285
I262
sS'prep=for'
p1286
I548
sS'w-1=Lincoln'
p1287
I1045
sS'conj=stage'
p1288
I186
sS'nsubj=Scalia'
p1289
I424
sS'w-2=together'
p1290
I1473
sS'ccomp=cling'
p1291
I100
sS'w+2=legislation'
p1292
I894
sS'nsubj=media'
p1293
I463
sS'w+2=as'
p1294
I801
sS'w-2=U.S.'
p1295
I1287
sS'w-2=Mr.'
p1296
I1257
sS'dobj=melancholy'
p1297
I280
sS'ccomp=ok'
p1298
I120
sS'w+2=IAEA'
p1299
I756
sS'advmod=long'
p1300
I51
sS'advmod=always'
p1301
I31
sS'advcl=start'
p1302
I22
sS'w-2=Hollywood'
p1303
I1233
sS'nsubj=parliament'
p1304
I473
sS'w+2=history'
p1305
I874
sS'conj=interview'
p1306
I163
sS'w+2=Bill'
p1307
I738
sS'w+1=project'
p1308
I679
sS'w+2=with'
p1309
I1000
sS'w+2=play'
p1310
I932
sS'w+2=divide'
p1311
I838
sS'w-2=body'
p1312
I1318
sS'w-2=-rrb-'
p1313
I1196
sS"w+2=Ki'Swahili"
p1314
I761
sS'w-1=people'
p1315
I1154
sS'w+1=Red'
p1316
I597
sS'ccomp=use'
p1317
I133
sS'w+2=put'
p1318
I939
sS'w+1=somebody'
p1319
I693
sS'w-2=George'
p1320
I1229
sS'w-2=Griffith'
p1321
I1231
sS'w+2=or'
p1322
I922
sS'nsubjpass=most'
p1323
I505
sS'w+1=different'
p1324
I626
sS'w+2=of'
p1325
I918
sS'w-2=vaccine'
p1326
I1483
sS'w+2=on'
p1327
I920
sS'w-1=immediately'
p1328
I1123
sS'dobj=Luck'
p1329
I233
sS'advcl=intelligent'
p1330
I12
sS'dobj=name'
p1331
I285
sS'prep=into'
p1332
I552
sS'w-1=Kennedy'
p1333
I1041
sS'w+2=Andy'
p1334
I737
sS'w+2=part'
p1335
I928
sS'w-1=while'
p1336
I1184
sS'nsubj=Pham'
p1337
I417
sS'prep=without'
p1338
I562
sS'w+2=Pearl'
p1339
I772
sS'w-2=Earle'
p1340
I1224
sS'w-1=report'
p1341
I1161
sS'nsubj=of'
p1342
I471
sS'w-1=musiclennon'
p1343
I1138
sS'w+2=Naing'
p1344
I767
sS'dobj=production'
p1345
I302
sS'w+2=accompany'
p1346
I789
sS'w-1=Chad'
p1347
I1026
sS'w-1=Hutton'
p1348
I1037
sS'w-1=she'
p1349
I1165
sS'w-1=composition'
p1350
I1096
sS'nsubj=inspector'
p1351
I457
sS'w+2=two'
p1352
I990
sS'ccomp=shame'
p1353
I127
sS'nsubjpass=history'
p1354
I502
sS'advmod=often'
p1355
I57
sS'w+2=column'
p1356
I827
sS'ccomp=need'
p1357
I119
sS'w+2=Luck'
p1358
I764
sS'w+2=review'
p1359
I948
sS'w-2=Boxer'
p1360
I1215
sS'w-2=Volunteer'
p1361
I1288
sS'advcl=talk'
p1362
I23
sS'aux=do'
p1363
I80
sS'w+2=news'
p1364
I915
sS'w-2=weapon'
p1365
I1493
sS'nsubjpass=screenplay'
p1366
I511
sS'dobj=piece'
p1367
I294
sS'nsubjpass=this'
p1368
I518
sS'nsubj=people'
p1369
I474
sS'advmod=maritime'
p1370
I52
sS'w-1=Moore'
p1371
I1052
sS'w-2=code'
p1372
I1324
sS'w-2=Lakhdar'
p1373
I1248
sS'w+2=routine'
p1374
I949
sS'w-2=Lennon'
p1375
I1251
sS'w+2=Mark'
p1376
I765
sS'w-2=--'
p1377
I1195
sS'w-2=learn'
p1378
I1385
sS'conj=like'
p1379
I166
sS'w-2=nation'
p1380
I1404
sS'w-1=Miranda'
p1381
I1051
sS'w-1=woman'
p1382
I1188
sS'w-2=personal'
p1383
I1425
sS'w+1=novel'
p1384
I666
sS'nsubjpass=story'
p1385
I515
sS'nsubj=Brennan'
p1386
I367
sS'w+1=one'
p1387
I670
sS'dobj=credit'
p1388
I254
sS'w+2=week'
p1389
I993
sS'dobj=film'
p1390
I265
sS'w-2=Modern'
p1391
I1256
sS'w+2=help'
p1392
I871
sS'conj=happen'
p1393
I159
sS'advmod=about'
p1394
I24
sS'nsubj=Henry'
p1395
I385
sS"w+2=''"
p1396
I726
sS'w-2=organization'
p1397
I1419
sS'ccomp=dip'
p1398
I105
sS'nsubj=Knowles'
p1399
I394
sS'conj=try'
p1400
I193
sS'nsubjpass=constitution'
p1401
I500
sS'w-2=program'
p1402
I1433
sS'w-1=work'
p1403
I1189
sS'conj=work'
p1404
I198
sS'nsubj=McClellan'
p1405
I402
sS'w+2=50'
p1406
I733
sS'dobj=postcard'
p1407
I299
sS'w-1=Howe'
p1408
I1036
sS'prep=such'
p1409
I556
sS'w-2=Ms.'
p1410
I1258
sS'w-1=but'
p1411
I1087
sS"w+2='s"
p1412
I727
sS'w-2=when'
p1413
I1495
sS'ccomp=reflect'
p1414
I122
sS'w+1=home'
p1415
I648
sS'nsubj=Vanguard'
p1416
I431
sS'nsubj=journalist'
p1417
I458
sS'mark=until'
p1418
I348
sS'w+2=from'
p1419
I866
sS'nsubj=Cahn'
p1420
I368
sS'w+1=better'
p1421
I612
sS'nsubj=Newman'
p1422
I414
sS'nsubj=Twain'
p1423
I429
sS'w+2=singer-actress'
p1424
I960
sS'nsubj=Lee'
p1425
I395
sS'w+2=before'
p1426
I809
sS'nsubj=Myers'
p1427
I411
sS'w+2=contribute'
p1428
I831
sS'dobj=papers'
p1429
I289
sS'mark=before'
p1430
I342
sS'dobj=blog'
p1431
I244
sS'dobj=stop'
p1432
I320
sS'advmod=back'
p1433
I33
sS'w+1=skill'
p1434
I690
sS'w+2=originally'
p1435
I923
sS'nsubjpass=report'
p1436
I509
sS'w-1=might'
p1437
I1134
sS'nsubj=Muhammad'
p1438
I410
sS'w-2=be'
p1439
I1315
sS'dobj=memoirs'
p1440
I281
sS'w-2=amazing'
p1441
I1302
sS'w-1=check'
p1442
I1091
sS'w-2=Lane'
p1443
I1249
sS'w+2=human'
p1444
I879
sS'tmod=week'
p1445
I578
sS'nsubj=White'
p1446
I435
sS'w-2=distribute'
p1447
I1344
sS'w-2=Counsel'
p1448
I1221
sS'w+1=all'
p1449
I603
sS'nsubjpass=FISA'
p1450
I491
sS'nsubj=Chad'
p1451
I372
sS'w-2=want'
p1452
I1490
sS'w+2=any'
p1453
I797
sS'advcl=hand'
p1454
I7
sS'w-2=Nations'
p1455
I1262
sS'w-2=Shah'
p1456
I1279
sS'w+2=and'
p1457
I795
sS'dobj=trash'
p1458
I330
sS'nsubj=Someday'
p1459
I426
sS'w+2=reaction'
p1460
I940
sS'ccomp=take'
p1461
I129
sS'dobj=lyric'
p1462
I277
sS'advmod=also'
p1463
I30
sS'cop=be'
p1464
I200
sS'w-1=Stone'
p1465
I1063
sS'nsubj=Washington'
p1466
I433
sS'dep=between'
p1467
I206
sS'w-2=say'
p1468
I1443
sS'w+2=book'
p1469
I816
sS'w+2=blank'
p1470
I813
sS'w+2=the'
p1471
I979
sS'prep=at'
p1472
I540
sS'nsubj=U.S.'
p1473
I430
sS'prep=as'
p1474
I539
sS'w-1=Nancy'
p1475
I1054
sS'xcomp=tell'
p1476
I1529
sS'advmod=each'
p1477
I37
sS'w-2=but'
p1478
I1321
sS'w-2=Reid'
p1479
I1272
sS'w-1=.'
p1480
I1011
sS'dobj=agency'
p1481
I237
sS'w-1=,'
p1482
I1009
sS'dobj=message'
p1483
I282
sS'w+2=israeli'
p1484
I882
sS'w+2=one'
p1485
I921
sS'w-1=I'
p1486
I1038
sS'w-2=perform'
p1487
I1424
sS'nsubj=McCain'
p1488
I401
sS'w-1=a'
p1489
I1073
sS'advcl=inspire'
p1490
I11
sS'w+2=work'
p1491
I1003
sS'w-2=so'
p1492
I1447
sS'w+2=word'
p1493
I1002
sS'mark=as'
p1494
I340
sS'w-2=House'
p1495
I1234
sS'w-1=music'
p1496
I1137
sS'w-1=-rrb-'
p1497
I1010
sS'xcomp=read'
p1498
I1523
sS'w+2=hit'
p1499
I875
sS'w+1=frequently'
p1500
I641
sS'w+2=they'
p1501
I981
sS'ccomp=leave'
p1502
I113
sS'w+1=President'
p1503
I596
sS'advmod=than'
p1504
I67
sS'dep=go'
p1505
I211
sS'w+1=last'
p1506
I655
sS'w-2=both'
p1507
I1320
sS'advmod=how'
p1508
I48
sS'w-2=vietnamese'
p1509
I1487
sS'dobj=legislation'
p1510
I274
sS'nsubj=Mbeki'
p1511
I400
sS'w+2=sing'
p1512
I959
sS'advmod=for'
p1513
I44
sS'w-2=help'
p1514
I1367
sS'w+2=let'
p1515
I895
sS'nsubjpass=song'
p1516
I514
sS'w-1=we'
p1517
I1183
sS'w-2=Aron'
p1518
I1208
sS'w+1=such'
p1519
I701
sS'w-1=get'
p1520
I1115
sS'w-1=Ashley'
p1521
I1015
sS'w+1=60'
p1522
I590
sS'w-2=discuss'
p1523
I1343
sS'w+2=.'
p1524
I730
sS'w+2=,'
p1525
I728
sS'w+2=constitution'
p1526
I830
sS'w-2=al-Assouani'
p1527
I1298
sS'w-2=inspector'
p1528
I1375
sS'w-1=Ralston'
p1529
I1057
sS'w+1=record'
p1530
I684
sS'w+2=I'
p1531
I755
sS'w-1=provide'
p1532
I1157
sS'w-2=constitution'
p1533
I1330
sS'w-1=just'
p1534
I1126
sS'prt=down'
p1535
I564
sS'w-1=may'
p1536
I1133
sS'w+1=throughout'
p1537
I708
sS'w-2=James'
p1538
I1240
sS'w+2=`'
p1539
I786
sS'w+2=a'
p1540
I787
ssS'dtype'
p1541
cnumpy
float64
p1542
sS'feature_names_'
p1543
(lp1544
g25
ag172
ag73
ag488
ag347
ag351
ag1206
ag1454
ag937
ag1061
ag340
ag1490
ag1330
ag410
ag1031
ag27
ag982
ag941
ag1103
ag619
ag669
ag551
ag1302
ag1362
ag1394
ag1068
ag862
ag1229
ag272
ag528
ag1463
ag1301
ag464
ag1433
ag349
ag609
ag241
ag1477
ag621
ag1022
ag122
ag957
ag962
ag132
ag1513
ag873
ag98
ag804
ag1508
ag1104
ag399
ag1300
ag1370
ag543
ag48
ag1078
ag1195
ag1355
ag439
ag1177
ag304
ag555
ag647
ag129
ag397
ag483
ag894
ag1504
ag375
ag575
ag1220
ag874
ag1159
ag883
ag109
ag253
ag1122
ag1149
ag430
ag105
ag1363
ag680
ag402
ag1193
ag331
ag613
ag965
ag1222
ag888
ag996
ag624
ag224
ag1121
ag973
ag1123
ag1259
ag506
ag86
ag656
ag1153
ag1291
ag513
ag1151
ag1237
ag250
ag1398
ag717
ag1035
ag1186
ag966
ag1263
ag472
ag290
ag1502
ag326
ag549
ag148
ag1196
ag854
ag1357
ag1298
ag1243
ag1414
ag484
ag296
ag60
ag101
ag1353
ag388
ag1461
ag201
ag1157
ag595
ag1317
ag1245
ag796
ag1007
ag1077
ag1258
ag119
ag478
ag815
ag103
ag26
ag832
ag822
ag1238
ag1251
ag1273
ag460
ag938
ag917
ag195
ag1041
ag177
ag1264
ag497
ag99
ag97
ag1393
ag553
ag1105
ag677
ag1306
ag641
ag154
ag1379
ag157
ag21
ag791
ag536
ag1202
ag562
ag559
ag146
ag766
ag271
ag233
ag490
ag307
ag723
ag1116
ag1004
ag538
ag535
ag951
ag1288
ag620
ag1183
ag901
ag618
ag573
ag521
ag1400
ag616
ag372
ag270
ag1199
ag1404
ag176
ag1464
ag649
ag1174
ag833
ag302
ag160
ag1467
ag918
ag427
ag1283
ag855
ag1505
ag1208
ag582
ag433
ag61
ag701
ag72
ag214
ag552
ag223
ag1241
ag524
ag1029
ag268
ag124
ag950
ag700
ag469
ag1253
ag557
ag243
ag878
ag1329
ag390
ag301
ag1134
ag1481
ag704
ag1156
ag447
ag741
ag42
ag769
ag1431
ag721
ag1015
ag379
ag1233
ag400
ag17
ag897
ag1152
ag928
ag1388
ag15
ag813
ag817
ag659
ag1261
ag1255
ag1115
ag1285
ag56
ag1215
ag1390
ag522
ag880
ag453
ag159
ag790
ag1189
ag578
ag760
ag1510
ag1030
ag531
ag1462
ag149
ag523
ag1297
ag1440
ag1483
ag955
ag630
ag1331
ag291
ag714
ag961
ag1429
ag1129
ag502
ag12
ag845
ag1367
ag452
ag457
ag501
ag759
ag1407
ag942
ag594
ag1345
ag1213
ag204
ag371
ag1087
ag1017
ag110
ag1207
ag1194
ag1281
ag889
ag1169
ag454
ag903
ag171
ag1178
ag940
ag1200
ag1432
ag861
ag1131
ag784
ag377
ag1228
ag29
ag1225
ag219
ag1234
ag1458
ag909
ag462
ag205
ag90
ag89
ag839
ag499
ag286
ag247
ag1494
ag1192
ag1430
ag94
ag837
ag1158
ag725
ag415
ag1418
ag213
ag711
ag362
ag902
ag49
ag643
ag108
ag1280
ag202
ag22
ag761
ag567
ag936
ag1111
ag67
ag712
ag1125
ag954
ag1386
ag1420
ag532
ag515
ag221
ag1451
ag344
ag337
ag421
ag295
ag610
ag244
ag356
ag1066
ag65
ag757
ag749
ag989
ag1395
ag323
ag648
ag1182
ag1009
ag1126
ag690
ag1262
ag9
ag1399
ag1425
ag663
ag1205
ag984
ag62
ag1511
ag1488
ag1405
ag537
ag240
ag322
ag844
ag968
ag544
ag104
ag1438
ag1427
ag446
ag280
ag1422
ag1188
ag1112
ag1337
ag713
ag210
ag284
ag1053
ag438
ag615
ag1289
ag605
ag1459
ag376
ag604
ag1423
ag1473
ag1416
ag785
ag1466
ag78
ag1446
ag1102
ag30
ag823
ag1001
ag24
ag255
ag28
ag135
ag1175
ag465
ag41
ag694
ag445
ag893
ag200
ag238
ag1135
ag762
ag530
ag1170
ag526
ag1351
ag1417
ag1272
ag850
ag556
ag637
ag1293
ag93
ag511
ag416
ag879
ag584
ag361
ag225
ag1342
ag821
ag1304
ag1369
ag165
ag164
ag63
ag1257
ag130
ag958
ag828
ag96
ag818
ag732
ag849
ag1040
ag1049
ag178
ag912
ag1218
ag1450
ag568
ag780
ag504
ag368
ag755
ag151
ag179
ag746
ag1401
ag298
ag1354
ag924
ag561
ag1323
ag487
ag139
ag851
ag1436
ag404
ag1366
ag31
ag691
ag1516
ag1385
ag728
ag500
ag1368
ag674
ag13
ag144
ag277
ag1023
ag608
ag342
ag915
ag1276
ag386
ag558
ag1084
ag196
ag1246
ag429
ag640
ag664
ag346
ag816
ag68
ag1474
ag1472
ag654
ag1150
ag1167
ag294
ag156
ag1142
ag1176
ag1286
ag729
ag812
ag117
ag1332
ag1018
ag1032
ag1034
ag1409
ag1161
ag959
ag443
ag34
ag970
ag1338
ag141
ag1535
ag731
ag1266
ag1026
ag1236
ag305
ag480
ag190
ag564
ag566
ag797
ag913
ag313
ag1278
ag1445
ag1006
ag810
ag799
ag738
ag737
ag516
ag38
ag1020
ag739
ag1204
ag509
ag1522
ag742
ag456
ag745
ag1044
ag431
ag1503
ag1316
ag173
ag842
ag751
ag265
ag920
ag1449
ag1231
ag709
ag248
ag869
ag1000
ag943
ag352
ag315
ag1421
ag826
ag118
ag999
ag494
ag1085
ag91
ag750
ag363
ag947
ag1043
ag174
ag988
ag468
ag1324
ag334
ag1095
ag312
ag367
ag1117
ag900
ag1138
ag1173
ag461
ag413
ag208
ag992
ag440
ag922
ag1500
ag710
ag638
ag768
ag136
ag645
ag607
ag1415
ag232
ag261
ag276
ag1011
ag262
ag412
ag1506
ag1025
ag285
ag944
ag707
ag606
ag671
ag805
ag444
ag935
ag339
ag1384
ag52
ag471
ag54
ag1387
ag58
ag646
ag550
ag358
ag83
ag263
ag142
ag870
ag1308
ag258
ag974
ag824
ag603
ag1530
ag734
ag765
ag43
ag491
ag192
ag1434
ag327
ag570
ag1319
ag81
ag1227
ag688
ag684
ag670
ag597
ag563
ag1519
ag432
ag391
ag76
ag775
ag808
ag1073
ag1537
ag540
ag631
ag518
ag69
ag222
ag661
ag639
ag226
ag321
ag19
ag730
ag256
ag673
ag1051
ag482
ag807
ag126
ag1396
ag1412
ag1525
ag77
ag1524
ag325
ag577
ag1406
ag975
ag1160
ag665
ag1334
ag1307
ag428
ag1128
ag493
ag45
ag773
ag425
ag203
ag406
ag997
ag781
ag695
ag1010
ag589
ag987
ag1028
ag128
ag1531
ag1299
ag682
ag155
ag194
ag116
ag1314
ag1094
ag451
ag1358
ag1376
ag735
ag1344
ag1098
ag863
ag868
ag860
ag1339
ag801
ag1214
ag1072
ag945
ag571
ag182
ag485
ag622
ag1119
ag686
ag1003
ag692
ag11
ag1539
ag1540
ag1140
ag1346
ag972
ag601
ag891
ag1099
ag138
ag1457
ag1180
ag1453
ag789
ag898
ag1127
ag1294
ag252
ag983
ag1197
ag396
ag896
ag1216
ag32
ag1426
ag387
ag1055
ag574
ag1470
ag1027
ag50
ag1469
ag418
ag369
ag16
ag1212
ag114
ag55
ag866
ag697
ag772
ag319
ag1356
ag264
ag636
ag1526
ag1428
ag267
ag1005
ag470
ag257
ag293
ag1118
ag1311
ag981
ag565
ag596
ag1108
ag303
ag1070
ag370
ag365
ag1155
ag450
ag1086
ag907
ag503
ag715
ag1254
ag1223
ag625
ag626
ag932
ag417
ag216
ag168
ag459
ag329
ag1082
ag112
ag180
ag1419
ag1232
ag292
ag929
ag545
ag1392
ag489
ag184
ag1305
ag1499
ag740
ag405
ag455
ag1444
ag64
ag1057
ag1484
ag835
ag423
ag1282
ag681
ag1154
ag143
ag473
ag1079
ag890
ag798
ag1014
ag1292
ag1515
ag245
ag266
ag964
ag843
ag166
ag1038
ag230
ag926
ag614
ag583
ag260
ag163
ag698
ag1268
ag57
ag1137
ag776
ag720
ag220
ag1364
ag401
ag705
ag1325
ag590
ag1327
ag1485
ag1322
ag1435
ag350
ag510
ag1244
ag1092
ag1335
ag236
ag398
ag424
ag1310
ag927
ag1033
ag120
ag437
ag699
ag481
ag1318
ag1460
ag1074
ag743
ag87
ag859
ag207
ag1124
ag458
ag1359
ag1374
ag183
ag1071
ag407
ag1171
ag569
ag169
ag1242
ag209
ag102
ag1512
ag1424
ag1106
ag946
ag872
ag419
ag548
ag476
ag919
ag758
ag782
ag403
ag517
ag600
ag930
ag906
ag1045
ag436
ag514
ag1056
ag1471
ag1239
ag1501
ag905
ag269
ag916
ag1172
ag788
ag1063
ag474
ag338
ag1352
ag343
ag463
ag1389
ag914
ag113
ag33
ag633
ag792
ag145
ag1309
ag752
ag1493
ag1491
ag800
ag1230
ag533
ag910
ag560
ag1482
ag1497
ag1480
ag185
ag756
ag152
ag1521
ag933
ag287
ag389
ag967
ag1221
ag995
ag1060
ag675
ag1181
ag1052
ag1347
ag642
ag652
ag181
ag486
ag1047
ag206
ag802
ag718
ag1274
ag1408
ag1348
ag1486
ag882
ag1081
ag1333
ag876
ag381
ag956
ag1287
ag1277
ag998
ag534
ag496
ag435
ag1381
ag1371
ag1141
ag1475
ag18
ag1076
ag1529
ag693
ag1165
ag288
ag251
ag1143
ag1465
ag1002
ag1083
ag317
ag197
ag215
ag1190
ag1284
ag153
ag107
ag1489
ag814
ag133
ag1064
ag79
ag1093
ag576
ag320
ag585
ag39
ag783
ag1185
ag1148
ag719
ag1411
ag1184
ag199
ag875
ag1442
ag309
ag477
ag1016
ag37
ag1350
ag593
ag1267
ag811
ag871
ag442
ag289
ag426
ag158
ag161
ag1101
ag354
ag1075
ag727
ag726
ag1037
ag846
ag1133
ag841
ag1520
ag281
ag420
ag706
ag628
ag767
ag960
ag827
ag1328
ag830
ag994
ag1534
ag318
ag282
ag115
ag1209
ag355
ag1226
ag1536
ag1437
ag1219
ag92
ag1496
ag1343
ag1275
ag186
ag1036
ag188
ag1269
ag770
ag1147
ag374
ag1146
ag1062
ag953
ag1065
ag1211
ag1058
ag602
ag1315
ag324
ag1191
ag1532
ag1069
ag378
ag977
ag1341
ag395
ag519
ag1120
ag1349
ag95
ag59
ag140
ag40
ag662
ag449
ag1059
ag422
ag623
ag754
ag834
ag333
ag336
ag121
ag393
ag836
ag1048
ag1517
ag1336
ag655
ag36
ag508
ag1382
ag1403
ag771
ag70
ag921
ag676
ag856
ag1377
ag1313
ag678
ag892
ag384
ag53
ag887
ag979
ag934
ag831
ag1021
ag579
ag475
ag1518
ag1132
ag736
ag764
ag572
ag520
ag353
ag1360
ag1096
ag1139
ag1248
ag35
ag1008
ag1448
ag1187
ag546
ag1340
ag147
ag908
ag1097
ag14
ag1320
ag747
ag1321
ag660
ag1303
ag1495
ag1110
ag1024
ag685
ag411
ag679
ag1538
ag498
ag1256
ag106
ag778
ag380
ag1100
ag838
ag1373
ag1443
ag651
ag1375
ag1270
ag786
ag991
ag441
ag1391
ag1296
ag1410
ag134
ag382
ag592
ag1455
ag990
ag722
ag467
ag793
ag580
ag385
ag672
ag1019
ag587
ag1479
ag925
ag986
ag239
ag1217
ag1235
ag1109
ag1456
ag744
ag886
ag819
ag529
ag1114
ag985
ag1113
ag1295
ag1361
ag696
ag864
ag505
ag795
ag539
ag84
ag1249
ag111
ag246
ag1527
ag316
ag218
ag348
ag1441
ag235
ag308
ag414
ag162
ag877
ag310
ag1090
ag611
ag1179
ag1088
ag971
ag167
ag1439
ag753
ag512
ag1312
ag328
ag1507
ag1478
ag360
ag1198
ag1372
ag85
ag598
ag466
ag1039
ag525
ag1533
ag657
ag332
ag1168
ag591
ag689
ag867
ag635
ag1224
ag733
ag212
ag1203
ag895
ag1523
ag1447
ag125
ag1107
ag820
ag434
ag1210
ag127
ag228
ag211
ag667
ag629
ag542
ag554
ag806
ag359
ag191
ag1067
ag825
ag1144
ag20
ag650
ag254
ag314
ag1514
ag803
ag653
ag297
ag1201
ag1145
ag234
ag658
ag1528
ag599
ag345
ag237
ag1279
ag231
ag1163
ag541
ag881
ag969
ag1378
ag131
ag581
ag1247
ag273
ag668
ag1042
ag703
ag716
ag279
ag1091
ag275
ag1265
ag527
ag939
ag448
ag1271
ag632
ag858
ag1380
ag23
ag170
ag1046
ag392
ag885
ag80
ag634
ag383
ag852
ag1252
ag857
ag311
ag976
ag848
ag1397
ag1260
ag300
ag617
ag763
ag1487
ag1383
ag588
ag586
ag787
ag1240
ag1054
ag978
ag774
ag1402
ag373
ag829
ag1130
ag335
ag82
ag911
ag74
ag923
ag1012
ag1468
ag249
ag88
ag242
ag1492
ag259
ag137
ag993
ag840
ag479
ag853
ag547
ag948
ag884
ag702
ag495
ag899
ag1050
ag278
ag963
ag75
ag408
ag949
ag1164
ag931
ag1166
ag683
ag724
ag44
ag306
ag1290
ag274
ag366
ag227
ag666
ag708
ag1089
ag283
ag175
ag1250
ag1326
ag865
ag341
ag779
ag1509
ag612
ag644
ag1452
ag1136
ag777
ag1365
ag299
ag1413
ag46
ag952
ag51
ag10
ag229
ag1080
ag980
ag748
ag217
ag687
ag198
ag66
ag187
ag189
ag193
ag364
ag8
ag1162
ag409
ag100
ag123
ag507
ag1013
ag627
ag330
ag47
ag492
ag1498
ag794
ag71
ag150
ag394
ag847
ag1476
ag904
ag357
ag809
asS'separator'
p1545
S'='
sS'sparse'
p1546
I01
sb.