ccopy_reg
_reconstructor
p1
(csklearn.feature_extraction.dict_vectorizer
DictVectorizer
p2
c__builtin__
object
p3
NtRp4
(dp5
S'vocabulary_'
p6
(dp7
S'advmod=then'
p8
I10
sS'nsubj=part'
p9
I107
sS'w-2=Gnang'
p10
I308
sS'w-2=we'
p11
I373
sS'dep=Ashcroft'
p12
I48
sS'dobj=tribe'
p13
I88
sS'dobj=neighbor'
p14
I80
sS'w+1=al-Nur'
p15
I164
sS'dobj=Bout'
p16
I52
sS'w-2=they'
p17
I364
sS'w-2=policy'
p18
I353
sS'prep=by'
p19
I128
sS'nsubj=hurdle'
p20
I104
sS'w+2=nation'
p21
I253
sS'w+1=that'
p22
I197
sS'xcomp=approve'
p23
I387
sS'w+2=physically'
p24
I263
sS'w-1=say'
p25
I297
sS'w-1=can'
p26
I283
sS'w+1=consumer'
p27
I169
sS'dobj=juror'
p28
I70
sS'w+2=enter'
p29
I231
sS'xcomp=stay'
p30
I424
sS'w-1=will'
p31
I301
sS'xcomp=abandon'
p32
I381
sS'xcomp=join'
p33
I409
sS'w+1=Khartoum'
p34
I148
sS'w-1=be'
p35
I281
sS'advmod=eventually'
p36
I3
sS'w+2=mosque'
p37
I251
sS'w-2=the'
p38
I363
sS'w+1=she'
p39
I195
sS'xcomp=give'
p40
I400
sS'w-2=analyst'
p41
I316
sS'w+2=israeli'
p42
I243
sS'w+1=senegalese'
p43
I194
sS'mark=because'
p44
I91
sS'aux=might'
p45
I18
sS'w+2=country'
p46
I227
sS'w+1=of'
p47
I191
sS'w-2=2004'
p48
I305
sS'w+2=to'
p49
I271
sS'w-1=have'
p50
I289
sS'w+2=core'
p51
I226
sS'conj=exploit'
p52
I43
sS'w+2=it'
p53
I244
sS'w-2=hope'
p54
I339
sS'w+2=who'
p55
I273
sS'w-1=could'
p56
I284
sS'xcomp=recognize'
p57
I419
sS'w-1=also'
p58
I278
sS'aux=can'
p59
I14
sS'complm=that'
p60
I39
sS'w+2=iraqi'
p61
I242
sS'w+1=people'
p62
I192
sS'w-2=yet'
p63
I379
sS'w+1=five'
p64
I175
sS'w+2=President'
p65
I218
sS'w+1=government'
p66
I176
sS'w+1=then'
p67
I199
sS'w-2=effort'
p68
I332
sS'w-2=that'
p69
I362
sS'w+1=the'
p70
I198
sS'xcomp=comply'
p71
I390
sS'advmod=hopefully'
p72
I5
sS'dobj=al-Nur'
p73
I54
sS'w+1=most'
p74
I188
sS'w+1=they'
p75
I200
sS'w+1=those'
p76
I201
sS'ccomp=true'
p77
I34
sS'nsubjpass=#PRP#'
p78
I116
sS'xcomp=grant'
p79
I402
sS'w+1=member'
p80
I187
sS'aux=would'
p81
I22
sS'w+1=IAEA'
p82
I144
sS'w-2=reason'
p83
I357
sS'w-2=leader'
p84
I344
sS'dobj=military'
p85
I76
sS'advmod=yet'
p86
I12
sS'nsubj=Amalia'
p87
I96
sS'prep=to'
p88
I133
sS'w+2=Pakistan'
p89
I217
sS'w-2=Korea'
p90
I310
sS'w-2=impossible'
p91
I340
sS'w-1=still'
p92
I298
sS'w+1=and'
p93
I166
sS'w+1=Pyongyang'
p94
I155
sS'xcomp=come'
p95
I389
sS'w+2=hawker'
p96
I237
sS'nsubj=that'
p97
I112
sS'xcomp=pass'
p98
I415
sS'acomp=senegalese'
p99
I0
sS'w-2=unable'
p100
I369
sS'dep=and'
p101
I49
sS'w-1=in'
p102
I291
sS'xcomp=act'
p103
I383
sS'xcomp=support'
p104
I428
sS'conj=hopeful'
p105
I44
sS'nsubj=group'
p106
I103
sS'w+2=customer'
p107
I228
sS'ccomp=work'
p108
I38
sS'w-2=Asian'
p109
I307
sS'w+1=nation'
p110
I189
sS'w+2=supporter'
p111
I269
sS'mark=if'
p112
I93
sS'dobj=icc'
p113
I68
sS'w+1=Bout'
p114
I140
sS'w+2=pakistani'
p115
I259
sS'dobj=father'
p116
I62
sS'w+2=Attorney'
p117
I212
sS'xcomp=adopt'
p118
I384
sS'xcomp=invest'
p119
I408
sS'w+2=former'
p120
I235
sS'w-2=instrumental'
p121
I343
sS'xcomp=ease'
p122
I396
sS'xcomp=stop'
p123
I427
sS'ccomp=want'
p124
I36
sS'nsubj=way'
p125
I115
sS'dobj=country'
p126
I57
sS'dobj=people'
p127
I81
sS'nsubj=argument'
p128
I100
sS'xcomp=allow'
p129
I386
sS'w-2=or'
p130
I352
sS'w-2=progress'
p131
I356
sS'w+1=elect'
p132
I173
sS'nsubj=member'
p133
I106
sS'w-1=time'
p134
I299
sS'w-2=can'
p135
I321
sS'w-1=Amalia'
p136
I276
sS'dobj=#PRP#'
p137
I51
sS'w-2=do'
p138
I330
sS'xcomp=resolve'
p139
I421
sS'nsubj=Annan'
p140
I97
sS'nsubjpass=Leahy'
p141
I119
sS'nsubj=assurance'
p142
I101
sS'w+1=you'
p143
I205
sS'w+2=outspoken'
p144
I258
sS'w+2=citizen'
p145
I225
sS'xcomp=put'
p146
I418
sS'w-2=Tuesday'
p147
I313
sS'ccomp=give'
p148
I29
sS'w-2=take'
p149
I361
sS'xcomp=step'
p150
I425
sS'w+1=young'
p151
I206
sS'w+1=he'
p152
I178
sS'w+1=Israel'
p153
I146
sS'w-1=Nations'
p154
I277
sS'dobj=friend'
p155
I63
sS'dobj=many'
p156
I74
sS'w-2=Russia'
p157
I312
sS'xcomp=participate'
p158
I414
sS'xcomp=honor'
p159
I406
sS'w-1=with'
p160
I302
sS'auxpass=be'
p161
I23
sS'w-2=continue'
p162
I324
sS'w-2=aim'
p163
I315
sS'w-1=yet'
p164
I303
sS'xcomp=live'
p165
I411
sS'xcomp=disarm'
p166
I394
sS'w+1=we'
p167
I204
sS'w-2=together'
p168
I366
sS'w-1=maybe'
p169
I292
sS'dobj=leader'
p170
I71
sS'parataxis=say'
p171
I124
sS'w-2=problem'
p172
I355
sS'w+2=return'
p173
I266
sS'w+2=state'
p174
I268
sS'w+1=burma'
p175
I167
sS'conj=think'
p176
I46
sS'w+1=North'
p177
I152
sS'xcomp=curb'
p178
I391
sS'w-2=argument'
p179
I318
sS'w-2=manage'
p180
I346
sS'advmod=still'
p181
I9
sS'nsubj=president'
p182
I109
sS'w+2=Robert'
p183
I219
sS'nsubj=Korea'
p184
I99
sS'xcomp=return'
p185
I422
sS'csubj=can'
p186
I47
sS'w-2=must'
p187
I349
sS'xcomp=reconsider'
p188
I420
sS'conj=argue'
p189
I40
sS'nsubj=effort'
p190
I102
sS'xcomp=turn'
p191
I431
sS'advmod=maybe'
p192
I6
sS'w+1=its'
p193
I181
sS'ccomp=crucial'
p194
I28
sS'w+1=Colombo'
p195
I142
sS'w+1=Kabul'
p196
I147
sS'w+2=public'
p197
I264
sS'w-2=company'
p198
I323
sS'xcomp=leave'
p199
I410
sS'w+2=official'
p200
I255
sS'dobj=government'
p201
I64
sS'w+2=of'
p202
I254
sS'w-2=carrier'
p203
I322
sS'advmod=sometimes'
p204
I8
sS'dobj=graduate'
p205
I65
sS'w+2=on'
p206
I256
sS'w+1=to'
p207
I202
sS'w-2=Koreans'
p208
I311
sS'w-1=and'
p209
I279
sS'w+2=Khartoum'
p210
I214
sS'prep=into'
p211
I130
sS'w+1=PMDC'
p212
I153
sS'w-1=besides'
p213
I282
sS'cc=or'
p214
I26
sS'w+2=Iranians'
p215
I213
sS'w+1=Zimbabwe'
p216
I161
sS'w-2=credit'
p217
I327
sS'ccomp=safe'
p218
I30
sS'w-1=finally'
p219
I286
sS'dobj=percentage'
p220
I82
sS'xcomp=help'
p221
I404
sS'w+2=man'
p222
I249
sS'dobj=those'
p223
I87
sS'dobj=Korea'
p224
I53
sS'xcomp=meet'
p225
I412
sS'w-2=work'
p226
I375
sS'dobj=donor'
p227
I60
sS'w-2=fail'
p228
I334
sS'w+1=international'
p229
I179
sS'xcomp=accept'
p230
I382
sS'w-2=counsel'
p231
I326
sS'w-2=would'
p232
I377
sS'xcomp=risk'
p233
I423
sS'w+2=people'
p234
I262
sS'ccomp=vote'
p235
I35
sS'dobj=public'
p236
I83
sS'w+2=father'
p237
I234
sS'w-2=might'
p238
I348
sS'w+2=revenge'
p239
I267
sS'w+1=Sunni'
p240
I159
sS'xcomp=agree'
p241
I385
sS'dobj=husband'
p242
I67
sS'w-2=lie'
p243
I345
sS'xcomp=attend'
p244
I388
sS'w+1=juror'
p245
I183
sS'aux=do'
p246
I16
sS'w-1=particular'
p247
I295
sS'w+2=local'
p248
I248
sS'w+2=Mugabe'
p249
I216
sS'aux=will'
p250
I21
sS'w+2=another'
p251
I222
sS'advmod=finally'
p252
I4
sS'w+1=Tehran'
p253
I160
sS'xcomp=suspend'
p254
I429
sS'w+2=its'
p255
I245
sS'w+1=developed'
p256
I171
sS'nsubjpass=lawmaker'
p257
I122
sS'w-2=in'
p258
I341
sS'nsubj=service'
p259
I111
sS'xcomp=drop'
p260
I395
sS'dobj=member'
p261
I75
sS'w-2=effective'
p262
I331
sS'nsubjpass=Koreans'
p263
I118
sS'xcomp=halt'
p264
I403
sS'ccomp=shut'
p265
I31
sS'w+1=tribe'
p266
I203
sS'w+1=Sudan'
p267
I157
sS'nsubj=Association'
p268
I98
sS'advmod=also'
p269
I2
sS'nsubjpass=faction'
p270
I121
sS'w-2=hard'
p271
I335
sS'w-1=peacefully'
p272
I296
sS'w+2=icc'
p273
I239
sS'w+1=non-signatory'
p274
I190
sS'ccomp=stop'
p275
I32
sS'nsubjpass=who'
p276
I123
sS'w-2=have'
p277
I336
sS'xcomp=take'
p278
I430
sS'cc=and'
p279
I24
sS'w+2=interim'
p280
I240
sS'w+1=by'
p281
I168
sS'ccomp=wise'
p282
I37
sS'dobj=moderate'
p283
I78
sS"w+2='s"
p284
I208
sS'xcomp=include'
p285
I407
sS'w+2=Korea'
p286
I215
sS'xcomp=end'
p287
I397
sS'dobj=hawker'
p288
I66
sS'dobj=entity'
p289
I61
sS'w-2=way'
p290
I372
sS'w+2=party'
p291
I261
sS'w+1=it'
p292
I180
sS'dobj=that'
p293
I86
sS'nsubj=#PRP#'
p294
I95
sS'w+1=Iran'
p295
I145
sS'w+1=Sudanese'
p296
I158
sS'w+1=America'
p297
I139
sS'dobj=supporter'
p298
I85
sS'cc=but'
p299
I25
sS'w-2=role'
p300
I358
sS'w+1=Ms.'
p301
I151
sS'w+2=burmese'
p302
I224
sS'nsubj=presence'
p303
I108
sS'w-1=help'
p304
I290
sS'aux=could'
p305
I15
sS'w+1=graduate'
p306
I177
sS'conj=tarnish'
p307
I45
sS'dobj=vocal'
p308
I89
sS'dobj=state'
p309
I84
sS'mark=before'
p310
I92
sS'aux=must'
p311
I19
sS'w-2=authority'
p312
I319
sS'conj=bout'
p313
I41
sS'w-1=group'
p314
I288
sS'w-2=be'
p315
I320
sS'prep=of'
p316
I131
sS'w-2=diplomacy'
p317
I329
sS'prep=on'
p318
I132
sS'prep=accord'
p319
I125
sS'tmod=Democrats'
p320
I135
sS'nsubjpass=Gore'
p321
I117
sS'conj=come'
p322
I42
sS'dobj=burma'
p323
I55
sS'xcomp=enter'
p324
I398
sS'w-1=eventually'
p325
I285
sS'dobj=citizen'
p326
I56
sS'xcomp=highlight'
p327
I405
sS'w+1=all'
p328
I165
sS'w-1=to'
p329
I300
sS'w+2=tostop'
p330
I272
sS'nsubj=manufacturer'
p331
I105
sS'w+1=Hamas'
p332
I143
sS'advcl=offer'
p333
I1
sS'w+2=most'
p334
I252
sS'prep=base'
p335
I127
sS'w-2=want'
p336
I371
sS'nsubj=tour'
p337
I114
sS'w+1=donor'
p338
I172
sS'w+1=develop'
p339
I170
sS'w+2=Zia'
p340
I220
sS'w-2=could'
p341
I325
sS'w-2=influence'
p342
I342
sS'w-2=to'
p343
I365
sS'w+1=zanu-pf'
p344
I207
sS'w-2=and'
p345
I317
sS'xcomp=express'
p346
I399
sS'w+2=member'
p347
I250
sS'xcomp=pay'
p348
I416
sS'nsubj=problem'
p349
I110
sS'w+1=private'
p350
I193
sS'w-2=try'
p351
I368
sS'w-2=worker'
p352
I376
sS'w-2=enough'
p353
I333
sS'w-2=he'
p354
I337
sS'dobj=customer'
p355
I58
sS'w+2=join'
p356
I246
sS'w+2=everything'
p357
I233
sS'xcomp=go'
p358
I401
sS'w-2=possible'
p359
I354
sS'nsubj=those'
p360
I113
sS'prep=at'
p361
I126
sS'w-2=will'
p362
I374
sS'advmod=peacefully'
p363
I7
sS'dobj=investor'
p364
I69
sS'w-2=,'
p365
I304
sS'xcomp=stick'
p366
I426
sS'w+2=leader'
p367
I247
sS'w+2=elderly'
p368
I230
sS'advmod=unfortunately'
p369
I11
sS'w-1=;'
p370
I275
sS'aux=have'
p371
I17
sS'w-1=,'
p372
I274
sS'w-2=not'
p373
I350
sS'w-2=now'
p374
I351
sS'w+1=african'
p375
I163
sS'w-2=I'
p376
I309
sS'w+2=Arab'
p377
I211
sS'dobj=leadership'
p378
I72
sS'w+2=investor'
p379
I241
sS'w+1=japanese'
p380
I182
sS'w+2=participate'
p381
I260
sS'xcomp=disable'
p382
I393
sS'w+1=Meshaal'
p383
I149
sS'w-2=ASEAN'
p384
I306
sS'w-2=triumph'
p385
I367
sS'xcomp=provide'
p386
I417
sS'w+1=many'
p387
I186
sS'w-2=member'
p388
I347
sS'w-2=advertising'
p389
I314
sS'w+2=donor'
p390
I229
sS'w+1=Somalia'
p391
I156
sS'w+2=grow'
p392
I236
sS'w+2=they'
p393
I270
sS'w+1=President'
p394
I154
sS'w+1=China'
p395
I141
sS'ccomp=tostop'
p396
I33
sS'w-1=must'
p397
I293
sS'w-2=year'
p398
I378
sS'w+1=enough'
p399
I174
sS'nsubjpass=agency'
p400
I120
sS'w+2=husband'
p401
I238
sS'dep=harm'
p402
I50
sS'xcomp=delay'
p403
I392
sS'xcomp=nurture'
p404
I413
sS'w-2=successful'
p405
I360
sS'dobj=minister'
p406
I77
sS'dobj=zanu-pf'
p407
I90
sS'w+2=authority'
p408
I223
sS'prep=without'
p409
I134
sS'w+2=other'
p410
I257
sS'w-2=help'
p411
I338
sS'w-2=underway'
p412
I370
sS'w-2=struggle'
p413
I359
sS'aux=to'
p414
I20
sS'w-2=you'
p415
I380
sS'dobj=man'
p416
I73
sS'w+1=such'
p417
I196
sS'w+1=leader'
p418
I185
sS'w-1=form'
p419
I287
sS'tmod=week'
p420
I136
sS'w+1=.'
p421
I137
sS'w+2=entity'
p422
I232
sS'w+2=.'
p423
I210
sS'w+2=,'
p424
I209
sS'w+1=:'
p425
I138
sS'neg=not'
p426
I94
sS'w+2=recognize'
p427
I265
sS'prep=during'
p428
I129
sS'dobj=democrat'
p429
I59
sS'w+1=key'
p430
I184
sS'w+1=Mr.'
p431
I150
sS'ccomp=come'
p432
I27
sS'dobj=nation'
p433
I79
sS'w+1=a'
p434
I162
sS'w-1=not'
p435
I294
sS'w-2=difficult'
p436
I328
sS'w-1=at'
p437
I280
sS'aux=be'
p438
I13
sS'w+2=a'
p439
I221
ssS'dtype'
p440
cnumpy
float64
p441
sS'feature_names_'
p442
(lp443
g99
ag333
ag269
ag36
ag252
ag72
ag192
ag363
ag204
ag181
ag8
ag369
ag86
ag438
ag59
ag305
ag246
ag371
ag45
ag311
ag414
ag250
ag81
ag161
ag279
ag299
ag214
ag432
ag194
ag148
ag218
ag265
ag275
ag396
ag77
ag235
ag124
ag282
ag108
ag60
ag189
ag313
ag322
ag52
ag105
ag307
ag176
ag186
ag12
ag101
ag402
ag137
ag16
ag224
ag73
ag323
ag326
ag126
ag355
ag429
ag227
ag289
ag116
ag155
ag201
ag205
ag288
ag242
ag113
ag364
ag28
ag170
ag378
ag416
ag156
ag261
ag85
ag406
ag283
ag433
ag14
ag127
ag220
ag236
ag309
ag298
ag293
ag223
ag13
ag308
ag407
ag44
ag310
ag112
ag426
ag294
ag87
ag140
ag268
ag184
ag128
ag142
ag190
ag106
ag20
ag331
ag133
ag9
ag303
ag182
ag349
ag259
ag97
ag360
ag337
ag125
ag78
ag321
ag263
ag141
ag400
ag270
ag257
ag276
ag171
ag319
ag361
ag335
ag19
ag428
ag211
ag316
ag318
ag88
ag409
ag320
ag420
ag421
ag425
ag297
ag114
ag395
ag195
ag332
ag82
ag295
ag153
ag196
ag34
ag383
ag431
ag301
ag177
ag212
ag394
ag94
ag391
ag267
ag296
ag240
ag253
ag216
ag434
ag375
ag15
ag328
ag93
ag175
ag281
ag27
ag339
ag256
ag338
ag132
ag399
ag64
ag66
ag306
ag152
ag229
ag292
ag193
ag380
ag245
ag430
ag418
ag387
ag80
ag74
ag110
ag274
ag47
ag62
ag350
ag43
ag39
ag417
ag22
ag70
ag67
ag75
ag76
ag207
ag266
ag167
ag143
ag151
ag344
ag284
ag424
ag423
ag377
ag117
ag215
ag210
ag286
ag249
ag89
ag65
ag183
ag340
ag439
ag251
ag408
ag302
ag145
ag51
ag46
ag107
ag390
ag368
ag29
ag422
ag357
ag237
ag120
ag392
ag96
ag401
ag273
ag280
ag379
ag61
ag42
ag53
ag255
ag356
ag367
ag248
ag222
ag347
ag37
ag334
ag21
ag202
ag200
ag206
ag410
ag144
ag115
ag381
ag291
ag234
ag24
ag197
ag427
ag173
ag239
ag174
ag111
ag393
ag49
ag330
ag55
ag372
ag370
ag136
ag154
ag58
ag209
ag437
ag35
ag213
ag26
ag56
ag325
ag219
ag419
ag314
ag50
ag304
ag102
ag169
ag397
ag435
ag247
ag272
ag25
ag92
ag134
ag329
ag31
ag160
ag164
ag365
ag48
ag384
ag109
ag10
ag376
ag90
ag208
ag157
ag147
ag389
ag163
ag41
ag345
ag179
ag312
ag315
ag135
ag203
ag198
ag162
ag341
ag231
ag217
ag436
ag317
ag138
ag262
ag68
ag353
ag228
ag271
ag277
ag354
ag411
ag54
ag91
ag258
ag342
ag121
ag84
ag243
ag180
ag388
ag238
ag187
ag373
ag374
ag130
ag18
ag359
ag172
ag131
ag83
ag300
ag413
ag405
ag149
ag69
ag38
ag17
ag343
ag168
ag385
ag351
ag100
ag412
ag336
ag290
ag11
ag362
ag226
ag352
ag232
ag398
ag63
ag415
ag32
ag230
ag103
ag118
ag241
ag129
ag23
ag244
ag95
ag71
ag178
ag403
ag382
ag166
ag260
ag122
ag287
ag324
ag346
ag40
ag358
ag79
ag264
ag221
ag327
ag159
ag285
ag119
ag33
ag199
ag165
ag225
ag404
ag158
ag98
ag348
ag386
ag146
ag57
ag188
ag139
ag185
ag233
ag30
ag150
ag366
ag123
ag104
ag254
ag278
ag191
asS'separator'
p444
S'='
sS'sparse'
p445
I01
sb.