ccopy_reg
_reconstructor
p1
(csklearn.feature_extraction.dict_vectorizer
DictVectorizer
p2
c__builtin__
object
p3
NtRp4
(dp5
S'vocabulary_'
p6
(dp7
S'aux=have'
p8
I42
sS'det=no'
p9
I89
sS'w-2=we'
p10
I475
sS'conj=alarm'
p11
I60
sS'w-1=pleasantly'
p12
I373
sS'w+2=indeed'
p13
I282
sS'w-2=level'
p14
I440
sS'w+2=but'
p15
I259
sS'w-2=election'
p16
I427
sS'w-2=Mogadishu'
p17
I399
sS'w-1=shell'
p18
I380
sS'w+1=therapy'
p19
I229
sS'w-1=complete'
p20
I346
sS'w-1=economic'
p21
I352
sS'w-2=they'
p22
I466
sS'dobj=country'
p23
I102
sS'w+2=nation'
p24
I288
sS'w-2=country'
p25
I422
sS'w+1=that'
p26
I227
sS'dobj=world'
p27
I111
sS'w-2=some'
p28
I459
sS'conj=sadden'
p29
I75
sS'w+2=experience'
p30
I269
sS'w+2=humble'
p31
I281
sS'ccomp=know'
p32
I54
sS'w+1=result'
p33
I222
sS'w-2=North'
p34
I401
sS'w-1=huge'
p35
I360
sS'w-1=initial'
p36
I362
sS'advmod=really'
p37
I18
sS'w-2=from'
p38
I432
sS'w-1=clash'
p39
I345
sS'amod=big'
p40
I23
sS'advmod=just'
p41
I13
sS'w+2=disbelief'
p42
I266
sS'advmod=definitely'
p43
I12
sS'w+2=high'
p44
I279
sS'w-1=be'
p45
I339
sS'w-1=price'
p46
I376
sS'w-2=the'
p47
I465
sS'w+1=she'
p48
I224
sS'w-2=why'
p49
I478
sS'advcl=come'
p50
I3
sS'w-1=attempt'
p51
I338
sS'nsubj=#PRP#'
p52
I123
sS'nsubj=what'
p53
I149
sS'w-2=anti-immigration'
p54
I413
sS'nn=credit'
p55
I117
sS'nsubj=clash'
p56
I133
sS'w+2=Europeans'
p57
I242
sS'w+1=attack'
p58
I205
sS'w+2=country'
p59
I265
sS'amod=huge'
p60
I31
sS'w+1=of'
p61
I217
sS'dobj=supporter'
p62
I110
sS'w+2=to'
p63
I312
sS'w+1=on'
p64
I218
sS'w+2=first'
p65
I271
sS'nsubj=Mogadishu'
p66
I128
sS'w-1=some'
p67
I382
sS'w-1=its'
p68
I364
sS'w-1=have'
p69
I358
sS'partmod=cause'
p70
I166
sS'w-1=culture'
p71
I350
sS'nsubj=change'
p72
I132
sS'w+2=why'
p73
I321
sS'w+2=what'
p74
I317
sS'w+2=it'
p75
I283
sS'xcomp=see'
p76
I486
sS'w+2=find'
p77
I270
sS'nsubj=closure'
p78
I134
sS'w-1=totally'
p79
I388
sS'w-1=also'
p80
I334
sS'aux=can'
p81
I39
sS'complm=that'
p82
I59
sS'w-1=really'
p83
I377
sS'w-1=arrest'
p84
I336
sS'advmod=at'
p85
I10
sS'conj=sexual'
p86
I76
sS'w+2=alarm'
p87
I250
sS'w+2=world'
p88
I322
sS'w-1=murder'
p89
I367
sS'w+2=officer'
p90
I292
sS'ccomp=cut'
p91
I52
sS'w-2=hemorrhaging'
p92
I436
sS'nn=heat'
p93
I119
sS'w+2=by'
p94
I260
sS'conj=unwarranted'
p95
I79
sS'conj=awe'
p96
I61
sS'rcmod=receive'
p97
I186
sS'w-2=for'
p98
I431
sS'w+2=be'
p99
I257
sS'w-1=atrocity'
p100
I337
sS'dobj=Society'
p101
I97
sS'amod=economic'
p102
I27
sS'nsubjpass=#PRP#'
p103
I151
sS'prep=in'
p104
I175
sS'aux=would'
p105
I45
sS'w-1=Putin'
p106
I331
sS'w+1=for'
p107
I210
sS'w-1=absorb'
p108
I333
sS'conj=form'
p109
I69
sS'dobj=officer'
p110
I105
sS'nsubj=scale'
p111
I146
sS'rcmod=topple'
p112
I187
sS'w-2=hide'
p113
I437
sS'w-1=global'
p114
I357
sS'prep=to'
p115
I181
sS'advmod=ago'
p116
I8
sS'w+1=and'
p117
I202
sS'w-2=she'
p118
I455
sS'rcmod=cause'
p119
I183
sS'w+2=how'
p120
I280
sS'dep=yes'
p121
I87
sS'conj=flood'
p122
I67
sS'advmod=probably'
p123
I17
sS'w+1=reluctant'
p124
I220
sS'nsubjpass=alaskan'
p125
I157
sS'w+2=for'
p126
I273
sS'nsubj=that'
p127
I148
sS'w+2=pour'
p128
I298
sS'w-2=Yudhoyono'
p129
I408
sS'w+2=heart'
p130
I276
sS'w+2=these'
p131
I308
sS'parataxis=be'
p132
I164
sS'w+2=we'
p133
I316
sS'w-2=sign'
p134
I456
sS'w+1=emanate'
p135
I209
sS'conj=be'
p136
I62
sS'dobj=resident'
p137
I108
sS'w-1=the'
p138
I385
sS'w+2=supporter'
p139
I306
sS'w-2=change'
p140
I420
sS'w-2=send'
p141
I452
sS'amod=electric'
p142
I28
sS'w+2=not'
p143
I290
sS'w-1=big'
p144
I340
sS'w+2=when'
p145
I318
sS'nsubj=news'
p146
I141
sS'dobj=city'
p147
I101
sS'dep=say'
p148
I84
sS'w+1=have'
p149
I211
sS'amod=external'
p150
I29
sS'det=the'
p151
I92
sS'w-2=gunman'
p152
I433
sS'prep=by'
p153
I173
sS'w-2=through'
p154
I469
sS'prep=include'
p155
I176
sS'dobj=Europeans'
p156
I95
sS'w+2=see'
p157
I303
sS'w-2=of'
p158
I447
sS'ccomp=add'
p159
I50
sS'w+2=sadden'
p160
I302
sS'partmod=result'
p161
I168
sS'w+2=more'
p162
I287
sS'nsubj=party'
p163
I142
sS'dobj=#PRP#'
p164
I93
sS'advmod=visibly'
p165
I22
sS'w-2=do'
p166
I426
sS'nsubj=pledge'
p167
I143
sS'nsubj=survey'
p168
I147
sS'w+1=you'
p169
I235
sS'w-2=colleague'
p170
I421
sS'w-2=serve'
p171
I453
sS'w-1=it'
p172
I363
sS'w+2=can'
p173
I261
sS'prep=over'
p174
I180
sS'w+1=as'
p175
I203
sS'w-2=survey'
p176
I463
sS'w+1=at'
p177
I204
sS'w+1=he'
p178
I212
sS'w+2=all'
p179
I251
sS'nsubj=arrest'
p180
I131
sS'w-1=post-traumatic'
p181
I374
sS'nsubj=election'
p182
I137
sS'w-1=can'
p183
I342
sS'nsubj=image'
p184
I139
sS'tmod=today'
p185
I189
sS'ccomp=be'
p186
I51
sS'w+2=heavy'
p187
I277
sS'det=some'
p188
I90
sS'w+2=December'
p189
I240
sS'w-1=with'
p190
I391
sS'nsubj=result'
p191
I145
sS'nsubjpass=States'
p192
I155
sS'prep=for'
p193
I174
sS'dobj=authority'
p194
I100
sS'w+2=cell'
p195
I262
sS'w+1=we'
p196
I233
sS'w-2=disability'
p197
I425
sS'dobj=Ethiopians'
p198
I94
sS'w+2=at'
p199
I255
sS'w+2=London'
p200
I246
sS'w+2=as'
p201
I254
sS'w-1=much'
p202
I366
sS'w-2=Mr.'
p203
I400
sS'w-1=Korea'
p204
I330
sS'w-1=in'
p205
I361
sS'w-1=social'
p206
I381
sS'auxpass=be'
p207
I46
sS'nn=Dubai'
p208
I115
sS'w-1=party'
p209
I372
sS'amod=complete'
p210
I24
sS'w-2=assassination'
p211
I415
sS'w-2=provoke'
p212
I451
sS'dobj=West'
p213
I99
sS'w-2=alaskan'
p214
I411
sS'conj=step'
p215
I77
sS'aux=will'
p216
I44
sS'rcmod=experience'
p217
I184
sS'advmod=much'
p218
I14
sS'w-1=final'
p219
I356
sS'nsubj=Korea'
p220
I126
sS'w-1=definitely'
p221
I351
sS'amod=cultural'
p222
I26
sS'nsubj=Johnson'
p223
I125
sS'w-2=expression'
p224
I429
sS'nsubjpass=university'
p225
I163
sS'prep=of'
p226
I178
sS'w+2=she'
p227
I305
sS'conj=disbelief'
p228
I64
sS'conj=unexpected'
p229
I78
sS'w+2=Ledger'
p230
I245
sS'w+2=Ethiopians'
p231
I241
sS'w-2=Holocaust'
p232
I397
sS"w-1=''"
p233
I324
sS'advcl=attack'
p234
I2
sS'conj=humble'
p235
I72
sS'w+2=trauma'
p236
I313
sS'w-2=Iraqis'
p237
I398
sS'w-1=Johnson'
p238
I329
sS'w+2=public'
p239
I299
sS'nsubjpass=Italians'
p240
I153
sS'nsubj=Putin'
p241
I129
sS'w-2=soil'
p242
I458
sS'w+2=or'
p243
I293
sS"w-2=''"
p244
I393
sS'w+2=of'
p245
I291
sS'w-2=skeletal'
p246
I457
sS'conj=feel'
p247
I66
sS'w+1=to'
p248
I230
sS'w-2=oil'
p249
I448
sS'det=that'
p250
I91
sS'rcmod=accelerate'
p251
I182
sS'w-1=and'
p252
I335
sS'prep=into'
p253
I177
sS'conj=have'
p254
I70
sS'nn=culture'
p255
I118
sS'w-2=ultimatum'
p256
I471
sS'w+2=just'
p257
I284
sS'w+2=american'
p258
I252
sS'tmod=weekend'
p259
I190
sS"w-2='s"
p260
I394
sS'conj=fatigue'
p261
I65
sS'advcl=have'
p262
I6
sS'w+2=from'
p263
I274
sS'w-1=external'
p264
I355
sS'nsubj=recognition'
p265
I144
sS'parataxis=see'
p266
I165
sS'w+2=discomfort'
p267
I267
sS'w-2=no'
p268
I446
sS'amod=potential'
p269
I35
sS'nsubj=Iraqis'
p270
I124
sS'w-2=state'
p271
I460
sS'w-2=bewilderment'
p272
I418
sS'advmod=ultimately'
p273
I21
sS'w-2=mission'
p274
I442
sS'nsubj=murder'
p275
I140
sS'w+1=over'
p276
I219
sS'w-2=would'
p277
I481
sS'w+2=those'
p278
I311
sS'tmod=day'
p279
I188
sS'w+2=this'
p280
I310
sS'w+1=cause'
p281
I207
sS'w-2=which'
p282
I477
sS'nn=oil'
p283
I121
sS'nn=blast'
p284
I116
sS'nsubj=defection'
p285
I136
sS'w+2=unit'
p286
I315
sS'w+2=both'
p287
I258
sS'aux=do'
p288
I41
sS'ccomp=violence'
p289
I58
sS'w-2=with'
p290
I480
sS'advcl=place'
p291
I7
sS'w+2=many'
p292
I286
sS'dep=tingle'
p293
I86
sS'expl=there'
p294
I112
sS'w-1=blast'
p295
I341
sS'cc=or'
p296
I49
sS'w-2=still'
p297
I461
sS'w-2=fear'
p298
I430
sS'w-1=open'
p299
I371
sS'w+2=receive'
p300
I300
sS'w-2=Watson'
p301
I407
sS'w+2=rule'
p302
I301
sS'w-1=result'
p303
I378
sS'w-2=in'
p304
I438
sS'conj=like'
p305
I73
sS'w-2=nation'
p306
I445
sS'w+1=resident'
p307
I221
sS'w-2=Operation'
p308
I402
sS'nsubjpass=number'
p309
I161
sS'w-1=settlement'
p310
I379
sS'w-2=parliament'
p311
I450
sS'nsubjpass=nation'
p312
I160
sS'advmod=totally'
p313
I20
sS'w-2=sharp'
p314
I454
sS'nsubj=horror'
p315
I138
sS"w+2=''"
p316
I236
sS'w+1=Sudan'
p317
I197
sS'conj=change'
p318
I63
sS'conj=postpone'
p319
I74
sS'nsubjpass=UNHCR'
p320
I156
sS'xcomp=receive'
p321
I485
sS'advmod=pleasantly'
p322
I16
sS'ccomp=suffering'
p323
I56
sS'amod=shell'
p324
I36
sS'amod=considerable'
p325
I25
sS'w-2=Hollywood'
p326
I396
sS'w-2=States'
p327
I404
sS'w+2=need'
p328
I289
sS'w-1=these'
p329
I386
sS'w-2=have'
p330
I434
sS'cc=and'
p331
I47
sS'w+1=by'
p332
I206
sS'nsubjpass=mission'
p333
I159
sS'amod=final'
p334
I30
sS'w-2=what'
p335
I476
sS"w+2='s"
p336
I237
sS'w+1=if'
p337
I213
sS'w+1=senior'
p338
I223
sS'nn=price'
p339
I122
sS'w+1=in'
p340
I214
sS'nsubjpass=Italy'
p341
I154
sS'w+1=about'
p342
I199
sS'advmod=also'
p343
I9
sS"w+1=''"
p344
I192
sS'w+1=trauma'
p345
I231
sS'cc=but'
p346
I48
sS'advmod=still'
p347
I19
sS'poss=#PRP#'
p348
I169
sS'w-1=credit'
p349
I348
sS'w-1=electric'
p350
I353
sS'aux=could'
p351
I40
sS'w-2=President'
p352
I403
sS'w+2=hemorrhage'
p353
I278
sS'amod=open'
p354
I33
sS'w-2=suffer'
p355
I462
sS'w-2=begin'
p356
I417
sS'advmod=back'
p357
I11
sS'w-2=boundary'
p358
I419
sS'dobj=Jerusalemites'
p359
I96
sS'advcl=do'
p360
I4
sS'w-2=my'
p361
I444
sS'dep=mayor'
p362
I83
sS'w+2=which'
p363
I319
sS'w-2=be'
p364
I416
sS'nsubjpass=staff'
p365
I162
sS"w+1='"
p366
I191
sS'rcmod=need'
p367
I185
sS'amod=such'
p368
I37
sS'w-1=heat'
p369
I359
sS'w-1=withstand'
p370
I392
sS'prep=on'
p371
I179
sS'w-1=considerable'
p372
I347
sS'nsubj=which'
p373
I150
sS'w-2=pain'
p374
I449
sS'amod=post-traumatic'
p375
I34
sS'w+2=awe'
p376
I256
sS'w+2=accelerate'
p377
I249
sS'w+2=evidence'
p378
I268
sS'w-1=to'
p379
I387
sS'nn=hemorrhaging'
p380
I120
sS'w-2=UNHCR'
p381
I405
sS'amod=initial'
p382
I32
sS'dep=take'
p383
I85
sS'w+2=.'
p384
I239
sS'w-1=war'
p385
I390
sS'w-1=child'
p386
I344
sS'w-1=cultural'
p387
I349
sS'w-2=debate'
p388
I424
sS'w-1=leader'
p389
I365
sS'w-1=express'
p390
I354
sS'w-1=of'
p391
I369
sS'w-2=to'
p392
I470
sS'w+2=and'
p393
I253
sS'w-2=and'
p394
I412
sS'neg=not'
p395
I114
sS'w+2=civilized'
p396
I264
sS'cop=be'
p397
I81
sS'nsubj=allegation'
p398
I130
sS'advmod=obviously'
p399
I15
sS'w+2=korean'
p400
I285
sS'advcl=announce'
p401
I1
sS'w+2=fledgling'
p402
I272
sS'w+2=city'
p403
I263
sS'w+2=the'
p404
I307
sS'prep=at'
p405
I172
sS'w-2=will'
p406
I479
sS'prep=as'
p407
I171
sS'w-2=,'
p408
I395
sS'w-1=:'
p409
I327
sS'w-2=Union'
p410
I406
sS'w-2=thing'
p411
I467
sS'w-1=.'
p412
I326
sS'w-1=,'
p413
I325
sS'w-1=Dubai'
p414
I328
sS'w+1=african'
p415
I201
sS'w-2=as'
p416
I414
sS'w-2=leave'
p417
I439
sS'prep=about'
p418
I170
sS'ccomp=target'
p419
I57
sS'nsubjpass=country'
p420
I158
sS'w-2=`'
p421
I409
sS'w-2=a'
p422
I410
sS'w-2=look'
p423
I441
sS'w+2=West'
p424
I248
sS'w-1=oil'
p425
I370
sS'w+2=ultimately'
p426
I314
sS'det=a'
p427
I88
sS'w-1=a'
p428
I332
sS'w+2=police'
p429
I297
sS'w-2=he'
p430
I435
sS'xcomp=hear'
p431
I484
sS'w+1=many'
p432
I215
sS'dobj=heart'
p433
I103
sS'w+1=Degania'
p434
I195
sS'w+2=personally'
p435
I296
sS'w-2=very'
p436
I473
sS'partmod=emanate'
p437
I167
sS'w+2=they'
p438
I309
sS'w-1=such'
p439
I383
sS'nsubj=Malaysia'
p440
I127
sS'w+1=wave'
p441
I232
sS'w-2=year'
p442
I482
sS'xcomp=find'
p443
I483
sS'w+2=have'
p444
I275
sS'w+1=north'
p445
I216
sS'nsubj=death'
p446
I135
sS'w+2=parent'
p447
I295
sS'w-2=move'
p448
I443
sS'advcl=happen'
p449
I5
sS'w-2=vulnerable'
p450
I474
sS'conj=visitor'
p451
I80
sS'w+1=absorber'
p452
I200
sS'w-1=cause'
p453
I343
sS'w-2=this'
p454
I468
sS'mark=since'
p455
I113
sS'conj=force'
p456
I68
sS'w-2=experience'
p457
I428
sS'w+2=other'
p458
I294
sS'w+2=sexual'
p459
I304
sS'w-2=create'
p460
I423
sS'w+1=when'
p461
I234
sS'acomp=many'
p462
I0
sS'aux=to'
p463
I43
sS'ccomp=fear'
p464
I53
sS'w+2=Society'
p465
I247
sS'w+2=would'
p466
I323
sS'w-2=university'
p467
I472
sS'w+1=such'
p468
I226
sS'dobj=some'
p469
I109
sS'conj=horrify'
p470
I71
sS'w+2=Jerusalemites'
p471
I244
sS'dep=hear'
p472
I82
sS'w+1=,'
p473
I193
sS'w+1=.'
p474
I194
sS'w-2=that'
p475
I464
sS'dobj=party'
p476
I106
sS'w+2=whip'
p477
I320
sS'w+1=some'
p478
I225
sS'w+2=,'
p479
I238
sS'w+1=the'
p480
I228
sS'dobj=Sudan'
p481
I98
sS'dobj=pioneer'
p482
I107
sS'w+1=I'
p483
I196
sS'w+1=do'
p484
I208
sS'w+2=I'
p485
I243
sS'dobj=nation'
p486
I104
sS'w+1=a'
p487
I198
sS'w-1=potential'
p488
I375
sS'w-1=not'
p489
I368
sS'w-1=visibly'
p490
I389
sS'ccomp=see'
p491
I55
sS'w-1=that'
p492
I384
sS'aux=be'
p493
I38
sS'nsubjpass=Aminikia'
p494
I152
ssS'dtype'
p495
cnumpy
float64
p496
sS'feature_names_'
p497
(lp498
g462
ag401
ag234
ag50
ag360
ag449
ag262
ag291
ag116
ag343
ag85
ag357
ag43
ag41
ag218
ag399
ag322
ag123
ag37
ag347
ag313
ag273
ag165
ag40
ag210
ag325
ag222
ag102
ag142
ag150
ag334
ag60
ag382
ag354
ag375
ag269
ag324
ag368
ag493
ag81
ag351
ag288
ag8
ag463
ag216
ag105
ag207
ag331
ag346
ag296
ag159
ag186
ag91
ag464
ag32
ag491
ag323
ag419
ag289
ag82
ag11
ag96
ag136
ag318
ag228
ag261
ag247
ag122
ag456
ag109
ag254
ag470
ag235
ag305
ag319
ag29
ag86
ag215
ag229
ag95
ag451
ag397
ag472
ag362
ag148
ag383
ag293
ag121
ag427
ag9
ag188
ag250
ag151
ag164
ag198
ag156
ag359
ag101
ag481
ag213
ag194
ag147
ag23
ag433
ag486
ag110
ag476
ag482
ag137
ag469
ag62
ag27
ag294
ag455
ag395
ag208
ag284
ag55
ag255
ag93
ag380
ag283
ag339
ag52
ag270
ag223
ag220
ag440
ag66
ag241
ag398
ag180
ag72
ag56
ag78
ag446
ag285
ag182
ag315
ag184
ag275
ag146
ag163
ag167
ag265
ag191
ag111
ag168
ag127
ag53
ag373
ag103
ag494
ag240
ag341
ag192
ag320
ag125
ag420
ag333
ag312
ag309
ag365
ag225
ag132
ag266
ag70
ag437
ag161
ag348
ag418
ag407
ag405
ag153
ag193
ag104
ag155
ag253
ag226
ag371
ag174
ag115
ag251
ag119
ag217
ag367
ag97
ag112
ag279
ag185
ag259
ag366
ag344
ag473
ag474
ag434
ag483
ag317
ag487
ag342
ag452
ag415
ag117
ag175
ag177
ag58
ag332
ag281
ag484
ag135
ag107
ag149
ag178
ag337
ag340
ag432
ag445
ag61
ag64
ag276
ag124
ag307
ag33
ag338
ag48
ag478
ag468
ag26
ag480
ag19
ag248
ag345
ag441
ag196
ag461
ag169
ag316
ag336
ag479
ag384
ag189
ag231
ag57
ag485
ag471
ag230
ag200
ag465
ag424
ag377
ag87
ag179
ag258
ag393
ag201
ag199
ag376
ag99
ag287
ag15
ag94
ag173
ag195
ag403
ag396
ag59
ag42
ag267
ag378
ag30
ag77
ag65
ag402
ag126
ag263
ag444
ag130
ag187
ag353
ag44
ag120
ag31
ag13
ag75
ag257
ag400
ag292
ag162
ag24
ag328
ag143
ag245
ag90
ag243
ag458
ag447
ag435
ag429
ag128
ag239
ag300
ag302
ag160
ag157
ag459
ag227
ag139
ag404
ag131
ag438
ag280
ag278
ag63
ag236
ag426
ag286
ag133
ag74
ag145
ag363
ag477
ag73
ag88
ag466
ag233
ag413
ag412
ag409
ag414
ag238
ag204
ag106
ag428
ag108
ag80
ag252
ag84
ag100
ag51
ag45
ag144
ag295
ag183
ag453
ag386
ag39
ag20
ag372
ag349
ag387
ag71
ag221
ag21
ag350
ag390
ag264
ag219
ag114
ag69
ag369
ag35
ag205
ag36
ag172
ag68
ag389
ag202
ag89
ag489
ag391
ag425
ag299
ag209
ag12
ag181
ag488
ag46
ag83
ag303
ag310
ag18
ag206
ag67
ag439
ag492
ag138
ag329
ag379
ag79
ag490
ag385
ag190
ag370
ag244
ag260
ag408
ag326
ag232
ag237
ag17
ag203
ag34
ag308
ag352
ag327
ag381
ag410
ag301
ag129
ag421
ag422
ag214
ag394
ag54
ag416
ag211
ag364
ag356
ag272
ag358
ag140
ag170
ag25
ag460
ag388
ag197
ag166
ag16
ag457
ag224
ag298
ag98
ag38
ag152
ag330
ag430
ag92
ag113
ag304
ag417
ag14
ag423
ag274
ag448
ag361
ag306
ag268
ag158
ag249
ag374
ag311
ag212
ag141
ag171
ag314
ag118
ag134
ag246
ag242
ag28
ag271
ag297
ag355
ag176
ag475
ag47
ag22
ag411
ag454
ag154
ag392
ag256
ag467
ag436
ag450
ag10
ag335
ag282
ag49
ag406
ag290
ag277
ag442
ag443
ag431
ag321
ag76
asS'separator'
p499
S'='
sS'sparse'
p500
I01
sb.