ccopy_reg
_reconstructor
p1
(csklearn.feature_extraction.dict_vectorizer
DictVectorizer
p2
c__builtin__
object
p3
NtRp4
(dp5
S'sort'
p6
I01
sS'feature_names_'
p7
(lp8
S'advcl=consider'
p9
aS'advcl=live'
p10
aS'advcl=show'
p11
aS'advmod=all'
p12
aS'advmod=along'
p13
aS'advmod=also'
p14
aS'advmod=especially'
p15
aS'advmod=even'
p16
aS'advmod=greatly'
p17
aS'advmod=highly'
p18
aS'advmod=just'
p19
aS'advmod=now'
p20
aS'advmod=still'
p21
aS'advmod=why'
p22
aS'amod=add'
p23
aS'amod=additional'
p24
aS'amod=american'
p25
aS'amod=australian'
p26
aS'amod=better'
p27
aS'amod=christian'
p28
aS'amod=civic'
p29
aS'amod=commercial'
p30
aS'amod=common'
p31
aS'amod=comparable'
p32
aS'amod=compelling'
p33
aS'amod=confidence-building'
p34
aS'amod=conservative'
p35
aS'amod=continue'
p36
aS'amod=critical'
p37
aS'amod=cultural'
p38
aS'amod=current'
p39
aS'amod=decline'
p40
aS'amod=democratic'
p41
aS'amod=ecological'
p42
aS'amod=equal'
p43
aS'amod=esthetic'
p44
aS'amod=excellent'
p45
aS'amod=fair'
p46
aS'amod=fall'
p47
aS'amod=financial'
p48
aS'amod=fluctuating'
p49
aS'amod=french'
p50
aS'amod=full'
p51
aS'amod=genetic'
p52
aS'amod=good'
p53
aS'amod=great'
p54
aS'amod=high'
p55
aS'amod=higher'
p56
aS'amod=highest'
p57
aS'amod=historical'
p58
aS'amod=human'
p59
aS'amod=immediate'
p60
aS'amod=inconsistent'
p61
aS'amod=little'
p62
aS'amod=lower'
p63
aS'amod=mean'
p64
aS'amod=moral'
p65
aS'amod=more'
p66
aS'amod=new'
p67
aS'amod=normal'
p68
aS'amod=nutritional'
p69
aS'amod=overall'
p70
aS'amod=own'
p71
aS'amod=philosophical'
p72
aS'amod=plummet'
p73
aS'amod=plunge'
p74
aS'amod=positive'
p75
aS'amod=potential'
p76
aS'amod=public'
p77
aS'amod=religious'
p78
aS'amod=same'
p79
aS'amod=scientific'
p80
aS'amod=secular'
p81
aS'amod=shared'
p82
aS'amod=social'
p83
aS'amod=spiritual'
p84
aS'amod=statistical'
p85
aS'amod=strategic'
p86
aS'amod=strong'
p87
aS'amod=symbolic'
p88
aS'amod=traditional'
p89
aS'amod=uncertain'
p90
aS'amod=universal'
p91
aS'amod=up-market'
p92
aS'amod=very'
p93
aS'amod=victorian'
p94
aS'amod=western'
p95
aS'amod=whole'
p96
aS'amod=wholesale'
p97
aS'appos=culture'
p98
aS'appos=governance'
p99
aS'appos=love'
p100
aS'appos=rationality'
p101
aS'appos=way'
p102
aS'aux=have'
p103
aS'aux=should'
p104
aS'aux=to'
p105
aS'auxpass=be'
p106
aS'cc=and'
p107
aS'cc=but'
p108
aS'cc=not'
p109
aS'cc=or'
p110
aS'ccomp=be'
p111
aS'ccomp=note'
p112
aS'complm=that'
p113
aS'conj=#NUMBER#'
p114
aS'conj=Immigration'
p115
aS'conj=accuse'
p116
aS'conj=amount'
p117
aS'conj=background'
p118
aS'conj=boom'
p119
aS'conj=culture'
p120
aS'conj=education'
p121
aS'conj=friend'
p122
aS'conj=goal'
p123
aS'conj=help'
p124
aS'conj=interest'
p125
aS'conj=liberty'
p126
aS'conj=like'
p127
aS'conj=most'
p128
aS'conj=percent'
p129
aS'conj=principle'
p130
aS'conj=protect'
p131
aS'conj=respect'
p132
aS'conj=rule'
p133
aS'conj=say'
p134
aS'conj=supplies'
p135
aS'conj=system'
p136
aS'conj=uniqueness'
p137
aS'conj=want'
p138
aS'conj=wisdom'
p139
aS'conj=worry'
p140
aS'cop=be'
p141
aS'dep=Coalition'
p142
aS'dep=center'
p143
aS'dep=christian'
p144
aS'dep=have'
p145
aS'dep=humility'
p146
aS'dep=much'
p147
aS'dep=that'
p148
aS'dep=what'
p149
aS'dep=year'
p150
aS'det=a'
p151
aS'det=no'
p152
aS'det=some'
p153
aS'det=the'
p154
aS'det=these'
p155
aS'det=those'
p156
aS'dobj=#PRP#'
p157
aS'dobj=advice'
p158
aS'dobj=agreement'
p159
aS'dobj=art'
p160
aS'dobj=class'
p161
aS'dobj=culture'
p162
aS'dobj=diamond'
p163
aS'dobj=freedom'
p164
aS'dobj=friendship'
p165
aS'dobj=nothing'
p166
aS'dobj=reading'
p167
aS'dobj=relation'
p168
aS'dobj=security'
p169
aS'dobj=self-expression'
p170
aS'dobj=thing'
p171
aS'dobj=what'
p172
aS'mark=because'
p173
aS'neg=not'
p174
aS'nn=Union'
p175
aS'nn=administration'
p176
aS'nn=child'
p177
aS'nn=core'
p178
aS'nn=expression'
p179
aS'nn=face'
p180
aS'nn=family'
p181
aS'nn=heart'
p182
aS'nn=home'
p183
aS'nn=housing'
p184
aS'nn=life'
p185
aS'nn=livestock'
p186
aS'nn=market'
p187
aS'nn=property'
p188
aS'nn=sale'
p189
aS'nn=share'
p190
aS'nn=stock'
p191
aS'nn=store'
p192
aS'nn=street'
p193
aS'nsubj=#PRP#'
p194
aS'nsubj=Israel'
p195
aS'nsubj=Pakistan'
p196
aS'nsubj=Rahim'
p197
aS'nsubj=company'
p198
aS'nsubj=decision'
p199
aS'nsubj=homeone'
p200
aS'nsubj=that'
p201
aS'nsubj=woman'
p202
aS'nsubjpass=elephant'
p203
aS'nsubjpass=experience'
p204
aS'nsubjpass=institution'
p205
aS'nsubjpass=relationship'
p206
aS'nsubjpass=service'
p207
aS'nsubjpass=team'
p208
aS'nsubjpass=trade'
p209
aS'num=half'
p210
aS'parataxis=speaker'
p211
aS'partmod=endorse'
p212
aS'partmod=exceed'
p213
aS'partmod=hold'
p214
aS'partmod=range'
p215
aS'partmod=share'
p216
aS'partmod=underpin'
p217
aS'poss=#PRP#'
p218
aS'poss=Indonesia'
p219
aS'poss=Kong'
p220
aS'poss=company'
p221
aS'poss=country'
p222
aS'poss=currency'
p223
aS'poss=panel'
p224
aS'poss=party'
p225
aS'poss=people'
p226
aS'poss=rupee'
p227
aS'poss=sanction'
p228
aS'prep=across'
p229
aS'prep=against'
p230
aS'prep=as'
p231
aS'prep=at'
p232
aS'prep=behind'
p233
aS'prep=between'
p234
aS'prep=for'
p235
aS'prep=from'
p236
aS'prep=in'
p237
aS'prep=of'
p238
aS'prep=on'
p239
aS'prep=over'
p240
aS'prep=that'
p241
aS'prep=to'
p242
aS'prep=versus'
p243
aS'prep=with'
p244
aS'rcmod=appeal'
p245
aS'rcmod=believe'
p246
aS'rcmod=call'
p247
aS'rcmod=exist'
p248
aS'rcmod=extend'
p249
aS'rcmod=hold'
p250
aS'rcmod=make'
p251
aS'rcmod=nurture'
p252
aS'rcmod=share'
p253
aS'rcmod=teach'
p254
aS'rcmod=unite'
p255
aS"w+1=''"
p256
aS'w+1=,'
p257
aS'w+1=-'
p258
aS'w+1=-rrb-'
p259
aS'w+1=.'
p260
aS'w+1=Coalition'
p261
aS'w+1=Hong'
p262
aS'w+1=across'
p263
aS'w+1=add'
p264
aS'w+1=after'
p265
aS'w+1=against'
p266
aS'w+1=ally'
p267
aS'w+1=and'
p268
aS'w+1=any'
p269
aS'w+1=anymore'
p270
aS'w+1=as'
p271
aS'w+1=at'
p272
aS'w+1=back'
p273
aS'w+1=base'
p274
aS'w+1=be'
p275
aS'w+1=because'
p276
aS'w+1=between'
p277
aS'w+1=by'
p278
aS'w+1=can'
p279
aS'w+1=charter'
p280
aS'w+1=connect'
p281
aS'w+1=consistent'
p282
aS'w+1=cost'
p283
aS'w+1=detainee'
p284
aS'w+1=display'
p285
aS'w+1=elsewhere'
p286
aS'w+1=endorse'
p287
aS'w+1=exceed'
p288
aS'w+1=fall'
p289
aS'w+1=for'
p290
aS'w+1=force'
p291
aS'w+1=freedom'
p292
aS'w+1=go'
p293
aS'w+1=have'
p294
aS'w+1=hold'
p295
aS'w+1=if'
p296
aS'w+1=in'
p297
aS'w+1=include'
p298
aS'w+1=its'
p299
aS'w+1=just'
p300
aS'w+1=keep'
p301
aS'w+1=lead'
p302
aS'w+1=like'
p303
aS'w+1=member'
p304
aS'w+1=note'
p305
aS'w+1=nothing'
p306
aS'w+1=of'
p307
aS'w+1=on'
p308
aS'w+1=or'
p309
aS'w+1=over'
p310
aS'w+1=range'
p311
aS'w+1=reading'
p312
aS'w+1=resonate'
p313
aS'w+1=scientific'
p314
aS'w+1=self-expression'
p315
aS'w+1=share'
p316
aS'w+1=since'
p317
aS'w+1=so'
p318
aS'w+1=somali'
p319
aS'w+1=somewhere'
p320
aS'w+1=such'
p321
aS'w+1=system'
p322
aS'w+1=term'
p323
aS'w+1=that'
p324
aS'w+1=the'
p325
aS'w+1=themselves'
p326
aS'w+1=these'
p327
aS'w+1=they'
p328
aS'w+1=this'
p329
aS'w+1=to'
p330
aS'w+1=underpin'
p331
aS'w+1=versus'
p332
aS'w+1=we'
p333
aS'w+1=will'
p334
aS'w+1=with'
p335
aS'w+2=$'
p336
aS"w+2='"
p337
aS"w+2=''"
p338
aS'w+2=,'
p339
aS'w+2=.'
p340
aS'w+2=2.5'
p341
aS'w+2=20'
p342
aS'w+2=Abu'
p343
aS'w+2=Congo'
p344
aS'w+2=Ethiopia'
p345
aS'w+2=I'
p346
aS'w+2=Islam'
p347
aS'w+2=Kong'
p348
aS'w+2=Major'
p349
aS'w+2=Mr.'
p350
aS'w+2=President'
p351
aS'w+2=Senegal'
p352
aS'w+2=Zimbabwe'
p353
aS'w+2=a'
p354
aS'w+2=about'
p355
aS'w+2=accuracy'
p356
aS'w+2=advice'
p357
aS'w+2=after'
p358
aS'w+2=agreement'
p359
aS'w+2=agriculture'
p360
aS'w+2=al-Iraqi'
p361
aS'w+2=all'
p362
aS'w+2=allegedly'
p363
aS'w+2=almost'
p364
aS'w+2=along'
p365
aS'w+2=always'
p366
aS'w+2=american'
p367
aS'w+2=and'
p368
aS'w+2=anywhere'
p369
aS'w+2=around'
p370
aS'w+2=art'
p371
aS'w+2=as'
p372
aS'w+2=attach'
p373
aS'w+2=australian'
p374
aS'w+2=background'
p375
aS'w+2=be'
p376
aS'w+2=because'
p377
aS'w+2=behind'
p378
aS'w+2=belief'
p379
aS'w+2=black'
p380
aS'w+2=boost'
p381
aS'w+2=broken'
p382
aS'w+2=but'
p383
aS'w+2=by'
p384
aS'w+2=call'
p385
aS'w+2=can'
p386
aS'w+2=chance'
p387
aS'w+2=citizenship'
p388
aS'w+2=civil'
p389
aS'w+2=commit'
p390
aS'w+2=corporate'
p391
aS'w+2=country'
p392
aS'w+2=create'
p393
aS'w+2=critic'
p394
aS'w+2=culture'
p395
aS'w+2=currency'
p396
aS'w+2=decline'
p397
aS'w+2=definitely'
p398
aS'w+2=diamond'
p399
aS'w+2=diplomatic'
p400
aS'w+2=domestic'
p401
aS'w+2=double'
p402
aS'w+2=down'
p403
aS'w+2=education'
p404
aS'w+2=efficiency'
p405
aS'w+2=else'
p406
aS'w+2=european'
p407
aS'w+2=even'
p408
aS'w+2=every'
p409
aS'w+2=everyone'
p410
aS'w+2=exchange'
p411
aS'w+2=for'
p412
aS'w+2=free'
p413
aS'w+2=freedom'
p414
aS'w+2=friendship'
p415
aS'w+2=from'
p416
aS'w+2=girl'
p417
aS'w+2=goal'
p418
aS'w+2=good'
p419
aS'w+2=goodness'
p420
aS'w+2=hard'
p421
aS'w+2=have'
p422
aS'w+2=he'
p423
aS'w+2=healthy'
p424
aS'w+2=higher'
p425
aS'w+2=hold'
p426
aS'w+2=how'
p427
aS'w+2=human'
p428
aS'w+2=if'
p429
aS'w+2=illegal'
p430
aS'w+2=immigrant'
p431
aS'w+2=improve'
p432
aS'w+2=in'
p433
aS'w+2=include'
p434
aS'w+2=increase'
p435
aS'w+2=indian-brazilian'
p436
aS'w+2=inflation'
p437
aS'w+2=interest'
p438
aS'w+2=investor'
p439
aS'w+2=it'
p440
aS'w+2=its'
p441
aS'w+2=jewel'
p442
aS'w+2=just'
p443
aS'w+2=land'
p444
aS'w+2=let'
p445
aS'w+2=liberty'
p446
aS'w+2=little'
p447
aS'w+2=longer'
p448
aS'w+2=make'
p449
aS'w+2=man'
p450
aS'w+2=many'
p451
aS'w+2=materialism'
p452
aS'w+2=middle'
p453
aS'w+2=more'
p454
aS'w+2=much'
p455
aS'w+2=my'
p456
aS'w+2=not'
p457
aS'w+2=of'
p458
aS'w+2=oil'
p459
aS'w+2=on'
p460
aS'w+2=over'
p461
aS'w+2=own'
p462
aS'w+2=pass'
p463
aS'w+2=political'
p464
aS'w+2=poor'
p465
aS'w+2=principle'
p466
aS'w+2=protect'
p467
aS'w+2=public'
p468
aS'w+2=push'
p469
aS'w+2=put'
p470
aS'w+2=rationality'
p471
aS'w+2=recent'
p472
aS'w+2=reduce'
p473
aS'w+2=regional'
p474
aS'w+2=relation'
p475
aS'w+2=religion'
p476
aS'w+2=report'
p477
aS'w+2=revive'
p478
aS'w+2=rigor'
p479
aS'w+2=riot'
p480
aS'w+2=rule'
p481
aS'w+2=salary'
p482
aS'w+2=schooling'
p483
aS'w+2=self-improvement'
p484
aS'w+2=separation'
p485
aS'w+2=share'
p486
aS'w+2=should'
p487
aS'w+2=since'
p488
aS'w+2=so'
p489
aS'w+2=society'
p490
aS'w+2=something'
p491
aS'w+2=sorely'
p492
aS'w+2=sport'
p493
aS'w+2=strong'
p494
aS'w+2=such'
p495
aS'w+2=suggest'
p496
aS'w+2=takeover'
p497
aS'w+2=tax'
p498
aS'w+2=teach'
p499
aS'w+2=that'
p500
aS'w+2=the'
p501
aS'w+2=these'
p502
aS'w+2=they'
p503
aS'w+2=this'
p504
aS'w+2=those'
p505
aS'w+2=thousand'
p506
aS'w+2=time'
p507
aS'w+2=to'
p508
aS'w+2=two'
p509
aS'w+2=uniqueness'
p510
aS'w+2=unite'
p511
aS'w+2=wages'
p512
aS'w+2=way'
p513
aS'w+2=we'
p514
aS'w+2=what'
p515
aS'w+2=which'
p516
aS'w+2=who'
p517
aS'w+2=will'
p518
aS'w+2=with'
p519
aS'w+2=work'
p520
aS'w+2=year'
p521
aS'w+2=you'
p522
aS"w-1='"
p523
aS"w-1='s"
p524
aS'w-1=,'
p525
aS'w-1=-lrb-'
p526
aS'w-1=I'
p527
aS'w-1=Israel'
p528
aS'w-1=Pakistan'
p529
aS'w-1=U.S.'
p530
aS'w-1=Union'
p531
aS'w-1=`'
p532
aS'w-1=a'
p533
aS'w-1=add'
p534
aS'w-1=additional'
p535
aS'w-1=administration'
p536
aS'w-1=all'
p537
aS'w-1=also'
p538
aS'w-1=american'
p539
aS'w-1=and'
p540
aS'w-1=australian'
p541
aS'w-1=be'
p542
aS'w-1=better'
p543
aS'w-1=child'
p544
aS'w-1=christian'
p545
aS'w-1=civic'
p546
aS'w-1=commercial'
p547
aS'w-1=common'
p548
aS'w-1=company'
p549
aS'w-1=comparable'
p550
aS'w-1=compelling'
p551
aS'w-1=confidence-building'
p552
aS'w-1=conservative'
p553
aS'w-1=continue'
p554
aS'w-1=core'
p555
aS'w-1=create'
p556
aS'w-1=critical'
p557
aS'w-1=cultural'
p558
aS'w-1=current'
p559
aS'w-1=decline'
p560
aS'w-1=deliver'
p561
aS'w-1=democratic'
p562
aS'w-1=different'
p563
aS'w-1=ecological'
p564
aS'w-1=emphasize'
p565
aS'w-1=enlightenment'
p566
aS'w-1=entrench'
p567
aS'w-1=equal'
p568
aS'w-1=especially'
p569
aS'w-1=esthetic'
p570
aS'w-1=face'
p571
aS'w-1=family'
p572
aS'w-1=financial'
p573
aS'w-1=fluctuating'
p574
aS'w-1=french'
p575
aS'w-1=full'
p576
aS'w-1=genetic'
p577
aS'w-1=good'
p578
aS'w-1=great'
p579
aS'w-1=greatly'
p580
aS'w-1=have'
p581
aS'w-1=he'
p582
aS'w-1=heart'
p583
aS'w-1=high'
p584
aS'w-1=higher'
p585
aS'w-1=highest'
p586
aS'w-1=highly'
p587
aS'w-1=historical'
p588
aS'w-1=home'
p589
aS'w-1=housing'
p590
aS'w-1=human'
p591
aS'w-1=immediate'
p592
aS'w-1=in'
p593
aS'w-1=it'
p594
aS'w-1=its'
p595
aS'w-1=life'
p596
aS'w-1=little'
p597
aS'w-1=livestock'
p598
aS'w-1=lose'
p599
aS'w-1=lower'
p600
aS'w-1=market'
p601
aS'w-1=mean'
p602
aS'w-1=moral'
p603
aS'w-1=my'
p604
aS'w-1=no'
p605
aS'w-1=normal'
p606
aS'w-1=now'
p607
aS'w-1=nutritional'
p608
aS'w-1=of'
p609
aS'w-1=overall'
p610
aS'w-1=own'
p611
aS'w-1=plummet'
p612
aS'w-1=plunge'
p613
aS'w-1=positive'
p614
aS'w-1=potential'
p615
aS'w-1=property'
p616
aS'w-1=public'
p617
aS'w-1=really'
p618
aS'w-1=religious'
p619
aS'w-1=sale'
p620
aS'w-1=same'
p621
aS'w-1=scientific'
p622
aS'w-1=secular'
p623
aS'w-1=segment'
p624
aS'w-1=share'
p625
aS'w-1=shared'
p626
aS'w-1=she'
p627
aS'w-1=social'
p628
aS'w-1=societal'
p629
aS'w-1=spiritual'
p630
aS'w-1=statistical'
p631
aS'w-1=still'
p632
aS'w-1=stock'
p633
aS'w-1=store'
p634
aS'w-1=strategic'
p635
aS'w-1=street'
p636
aS'w-1=study'
p637
aS'w-1=symbolic'
p638
aS'w-1=that'
p639
aS'w-1=the'
p640
aS'w-1=these'
p641
aS'w-1=they'
p642
aS'w-1=those'
p643
aS'w-1=time'
p644
aS'w-1=to'
p645
aS'w-1=traditional'
p646
aS'w-1=uncertain'
p647
aS'w-1=universal'
p648
aS'w-1=up-market'
p649
aS'w-1=very'
p650
aS'w-1=victorian'
p651
aS'w-1=we'
p652
aS'w-1=western'
p653
aS'w-1=what'
p654
aS'w-1=wholesale'
p655
aS'w-1=you'
p656
aS"w-2=''"
p657
aS"w-2='s"
p658
aS'w-2=,'
p659
aS'w-2=-lrb-'
p660
aS'w-2=.'
p661
aS'w-2=120'
p662
aS'w-2=Charter'
p663
aS'w-2=European'
p664
aS'w-2=I'
p665
aS'w-2=Kong'
p666
aS'w-2=`'
p667
aS'w-2=a'
p668
aS'w-2=accept'
p669
aS'w-2=accuracy'
p670
aS'w-2=across'
p671
aS'w-2=address'
p672
aS'w-2=advance'
p673
aS'w-2=against'
p674
aS'w-2=allow'
p675
aS'w-2=and'
p676
aS'w-2=anything'
p677
aS'w-2=appreciate'
p678
aS'w-2=area'
p679
aS'w-2=as'
p680
aS'w-2=at'
p681
aS'w-2=attack'
p682
aS'w-2=attitude'
p683
aS'w-2=be'
p684
aS'w-2=begin'
p685
aS'w-2=believe'
p686
aS'w-2=below'
p687
aS'w-2=bring'
p688
aS'w-2=business'
p689
aS'w-2=but'
p690
aS'w-2=by'
p691
aS'w-2=can'
p692
aS'w-2=change'
p693
aS'w-2=clash'
p694
aS'w-2=commitment'
p695
aS'w-2=conflict'
p696
aS'w-2=conservative'
p697
aS'w-2=consider'
p698
aS'w-2=continuum'
p699
aS'w-2=core'
p700
aS'w-2=cost'
p701
aS'w-2=culture'
p702
aS'w-2=currency'
p703
aS'w-2=current'
p704
aS'w-2=cut'
p705
aS'w-2=decline'
p706
aS'w-2=do'
p707
aS'w-2=down'
p708
aS'w-2=drop'
p709
aS'w-2=embody'
p710
aS'w-2=embrace'
p711
aS'w-2=emphasize'
p712
aS'w-2=endorse'
p713
aS'w-2=equal'
p714
aS'w-2=espouse'
p715
aS'w-2=estimate'
p716
aS'w-2=explain'
p717
aS'w-2=explore'
p718
aS'w-2=fair'
p719
aS'w-2=fall'
p720
aS'w-2=farbelow'
p721
aS'w-2=first'
p722
aS'w-2=for'
p723
aS'w-2=freedom'
p724
aS'w-2=from'
p725
aS'w-2=gap'
p726
aS'w-2=get'
p727
aS'w-2=great'
p728
aS'w-2=grow'
p729
aS'w-2=half'
p730
aS'w-2=have'
p731
aS'w-2=he'
p732
aS'w-2=hierarchy'
p733
aS'w-2=high'
p734
aS'w-2=highlight'
p735
aS'w-2=history'
p736
aS'w-2=hold'
p737
aS'w-2=if'
p738
aS'w-2=impart'
p739
aS'w-2=important'
p740
aS'w-2=in'
p741
aS'w-2=influence'
p742
aS'w-2=instill'
p743
aS'w-2=institutionalize'
p744
aS'w-2=interest'
p745
aS'w-2=it'
p746
aS'w-2=its'
p747
aS'w-2=just'
p748
aS'w-2=kind'
p749
aS'w-2=know'
p750
aS'w-2=learn'
p751
aS'w-2=little'
p752
aS'w-2=lose'
p753
aS'w-2=lower'
p754
aS'w-2=meaning'
p755
aS'w-2=membership'
p756
aS'w-2=moral'
p757
aS'w-2=much'
p758
aS'w-2=nation'
p759
aS'w-2=new'
p760
aS'w-2=no'
p761
aS'w-2=nothing'
p762
aS'w-2=of'
p763
aS'w-2=on'
p764
aS'w-2=oppose'
p765
aS'w-2=or'
p766
aS'w-2=out'
p767
aS'w-2=over'
p768
aS'w-2=panel'
p769
aS'w-2=party'
p770
aS'w-2=pay'
p771
aS'w-2=people'
p772
aS'w-2=percent'
p773
aS'w-2=place'
p774
aS'w-2=plummet'
p775
aS'w-2=portray'
p776
aS'w-2=promote'
p777
aS'w-2=protect'
p778
aS'w-2=proud'
p779
aS'w-2=provide'
p780
aS'w-2=quadruple'
p781
aS'w-2=question'
p782
aS'w-2=raise'
p783
aS'w-2=rank'
p784
aS'w-2=rapidly'
p785
aS'w-2=recognize'
p786
aS'w-2=reduce'
p787
aS'w-2=relate'
p788
aS'w-2=relationship'
p789
aS'w-2=represent'
p790
aS'w-2=rights'
p791
aS'w-2=rupee'
p792
aS'w-2=sanction'
p793
aS'w-2=say'
p794
aS'w-2=see'
p795
aS'w-2=seem'
p796
aS'w-2=share'
p797
aS'w-2=she'
p798
aS'w-2=should'
p799
aS'w-2=significance'
p800
aS'w-2=skill'
p801
aS'w-2=slump'
p802
aS'w-2=speaker'
p803
aS'w-2=strengthen'
p804
aS'w-2=strict'
p805
aS'w-2=strong'
p806
aS'w-2=teach'
p807
aS'w-2=team'
p808
aS'w-2=than'
p809
aS'w-2=that'
p810
aS'w-2=the'
p811
aS'w-2=there'
p812
aS'w-2=they'
p813
aS'w-2=think'
p814
aS'w-2=those'
p815
aS'w-2=though'
p816
aS'w-2=to'
p817
aS'w-2=trade'
p818
aS'w-2=tradition'
p819
aS'w-2=transfer'
p820
aS'w-2=tyranny'
p821
aS'w-2=universal'
p822
aS'w-2=up'
p823
aS'w-2=uphold'
p824
aS'w-2=upon'
p825
aS'w-2=urgently'
p826
aS'w-2=very'
p827
aS'w-2=view'
p828
aS'w-2=vigango'
p829
aS'w-2=we'
p830
aS'w-2=weaken'
p831
aS'w-2=what'
p832
aS'w-2=while'
p833
aS'w-2=who'
p834
aS'w-2=whole'
p835
aS'w-2=will'
p836
aS'w-2=wise'
p837
aS'w-2=with'
p838
aS'w-2=woman'
p839
aS'xcomp=available'
p840
aS'xcomp=else'
p841
aS'xcomp=keep'
p842
aS'xcomp=more'
p843
aS'xcomp=value'
p844
aS'xcomp=vote'
p845
asS'dtype'
p846
cnumpy
float64
p847
sS'vocabulary_'
p848
(dp849
g225
I216
sg264
I255
sg283
I274
sg142
I133
sg649
I640
sg152
I143
sg830
I821
sg343
I334
sg690
I681
sg772
I763
sg683
I674
sg122
I113
sg456
I447
sg541
I532
sg349
I340
sg566
I557
sg282
I273
sg383
I374
sg608
I599
sg135
I126
sg760
I751
sg553
I544
sg190
I181
sg133
I124
sg599
I590
sg314
I305
sg421
I412
sg813
I804
sg414
I405
sg638
I629
sg234
I225
sg749
I740
sg324
I315
sg556
I547
sg729
I720
sg589
I580
sg637
I628
sg483
I474
sg162
I153
sg304
I295
sg406
I397
sg601
I592
sg245
I236
sg694
I685
sg378
I369
sg472
I463
sg648
I639
sg725
I716
sg43
I34
sg19
I10
sg557
I548
sg614
I605
sg720
I711
sg602
I593
sg47
I38
sg665
I656
sg466
I457
sg709
I700
sg819
I810
sg95
I86
sg301
I292
sg306
I297
sg542
I533
sg81
I72
sg701
I692
sg51
I42
sg17
I8
sg811
I802
sg233
I224
sg129
I120
sg132
I123
sg677
I668
sg207
I198
sg111
I102
sg439
I430
sg300
I291
sg9
I0
sg711
I702
sg173
I164
sg780
I771
sg834
I825
sg78
I69
sg137
I128
sg307
I298
sg335
I326
sg508
I499
sg308
I299
sg42
I33
sg138
I129
sg740
I731
sg619
I610
sg309
I300
sg782
I773
sg662
I653
sg149
I140
sg595
I586
sg581
I572
sg369
I360
sg555
I546
sg429
I420
sg702
I693
sg433
I424
sg743
I734
sg197
I188
sg515
I506
sg630
I621
sg578
I569
sg447
I438
sg373
I364
sg591
I582
sg228
I219
sg624
I615
sg288
I279
sg576
I567
sg538
I529
sg113
I104
sg787
I778
sg643
I634
sg583
I574
sg118
I109
sg452
I443
sg617
I608
sg485
I476
sg656
I647
sg518
I509
sg167
I158
sg351
I342
sg736
I727
sg506
I497
sg384
I375
sg341
I332
sg325
I316
sg809
I800
sg723
I714
sg376
I367
sg328
I319
sg195
I186
sg804
I795
sg237
I228
sg290
I281
sg381
I372
sg718
I709
sg843
I834
sg171
I162
sg444
I435
sg577
I568
sg241
I232
sg783
I774
sg442
I433
sg242
I233
sg464
I455
sg99
I90
sg632
I623
sg143
I134
sg268
I259
sg366
I357
sg842
I833
sg128
I119
sg188
I179
sg539
I530
sg435
I426
sg312
I303
sg163
I154
sg427
I418
sg587
I578
sg463
I454
sg490
I481
sg748
I739
sg572
I563
sg84
I75
sg703
I694
sg61
I52
sg400
I391
sg598
I589
sg201
I192
sg594
I585
sg533
I524
sg408
I399
sg623
I614
sg573
I564
sg532
I523
sg756
I747
sg407
I398
sg672
I663
sg502
I493
sg220
I211
sg593
I584
sg514
I505
sg805
I796
sg488
I479
sg303
I294
sg646
I637
sg796
I787
sg640
I631
sg75
I66
sg773
I764
sg575
I566
sg487
I478
sg364
I355
sg193
I184
sg457
I448
sg131
I122
sg224
I215
sg825
I816
sg63
I54
sg755
I746
sg196
I187
sg23
I14
sg259
I250
sg249
I240
sg385
I376
sg317
I308
sg294
I285
sg803
I794
sg686
I677
sg154
I145
sg689
I680
sg687
I678
sg155
I146
sg699
I690
sg754
I745
sg793
I784
sg87
I78
sg510
I501
sg774
I765
sg210
I201
sg766
I757
sg467
I458
sg185
I176
sg398
I389
sg666
I657
sg74
I65
sg480
I471
sg279
I270
sg223
I214
sg412
I403
sg644
I635
sg764
I755
sg645
I636
sg735
I726
sg16
I7
sg15
I6
sg250
I241
sg454
I445
sg391
I382
sg621
I612
sg446
I437
sg707
I698
sg178
I169
sg840
I831
sg460
I451
sg116
I107
sg845
I836
sg685
I676
sg565
I556
sg453
I444
sg775
I766
sg55
I46
sg496
I487
sg765
I756
sg588
I579
sg281
I272
sg386
I377
sg240
I231
sg271
I262
sg144
I135
sg272
I263
sg112
I103
sg198
I189
sg114
I105
sg362
I353
sg326
I317
sg90
I81
sg489
I480
sg136
I127
sg586
I577
sg49
I40
sg473
I464
sg604
I595
sg209
I200
sg721
I712
sg102
I93
sg18
I9
sg153
I144
sg705
I696
sg377
I368
sg497
I488
sg462
I453
sg498
I489
sg246
I237
sg156
I147
sg791
I782
sg192
I183
sg798
I789
sg762
I753
sg235
I226
sg187
I178
sg13
I4
sg148
I139
sg126
I117
sg333
I324
sg33
I24
sg459
I450
sg824
I815
sg820
I811
sg295
I286
sg491
I482
sg747
I738
sg831
I822
sg372
I363
sg695
I686
sg208
I199
sg434
I425
sg628
I619
sg717
I708
sg106
I97
sg86
I77
sg844
I835
sg524
I515
sg166
I157
sg499
I490
sg44
I35
sg358
I349
sg203
I194
sg261
I252
sg768
I759
sg419
I410
sg21
I12
sg393
I384
sg184
I175
sg776
I767
sg610
I601
sg841
I832
sg189
I180
sg511
I502
sg38
I29
sg436
I427
sg119
I110
sg560
I551
sg212
I203
sg806
I797
sg64
I55
sg413
I404
sg371
I362
sg299
I290
sg397
I388
sg519
I510
sg172
I163
sg493
I484
sg88
I79
sg823
I814
sg815
I806
sg68
I59
sg94
I85
sg719
I710
sg822
I813
sg432
I423
sg48
I39
sg392
I383
sg613
I604
sg547
I538
sg468
I459
sg322
I313
sg521
I512
sg562
I553
sg100
I91
sg10
I1
sg605
I596
sg529
I520
sg551
I542
sg675
I666
sg706
I697
sg263
I254
sg109
I100
sg657
I648
sg52
I43
sg396
I387
sg626
I617
sg660
I651
sg330
I321
sg448
I439
sg79
I70
sg821
I812
sg410
I401
sg540
I531
sg449
I440
sg140
I131
sg180
I171
sg158
I149
sg318
I309
sg688
I679
sg365
I356
sg204
I195
sg693
I684
sg443
I434
sg179
I170
sg792
I783
sg812
I803
sg298
I289
sg73
I64
sg779
I770
sg181
I172
sg97
I88
sg781
I772
sg165
I156
sg175
I166
sg115
I106
sg347
I338
sg367
I358
sg305
I296
sg745
I736
sg146
I137
sg658
I649
sg627
I618
sg722
I713
sg416
I407
sg509
I500
sg450
I441
sg191
I182
sg482
I473
sg698
I689
sg800
I791
sg319
I310
sg761
I752
sg76
I67
sg206
I197
sg382
I373
sg337
I328
sg276
I267
sg409
I400
sg215
I206
sg253
I244
sg633
I624
sg310
I301
sg36
I27
sg455
I446
sg801
I792
sg505
I496
sg465
I456
sg344
I335
sg205
I196
sg451
I442
sg504
I495
sg359
I350
sg62
I53
sg160
I151
sg277
I268
sg477
I468
sg401
I392
sg227
I218
sg121
I112
sg53
I44
sg70
I61
sg342
I333
sg25
I16
sg769
I760
sg101
I92
sg67
I58
sg461
I452
sg82
I73
sg838
I829
sg655
I646
sg415
I406
sg273
I264
sg332
I323
sg700
I691
sg395
I386
sg679
I670
sg750
I741
sg199
I190
sg552
I543
sg244
I235
sg110
I101
sg168
I159
sg713
I704
sg331
I322
sg816
I807
sg182
I173
sg30
I21
sg441
I432
sg96
I87
sg41
I32
sg777
I768
sg567
I558
sg738
I729
sg388
I379
sg481
I472
sg93
I84
sg741
I732
sg751
I742
sg127
I118
sg77
I68
sg150
I141
sg759
I750
sg636
I627
sg746
I737
sg752
I743
sg390
I381
sg164
I155
sg403
I394
sg785
I776
sg592
I583
sg797
I788
sg411
I402
sg536
I527
sg269
I260
sg389
I380
sg425
I416
sg262
I253
sg669
I660
sg352
I343
sg786
I777
sg338
I329
sg402
I393
sg545
I536
sg550
I541
sg14
I5
sg270
I261
sg39
I30
sg563
I554
sg72
I63
sg839
I830
sg696
I687
sg437
I428
sg744
I735
sg548
I539
sg356
I347
sg726
I717
sg641
I632
sg731
I722
sg107
I98
sg320
I311
sg546
I537
sg417
I408
sg278
I269
sg161
I152
sg334
I325
sg275
I266
sg790
I781
sg642
I633
sg808
I799
sg471
I462
sg254
I245
sg296
I287
sg211
I202
sg92
I83
sg98
I89
sg297
I288
sg494
I485
sg56
I47
sg194
I185
sg54
I45
sg795
I786
sg24
I15
sg286
I277
sg634
I625
sg650
I641
sg474
I465
sg108
I99
sg574
I565
sg69
I60
sg71
I62
sg704
I695
sg117
I108
sg218
I209
sg484
I475
sg266
I257
sg186
I177
sg770
I761
sg470
I461
sg739
I730
sg618
I609
sg549
I540
sg147
I138
sg670
I661
sg89
I80
sg91
I82
sg513
I504
sg139
I130
sg625
I616
sg32
I23
sg214
I205
sg221
I212
sg252
I243
sg12
I3
sg663
I654
sg708
I699
sg323
I314
sg302
I293
sg507
I498
sg807
I798
sg543
I534
sg27
I18
sg516
I507
sg564
I555
sg267
I258
sg802
I793
sg684
I675
sg486
I477
sg80
I71
sg826
I817
sg238
I229
sg130
I121
sg134
I125
sg763
I754
sg239
I230
sg243
I234
sg596
I587
sg418
I409
sg426
I417
sg691
I682
sg293
I284
sg479
I470
sg428
I419
sg219
I210
sg169
I160
sg315
I306
sg85
I76
sg145
I136
sg260
I251
sg405
I396
sg495
I486
sg580
I571
sg771
I762
sg458
I449
sg291
I282
sg561
I552
sg716
I707
sg202
I193
sg37
I28
sg500
I491
sg26
I17
sg737
I728
sg66
I57
sg674
I665
sg832
I823
sg420
I411
sg727
I718
sg544
I535
sg558
I549
sg285
I276
sg568
I559
sg255
I246
sg213
I204
sg399
I390
sg609
I600
sg478
I469
sg742
I733
sg817
I808
sg368
I359
sg676
I667
sg603
I594
sg585
I576
sg120
I111
sg712
I703
sg733
I724
sg327
I318
sg789
I780
sg229
I220
sg622
I613
sg837
I828
sg251
I242
sg284
I275
sg329
I320
sg217
I208
sg141
I132
sg380
I371
sg629
I620
sg732
I723
sg569
I560
sg360
I351
sg157
I148
sg316
I307
sg159
I150
sg20
I11
sg517
I508
sg430
I421
sg794
I785
sg757
I748
sg313
I304
sg758
I749
sg501
I492
sg232
I223
sg836
I827
sg34
I25
sg659
I650
sg661
I652
sg606
I597
sg651
I642
sg423
I414
sg183
I174
sg125
I116
sg103
I94
sg728
I719
sg523
I514
sg274
I265
sg814
I805
sg784
I775
sg525
I516
sg833
I824
sg200
I191
sg59
I50
sg83
I74
sg600
I591
sg681
I672
sg653
I644
sg680
I671
sg124
I115
sg375
I366
sg647
I638
sg570
I561
sg527
I518
sg522
I513
sg104
I95
sg492
I483
sg767
I758
sg438
I429
sg678
I669
sg667
I658
sg668
I659
sg528
I519
sg346
I337
sg151
I142
sg584
I575
sg287
I278
sg40
I31
sg520
I511
sg526
I517
sg582
I573
sg597
I588
sg29
I20
sg35
I26
sg65
I56
sg512
I503
sg379
I370
sg827
I818
sg176
I167
sg394
I385
sg612
I603
sg248
I239
sg503
I494
sg631
I622
sg363
I354
sg440
I431
sg829
I820
sg370
I361
sg256
I247
sg177
I168
sg280
I271
sg422
I413
sg222
I213
sg615
I606
sg475
I466
sg230
I221
sg289
I280
sg571
I562
sg357
I348
sg559
I550
sg424
I415
sg22
I13
sg671
I662
sg682
I673
sg174
I165
sg710
I701
sg374
I365
sg616
I607
sg778
I769
sg537
I528
sg236
I227
sg387
I378
sg697
I688
sg226
I217
sg11
I2
sg265
I256
sg361
I352
sg445
I436
sg292
I283
sg652
I643
sg105
I96
sg799
I790
sg724
I715
sg531
I522
sg58
I49
sg170
I161
sg673
I664
sg321
I312
sg715
I706
sg123
I114
sg311
I302
sg28
I19
sg692
I683
sg535
I526
sg350
I341
sg469
I460
sg345
I336
sg258
I249
sg257
I248
sg231
I222
sg45
I36
sg810
I801
sg340
I331
sg339
I330
sg50
I41
sg828
I819
sg355
I346
sg336
I327
sg46
I37
sg530
I521
sg476
I467
sg216
I207
sg247
I238
sg734
I725
sg590
I581
sg730
I721
sg620
I611
sg635
I626
sg353
I344
sg835
I826
sg31
I22
sg554
I545
sg654
I645
sg607
I598
sg57
I48
sg60
I51
sg818
I809
sg579
I570
sg431
I422
sg348
I339
sg404
I395
sg639
I630
sg753
I744
sg611
I602
sg714
I705
sg534
I525
sg788
I779
sg354
I345
sg664
I655
ssS'separator'
p850
S'='
sS'sparse'
p851
I01
sb.