ccopy_reg
_reconstructor
p1
(csklearn.feature_extraction.dict_vectorizer
DictVectorizer
p2
c__builtin__
object
p3
NtRp4
(dp5
S'vocabulary_'
p6
(dp7
S'dobj=question'
p8
I21
sS'dep=impact'
p9
I16
sS'advmod=where'
p10
I4
sS'conj=appreciate'
p11
I13
sS'w-1=fan'
p12
I78
sS'nsubjpass=people'
p13
I35
sS'w+1=all'
p14
I45
sS'w-2=educate'
p15
I89
sS'w+1=viewer'
p16
I56
sS'w+2=but'
p17
I60
sS'w+1=some'
p18
I53
sS'w+2=organist'
p19
I64
sS'w-2=they'
p20
I98
sS'w-1=to'
p21
I81
sS'w+2=multitude'
p22
I62
sS'prep=by'
p23
I38
sS'advmod=even'
p24
I2
sS'prep=about'
p25
I36
sS'w+1=any'
p26
I47
sS'mark=while'
p27
I26
sS'tmod=time'
p28
I42
sS'w-2=he'
p29
I93
sS'dobj=multitude'
p30
I20
sS'w-2=Bushes'
p31
I84
sS'aux=will'
p32
I8
sS'dobj=serviceman'
p33
I23
sS'w+2=the'
p34
I68
sS'prep=at'
p35
I37
sS'w+1=at'
p36
I48
sS'w-1=will'
p37
I82
sS'w-2=,'
p38
I83
sS'prep=with'
p39
I39
sS'aux=have'
p40
I6
sS'w-1=be'
p41
I75
sS'nsubj=XYZ'
p42
I30
sS'conj=let'
p43
I14
sS'w-1=,'
p44
I72
sS'w+2=question'
p45
I66
sS'w+2=royal'
p46
I67
sS'w-2=before'
p47
I87
sS'w-2=act'
p48
I85
sS'w-2=where'
p49
I100
sS'auxpass=be'
p50
I9
sS'w-2=continue'
p51
I88
sS'nsubjpass=fan'
p52
I34
sS'w+1=serviceman'
p53
I52
sS'w-2=game'
p54
I90
sS'nsubj=Bushes'
p55
I29
sS'w-1=XYZ'
p56
I73
sS'w-1=he'
p57
I79
sS'advmod=also'
p58
I1
sS'w-1=once'
p59
I80
sS'w-2=only'
p60
I97
sS'advmod=once'
p61
I3
sS'nsubj=music'
p62
I32
sS'complm=that'
p63
I12
sS'w+1=man'
p64
I51
sS'w+2=let'
p65
I61
sS'w-2=to'
p66
I99
sS'w-2=have'
p67
I92
sS'cc=and'
p68
I10
sS'w+2=thousand'
p69
I70
sS'w+1=the'
p70
I54
sS'w+1=by'
p71
I50
sS'w-2=move'
p72
I96
sS'cc=but'
p73
I11
sS'nsubj=justice'
p74
I31
sS'w-1=but'
p75
I76
sS"w+2='s"
p76
I57
sS'nsubjpass=#PRP#'
p77
I33
sS'w-1=even'
p78
I77
sS'w+2=with'
p79
I71
sS'nsubj=#PRP#'
p80
I28
sS'advcl=promise'
p81
I0
sS'aux=to'
p82
I7
sS'tmod=night'
p83
I40
sS'w+2=public'
p84
I65
sS'conj=make'
p85
I15
sS'dobj=#NUMBER#'
p86
I17
sS'dobj=thought'
p87
I24
sS'w+1=and'
p88
I46
sS'dobj=audience'
p89
I19
sS'w+2=thought'
p90
I69
sS'w+1=,'
p91
I43
sS'w+1=.'
p92
I44
sS'w+2=of'
p93
I63
sS'w+1=audience'
p94
I49
sS'w+2=.'
p95
I59
sS'w+2=,'
p96
I58
sS'w-2=justice'
p97
I94
sS'w-2=keep'
p98
I95
sS'neg=not'
p99
I27
sS'w-1=and'
p100
I74
sS'dobj=royal'
p101
I22
sS'w+1=thought'
p102
I55
sS'dobj=viewer'
p103
I25
sS'w-2=be'
p104
I86
sS'aux=be'
p105
I5
sS'w-2=gruel'
p106
I91
sS'dobj=Pentathlon'
p107
I18
sS'tmod=seasonfor'
p108
I41
ssS'dtype'
p109
cnumpy
float64
p110
sS'feature_names_'
p111
(lp112
g81
ag58
ag24
ag61
ag10
ag105
ag40
ag82
ag32
ag50
ag68
ag73
ag63
ag11
ag43
ag85
ag9
ag86
ag107
ag89
ag30
ag8
ag101
ag33
ag87
ag103
ag27
ag99
ag80
ag55
ag42
ag74
ag62
ag77
ag52
ag13
ag25
ag35
ag23
ag39
ag83
ag108
ag28
ag91
ag92
ag14
ag88
ag26
ag36
ag94
ag71
ag64
ag53
ag18
ag70
ag102
ag16
ag76
ag96
ag95
ag17
ag65
ag22
ag93
ag19
ag84
ag45
ag46
ag34
ag90
ag69
ag79
ag44
ag56
ag100
ag41
ag75
ag78
ag12
ag57
ag59
ag21
ag37
ag38
ag31
ag48
ag104
ag47
ag51
ag15
ag54
ag106
ag67
ag29
ag97
ag98
ag72
ag60
ag20
ag66
ag49
asS'separator'
p113
S'='
sS'sparse'
p114
I01
sb.