ccopy_reg
_reconstructor
p1
(csklearn.feature_extraction.dict_vectorizer
DictVectorizer
p2
c__builtin__
object
p3
NtRp4
(dp5
S'sort'
p6
I01
sS'feature_names_'
p7
(lp8
S'acomp=staff'
p9
aS'advcl=old'
p10
aS'advcl=recover'
p11
aS'advcl=retire'
p12
aS'advcl=save'
p13
aS'advmod=#PRP#'
p14
aS'advmod=again'
p15
aS'advmod=ago'
p16
aS'advmod=also'
p17
aS'advmod=eventually'
p18
aS'advmod=knowingly'
p19
aS'advmod=locally'
p20
aS'advmod=once'
p21
aS'advmod=only'
p22
aS'advmod=over'
p23
aS'advmod=readily'
p24
aS'advmod=really'
p25
aS'advmod=recently'
p26
aS'advmod=sometimes'
p27
aS'advmod=then'
p28
aS'advmod=when'
p29
aS'advmod=where'
p30
aS'amod=new'
p31
aS'aux=be'
p32
aS'aux=can'
p33
aS'aux=do'
p34
aS'aux=have'
p35
aS'aux=should'
p36
aS'aux=to'
p37
aS'aux=will'
p38
aS'aux=would'
p39
aS'auxpass=be'
p40
aS'auxpass=get'
p41
aS'cc=and'
p42
aS'cc=or'
p43
aS'ccomp=act'
p44
aS'ccomp=advertise'
p45
aS'ccomp=debate'
p46
aS'ccomp=name'
p47
aS'ccomp=say'
p48
aS'ccomp=step'
p49
aS'complm=that'
p50
aS'conj=carry'
p51
aS'conj=dwindle'
p52
aS'conj=fire'
p53
aS'conj=firing'
p54
aS'conj=go'
p55
aS'conj=help'
p56
aS'conj=intimidate'
p57
aS'conj=invite'
p58
aS'conj=pay'
p59
aS'conj=procure'
p60
aS'conj=provide'
p61
aS'conj=shower'
p62
aS'conj=try'
p63
aS'csubj=improve'
p64
aS'csubj=lead'
p65
aS'dep=dollar'
p66
aS'dep=know'
p67
aS'dep=that'
p68
aS'dep=woman'
p69
aS'det=a'
p70
aS'det=any'
p71
aS'dobj=#NUMBER#'
p72
aS'dobj=#PRP#'
p73
aS'dobj=Europeans'
p74
aS'dobj=Iraqis'
p75
aS'dobj=Mercedes'
p76
aS'dobj=Mungiki'
p77
aS'dobj=Reilly'
p78
aS'dobj=advocate'
p79
aS'dobj=alien'
p80
aS'dobj=catcher'
p81
aS'dobj=center'
p82
aS'dobj=citizen'
p83
aS'dobj=civilian'
p84
aS'dobj=company'
p85
aS'dobj=employee'
p86
aS'dobj=expert'
p87
aS'dobj=farmer'
p88
aS'dobj=furnace'
p89
aS'dobj=guard'
p90
aS'dobj=helicopter'
p91
aS'dobj=immigrant'
p92
aS'dobj=investigator'
p93
aS'dobj=lawyer'
p94
aS'dobj=mercenary'
p95
aS'dobj=minister'
p96
aS'dobj=organizer'
p97
aS'dobj=people'
p98
aS'dobj=practice'
p99
aS'dobj=prosecutor'
p100
aS'dobj=reporter'
p101
aS'dobj=resident'
p102
aS'dobj=security'
p103
aS'dobj=soldier'
p104
aS'dobj=some'
p105
aS'dobj=somebody'
p106
aS'dobj=someone'
p107
aS'dobj=stadium'
p108
aS'dobj=staff'
p109
aS'dobj=team'
p110
aS'dobj=truckload'
p111
aS'dobj=worker'
p112
aS'dobj=youth'
p113
aS'expl=there'
p114
aS'mark=as'
p115
aS'mark=because'
p116
aS'mark=before'
p117
aS'neg=not'
p118
aS'nsubj=#PRP#'
p119
aS'nsubj=Department'
p120
aS'nsubj=Leong'
p121
aS'nsubj=agent'
p122
aS'nsubj=authority'
p123
aS'nsubj=business'
p124
aS'nsubj=company'
p125
aS'nsubj=family'
p126
aS'nsubj=government'
p127
aS'nsubj=ike'
p128
aS'nsubj=industry'
p129
aS'nsubj=man'
p130
aS'nsubj=many'
p131
aS'nsubj=plant'
p132
aS'nsubj=politician'
p133
aS'nsubj=that'
p134
aS'nsubj=who'
p135
aS'nsubj=would'
p136
aS'nsubjpass=#PRP#'
p137
aS'nsubjpass=Nardelli'
p138
aS'nsubjpass=actor'
p139
aS'nsubjpass=citizen'
p140
aS'nsubjpass=employee'
p141
aS'nsubjpass=half'
p142
aS'nsubjpass=immigrant'
p143
aS'nsubjpass=teacher'
p144
aS'nsubjpass=who'
p145
aS'nsubjpass=worker'
p146
aS'partmod=threaten'
p147
aS'prep=after'
p148
aS'prep=as'
p149
aS'prep=at'
p150
aS'prep=by'
p151
aS'prep=for'
p152
aS'prep=from'
p153
aS'prep=in'
p154
aS'prep=on'
p155
aS'prep=over'
p156
aS'prep=to'
p157
aS'prep=under'
p158
aS'prt=away'
p159
aS'tmod=month'
p160
aS'tmod=summer'
p161
aS'tmod=year'
p162
aS'w+1=,'
p163
aS'w+1=.'
p164
aS'w+1=Europeans'
p165
aS'w+1=I'
p166
aS'w+1=Iraqis'
p167
aS'w+1=JP'
p168
aS'w+1=Kevin'
p169
aS'w+1=Mercedes'
p170
aS'w+1=U.S.'
p171
aS'w+1=a'
p172
aS'w+1=act'
p173
aS'w+1=african'
p174
aS'w+1=after'
p175
aS'w+1=again'
p176
aS'w+1=american'
p177
aS'w+1=and'
p178
aS'w+1=away'
p179
aS'w+1=be'
p180
aS'w+1=because'
p181
aS'w+1=by'
p182
aS'w+1=civilian'
p183
aS'w+1=employee'
p184
aS'w+1=extra'
p185
aS'w+1=factory'
p186
aS'w+1=for'
p187
aS'w+1=former'
p188
aS'w+1=four'
p189
aS'w+1=he'
p190
aS'w+1=helicopter'
p191
aS'w+1=illegal'
p192
aS'w+1=in'
p193
aS'w+1=independent'
p194
aS'w+1=local'
p195
aS'w+1=medical'
p196
aS'w+1=mercenary'
p197
aS'w+1=more'
p198
aS'w+1=on'
p199
aS'w+1=other'
p200
aS'w+1=people'
p201
aS'w+1=practice'
p202
aS'w+1=private'
p203
aS'w+1=procedure'
p204
aS'w+1=seasonal'
p205
aS'w+1=security'
p206
aS'w+1=she'
p207
aS'w+1=some'
p208
aS'w+1=somebody'
p209
aS'w+1=someone'
p210
aS'w+1=staff'
p211
aS'w+1=technical'
p212
aS'w+1=the'
p213
aS'w+1=they'
p214
aS'w+1=those'
p215
aS'w+1=thousand'
p216
aS'w+1=to'
p217
aS'w+1=top'
p218
aS'w+1=truckload'
p219
aS'w+1=ukrainian'
p220
aS'w+1=under'
p221
aS'w+1=undocumented'
p222
aS'w+1=we'
p223
aS'w+1=will'
p224
aS'w+1=woman'
p225
aS'w+1=worker'
p226
aS'w+1=young'
p227
aS'w+2=,'
p228
aS'w+2=-rrb-'
p229
aS'w+2=.'
p230
aS'w+2=2005'
p231
aS'w+2=Bollywood'
p232
aS'w+2=Mungiki'
p233
aS'w+2=Reilly'
p234
aS'w+2=September'
p235
aS'w+2=U.S.'
p236
aS'w+2=a'
p237
aS'w+2=actor'
p238
aS'w+2=advocate'
p239
aS'w+2=after'
p240
aS'w+2=alien'
p241
aS'w+2=american'
p242
aS'w+2=and'
p243
aS'w+2=as'
p244
aS'w+2=at'
p245
aS'w+2=be'
p246
aS'w+2=because'
p247
aS'w+2=black'
p248
aS'w+2=boat'
p249
aS'w+2=border'
p250
aS'w+2=by'
p251
aS'w+2=call'
p252
aS'w+2=chef'
p253
aS'w+2=citizen'
p254
aS'w+2=controversial'
p255
aS'w+2=end'
p256
aS'w+2=expert'
p257
aS'w+2=factory'
p258
aS'w+2=farmer'
p259
aS'w+2=fire'
p260
aS'w+2=firing'
p261
aS'w+2=for'
p262
aS'w+2=foreign'
p263
aS'w+2=furnace'
p264
aS'w+2=grown'
p265
aS'w+2=guard'
p266
aS'w+2=guerrilla'
p267
aS'w+2=he'
p268
aS'w+2=helicopter'
p269
aS'w+2=immigrant'
p270
aS'w+2=instead'
p271
aS'w+2=it'
p272
aS'w+2=lawyer'
p273
aS'w+2=local'
p274
aS'w+2=maid'
p275
aS'w+2=monkey'
p276
aS'w+2=new'
p277
aS'w+2=of'
p278
aS'w+2=oil'
p279
aS'w+2=on'
p280
aS'w+2=or'
p281
aS'w+2=people'
p282
aS'w+2=play'
p283
aS'w+2=private'
p284
aS'w+2=resident'
p285
aS'w+2=restore'
p286
aS'w+2=strong'
p287
aS'w+2=the'
p288
aS'w+2=they'
p289
aS'w+2=threaten'
p290
aS'w+2=to'
p291
aS'w+2=track'
p292
aS'w+2=transport'
p293
aS'w+2=who'
p294
aS'w+2=with'
p295
aS'w+2=worker'
p296
aS'w+2=young'
p297
aS'w+2=youth'
p298
aS'w-1=,'
p299
aS'w-1=-lrb-'
p300
aS'w-1=-rrb-'
p301
aS'w-1=Iraq'
p302
aS'w-1=Nobu'
p303
aS'w-1=a'
p304
aS'w-1=about'
p305
aS'w-1=agency'
p306
aS'w-1=and'
p307
aS'w-1=be'
p308
aS'w-1=by'
p309
aS'w-1=can'
p310
aS'w-1=celebrity'
p311
aS'w-1=company'
p312
aS'w-1=country'
p313
aS'w-1=entrepreneur'
p314
aS'w-1=eventually'
p315
aS'w-1=family'
p316
aS'w-1=for'
p317
aS'w-1=get'
p318
aS'w-1=guard'
p319
aS'w-1=have'
p320
aS'w-1=he'
p321
aS'w-1=ike'
p322
aS'w-1=knowingly'
p323
aS'w-1=locally'
p324
aS'w-1=new'
p325
aS'w-1=not'
p326
aS'w-1=of'
p327
aS'w-1=on'
p328
aS'w-1=only'
p329
aS'w-1=politician'
p330
aS'w-1=proper'
p331
aS'w-1=readily'
p332
aS'w-1=really'
p333
aS'w-1=recently'
p334
aS'w-1=she'
p335
aS'w-1=sometimes'
p336
aS'w-1=than'
p337
aS'w-1=that'
p338
aS'w-1=they'
p339
aS'w-1=those'
p340
aS'w-1=to'
p341
aS'w-1=we'
p342
aS'w-1=who'
p343
aS'w-1=will'
p344
aS'w-1=you'
p345
aS"w-2=''"
p346
aS'w-2=,'
p347
aS'w-2=.'
p348
aS'w-2=50,000'
p349
aS'w-2=Adua'
p350
aS'w-2=Africa'
p351
aS'w-2=Americans'
p352
aS'w-2=Brooks'
p353
aS'w-2=Department'
p354
aS'w-2=Nardelli'
p355
aS'w-2=a'
p356
aS'w-2=addition'
p357
aS'w-2=all'
p358
aS'w-2=also'
p359
aS'w-2=and'
p360
aS'w-2=any'
p361
aS'w-2=as'
p362
aS'w-2=authority'
p363
aS'w-2=be'
p364
aS'w-2=better'
p365
aS'w-2=buddy'
p366
aS'w-2=business'
p367
aS'w-2=cheaper'
p368
aS'w-2=clothing'
p369
aS'w-2=commit'
p370
aS'w-2=company'
p371
aS'w-2=concern'
p372
aS'w-2=contractor'
p373
aS'w-2=cost'
p374
aS'w-2=do'
p375
aS'w-2=dollar'
p376
aS'w-2=effort'
p377
aS'w-2=employee'
p378
aS'w-2=employer'
p379
aS'w-2=factory'
p380
aS'w-2=government'
p381
aS'w-2=he'
p382
aS'w-2=hope'
p383
aS'w-2=immigrant'
p384
aS'w-2=in'
p385
aS'w-2=industry'
p386
aS'w-2=injury'
p387
aS'w-2=it'
p388
aS'w-2=know'
p389
aS'w-2=law'
p390
aS'w-2=location'
p391
aS'w-2=man'
p392
aS'w-2=money'
p393
aS'w-2=national'
p394
aS'w-2=news'
p395
aS'w-2=not'
p396
aS'w-2=of'
p397
aS'w-2=official'
p398
aS'w-2=only'
p399
aS'w-2=other'
p400
aS'w-2=perhaps'
p401
aS'w-2=plant'
p402
aS'w-2=preference'
p403
aS'w-2=rebellion'
p404
aS'w-2=report'
p405
aS'w-2=right'
p406
aS'w-2=say'
p407
aS'w-2=security'
p408
aS'w-2=should'
p409
aS'w-2=some'
p410
aS'w-2=suspect'
p411
aS'w-2=teacher'
p412
aS'w-2=that'
p413
aS'w-2=the'
p414
aS'w-2=then'
p415
aS'w-2=there'
p416
aS'w-2=they'
p417
aS'w-2=those'
p418
aS'w-2=to'
p419
aS'w-2=try'
p420
aS'w-2=unable'
p421
aS'w-2=up'
p422
aS'w-2=we'
p423
aS'w-2=where'
p424
aS'w-2=who'
p425
aS'w-2=will'
p426
aS'w-2=without'
p427
aS'w-2=worker'
p428
aS'w-2=workforce'
p429
aS'w-2=would'
p430
aS'xcomp=burn'
p431
aS'xcomp=carry'
p432
aS'xcomp=count'
p433
aS'xcomp=defend'
p434
aS'xcomp=end'
p435
aS'xcomp=fill'
p436
aS'xcomp=guarantee'
p437
aS'xcomp=help'
p438
aS'xcomp=lobby'
p439
aS'xcomp=monitor'
p440
aS'xcomp=pick'
p441
aS'xcomp=play'
p442
aS'xcomp=probe'
p443
aS'xcomp=produce'
p444
aS'xcomp=protect'
p445
aS'xcomp=provide'
p446
aS'xcomp=replace'
p447
aS'xcomp=restore'
p448
aS'xcomp=run'
p449
aS'xcomp=serve'
p450
aS'xcomp=support'
p451
aS'xcomp=take'
p452
aS'xcomp=that'
p453
aS'xcomp=track'
p454
aS'xcomp=transport'
p455
aS'xcomp=use'
p456
aS'xcomp=write'
p457
asS'dtype'
p458
cnumpy
float64
p459
sS'vocabulary_'
p460
(dp461
g28
I19
sg78
I69
sg423
I414
sg265
I256
sg286
I277
sg324
I315
sg84
I75
sg117
I108
sg357
I348
sg411
I402
sg456
I447
sg415
I406
sg269
I260
sg296
I287
sg417
I408
sg124
I115
sg151
I142
sg131
I122
sg222
I213
sg226
I217
sg212
I203
sg290
I281
sg322
I313
sg127
I118
sg325
I316
sg218
I209
sg365
I356
sg92
I83
sg46
I37
sg25
I16
sg440
I431
sg162
I153
sg344
I335
sg302
I293
sg379
I370
sg384
I375
sg309
I300
sg308
I299
sg18
I9
sg378
I369
sg374
I365
sg332
I323
sg414
I405
sg192
I183
sg373
I364
sg207
I198
sg45
I36
sg424
I415
sg380
I371
sg116
I107
sg425
I416
sg442
I433
sg273
I264
sg104
I95
sg427
I418
sg142
I133
sg291
I282
sg199
I190
sg89
I80
sg395
I386
sg297
I288
sg351
I342
sg320
I311
sg48
I39
sg140
I131
sg110
I101
sg272
I263
sg383
I374
sg441
I432
sg294
I285
sg399
I390
sg206
I197
sg161
I152
sg21
I12
sg111
I102
sg33
I24
sg50
I41
sg201
I192
sg333
I324
sg53
I44
sg160
I151
sg264
I255
sg345
I336
sg159
I150
sg377
I368
sg329
I320
sg405
I396
sg413
I404
sg213
I204
sg229
I220
sg22
I13
sg246
I237
sg214
I205
sg215
I206
sg184
I175
sg137
I128
sg65
I56
sg154
I145
sg39
I30
sg187
I178
sg305
I296
sg23
I14
sg128
I119
sg157
I148
sg366
I357
sg112
I103
sg16
I7
sg178
I169
sg106
I97
sg448
I439
sg316
I307
sg262
I253
sg200
I191
sg353
I344
sg134
I125
sg225
I216
sg381
I372
sg421
I412
sg136
I127
sg444
I435
sg352
I343
sg91
I82
sg216
I207
sg223
I214
sg81
I72
sg102
I93
sg58
I49
sg59
I50
sg261
I252
sg257
I248
sg406
I397
sg30
I21
sg165
I156
sg292
I283
sg80
I71
sg252
I243
sg401
I392
sg194
I185
sg14
I5
sg75
I66
sg367
I358
sg452
I443
sg98
I89
sg170
I161
sg285
I276
sg113
I104
sg74
I65
sg231
I222
sg135
I126
sg76
I67
sg311
I302
sg219
I210
sg397
I388
sg19
I10
sg341
I332
sg64
I55
sg73
I64
sg375
I366
sg94
I85
sg123
I114
sg61
I52
sg233
I224
sg254
I245
sg241
I232
sg437
I428
sg156
I147
sg52
I43
sg125
I116
sg190
I181
sg97
I88
sg313
I304
sg267
I258
sg368
I359
sg310
I301
sg398
I389
sg247
I238
sg173
I164
sg340
I331
sg457
I448
sg29
I20
sg66
I57
sg258
I249
sg152
I143
sg34
I25
sg68
I59
sg451
I442
sg141
I132
sg279
I270
sg249
I240
sg245
I236
sg244
I235
sg133
I124
sg450
I441
sg370
I361
sg144
I135
sg40
I31
sg220
I211
sg240
I231
sg85
I76
sg11
I2
sg330
I321
sg177
I168
sg107
I98
sg101
I92
sg57
I48
sg221
I212
sg139
I130
sg295
I286
sg283
I274
sg185
I176
sg132
I123
sg422
I413
sg418
I409
sg238
I229
sg354
I345
sg439
I430
sg155
I146
sg49
I40
sg209
I200
sg281
I272
sg371
I362
sg278
I269
sg27
I18
sg280
I271
sg217
I208
sg434
I425
sg93
I84
sg143
I134
sg307
I298
sg71
I62
sg436
I427
sg51
I42
sg416
I407
sg242
I233
sg235
I226
sg335
I326
sg438
I429
sg195
I186
sg24
I15
sg181
I172
sg193
I184
sg430
I421
sg251
I242
sg331
I322
sg41
I32
sg100
I91
sg108
I99
sg349
I340
sg447
I438
sg31
I22
sg445
I436
sg274
I265
sg359
I350
sg38
I29
sg277
I268
sg210
I201
sg114
I105
sg389
I380
sg43
I34
sg146
I137
sg282
I273
sg126
I117
sg385
I376
sg334
I325
sg188
I179
sg388
I379
sg10
I1
sg306
I297
sg293
I284
sg260
I251
sg387
I378
sg284
I275
sg183
I174
sg95
I86
sg239
I230
sg88
I79
sg17
I8
sg319
I310
sg63
I54
sg372
I363
sg87
I78
sg86
I77
sg138
I129
sg79
I70
sg145
I136
sg42
I33
sg443
I434
sg303
I294
sg158
I149
sg129
I120
sg342
I333
sg9
I0
sg109
I100
sg182
I173
sg147
I138
sg224
I215
sg180
I171
sg67
I58
sg410
I401
sg435
I426
sg343
I334
sg287
I278
sg191
I182
sg119
I110
sg232
I223
sg122
I113
sg433
I424
sg72
I63
sg431
I422
sg312
I303
sg186
I177
sg15
I6
sg393
I384
sg62
I53
sg13
I4
sg363
I354
sg266
I257
sg364
I355
sg455
I446
sg130
I121
sg346
I337
sg314
I305
sg205
I196
sg103
I94
sg99
I90
sg26
I17
sg315
I306
sg83
I74
sg189
I180
sg403
I394
sg55
I46
sg230
I221
sg328
I319
sg47
I38
sg253
I244
sg167
I158
sg54
I45
sg449
I440
sg169
I160
sg327
I318
sg390
I381
sg419
I410
sg243
I234
sg360
I351
sg256
I247
sg394
I385
sg203
I194
sg420
I411
sg412
I403
sg428
I419
sg361
I352
sg382
I373
sg198
I189
sg358
I349
sg407
I398
sg288
I279
sg150
I141
sg426
I417
sg149
I140
sg347
I338
sg255
I246
sg348
I339
sg268
I259
sg35
I26
sg355
I346
sg299
I290
sg168
I159
sg396
I387
sg174
I165
sg82
I73
sg362
I353
sg392
I383
sg69
I60
sg263
I254
sg56
I47
sg400
I391
sg454
I445
sg36
I27
sg248
I239
sg402
I393
sg432
I423
sg356
I347
sg339
I330
sg12
I3
sg70
I61
sg304
I295
sg429
I420
sg121
I112
sg300
I291
sg115
I106
sg446
I437
sg321
I312
sg301
I292
sg176
I167
sg259
I250
sg60
I51
sg120
I111
sg289
I280
sg369
I360
sg148
I139
sg275
I266
sg250
I241
sg77
I68
sg211
I202
sg298
I289
sg336
I327
sg196
I187
sg20
I11
sg386
I377
sg236
I227
sg202
I193
sg96
I87
sg153
I144
sg350
I341
sg175
I166
sg44
I35
sg37
I28
sg409
I400
sg408
I399
sg90
I81
sg391
I382
sg318
I309
sg105
I96
sg276
I267
sg317
I308
sg163
I154
sg164
I155
sg197
I188
sg208
I199
sg228
I219
sg404
I395
sg118
I109
sg204
I195
sg453
I444
sg323
I314
sg166
I157
sg376
I367
sg179
I170
sg234
I225
sg227
I218
sg172
I163
sg326
I317
sg271
I262
sg171
I162
sg337
I328
sg338
I329
sg32
I23
sg237
I228
sg270
I261
ssS'separator'
p462
S'='
sS'sparse'
p463
I01
sb.