ccopy_reg
_reconstructor
p1
(csklearn.feature_extraction.dict_vectorizer
DictVectorizer
p2
c__builtin__
object
p3
NtRp4
(dp5
S'sort'
p6
I01
sS'feature_names_'
p7
(lp8
S'advcl=be'
p9
aS'advcl=dump'
p10
aS'advcl=like'
p11
aS'advcl=report'
p12
aS'advmod=also'
p13
aS'advmod=altogether'
p14
aS'advmod=basically'
p15
aS'advmod=completely'
p16
aS'advmod=how'
p17
aS'advmod=necessarily'
p18
aS'advmod=out'
p19
aS'advmod=properly'
p20
aS'advmod=rarely'
p21
aS'advmod=relatively'
p22
aS'advmod=so'
p23
aS'advmod=squeaky'
p24
aS'advmod=then'
p25
aS'advmod=too'
p26
aS'advmod=totally'
p27
aS'advmod=up'
p28
aS'advmod=very'
p29
aS'advmod=where'
p30
aS'advmod=worldwide'
p31
aS'advmod=yet'
p32
aS'amod=further'
p33
aS'aux=be'
p34
aS'aux=can'
p35
aS'aux=have'
p36
aS'aux=to'
p37
aS'auxpass=be'
p38
aS'cc=and'
p39
aS'cc=or'
p40
aS'ccomp=have'
p41
aS'ccomp=include'
p42
aS'ccomp=keep'
p43
aS'ccomp=say'
p44
aS'complm=that'
p45
aS'conj=Band-Aid'
p46
aS'conj=affordable'
p47
aS'conj=do'
p48
aS'conj=equip'
p49
aS'conj=fair'
p50
aS'conj=freeze'
p51
aS'conj=healthy'
p52
aS'conj=include'
p53
aS'conj=infection'
p54
aS'conj=open'
p55
aS'conj=plant'
p56
aS'conj=reset'
p57
aS'conj=safe'
p58
aS'conj=sanitary'
p59
aS'conj=sober'
p60
aS'conj=well-balance'
p61
aS'conj=would'
p62
aS'cop=be'
p63
aS'cop=stay'
p64
aS'csubj=say'
p65
aS'dep=as'
p66
aS'dep=cut'
p67
aS'dep=for'
p68
aS'dep=give'
p69
aS'dep=government'
p70
aS'dep=lean'
p71
aS'dep=move'
p72
aS'dep=perform'
p73
aS'dep=say'
p74
aS'dep=up'
p75
aS'dep=wound'
p76
aS'det=a'
p77
aS'det=any'
p78
aS'det=the'
p79
aS'dobj=#PRP#'
p80
aS'dobj=Bay'
p81
aS'dobj=France'
p82
aS'dobj=Ganges'
p83
aS'dobj=Lake'
p84
aS'dobj=Sochi'
p85
aS'dobj=act'
p86
aS'dobj=administration'
p87
aS'dobj=agent'
p88
aS'dobj=airport'
p89
aS'dobj=area'
p90
aS'dobj=birdcage'
p91
aS'dobj=creek'
p92
aS'dobj=debris'
p93
aS'dobj=edge'
p94
aS'dobj=environment'
p95
aS'dobj=equipment'
p96
aS'dobj=extension'
p97
aS'dobj=fish'
p98
aS'dobj=garbage'
p99
aS'dobj=government'
p100
aS'dobj=gutter'
p101
aS'dobj=house'
p102
aS'dobj=lake'
p103
aS'dobj=lotus'
p104
aS'dobj=mess'
p105
aS'dobj=neighborhood'
p106
aS'dobj=office'
p107
aS'dobj=panel'
p108
aS'dobj=party'
p109
aS'dobj=pollution'
p110
aS'dobj=power'
p111
aS'dobj=reputation'
p112
aS'dobj=rest'
p113
aS'dobj=rifle'
p114
aS'dobj=river'
p115
aS'dobj=sanctuary'
p116
aS'dobj=service'
p117
aS'dobj=sewer'
p118
aS'dobj=site'
p119
aS'dobj=spill'
p120
aS'dobj=spot'
p121
aS'dobj=street'
p122
aS'dobj=tile'
p123
aS'dobj=waste'
p124
aS'dobj=water'
p125
aS'mark=although'
p126
aS'mark=before'
p127
aS'mark=if'
p128
aS'neg=not'
p129
aS'nsubj=#NUMBER#'
p130
aS'nsubj=#PRP#'
p131
aS'nsubj=Armington'
p132
aS'nsubj=Clinton'
p133
aS'nsubj=Johnson'
p134
aS'nsubj=addict'
p135
aS'nsubj=air'
p136
aS'nsubj=coal'
p137
aS'nsubj=environment'
p138
aS'nsubj=facility'
p139
aS'nsubj=food'
p140
aS'nsubj=hand'
p141
aS'nsubj=high'
p142
aS'nsubj=kid'
p143
aS'nsubj=mom'
p144
aS'nsubj=people'
p145
aS'nsubj=plant'
p146
aS'nsubj=premise'
p147
aS'nsubj=priority'
p148
aS'nsubj=race'
p149
aS'nsubj=running'
p150
aS'nsubj=street'
p151
aS'nsubj=that'
p152
aS'nsubj=thing'
p153
aS'nsubj=water'
p154
aS'nsubj=who'
p155
aS'nsubjpass=#PRP#'
p156
aS'nsubjpass=Abidjan'
p157
aS'nsubjpass=waste'
p158
aS'prep=about'
p159
aS'prep=after'
p160
aS'prep=as'
p161
aS'prep=at'
p162
aS'prep=by'
p163
aS'prep=from'
p164
aS'prep=in'
p165
aS'prep=of'
p166
aS'prep=until'
p167
aS'prep=up'
p168
aS'prep=with'
p169
aS'prt=out'
p170
aS'prt=up'
p171
aS'tmod=water'
p172
aS'tmod=week'
p173
aS"w+1=''"
p174
aS'w+1=,'
p175
aS'w+1=-lrb-'
p176
aS'w+1=.'
p177
aS'w+1=Ganga'
p178
aS'w+1=about'
p179
aS'w+1=agent'
p180
aS'w+1=air'
p181
aS'w+1=and'
p182
aS'w+1=as'
p183
aS'w+1=auto-exhaust'
p184
aS'w+1=be'
p185
aS'w+1=beach'
p186
aS'w+1=before'
p187
aS'w+1=bill'
p188
aS'w+1=birthing'
p189
aS'w+1=break'
p190
aS'w+1=coal'
p191
aS'w+1=cooking'
p192
aS'w+1=criminal'
p193
aS'w+1=debris'
p194
aS'w+1=development'
p195
aS'w+1=diesel'
p196
aS'w+1=dish'
p197
aS'w+1=drinking'
p198
aS'w+1=energy'
p199
aS'w+1=environment'
p200
aS'w+1=every'
p201
aS'w+1=everything'
p202
aS'w+1=fish'
p203
aS'w+1=floor'
p204
aS'w+1=government'
p205
aS'w+1=hand'
p206
aS'w+1=house'
p207
aS'w+1=image'
p208
aS'w+1=in'
p209
aS'w+1=instrument'
p210
aS'w+1=it'
p211
aS'w+1=its'
p212
aS'w+1=like'
p213
aS'w+1=lubricant'
p214
aS'w+1=money'
p215
aS'w+1=of'
p216
aS'w+1=on'
p217
aS'w+1=or'
p218
aS'w+1=out'
p219
aS'w+1=payment'
p220
aS'w+1=politician'
p221
aS'w+1=record'
p222
aS'w+1=reputation'
p223
aS'w+1=room'
p224
aS'w+1=shaven'
p225
aS'w+1=she'
p226
aS'w+1=so'
p227
aS'w+1=source'
p228
aS'w+1=sport'
p229
aS'w+1=supplemental'
p230
aS'w+1=sweep'
p231
aS'w+1=technology'
p232
aS'w+1=the'
p233
aS'w+1=themselves'
p234
aS'w+1=they'
p235
aS'w+1=thing'
p236
aS'w+1=until'
p237
aS'w+1=up'
p238
aS'w+1=victory'
p239
aS'w+1=water'
p240
aS'w+1=we'
p241
aS'w+1=white'
p242
aS'w+1=with'
p243
aS"w+2='"
p244
aS"w+2=''"
p245
aS'w+2=,'
p246
aS'w+2=-'
p247
aS'w+2=.'
p248
aS'w+2=?'
p249
aS'w+2=Akouedo'
p250
aS'w+2=Bangkok'
p251
aS'w+2=Campaign'
p252
aS'w+2=Dal'
p253
aS'w+2=Ganges'
p254
aS'w+2=Idul'
p255
aS'w+2=Mr.'
p256
aS'w+2=Sochi'
p257
aS'w+2=a'
p258
aS'w+2=act'
p259
aS'w+2=after'
p260
aS'w+2=all'
p261
aS'w+2=also'
p262
aS'w+2=altogether'
p263
aS'w+2=and'
p264
aS'w+2=area'
p265
aS'w+2=as'
p266
aS'w+2=at'
p267
aS'w+2=available'
p268
aS'w+2=bandit'
p269
aS'w+2=be'
p270
aS'w+2=body'
p271
aS'w+2=by'
p272
aS'w+2=cabinet'
p273
aS'w+2=coal-fired'
p274
aS'w+2=creek'
p275
aS'w+2=cut'
p276
aS'w+2=debris'
p277
aS'w+2=development'
p278
aS'w+2=dioxin'
p279
aS'w+2=do'
p280
aS'w+2=economy'
p281
aS'w+2=edge'
p282
aS'w+2=emission'
p283
aS'w+2=emission-free'
p284
aS'w+2=entrepreneur'
p285
aS'w+2=environment'
p286
aS'w+2=equipment'
p287
aS'w+2=fillet'
p288
aS'w+2=for'
p289
aS'w+2=free'
p290
aS'w+2=from'
p291
aS'w+2=future'
p292
aS'w+2=garbage-strewn'
p293
aS'w+2=gutter'
p294
aS'w+2=history'
p295
aS'w+2=house'
p296
aS'w+2=in'
p297
aS'w+2=islamic'
p298
aS'w+2=it'
p299
aS'w+2=just'
p300
aS'w+2=kit'
p301
aS'w+2=lotus'
p302
aS'w+2=modern'
p303
aS'w+2=neighborhood'
p304
aS'w+2=of'
p305
aS'w+2=oil'
p306
aS'w+2=only'
p307
aS'w+2=open'
p308
aS'w+2=or'
p309
aS'w+2=own'
p310
aS'w+2=perform'
p311
aS'w+2=pollution'
p312
aS'w+2=possible'
p313
aS'w+2=private'
p314
aS'w+2=process'
p315
aS'w+2=project'
p316
aS'w+2=promotion'
p317
aS'w+2=provide'
p318
aS'w+2=put'
p319
aS'w+2=record'
p320
aS'w+2=renewable'
p321
aS'w+2=rifle'
p322
aS'w+2=river'
p323
aS'w+2=run'
p324
aS'w+2=safe'
p325
aS'w+2=sanitary'
p326
aS'w+2=say'
p327
aS'w+2=sewer'
p328
aS'w+2=sober'
p329
aS'w+2=sock'
p330
aS'w+2=solar'
p331
aS'w+2=source'
p332
aS'w+2=spending'
p333
aS'w+2=stove'
p334
aS'w+2=street'
p335
aS'w+2=suggest'
p336
aS'w+2=technology'
p337
aS'w+2=that'
p338
aS'w+2=the'
p339
aS'w+2=these'
p340
aS'w+2=they'
p341
aS'w+2=this'
p342
aS'w+2=tile'
p343
aS'w+2=to'
p344
aS'w+2=two'
p345
aS'w+2=up'
p346
aS'w+2=vehicle'
p347
aS'w+2=water'
p348
aS'w+2=we'
p349
aS'w+2=well-balance'
p350
aS'w+2=what'
p351
aS'w+2=when'
p352
aS'w+2=where'
p353
aS'w+2=will'
p354
aS'w+2=with'
p355
aS'w+2=you'
p356
aS'w+2=young'
p357
aS"w-1=''"
p358
aS'w-1=,'
p359
aS'w-1=.'
p360
aS'w-1=Armington'
p361
aS'w-1=I'
p362
aS'w-1=a'
p363
aS'w-1=about'
p364
aS'w-1=access'
p365
aS'w-1=after'
p366
aS'w-1=and'
p367
aS'w-1=any'
p368
aS'w-1=as'
p369
aS'w-1=be'
p370
aS'w-1=begin'
p371
aS'w-1=bench'
p372
aS'w-1=can'
p373
aS'w-1=child'
p374
aS'w-1=coal'
p375
aS'w-1=come'
p376
aS'w-1=completely'
p377
aS'w-1=conserve'
p378
aS'w-1=day'
p379
aS'w-1=develop'
p380
aS'w-1=drink'
p381
aS'w-1=ensure'
p382
aS'w-1=environment'
p383
aS'w-1=explore'
p384
aS'w-1=for'
p385
aS'w-1=from'
p386
aS'w-1=further'
p387
aS'w-1=get'
p388
aS'w-1=have'
p389
aS'w-1=he'
p390
aS'w-1=help'
p391
aS'w-1=high-tech'
p392
aS'w-1=if'
p393
aS'w-1=in'
p394
aS'w-1=it'
p395
aS'w-1=like'
p396
aS'w-1=make'
p397
aS'w-1=market'
p398
aS'w-1=mid-march'
p399
aS'w-1=mom'
p400
aS'w-1=more'
p401
aS'w-1=nation'
p402
aS'w-1=necessarily'
p403
aS'w-1=need'
p404
aS'w-1=no'
p405
aS'w-1=not'
p406
aS'w-1=numerous'
p407
aS'w-1=of'
p408
aS'w-1=on'
p409
aS'w-1=or'
p410
aS'w-1=people'
p411
aS'w-1=produce'
p412
aS'w-1=properly'
p413
aS'w-1=provide'
p414
aS'w-1=rarely'
p415
aS'w-1=relatively'
p416
aS'w-1=say'
p417
aS'w-1=scarce'
p418
aS'w-1=she'
p419
aS'w-1=squeaky'
p420
aS'w-1=start'
p421
aS'w-1=stay'
p422
aS'w-1=street'
p423
aS'w-1=supply'
p424
aS'w-1=that'
p425
aS'w-1=the'
p426
aS'w-1=they'
p427
aS'w-1=think'
p428
aS'w-1=this'
p429
aS'w-1=through'
p430
aS'w-1=to'
p431
aS'w-1=too'
p432
aS'w-1=totally'
p433
aS'w-1=toward'
p434
aS'w-1=townspeople'
p435
aS'w-1=very'
p436
aS'w-1=water'
p437
aS'w-1=we'
p438
aS'w-1=who'
p439
aS'w-1=wipe'
p440
aS'w-1=with'
p441
aS'w-1=without'
p442
aS'w-1=wound'
p443
aS"w-2=''"
p444
aS"w-2='s"
p445
aS'w-2=,'
p446
aS'w-2=-'
p447
aS'w-2=.'
p448
aS'w-2=2005'
p449
aS'w-2=Berlusconi'
p450
aS'w-2=Clinton'
p451
aS'w-2=First'
p452
aS'w-2=I'
p453
aS'w-2=Indonesia'
p454
aS'w-2=Karenna'
p455
aS'w-2=MacFarlane'
p456
aS'w-2=Morris'
p457
aS'w-2=a'
p458
aS'w-2=accept'
p459
aS'w-2=access'
p460
aS'w-2=add'
p461
aS'w-2=addict'
p462
aS'w-2=agenda'
p463
aS'w-2=aid'
p464
aS'w-2=air'
p465
aS'w-2=and'
p466
aS'w-2=any'
p467
aS'w-2=availability'
p468
aS'w-2=be'
p469
aS'w-2=bid'
p470
aS'w-2=break'
p471
aS'w-2=bright'
p472
aS'w-2=call'
p473
aS'w-2=can'
p474
aS'w-2=care'
p475
aS'w-2=change'
p476
aS'w-2=chemical'
p477
aS'w-2=city'
p478
aS'w-2=clear'
p479
aS'w-2=clothes'
p480
aS'w-2=commit'
p481
aS'w-2=community'
p482
aS'w-2=continue'
p483
aS'w-2=converter'
p484
aS'w-2=country'
p485
aS'w-2=create'
p486
aS'w-2=crisp'
p487
aS'w-2=crop'
p488
aS'w-2=demand'
p489
aS'w-2=develop'
p490
aS'w-2=development'
p491
aS'w-2=do'
p492
aS'w-2=dollar'
p493
aS'w-2=dusty'
p494
aS'w-2=effort'
p495
aS'w-2=electricity'
p496
aS'w-2=estimate'
p497
aS'w-2=expect'
p498
aS'w-2=facility'
p499
aS'w-2=family'
p500
aS'w-2=farm'
p501
aS'w-2=field'
p502
aS'w-2=filter'
p503
aS'w-2=finally'
p504
aS'w-2=firm'
p505
aS'w-2=first'
p506
aS'w-2=fish'
p507
aS'w-2=focus'
p508
aS'w-2=food'
p509
aS'w-2=for'
p510
aS'w-2=force'
p511
aS'w-2=government'
p512
aS'w-2=have'
p513
aS'w-2=he'
p514
aS'w-2=help'
p515
aS'w-2=hide'
p516
aS'w-2=home'
p517
aS'w-2=housing'
p518
aS'w-2=how'
p519
aS'w-2=ill'
p520
aS'w-2=improvement'
p521
aS'w-2=in'
p522
aS'w-2=instead'
p523
aS'w-2=invest'
p524
aS'w-2=investment'
p525
aS'w-2=issue'
p526
aS'w-2=it'
p527
aS'w-2=job'
p528
aS'w-2=know'
p529
aS'w-2=lack'
p530
aS'w-2=lean'
p531
aS'w-2=learn'
p532
aS'w-2=lime'
p533
aS'w-2=liter'
p534
aS'w-2=living'
p535
aS'w-2=local'
p536
aS'w-2=maintain'
p537
aS'w-2=make'
p538
aS'w-2=many'
p539
aS'w-2=meter'
p540
aS'w-2=milk'
p541
aS'w-2=money'
p542
aS'w-2=my'
p543
aS'w-2=need'
p544
aS'w-2=neighborhood'
p545
aS'w-2=neutrality'
p546
aS'w-2=new'
p547
aS'w-2=non-existent'
p548
aS'w-2=not'
p549
aS'w-2=now'
p550
aS'w-2=nowhere'
p551
aS'w-2=of'
p552
aS'w-2=offer'
p553
aS'w-2=official'
p554
aS'w-2=one'
p555
aS'w-2=opportunity'
p556
aS'w-2=people'
p557
aS'w-2=pick'
p558
aS'w-2=pledge'
p559
aS'w-2=prevent'
p560
aS'w-2=prisoner'
p561
aS'w-2=pristine'
p562
aS'w-2=project'
p563
aS'w-2=promise'
p564
aS'w-2=promote'
p565
aS'w-2=promotion'
p566
aS'w-2=quickly'
p567
aS'w-2=raise'
p568
aS'w-2=range'
p569
aS'w-2=really'
p570
aS'w-2=reluctant'
p571
aS'w-2=replace'
p572
aS'w-2=road'
p573
aS'w-2=run'
p574
aS'w-2=safe'
p575
aS'w-2=say'
p576
aS'w-2=security'
p577
aS'w-2=service'
p578
aS'w-2=shoe'
p579
aS'w-2=so'
p580
aS'w-2=space'
p581
aS'w-2=specialize'
p582
aS'w-2=start'
p583
aS'w-2=station'
p584
aS'w-2=step'
p585
aS'w-2=still'
p586
aS'w-2=street'
p587
aS'w-2=such'
p588
aS'w-2=supplies'
p589
aS'w-2=survival'
p590
aS'w-2=sweet'
p591
aS'w-2=switch'
p592
aS'w-2=take'
p593
aS'w-2=tariff'
p594
aS'w-2=technology'
p595
aS'w-2=that'
p596
aS'w-2=the'
p597
aS'w-2=there'
p598
aS'w-2=these'
p599
aS'w-2=they'
p600
aS'w-2=thing'
p601
aS'w-2=to'
p602
aS'w-2=tough'
p603
aS'w-2=transfer'
p604
aS'w-2=try'
p605
aS'w-2=usage'
p606
aS'w-2=use'
p607
aS'w-2=vigorous'
p608
aS'w-2=village'
p609
aS'w-2=want'
p610
aS'w-2=water'
p611
aS'w-2=way'
p612
aS'w-2=where'
p613
aS'w-2=which'
p614
aS'w-2=win'
p615
aS'w-2=wood'
p616
aS'w-2=worldwide'
p617
aS'w-2=yet'
p618
asS'dtype'
p619
cnumpy
float64
p620
sS'vocabulary_'
p621
(dp622
g25
I16
sg199
I190
sg235
I226
sg347
I338
sg143
I134
sg14
I5
sg557
I548
sg592
I583
sg573
I564
sg335
I326
sg125
I116
sg432
I423
sg547
I538
sg402
I393
sg237
I228
sg575
I566
sg47
I38
sg193
I184
sg124
I115
sg99
I90
sg544
I535
sg600
I591
sg52
I43
sg396
I387
sg163
I154
sg608
I599
sg207
I198
sg359
I350
sg485
I476
sg26
I17
sg287
I278
sg115
I106
sg424
I415
sg172
I163
sg398
I389
sg550
I541
sg509
I500
sg417
I408
sg203
I194
sg373
I364
sg178
I169
sg23
I14
sg508
I499
sg612
I603
sg400
I391
sg189
I180
sg453
I444
sg475
I466
sg275
I266
sg437
I428
sg255
I246
sg123
I114
sg257
I248
sg370
I361
sg379
I370
sg116
I107
sg500
I491
sg525
I516
sg324
I315
sg226
I217
sg501
I492
sg613
I604
sg456
I447
sg71
I62
sg147
I138
sg504
I495
sg268
I259
sg303
I294
sg606
I597
sg216
I207
sg449
I440
sg452
I443
sg344
I335
sg236
I227
sg539
I530
sg218
I209
sg357
I348
sg253
I244
sg389
I380
sg44
I35
sg215
I206
sg297
I288
sg300
I291
sg520
I511
sg299
I290
sg311
I302
sg173
I164
sg326
I317
sg405
I396
sg41
I32
sg433
I424
sg159
I150
sg35
I26
sg356
I347
sg252
I243
sg618
I609
sg90
I81
sg91
I82
sg354
I345
sg132
I123
sg149
I140
sg205
I196
sg208
I199
sg495
I486
sg9
I0
sg220
I211
sg323
I314
sg233
I224
sg510
I501
sg270
I261
sg263
I254
sg137
I128
sg53
I44
sg57
I48
sg616
I607
sg553
I544
sg380
I371
sg156
I147
sg365
I356
sg165
I156
sg413
I404
sg286
I277
sg364
I355
sg372
I363
sg545
I536
sg148
I139
sg32
I23
sg292
I283
sg516
I507
sg568
I559
sg546
I537
sg609
I600
sg73
I64
sg386
I377
sg83
I74
sg320
I311
sg304
I295
sg182
I173
sg563
I554
sg348
I339
sg289
I280
sg283
I274
sg106
I97
sg239
I230
sg152
I143
sg395
I386
sg399
I390
sg512
I503
sg157
I148
sg440
I431
sg556
I547
sg317
I308
sg340
I331
sg394
I385
sg349
I340
sg213
I204
sg112
I103
sg426
I417
sg128
I119
sg259
I250
sg476
I467
sg296
I287
sg84
I75
sg21
I12
sg30
I21
sg319
I310
sg22
I13
sg415
I406
sg191
I182
sg375
I366
sg74
I65
sg79
I70
sg482
I473
sg537
I528
sg607
I598
sg455
I446
sg561
I552
sg111
I102
sg378
I369
sg155
I146
sg298
I289
sg552
I543
sg579
I570
sg431
I422
sg89
I80
sg343
I334
sg333
I324
sg80
I71
sg492
I483
sg442
I433
sg16
I7
sg293
I284
sg480
I471
sg139
I130
sg108
I99
sg224
I215
sg69
I60
sg313
I304
sg331
I322
sg615
I606
sg198
I189
sg593
I584
sg377
I368
sg183
I174
sg382
I373
sg302
I293
sg261
I252
sg234
I225
sg170
I161
sg484
I475
sg150
I141
sg496
I487
sg55
I46
sg171
I162
sg225
I216
sg554
I545
sg465
I456
sg202
I193
sg334
I325
sg464
I455
sg441
I432
sg483
I474
sg310
I301
sg401
I392
sg393
I384
sg93
I84
sg518
I509
sg64
I55
sg135
I126
sg241
I232
sg121
I112
sg306
I297
sg604
I595
sg284
I275
sg267
I258
sg94
I85
sg353
I344
sg325
I316
sg266
I257
sg61
I52
sg486
I477
sg481
I472
sg416
I407
sg38
I29
sg404
I395
sg260
I251
sg384
I375
sg254
I245
sg200
I191
sg533
I524
sg327
I318
sg138
I129
sg144
I135
sg134
I125
sg76
I67
sg130
I121
sg295
I286
sg92
I83
sg290
I281
sg212
I203
sg566
I557
sg136
I127
sg355
I346
sg60
I51
sg536
I527
sg358
I349
sg146
I137
sg551
I542
sg351
I342
sg411
I402
sg10
I1
sg48
I39
sg617
I608
sg494
I485
sg309
I300
sg312
I303
sg444
I435
sg100
I91
sg305
I296
sg273
I264
sg367
I358
sg78
I69
sg66
I57
sg227
I218
sg29
I20
sg274
I265
sg368
I359
sg265
I256
sg321
I312
sg598
I589
sg376
I367
sg560
I551
sg318
I309
sg461
I452
sg223
I214
sg443
I434
sg445
I436
sg419
I410
sg221
I212
sg506
I497
sg28
I19
sg291
I282
sg345
I336
sg186
I177
sg523
I514
sg586
I577
sg242
I233
sg31
I22
sg81
I72
sg534
I525
sg272
I263
sg342
I333
sg168
I159
sg581
I572
sg614
I605
sg103
I94
sg167
I158
sg206
I197
sg337
I328
sg428
I419
sg42
I33
sg498
I489
sg597
I588
sg151
I142
sg277
I268
sg497
I488
sg352
I343
sg529
I520
sg120
I111
sg584
I575
sg328
I319
sg145
I136
sg169
I160
sg40
I31
sg250
I241
sg107
I98
sg85
I76
sg232
I223
sg450
I441
sg434
I425
sg565
I556
sg269
I260
sg487
I478
sg522
I513
sg463
I454
sg532
I523
sg381
I372
sg279
I270
sg105
I96
sg527
I518
sg50
I41
sg578
I569
sg423
I414
sg59
I50
sg27
I18
sg468
I459
sg582
I573
sg24
I15
sg366
I357
sg459
I450
sg95
I86
sg118
I109
sg245
I236
sg541
I532
sg594
I585
sg96
I87
sg535
I526
sg280
I271
sg13
I4
sg569
I560
sg126
I117
sg314
I305
sg301
I292
sg361
I352
sg422
I413
sg18
I9
sg473
I464
sg490
I481
sg513
I504
sg271
I262
sg39
I30
sg133
I124
sg185
I176
sg454
I445
sg67
I58
sg332
I323
sg37
I28
sg392
I383
sg181
I172
sg281
I272
sg209
I200
sg176
I167
sg211
I202
sg572
I563
sg217
I208
sg131
I122
sg179
I170
sg285
I276
sg505
I496
sg88
I79
sg610
I601
sg174
I165
sg564
I555
sg436
I427
sg158
I149
sg567
I558
sg391
I382
sg195
I186
sg49
I40
sg98
I89
sg230
I221
sg471
I462
sg276
I267
sg599
I590
sg127
I118
sg113
I104
sg542
I533
sg228
I219
sg153
I144
sg540
I531
sg517
I508
sg502
I493
sg397
I388
sg210
I201
sg543
I534
sg197
I188
sg435
I426
sg256
I247
sg469
I460
sg229
I220
sg489
I480
sg166
I157
sg387
I378
sg214
I205
sg316
I307
sg589
I580
sg451
I442
sg587
I578
sg330
I321
sg190
I181
sg184
I175
sg175
I166
sg114
I105
sg488
I479
sg177
I168
sg72
I63
sg574
I565
sg240
I231
sg231
I222
sg338
I329
sg262
I253
sg559
I550
sg180
I171
sg248
I239
sg251
I242
sg439
I430
sg374
I365
sg430
I421
sg410
I401
sg246
I237
sg82
I73
sg412
I403
sg346
I337
sg383
I374
sg204
I195
sg58
I49
sg54
I45
sg429
I420
sg408
I399
sg531
I522
sg56
I47
sg602
I593
sg264
I255
sg466
I457
sg238
I229
sg603
I594
sg86
I77
sg403
I394
sg421
I412
sg244
I235
sg605
I596
sg307
I298
sg350
I341
sg63
I54
sg467
I458
sg68
I59
sg514
I505
sg562
I553
sg243
I234
sg315
I306
sg102
I93
sg576
I567
sg339
I330
sg162
I153
sg192
I183
sg161
I152
sg43
I34
sg446
I437
sg447
I438
sg448
I439
sg122
I113
sg595
I586
sg278
I269
sg36
I27
sg140
I131
sg601
I592
sg360
I351
sg329
I320
sg549
I540
sg420
I411
sg201
I192
sg555
I546
sg288
I279
sg519
I510
sg65
I56
sg362
I353
sg45
I36
sg119
I110
sg458
I449
sg97
I88
sg427
I418
sg77
I68
sg75
I66
sg363
I354
sg528
I519
sg521
I512
sg580
I571
sg538
I529
sg390
I381
sg117
I108
sg188
I179
sg503
I494
sg70
I61
sg524
I515
sg154
I145
sg591
I582
sg478
I469
sg470
I461
sg341
I332
sg526
I517
sg160
I151
sg87
I78
sg407
I398
sg507
I498
sg194
I185
sg282
I273
sg11
I2
sg491
I482
sg457
I448
sg196
I187
sg462
I453
sg17
I8
sg336
I327
sg530
I521
sg164
I155
sg19
I10
sg590
I581
sg583
I574
sg515
I506
sg438
I429
sg101
I92
sg33
I24
sg187
I178
sg499
I490
sg577
I568
sg472
I463
sg388
I379
sg142
I133
sg570
I561
sg249
I240
sg425
I416
sg12
I3
sg385
I376
sg51
I42
sg294
I285
sg219
I210
sg596
I587
sg109
I100
sg479
I470
sg474
I465
sg588
I579
sg247
I238
sg585
I576
sg62
I53
sg129
I120
sg477
I468
sg460
I451
sg493
I484
sg558
I549
sg571
I562
sg222
I213
sg414
I405
sg548
I539
sg409
I400
sg104
I95
sg141
I132
sg418
I409
sg406
I397
sg371
I362
sg611
I602
sg369
I360
sg46
I37
sg511
I502
sg34
I25
sg15
I6
sg308
I299
sg322
I313
sg258
I249
sg110
I101
sg20
I11
ssS'separator'
p623
S'='
sS'sparse'
p624
I01
sb.