ccopy_reg
_reconstructor
p1
(csklearn.feature_extraction.dict_vectorizer
DictVectorizer
p2
c__builtin__
object
p3
NtRp4
(dp5
S'vocabulary_'
p6
(dp7
S'advmod=then'
p8
I44
sS'w-2=Ki-moon'
p9
I655
sS'prep=before'
p10
I292
sS'advcl=erupt'
p11
I12
sS'dobj=terrorism'
p12
I175
sS'aux=have'
p13
I69
sS'prt=out'
p14
I308
sS'w-2=we'
p15
I782
sS'advmod=quite'
p16
I39
sS'advmod=lower'
p17
I33
sS'w-1=never'
p18
I602
sS'ccomp=rely'
p19
I87
sS'dobj=hour'
p20
I150
sS'nsubj=Paris'
p21
I217
sS'dobj=much'
p22
I157
sS'prep=next'
p23
I300
sS'nsubj=Whibley'
p24
I228
sS'nsubj=child'
p25
I236
sS'w+2=but'
p26
I446
sS'w-2=election'
p27
I700
sS'w+2=operation'
p28
I500
sS'nsubj=team'
p29
I255
sS'w-2=net'
p30
I731
sS'w-2=Fred'
p31
I650
sS'w+1=until'
p32
I406
sS'w-2=surge'
p33
I765
sS'w-1=swift'
p34
I624
sS'w+2=race'
p35
I508
sS'ccomp=term'
p36
I89
sS'advmod=fourth'
p37
I30
sS'w-2=position'
p38
I746
sS'w-2=they'
p39
I770
sS'xcomp=sit'
p40
I806
sS'conj=finish'
p41
I100
sS'prep=by'
p42
I294
sS'w-1=Woods'
p43
I572
sS'w-2=country'
p44
I690
sS'w+1=that'
p45
I394
sS'w+2=master'
p46
I487
sS'w-1=get'
p47
I591
sS'w-1=would'
p48
I635
sS'w-2=now'
p49
I735
sS'dobj=better'
p50
I131
sS'w-1=disappointing'
p51
I584
sS'dobj=study'
p52
I173
sS'w+1=analyze'
p53
I330
sS'dobj=Games'
p54
I124
sS'nsubj=Ki-moon'
p55
I213
sS'w+1=building'
p56
I337
sS'w+2=study'
p57
I517
sS'dobj=meeting'
p58
I155
sS'advmod=just'
p59
I32
sS'w+1=in'
p60
I356
sS'advmod=better'
p61
I26
sS'w-1=will'
p62
I632
sS'w-2=I'
p63
I653
sS'w-2=care'
p64
I684
sS'advmod=shortly'
p65
I42
sS'conj=prepare'
p66
I106
sS'acomp=second'
p67
I3
sS'conj=stop'
p68
I110
sS'nsubj=China'
p69
I202
sS'w-1=be'
p70
I580
sS'w+2=International'
p71
I431
sS'w+1=maybe'
p72
I361
sS'nsubj=Congress'
p73
I204
sS'w-2=at'
p74
I676
sS'w-2=to'
p75
I775
sS'w-2=the'
p76
I769
sS'prep=behind'
p77
I293
sS'dobj=trip'
p78
I183
sS'dobj=that'
p79
I177
sS'w+2=activity'
p80
I440
sS'w-2=time'
p81
I774
sS'w-2=cross'
p82
I691
sS'nsubj=leader'
p83
I245
sS'w-2=where'
p84
I784
sS'nsubj=golfer'
p85
I243
sS'w+1=touch'
p86
I403
sS'w-2=go'
p87
I707
sS'w-1=Bush'
p88
I552
sS'w-2=man'
p89
I726
sS'dep=tie'
p90
I118
sS'w-1=student'
p91
I623
sS'w+1=of'
p92
I366
sS'w+2=July'
p93
I433
sS'w+2=to'
p94
I530
sS'w+1=on'
p95
I368
sS'w-2=declare'
p96
I694
sS'w+2=last'
p97
I483
sS'dobj=prayer'
p98
I162
sS'w+2=first'
p99
I468
sS'w+2=school'
p100
I513
sS'nsubj=return'
p101
I251
sS'w-2=process'
p102
I749
sS'w-1=have'
p103
I594
sS'w-2=Senate'
p104
I663
sS'nsubj=Samb'
p105
I220
sS'w-1=Woldegiorgis'
p106
I571
sS'dobj=eighth'
p107
I146
sS'nsubj=Woldegiorgis'
p108
I229
sS'w+2=in'
p109
I478
sS'ccomp=go'
p110
I82
sS'w+2=what'
p111
I540
sS'w+2=it'
p112
I479
sS'w-1=good'
p113
I593
sS'w+1=search'
p114
I382
sS'w-1=Edwards'
p115
I557
sS'w-2=be'
p116
I679
sS'w+1=talk'
p117
I392
sS'prep=about'
p118
I289
sS'aux=can'
p119
I66
sS'complm=that'
p120
I91
sS'tmod=month'
p121
I315
sS'w-2=Britain'
p122
I644
sS'dobj=career'
p123
I133
sS'w+2=will'
p124
I542
sS'w-1=yet'
p125
I636
sS'w+1=five'
p126
I348
sS'ccomp=army'
p127
I79
sS'w+2=primary'
p128
I505
sS'nsubj=T.J.'
p129
I223
sS'xcomp=build'
p130
I792
sS'advcl=be'
p131
I7
sS'nsubjpass=agreement'
p132
I262
sS'w+2=training'
p133
I532
sS'w-2=that'
p134
I768
sS'w+1=the'
p135
I395
sS'w+2=-rrb-'
p136
I418
sS'nsubj=customer'
p137
I237
sS'w-2=put'
p138
I750
sS'advmod=only'
p139
I36
sS'w+2=be'
p140
I443
sS'w+1=they'
p141
I397
sS'nsubj=Deakes'
p142
I205
sS'dobj=argument'
p143
I129
sS'w-2=i'
p144
I715
sS'advmod=quickly'
p145
I38
sS'nsubjpass=#PRP#'
p146
I261
sS'w+1=20,000'
p147
I324
sS'w-2=out'
p148
I738
sS'prep=in'
p149
I298
sS'w-2=Democrats'
p150
I649
sS'aux=would'
p151
I74
sS'w-1=football'
p152
I588
sS'w+2=university'
p153
I536
sS'acomp=complete'
p154
I0
sS'w+2=round'
p155
I512
sS'w-1=percent'
p156
I612
sS'w+1=overall'
p157
I373
sS'w-1=strong'
p158
I622
sS'advmod=yet'
p159
I50
sS'w-2=Party'
p160
I659
sS'dobj=day'
p161
I137
sS'w-1=side'
p162
I621
sS'w-2=stadium'
p163
I763
sS'prep=to'
p164
I304
sS'dobj=program'
p165
I164
sS'w-2=percentage'
p166
I742
sS'xcomp=escort'
p167
I795
sS'advmod=ago'
p168
I22
sS'w-2=Moscow'
p169
I656
sS'w+1=and'
p170
I331
sS'advmod=third'
p171
I46
sS'dobj=work'
p172
I186
sS'w+1=build'
p173
I336
sS'dobj=third'
p174
I178
sS'w+1=escort'
p175
I345
sS'w-2=Washington'
p176
I669
sS'nsubj=all'
p177
I233
sS'w+2=deal'
p178
I452
sS'w-2=third'
p179
I771
sS'w+2=Iowa'
p180
I432
sS'w-1=Clinton'
p181
I554
sS'advcl=predict'
p182
I16
sS'dep=week'
p183
I119
sS'w-2=order'
p184
I737
sS'dobj=training'
p185
I181
sS'w+1=take'
p186
I391
sS'w-2=north'
p187
I733
sS'prt=up'
p188
I309
sS'w-1=Niamey'
p189
I567
sS'w-2=unable'
p190
I778
sS'w+2=class'
p191
I449
sS'advcl=close'
p192
I10
sS'w+2=this'
p193
I528
sS'nsubj=guy'
p194
I244
sS'w+2=these'
p195
I525
sS'w-2=schedule'
p196
I755
sS'w+1=second'
p197
I383
sS'w+2=we'
p198
I539
sS'w-2=south'
p199
I761
sS'tmod=spring'
p200
I317
sS'conj=be'
p201
I95
sS'conj=conduct'
p202
I97
sS'aux=could'
p203
I67
sS'w-1=the'
p204
I625
sS'partmod=play'
p205
I285
sS'tmod=facility'
p206
I314
sS'advcl=distribute'
p207
I11
sS'w+2=house'
p208
I477
sS'nsubj=worshipper'
p209
I260
sS'w+1=select'
p210
I384
sS'w+2=program'
p211
I506
sS'nsubj=Matiba'
p212
I215
sS'xcomp=repair'
p213
I800
sS'w-1=Kibet'
p214
I565
sS'w+2=testimony'
p215
I521
sS'w-2=host-nation'
p216
I714
sS'advmod=where'
p217
I49
sS'w+2=day'
p218
I451
sS'nsubj=chance'
p219
I235
sS'w+1=off'
p220
I367
sS'nsubj=Thompson'
p221
I225
sS'w-2=19'
p222
I641
sS'w+2=when'
p223
I541
sS'amod=#NUMBER#'
p224
I51
sS'w-1=Kaniskina'
p225
I564
sS'w+1=have'
p226
I351
sS'w+1=repair'
p227
I379
sS'dep=third'
p228
I117
sS'nsubj=troops'
p229
I257
sS'xcomp=analyze'
p230
I791
sS'w+2=job'
p231
I481
sS'w-1=almost'
p232
I577
sS'tmod=session'
p233
I316
sS'dobj=mission'
p234
I156
sS'acomp=strong'
p235
I4
sS'amod=strong'
p236
I62
sS'w+1=tape'
p237
I393
sS'rel=in'
p238
I311
sS'nsubjpass=net'
p239
I270
sS'nsubj=who'
p240
I258
sS'partmod=trail'
p241
I286
sS'dobj=activity'
p242
I126
sS'w-2=Bush'
p243
I645
sS'w-2=of'
p244
I736
sS'w+1=work'
p245
I413
sS'w+2=for'
p246
I469
sS'w+1=university'
p247
I405
sS'w-1=to'
p248
I627
sS'w+2=fifth'
p249
I464
sS'w+2=Kasten'
p250
I434
sS'w+2=more'
p251
I491
sS'nsubj=percent'
p252
I248
sS'w-2=John'
p253
I654
sS'dobj=#PRP#'
p254
I123
sS'w-2=do'
p255
I698
sS'w+2=war'
p256
I538
sS'w-2=reportedly'
p257
I752
sS'w-2=child'
p258
I687
sS'w-2=37-year-old'
p259
I643
sS'dobj=negotiation'
p260
I158
sS'w-1=actually'
p261
I575
sS'w-2=everything'
p262
I702
sS'w-2=Princeton'
p263
I661
sS'w+2=month'
p264
I490
sS'w-1=it'
p265
I597
sS'w-2=and'
p266
I674
sS'w+2=morning'
p267
I492
sS'prep=over'
p268
I303
sS'w+1=as'
p269
I333
sS'w+1=at'
p270
I334
sS'w+2=period'
p271
I502
sS'conj=seek'
p272
I109
sS'dobj=leave'
p273
I153
sS'conj=vice'
p274
I112
sS'nsubj=Index'
p275
I210
sS'dobj=baccalaureate'
p276
I130
sS'w-2=army'
p277
I675
sS'w-1=Zhirinovsky'
p278
I573
sS'nsubjpass=play'
p279
I272
sS'w-2=Oxford'
p280
I657
sS'advcl=week'
p281
I20
sS'nsubjpass=that'
p282
I275
sS'w-1=second-place'
p283
I619
sS'nsubjpass=plan'
p284
I271
sS'w-2=military'
p285
I728
sS'nsubj=election'
p286
I240
sS'w-1=can'
p287
I582
sS'dobj=touch'
p288
I179
sS'w-2=Seck'
p289
I662
sS'xcomp=tape'
p290
I809
sS'w-2=able'
p291
I671
sS'ccomp=be'
p292
I80
sS'w-2=chance'
p293
I686
sS'w-1=elephant'
p294
I585
sS'xcomp=reinforce'
p295
I799
sS'auxpass=be'
p296
I75
sS'w+2=because'
p297
I444
sS'w+1=two'
p298
I404
sS'w-1=quite'
p299
I616
sS'advmod=when'
p300
I48
sS'w-1=minister'
p301
I601
sS'nsubj=Zhirinovsky'
p302
I232
sS'w-1=China'
p303
I553
sS'xcomp=investigate'
p304
I797
sS'w-2=she'
p305
I757
sS'prep=for'
p306
I296
sS'w+1=ahead'
p307
I329
sS'dep=that'
p308
I116
sS'advcl=get'
p309
I13
sS'w+1=we'
p310
I408
sS'w-2=worshipper'
p311
I788
sS'w-2=target'
p312
I766
sS'w-2=33rd'
p313
I642
sS'w+2=look'
p314
I486
sS'nsubj=Bush'
p315
I200
sS'w+2=at'
p316
I442
sS'nsubj=average'
p317
I234
sS'w+2=Dakar'
p318
I428
sS'amod=second-closest'
p319
I60
sS'w-2=U.S.'
p320
I667
sS'parataxis=say'
p321
I283
sS'w+2=disarmament'
p322
I456
sS'w-1=once'
p323
I609
sS'xcomp=serve'
p324
I805
sS'w-2=commit'
p325
I688
sS'w+2=document'
p326
I459
sS'conj=think'
p327
I111
sS'w+2=terrorism'
p328
I520
sS'dobj=term'
p329
I174
sS'nsubj=Kaniskina'
p330
I212
sS'dobj=transmission'
p331
I182
sS'w+2=two-day'
p332
I535
sS'w-2=United'
p333
I668
sS'w+2=mission'
p334
I489
sS'dobj=deal'
p335
I138
sS'w-2=over'
p336
I739
sS'nsubj=parliament'
p337
I247
sS'w-2=last'
p338
I722
sS'w+2=yesterday'
p339
I545
sS'w-1=Iowa'
p340
I562
sS'dobj=tour'
p341
I180
sS'w+1=dismantle'
p342
I342
sS'prep=follow'
p343
I295
sS'w-2=deadline'
p344
I693
sS'w+1=there'
p345
I396
sS'nsubjpass=care'
p346
I264
sS'parataxis=pledge'
p347
I282
sS'w-1=Romney'
p348
I568
sS'w-1=Index'
p349
I561
sS'w+2=she'
p350
I515
sS'w+2=free'
p351
I472
sS'w-2=mdc'
p352
I727
sS'dobj=democracy'
p353
I140
sS'w+2=with'
p354
I543
sS'w+1=fourth'
p355
I349
sS'nsubj=german'
p356
I242
sS'w+1=much'
p357
I365
sS"w-1=''"
p358
I547
sS'nsubj=Kibet'
p359
I214
sS'w-2=those'
p360
I773
sS'amod=third'
p361
I64
sS'nsubj=Judges'
p362
I211
sS'nsubj=Slagle'
p363
I221
sS'w-1=top-10'
p364
I628
sS'nsubj=ship'
p365
I252
sS'conj=do'
p366
I99
sS'amod=positive'
p367
I57
sS'w+1=product'
p368
I375
sS'w+2=or'
p369
I501
sS'amod=fourth'
p370
I54
sS'dobj=education'
p371
I145
sS'nsubjpass=most'
p372
I269
sS'w-1=Florida'
p373
I558
sS'nsubj=States'
p374
I222
sS'w+2=of'
p375
I496
sS'w+2=yet'
p376
I546
sS'nsubjpass=woman'
p377
I280
sS'w+2=on'
p378
I498
sS'w+1=to'
p379
I402
sS'w+2=circus'
p380
I447
sS'w+2=he'
p381
I475
sS'w+2=roller'
p382
I511
sS'w-2=holder'
p383
I712
sS'advmod=higher'
p384
I31
sS'w-1=a'
p385
I574
sS'xcomp=have'
p386
I796
sS'w-2=bid'
p387
I681
sS'w-1=german'
p388
I590
sS'amod=swift'
p389
I63
sS'ccomp=start'
p390
I88
sS'advmod=first'
p391
I29
sS'w+2=20,000'
p392
I423
sS'w+2=final'
p393
I467
sS'w+1=grade'
p394
I350
sS'amod=second-place'
p395
I61
sS'w-1=finally'
p396
I587
sS'w+1=third'
p397
I398
sS'w+2=high'
p398
I476
sS'w-2=must'
p399
I729
sS'w+1=reinforce'
p400
I378
sS'w+2=12.95'
p401
I420
sS'w+1=hearing'
p402
I353
sS'w-1=golfer'
p403
I592
sS'w-1=she'
p404
I620
sS'w+1=yet'
p405
I414
sS'w+2=tour'
p406
I531
sS'advmod=up'
p407
I47
sS'w+2=very'
p408
I537
sS'w+2=two'
p409
I534
sS'w-2=after'
p410
I673
sS'w+2=claim'
p411
I448
sS'w-2=daughter'
p412
I692
sS'w-2=instead'
p413
I717
sS'dobj=speech'
p414
I172
sS'acomp=third'
p415
I5
sS'w-2=second'
p416
I756
sS'advmod=often'
p417
I35
sS'nsubj=University'
p418
I227
sS'w-1=Frankfurt'
p419
I559
sS'w-2=fail'
p420
I703
sS'w+2=six-year'
p421
I516
sS'w-2=disappointing'
p422
I697
sS'w+1=over'
p423
I372
sS'xcomp=politically'
p424
I798
sS'dobj=race'
p425
I166
sS'w-2=word'
p426
I787
sS'tmod=day'
p427
I313
sS'w+2=leave'
p428
I484
sS'auxpass=get'
p429
I76
sS'dobj=degree'
p430
I139
sS'w-2=student'
p431
I764
sS'conj=defeat'
p432
I98
sS'nsubj=personnel'
p433
I249
sS'partmod=leave'
p434
I284
sS'w-1=1-2'
p435
I551
sS'w-2=track'
p436
I776
sS'w-1=runner-up'
p437
I617
sS'w+1=since'
p438
I387
sS'w-1=official'
p439
I606
sS'w-1=troops'
p440
I629
sS'prep=until'
p441
I305
sS'advmod=even'
p442
I28
sS'w-1=other'
p443
I611
sS'amod=good'
p444
I55
sS'dobj=university'
p445
I184
sS'advmod=there'
p446
I45
sS'w+2=21'
p447
I424
sS'conj=#NUMBER#'
p448
I93
sS'w+1=strong'
p449
I390
sS'dobj=Station'
p450
I125
sS'dobj=job'
p451
I152
sS'xcomp=dismantle'
p452
I793
sS'mark=while'
p453
I190
sS'w-2=return'
p454
I753
sS'xcomp=talk'
p455
I808
sS'aux=do'
p456
I68
sS'nsubj=deadline'
p457
I238
sS'w+1=Thaksin'
p458
I326
sS'w+1=run'
p459
I380
sS'aux=will'
p460
I73
sS'w+1=its'
p461
I359
sS'nsubj=eid'
p462
I239
sS'w-1=Jamaica'
p463
I563
sS'dobj=product'
p464
I163
sS'w-2=Senator'
p465
I664
sS'nsubj=Dieng'
p466
I207
sS'w+1=she'
p467
I386
sS'prep=with'
p468
I306
sS'w+2=military'
p469
I488
sS'dobj=testimony'
p470
I176
sS'w-2=play'
p471
I744
sS'w-2=way'
p472
I781
sS'nsubjpass=process'
p473
I273
sS'nn=word'
p474
I197
sS'w+2=its'
p475
I480
sS'dobj=force'
p476
I149
sS'w-2=intend'
p477
I718
sS'w+1=line'
p478
I360
sS'ccomp=influence'
p479
I83
sS'w+2=off'
p480
I497
sS'w-2=before'
p481
I680
sS'advcl=move'
p482
I14
sS'nn=madimdram'
p483
I193
sS'w-2=it'
p484
I720
sS'w-1=woman'
p485
I633
sS'w-2=event'
p486
I701
sS'w+2=democracy'
p487
I454
sS'nsubj=Edwards'
p488
I208
sS'w-1=States'
p489
I569
sS'nsubj=Romney'
p490
I219
sS'w+2=nearly'
p491
I494
sS'w+2=Afghanistan'
p492
I427
sS'w+2=consecutive'
p493
I450
sS'w-2=parliament'
p494
I740
sS'w+1=one'
p495
I369
sS'w+2=than'
p496
I522
sS'w+2=prepared'
p497
I504
sS'dobj=film'
p498
I148
sS'advcl=victim'
p499
I19
sS'ccomp=win'
p500
I90
sS'nsubj=Gizenga'
p501
I209
sS'dobj=opening'
p502
I159
sS'w-1=after'
p503
I576
sS'num=#NUMBER#'
p504
I281
sS"w+2=''"
p505
I415
sS'nsubj=North'
p506
I216
sS'ccomp=misguided'
p507
I84
sS'w+2=four'
p508
I470
sS'w-2=Coast'
p509
I646
sS'w+1=first-term'
p510
I347
sS'advmod=also'
p511
I25
sS'det=the'
p512
I121
sS'nsubjpass=case'
p513
I265
sS'amod=russian'
p514
I58
sS'w+1=six'
p515
I389
sS'nsubjpass=country'
p516
I266
sS'w-2=goal'
p517
I708
sS'w+2=about'
p518
I439
sS'w-2=driver'
p519
I699
sS'w-2=who'
p520
I785
sS'w-2=plan'
p521
I743
sS'w-1=word'
p522
I634
sS'w-2=have'
p523
I710
sS'xcomp=take'
p524
I807
sS'cc=and'
p525
I77
sS'nsubj=student'
p526
I254
sS'nsubj=Clinton'
p527
I203
sS'nsubj=Democrats'
p528
I206
sS'advmod=almost'
p529
I24
sS'dobj=class'
p530
I135
sS'w+1=will'
p531
I410
sS'nsubjpass=war'
p532
I278
sS'w-2=five'
p533
I705
sS'w-1=but'
p534
I581
sS'w-2=russian'
p535
I754
sS'w+1=here'
p536
I354
sS'w-2=when'
p537
I783
sS'w+2=early'
p538
I460
sS'w-2=war'
p539
I780
sS'w-2=precursor'
p540
I747
sS'conj=say'
p541
I108
sS'nsubj=official'
p542
I246
sS'w-2=intention'
p543
I719
sS'w+1=primary'
p544
I374
sS'w-2=additional'
p545
I672
sS'tmod=year'
p546
I319
sS'w-2=Congress'
p547
I648
sS'dobj=mate'
p548
I154
sS'w+1=it'
p549
I358
sS'mark=until'
p550
I189
sS'nsubj=#PRP#'
p551
I198
sS'advmod=both'
p552
I27
sS'xcomp=search'
p553
I803
sS'w+2=go'
p554
I474
sS'w+2=little'
p555
I485
sS'w+1=better'
p556
I335
sS'conj=leave'
p557
I103
sS'cc=but'
p558
I78
sS'w-2=guy'
p559
I709
sS'w+2=Thanksgiving'
p560
I437
sS'conj=nominate'
p561
I105
sS'advmod=ahead'
p562
I23
sS'w-2=taste'
p563
I767
sS'poss=#PRP#'
p564
I287
sS'w+2=film'
p565
I466
sS'nsubj=Woods'
p566
I230
sS'w-1=who'
p567
I631
sS'dobj=#NUMBER#'
p568
I122
sS'w-1=help'
p569
I596
sS'w+2=third'
p570
I527
sS'w+1=school'
p571
I381
sS'advmod=politically'
p572
I37
sS'advcl=play'
p573
I15
sS'w+2=trip'
p574
I533
sS'w-2=could'
p575
I689
sS'w-2=President'
p576
I660
sS'w-1=Conde'
p577
I555
sS'w+1=-rrb-'
p578
I322
sS'w+1=put'
p579
I376
sS'w+2=negotiation'
p580
I495
sS'w+2=eid'
p581
I462
sS'nn=runner-up'
p582
I196
sS'mark=before'
p583
I188
sS'w-2=shot'
p584
I759
sS'aux=must'
p585
I70
sS'conj=get'
p586
I101
sS'w-2=like'
p587
I724
sS'w-2=ship'
p588
I758
sS'w+1=instrument'
p589
I357
sS'w+2=time'
p590
I529
sS'nsubjpass=film'
p591
I268
sS"w-2='s"
p592
I637
sS'w+2=sustainability'
p593
I518
sS'w+2=fourth'
p594
I471
sS"w+1=''"
p595
I320
sS'prep=of'
p596
I301
sS'w+2=42.195-kilometer'
p597
I425
sS'w+1=three'
p598
I400
sS'prep=on'
p599
I302
sS'w+2=project'
p600
I507
sS'mark=after'
p601
I187
sS'nn=process'
p602
I195
sS'xcomp=select'
p603
I804
sS'w+1=meeting'
p604
I363
sS'advcl=begin'
p605
I8
sS'w-1=for'
p606
I589
sS'dobj=second'
p607
I171
sS'ccomp=night'
p608
I85
sS'dobj=ride'
p609
I167
sS'w+2=both'
p610
I445
sS'w+1=sit'
p611
I388
sS'advcl=accept'
p612
I6
sS'w+1=approve'
p613
I332
sS'w-2=printer'
p614
I748
sS'w-2=never'
p615
I732
sS'w-1=average'
p616
I579
sS'w-1=close'
p617
I583
sS'w+2=-lrb-'
p618
I417
sS'nsubj=woman'
p619
I259
sS'nsubjpass=stadium'
p620
I274
sS'nsubjpass=battle'
p621
I263
sS'w+2=right'
p622
I510
sS'w+2=that'
p623
I523
sS'w-2=battle'
p624
I678
sS'w-2=pledge'
p625
I745
sS'w-2=sovereignty'
p626
I762
sS'w-2=bank'
p627
I677
sS'w+2=most'
p628
I493
sS'w+2=and'
p629
I441
sS'dobj=disable'
p630
I142
sS'w-1=second-closest'
p631
I618
sS'advcl=bring'
p632
I9
sS'w-2=want'
p633
I779
sS'w-1=place'
p634
I613
sS'w-1=leader'
p635
I599
sS'xcomp=run'
p636
I801
sS'advcl=say'
p637
I18
sS'dobj=round'
p638
I168
sS'w-1=of'
p639
I605
sS'w+2=fight'
p640
I465
sS'advmod=separately'
p641
I41
sS'conj=go'
p642
I102
sS'w+1=up'
p643
I407
sS'tmod=#DATE#'
p644
I312
sS'conj=maintain'
p645
I104
sS'dobj=season'
p646
I170
sS'w-2=past'
p647
I741
sS'conj=citizen'
p648
I96
sS'w-2=hope'
p649
I713
sS'advmod=actually'
p650
I21
sS'neg=not'
p651
I192
sS'w-2=try'
p652
I777
sS'w+2=distant'
p653
I457
sS'w+2=season'
p654
I514
sS'w+1=first'
p655
I346
sS'w+1=this'
p656
I399
sS'cop=be'
p657
I113
sS'w-2=he'
p658
I711
sS'w+1=more'
p659
I364
sS'nsubjpass=everything'
p660
I267
sS'amod=second'
p661
I59
sS'w+1=with'
p662
I411
sS'w+2=join'
p663
I482
sS'conj=able'
p664
I94
sS'advmod=now'
p665
I34
sS'dobj=house'
p666
I151
sS'nsubj=Britons'
p667
I199
sS'nsubj=printer'
p668
I250
sS'nsubj=elephant'
p669
I241
sS'nsubj=those'
p670
I256
sS'acomp=one-two-three'
p671
I2
sS'nsubj=U.S.'
p672
I226
sS'prep=as'
p673
I290
sS'w-2=,'
p674
I638
sS'w-2=-'
p675
I639
sS'w-2=.'
p676
I640
sS'rcmod=dye'
p677
I310
sS'w-1=and'
p678
I578
sS'dobj=cd'
p679
I134
sS'w+1=what'
p680
I409
sS'nsubj=Taha'
p681
I224
sS'w-2=Hangzhou'
p682
I652
sS'advcl=rank'
p683
I17
sS'w+2=19'
p684
I421
sS'w-2=Taha'
p685
I666
sS'w-2=reform'
p686
I751
sS'w-1=-'
p687
I549
sS'w-1=,'
p688
I548
sS'w-2=not'
p689
I734
sS'w-2=defense'
p690
I695
sS'w-2=need'
p691
I730
sS'w+1=out'
p692
I371
sS'w-1=Thompson'
p693
I570
sS'ccomp=burn'
p694
I81
sS'w+2=Pennsylvania'
p695
I435
sS'advmod=soon'
p696
I43
sS'nsubj=side'
p697
I253
sS'dobj=advance'
p698
I127
sS'w+2=one'
p699
I499
sS'w-1=I'
p700
I560
sS'w-2=film'
p701
I704
sS'aux=should'
p702
I71
sS'amod=last'
p703
I56
sS'w+2=Friday'
p704
I429
sS'w+2=doctorate'
p705
I458
sS'w+2=196'
p706
I422
sS'w-2=a'
p707
I670
sS'w-1=process'
p708
I615
sS'w-1=they'
p709
I626
sS'det=a'
p710
I120
sS'dobj=deployment'
p711
I141
sS'w-2=job'
p712
I721
sS'nsubjpass=which'
p713
I279
sS'w+1=high'
p714
I355
sS'w-2=PALU'
p715
I658
sS'dobj=period'
p716
I161
sS'w+2=work'
p717
I544
sS'w-1=-lrb-'
p718
I550
sS'dobj=doctorate'
p719
I143
sS'w+1=one-two-three'
p720
I370
sS'w-1=he'
p721
I595
sS'w-2=case'
p722
I685
sS'dobj=school'
p723
I169
sS'neg=never'
p724
I191
sS'w+2=disappointing'
p725
I455
sS'w-1=Dieng'
p726
I556
sS'complm=whether'
p727
I92
sS'w+2=they'
p728
I526
sS'nsubj=Xiang'
p729
I231
sS'w+2=give'
p730
I473
sS'advmod=second'
p731
I40
sS'w-2=industrial'
p732
I716
sS'w+1=tie'
p733
I401
sS'ccomp=pledge'
p734
I86
sS'w-2=Girma'
p735
I651
sS'w-2=year'
p736
I789
sS'nsubjpass=visit'
p737
I277
sS'w-1=now'
p738
I604
sS'w+1=serve'
p739
I385
sS'poss=Brown'
p740
I288
sS'w+1=construction'
p741
I340
sS'dobj=agreement'
p742
I128
sS'conj=retire'
p743
I107
sS'w-2=fourth'
p744
I706
sS'w-2=likely'
p745
I725
sS'amod=disappointing'
p746
I53
sS'w+1=complete'
p747
I339
sS'w-2=this'
p748
I772
sS'w+1=medical'
p749
I362
sS'dobj=fight'
p750
I147
sS'w-1=even'
p751
I586
sS'w-2=lawyer'
p752
I723
sS'w+1=Jocz'
p753
I325
sS'w-2=boost'
p754
I682
sS'w-1=positive'
p755
I614
sS'acomp=first'
p756
I1
sS'prep=from'
p757
I297
sS'w+2=term'
p758
I519
sS'amod=close'
p759
I52
sS'w+1=after'
p760
I328
sS'prt=off'
p761
I307
sS'w+1=withdraw'
p762
I412
sS'dep=second'
p763
I115
sS'w-1=we'
p764
I630
sS'aux=to'
p765
I72
sS'w-2=you'
p766
I790
sS'w-2=should'
p767
I760
sS'nsubjpass=trial'
p768
I276
sS'w+2=the'
p769
I524
sS'w+2=fabric'
p770
I463
sS'w-1=only'
p771
I610
sS'xcomp=save'
p772
I802
sS'prep=at'
p773
I291
sS'w-2=T.J.'
p774
I665
sS'w-1=Matiba'
p775
I566
sS'w-2=can'
p776
I683
sS'w-2=will'
p777
I786
sS'w+1=disable'
p778
I341
sS'tmod=week'
p779
I318
sS'w+1=,'
p780
I321
sS'w+1=.'
p781
I323
sS'dep=after'
p782
I114
sS'w+2=.'
p783
I419
sS'w+2=,'
p784
I416
sS'w-1=often'
p785
I607
sS'dobj=document'
p786
I144
sS'nsubj=Penning'
p787
I218
sS'prep=near'
p788
I299
sS'dobj=operation'
p789
I160
sS'dobj=war'
p790
I185
sS'w+1=do'
p791
I343
sS'w+2=degree'
p792
I453
sS'dobj=construction'
p793
I136
sS'w+1=by'
p794
I338
sS'w+1=record'
p795
I377
sS'w+2=I'
p796
I430
sS'w+1=eighth'
p797
I344
sS'w-1=on'
p798
I608
sS'xcomp=withdraw'
p799
I810
sS'w+2=prayer'
p800
I503
sS'w-2=Composite'
p801
I647
sS'w+1=a'
p802
I327
sS'w-1=just'
p803
I598
sS'w-1=not'
p804
I603
sS'w+2=a'
p805
I438
sS'nsubj=Campbell'
p806
I201
sS'xcomp=do'
p807
I794
sS'w+2=result'
p808
I509
sS'w-2=difficult'
p809
I696
sS'w+1=he'
p810
I352
sS'w+2=education'
p811
I461
sS'aux=be'
p812
I65
sS'w-1=madimdram'
p813
I600
sS'nn=place'
p814
I194
sS'w+2=Summer'
p815
I436
sS'w+2=48'
p816
I426
sS'dobj=bit'
p817
I132
sS'dobj=project'
p818
I165
ssS'dtype'
p819
cnumpy
float64
p820
sS'feature_names_'
p821
(lp822
g154
ag756
ag671
ag67
ag235
ag415
ag612
ag131
ag605
ag632
ag192
ag207
ag11
ag309
ag482
ag573
ag182
ag683
ag637
ag499
ag281
ag650
ag168
ag562
ag529
ag511
ag61
ag552
ag442
ag391
ag37
ag384
ag59
ag17
ag665
ag417
ag139
ag572
ag145
ag16
ag731
ag641
ag65
ag696
ag8
ag446
ag171
ag407
ag300
ag217
ag159
ag224
ag759
ag746
ag370
ag444
ag703
ag367
ag514
ag661
ag319
ag395
ag236
ag389
ag361
ag812
ag119
ag203
ag456
ag13
ag585
ag702
ag765
ag460
ag151
ag296
ag429
ag525
ag558
ag127
ag292
ag694
ag110
ag479
ag507
ag608
ag734
ag19
ag390
ag36
ag500
ag120
ag727
ag448
ag664
ag201
ag648
ag202
ag432
ag366
ag41
ag586
ag642
ag557
ag645
ag561
ag66
ag743
ag541
ag272
ag68
ag327
ag274
ag657
ag782
ag763
ag308
ag228
ag90
ag183
ag710
ag512
ag568
ag254
ag54
ag450
ag242
ag698
ag742
ag143
ag276
ag50
ag817
ag123
ag679
ag530
ag793
ag161
ag335
ag430
ag353
ag711
ag630
ag719
ag786
ag371
ag107
ag750
ag498
ag476
ag20
ag666
ag451
ag273
ag548
ag58
ag234
ag22
ag260
ag502
ag789
ag716
ag98
ag464
ag165
ag818
ag425
ag609
ag638
ag723
ag646
ag607
ag414
ag52
ag329
ag12
ag470
ag79
ag174
ag288
ag341
ag185
ag331
ag78
ag445
ag790
ag172
ag601
ag583
ag550
ag453
ag724
ag651
ag483
ag814
ag602
ag582
ag474
ag551
ag667
ag315
ag806
ag69
ag527
ag73
ag142
ag528
ag466
ag488
ag501
ag275
ag362
ag330
ag55
ag359
ag212
ag506
ag21
ag787
ag490
ag105
ag363
ag374
ag129
ag681
ag221
ag672
ag418
ag24
ag108
ag566
ag729
ag302
ag177
ag317
ag219
ag25
ag137
ag457
ag462
ag286
ag669
ag356
ag85
ag194
ag83
ag542
ag337
ag252
ag433
ag668
ag101
ag365
ag697
ag526
ag29
ag670
ag229
ag240
ag619
ag209
ag146
ag132
ag621
ag346
ag513
ag516
ag660
ag591
ag372
ag239
ag284
ag279
ag473
ag620
ag282
ag768
ag737
ag532
ag713
ag377
ag504
ag347
ag321
ag434
ag205
ag241
ag564
ag740
ag118
ag673
ag773
ag10
ag77
ag42
ag343
ag306
ag757
ag149
ag788
ag23
ag596
ag599
ag268
ag164
ag441
ag468
ag761
ag14
ag188
ag677
ag238
ag644
ag427
ag206
ag121
ag233
ag200
ag779
ag546
ag595
ag780
ag578
ag781
ag147
ag753
ag458
ag802
ag760
ag307
ag53
ag170
ag613
ag269
ag270
ag556
ag173
ag56
ag794
ag747
ag741
ag778
ag342
ag791
ag797
ag175
ag655
ag510
ag126
ag355
ag394
ag226
ag810
ag402
ag536
ag714
ag60
ag589
ag549
ag461
ag478
ag72
ag749
ag604
ag659
ag357
ag92
ag220
ag95
ag495
ag720
ag692
ag423
ag157
ag544
ag368
ag579
ag795
ag400
ag227
ag459
ag571
ag114
ag197
ag210
ag739
ag467
ag438
ag611
ag515
ag449
ag186
ag117
ag237
ag45
ag135
ag345
ag141
ag397
ag656
ag598
ag733
ag379
ag86
ag298
ag247
ag32
ag643
ag310
ag680
ag531
ag662
ag762
ag245
ag405
ag505
ag784
ag618
ag136
ag783
ag401
ag684
ag706
ag392
ag447
ag597
ag816
ag492
ag318
ag704
ag796
ag71
ag180
ag93
ag250
ag695
ag815
ag560
ag805
ag518
ag80
ag629
ag316
ag140
ag297
ag610
ag26
ag380
ag411
ag191
ag493
ag218
ag178
ag792
ag487
ag725
ag322
ag653
ag705
ag326
ag538
ag811
ag581
ag770
ag249
ag640
ag565
ag393
ag99
ag246
ag508
ag594
ag351
ag730
ag554
ag381
ag398
ag208
ag109
ag112
ag475
ag231
ag663
ag97
ag428
ag555
ag314
ag46
ag469
ag334
ag264
ag251
ag267
ag628
ag491
ag580
ag375
ag480
ag378
ag699
ag28
ag369
ag271
ag800
ag497
ag128
ag211
ag600
ag35
ag808
ag622
ag382
ag155
ag100
ag654
ag350
ag421
ag57
ag593
ag758
ag328
ag215
ag496
ag623
ag769
ag195
ag728
ag570
ag193
ag590
ag94
ag406
ag133
ag574
ag409
ag332
ag153
ag408
ag256
ag198
ag111
ag223
ag124
ag354
ag717
ag339
ag376
ag358
ag688
ag687
ag718
ag435
ag88
ag303
ag181
ag577
ag726
ag115
ag373
ag419
ag700
ag349
ag340
ag463
ag225
ag214
ag775
ag189
ag348
ag489
ag693
ag106
ag43
ag278
ag385
ag261
ag503
ag232
ag678
ag616
ag70
ag534
ag287
ag617
ag51
ag294
ag751
ag396
ag152
ag606
ag388
ag47
ag403
ag113
ag103
ag721
ag569
ag265
ag803
ag635
ag813
ag301
ag18
ag804
ag738
ag639
ag439
ag785
ag798
ag323
ag771
ag443
ag156
ag634
ag755
ag708
ag299
ag437
ag631
ag283
ag404
ag162
ag158
ag91
ag34
ag204
ag709
ag248
ag364
ag440
ag764
ag567
ag62
ag485
ag522
ag48
ag125
ag592
ag674
ag675
ag676
ag222
ag313
ag259
ag122
ag243
ag509
ag801
ag547
ag150
ag31
ag735
ag682
ag63
ag253
ag9
ag169
ag280
ag715
ag160
ag576
ag263
ag289
ag104
ag465
ag774
ag685
ag320
ag333
ag176
ag707
ag291
ag545
ag410
ag266
ag277
ag74
ag627
ag624
ag116
ag481
ag387
ag754
ag776
ag64
ag722
ag293
ag258
ag325
ag575
ag44
ag82
ag412
ag344
ag96
ag690
ag809
ag422
ag255
ag519
ag27
ag486
ag262
ag420
ag701
ag533
ag744
ag87
ag517
ag559
ag523
ag658
ag383
ag649
ag216
ag144
ag732
ag413
ag477
ag543
ag484
ag712
ag338
ag752
ag587
ag745
ag89
ag352
ag285
ag399
ag691
ag30
ag615
ag187
ag689
ag49
ag244
ag184
ag148
ag336
ag494
ag647
ag166
ag521
ag471
ag625
ag38
ag540
ag614
ag102
ag138
ag686
ag257
ag454
ag535
ag196
ag416
ag305
ag588
ag584
ag767
ag199
ag626
ag163
ag431
ag33
ag312
ag563
ag134
ag76
ag39
ag179
ag748
ag360
ag81
ag75
ag436
ag652
ag190
ag633
ag539
ag472
ag15
ag537
ag84
ag520
ag777
ag426
ag311
ag736
ag766
ag230
ag130
ag452
ag807
ag167
ag386
ag304
ag424
ag295
ag213
ag636
ag772
ag553
ag603
ag324
ag40
ag524
ag455
ag290
ag799
asS'separator'
p823
S'='
sS'sparse'
p824
I01
sb.