ccopy_reg
_reconstructor
p1
(csklearn.feature_extraction.dict_vectorizer
DictVectorizer
p2
c__builtin__
object
p3
NtRp4
(dp5
S'sort'
p6
I01
sS'feature_names_'
p7
(lp8
S'advcl=announce'
p9
aS'advcl=attack'
p10
aS'advcl=be'
p11
aS'advcl=begin'
p12
aS'advcl=continue'
p13
aS'advcl=convict'
p14
aS'advcl=discuss'
p15
aS'advcl=drag'
p16
aS'advcl=fail'
p17
aS'advcl=fall'
p18
aS'advcl=fire'
p19
aS'advcl=go'
p20
aS'advcl=kill'
p21
aS'advcl=lose'
p22
aS'advcl=meet'
p23
aS'advcl=radio'
p24
aS'advcl=return'
p25
aS'advcl=say'
p26
aS'advcl=surface'
p27
aS'advcl=tough'
p28
aS'advcl=try'
p29
aS'advcl=win'
p30
aS'advmod=again'
p31
aS'advmod=ago'
p32
aS'advmod=ahead'
p33
aS'advmod=already'
p34
aS'advmod=also'
p35
aS'advmod=apart'
p36
aS'advmod=apparently'
p37
aS'advmod=at'
p38
aS'advmod=back'
p39
aS'advmod=behind'
p40
aS'advmod=clearly'
p41
aS'advmod=earlier'
p42
aS'advmod=even'
p43
aS'advmod=however'
p44
aS'advmod=immediately'
p45
aS'advmod=indiscriminately'
p46
aS'advmod=instead'
p47
aS'advmod=largely'
p48
aS'advmod=legally'
p49
aS'advmod=long'
p50
aS'advmod=maybe'
p51
aS'advmod=more'
p52
aS'advmod=randomly'
p53
aS'advmod=recently'
p54
aS'advmod=repeatedly'
p55
aS'advmod=separately'
p56
aS'advmod=shortly'
p57
aS'advmod=since'
p58
aS'advmod=soon'
p59
aS'advmod=then'
p60
aS'advmod=twice'
p61
aS'advmod=unilaterally'
p62
aS'advmod=well'
p63
aS'advmod=when'
p64
aS'advmod=where'
p65
aS'amod=automatic'
p66
aS'amod=big'
p67
aS'amod=competitive'
p68
aS'amod=continue'
p69
aS'amod=cooking'
p70
aS'amod=daily'
p71
aS'amod=dangerous'
p72
aS'amod=devastating'
p73
aS'amod=effective'
p74
aS'amod=follow'
p75
aS'amod=friendly'
p76
aS'amod=glow'
p77
aS'amod=great'
p78
aS'amod=heavy'
p79
aS'amod=incoming'
p80
aS'amod=indirect'
p81
aS'amod=intense'
p82
aS'amod=israeli'
p83
aS'amod=large-scale'
p84
aS'amod=machine-gun'
p85
aS'amod=massive'
p86
aS'amod=mortar'
p87
aS'amod=necessary'
p88
aS'amod=open'
p89
aS'amod=palestinian'
p90
aS'amod=political'
p91
aS'amod=proportionate'
p92
aS'amod=rhetorical'
p93
aS'amod=seasonal'
p94
aS'amod=sharp'
p95
aS'amod=small'
p96
aS'amod=spectacular'
p97
aS'amod=sporadic'
p98
aS'amod=stubborn'
p99
aS'amod=subsequent'
p100
aS'amod=widespread'
p101
aS'amod=wildland'
p102
aS'appos=Economy'
p103
aS'appos=area'
p104
aS'appos=fire'
p105
aS'aux=be'
p106
aS'aux=can'
p107
aS'aux=could'
p108
aS'aux=have'
p109
aS'aux=may'
p110
aS'aux=might'
p111
aS'aux=to'
p112
aS'aux=will'
p113
aS'aux=would'
p114
aS'auxpass=be'
p115
aS'auxpass=get'
p116
aS'cc=and'
p117
aS'cc=but'
p118
aS'cc=or'
p119
aS'cc=well'
p120
aS'ccomp=ace'
p121
aS'ccomp=allow'
p122
aS'ccomp=break'
p123
aS'ccomp=explain'
p124
aS'ccomp=fire'
p125
aS'ccomp=kill'
p126
aS'ccomp=lead'
p127
aS'ccomp=leave'
p128
aS'ccomp=make'
p129
aS'ccomp=read'
p130
aS'ccomp=report'
p131
aS'ccomp=say'
p132
aS'ccomp=tear'
p133
aS'ccomp=use'
p134
aS'complm=that'
p135
aS'complm=whether'
p136
aS'conj=#NUMBER#'
p137
aS'conj=Man'
p138
aS'conj=accuse'
p139
aS'conj=anything'
p140
aS'conj=battle'
p141
aS'conj=blow'
p142
aS'conj=burn'
p143
aS'conj=conduct'
p144
aS'conj=continue'
p145
aS'conj=criticize'
p146
aS'conj=decay'
p147
aS'conj=declare'
p148
aS'conj=defeat'
p149
aS'conj=defend'
p150
aS'conj=deforestation'
p151
aS'conj=demand'
p152
aS'conj=die'
p153
aS'conj=direct'
p154
aS'conj=emission'
p155
aS'conj=end'
p156
aS'conj=form'
p157
aS'conj=get'
p158
aS'conj=group'
p159
aS'conj=happen'
p160
aS'conj=have'
p161
aS'conj=hit'
p162
aS'conj=implicate'
p163
aS'conj=jail'
p164
aS'conj=keep'
p165
aS'conj=kill'
p166
aS'conj=knock'
p167
aS'conj=launch'
p168
aS'conj=live'
p169
aS'conj=looting'
p170
aS'conj=make'
p171
aS'conj=militant'
p172
aS'conj=opt'
p173
aS'conj=order'
p174
aS'conj=outnumber'
p175
aS'conj=pay'
p176
aS'conj=pile'
p177
aS'conj=ranching'
p178
aS'conj=replace'
p179
aS'conj=say'
p180
aS'conj=send'
p181
aS'conj=set'
p182
aS'conj=shell'
p183
aS'conj=shoot'
p184
aS'conj=something'
p185
aS'conj=strike'
p186
aS'conj=survive'
p187
aS'conj=suspend'
p188
aS'conj=take'
p189
aS'conj=that'
p190
aS'conj=throw'
p191
aS'conj=travel'
p192
aS'conj=use'
p193
aS'conj=visionary'
p194
aS'conj=vow'
p195
aS'cop=be'
p196
aS'csubj=#PRP#'
p197
aS'csubj=save'
p198
aS'dep=#PRP#'
p199
aS'dep=Barry'
p200
aS'dep=after'
p201
aS'dep=call'
p202
aS'dep=destroy'
p203
aS'dep=disperse'
p204
aS'dep=engine'
p205
aS'dep=minister'
p206
aS'dep=notably'
p207
aS'dep=rage'
p208
aS'dep=say'
p209
aS'dep=suppress'
p210
aS'dep=tear'
p211
aS'dep=then'
p212
aS'dep=though'
p213
aS'det=a'
p214
aS'det=no'
p215
aS'det=that'
p216
aS'det=the'
p217
aS'det=these'
p218
aS'det=this'
p219
aS'dobj=#NUMBER#'
p220
aS'dobj=#PRP#'
p221
aS'dobj=Chaudry'
p222
aS'dobj=Diallo'
p223
aS'dobj=Pakistan'
p224
aS'dobj=Phillips'
p225
aS'dobj=Rumsfeld'
p226
aS'dobj=Secretary'
p227
aS'dobj=Zuma'
p228
aS'dobj=ammunition'
p229
aS'dobj=atleast'
p230
aS'dobj=attorney'
p231
aS'dobj=barrage'
p232
aS'dobj=beam'
p233
aS'dobj=bullet'
p234
aS'dobj=chief'
p235
aS'dobj=daily'
p236
aS'dobj=director'
p237
aS'dobj=dozen'
p238
aS'dobj=economy'
p239
aS'dobj=editor'
p240
aS'dobj=employee'
p241
aS'dobj=firm'
p242
aS'dobj=general'
p243
aS'dobj=grenade'
p244
aS'dobj=gun'
p245
aS'dobj=gunshot'
p246
aS'dobj=homemade'
p247
aS'dobj=judge'
p248
aS'dobj=justice'
p249
aS'dobj=lawyer'
p250
aS'dobj=manager'
p251
aS'dobj=minister'
p252
aS'dobj=missile'
p253
aS'dobj=mortar'
p254
aS'dobj=officer'
p255
aS'dobj=official'
p256
aS'dobj=people'
p257
aS'dobj=personnel'
p258
aS'dobj=plant'
p259
aS'dobj=prosecutor'
p260
aS'dobj=regulation'
p261
aS'dobj=rocket'
p262
aS'dobj=round'
p263
aS'dobj=shell'
p264
aS'dobj=shot'
p265
aS'dobj=supporter'
p266
aS'dobj=tearga'
p267
aS'dobj=that'
p268
aS'dobj=third'
p269
aS'dobj=voter'
p270
aS'dobj=weapon'
p271
aS'dobj=worker'
p272
aS'expl=there'
p273
aS'infmod=prepare'
p274
aS'mark=after'
p275
aS'mark=although'
p276
aS'mark=as'
p277
aS'mark=because'
p278
aS'mark=before'
p279
aS'mark=since'
p280
aS'mark=until'
p281
aS'mark=while'
p282
aS'mark=with'
p283
aS'neg=never'
p284
aS'neg=not'
p285
aS'nn=County'
p286
aS'nn=arm'
p287
aS'nn=artillery'
p288
aS'nn=brush'
p289
aS'nn=charcoal'
p290
aS'nn=coal'
p291
aS'nn=cooking'
p292
aS'nn=cross'
p293
aS'nn=enemy'
p294
aS'nn=engine'
p295
aS'nn=exterior'
p296
aS'nn=forest'
p297
aS'nn=ground'
p298
aS'nn=gun'
p299
aS'nn=gunshot'
p300
aS'nn=kitchen'
p301
aS'nn=president'
p302
aS'nn=return'
p303
aS'nn=rocket'
p304
aS'nn=skepticism'
p305
aS'nn=small-arm'
p306
aS'nn=sniper'
p307
aS'nn=tank'
p308
aS'nn=tent'
p309
aS'nn=troops'
p310
aS'nn=volunteer'
p311
aS'nn=weapon'
p312
aS'nn=wood'
p313
aS'nsubj=#PRP#'
p314
aS'nsubj=Army'
p315
aS'nsubj=Boehner'
p316
aS'nsubj=Bush'
p317
aS'nsubj=CHORA'
p318
aS'nsubj=Cho'
p319
aS'nsubj=Clinton'
p320
aS'nsubj=Conte'
p321
aS'nsubj=Cowboys'
p322
aS'nsubj=Garrett'
p323
aS'nsubj=Giuliani'
p324
aS'nsubj=Hamas'
p325
aS'nsubj=Hezbollah'
p326
aS'nsubj=Isner'
p327
aS'nsubj=Jihad'
p328
aS'nsubj=MONUC'
p329
aS'nsubj=Marines'
p330
aS'nsubj=Mbeki'
p331
aS'nsubj=Militants'
p332
aS'nsubj=Musharraf'
p333
aS'nsubj=New'
p334
aS'nsubj=No.'
p335
aS'nsubj=Obama'
p336
aS'nsubj=Palestinians'
p337
aS'nsubj=Pelosi'
p338
aS'nsubj=Police'
p339
aS'nsubj=President'
p340
aS'nsubj=Romney'
p341
aS'nsubj=Swift'
p342
aS'nsubj=Taylor'
p343
aS'nsubj=Wade'
p344
aS'nsubj=african'
p345
aS'nsubj=aircraft'
p346
aS'nsubj=al-Islam'
p347
aS'nsubj=american'
p348
aS'nsubj=army'
p349
aS'nsubj=arsonist'
p350
aS'nsubj=assassin'
p351
aS'nsubj=attacker'
p352
aS'nsubj=bomber'
p353
aS'nsubj=boss'
p354
aS'nsubj=coal'
p355
aS'nsubj=crime'
p356
aS'nsubj=defens'
p357
aS'nsubj=drone'
p358
aS'nsubj=egyptian'
p359
aS'nsubj=employee'
p360
aS'nsubj=evening'
p361
aS'nsubj=exercise'
p362
aS'nsubj=force'
p363
aS'nsubj=gas'
p364
aS'nsubj=government'
p365
aS'nsubj=group'
p366
aS'nsubj=guard'
p367
aS'nsubj=gunman'
p368
aS'nsubj=helicopter'
p369
aS'nsubj=hezbollah'
p370
aS'nsubj=hour'
p371
aS'nsubj=insurgent'
p372
aS'nsubj=lieutenant'
p373
aS'nsubj=man'
p374
aS'nsubj=member'
p375
aS'nsubj=militant'
p376
aS'nsubj=minister'
p377
aS'nsubj=nobody'
p378
aS'nsubj=office'
p379
aS'nsubj=official'
p380
aS'nsubj=overseer'
p381
aS'nsubj=police'
p382
aS'nsubj=president'
p383
aS'nsubj=rebel'
p384
aS'nsubj=restoration'
p385
aS'nsubj=robber'
p386
aS'nsubj=rocket'
p387
aS'nsubj=roddick'
p388
aS'nsubj=ship'
p389
aS'nsubj=shot'
p390
aS'nsubj=side'
p391
aS'nsubj=soldier'
p392
aS'nsubj=some'
p393
aS'nsubj=supporter'
p394
aS'nsubj=suspect'
p395
aS'nsubj=terrorist'
p396
aS'nsubj=test'
p397
aS'nsubj=that'
p398
aS'nsubj=troops'
p399
aS'nsubj=who'
p400
aS'nsubj=worker'
p401
aS'nsubjpass=#NUMBER#'
p402
aS'nsubjpass=#PRP#'
p403
aS'nsubjpass=Attorney'
p404
aS'nsubjpass=Bhutto'
p405
aS'nsubjpass=Fallon'
p406
aS'nsubjpass=Kuseyo'
p407
aS'nsubjpass=Odinga'
p408
aS'nsubjpass=Palestinians'
p409
aS'nsubjpass=Zuma'
p410
aS'nsubjpass=authority'
p411
aS'nsubjpass=convoy'
p412
aS'nsubjpass=director'
p413
aS'nsubjpass=gunshot'
p414
aS'nsubjpass=handgun'
p415
aS'nsubjpass=journalist'
p416
aS'nsubjpass=junior'
p417
aS'nsubjpass=many'
p418
aS'nsubjpass=masseuse'
p419
aS'nsubjpass=missile'
p420
aS'nsubjpass=officer'
p421
aS'nsubjpass=plane'
p422
aS'nsubjpass=point'
p423
aS'nsubjpass=politician'
p424
aS'nsubjpass=prosecutor'
p425
aS'nsubjpass=refugee'
p426
aS'nsubjpass=rocket'
p427
aS'nsubjpass=round'
p428
aS'nsubjpass=shot'
p429
aS'nsubjpass=soldier'
p430
aS'nsubjpass=some'
p431
aS'nsubjpass=stop'
p432
aS'nsubjpass=stove'
p433
aS'nsubjpass=that'
p434
aS'nsubjpass=who'
p435
aS'num=#NUMBER#'
p436
aS'parataxis=lock'
p437
aS'parataxis=receive'
p438
aS'partmod=burn'
p439
aS'partmod=create'
p440
aS'partmod=declare'
p441
aS'partmod=demand'
p442
aS'partmod=devastate'
p443
aS'partmod=end'
p444
aS'partmod=fan'
p445
aS'partmod=go'
p446
aS'partmod=hear'
p447
aS'partmod=kill'
p448
aS'partmod=say'
p449
aS'partmod=set'
p450
aS'partmod=show'
p451
aS'partmod=smolder'
p452
aS'partmod=spread'
p453
aS'partmod=tend'
p454
aS'partmod=terrorize'
p455
aS'partmod=underscore'
p456
aS'partmod=use'
p457
aS'poss=#PRP#'
p458
aS'poss=Apollo'
p459
aS'prep=about'
p460
aS'prep=accord'
p461
aS'prep=across'
p462
aS'prep=after'
p463
aS'prep=against'
p464
aS'prep=along'
p465
aS'prep=amid'
p466
aS'prep=around'
p467
aS'prep=as'
p468
aS'prep=at'
p469
aS'prep=before'
p470
aS'prep=between'
p471
aS'prep=by'
p472
aS'prep=down'
p473
aS'prep=during'
p474
aS'prep=follow'
p475
aS'prep=for'
p476
aS'prep=from'
p477
aS'prep=in'
p478
aS'prep=include'
p479
aS'prep=into'
p480
aS'prep=like'
p481
aS'prep=near'
p482
aS'prep=of'
p483
aS'prep=off'
p484
aS'prep=on'
p485
aS'prep=outside'
p486
aS'prep=over'
p487
aS'prep=since'
p488
aS'prep=through'
p489
aS'prep=throughout'
p490
aS'prep=to'
p491
aS'prep=under'
p492
aS'prep=upon'
p493
aS'prep=with'
p494
aS'prt=back'
p495
aS'prt=out'
p496
aS'prt=up'
p497
aS'rcmod=carry'
p498
aS'rcmod=destroy'
p499
aS'rcmod=detect'
p500
aS'rcmod=have'
p501
aS'rcmod=set'
p502
aS'rcmod=spark'
p503
aS'rcmod=start'
p504
aS'rcmod=undetectable'
p505
aS'rel=during'
p506
aS'rel=in'
p507
aS'tmod=#DATE#'
p508
aS'tmod=day'
p509
aS'tmod=month'
p510
aS'tmod=time'
p511
aS'tmod=week'
p512
aS'tmod=year'
p513
aS"w+1='"
p514
aS"w+1=''"
p515
aS'w+1=,'
p516
aS'w+1=-rrb-'
p517
aS'w+1=.'
p518
aS'w+1=122'
p519
aS'w+1=220'
p520
aS'w+1=25'
p521
aS'w+1=30'
p522
aS'w+1=39'
p523
aS'w+1=4,000'
p524
aS'w+1=Attorney'
p525
aS'w+1=Chaudry'
p526
aS'w+1=Chief'
p527
aS'w+1=Diallo'
p528
aS'w+1=Jacob'
p529
aS'w+1=Katyusha'
p530
aS'w+1=Kouyate'
p531
aS'w+1=Saturday'
p532
aS'w+1=Thursday'
p533
aS'w+1=Tuesday'
p534
aS'w+1=U.S.'
p535
aS'w+1=Wednesday'
p536
aS'w+1=Zuma'
p537
aS'w+1=a'
p538
aS'w+1=across'
p539
aS'w+1=after'
p540
aS'w+1=again'
p541
aS'w+1=against'
p542
aS'w+1=alarm'
p543
aS'w+1=all'
p544
aS'w+1=almost'
p545
aS'w+1=along'
p546
aS'w+1=already'
p547
aS'w+1=and'
p548
aS'w+1=anti-tank'
p549
aS'w+1=any'
p550
aS'w+1=around'
p551
aS'w+1=as'
p552
aS'w+1=at'
p553
aS'w+1=atleast'
p554
aS'w+1=attorney'
p555
aS'w+1=automatic'
p556
aS'w+1=back'
p557
aS'w+1=be'
p558
aS'w+1=because'
p559
aS'w+1=before'
p560
aS'w+1=behavior'
p561
aS'w+1=between'
p562
aS'w+1=break'
p563
aS'w+1=breathing'
p564
aS'w+1=brigade'
p565
aS'w+1=burn'
p566
aS'w+1=by'
p567
aS'w+1=call'
p568
aS'w+1=can'
p569
aS'w+1=cause'
p570
aS'w+1=child'
p571
aS'w+1=come'
p572
aS'w+1=company'
p573
aS'w+1=continue'
p574
aS'w+1=create'
p575
aS'w+1=crew'
p576
aS'w+1=declare'
p577
aS'w+1=department'
p578
aS'w+1=destroy'
p579
aS'w+1=devastate'
p580
aS'w+1=dozen'
p581
aS'w+1=during'
p582
aS'w+1=early'
p583
aS'w+1=eight'
p584
aS'w+1=engine'
p585
aS'w+1=episode'
p586
aS'w+1=everywhere'
p587
aS'w+1=expert'
p588
aS'w+1=extinguisher'
p589
aS'w+1=fake'
p590
aS'w+1=federal'
p591
aS'w+1=fight'
p592
aS'w+1=fighter'
p593
aS'w+1=first'
p594
aS'w+1=follow'
p595
aS'w+1=for'
p596
aS'w+1=force'
p597
aS'w+1=former'
p598
aS'w+1=from'
p599
aS'w+1=furnace'
p600
aS'w+1=get'
p601
aS'w+1=go'
p602
aS'w+1=gun'
p603
aS'w+1=gunshot'
p604
aS'w+1=have'
p605
aS'w+1=hazard'
p606
aS'w+1=he'
p607
aS'w+1=head'
p608
aS'w+1=hear'
p609
aS'w+1=here'
p610
aS'w+1=hose'
p611
aS'w+1=hundred'
p612
aS'w+1=hydrant'
p613
aS'w+1=if'
p614
aS'w+1=in'
p615
aS'w+1=incident'
p616
aS'w+1=include'
p617
aS'w+1=indiscriminately'
p618
aS'w+1=into'
p619
aS'w+1=invariably'
p620
aS'w+1=its'
p621
aS'w+1=judge'
p622
aS'w+1=largely'
p623
aS'w+1=last'
p624
aS'w+1=light'
p625
aS'w+1=like'
p626
aS'w+1=may'
p627
aS'w+1=minister'
p628
aS'w+1=missile'
p629
aS'w+1=more'
p630
aS'w+1=mortar'
p631
aS'w+1=multi-barrel'
p632
aS'w+1=multiple'
p633
aS'w+1=near'
p634
aS'w+1=note'
p635
aS'w+1=now'
p636
aS'w+1=of'
p637
aS'w+1=on'
p638
aS'w+1=once'
p639
aS'w+1=or'
p640
aS'w+1=out'
p641
aS'w+1=over'
p642
aS'w+1=people'
p643
aS'w+1=perch'
p644
aS'w+1=plant'
p645
aS'w+1=problem'
p646
aS'w+1=prone'
p647
aS'w+1=rage'
p648
aS'w+1=randomly'
p649
aS'w+1=resistant'
p650
aS'w+1=retardant'
p651
aS'w+1=ring'
p652
aS'w+1=rocket'
p653
aS'w+1=rocket-propelled'
p654
aS'w+1=rubber'
p655
aS'w+1=safety'
p656
aS'w+1=season'
p657
aS'w+1=seem'
p658
aS'w+1=send'
p659
aS'w+1=several'
p660
aS'w+1=severity'
p661
aS'w+1=she'
p662
aS'w+1=shell'
p663
aS'w+1=shot'
p664
aS'w+1=since'
p665
aS'w+1=slam'
p666
aS'w+1=some'
p667
aS'w+1=spread'
p668
aS'w+1=start'
p669
aS'w+1=station'
p670
aS'w+1=still'
p671
aS'w+1=superiority'
p672
aS'w+1=surface-to-air'
p673
aS'w+1=sweep'
p674
aS'w+1=tank'
p675
aS'w+1=tear'
p676
aS'w+1=tearga'
p677
aS'w+1=tend'
p678
aS'w+1=that'
p679
aS'w+1=the'
p680
aS'w+1=they'
p681
aS'w+1=those'
p682
aS'w+1=thousand'
p683
aS'w+1=three'
p684
aS'w+1=throughout'
p685
aS'w+1=to'
p686
aS'w+1=top'
p687
aS'w+1=truck'
p688
aS'w+1=twice'
p689
aS'w+1=two'
p690
aS'w+1=under'
p691
aS'w+1=underneath'
p692
aS'w+1=up'
p693
aS'w+1=upon'
p694
aS'w+1=use'
p695
aS'w+1=victim'
p696
aS'w+1=warn'
p697
aS'w+1=when'
p698
aS'w+1=which'
p699
aS'w+1=while'
p700
aS'w+1=will'
p701
aS'w+1=with'
p702
aS'w+1=without'
p703
aS'w+1=yesterday'
p704
aS'w+1=zone'
p705
aS"w+2=''"
p706
aS'w+2=,'
p707
aS'w+2=-rrb-'
p708
aS'w+2=.'
p709
aS'w+2=1,200'
p710
aS'w+2=1906'
p711
aS'w+2=1999'
p712
aS'w+2=2004'
p713
aS'w+2=2005'
p714
aS'w+2=3,000'
p715
aS'w+2=4,000'
p716
aS'w+2=93'
p717
aS'w+2=?'
p718
aS'w+2=Afghan'
p719
aS'w+2=Cabinet'
p720
aS'w+2=Capitol'
p721
aS'w+2=Conakry'
p722
aS'w+2=Doug'
p723
aS'w+2=Europe'
p724
aS'w+2=Friday'
p725
aS'w+2=Gaza'
p726
aS'w+2=General'
p727
aS'w+2=Haskanita'
p728
aS'w+2=Hillary'
p729
aS'w+2=I'
p730
aS'w+2=Igniting'
p731
aS'w+2=Indonesia'
p732
aS'w+2=Iran'
p733
aS'w+2=Israel'
p734
aS'w+2=Lebanon'
p735
aS'w+2=Mr.'
p736
aS'w+2=November'
p737
aS'w+2=Palestinians'
p738
aS'w+2=Republicans'
p739
aS'w+2=Russia'
p740
aS'w+2=San'
p741
aS'w+2=Saturday'
p742
aS'w+2=Sderot'
p743
aS'w+2=Sheriff'
p744
aS'w+2=Sunday'
p745
aS'w+2=Supreme'
p746
aS'w+2=Thai'
p747
aS'w+2=Thursday'
p748
aS'w+2=Tuesday'
p749
aS'w+2=U.S.'
p750
aS'w+2=Wednesday'
p751
aS'w+2=Yeongpyeong'
p752
aS'w+2=Zuma'
p753
aS'w+2=a'
p754
aS'w+2=about'
p755
aS'w+2=abuser'
p756
aS'w+2=ace'
p757
aS'w+2=across'
p758
aS'w+2=after'
p759
aS'w+2=again'
p760
aS'w+2=ahead'
p761
aS'w+2=airport'
p762
aS'w+2=all'
p763
aS'w+2=and'
p764
aS'w+2=anti-tobacco'
p765
aS'w+2=any'
p766
aS'w+2=anything'
p767
aS'w+2=area'
p768
aS'w+2=as'
p769
aS'w+2=at'
p770
aS'w+2=attorney'
p771
aS'w+2=australian'
p772
aS'w+2=bankruptcy'
p773
aS'w+2=barrage'
p774
aS'w+2=barricade'
p775
aS'w+2=battle'
p776
aS'w+2=be'
p777
aS'w+2=beat'
p778
aS'w+2=because'
p779
aS'w+2=between'
p780
aS'w+2=blanket'
p781
aS'w+2=both'
p782
aS'w+2=bullet'
p783
aS'w+2=burn'
p784
aS'w+2=but'
p785
aS'w+2=by'
p786
aS'w+2=candidate'
p787
aS'w+2=car'
p788
aS'w+2=case'
p789
aS'w+2=cause'
p790
aS'w+2=chemical'
p791
aS'w+2=chief'
p792
aS'w+2=civilian'
p793
aS'w+2=clear'
p794
aS'w+2=coach'
p795
aS'w+2=coal'
p796
aS'w+2=combat'
p797
aS'w+2=common'
p798
aS'w+2=communication'
p799
aS'w+2=conservative'
p800
aS'w+2=contain'
p801
aS'w+2=cordon'
p802
aS'w+2=core'
p803
aS'w+2=country'
p804
aS'w+2=couple'
p805
aS'w+2=court-appointed'
p806
aS'w+2=crowd'
p807
aS'w+2=cure'
p808
aS'w+2=daily'
p809
aS'w+2=defense'
p810
aS'w+2=demonstrator'
p811
aS'w+2=destroy'
p812
aS'w+2=disperse'
p813
aS'w+2=do'
p814
aS'w+2=down'
p815
aS'w+2=effect'
p816
aS'w+2=effort'
p817
aS'w+2=eight'
p818
aS'w+2=election'
p819
aS'w+2=emergency'
p820
aS'w+2=employee'
p821
aS'w+2=end'
p822
aS'w+2=engine'
p823
aS'w+2=enter'
p824
aS'w+2=escape'
p825
aS'w+2=escort'
p826
aS'w+2=establish'
p827
aS'w+2=everything'
p828
aS'w+2=fail'
p829
aS'w+2=fan'
p830
aS'w+2=farmer'
p831
aS'w+2=fatal'
p832
aS'w+2=federal'
p833
aS'w+2=fire'
p834
aS'w+2=first'
p835
aS'w+2=for'
p836
aS'w+2=force'
p837
aS'w+2=forest'
p838
aS'w+2=four'
p839
aS'w+2=four-under-par'
p840
aS'w+2=from'
p841
aS'w+2=fuel'
p842
aS'w+2=further'
p843
aS'w+2=gas'
p844
aS'w+2=go'
p845
aS'w+2=government'
p846
aS'w+2=grenade'
p847
aS'w+2=guard'
p848
aS'w+2=gun'
p849
aS'w+2=have'
p850
aS'w+2=he'
p851
aS'w+2=heavy'
p852
aS'w+2=helicopter'
p853
aS'w+2=here'
p854
aS'w+2=hold'
p855
aS'w+2=hundred'
p856
aS'w+2=in'
p857
aS'w+2=include'
p858
aS'w+2=influence'
p859
aS'w+2=instability'
p860
aS'w+2=insurgent'
p861
aS'w+2=into'
p862
aS'w+2=iraqi'
p863
aS'w+2=israeli'
p864
aS'w+2=it'
p865
aS'w+2=just'
p866
aS'w+2=justice'
p867
aS'w+2=kill'
p868
aS'w+2=landscaping'
p869
aS'w+2=last'
p870
aS'w+2=late'
p871
aS'w+2=lawmaker'
p872
aS'w+2=lawyer'
p873
aS'w+2=leave'
p874
aS'w+2=like'
p875
aS'w+2=local'
p876
aS'w+2=long'
p877
aS'w+2=longtime'
p878
aS'w+2=looting'
p879
aS'w+2=make'
p880
aS'w+2=manager'
p881
aS'w+2=many'
p882
aS'w+2=mar'
p883
aS'w+2=material'
p884
aS'w+2=military'
p885
aS'w+2=million'
p886
aS'w+2=missile'
p887
aS'w+2=month'
p888
aS'w+2=more'
p889
aS'w+2=mortar'
p890
aS'w+2=naval'
p891
aS'w+2=nearby'
p892
aS'w+2=necessary'
p893
aS'w+2=no'
p894
aS'w+2=not'
p895
aS'w+2=of'
p896
aS'w+2=offer'
p897
aS'w+2=official'
p898
aS'w+2=on'
p899
aS'w+2=one'
p900
aS'w+2=opposition'
p901
aS'w+2=or'
p902
aS'w+2=out'
p903
aS'w+2=palestinian'
p904
aS'w+2=path'
p905
aS'w+2=people'
p906
aS'w+2=perilously'
p907
aS'w+2=personnel'
p908
aS'w+2=pile'
p909
aS'w+2=pirate'
p910
aS'w+2=pour'
p911
aS'w+2=prepare'
p912
aS'w+2=prime'
p913
aS'w+2=pro-hezbollah'
p914
aS'w+2=prosecutor'
p915
aS'w+2=protester'
p916
aS'w+2=quickly'
p917
aS'w+2=ranching'
p918
aS'w+2=random'
p919
aS'w+2=real'
p920
aS'w+2=rebel'
p921
aS'w+2=recent'
p922
aS'w+2=regulation'
p923
aS'w+2=reinstate'
p924
aS'w+2=remark'
p925
aS'w+2=republican'
p926
aS'w+2=resign'
p927
aS'w+2=restart'
p928
aS'w+2=result'
p929
aS'w+2=rights'
p930
aS'w+2=rocket'
p931
aS'w+2=round'
p932
aS'w+2=run'
p933
aS'w+2=rush'
p934
aS'w+2=russian-made'
p935
aS'w+2=save'
p936
aS'w+2=say'
p937
aS'w+2=scud'
p938
aS'w+2=secretary'
p939
aS'w+2=sectarianism'
p940
aS'w+2=self'
p941
aS'w+2=self-defense'
p942
aS'w+2=send'
p943
aS'w+2=senior'
p944
aS'w+2=set'
p945
aS'w+2=several'
p946
aS'w+2=she'
p947
aS'w+2=shell'
p948
aS'w+2=shoot'
p949
aS'w+2=short'
p950
aS'w+2=shot'
p951
aS'w+2=should'
p952
aS'w+2=smolder'
p953
aS'w+2=soften'
p954
aS'w+2=soldier'
p955
aS'w+2=some'
p956
aS'w+2=something'
p957
aS'w+2=south'
p958
aS'w+2=southern'
p959
aS'w+2=spark'
p960
aS'w+2=sparkling'
p961
aS'w+2=stand'
p962
aS'w+2=start'
p963
aS'w+2=tear'
p964
aS'w+2=temp'
p965
aS'w+2=than'
p966
aS'w+2=that'
p967
aS'w+2=the'
p968
aS'w+2=theborder'
p969
aS'w+2=then'
p970
aS'w+2=they'
p971
aS'w+2=third'
p972
aS'w+2=this'
p973
aS'w+2=three'
p974
aS'w+2=through'
p975
aS'w+2=tire'
p976
aS'w+2=to'
p977
aS'w+2=traffic'
p978
aS'w+2=truly'
p979
aS'w+2=two'
p980
aS'w+2=under'
p981
aS'w+2=unknown'
p982
aS'w+2=until'
p983
aS'w+2=vehicle'
p984
aS'w+2=very'
p985
aS'w+2=visionary'
p986
aS'w+2=we'
p987
aS'w+2=weapon'
p988
aS'w+2=week'
p989
aS'w+2=what'
p990
aS'w+2=when'
p991
aS'w+2=which'
p992
aS'w+2=while'
p993
aS'w+2=will'
p994
aS'w+2=with'
p995
aS'w+2=worker'
p996
aS'w+2=year'
p997
aS'w+2=yearWithin'
p998
aS'w+2=you'
p999
aS"w-1=''"
p1000
aS"w-1='s"
p1001
aS'w-1=,'
p1002
aS'w-1=-lrb-'
p1003
aS'w-1=-rrb-'
p1004
aS'w-1=.'
p1005
aS'w-1=2007'
p1006
aS'w-1=70'
p1007
aS'w-1=?'
p1008
aS'w-1=Army'
p1009
aS'w-1=Bush'
p1010
aS'w-1=Children'
p1011
aS'w-1=Cho'
p1012
aS'w-1=Clinton'
p1013
aS'w-1=Conte'
p1014
aS'w-1=County'
p1015
aS'w-1=Gaza'
p1016
aS'w-1=Giuliani'
p1017
aS'w-1=Hamas'
p1018
aS'w-1=Jihad'
p1019
aS'w-1=Kashmir'
p1020
aS'w-1=Marines'
p1021
aS'w-1=Mbeki'
p1022
aS'w-1=Musharraf'
p1023
aS'w-1=New'
p1024
aS'w-1=Palestinians'
p1025
aS'w-1=Pelosi'
p1026
aS'w-1=Police'
p1027
aS'w-1=Saturday'
p1028
aS'w-1=States'
p1029
aS'w-1=Strip'
p1030
aS'w-1=Swift'
p1031
aS'w-1=Taylor'
p1032
aS'w-1=Wade'
p1033
aS'w-1=a'
p1034
aS'w-1=african'
p1035
aS'w-1=aircraft'
p1036
aS'w-1=al-Islam'
p1037
aS'w-1=al-sadr'
p1038
aS'w-1=also'
p1039
aS'w-1=american'
p1040
aS'w-1=and'
p1041
aS'w-1=apparently'
p1042
aS'w-1=arm'
p1043
aS'w-1=army'
p1044
aS'w-1=artillery'
p1045
aS'w-1=as'
p1046
aS'w-1=assassin'
p1047
aS'w-1=attacker'
p1048
aS'w-1=be'
p1049
aS'w-1=big'
p1050
aS'w-1=biggest'
p1051
aS'w-1=bomber'
p1052
aS'w-1=boss'
p1053
aS'w-1=brush'
p1054
aS'w-1=by'
p1055
aS'w-1=can'
p1056
aS'w-1=canister'
p1057
aS'w-1=cannonball'
p1058
aS'w-1=catch'
p1059
aS'w-1=cease'
p1060
aS'w-1=charcoal'
p1061
aS'w-1=city'
p1062
aS'w-1=coal'
p1063
aS'w-1=community'
p1064
aS'w-1=competitive'
p1065
aS'w-1=convoy'
p1066
aS'w-1=cooking'
p1067
aS'w-1=could'
p1068
aS'w-1=counterfeit'
p1069
aS'w-1=crime'
p1070
aS'w-1=cross'
p1071
aS'w-1=dangerous'
p1072
aS'w-1=defens'
p1073
aS'w-1=devastating'
p1074
aS'w-1=direct'
p1075
aS'w-1=do'
p1076
aS'w-1=draw'
p1077
aS'w-1=drone'
p1078
aS'w-1=eight'
p1079
aS'w-1=employee'
p1080
aS'w-1=enemy'
p1081
aS'w-1=engine'
p1082
aS'w-1=evening'
p1083
aS'w-1=exchange'
p1084
aS'w-1=exterior'
p1085
aS'w-1=extremely'
p1086
aS'w-1=fight'
p1087
aS'w-1=follow'
p1088
aS'w-1=force'
p1089
aS'w-1=forest'
p1090
aS'w-1=friendly'
p1091
aS'w-1=from'
p1092
aS'w-1=gain'
p1093
aS'w-1=gas'
p1094
aS'w-1=gear'
p1095
aS'w-1=get'
p1096
aS'w-1=great'
p1097
aS'w-1=ground'
p1098
aS'w-1=group'
p1099
aS'w-1=guard'
p1100
aS'w-1=gun'
p1101
aS'w-1=gunman'
p1102
aS'w-1=gunshot'
p1103
aS'w-1=have'
p1104
aS'w-1=he'
p1105
aS'w-1=heavy'
p1106
aS'w-1=helicopter'
p1107
aS'w-1=help'
p1108
aS'w-1=hezbollah'
p1109
aS'w-1=immediately'
p1110
aS'w-1=in'
p1111
aS'w-1=include'
p1112
aS'w-1=incoming'
p1113
aS'w-1=increase'
p1114
aS'w-1=indirect'
p1115
aS'w-1=indiscriminately'
p1116
aS'w-1=insurgent'
p1117
aS'w-1=island'
p1118
aS'w-1=israeli'
p1119
aS'w-1=it'
p1120
aS'w-1=judge'
p1121
aS'w-1=kitchen'
p1122
aS'w-1=large-scale'
p1123
aS'w-1=legally'
p1124
aS'w-1=like'
p1125
aS'w-1=live'
p1126
aS'w-1=local'
p1127
aS'w-1=machine-gun'
p1128
aS'w-1=man'
p1129
aS'w-1=militant'
p1130
aS'w-1=missile'
p1131
aS'w-1=mortar'
p1132
aS'w-1=newspaper'
p1133
aS'w-1=nine'
p1134
aS'w-1=not'
p1135
aS'w-1=of'
p1136
aS'w-1=on'
p1137
aS'w-1=open'
p1138
aS'w-1=or'
p1139
aS'w-1=particular'
p1140
aS'w-1=plant'
p1141
aS'w-1=point'
p1142
aS'w-1=police'
p1143
aS'w-1=political'
p1144
aS'w-1=president'
p1145
aS'w-1=prosecutor'
p1146
aS'w-1=rebel'
p1147
aS'w-1=recently'
p1148
aS'w-1=repeatedly'
p1149
aS'w-1=return'
p1150
aS'w-1=rhetorical'
p1151
aS'w-1=robber'
p1152
aS'w-1=rocket'
p1153
aS'w-1=roddick'
p1154
aS'w-1=seasonal'
p1155
aS'w-1=see'
p1156
aS'w-1=set'
p1157
aS'w-1=sharp'
p1158
aS'w-1=shell'
p1159
aS'w-1=ship'
p1160
aS'w-1=shot'
p1161
aS'w-1=shoulder'
p1162
aS'w-1=show'
p1163
aS'w-1=side'
p1164
aS'w-1=since'
p1165
aS'w-1=small'
p1166
aS'w-1=small-arm'
p1167
aS'w-1=sniper'
p1168
aS'w-1=soldier'
p1169
aS'w-1=spark'
p1170
aS'w-1=spectacular'
p1171
aS'w-1=standardized'
p1172
aS'w-1=stubborn'
p1173
aS'w-1=subsequent'
p1174
aS'w-1=take'
p1175
aS'w-1=tank'
p1176
aS'w-1=tell'
p1177
aS'w-1=tent'
p1178
aS'w-1=test'
p1179
aS'w-1=that'
p1180
aS'w-1=the'
p1181
aS'w-1=then'
p1182
aS'w-1=these'
p1183
aS'w-1=they'
p1184
aS'w-1=this'
p1185
aS'w-1=to'
p1186
aS'w-1=troops'
p1187
aS'w-1=two'
p1188
aS'w-1=under'
p1189
aS'w-1=unilaterally'
p1190
aS'w-1=up'
p1191
aS'w-1=usual'
p1192
aS'w-1=volunteer'
p1193
aS'w-1=weapon'
p1194
aS'w-1=week'
p1195
aS'w-1=who'
p1196
aS'w-1=wildland'
p1197
aS'w-1=with'
p1198
aS'w-1=wood'
p1199
aS'w-1=worker'
p1200
aS'w-1=would'
p1201
aS'w-1=you'
p1202
aS"w-2=''"
p1203
aS"w-2='s"
p1204
aS'w-2=,'
p1205
aS'w-2=-'
p1206
aS'w-2=.'
p1207
aS'w-2=1,400'
p1208
aS'w-2=25-year-old'
p1209
aS'w-2=:'
p1210
aS'w-2=Afghan'
p1211
aS'w-2=Apollo'
p1212
aS'w-2=Army'
p1213
aS'w-2=Bhutto'
p1214
aS'w-2=Blackwater'
p1215
aS'w-2=Boehner'
p1216
aS'w-2=Chulanont'
p1217
aS'w-2=Clinton'
p1218
aS'w-2=Conte'
p1219
aS'w-2=Cowboys'
p1220
aS'w-2=Diakite'
p1221
aS'w-2=Ethiopians'
p1222
aS'w-2=Fatah'
p1223
aS'w-2=Garrett'
p1224
aS'w-2=Gaza'
p1225
aS'w-2=General'
p1226
aS'w-2=Goldstein'
p1227
aS'w-2=Hamas'
p1228
aS'w-2=Iraq'
p1229
aS'w-2=Islamic'
p1230
aS'w-2=Jammeh'
p1231
aS'w-2=Jihad'
p1232
aS'w-2=July'
p1233
aS'w-2=Korea'
p1234
aS'w-2=Kuseyo'
p1235
aS'w-2=Lansana'
p1236
aS'w-2=Lebanon'
p1237
aS'w-2=MONUC'
p1238
aS'w-2=Miers'
p1239
aS'w-2=Moqtada'
p1240
aS'w-2=Mr.'
p1241
aS'w-2=Nancy'
p1242
aS'w-2=Navy'
p1243
aS'w-2=Obama'
p1244
aS'w-2=Odinga'
p1245
aS'w-2=Orange'
p1246
aS'w-2=Palestinian'
p1247
aS'w-2=Palestinians'
p1248
aS'w-2=Pervez'
p1249
aS'w-2=President'
p1250
aS'w-2=Qassam'
p1251
aS'w-2=Soro'
p1252
aS'w-2=States'
p1253
aS'w-2=Strip'
p1254
aS'w-2=Sunday'
p1255
aS'w-2=Thabo'
p1256
aS'w-2=Timorese'
p1257
aS'w-2=U.S.'
p1258
aS'w-2=Ugandan'
p1259
aS'w-2=United'
p1260
aS'w-2=Zuma'
p1261
aS'w-2=a'
p1262
aS'w-2=about'
p1263
aS'w-2=after'
p1264
aS'w-2=ago'
p1265
aS'w-2=air'
p1266
aS'w-2=al-dustour'
p1267
aS'w-2=all'
p1268
aS'w-2=already'
p1269
aS'w-2=also'
p1270
aS'w-2=ambulance'
p1271
aS'w-2=american'
p1272
aS'w-2=and'
p1273
aS'w-2=armed'
p1274
aS'w-2=around'
p1275
aS'w-2=as'
p1276
aS'w-2=ask'
p1277
aS'w-2=attacker'
p1278
aS'w-2=attempt'
p1279
aS'w-2=authority'
p1280
aS'w-2=automatic'
p1281
aS'w-2=back'
p1282
aS'w-2=bank'
p1283
aS'w-2=baptism'
p1284
aS'w-2=barrier'
p1285
aS'w-2=be'
p1286
aS'w-2=because'
p1287
aS'w-2=begin'
p1288
aS'w-2=behavior'
p1289
aS'w-2=big'
p1290
aS'w-2=bomb'
p1291
aS'w-2=border'
p1292
aS'w-2=both'
p1293
aS'w-2=build'
p1294
aS'w-2=building'
p1295
aS'w-2=bullet'
p1296
aS'w-2=but'
p1297
aS'w-2=by'
p1298
aS'w-2=call'
p1299
aS'w-2=calm'
p1300
aS'w-2=car'
p1301
aS'w-2=cause'
p1302
aS'w-2=charge'
p1303
aS'w-2=checkpoint'
p1304
aS'w-2=church'
p1305
aS'w-2=claim'
p1306
aS'w-2=clear'
p1307
aS'w-2=coal'
p1308
aS'w-2=college'
p1309
aS'w-2=come'
p1310
aS'w-2=conform'
p1311
aS'w-2=congolese'
p1312
aS'w-2=continue'
p1313
aS'w-2=convoy'
p1314
aS'w-2=could'
p1315
aS'w-2=coup'
p1316
aS'w-2=cross'
p1317
aS'w-2=crossing'
p1318
aS'w-2=crowd'
p1319
aS'w-2=daily'
p1320
aS'w-2=deadly'
p1321
aS'w-2=deal'
p1322
aS'w-2=decide'
p1323
aS'w-2=decision'
p1324
aS'w-2=deploy'
p1325
aS'w-2=destroy'
p1326
aS'w-2=diplomatic'
p1327
aS'w-2=draw'
p1328
aS'w-2=drought'
p1329
aS'w-2=earthquake'
p1330
aS'w-2=effective'
p1331
aS'w-2=embassy'
p1332
aS'w-2=end'
p1333
aS'w-2=escape'
p1334
aS'w-2=ever'
p1335
aS'w-2=exchange'
p1336
aS'w-2=excuse'
p1337
aS'w-2=extinguish'
p1338
aS'w-2=fact'
p1339
aS'w-2=fail'
p1340
aS'w-2=fall'
p1341
aS'w-2=feel'
p1342
aS'w-2=fight'
p1343
aS'w-2=fighter'
p1344
aS'w-2=fire'
p1345
aS'w-2=firing'
p1346
aS'w-2=first'
p1347
aS'w-2=flame'
p1348
aS'w-2=focus'
p1349
aS'w-2=for'
p1350
aS'w-2=force'
p1351
aS'w-2=from'
p1352
aS'w-2=gas'
p1353
aS'w-2=get'
p1354
aS'w-2=government'
p1355
aS'w-2=guard'
p1356
aS'w-2=gun'
p1357
aS'w-2=gunman'
p1358
aS'w-2=gunshot'
p1359
aS'w-2=handgun'
p1360
aS'w-2=have'
p1361
aS'w-2=he'
p1362
aS'w-2=heavy'
p1363
aS'w-2=helicopter'
p1364
aS'w-2=himself'
p1365
aS'w-2=hire'
p1366
aS'w-2=home'
p1367
aS'w-2=homeless'
p1368
aS'w-2=hundred'
p1369
aS'w-2=idf'
p1370
aS'w-2=if'
p1371
aS'w-2=illegal'
p1372
aS'w-2=image'
p1373
aS'w-2=immediate'
p1374
aS'w-2=in'
p1375
aS'w-2=indian'
p1376
aS'w-2=information'
p1377
aS'w-2=insurgent'
p1378
aS'w-2=intense'
p1379
aS'w-2=into'
p1380
aS'w-2=israeli'
p1381
aS'w-2=it'
p1382
aS'w-2=its'
p1383
aS'w-2=judge'
p1384
aS'w-2=junior'
p1385
aS'w-2=kill'
p1386
aS'w-2=last'
p1387
aS'w-2=leader'
p1388
aS'w-2=least'
p1389
aS'w-2=lebanese'
p1390
aS'w-2=light'
p1391
aS'w-2=line'
p1392
aS'w-2=machine'
p1393
aS'w-2=man'
p1394
aS'w-2=massive'
p1395
aS'w-2=matter'
p1396
aS'w-2=may'
p1397
aS'w-2=might'
p1398
aS'w-2=militant'
p1399
aS'w-2=minister'
p1400
aS'w-2=missile'
p1401
aS'w-2=mob'
p1402
aS'w-2=more'
p1403
aS'w-2=mortar'
p1404
aS'w-2=mosque'
p1405
aS'w-2=never'
p1406
aS'w-2=no'
p1407
aS'w-2=nobody'
p1408
aS'w-2=not'
p1409
aS'w-2=notably'
p1410
aS'w-2=of'
p1411
aS'w-2=officer'
p1412
aS'w-2=on'
p1413
aS'w-2=open'
p1414
aS'w-2=or'
p1415
aS'w-2=orchard'
p1416
aS'w-2=other'
p1417
aS'w-2=out'
p1418
aS'w-2=outbreak'
p1419
aS'w-2=over-watching'
p1420
aS'w-2=pakistani'
p1421
aS'w-2=palestinian'
p1422
aS'w-2=park'
p1423
aS'w-2=parliament'
p1424
aS'w-2=permanent'
p1425
aS'w-2=play'
p1426
aS'w-2=police'
p1427
aS'w-2=politician'
p1428
aS'w-2=power'
p1429
aS'w-2=prepare'
p1430
aS'w-2=prevent'
p1431
aS'w-2=proportionate'
p1432
aS'w-2=prosecutor'
p1433
aS'w-2=protester'
p1434
aS'w-2=put'
p1435
aS'w-2=quick'
p1436
aS'w-2=raze'
p1437
aS'w-2=ready'
p1438
aS'w-2=really'
p1439
aS'w-2=reduce'
p1440
aS'w-2=reload'
p1441
aS'w-2=report'
p1442
aS'w-2=reportedly'
p1443
aS'w-2=resign'
p1444
aS'w-2=resort'
p1445
aS'w-2=retro'
p1446
aS'w-2=right'
p1447
aS'w-2=ring'
p1448
aS'w-2=riot'
p1449
aS'w-2=rioter'
p1450
aS'w-2=rocket'
p1451
aS'w-2=room'
p1452
aS'w-2=say'
p1453
aS'w-2=sea'
p1454
aS'w-2=search'
p1455
aS'w-2=security'
p1456
aS'w-2=see'
p1457
aS'w-2=series'
p1458
aS'w-2=serious'
p1459
aS'w-2=set'
p1460
aS'w-2=shop'
p1461
aS'w-2=shot'
p1462
aS'w-2=should'
p1463
aS'w-2=simply'
p1464
aS'w-2=since'
p1465
aS'w-2=skepticism'
p1466
aS'w-2=small'
p1467
aS'w-2=soldier'
p1468
aS'w-2=soon'
p1469
aS'w-2=south'
p1470
aS'w-2=sporadic'
p1471
aS'w-2=stand'
p1472
aS'w-2=still'
p1473
aS'w-2=stop'
p1474
aS'w-2=stove'
p1475
aS'w-2=structure'
p1476
aS'w-2=student'
p1477
aS'w-2=suicide'
p1478
aS'w-2=surround'
p1479
aS'w-2=survive'
p1480
aS'w-2=suspect'
p1481
aS'w-2=system'
p1482
aS'w-2=tank'
p1483
aS'w-2=tear'
p1484
aS'w-2=tear-gas'
p1485
aS'w-2=terrorist'
p1486
aS'w-2=that'
p1487
aS'w-2=the'
p1488
aS'w-2=themselves'
p1489
aS'w-2=then'
p1490
aS'w-2=these'
p1491
aS'w-2=they'
p1492
aS'w-2=this'
p1493
aS'w-2=threaten'
p1494
aS'w-2=through'
p1495
aS'w-2=tide'
p1496
aS'w-2=tire'
p1497
aS'w-2=to'
p1498
aS'w-2=tour'
p1499
aS'w-2=troops'
p1500
aS'w-2=try'
p1501
aS'w-2=two'
p1502
aS'w-2=u.s.-led'
p1503
aS'w-2=under'
p1504
aS'w-2=undercover'
p1505
aS'w-2=unit'
p1506
aS'w-2=unknown'
p1507
aS'w-2=up'
p1508
aS'w-2=use'
p1509
aS'w-2=very'
p1510
aS'w-2=voluntary'
p1511
aS'w-2=vote'
p1512
aS'w-2=water'
p1513
aS'w-2=we'
p1514
aS'w-2=weapon'
p1515
aS'w-2=when'
p1516
aS'w-2=where'
p1517
aS'w-2=whether'
p1518
aS'w-2=which'
p1519
aS'w-2=who'
p1520
aS'w-2=widespread'
p1521
aS'w-2=will'
p1522
aS'w-2=willing'
p1523
aS'w-2=willingness'
p1524
aS'w-2=with'
p1525
aS'w-2=worker'
p1526
aS'w-2=would'
p1527
aS'w-2=yet'
p1528
aS'w-2=you'
p1529
aS'w-2=youth'
p1530
aS'xcomp=attack'
p1531
aS'xcomp=attempt'
p1532
aS'xcomp=describe'
p1533
aS'xcomp=get'
p1534
aS'xcomp=influence'
p1535
aS'xcomp=insist'
p1536
aS'xcomp=kill'
p1537
aS'xcomp=match'
p1538
aS'xcomp=more'
p1539
aS'xcomp=soften'
p1540
aS'xcomp=strike'
p1541
aS'xcomp=tear'
p1542
aS'xcomp=tell'
p1543
aS'xcomp=warn'
p1544
asS'dtype'
p1545
cnumpy
float64
p1546
sS'vocabulary_'
p1547
(dp1548
g52
I43
sg215
I206
sg1095
I1086
sg1197
I1188
sg1479
I1470
sg25
I16
sg785
I776
sg793
I784
sg551
I542
sg1427
I1418
sg1378
I1369
sg527
I518
sg853
I844
sg912
I903
sg1125
I1116
sg384
I375
sg1285
I1276
sg1381
I1372
sg23
I14
sg1019
I1010
sg423
I414
sg879
I870
sg778
I769
sg210
I201
sg40
I31
sg922
I913
sg1349
I1340
sg493
I484
sg946
I937
sg988
I979
sg771
I762
sg147
I138
sg177
I168
sg170
I161
sg799
I790
sg248
I239
sg1178
I1169
sg933
I924
sg1472
I1463
sg662
I653
sg1517
I1508
sg1321
I1312
sg225
I216
sg1520
I1511
sg456
I447
sg637
I628
sg1469
I1460
sg873
I864
sg638
I629
sg790
I781
sg870
I861
sg1410
I1401
sg640
I631
sg132
I123
sg829
I820
sg803
I794
sg818
I809
sg696
I687
sg1372
I1363
sg1268
I1259
sg575
I566
sg1068
I1059
sg381
I372
sg1537
I1528
sg999
I990
sg467
I458
sg688
I679
sg1028
I1019
sg1202
I1193
sg1531
I1522
sg11
I2
sg1442
I1433
sg1487
I1478
sg680
I671
sg708
I699
sg955
I946
sg1086
I1077
sg1088
I1079
sg646
I637
sg1388
I1379
sg600
I591
sg843
I834
sg83
I74
sg1164
I1155
sg272
I263
sg743
I734
sg17
I8
sg406
I397
sg1128
I1119
sg949
I940
sg375
I366
sg1071
I1062
sg142
I133
sg394
I385
sg16
I7
sg446
I437
sg606
I597
sg249
I240
sg455
I446
sg1222
I1213
sg366
I357
sg1117
I1108
sg356
I347
sg144
I135
sg1437
I1428
sg1162
I1153
sg69
I60
sg65
I56
sg315
I306
sg991
I982
sg663
I654
sg1338
I1329
sg498
I489
sg1434
I1425
sg148
I139
sg399
I390
sg770
I761
sg29
I20
sg259
I250
sg479
I470
sg1292
I1283
sg868
I859
sg1044
I1035
sg945
I936
sg1186
I1177
sg1024
I1015
sg1188
I1179
sg102
I93
sg221
I212
sg1348
I1339
sg86
I77
sg623
I614
sg333
I324
sg1402
I1393
sg457
I448
sg532
I523
sg856
I847
sg817
I808
sg1103
I1094
sg1072
I1063
sg1236
I1227
sg837
I828
sg1502
I1493
sg763
I754
sg981
I972
sg352
I343
sg871
I862
sg361
I352
sg723
I714
sg296
I287
sg1422
I1413
sg779
I770
sg1391
I1382
sg644
I635
sg1533
I1524
sg1221
I1212
sg27
I18
sg129
I120
sg199
I190
sg924
I915
sg742
I733
sg957
I948
sg1089
I1080
sg531
I522
sg1254
I1245
sg289
I280
sg169
I160
sg262
I253
sg1057
I1048
sg589
I580
sg547
I538
sg536
I527
sg740
I731
sg695
I686
sg383
I374
sg1170
I1161
sg261
I252
sg410
I401
sg1343
I1334
sg886
I877
sg51
I42
sg951
I942
sg10
I1
sg1508
I1499
sg914
I905
sg734
I725
sg79
I70
sg1278
I1269
sg368
I359
sg1127
I1118
sg216
I207
sg386
I377
sg181
I172
sg1290
I1281
sg768
I759
sg335
I326
sg1431
I1422
sg1279
I1270
sg212
I203
sg1191
I1182
sg501
I492
sg53
I44
sg1246
I1237
sg893
I884
sg237
I228
sg1093
I1084
sg1145
I1136
sg664
I655
sg332
I323
sg1486
I1477
sg1527
I1518
sg304
I295
sg173
I164
sg973
I964
sg372
I363
sg719
I710
sg833
I824
sg447
I438
sg562
I553
sg574
I565
sg172
I163
sg1443
I1434
sg1455
I1446
sg137
I128
sg752
I743
sg282
I273
sg1525
I1516
sg1283
I1274
sg1270
I1261
sg1416
I1407
sg1031
I1022
sg486
I477
sg711
I702
sg452
I443
sg119
I110
sg1322
I1313
sg885
I876
sg1123
I1114
sg1500
I1491
sg801
I792
sg705
I696
sg1138
I1129
sg1371
I1362
sg1375
I1366
sg1382
I1373
sg58
I49
sg246
I237
sg1424
I1415
sg1419
I1410
sg834
I825
sg774
I765
sg122
I113
sg673
I664
sg1171
I1162
sg35
I26
sg1314
I1305
sg276
I267
sg1100
I1091
sg131
I122
sg1253
I1244
sg1311
I1302
sg1300
I1291
sg1299
I1290
sg1012
I1003
sg1390
I1381
sg1361
I1352
sg625
I616
sg320
I311
sg537
I528
sg701
I692
sg601
I592
sg1441
I1432
sg588
I579
sg614
I605
sg615
I606
sg84
I75
sg265
I256
sg268
I259
sg314
I305
sg1354
I1345
sg266
I257
sg948
I939
sg168
I159
sg960
I951
sg33
I24
sg413
I404
sg458
I449
sg220
I211
sg972
I963
sg178
I169
sg89
I80
sg502
I493
sg1166
I1157
sg1134
I1125
sg396
I387
sg1499
I1490
sg1451
I1442
sg1440
I1431
sg319
I310
sg1099
I1090
sg1542
I1533
sg1504
I1495
sg275
I266
sg953
I944
sg433
I424
sg1076
I1067
sg1252
I1243
sg867
I858
sg416
I407
sg913
I904
sg896
I887
sg674
I665
sg299
I290
sg1069
I1060
sg1053
I1044
sg564
I555
sg903
I894
sg1498
I1489
sg1160
I1151
sg1273
I1264
sg204
I195
sg1326
I1317
sg542
I533
sg104
I95
sg1526
I1517
sg1362
I1353
sg699
I690
sg581
I572
sg1305
I1296
sg85
I76
sg239
I230
sg1217
I1208
sg1041
I1032
sg305
I296
sg1147
I1138
sg223
I214
sg187
I178
sg653
I644
sg59
I50
sg935
I926
sg655
I646
sg1417
I1408
sg649
I640
sg511
I502
sg846
I837
sg1182
I1173
sg811
I802
sg426
I417
sg1184
I1175
sg816
I807
sg1003
I994
sg566
I557
sg357
I348
sg71
I62
sg1510
I1501
sg1518
I1509
sg488
I479
sg1370
I1361
sg463
I454
sg1506
I1497
sg464
I455
sg233
I224
sg585
I576
sg1436
I1427
sg1529
I1520
sg1463
I1454
sg20
I11
sg579
I570
sg1301
I1292
sg641
I632
sg285
I276
sg783
I774
sg583
I574
sg1470
I1461
sg322
I313
sg776
I767
sg929
I920
sg735
I726
sg254
I245
sg60
I51
sg1058
I1049
sg1328
I1319
sg174
I165
sg652
I643
sg1033
I1024
sg1433
I1424
sg1216
I1207
sg780
I771
sg244
I235
sg1087
I1078
sg234
I225
sg310
I301
sg1304
I1295
sg125
I116
sg958
I949
sg860
I851
sg679
I670
sg405
I396
sg1379
I1370
sg1399
I1390
sg429
I420
sg1094
I1085
sg840
I831
sg521
I512
sg402
I393
sg827
I818
sg110
I101
sg519
I510
sg1488
I1479
sg454
I445
sg1155
I1146
sg739
I730
sg961
I952
sg668
I659
sg964
I955
sg565
I556
sg835
I826
sg1085
I1076
sg49
I40
sg1104
I1095
sg337
I328
sg821
I812
sg857
I848
sg865
I856
sg460
I451
sg107
I98
sg1176
I1167
sg1226
I1217
sg38
I29
sg1373
I1364
sg99
I90
sg603
I594
sg1199
I1190
sg253
I244
sg70
I61
sg762
I753
sg797
I788
sg1448
I1439
sg1418
I1409
sg672
I663
sg596
I587
sg1329
I1320
sg1045
I1036
sg932
I923
sg1118
I1109
sg255
I246
sg138
I129
sg162
I153
sg48
I39
sg491
I482
sg919
I910
sg171
I162
sg836
I827
sg166
I157
sg1263
I1254
sg1080
I1071
sg810
I801
sg351
I342
sg987
I978
sg1376
I1367
sg921
I912
sg205
I196
sg775
I766
sg36
I27
sg757
I748
sg669
I660
sg898
I889
sg271
I262
sg339
I330
sg1050
I1041
sg1302
I1293
sg1369
I1360
sg590
I581
sg1063
I1054
sg1306
I1297
sg151
I142
sg936
I927
sg217
I208
sg127
I118
sg197
I188
sg257
I248
sg975
I966
sg200
I191
sg1149
I1140
sg507
I498
sg1200
I1191
sg942
I933
sg499
I490
sg250
I241
sg694
I685
sg146
I137
sg854
I845
sg849
I840
sg1272
I1263
sg1459
I1450
sg419
I410
sg392
I383
sg765
I756
sg888
I879
sg930
I921
sg720
I711
sg917
I908
sg487
I478
sg93
I84
sg91
I82
sg286
I277
sg434
I425
sg826
I817
sg1251
I1242
sg831
I822
sg852
I843
sg1198
I1189
sg522
I513
sg1313
I1304
sg523
I514
sg55
I46
sg179
I170
sg377
I368
sg611
I602
sg1383
I1374
sg1449
I1440
sg993
I984
sg1220
I1211
sg1067
I1058
sg1122
I1113
sg608
I599
sg1091
I1082
sg609
I600
sg175
I166
sg748
I739
sg430
I421
sg1243
I1234
sg133
I124
sg1079
I1070
sg1291
I1282
sg861
I852
sg691
I682
sg292
I283
sg1421
I1412
sg1344
I1335
sg794
I785
sg73
I64
sg1303
I1294
sg273
I264
sg997
I988
sg72
I63
sg618
I609
sg1264
I1255
sg686
I677
sg851
I842
sg689
I680
sg847
I838
sg617
I608
sg1435
I1426
sg1535
I1526
sg251
I242
sg123
I114
sg245
I236
sg161
I152
sg1347
I1338
sg985
I976
sg167
I158
sg120
I111
sg1244
I1235
sg1392
I1383
sg445
I436
sg57
I48
sg95
I86
sg1294
I1285
sg1078
I1069
sg509
I500
sg116
I107
sg325
I316
sg1130
I1121
sg1192
I1183
sg665
I656
sg1282
I1273
sg328
I319
sg1289
I1280
sg1428
I1419
sg882
I873
sg712
I703
sg302
I293
sg294
I285
sg141
I132
sg230
I221
sg1426
I1417
sg620
I611
sg1532
I1523
sg1405
I1396
sg549
I540
sg842
I833
sg654
I645
sg1331
I1322
sg815
I806
sg301
I292
sg376
I367
sg586
I577
sg1269
I1260
sg193
I184
sg206
I197
sg1310
I1301
sg1154
I1145
sg97
I88
sg1017
I1008
sg1524
I1515
sg145
I136
sg1084
I1075
sg627
I618
sg1353
I1344
sg435
I426
sg616
I607
sg1277
I1268
sg954
I945
sg560
I551
sg610
I601
sg950
I941
sg956
I947
sg380
I371
sg222
I213
sg580
I571
sg845
I836
sg81
I72
sg892
I883
sg118
I109
sg1021
I1012
sg1108
I1099
sg1530
I1521
sg1342
I1333
sg722
I713
sg546
I537
sg1288
I1279
sg572
I563
sg30
I21
sg1174
I1165
sg444
I435
sg992
I983
sg1505
I1496
sg287
I278
sg887
I878
sg1081
I1072
sg374
I365
sg855
I846
sg290
I281
sg1030
I1021
sg1006
I997
sg602
I593
sg1102
I1093
sg189
I180
sg1538
I1529
sg782
I773
sg1327
I1318
sg37
I28
sg54
I45
sg66
I57
sg597
I588
sg639
I630
sg697
I688
sg1228
I1219
sg1196
I1187
sg1060
I1051
sg927
I918
sg1016
I1007
sg367
I358
sg1315
I1306
sg693
I684
sg1144
I1135
sg923
I914
sg462
I453
sg905
I896
sg1501
I1492
sg1018
I1009
sg74
I65
sg630
I621
sg324
I315
sg702
I693
sg439
I430
sg529
I520
sg1051
I1042
sg80
I71
sg1205
I1196
sg1206
I1197
sg1207
I1198
sg109
I100
sg733
I724
sg1210
I1201
sg795
I786
sg744
I735
sg126
I117
sg1339
I1330
sg1324
I1315
sg751
I742
sg725
I716
sg1230
I1221
sg1262
I1253
sg1193
I1184
sg90
I81
sg183
I174
sg908
I899
sg1105
I1096
sg1007
I998
sg599
I590
sg284
I275
sg291
I282
sg241
I232
sg907
I898
sg1284
I1275
sg944
I935
sg82
I73
sg1511
I1502
sg894
I885
sg1458
I1449
sg881
I872
sg1215
I1206
sg1150
I1141
sg1493
I1484
sg280
I271
sg791
I782
sg750
I741
sg139
I130
sg1227
I1218
sg477
I468
sg1239
I1230
sg427
I418
sg698
I689
sg1337
I1328
sg473
I464
sg1456
I1447
sg571
I562
sg312
I303
sg121
I112
sg901
I892
sg270
I261
sg773
I764
sg492
I483
sg514
I505
sg512
I503
sg516
I507
sg518
I509
sg201
I192
sg369
I360
sg632
I623
sg283
I274
sg1312
I1303
sg538
I529
sg1097
I1088
sg535
I526
sg607
I598
sg1112
I1103
sg1287
I1278
sg1180
I1171
sg185
I176
sg633
I624
sg418
I409
sg984
I975
sg1385
I1376
sg1496
I1487
sg321
I312
sg190
I181
sg525
I516
sg432
I423
sg1159
I1150
sg1238
I1229
sg1414
I1405
sg1026
I1017
sg1035
I1026
sg1260
I1251
sg1201
I1192
sg87
I78
sg1363
I1354
sg578
I569
sg687
I678
sg407
I398
sg1352
I1343
sg1514
I1505
sg1341
I1332
sg1152
I1143
sg504
I495
sg150
I141
sg789
I780
sg1187
I1178
sg1429
I1420
sg1317
I1308
sg820
I811
sg555
I546
sg19
I10
sg804
I795
sg62
I53
sg526
I517
sg293
I284
sg1444
I1435
sg977
I968
sg1043
I1034
sg1323
I1314
sg1208
I1199
sg767
I758
sg1367
I1358
sg832
I823
sg15
I6
sg387
I378
sg143
I134
sg716
I707
sg1308
I1299
sg1360
I1351
sg135
I126
sg863
I854
sg510
I501
sg1528
I1519
sg515
I506
sg994
I985
sg969
I960
sg636
I627
sg415
I406
sg798
I789
sg877
I868
sg1350
I1341
sg704
I695
sg681
I672
sg1544
I1535
sg1474
I1465
sg682
I673
sg1157
I1148
sg659
I650
sg478
I469
sg1156
I1147
sg194
I185
sg1062
I1053
sg1064
I1055
sg466
I457
sg983
I974
sg195
I186
sg395
I386
sg1121
I1112
sg1231
I1222
sg656
I647
sg891
I882
sg1483
I1474
sg613
I604
sg1172
I1163
sg1120
I1111
sg1256
I1247
sg1355
I1346
sg219
I210
sg1111
I1102
sg683
I674
sg421
I412
sg629
I620
sg626
I617
sg1042
I1033
sg1181
I1172
sg1190
I1181
sg176
I167
sg561
I552
sg996
I987
sg1447
I1438
sg895
I886
sg732
I723
sg631
I622
sg348
I339
sg661
I652
sg1465
I1456
sg209
I200
sg651
I642
sg1366
I1357
sg1330
I1321
sg218
I209
sg1495
I1486
sg441
I432
sg1415
I1406
sg465
I456
sg400
I391
sg1411
I1402
sg1476
I1467
sg569
I560
sg1413
I1404
sg1325
I1316
sg1116
I1107
sg47
I38
sg1430
I1421
sg31
I22
sg500
I491
sg184
I175
sg802
I793
sg715
I706
sg788
I779
sg44
I35
sg552
I543
sg875
I866
sg553
I544
sg420
I411
sg736
I727
sg1404
I1395
sg1257
I1248
sg1056
I1047
sg1384
I1375
sg42
I33
sg1025
I1016
sg208
I199
sg940
I931
sg64
I55
sg1335
I1326
sg1267
I1258
sg543
I534
sg814
I805
sg1468
I1459
sg869
I860
sg203
I194
sg1480
I1471
sg1036
I1027
sg326
I317
sg1075
I1066
sg115
I106
sg530
I521
sg1001
I992
sg1259
I1250
sg848
I839
sg759
I750
sg1387
I1378
sg645
I636
sg300
I291
sg1475
I1466
sg1142
I1133
sg1401
I1392
sg1485
I1476
sg1377
I1368
sg621
I612
sg657
I648
sg1000
I991
sg1318
I1309
sg1425
I1416
sg389
I380
sg94
I85
sg258
I249
sg231
I222
sg539
I530
sg1203
I1194
sg1245
I1236
sg88
I79
sg1393
I1384
sg398
I389
sg1034
I1025
sg1163
I1154
sg1161
I1152
sg207
I198
sg965
I956
sg503
I494
sg1070
I1061
sg635
I626
sg1452
I1443
sg1204
I1195
sg1052
I1043
sg809
I800
sg1249
I1240
sg154
I145
sg1503
I1494
sg1407
I1398
sg323
I314
sg559
I550
sg1420
I1411
sg1165
I1156
sg717
I708
sg309
I300
sg943
I934
sg1489
I1480
sg1519
I1510
sg1309
I1300
sg43
I34
sg393
I384
sg490
I481
sg1113
I1104
sg401
I392
sg308
I299
sg634
I625
sg1140
I1131
sg876
I867
sg113
I104
sg1038
I1029
sg745
I736
sg140
I131
sg494
I485
sg1471
I1462
sg1148
I1139
sg878
I869
sg598
I589
sg1332
I1323
sg1223
I1214
sg228
I219
sg937
I928
sg341
I332
sg159
I150
sg1169
I1160
sg1466
I1457
sg1477
I1468
sg153
I144
sg1540
I1531
sg1183
I1174
sg117
I108
sg360
I351
sg1022
I1013
sg567
I558
sg934
I925
sg558
I549
sg1195
I1186
sg424
I415
sg1032
I1023
sg422
I413
sg180
I171
sg513
I504
sg1345
I1336
sg1484
I1475
sg1020
I1011
sg1457
I1448
sg1454
I1445
sg224
I215
sg619
I610
sg593
I584
sg1460
I1451
sg1027
I1018
sg1365
I1356
sg108
I99
sg481
I472
sg1250
I1241
sg517
I508
sg1131
I1122
sg1261
I1252
sg1358
I1349
sg1491
I1482
sg671
I662
sg1023
I1014
sg1536
I1527
sg483
I474
sg1320
I1311
sg485
I476
sg1242
I1233
sg1098
I1089
sg1073
I1064
sg784
I775
sg563
I554
sg1296
I1287
sg819
I810
sg1406
I1397
sg966
I957
sg1316
I1307
sg703
I694
sg56
I47
sg329
I320
sg967
I958
sg781
I772
sg1396
I1387
sg508
I499
sg1139
I1130
sg342
I333
sg1346
I1337
sg1482
I1473
sg26
I17
sg263
I254
sg1136
I1127
sg382
I373
sg1403
I1394
sg1137
I1128
sg822
I813
sg920
I911
sg495
I486
sg594
I585
sg700
I691
sg1512
I1503
sg1141
I1132
sg862
I853
sg1522
I1513
sg188
I179
sg1173
I1164
sg880
I871
sg449
I440
sg1409
I1400
sg414
I405
sg1276
I1267
sg1394
I1385
sg1039
I1030
sg391
I382
sg18
I9
sg1397
I1388
sg196
I187
sg582
I573
sg741
I732
sg1271
I1262
sg859
I850
sg1047
I1038
sg591
I582
sg214
I205
sg155
I146
sg1395
I1386
sg417
I408
sg1009
I1000
sg45
I36
sg1445
I1436
sg760
I751
sg1209
I1200
sg136
I127
sg1059
I1050
sg939
I930
sg830
I821
sg1143
I1134
sg1450
I1441
sg904
I895
sg338
I329
sg850
I841
sg437
I428
sg1074
I1065
sg411
I402
sg890
I881
sg349
I340
sg584
I575
sg749
I740
sg979
I970
sg926
I917
sg1065
I1056
sg318
I309
sg112
I103
sg442
I433
sg425
I416
sg1132
I1123
sg1439
I1430
sg61
I52
sg800
I791
sg986
I977
sg528
I519
sg755
I746
sg474
I465
sg1248
I1239
sg379
I370
sg1446
I1437
sg397
I388
sg1135
I1126
sg295
I286
sg373
I364
sg1351
I1342
sg106
I97
sg650
I641
sg96
I87
sg470
I461
sg98
I89
sg390
I381
sg1083
I1074
sg724
I715
sg1213
I1204
sg63
I54
sg1481
I1472
sg1490
I1481
sg152
I143
sg1492
I1483
sg472
I463
sg471
I462
sg242
I233
sg365
I356
sg838
I829
sg298
I289
sg758
I749
sg475
I466
sg824
I815
sg67
I58
sg1014
I1005
sg76
I67
sg622
I613
sg1055
I1046
sg1049
I1040
sg370
I361
sg1109
I1100
sg941
I932
sg156
I147
sg346
I337
sg1010
I1001
sg278
I269
sg111
I102
sg1497
I1488
sg1126
I1117
sg378
I369
sg24
I15
sg213
I204
sg990
I981
sg1237
I1228
sg828
I819
sg1408
I1399
sg186
I177
sg1219
I1210
sg643
I634
sg243
I234
sg807
I798
sg165
I156
sg587
I578
sg1233
I1224
sg1114
I1105
sg1092
I1083
sg786
I777
sg1077
I1068
sg75
I66
sg1432
I1423
sg777
I768
sg355
I346
sg1521
I1512
sg403
I394
sg505
I496
sg114
I105
sg164
I155
sg157
I148
sg334
I325
sg1539
I1530
sg343
I334
sg1234
I1225
sg236
I227
sg1478
I1469
sg101
I92
sg548
I539
sg32
I23
sg982
I973
sg1040
I1031
sg438
I429
sg269
I260
sg274
I265
sg78
I69
sg550
I541
sg1013
I1004
sg897
I888
sg911
I902
sg103
I94
sg497
I488
sg545
I536
sg1011
I1002
sg1179
I1170
sg592
I583
sg448
I439
sg388
I379
sg303
I294
sg925
I916
sg952
I943
sg1061
I1052
sg1232
I1223
sg666
I657
sg22
I13
sg404
I395
sg1357
I1348
sg163
I154
sg1389
I1380
sg229
I220
sg350
I341
sg605
I596
sg1119
I1110
sg1265
I1256
sg1509
I1500
sg1124
I1115
sg676
I667
sg714
I705
sg713
I704
sg1462
I1453
sg1461
I1452
sg1151
I1142
sg931
I922
sg340
I331
sg889
I880
sg1494
I1485
sg1218
I1209
sg68
I59
sg440
I431
sg756
I747
sg959
I950
sg227
I218
sg787
I778
sg77
I68
sg726
I717
sg1082
I1073
sg496
I487
sg1133
I1124
sg1194
I1185
sg731
I722
sg1266
I1257
sg974
I965
sg1467
I1458
sg690
I681
sg916
I907
sg1438
I1429
sg476
I467
sg363
I354
sg317
I308
sg345
I336
sg769
I760
sg1258
I1249
sg1241
I1232
sg858
I849
sg50
I41
sg1374
I1365
sg238
I229
sg1464
I1455
sg1212
I1203
sg202
I193
sg947
I938
sg557
I548
sg327
I318
sg995
I986
sg311
I302
sg1153
I1144
sg484
I475
sg13
I4
sg134
I125
sg902
I893
sg1319
I1310
sg813
I804
sg297
I288
sg899
I890
sg1110
I1101
sg670
I661
sg577
I568
sg1295
I1286
sg480
I471
sg1101
I1092
sg792
I783
sg866
I857
sg612
I603
sg1386
I1377
sg1255
I1246
sg371
I362
sg692
I683
sg841
I832
sg980
I971
sg883
I874
sg1106
I1097
sg364
I355
sg1473
I1464
sg1336
I1327
sg1340
I1331
sg909
I900
sg642
I633
sg1380
I1371
sg100
I91
sg149
I140
sg570
I561
sg260
I251
sg660
I651
sg1229
I1220
sg1177
I1168
sg235
I226
sg347
I338
sg727
I718
sg192
I183
sg1054
I1045
sg14
I5
sg1515
I1506
sg1214
I1205
sg34
I25
sg721
I712
sg675
I666
sg1359
I1350
sg772
I763
sg998
I989
sg1356
I1347
sg1247
I1238
sg844
I835
sg976
I967
sg453
I444
sg906
I897
sg874
I865
sg825
I816
sg678
I669
sg658
I649
sg358
I349
sg1037
I1028
sg872
I863
sg1115
I1106
sg1090
I1081
sg648
I639
sg336
I327
sg928
I919
sg28
I19
sg989
I980
sg915
I906
sg232
I223
sg160
I151
sg461
I452
sg436
I427
sg706
I697
sg1185
I1176
sg839
I830
sg737
I728
sg1224
I1215
sg408
I399
sg1333
I1324
sg595
I586
sg1107
I1098
sg443
I434
sg267
I258
sg1211
I1202
sg313
I304
sg1029
I1020
sg362
I353
sg1534
I1525
sg573
I564
sg353
I344
sg556
I547
sg962
I953
sg1516
I1507
sg281
I272
sg1240
I1231
sg520
I511
sg1541
I1532
sg978
I969
sg1175
I1166
sg21
I12
sg963
I954
sg1368
I1359
sg1158
I1149
sg316
I307
sg1275
I1266
sg1507
I1498
sg279
I270
sg753
I744
sg39
I30
sg158
I149
sg554
I545
sg130
I121
sg1280
I1271
sg428
I419
sg450
I441
sg1286
I1277
sg1066
I1057
sg1423
I1414
sg729
I720
sg354
I345
sg684
I675
sg431
I422
sg1168
I1159
sg1298
I1289
sg12
I3
sg534
I525
sg1398
I1389
sg41
I32
sg1334
I1325
sg1189
I1180
sg544
I535
sg738
I729
sg506
I497
sg1307
I1298
sg344
I335
sg709
I700
sg812
I803
sg766
I757
sg628
I619
sg1146
I1137
sg1048
I1039
sg182
I173
sg1235
I1226
sg764
I755
sg910
I901
sg226
I217
sg1225
I1216
sg806
I797
sg533
I524
sg805
I796
sg1400
I1391
sg9
I0
sg211
I202
sg1453
I1444
sg105
I96
sg968
I959
sg469
I460
sg576
I567
sg468
I459
sg1008
I999
sg1543
I1534
sg1297
I1288
sg307
I298
sg796
I787
sg1005
I996
sg1002
I993
sg884
I875
sg823
I814
sg1281
I1272
sg604
I595
sg864
I855
sg489
I480
sg900
I891
sg746
I737
sg191
I182
sg918
I909
sg1523
I1514
sg247
I238
sg240
I231
sg1015
I1006
sg277
I268
sg1412
I1403
sg524
I515
sg288
I279
sg1004
I995
sg459
I450
sg541
I532
sg971
I962
sg938
I929
sg128
I119
sg970
I961
sg808
I799
sg412
I403
sg728
I719
sg624
I615
sg451
I442
sg1274
I1265
sg1293
I1284
sg747
I738
sg761
I752
sg46
I37
sg409
I400
sg385
I376
sg252
I243
sg331
I322
sg568
I559
sg124
I115
sg540
I531
sg198
I189
sg677
I668
sg1096
I1087
sg718
I709
sg264
I255
sg647
I638
sg667
I658
sg707
I698
sg1364
I1355
sg482
I473
sg330
I321
sg256
I247
sg359
I350
sg730
I721
sg1167
I1158
sg306
I297
sg1513
I1504
sg710
I701
sg685
I676
sg1046
I1037
sg754
I745
sg92
I83
sg1129
I1120
ssS'separator'
p1549
S'='
sS'sparse'
p1550
I01
sb.