ccopy_reg
_reconstructor
p1
(csklearn.feature_extraction.dict_vectorizer
DictVectorizer
p2
c__builtin__
object
p3
NtRp4
(dp5
S'vocabulary_'
p6
(dp7
S'xcomp=ask'
p8
I4036
sS'w+2=10-day'
p9
I1849
sS'advcl=permit'
p10
I77
sS'ccomp=complain'
p11
I240
sS'nsubj=someone'
p12
I1233
sS'w-2=british'
p13
I3502
sS'nsubj=part'
p14
I1130
sS'advmod=more'
p15
I173
sS'nsubj=nominee'
p16
I1106
sS'w-1=Preservation'
p17
I2757
sS'conj=hopskotch'
p18
I342
sS'w+2=World'
p19
I1986
sS'w-1=winter'
p20
I3217
sS'w-1=Laura'
p21
I2733
sS'w+2=few'
p22
I2174
sS'w-2=clearing'
p23
I3525
sS'nsubj=Board'
p24
I696
sS'w-1=name'
p25
I3020
sS'nsubj=credit'
p26
I950
sS'w-1=Shell'
p27
I2772
sS'nsubj=Mugabe'
p28
I777
sS'xcomp=document'
p29
I4119
sS'nsubj=violence'
p30
I1294
sS'xcomp=generate'
p31
I4170
sS'w-2=russian'
p32
I3879
sS'w-2=level'
p33
I3714
sS'w-1=country'
p34
I2891
sS'w+2=but'
p35
I2054
sS'nsubj=window'
p36
I1311
sS'nsubj=Tse'
p37
I832
sS'dobj=action'
p38
I469
sS'nsubj=team'
p39
I1254
sS'xcomp=sweep'
p40
I4349
sS'w+2=international'
p41
I2254
sS'nsubj=journey'
p42
I1062
sS'advcl=along'
p43
I5
sS'w+1=assist'
p44
I1481
sS'w+1=around'
p45
I1474
sS'nsubj=agenda'
p46
I858
sS'w+2=shutdown'
p47
I2494
sS'w+2=overheat'
p48
I2362
sS'w-2=construction'
p49
I3548
sS'w-1=Teresa'
p50
I2785
sS'dobj=run'
p51
I606
sS'w+2=prepare'
p52
I2389
sS'w-1=survey'
p53
I3158
sS'xcomp=choreograph'
p54
I4067
sS'w-2=war'
p55
I3989
sS'nsubj=business'
p56
I897
sS'xcomp=have'
p57
I4179
sS'w-2=cuban'
p58
I3564
sS'w-1=Pyongyang'
p59
I2761
sS'nsubj=rebel'
p60
I1182
sS'w+2=weapon'
p61
I2609
sS'w-2=grow'
p62
I3654
sS'w+1=if'
p63
I1618
sS'advcl=meet'
p64
I67
sS'xcomp=travel'
p65
I4367
sS'conj=say'
p66
I370
sS'w-2=world'
p67
I4010
sS'w+1=appeal'
p68
I1471
sS'w-2=telephone'
p69
I3942
sS'w-2=comment'
p70
I3535
sS'w+2=December'
p71
I1917
sS'xcomp=flee'
p72
I4155
sS'dobj=crusade'
p73
I500
sS'w-2=funding'
p74
I3642
sS'xcomp=increase'
p75
I4190
sS'w+1=transport'
p76
I1806
sS'nsubj=Revere'
p77
I803
sS'w-2=cloud'
p78
I3527
sS'nsubj=Ostrander'
p79
I790
sS'nsubj=Abbas'
p80
I675
sS'w-2=Christopher'
p81
I3287
sS'w-1=or'
p82
I3045
sS'w-1=event'
p83
I2918
sS'dep=workday'
p84
I457
sS'xcomp=announce'
p85
I4030
sS'conj=complete'
p86
I310
sS'w-2=80,000'
p87
I3254
sS'w-1=will'
p88
I3215
sS'w+2=everybody'
p89
I2156
sS'w-1=Iraq'
p90
I2723
sS'w-2=outside'
p91
I3791
sS'ccomp=allocate'
p92
I233
sS'w+2=proposal'
p93
I2396
sS'conj=lead'
p94
I353
sS'w-2=immigrant'
p95
I3679
sS'nsubj=nature'
p96
I1101
sS'dep=use'
p97
I455
sS'w+2=post-saddam'
p98
I2386
sS'nsubj=poll'
p99
I1153
sS'w-2=fiscal'
p100
I3632
sS'nsubj=Indonesia'
p101
I748
sS'dep=reveal'
p102
I442
sS'w+2=pay'
p103
I2370
sS'xcomp=active'
p104
I4019
sS'w+1=it'
p105
I1633
sS'w-2=international'
p106
I3692
sS'w+2=internet'
p107
I2255
sS'w+2=1900'
p108
I1856
sS'w+1=she'
p109
I1759
sS'xcomp=ring'
p110
I4296
sS'w+2=meet'
p111
I2302
sS'w+1=distribute'
p112
I1561
sS'w-2=analyst'
p113
I3471
sS'advmod=late'
p114
I169
sS'w-1=food'
p115
I2943
sS'xcomp=honor'
p116
I4182
sS'w-1=trouble'
p117
I3190
sS'w+2=tree-planting'
p118
I2578
sS'w+2=spite'
p119
I2515
sS'xcomp=destroy'
p120
I4107
sS'w+1=march'
p121
I1654
sS'w-2=Ramadan'
p122
I3392
sS'advmod=suddenly'
p123
I201
sS'w+2=openly'
p124
I2353
sS'w-2=repression'
p125
I3865
sS'w-1=state'
p126
I3148
sS'xcomp=experience'
p127
I4138
sS'w+1=on'
p128
I1675
sS'w+2=Darfur'
p129
I1916
sS'w+2=last'
p130
I2270
sS'xcomp=settle'
p131
I4315
sS'w-2=hostage'
p132
I3671
sS'xcomp=function'
p133
I4168
sS'w+2=during'
p134
I2128
sS'w+2=school'
p135
I2458
sS'w-2=Media'
p136
I3357
sS'w-2=question'
p137
I3849
sS'w-2=process'
p138
I3835
sS'w+2=share'
p139
I2480
sS'ccomp=say'
p140
I276
sS'w-2=Red'
p141
I3394
sS'w+2=fail'
p142
I2168
sS'w+1=October'
p143
I1442
sS'xcomp=demander'
p144
I4103
sS'w-1=Treaty'
p145
I2786
sS'nsubj=Germany'
p146
I735
sS'xcomp=adapt'
p147
I4020
sS'nsubj=Iowa'
p148
I750
sS'xcomp=restore'
p149
I4291
sS'w-2=see'
p150
I3890
sS'xcomp=distribute'
p151
I4115
sS'w+1=block'
p152
I1490
sS'w-2=all'
p153
I3464
sS'advmod=exactly'
p154
I151
sS'w-1=Edwards'
p155
I2687
sS'w+2=firefighting'
p156
I2182
sS'w+1=grieve'
p157
I1607
sS'advmod=formally'
p158
I155
sS'w+1=talk'
p159
I1784
sS'ccomp=have'
p160
I248
sS'w-1=could'
p161
I2887
sS'xcomp=weaken'
p162
I4388
sS'prep=around'
p163
I1358
sS'nsubj=Television'
p164
I828
sS'w-1=Saturday'
p165
I2769
sS'w+1=food'
p166
I1595
sS'w-1=premise'
p167
I3078
sS'w-2=East'
p168
I3305
sS'w-1=787'
p169
I2645
sS'w-1=tourspatt'
p170
I3177
sS'w-1=you'
p171
I3229
sS'w-2=age'
p172
I3452
sS'xcomp=attack'
p173
I4041
sS'w-2=farmer'
p174
I3622
sS'nsubj=race'
p175
I1176
sS'w+2=tightly'
p176
I2563
sS'xcomp=point'
p177
I4244
sS'xcomp=legalize'
p178
I4201
sS'advcl=be'
p179
I12
sS'w-1=summit'
p180
I3153
sS'nsubj=Sudan'
p181
I821
sS'w+2=river'
p182
I2442
sS'w+1=the'
p183
I1790
sS'w+1=bring'
p184
I1494
sS'w-1=minister'
p185
I3012
sS'w-2=Felipe'
p186
I3314
sS'xcomp=shield'
p187
I4319
sS'xcomp=dominate'
p188
I4120
sS'w-1=rain'
p189
I3096
sS'w-2=harvest'
p190
I3660
sS'w+2=forward'
p191
I2197
sS'w-2=offer'
p192
I3771
sS'nsubj=leap'
p193
I1073
sS'nsubj=week'
p194
I1307
sS'xcomp=live'
p195
I4205
sS'nsubj=these'
p196
I1258
sS'xcomp=fail'
p197
I4144
sS'mark=about'
p198
I656
sS'w+1=bilateral'
p199
I1489
sS'w-2=initiative'
p200
I3687
sS'w-2=this'
p201
I3953
sS'w-2=reason'
p202
I3855
sS'nsubj=Lebanon'
p203
I764
sS'w+1=Oxford'
p204
I1444
sS'aux=do'
p205
I221
sS'dobj=consideration'
p206
I490
sS'xcomp=wait'
p207
I4384
sS'w-2=paper'
p208
I3797
sS'w-2=1919'
p209
I3244
sS'nsubj=import'
p210
I1049
sS'w-2=technician'
p211
I3941
sS'nsubj=U.N.'
p212
I834
sS'w+2=toward'
p213
I2571
sS'w-2=Party'
p214
I3383
sS'w+2=feed'
p215
I2172
sS'advcl=spread'
p216
I107
sS'w+2=malfunction'
p217
I2295
sS'nsubj=house'
p218
I1044
sS'w-1=nation'
p219
I3021
sS'nsubj=volunteer'
p220
I1298
sS'w+2=feel'
p221
I2173
sS'w+1=within'
p222
I1835
sS'advcl=call'
p223
I19
sS'xcomp=name'
p224
I4220
sS'xcomp=establish'
p225
I4134
sS'w-1=trip'
p226
I3187
sS'w+1=urgent'
p227
I1815
sS'xcomp=surround'
p228
I4348
sS'conj=pace'
p229
I361
sS'w+2=...'
p230
I1846
sS'w-2=Moscow'
p231
I3360
sS'w+2=16th'
p232
I1854
sS'w-2=she'
p233
I3899
sS'dobj=work'
p234
I653
sS'conj=expect'
p235
I327
sS'w+1=consult'
p236
I1527
sS'w-2=Social'
p237
I3402
sS'dobj=transition'
p238
I636
sS'w-2=police'
p239
I3814
sS'advcl=receive'
p240
I85
sS'w-1=conference'
p241
I2879
sS'w+1=later'
p242
I1642
sS'nsubj=member'
p243
I1089
sS'nsubj=standoff'
p244
I1235
sS'w-1=should'
p245
I3132
sS'w-2=Auto'
p246
I3269
sS'nsubj=envoy'
p247
I991
sS'w-2=party'
p248
I3801
sS'nsubj=that'
p249
I1256
sS'w+1=digging'
p250
I1554
sS'w-2=Christian'
p251
I3286
sS'xcomp=study'
p252
I4343
sS'advmod=here'
p253
I158
sS'nsubj=supporter'
p254
I1249
sS'w+1=escalate'
p255
I1578
sS'w+2=Lukashenko'
p256
I1943
sS'w-2=prison'
p257
I3832
sS'conj=grow'
p258
I337
sS'w-2=Antonia'
p259
I3266
sS'ccomp=less'
p260
I255
sS'w+2=duel'
p261
I2127
sS'tmod=spring'
p262
I1414
sS'nsubj=group'
p263
I1037
sS'conj=be'
p264
I305
sS'nsubj=crime'
p265
I951
sS'w+2=surgery'
p266
I2537
sS'aux=could'
p267
I220
sS'w+2=sprout'
p268
I2518
sS'w-1=least'
p269
I2993
sS'dobj=trial'
p270
I640
sS'w-2=Ireland'
p271
I3335
sS'w+2=power'
p272
I2387
sS'w+2=Cuba'
p273
I1914
sS'w-1=Fair'
p274
I2691
sS'w+2=escalate'
p275
I2149
sS'w+1=write'
p276
I1837
sS'advmod=where'
p277
I212
sS'xcomp=inch'
p278
I4188
sS'w+1=anew'
p279
I1467
sS'w-2=pullout'
p280
I3846
sS'nsubj=Army'
p281
I689
sS'w-2=agree'
p282
I3454
sS'dobj=hurdle'
p283
I545
sS'xcomp=bring'
p284
I4049
sS'w+2=St.'
p285
I1970
sS'w+2=reform'
p286
I2421
sS'dobj=duel'
p287
I520
sS'w+2=call'
p288
I2056
sS'advcl=schedule'
p289
I95
sS'w+2=remove'
p290
I2428
sS'nsubj=Ethiopia'
p291
I725
sS'w-2=policy'
p292
I3816
sS'w+2=evening'
p293
I2155
sS'w+1=informally'
p294
I1625
sS'nsubj=way'
p295
I1306
sS'prep=out'
p296
I1382
sS'nsubj=exploration'
p297
I1002
sS'xcomp=pump'
p298
I4261
sS'w-2=gun'
p299
I3656
sS'w-2=export'
p300
I3619
sS'nsubj=troops'
p301
I1280
sS'w-1=voting'
p302
I3206
sS'w+2=30'
p303
I1894
sS'w-2=community'
p304
I3541
sS'w-1=mining'
p305
I3011
sS'w+2=1988'
p306
I1867
sS'advcl=try'
p307
I119
sS'w+2=shred'
p308
I2492
sS'w+1=performance'
p309
I1691
sS'dobj=mission'
p310
I556
sS'w-2=crunch'
p311
I3563
sS'w+1=separate'
p312
I1752
sS'w+2=see'
p313
I2466
sS'xcomp=allow'
p314
I4028
sS'w+2=three-day'
p315
I2560
sS'conj=create'
p316
I313
sS'advcl=munitions'
p317
I69
sS'conj=stay'
p318
I381
sS'w+2=college'
p319
I2072
sS'dep=if'
p320
I427
sS'conj=ask'
p321
I303
sS'w+1=brew'
p322
I1493
sS'xcomp=implement'
p323
I4185
sS'ccomp=thin'
p324
I286
sS'xcomp=drift'
p325
I4123
sS'w-1=to'
p326
I3172
sS'advmod=especially'
p327
I148
sS'w-1=first'
p328
I2938
sS'dobj=version'
p329
I644
sS'w-2=expert'
p330
I3617
sS'w+2=white-owned'
p331
I2621
sS'w-2=legislation'
p332
I3712
sS'w-1=visit'
p333
I3201
sS'dobj=#PRP#'
p334
I462
sS'w+2=strengthen'
p335
I2523
sS'w-2=do'
p336
I3589
sS'w-1=Bengal'
p337
I2662
sS'conj=harbor'
p338
I338
sS'w-1=economy'
p339
I2913
sS'w+2=laboratory'
p340
I2268
sS'w-2=post-election'
p341
I3821
sS'partmod=indicate'
p342
I1333
sS'nsubj=report'
p343
I1192
sS'w+1=you'
p344
I1838
sS'nsubj=DPRK'
p345
I716
sS'nsubj=farmer'
p346
I1010
sS'nsubj=pullout'
p347
I1171
sS'w+2=Mungiki'
p348
I1952
sS'nsubj=future'
p349
I1026
sS'w-2=israeli'
p350
I3694
sS'nsubj=Japan'
p351
I757
sS'nsubj=dispute'
p352
I976
sS'w-1=study'
p353
I3152
sS'w-1=writer'
p354
I3226
sS'w+2=shrink'
p355
I2493
sS'w-2=geological'
p356
I3646
sS'w+2=ad'
p357
I1992
sS'nsubj=singer'
p358
I1227
sS'w+1=Saturday'
p359
I1445
sS'w+2=debris'
p360
I2103
sS'partmod=occupy'
p361
I1335
sS'w+2=hundred'
p362
I2236
sS'w+2=effort'
p363
I2134
sS'nsubj=link'
p364
I1076
sS'xcomp=sow'
p365
I4333
sS'w-1=colleague'
p366
I2868
sS'w-1=Guterres'
p367
I2708
sS'xcomp=reach'
p368
I4266
sS'nsubj=company'
p369
I928
sS'w+1=he'
p370
I1610
sS'w-2=two'
p371
I3973
sS'nsubj=Patrol'
p372
I793
sS'xcomp=create'
p373
I4089
sS'xcomp=deploy'
p374
I4105
sS'xcomp=search'
p375
I4307
sS'w+1=film'
p376
I1590
sS'ccomp=drive'
p377
I243
sS'w-2=evidence'
p378
I3611
sS'w+2=late'
p379
I2271
sS'dep=plant'
p380
I439
sS'w-1=Bridge'
p381
I2665
sS'nsubj=election'
p382
I989
sS'xcomp=arm'
p383
I4034
sS'w+2=Libya'
p384
I1941
sS'dobj=hearing'
p385
I541
sS'w-1=pan-arabism'
p386
I3052
sS'xcomp=explore'
p387
I4139
sS'advcl=shoot'
p388
I103
sS'w+2=occupy'
p389
I2341
sS'nsubj=trouble'
p390
I1282
sS'xcomp=rake'
p391
I4265
sS'w+2=because'
p392
I2034
sS'w+2=Eskom'
p393
I1919
sS'w-1=slump'
p394
I3138
sS'conj=capture'
p395
I307
sS'w-2=likely'
p396
I3717
sS'w-1=zed'
p397
I3230
sS'xcomp=strangle'
p398
I4341
sS'nsubj=Republicans'
p399
I802
sS'nsubj=door'
p400
I978
sS'ccomp=round'
p401
I274
sS'w-1=chaos'
p402
I2863
sS'pobj=fifth'
p403
I1349
sS'ccomp=make'
p404
I257
sS'dobj=feeling'
p405
I531
sS'w-2=hearing'
p406
I3665
sS'w-2=heavy'
p407
I3666
sS'nsubj=Delegates'
p408
I717
sS'w+2=inch'
p409
I2247
sS'w-1=one'
p410
I3039
sS'advcl=swim'
p411
I113
sS'w+1=draw'
p412
I1567
sS'w-2=READ'
p413
I3390
sS'w-2=Nicolas'
p414
I3374
sS'w+1=Friday'
p415
I1435
sS'w+2=Saturday'
p416
I1964
sS'advmod=normally'
p417
I178
sS'w-1=force'
p418
I2945
sS'xcomp=do'
p419
I4118
sS'nsubj=moo-hyun'
p420
I1097
sS'conj=begin'
p421
I306
sS'conj=pick'
p422
I363
sS'conj=develop'
p423
I319
sS'w-2=colleague'
p424
I3530
sS'nsubj=drama'
p425
I980
sS'w-2=Mr.'
p426
I3363
sS'w-2=commit'
p427
I3538
sS'conj=live'
p428
I354
sS'w+1=cull'
p429
I1536
sS'w+1=see'
p430
I1747
sS'w-2=Nepal'
p431
I3372
sS'w-2=five-member'
p432
I3633
sS'w+2=biographical'
p433
I2040
sS'nsubj=Proceedings'
p434
I796
sS'w+2=shield'
p435
I2483
sS'w-1=party'
p436
I3056
sS'w+1=Wednesday'
p437
I1452
sS'dobj=romance'
p438
I602
sS'w-2=deadline'
p439
I3570
sS'w-2=League'
p440
I3350
sS'nsubj=Canada'
p441
I703
sS'w+1=use'
p442
I1816
sS'dobj=agitation'
p443
I473
sS'w-2=rift'
p444
I3874
sS'nsubj=president'
p445
I1158
sS'nsubj=Korea'
p446
I761
sS'nsubj=Secretary'
p447
I809
sS'advcl=extricate'
p448
I40
sS'w-1=Iowa'
p449
I2722
sS'w-2=democratic'
p450
I3578
sS'xcomp=worried'
p451
I4394
sS'w+1=effort'
p452
I1572
sS'w+2=,'
p453
I1842
sS'w+2=intensive'
p454
I2252
sS'advcl=optimistic'
p455
I73
sS'w-1=Obey'
p456
I2750
sS'nsubj=levee'
p457
I1074
sS'w+2=withdraw'
p458
I2625
sS'nsubj=researcher'
p459
I1197
sS'w-2=fight'
p460
I3625
sS'w-2=camp'
p461
I3507
sS'w+2=diversify'
p462
I2116
sS'w+2=productive'
p463
I2392
sS'dobj=sit-in'
p464
I616
sS'xcomp=foundation'
p465
I4165
sS'w+2=New'
p466
I1954
sS'w-1=rally'
p467
I3097
sS'advcl=shell'
p468
I102
sS'w+2=stroke'
p469
I2525
sS'nsubj=piece'
p470
I1142
sS'xcomp=conquer'
p471
I4078
sS'w+2=move'
p472
I2321
sS'w+2=show'
p473
I2491
sS'advcl=attack'
p474
I11
sS'w+2=back'
p475
I2031
sS'w-2=up'
p476
I3979
sS'w-2=those'
p477
I3954
sS'nsubj=summit'
p478
I1246
sS'xcomp=glasnost'
p479
I4173
sS'prep=within'
p480
I1393
sS'nsubj=India'
p481
I746
sS'xcomp=loosen'
p482
I4207
sS'w+2=Israel'
p483
I1934
sS'w+2=several'
p484
I2477
sS'w-1=rise'
p485
I3117
sS'conj=part'
p486
I362
sS'w-2=form'
p487
I3638
sS'tmod=number'
p488
I1411
sS'w-1=project'
p489
I3086
sS'ccomp=step'
p490
I282
sS'w-2=soldier'
p491
I3913
sS'w-1=flyer'
p492
I2941
sS'w-2=stock'
p493
I3925
sS'w-2=Border'
p494
I3276
sS'w+1=shortly'
p495
I1761
sS'w-1=surge'
p496
I3157
sS'ccomp=broadcast'
p497
I238
sS'nsubj=Motors'
p498
I775
sS'w+2=create'
p499
I2093
sS'xcomp=leave'
p500
I4200
sS'w+2=sleep'
p501
I2500
sS'w-2=muslim'
p502
I3750
sS'nsubj=Show'
p503
I815
sS'w+1=produce'
p504
I1704
sS'pobj=day'
p505
I1348
sS'nsubj=Beijing'
p506
I694
sS'nsubj=gang'
p507
I1028
sS'nsubj=year'
p508
I1318
sS'w+2=sit-in'
p509
I2497
sS'nsubj=commission'
p510
I925
sS'xcomp=examine'
p511
I4136
sS'xcomp=fulfill'
p512
I4167
sS'partmod=claim'
p513
I1330
sS'w+2=6th'
p514
I1896
sS'w-2=Waziristan'
p515
I3432
sS'dep=as'
p516
I411
sS'w+1=surface'
p517
I1780
sS'xcomp=film'
p518
I4152
sS'xcomp=fill'
p519
I4151
sS'w+2=along'
p520
I2010
sS'xcomp=induct'
p521
I4191
sS'w+2=compulsory'
p522
I2078
sS'w+2=duty'
p523
I2129
sS'w+2=May'
p524
I1947
sS'w+2=biggest'
p525
I2039
sS'dep=implement'
p526
I428
sS'w+1=scout'
p527
I1745
sS'w-2=space'
p528
I3919
sS'w-2=raid'
p529
I3851
sS'advcl=sign'
p530
I104
sS'nsubj=Al-Shabab'
p531
I684
sS'w-2=rain'
p532
I3852
sS'w+1=scour'
p533
I1744
sS'nsubj=military'
p534
I1090
sS'xcomp=perilous'
p535
I4239
sS'w+1=renovate'
p536
I1728
sS'w-2=reform'
p537
I3862
sS'w-2=Koreans'
p538
I3346
sS'w+2=flourish'
p539
I2188
sS'w+1=deliberation'
p540
I1543
sS'w-2=civilian'
p541
I3524
sS'dobj=discussion'
p542
I515
sS'w+2=mountain'
p543
I2320
sS'nsubj=Nigeria'
p544
I783
sS'xcomp=subside'
p545
I4345
sS'w+2=embark'
p546
I2140
sS'w-1=play'
p547
I3072
sS'w+2=money'
p548
I2315
sS'nsubj=work'
p549
I1314
sS'w-2=force'
p550
I3637
sS'xcomp=accelerate'
p551
I4018
sS'w+2=respond'
p552
I2432
sS'w+1=meeting'
p553
I1657
sS'w+2=travel'
p554
I2576
sS'xcomp=shoot'
p555
I4321
sS'xcomp=spend'
p556
I4336
sS'w-1=gain'
p557
I2950
sS'dobj=search'
p558
I610
sS'dep=uphold'
p559
I454
sS'w+1=show'
p560
I1764
sS'nsubj=Iraqis'
p561
I752
sS'w+1=conquer'
p562
I1522
sS'xcomp=renovate'
p563
I4283
sS'nsubj=state'
p564
I1236
sS'w-2=terrorist'
p565
I3944
sS'w-2=mission'
p566
I3739
sS'w-2=scientist'
p567
I3887
sS'xcomp=negotiate'
p568
I4221
sS'nsubj=slump'
p569
I1228
sS'w-1=crisis'
p570
I2895
sS'w+2=break'
p571
I2045
sS'w+2=craft'
p572
I2092
sS'dobj=week'
p573
I648
sS'w+2=wane'
p574
I2604
sS'partmod=tell'
p575
I1341
sS'w-2=190'
p576
I3243
sS'nsubj=Islamists'
p577
I754
sS'conj=surface'
p578
I382
sS'xcomp=oppose'
p579
I4229
sS'xcomp=finalize'
p580
I4153
sS'w+2=scout'
p581
I2460
sS'advmod=thus'
p582
I205
sS'xcomp=emerge'
p583
I4126
sS'nsubj=artist'
p584
I868
sS'w-1=alliance'
p585
I2811
sS'nsubj=immigrant'
p586
I1048
sS'w-2=love'
p587
I3722
sS'nsubj=discontent'
p588
I973
sS'advmod=particularly'
p589
I187
sS'dobj=campaigning'
p590
I482
sS'w+1=between'
p591
I1488
sS'nsubj=general'
p592
I1032
sS'w-1=shutdown'
p593
I3133
sS'w+1=July'
p594
I1437
sS'w-1=troops'
p595
I3188
sS'w-2=pressure'
p596
I3827
sS'nsubj=President'
p597
I795
sS'nsubj=court'
p598
I946
sS'w-1=other'
p599
I3049
sS'xcomp=offer'
p600
I4226
sS'xcomp=protest'
p601
I4257
sS'w-2=sharing'
p602
I3898
sS'nsubj=Ireland'
p603
I753
sS'w+2=period'
p604
I2374
sS'w-2=million'
p605
I3737
sS'dobj=dip'
p606
I513
sS'advmod=traditionally'
p607
I206
sS'advmod=from'
p608
I157
sS'w+2=27'
p609
I1890
sS'w+1=address'
p610
I1457
sS'w+2=29'
p611
I1892
sS'mark=while'
p612
I668
sS'w+2=run'
p613
I2449
sS'dep=so'
p614
I446
sS'w+2=unpredictable'
p615
I2589
sS'conj=expand'
p616
I326
sS'w-1=Geneva'
p617
I2701
sS'nsubj=area'
p618
I866
sS'w-1=Seoul'
p619
I2771
sS'dobj=first'
p620
I534
sS'w-2=thousand'
p621
I3955
sS'w+2=outsource'
p622
I2361
sS'advcl=start'
p623
I108
sS'ccomp=believe'
p624
I236
sS'w+2=Christmas'
p625
I1912
sS'w+1=back'
p626
I1484
sS'xcomp=again'
p627
I4024
sS'w+2=new'
p628
I2330
sS'nsubj=Castro'
p629
I704
sS'w-2=patient'
p630
I3804
sS'conj=cause'
p631
I308
sS'prep=outside'
p632
I1383
sS'nsubj=branch'
p633
I893
sS'w-2=Musa'
p634
I3365
sS'w-1=2001'
p635
I2643
sS'advmod=finally'
p636
I152
sS'w+1=transfer'
p637
I1804
sS'w+2=military'
p638
I2311
sS'nsubj=community'
p639
I927
sS'xcomp=give'
p640
I4172
sS'w+1=well'
p641
I1827
sS'w-2=midday'
p642
I3733
sS'w-2=school'
p643
I3885
sS'w-2=Magic'
p644
I3354
sS'w+2=color'
p645
I2073
sS'w-2=200'
p646
I3247
sS'w+2=transition'
p647
I2574
sS'w+2=after'
p648
I1998
sS'w-2=600'
p649
I3252
sS'w-2=trip'
p650
I3969
sS'w+1=unload'
p651
I1813
sS'nsubj=peacekeeper'
p652
I1137
sS'nsubj=body'
p653
I887
sS'nsubj=family'
p654
I1007
sS'conj=fail'
p655
I331
sS'w-2=best'
p656
I3494
sS'nsubj=idea'
p657
I1047
sS'w-2=before'
p658
I3492
sS'advcl=move'
p659
I68
sS'w-1=Democrats'
p660
I2684
sS'w+2=switch'
p661
I2538
sS'w-2=it'
p662
I3696
sS'dobj=barrage'
p663
I476
sS'w-2=Guterres'
p664
I3322
sS'w+1=market'
p665
I1655
sS'w-2=white'
p666
I3999
sS'w-2=event'
p667
I3610
sS'w-1=pilgrimage'
p668
I3068
sS'w-1=talk'
p669
I3159
sS'w-2=al-qaida'
p670
I3463
sS'w-1=States'
p671
I2780
sS'xcomp=sprout'
p672
I4338
sS'dep=cut'
p673
I417
sS'w-2=film'
p674
I3627
sS'w+2=hope'
p675
I2230
sS'w-2=conclusion'
p676
I3543
sS'w-2=parliament'
p677
I3798
sS'xcomp=bid'
p678
I4044
sS'nsubj=crackdown'
p679
I948
sS'w-1=matter'
p680
I3001
sS'advcl=impose'
p681
I58
sS'w-2=discussion'
p682
I3587
sS'w+2=firm'
p683
I2183
sS'xcomp=collapse'
p684
I4073
sS'ccomp=win'
p685
I292
sS'w-1=bulldozer'
p686
I2845
sS'w-1=term'
p687
I3161
sS'w+2=same'
p688
I2453
sS'w-1=evict'
p689
I2919
sS'w+2=framework'
p690
I2200
sS'w-1=eid'
p691
I2915
sS'nsubj=task'
p692
I1253
sS'nsubj=proceedings'
p693
I1161
sS'nsubj=trafficking'
p694
I1271
sS'w+2=flow'
p695
I2190
sS'xcomp=apprentice'
p696
I4033
sS'advmod=also'
p697
I136
sS'xcomp=open'
p698
I4227
sS'nsubj=tradition'
p699
I1270
sS'w-2=Burkina'
p700
I3278
sS'nsubj=Congo'
p701
I709
sS'mark=although'
p702
I658
sS'w+1=six'
p703
I1768
sS'w-1=would'
p704
I3224
sS'dobj=life'
p705
I553
sS'w-2=hub'
p706
I3673
sS'w-1=Nigeria'
p707
I2747
sS'nsubj=son'
p708
I1234
sS'w-2=Super'
p709
I3409
sS'dobj=session'
p710
I613
sS'w+2=greater'
p711
I2216
sS'w-2=Hamdan'
p712
I3323
sS'dobj=tonight'
p713
I632
sS'nsubj=displaced'
p714
I975
sS'nsubj=time'
p715
I1263
sS'w-2=States'
p716
I3406
sS'w-2=who'
p717
I4000
sS'w+2=ask'
p718
I2024
sS'advmod=why'
p719
I214
sS'dobj=end'
p720
I526
sS'w-2=have'
p721
I3662
sS'dobj=analysis'
p722
I474
sS'nsubj=student'
p723
I1242
sS'w+2=grasp'
p724
I2214
sS'csubj=relaunch'
p725
I402
sS'w+1=treatment'
p726
I1807
sS'tmod=recess'
p727
I1413
sS'nsubj=lab'
p728
I1067
sS'w-2=Peace'
p729
I3385
sS'ccomp=reason'
p730
I270
sS'xcomp=reappear'
p731
I4268
sS'nsubj=hearing'
p732
I1042
sS'w+1=perform'
p733
I1690
sS'w+2=develop'
p734
I2108
sS'w+2=crackdown'
p735
I2091
sS'prep=involve'
p736
I1376
sS'w-1=meeting'
p737
I3007
sS'w-2=what'
p738
I3995
sS'w-1=phase'
p739
I3066
sS'conj=inspire'
p740
I346
sS'w-1=they'
p741
I3168
sS'w-1=person'
p742
I3064
sS'xcomp=target'
p743
I4355
sS'xcomp=fear'
p744
I4147
sS'w+2=early'
p745
I2130
sS'xcomp=develop'
p746
I4108
sS'w-2=crack'
p747
I3558
sS'w+1=air'
p748
I1461
sS'csubj=drop'
p749
I397
sS'xcomp=cull'
p750
I4092
sS'w-2=deployment'
p751
I3580
sS'w-2=let'
p752
I3713
sS'w+1=in'
p753
I1623
sS'w-1=incursion'
p754
I2976
sS'w+1=cut'
p755
I1537
sS'advcl=conduct'
p756
I25
sS'dobj=thaw'
p757
I628
sS'dobj=that'
p758
I627
sS'dobj=intifada'
p759
I548
sS'nsubj=#PRP#'
p760
I672
sS'w-1=facility'
p761
I2925
sS'w+1=about'
p762
I1455
sS'w-1=Beijing'
p763
I2660
sS'w+2=major'
p764
I2292
sS'w-2=Tech'
p765
I3414
sS'w+2=learn'
p766
I2277
sS'w-1=Germany'
p767
I2702
sS'w-2=active'
p768
I3443
sS'w-2=breaker'
p769
I3501
sS'w+2=grapple'
p770
I2213
sS'w-1=child'
p771
I2865
sS'w+2=shell'
p772
I2482
sS'w-1=priest'
p773
I3081
sS'w-1=very'
p774
I3198
sS'w-2=Kathmandu'
p775
I3343
sS'nsubj=cloud'
p776
I918
sS'w-2=action'
p777
I3442
sS'w+2=career'
p778
I2059
sS'w+2=together'
p779
I2567
sS'nsubj=outbreak'
p780
I1123
sS'nsubj=repression'
p781
I1193
sS'w+2=UN'
p782
I1980
sS'w+2=permanent'
p783
I2375
sS'w-2=War'
p784
I3430
sS'dobj=#NUMBER#'
p785
I461
sS'w-2=go'
p786
I3648
sS'w+1=development'
p787
I1552
sS'w+2=third'
p788
I2555
sS'w-1=executioner'
p789
I2922
sS'w+2=wonder'
p790
I2628
sS'w-1=boat'
p791
I2838
sS'w-2=commercial'
p792
I3536
sS'w-1=court'
p793
I2892
sS'w-2=increase'
p794
I3682
sS'w+2=1929'
p795
I1860
sS'conj=explore'
p796
I328
sS'w+1=move'
p797
I1662
sS'dobj=de-mining'
p798
I503
sS'nsubj=increase'
p799
I1051
sS'w-2=consortium'
p800
I3547
sS'w-1=Pakistan'
p801
I2754
sS'w-1=without'
p802
I3218
sS'w+1=pollute'
p803
I1694
sS'dep=dismantle'
p804
I419
sS'advmod=all'
p805
I133
sS'w-2=like'
p806
I3716
sS'dobj=tribunal'
p807
I641
sS'w-2=Rice'
p808
I3396
sS'xcomp=line'
p809
I4204
sS'w+2=home'
p810
I2229
sS'w+2=wear'
p811
I2610
sS'nsubj=Voting'
p812
I840
sS'w-2=PKK'
p813
I3380
sS'w+2=330,000'
p814
I1895
sS'w+1=release'
p815
I1725
sS'w+2=two-day'
p816
I2587
sS'w+2=spend'
p817
I2513
sS'w-2=Africa'
p818
I3260
sS'xcomp=consolidate'
p819
I4080
sS'dobj=call'
p820
I480
sS'xcomp=direct'
p821
I4109
sS'w-2=diplomacy'
p822
I3584
sS'xcomp=buy'
p823
I4054
sS'w-2=shortage'
p824
I3902
sS'w+2=restavek'
p825
I2433
sS'mark=after'
p826
I657
sS'w+2=militant'
p827
I2310
sS'advcl=suffer'
p828
I111
sS'dep=responsible'
p829
I441
sS'w+2=expected'
p830
I2161
sS'w-2=street'
p831
I3928
sS'w-1=Mogadishu'
p832
I2738
sS'w-1=month'
p833
I3016
sS'w+2=normalization'
p834
I2337
sS'advcl=cut'
p835
I27
sS'w+2=discuss'
p836
I2111
sS'w-1=upstream'
p837
I3196
sS'w-2=Musharraf'
p838
I3366
sS'xcomp=lead'
p839
I4198
sS'ccomp=block'
p840
I237
sS'w-2=secular'
p841
I3888
sS'w+2=sandwich'
p842
I2454
sS'w+1=one-party'
p843
I1677
sS'xcomp=overlook'
p844
I4233
sS'ccomp=due'
p845
I244
sS'w-2=sort'
p846
I3917
sS'w+2=great'
p847
I2215
sS'advcl=agree'
p848
I4
sS'dep=enter'
p849
I420
sS'w-2=individual'
p850
I3684
sS'w+2=of'
p851
I2344
sS'nsubj=NATO'
p852
I779
sS'w-2=studio'
p853
I3932
sS'w-1=intifada'
p854
I2979
sS'w-2=Lee'
p855
I3351
sS'xcomp=construct'
p856
I4081
sS'w+1=sweep'
p857
I1781
sS'w-2=Egypt'
p858
I3307
sS'dobj=kilometer'
p859
I551
sS'w+1=close'
p860
I1515
sS'advcl=gun'
p861
I51
sS'nsubj=Jane'
p862
I756
sS'nsubj=most'
p863
I1099
sS'conj=unleash'
p864
I390
sS'advcl=head'
p865
I54
sS'w-2=correct'
p866
I3552
sS'w-1=day'
p867
I2900
sS'w-2=operation'
p868
I3782
sS'nsubj=tour'
p869
I1266
sS'w-2=zone'
p870
I4017
sS'nsubj=upstream'
p871
I1288
sS'w-2=almost'
p872
I3466
sS'w+1=develop'
p873
I1551
sS'nsubj=last'
p874
I1068
sS'dobj=form'
p875
I535
sS'xcomp=transfer'
p876
I4364
sS'w-2=recommendation'
p877
I3859
sS'w+2=introduce'
p878
I2257
sS'nsubj=chairman'
p879
I910
sS'conj=stall'
p880
I379
sS'w-2=Algerian'
p881
I3263
sS'w+2=out'
p882
I2360
sS'w+2=shopper'
p883
I2487
sS'w-1=colonization'
p884
I2870
sS'w-2=gold'
p885
I3650
sS'dep=be'
p886
I413
sS'w+1=Shaddix'
p887
I1447
sS'w-2=field'
p888
I3624
sS'w-2=dispute'
p889
I3588
sS'w+1=10'
p890
I1423
sS'dobj=era'
p891
I527
sS'w+1=12'
p892
I1424
sS'dep=devastate'
p893
I418
sS'w+2=knuckle-walking'
p894
I2267
sS'xcomp=capture'
p895
I4057
sS'advcl=adopt'
p896
I2
sS'w+2=close'
p897
I2068
sS'w-1=zimbabwean'
p898
I3231
sS'w+2=advantage'
p899
I1995
sS'w-2=worker'
p900
I4009
sS'w-1=campaign'
p901
I2849
sS'dep=by'
p902
I416
sS'ccomp=reflection'
p903
I271
sS'xcomp=organize'
p904
I4230
sS'nsubj=Afghans'
p905
I681
sS'w+1=15'
p906
I1426
sS'nsubj=withdrawal'
p907
I1312
sS'w+2=steep'
p908
I2521
sS'w+1=share'
p909
I1758
sS'nsubj=case'
p910
I903
sS'w+2=process'
p911
I2391
sS'w+1=Tonight'
p912
I1450
sS'w+2=Crisis'
p913
I1913
sS'w+1=direct'
p914
I1556
sS'w-2=only'
p915
I3781
sS'w-1=Fitr'
p916
I2694
sS'w+1=throw'
p917
I1798
sS'w+1=stage'
p918
I1776
sS'w-2=interest'
p919
I3691
sS'w-1=age'
p920
I2806
sS'dobj=drawdown'
p921
I518
sS'w+1=what'
p922
I1828
sS'w-1=Somalia'
p923
I2779
sS'dep=establish'
p924
I421
sS'w+2=fall'
p925
I2169
sS'w-2=exile'
p926
I3613
sS'w+1=serious'
p927
I1753
sS'nsubj=cut'
p928
I954
sS'w-2=policeman'
p929
I3815
sS'conj=express'
p930
I329
sS'w-1=China'
p931
I2672
sS'w+2=10'
p932
I1848
sS'w+2=12'
p933
I1850
sS'w-2=New'
p934
I3373
sS'w+2=tap'
p935
I2543
sS'w+2=shock'
p936
I2486
sS'w-2=one'
p937
I3780
sS'w-2=Oysters'
p938
I3379
sS'conj=ban'
p939
I304
sS'xcomp=ensure'
p940
I4131
sS'w+2=exercise'
p941
I2158
sS'dep=that'
p942
I448
sS'advmod=soon'
p943
I200
sS'w-1=gang'
p944
I2951
sS'w-2=trafficking'
p945
I3963
sS'nsubj=phase'
p946
I1141
sS'w+2=crusade'
p947
I2096
sS'nsubj=seller'
p948
I1215
sS'w+1=formal'
p949
I1599
sS'w-2=campaigning'
p950
I3509
sS'w-2=disarmament'
p951
I3586
sS'aux=should'
p952
I225
sS'w+1=live'
p953
I1648
sS'w-1=Christmas'
p954
I2673
sS'w+2=Mauritania'
p955
I1946
sS'nsubj=opinion'
p956
I1116
sS'w-1=then'
p957
I3165
sS'nsubj=age'
p958
I856
sS'w-2=recent'
p959
I3858
sS'w-1=eviction'
p960
I2920
sS'nsubj=strategy'
p961
I1239
sS'w+2=conception'
p962
I2079
sS'w-1=Israel'
p963
I2725
sS'xcomp=respond'
p964
I4290
sS'xcomp=help'
p965
I4181
sS'mark=once'
p966
I664
sS'w-2=troop'
p967
I3970
sS'nsubj=vaccination'
p968
I1289
sS'nsubj=Program'
p969
I797
sS'w+2=transfer'
p970
I2573
sS'w-2=and'
p971
I3472
sS'tmod=month'
p972
I1408
sS'w+2=nominee'
p973
I2335
sS'nsubj=worry'
p974
I1316
sS'w+2=rise'
p975
I2441
sS'w-1=Arafat'
p976
I2655
sS'w+1=pay'
p977
I1687
sS'w-1=mass'
p978
I3000
sS'nsubj=discussion'
p979
I974
sS'nsubj=shakeup'
p980
I1220
sS'w+1=burn'
p981
I1498
sS'w+1=draft'
p982
I1565
sS'w-2=american'
p983
I3470
sS'w+1=Monday'
p984
I1440
sS'w-2=festival'
p985
I3623
sS'csubj=outsource'
p986
I400
sS'w-1=panel'
p987
I3054
sS'dobj=consultation'
p988
I492
sS'w-1=period'
p989
I3063
sS'nsubj=Arabs'
p990
I688
sS'w-2=self-taught'
p991
I3891
sS'dep=exclude'
p992
I422
sS'w+2=ramp'
p993
I2403
sS'w+2=road'
p994
I2443
sS'w-1=Belarus'
p995
I2661
sS'xcomp=appeal'
p996
I4031
sS'w+2=reduction'
p997
I2420
sS'w-1=Galloway'
p998
I2697
sS'w+2=resolve'
p999
I2431
sS'prep=after'
p1000
I1354
sS'advcl=ambush'
p1001
I6
sS'nsubj=Obey'
p1002
I787
sS'xcomp=appear'
p1003
I4032
sS'w+2=trial'
p1004
I2579
sS'w-1=scientist'
p1005
I3122
sS'nsubj=civilian'
p1006
I914
sS'w-1=riot'
p1007
I3115
sS'w-1=film'
p1008
I2936
sS'w-1=train'
p1009
I3181
sS'xcomp=redeploy'
p1010
I4277
sS'conj=mar'
p1011
I356
sS'w+1=save'
p1012
I1742
sS'w-1=Abbey'
p1013
I2648
sS'w-2=brave'
p1014
I3500
sS'w+1=decide'
p1015
I1541
sS'xcomp=enforce'
p1016
I4130
sS'w-2=lower-income'
p1017
I3723
sS'w-2=cultural'
p1018
I3565
sS'w-2=for'
p1019
I3636
sS'prep=against'
p1020
I1355
sS'w+1=serve'
p1021
I1754
sS'nsubj=Asia-Europe'
p1022
I690
sS'xcomp=evacuate'
p1023
I4135
sS'w+1=preparation'
p1024
I1699
sS'w-2=pyongyang'
p1025
I3847
sS'w-1=construction'
p1026
I2882
sS'conj=sin'
p1027
I376
sS'w-2=although'
p1028
I3469
sS'ccomp=arrive'
p1029
I234
sS'w-2=al-Qaida'
p1030
I3462
sS'nsubj=brain'
p1031
I892
sS'w-1=protest'
p1032
I3088
sS'nsubj=Raul'
p1033
I801
sS'nsubj=union'
p1034
I1285
sS'w+2=electrical'
p1035
I2138
sS'dobj=reform'
p1036
I593
sS'w-2=Stars'
p1037
I3404
sS'w-1=admirer'
p1038
I2802
sS'xcomp=talk'
p1039
I4353
sS'w+1=good-faith'
p1040
I1606
sS'ccomp=monitor'
p1041
I260
sS'w-1=all'
p1042
I2810
sS'w-2=civil'
p1043
I3523
sS'w-1=Greenland'
p1044
I2705
sS'w-1=keep'
p1045
I2986
sS'w+2=other'
p1046
I2359
sS'w+1=not'
p1047
I1672
sS'nsubj=campaign'
p1048
I898
sS'w+1=violence'
p1049
I1820
sS'conj=present'
p1050
I364
sS'w+2=get'
p1051
I2208
sS'ccomp=increase'
p1052
I250
sS'w+1=before'
p1053
I1487
sS'w-1=incident'
p1054
I2974
sS'w+1=support'
p1055
I1779
sS'w-1=Kanter'
p1056
I2729
sS'w-1=just'
p1057
I2985
sS'w-2=Jennifer'
p1058
I3338
sS'w+1=destroy'
p1059
I1549
sS'w-1=election'
p1060
I2916
sS'w+1=teacher'
p1061
I1787
sS'nsubj=nation'
p1062
I1100
sS'w+1=new'
p1063
I1668
sS'nsubj=negotiation'
p1064
I1102
sS'dobj=notion'
p1065
I561
sS'w-2=calmer'
p1066
I3506
sS'w-2=antiquity'
p1067
I3476
sS'w-1=measure'
p1068
I3005
sS'w-2=bottleneck'
p1069
I3499
sS'w+1=disable'
p1070
I1557
sS'w-2=fan'
p1071
I3621
sS'w-2=that'
p1072
I3946
sS'w-1=drilling'
p1073
I2911
sS'w-2=can'
p1074
I3510
sS'w-2=debate'
p1075
I3571
sS'w-2=...'
p1076
I3239
sS'nsubj=campaigning'
p1077
I899
sS'w-1=Cross'
p1078
I2679
sS'nsubj=monk'
p1079
I1096
sS'neg=not'
p1080
I670
sS'dobj=operation'
p1081
I564
sS'w+2=campaign'
p1082
I2057
sS'xcomp=shoulder'
p1083
I4322
sS'advcl=scrap'
p1084
I96
sS'dobj=teacher'
p1085
I625
sS'w-1=Faso'
p1086
I2692
sS'nsubj=leadership'
p1087
I1072
sS'w+2=life'
p1088
I2282
sS'w-2=championship'
p1089
I3519
sS'w-1=sale'
p1090
I3120
sS'nsubj=collection'
p1091
I920
sS'w-1=Blair'
p1092
I2663
sS'w+2=recruitment'
p1093
I2416
sS'w+2=four-day'
p1094
I2198
sS'w+2=disputed'
p1095
I2114
sS'w+2=prayer'
p1096
I2388
sS'w+1=early'
p1097
I1571
sS'nsubj=construction'
p1098
I936
sS'w+1=hundred'
p1099
I1617
sS'w-1=must'
p1100
I3019
sS'nsubj=pregnancy'
p1101
I1156
sS'w+2=result'
p1102
I2434
sS'dep=ground-breaking'
p1103
I425
sS'dobj=bid'
p1104
I477
sS'w+2=business'
p1105
I2052
sS'w-1=watchdog'
p1106
I3208
sS'conj=deny'
p1107
I316
sS'conj=understand'
p1108
I389
sS'w+1=function'
p1109
I1602
sS'w+2=fierce'
p1110
I2175
sS'xcomp=tax'
p1111
I4356
sS'conj=focus'
p1112
I334
sS'w-2=Sudan'
p1113
I3407
sS'dobj=project'
p1114
I585
sS'advmod=then'
p1115
I203
sS'w+2=armed'
p1116
I2021
sS'dobj=rebellion'
p1117
I588
sS'w+1=they'
p1118
I1793
sS'w-2=billion'
p1119
I3495
sS'w-2=truck'
p1120
I3972
sS'xcomp=unload'
p1121
I4374
sS'xcomp=move'
p1122
I4218
sS'w+1=earlier'
p1123
I1570
sS'w+1=shoot'
p1124
I1760
sS'w-2=we'
p1125
I3992
sS'nsubj=eviction'
p1126
I994
sS'dobj=coverage'
p1127
I496
sS'w+1=form'
p1128
I1598
sS'w+2=import'
p1129
I2243
sS'w-2=date'
p1130
I3568
sS'xcomp=lend'
p1131
I4202
sS'nsubj=palestinian-made'
p1132
I1127
sS'w+2=occur'
p1133
I2342
sS'w+2=auction'
p1134
I2029
sS'dobj=crackdown'
p1135
I497
sS'w+2=protest'
p1136
I2397
sS'w+2=next'
p1137
I2332
sS'w-1=reputation'
p1138
I3110
sS'w+2=very'
p1139
I2598
sS'w-1=gathering'
p1140
I2952
sS'w+2=Paris'
p1141
I1959
sS'w-1=fight'
p1142
I2934
sS'xcomp=shut'
p1143
I4326
sS'w+1=commercially'
p1144
I1519
sS'advcl=sit'
p1145
I105
sS'prep=if'
p1146
I1372
sS'w+2=fade'
p1147
I2167
sS'w+1=until'
p1148
I1814
sS'w-2=surge'
p1149
I3937
sS'nsubj=process'
p1150
I1162
sS'nsubj=attack'
p1151
I873
sS'w+2=Detroit'
p1152
I1918
sS'w-1=bombardment'
p1153
I2840
sS'w-2=settlement'
p1154
I3897
sS'w-1=AFN'
p1155
I2646
sS'w+2=worker'
p1156
I2630
sS'w+2=15'
p1157
I1853
sS'w+2=european'
p1158
I2153
sS'w-2=Guantanamo'
p1159
I3321
sS'xcomp=broadcast'
p1160
I4050
sS'nsubj=many'
p1161
I1081
sS'w+2=british'
p1162
I2048
sS'nsubj=doctor'
p1163
I977
sS'w+1=that'
p1164
I1789
sS'xcomp=tackle'
p1165
I4351
sS'w+1=check'
p1166
I1509
sS'w+1=assemble'
p1167
I1479
sS'w-2=militant'
p1168
I3735
sS'w-2=now'
p1169
I3767
sS'xcomp=check'
p1170
I4066
sS'dobj=therapy'
p1171
I629
sS'xcomp=concern'
p1172
I4075
sS'w+2=odd'
p1173
I2343
sS'dobj=duty'
p1174
I521
sS'w+1=analyze'
p1175
I1465
sS'w-1=violence'
p1176
I3200
sS'nsubj=reaction'
p1177
I1181
sS'dobj=confiscation'
p1178
I489
sS'w-2=young'
p1179
I4016
sS'conj=military'
p1180
I357
sS'w+2=affect'
p1181
I1997
sS'advmod=so'
p1182
I198
sS'dobj=review'
p1183
I597
sS'w+2=peace'
p1184
I2371
sS'nsubj=study'
p1185
I1244
sS'w-2=commander'
p1186
I3534
sS'advmod=just'
p1187
I167
sS'xcomp=broaden'
p1188
I4051
sS'advmod=seemingly'
p1189
I195
sS'nsubj=breaker'
p1190
I894
sS'advcl=renounce'
p1191
I89
sS'w+2=establish'
p1192
I2151
sS'advcl=arrive'
p1193
I9
sS'w+2=night'
p1194
I2333
sS'dobj=effort'
p1195
I522
sS'w-1=usually'
p1196
I3197
sS'aux=may'
p1197
I223
sS'w-2=Clinton'
p1198
I3288
sS'w+1=enforce'
p1199
I1575
sS'xcomp=venture'
p1200
I4379
sS'nsubj=China'
p1201
I706
sS'w+1=120'
p1202
I1425
sS'w+2=work'
p1203
I2629
sS'w+2=lose'
p1204
I2291
sS'dep=shut'
p1205
I444
sS'nsubj=Congress'
p1206
I710
sS'nsubj=assailant'
p1207
I870
sS'w-2=commission'
p1208
I3537
sS'w-2=the'
p1209
I3947
sS'w-1=leadership'
p1210
I2992
sS'xcomp=plant'
p1211
I4242
sS'w-2=crazemany'
p1212
I3560
sS'w-2=other'
p1213
I3788
sS'xcomp=flow'
p1214
I4158
sS'nsubj=leader'
p1215
I1071
sS'advcl=come'
p1216
I24
sS'w+2=build'
p1217
I2051
sS'nsubj=Cup'
p1218
I715
sS'nsubj=what'
p1219
I1308
sS'w+1=help'
p1220
I1613
sS'ccomp=seep'
p1221
I278
sS'w-1=Fatah'
p1222
I2693
sS'w+1=manufacture'
p1223
I1653
sS'w-2=partner'
p1224
I3800
sS'nsubj=mission'
p1225
I1093
sS'w+1=spread'
p1226
I1774
sS'w-2=Thunder'
p1227
I3416
sS'w-2=withdrawal'
p1228
I4005
sS'nsubj=waterboarding'
p1229
I1305
sS'xcomp=farm'
p1230
I4146
sS'w+1=round'
p1231
I1740
sS'conj=Marine'
p1232
I297
sS'w+2=rebuild'
p1233
I2408
sS'xcomp=tap'
p1234
I4354
sS'advcl=explode'
p1235
I39
sS'w-1=traditionally'
p1236
I3180
sS'w-1=Democracy'
p1237
I2683
sS'w-2=match'
p1238
I3728
sS'w+2=first'
p1239
I2184
sS'w+1=June'
p1240
I1438
sS'nsubj=Adams'
p1241
I679
sS'nsubj=Guterres'
p1242
I738
sS'w+2=slow'
p1243
I2502
sS'dobj=Consortium'
p1244
I464
sS'w-2=Raila'
p1245
I3391
sS'w-2=United'
p1246
I3426
sS'w-2=Senate'
p1247
I3400
sS'nsubj=uprising'
p1248
I1287
sS'w-2=testy'
p1249
I3945
sS'dep=only'
p1250
I437
sS'w-1=President'
p1251
I2758
sS'w+1=mainly'
p1252
I1651
sS'w-2=Congo'
p1253
I3290
sS'w+2=-lrb-'
p1254
I1844
sS'nsubj=incident'
p1255
I1050
sS'w+1=deliver'
p1256
I1545
sS'w+2=in'
p1257
I2245
sS'w-2=Fire'
p1258
I3315
sS'csubj=happen'
p1259
I399
sS'nsubj=competition'
p1260
I929
sS'w-2=dictation'
p1261
I3583
sS'w+2=it'
p1262
I2262
sS'w+2=eradication'
p1263
I2148
sS'w+1=search'
p1264
I1746
sS'w-2=proposal'
p1265
I3842
sS'w-2=some'
p1266
I3915
sS'nsubj=food'
p1267
I1022
sS'w-1=II'
p1268
I2716
sS'xcomp=remove'
p1269
I4282
sS'prep=about'
p1270
I1352
sS'aux=can'
p1271
I219
sS'w+2=laugh'
p1272
I2275
sS'dobj=rule'
p1273
I605
sS'nsubj=attention'
p1274
I875
sS'w-2=Israel'
p1275
I3337
sS'dobj=Empire'
p1276
I465
sS'w-2=General'
p1277
I3319
sS'w-2=slate'
p1278
I3910
sS'advmod=at'
p1279
I140
sS'w-1=farmer'
p1280
I2930
sS'xcomp=issue'
p1281
I4196
sS'dobj=treatment'
p1282
I638
sS'w-1=many'
p1283
I2998
sS'w-1=government'
p1284
I2955
sS'w+2=thousand'
p1285
I2558
sS'w-1=pass'
p1286
I3057
sS'w+2=review'
p1287
I2440
sS'w+2=hearing'
p1288
I2223
sS'xcomp=follow'
p1289
I4160
sS'nsubj=organization'
p1290
I1119
sS'advmod=only'
p1291
I184
sS'w-1=formally'
p1292
I2947
sS'w+2=immediately'
p1293
I2240
sS'xcomp=boom'
p1294
I4046
sS'xcomp=fall'
p1295
I4145
sS'advcl=recede'
p1296
I84
sS'w-1=idea'
p1297
I2972
sS'w+2=dozen'
p1298
I2124
sS'w-2=Sunnis'
p1299
I3408
sS'nsubj=threat'
p1300
I1262
sS'w-2=oil'
p1301
I3775
sS'w+2=provide'
p1302
I2398
sS'w+1=for'
p1303
I1596
sS'xcomp=withdraw'
p1304
I4391
sS'w+2=agree'
p1305
I2005
sS'w-2=six-party'
p1306
I3909
sS'w+2=point'
p1307
I2383
sS'xcomp=think'
p1308
I4357
sS'conj=end'
p1309
I323
sS'xcomp=forget'
p1310
I4162
sS'w+2=spring'
p1311
I2517
sS'w-2=growth'
p1312
I3655
sS'advcl=order'
p1313
I74
sS'w+1=organize'
p1314
I1682
sS'w-1=assault'
p1315
I2824
sS'w-2=ceasefire'
p1316
I3517
sS'xcomp=wear'
p1317
I4389
sS'advmod=partly'
p1318
I188
sS'advmod=largely'
p1319
I168
sS'w-2=experimental'
p1320
I3616
sS'prep=to'
p1321
I1388
sS'nsubj=tumor'
p1322
I1284
sS'dobj=program'
p1323
I584
sS'w-1=sandhog'
p1324
I3121
sS'nsubj=Myung-bak'
p1325
I778
sS'w-2=voter'
p1326
I3987
sS'w-1=System'
p1327
I2783
sS'w+2=Iraqis'
p1328
I1933
sS'w-1=Ghana'
p1329
I2703
sS'nsubj=the'
p1330
I1257
sS'advmod=anew'
p1331
I138
sS'w+2=redeployment'
p1332
I2418
sS'w-2=priority'
p1333
I3831
sS'w-2=authority'
p1334
I3486
sS'w+2=plant'
p1335
I2381
sS'w-1=parliament'
p1336
I3055
sS'dobj=plan'
p1337
I575
sS'w+2=wheat'
p1338
I2617
sS'w+1=pelt'
p1339
I1689
sS'w+1=investigate'
p1340
I1630
sS'nsubj=triangle'
p1341
I1277
sS'nsubj=conclusion'
p1342
I930
sS'xcomp=exert'
p1343
I4137
sS'nsubj=lawmaker'
p1344
I1069
sS'nsubj=attempt'
p1345
I874
sS'w+2=resume'
p1346
I2435
sS'w-2=baby'
p1347
I3487
sS'nsubj=debate'
p1348
I958
sS'w+2=Iowa'
p1349
I1931
sS'conj=kill'
p1350
I350
sS'w+2=slow-moving'
p1351
I2503
sS'nsubj=discharge'
p1352
I972
sS'w-2=about'
p1353
I3441
sS'advcl=discover'
p1354
I32
sS'xcomp=melt'
p1355
I4215
sS'w-1=neighbor'
p1356
I3023
sS'w-2=count'
p1357
I3554
sS'advmod=of'
p1358
I180
sS'w+1=last-minute'
p1359
I1640
sS'nsubj=Holliday'
p1360
I743
sS'w+1=study'
p1361
I1778
sS'w-2=since'
p1362
I3905
sS'dobj=which'
p1363
I651
sS'w-2=Food'
p1364
I3316
sS'xcomp=tighten'
p1365
I4359
sS'w+2=we'
p1366
I2607
sS'w+1=tough'
p1367
I1802
sS'w-2=control'
p1368
I3550
sS'nsubj=round'
p1369
I1207
sS'nsubj=empire'
p1370
I990
sS'w-2=moment'
p1371
I3742
sS'dobj=election'
p1372
I523
sS'w-2=flower-adorned'
p1373
I3635
sS'w-1=travel'
p1374
I3184
sS'w+2=carbofuran'
p1375
I2058
sS'nsubj=day'
p1376
I956
sS'nsubj=drilling'
p1377
I982
sS'xcomp=discuss'
p1378
I4111
sS'dobj=decline'
p1379
I507
sS'w+2=important'
p1380
I2244
sS'nsubj=key'
p1381
I1065
sS'w+1=seven'
p1382
I1756
sS'w-2=vaccine'
p1383
I3980
sS'xcomp=celebrate'
p1384
I4059
sS'advcl=distribute'
p1385
I33
sS'w-2=change'
p1386
I3520
sS'w+2=house'
p1387
I2233
sS'nsubj=nod'
p1388
I1105
sS'w+1=day'
p1389
I1538
sS'w+2=Africans'
p1390
I1900
sS'nsubj=initiative'
p1391
I1055
sS'w-1=tourism'
p1392
I3176
sS'xcomp=correspond'
p1393
I4087
sS'w+2=gradual'
p1394
I2212
sS'nsubj=Koreans'
p1395
I762
sS'w-2=Eritrea'
p1396
I3309
sS'w-2=cause'
p1397
I3515
sS'xcomp=train'
p1398
I4363
sS'w-1=explorer'
p1399
I2924
sS'w-2=mobility'
p1400
I3740
sS'w-2=Madagascar'
p1401
I3353
sS'w+2=chess'
p1402
I2065
sS'w-2=12'
p1403
I3242
sS'w-2=court'
p1404
I3557
sS'w+2=latest'
p1405
I2274
sS'xcomp=face'
p1406
I4142
sS'w+2=too'
p1407
I2569
sS'w+1=several'
p1408
I1757
sS'conj=hope'
p1409
I341
sS'xcomp=scour'
p1410
I4305
sS'conj=shift'
p1411
I374
sS'nsubj=loss'
p1412
I1077
sS'w-2=judge'
p1413
I3700
sS'w+2=national'
p1414
I2324
sS'dobj=debate'
p1415
I505
sS'w+2=someone'
p1416
I2507
sS'w-1=experience'
p1417
I2923
sS'w-2=when'
p1418
I3996
sS'xcomp=analyze'
p1419
I4029
sS'dobj=people'
p1420
I570
sS'nsubj=rush'
p1421
I1209
sS'w-1=house'
p1422
I2969
sS'w+1=patrol'
p1423
I1686
sS'dobj=preparation'
p1424
I578
sS'advcl=spar'
p1425
I106
sS'w-2=prisoner'
p1426
I3833
sS'nsubj=News'
p1427
I782
sS'rel=in'
p1428
I1398
sS'dobj=adventure'
p1429
I471
sS'ccomp=put'
p1430
I269
sS'w+1=canvass'
p1431
I1504
sS'w-2=where'
p1432
I3997
sS'advmod=meanwhile'
p1433
I172
sS'w-1=worker'
p1434
I3222
sS'w-2=Bush'
p1435
I3279
sS'conj=spread'
p1436
I378
sS'w+1=work'
p1437
I1836
sS'nsubj=eavesdropping'
p1438
I984
sS'w+2=phased'
p1439
I2377
sS'dobj=inquiry'
p1440
I547
sS'w-2=eavesdropping'
p1441
I3598
sS'nsubj=adventure'
p1442
I854
sS'w-2=musical'
p1443
I3749
sS'w-2=pride'
p1444
I3828
sS'w-2=possible'
p1445
I3820
sS'w+2=tighten'
p1446
I2562
sS'w+2=verge'
p1447
I2597
sS'w+2=morning'
p1448
I2319
sS'w-1=Sarkozy'
p1449
I2768
sS'dobj=presence'
p1450
I579
sS'w+1=volunteer'
p1451
I1821
sS'w-2=large-scale'
p1452
I3706
sS'w+2=here'
p1453
I2227
sS'w-2=time'
p1454
I3957
sS'w-1=before'
p1455
I2834
sS'advmod=intensively'
p1456
I166
sS'nsubj=Chavez'
p1457
I705
sS'xcomp=pay'
p1458
I4236
sS'w+2=flout'
p1459
I2189
sS'nsubj=Party'
p1460
I792
sS'w-2=Raul'
p1461
I3393
sS'w+2=cooperate'
p1462
I2086
sS'nsubj=soldier'
p1463
I1231
sS'w-2=drama'
p1464
I3592
sS'nsubj=soil'
p1465
I1230
sS'dep=Shaddix'
p1466
I408
sS'w+1=arrive'
p1467
I1475
sS'w+1=call'
p1468
I1502
sS'advcl=help'
p1469
I56
sS'prep=over'
p1470
I1384
sS'w+1=strangle'
p1471
I1777
sS'advmod=overall'
p1472
I186
sS'nsubj=Russia'
p1473
I806
sS'w-1=pregnancy'
p1474
I3077
sS'pcomp=at'
p1475
I1342
sS'w-2=immediately'
p1476
I3678
sS'w+1=crowd'
p1477
I1534
sS'w+1=plan'
p1478
I1692
sS'w-2=Cross'
p1479
I3294
sS'conj=give'
p1480
I335
sS'nsubj=Laura'
p1481
I763
sS'w+1=protest'
p1482
I1708
sS'nsubjpass=that'
p1483
I1323
sS'w-2=arm'
p1484
I3480
sS'nsubj=voter'
p1485
I1301
sS'nsubj=story'
p1486
I1238
sS'w+2=inaugural'
p1487
I2246
sS'w+2=fast'
p1488
I2171
sS'w+2=famous'
p1489
I2170
sS'w+2=continue'
p1490
I2084
sS'w+2=anonymous'
p1491
I2017
sS'w-1=water'
p1492
I3209
sS'nsubj=Kanter'
p1493
I759
sS'w-1=thus'
p1494
I3171
sS'w-2=able'
p1495
I3440
sS'ccomp=be'
p1496
I235
sS'w-1=race'
p1497
I3094
sS'w-2=opportunity'
p1498
I3784
sS'nsubj=Nazis'
p1499
I781
sS'w+1=life'
p1500
I1646
sS'w-2=major'
p1501
I3725
sS'w-2=counting'
p1502
I3555
sS'w+2=heart'
p1503
I2224
sS'nsubj=rain'
p1504
I1178
sS'w-1=vote'
p1505
I3205
sS'nsubj=pipeline'
p1506
I1144
sS'w-1=yet'
p1507
I3228
sS'w-2=Vice'
p1508
I3428
sS'w+2=redeploy'
p1509
I2417
sS'dobj=surgery'
p1510
I623
sS'w+2=bite'
p1511
I2042
sS'nsubj=detail'
p1512
I966
sS'w-2=eastern'
p1513
I3596
sS'xcomp=present'
p1514
I4250
sS'w-2=painting'
p1515
I3793
sS'nsubj=minister'
p1516
I1092
sS'w+2=shortly'
p1517
I2489
sS'advmod=along'
p1518
I134
sS'w-2=February'
p1519
I3312
sS'advcl=get'
p1520
I49
sS'w-2=old'
p1521
I3776
sS'xcomp=buffet'
p1522
I4052
sS'nsubj=preparation'
p1523
I1157
sS'w-1=night'
p1524
I3024
sS'w-2=disability'
p1525
I3585
sS'w+2=when'
p1526
I2618
sS'w+2=talk'
p1527
I2542
sS'w-2=riot'
p1528
I3877
sS'nsubj=Tourism'
p1529
I830
sS'w-2=northern'
p1530
I3764
sS'w-2=al-Islam'
p1531
I3461
sS'w-2=issue'
p1532
I3695
sS'parataxis=say'
p1533
I1327
sS'w-1=Korea'
p1534
I2732
sS'w+2=weeklong'
p1535
I2614
sS'xcomp=serve'
p1536
I4314
sS'w-2=Maliki'
p1537
I3355
sS'w-2=indian'
p1538
I3683
sS'dep=resistance'
p1539
I440
sS'nsubj=zed'
p1540
I1319
sS'conj=think'
p1541
I385
sS'w+2=uranium'
p1542
I2593
sS'w-1=refugee'
p1543
I3103
sS'w+1=verification'
p1544
I1818
sS'xcomp=cure'
p1545
I4093
sS'parataxis=declare'
p1546
I1325
sS'dep=#DATE#'
p1547
I406
sS'w+2=Ivory'
p1548
I1935
sS'advcl=before'
p1549
I15
sS'dobj=term'
p1550
I626
sS'w+1=mushroom'
p1551
I1663
sS'nsubj=intifada'
p1552
I1058
sS'w+1=tonight'
p1553
I1801
sS'w-1=Nkunda'
p1554
I2748
sS'xcomp=draw'
p1555
I4122
sS'w+1=hear'
p1556
I1611
sS'dep=tighten'
p1557
I451
sS'w+2=mission'
p1558
I2314
sS'w-2=over'
p1559
I3792
sS'w-1=case'
p1560
I2856
sS'xcomp=cooperate'
p1561
I4085
sS'w-1=Department'
p1562
I2685
sS'w-1=revolution'
p1563
I3114
sS'nsubj=relationship'
p1564
I1189
sS'w-1=threat'
p1565
I3170
sS'nsubj=Croatia'
p1566
I713
sS'w-1=Program'
p1567
I2759
sS'w-2=Kadima'
p1568
I3342
sS'w+2=Thursday'
p1569
I1977
sS'w+2=say'
p1570
I2455
sS'pcomp=on'
p1571
I1345
sS'ccomp=march'
p1572
I258
sS'xcomp=speak'
p1573
I4334
sS'nsubj=effort'
p1574
I987
sS'nsubj=participant'
p1575
I1131
sS'w+2=many'
p1576
I2297
sS'nsubj=contingent'
p1577
I938
sS'w+2=Sevran'
p1578
I1967
sS'nsubj=executioner'
p1579
I996
sS'w-2=India-Pakistan'
p1580
I3331
sS'nsubj=agreement'
p1581
I859
sS'w+1=under'
p1582
I1812
sS'nsubj=air'
p1583
I860
sS'w-2=treatment'
p1584
I3966
sS'w+1=operation'
p1585
I1681
sS'w-1=committee'
p1586
I2874
sS'w+2=question'
p1587
I2400
sS'xcomp=breed'
p1588
I4048
sS'w-1=protester'
p1589
I3089
sS'w-2=policymaker'
p1590
I3817
sS'dep=before'
p1591
I415
sS'w+1=diving'
p1592
I1562
sS'w-2=resistance'
p1593
I3870
sS'tmod=evening'
p1594
I1405
sS'w+2=investigation'
p1595
I2259
sS'advcl=testify'
p1596
I115
sS'w-2=Judy'
p1597
I3340
sS'w+2=clear'
p1598
I2067
sS'w-1=investor'
p1599
I2981
sS'nsubj=plane'
p1600
I1147
sS'w-2=professional'
p1601
I3837
sS'xcomp=demand'
p1602
I4102
sS'w+2=year'
p1603
I2633
sS'nsubj=bombardment'
p1604
I888
sS'w+2=liquid'
p1605
I2284
sS'w+2=mineral'
p1606
I2313
sS'w+2=emerge'
p1607
I2141
sS'w+2=1993'
p1608
I1870
sS'w-1=toddler'
p1609
I3174
sS'w-2=Panama'
p1610
I3382
sS'w-2=opinion'
p1611
I3783
sS'w+1=verify'
p1612
I1819
sS'advmod=which'
p1613
I213
sS'w+2=fulfill'
p1614
I2204
sS'w+2=1995'
p1615
I1872
sS'ccomp=wrap'
p1616
I294
sS'w+1=explore'
p1617
I1584
sS'w-2=Europe'
p1618
I3311
sS'w-2=two-day'
p1619
I3974
sS'w-2=after'
p1620
I3450
sS'xcomp=believe'
p1621
I4043
sS'w+1=to'
p1622
I1800
sS'w-2=CBS'
p1623
I3280
sS'nsubj=expert'
p1624
I1001
sS'xcomp=change'
p1625
I4061
sS'ccomp=rise'
p1626
I273
sS'nsubj=ascent'
p1627
I869
sS'w+2=he'
p1628
I2221
sS'w+2=another'
p1629
I2018
sS'w-1=lab'
p1630
I2988
sS'w+1=climb'
p1631
I1514
sS'nsubj=event'
p1632
I993
sS'nsubj=conference'
p1633
I932
sS'w-2=monkey'
p1634
I3743
sS'dobj=phase'
p1635
I574
sS'xcomp=extract'
p1636
I4141
sS'w+1=immediate'
p1637
I1619
sS'w-2=Shinawatra'
p1638
I3401
sS'xcomp=deport'
p1639
I4106
sS'advmod=barely'
p1640
I142
sS'xcomp=draft'
p1641
I4121
sS'w+2=California'
p1642
I1909
sS'ccomp=start'
p1643
I281
sS'xcomp=regard'
p1644
I4279
sS'w-2=right'
p1645
I3875
sS'advmod=first'
p1646
I153
sS'xcomp=rule'
p1647
I4300
sS'dobj=rise'
p1648
I600
sS'w-1=trial'
p1649
I3185
sS'w+2=supplies'
p1650
I2535
sS'w+2=piano'
p1651
I2378
sS'dobj=case'
p1652
I484
sS'w+1=construction'
p1653
I1526
sS'w-1=composition'
p1654
I2878
sS'xcomp=retire'
p1655
I4293
sS'advcl=need'
p1656
I70
sS'w-2=contest'
p1657
I3549
sS'w+2=September'
p1658
I1965
sS'w+2=April'
p1659
I1902
sS'w-2=mideast'
p1660
I3734
sS'xcomp=fire'
p1661
I4154
sS'w-2=first'
p1662
I3631
sS'w+2=tour'
p1663
I2570
sS'w+1=nine'
p1664
I1670
sS'w-2=proceedings'
p1665
I3834
sS'w+2=budget'
p1666
I2050
sS'w-2=ours'
p1667
I3790
sS'dobj=relation'
p1668
I595
sS'w-2=would'
p1669
I4012
sS'w-2=Obama'
p1670
I3376
sS'w-2=resident'
p1671
I3868
sS'w-2=link'
p1672
I3719
sS'dep=write'
p1673
I459
sS'w-2=work'
p1674
I4008
sS'advmod=shortly'
p1675
I196
sS'w-2=global'
p1676
I3647
sS'ccomp=detainee'
p1677
I241
sS'xcomp=repair'
p1678
I4285
sS'w-2=devastate'
p1679
I3581
sS'w-1=change'
p1680
I2862
sS'xcomp=shout'
p1681
I4323
sS'conj=donate'
p1682
I321
sS'dep=Jocz'
p1683
I407
sS'w+2=sunrise'
p1684
I2534
sS'dobj=smoking'
p1685
I617
sS'w-1=media'
p1686
I3006
sS'w-2=Mother'
p1687
I3361
sS'w+2=Indonesia'
p1688
I1930
sS"w-1='ll"
p1689
I2636
sS'w-2=Prague'
p1690
I3386
sS'w+2=historic'
p1691
I2228
sS'xcomp=question'
p1692
I4263
sS'w+1=delineate'
p1693
I1544
sS'w+1=firing'
p1694
I1591
sS'w-1=Galofre'
p1695
I2698
sS'advmod=close'
p1696
I144
sS'tmod=#NUMBER#'
p1697
I1400
sS'w+2=its'
p1698
I2263
sS'ccomp=likely'
p1699
I256
sS'nsubj=player'
p1700
I1149
sS'tmod=day'
p1701
I1404
sS'dobj=outpost'
p1702
I567
sS'nsubj=deployment'
p1703
I965
sS'w+2=extract'
p1704
I2165
sS'nsubj=Hamas'
p1705
I739
sS'w-2=protest'
p1706
I3844
sS'w-1=UNMIK'
p1707
I2790
sS'w-1=militant'
p1708
I3010
sS'w+1=confirmation'
p1709
I1521
sS'w-1=count'
p1710
I2889
sS'xcomp=foster'
p1711
I4164
sS'w+2=extend'
p1712
I2163
sS'w+1=restore'
p1713
I1734
sS'w-1=training'
p1714
I3182
sS'w+2=massive'
p1715
I2298
sS'nsubj=superstar'
p1716
I1247
sS'w+2=exert'
p1717
I2159
sS'w-2=resolution'
p1718
I3871
sS'advmod=there'
p1719
I204
sS'w-1=Patrol'
p1720
I2755
sS'w-1=always'
p1721
I2814
sS'w-1=theatergoer'
p1722
I3164
sS'xcomp=gather'
p1723
I4169
sS'w+2=1976'
p1724
I1861
sS'w-2=agricultural'
p1725
I3457
sS'dobj=home'
p1726
I542
sS'xcomp=grow'
p1727
I4178
sS'w+2=1979'
p1728
I1862
sS'xcomp=assemble'
p1729
I4037
sS'w+2=delegate'
p1730
I2104
sS'w-2=Paul'
p1731
I3384
sS'w-2=christian'
p1732
I3522
sS'dep=line'
p1733
I430
sS'w+2=1998'
p1734
I1874
sS'w+2=1999'
p1735
I1875
sS'w-1=Jane'
p1736
I2726
sS'parataxis=there'
p1737
I1328
sS'w-2=Dr.'
p1738
I3302
sS'w+1=less'
p1739
I1645
sS'advcl=indicate'
p1740
I59
sS'w+2=1991'
p1741
I1869
sS'nsubj=decision'
p1742
I960
sS'w+2=1994'
p1743
I1871
sS'nsubj=States'
p1744
I820
sS'w+2=1996'
p1745
I1873
sS'w-2=China'
p1746
I3285
sS'w+1=rehabilitate'
p1747
I1724
sS'dobj=singing'
p1748
I615
sS'nsubj=effect'
p1749
I986
sS'nsubj=monitoring'
p1750
I1095
sS'nsubj=Fed'
p1751
I729
sS'w-2=property'
p1752
I3841
sS'w-2=preliminary'
p1753
I3823
sS'nsubj=toddler'
p1754
I1265
sS'nsubj=ordeal'
p1755
I1117
sS'w-2=blue-water'
p1756
I3497
sS'xcomp=release'
p1757
I4281
sS'w-2=plan'
p1758
I3811
sS'w+2=seventh'
p1759
I2476
sS'w-1=dialogue'
p1760
I2907
sS'w-1=the'
p1761
I3163
sS'w+1=November'
p1762
I1441
sS'w-2=conglomerate'
p1763
I3546
sS'w-2=expectation'
p1764
I3615
sS'w-1=result'
p1765
I3113
sS'xcomp=correct'
p1766
I4086
sS'w-1=barely'
p1767
I2830
sS'w-2=day'
p1768
I3569
sS'conj=address'
p1769
I300
sS'w+2=object'
p1770
I2340
sS'w-2=National'
p1771
I3370
sS'xcomp=employ'
p1772
I4128
sS'conj=put'
p1773
I366
sS'w-2=mosque'
p1774
I3747
sS'w+2=fuel'
p1775
I2203
sS'w+2=scatter'
p1776
I2456
sS'prep=because'
p1777
I1361
sS'w+1=sell'
p1778
I1750
sS'w+2=down'
p1779
I2123
sS'dobj=struggle'
p1780
I621
sS'w-2=strident'
p1781
I3930
sS'conj=operational'
p1782
I359
sS'w-2=woman'
p1783
I4006
sS'prep=toward'
p1784
I1389
sS'dobj=reign'
p1785
I594
sS'w+2=lengthy'
p1786
I2280
sS'w+2=normal'
p1787
I2336
sS'w-1=outage'
p1788
I3050
sS'conj=transport'
p1789
I387
sS'w-1=Schubert'
p1790
I2770
sS'w-1=astronaut'
p1791
I2825
sS'nsubj=Ababa'
p1792
I674
sS'nsubj=abuse'
p1793
I847
sS'nsubj=EU'
p1794
I720
sS'xcomp=raise'
p1795
I4264
sS'w+2=January'
p1796
I1936
sS'xcomp=cleanse'
p1797
I4069
sS'nsubj=North'
p1798
I785
sS'conj=continue'
p1799
I312
sS'prep=chair'
p1800
I1366
sS'dobj=contact'
p1801
I493
sS'w-2=West'
p1802
I3434
sS'w-1=Academy'
p1803
I2649
sS'w-1=ceremony'
p1804
I2860
sS'nsubj=datum'
p1805
I955
sS'xcomp=receive'
p1806
I4271
sS'xcomp=prepare'
p1807
I4249
sS'w-1=history'
p1808
I2966
sS'w-1=market'
p1809
I2999
sS'w+2=1906'
p1810
I1857
sS'dobj=recession'
p1811
I590
sS'w-2=conflict'
p1812
I3545
sS'w+1=evacuate'
p1813
I1580
sS'xcomp=trust'
p1814
I4369
sS'w+2=earnest'
p1815
I2131
sS'xcomp=try'
p1816
I4370
sS'w-1=exchange'
p1817
I2921
sS'nsubj=consortium'
p1818
I935
sS'w-2=story'
p1819
I3926
sS'xcomp=airlift'
p1820
I4027
sS'w-2=gas'
p1821
I3644
sS'w-2=restoration'
p1822
I3872
sS'advcl=change'
p1823
I20
sS'xcomp=reduce'
p1824
I4278
sS'w+2=month'
p1825
I2316
sS'nsubj=trader'
p1826
I1269
sS'nsubj=tribunal'
p1827
I1278
sS'nsubj=ceasefire'
p1828
I906
sS'nsubj=era'
p1829
I992
sS'w+1=jump'
p1830
I1635
sS'xcomp=improve'
p1831
I4187
sS'nsubj=Democrats'
p1832
I718
sS'w-1=debate'
p1833
I2902
sS'w-2=nominating'
p1834
I3760
sS'w-1=slowly'
p1835
I3136
sS'nsubj=breastfeeding'
p1836
I895
sS'aux=to'
p1837
I226
sS'w+2=trouble'
p1838
I2582
sS'w-1=practice'
p1839
I3076
sS'nsubj=Sarkozy'
p1840
I807
sS'w-2=Kremlin'
p1841
I3348
sS'nsubj=Convention'
p1842
I711
sS'w+1=here'
p1843
I1614
sS'w-2=Depression'
p1844
I3301
sS'advcl=set'
p1845
I101
sS'w+1=present'
p1846
I1701
sS'w+2=Humboldt'
p1847
I1927
sS'w+2=some'
p1848
I2506
sS'nsubj=official'
p1849
I1112
sS'dobj=step'
p1850
I619
sS'w-2=York'
p1851
I3435
sS'w-1=Nazis'
p1852
I2745
sS'w-1=Rally'
p1853
I2763
sS'xcomp=cater'
p1854
I4058
sS'advcl=see'
p1855
I97
sS'w-1=settlement'
p1856
I3126
sS'w+2=kindergarten'
p1857
I2266
sS'advmod=early'
p1858
I147
sS'nsubj=festival'
p1859
I1012
sS'w-2=Verde'
p1860
I3427
sS'w+2=go'
p1861
I2210
sS'w+1=open'
p1862
I1679
sS'nsubj=ring'
p1863
I1203
sS'xcomp=scout'
p1864
I4306
sS'w+2=enforce'
p1865
I2146
sS'nsubj=dialogue'
p1866
I967
sS'xcomp=disrupt'
p1867
I4114
sS'cc=but'
p1868
I231
sS'nsubj=victim'
p1869
I1292
sS'w-2=20,000-strong'
p1870
I3246
sS'w+2=lead'
p1871
I2276
sS'w-1=story'
p1872
I3149
sS'w-1=Simonyi'
p1873
I2776
sS'w-1=cease-fire'
p1874
I2857
sS'nsubj=Abbey'
p1875
I676
sS'w-1=Indonesia'
p1876
I2719
sS'w+2=fill'
p1877
I2178
sS'w+1=gather'
p1878
I1603
sS'xcomp=count'
p1879
I4088
sS'w-1=who'
p1880
I3214
sS'xcomp=make'
p1881
I4209
sS'dobj=conversation'
p1882
I494
sS'xcomp=extend'
p1883
I4140
sS'advcl=juggle'
p1884
I61
sS'xcomp=stumble'
p1885
I4344
sS'xcomp=clear'
p1886
I4070
sS'w-1=sharply'
p1887
I3128
sS'nsubj=African-Americans'
p1888
I683
sS'xcomp=consult'
p1889
I4082
sS'w-2=already'
p1890
I3467
sS'w+2=Oslo'
p1891
I1958
sS'nsubj=passenger'
p1892
I1133
sS'nsubj=contest'
p1893
I937
sS'w+2=scholarship'
p1894
I2457
sS'xcomp=clean'
p1895
I4068
sS'w-2=ASEM'
p1896
I3256
sS'w-1=Ababa'
p1897
I2647
sS'w-2=begin'
p1898
I3493
sS'w-1=war'
p1899
I3207
sS'w+2=Sudan'
p1900
I1971
sS'w+1=come'
p1901
I1518
sS'w+1=dramatically'
p1902
I1566
sS'w+2=seize'
p1903
I2467
sS'w-1=willimmediately'
p1904
I3216
sS'w-2=set'
p1905
I3895
sS'xcomp=recruit'
p1906
I4276
sS'nsubj=protection'
p1907
I1168
sS'w+1=contribute'
p1908
I1529
sS'w-1=cell'
p1909
I2859
sS'dobj=performance'
p1910
I571
sS'w+2=which'
p1911
I2620
sS'w+1=rebuild'
p1912
I1719
sS'w-1=region'
p1913
I3104
sS'w-1=year'
p1914
I3227
sS'dobj=business'
p1915
I479
sS'w+2=250'
p1916
I1888
sS"w+1=''"
p1917
I1419
sS'nsubj=zone'
p1918
I1321
sS'w-2=demand'
p1919
I3577
sS'w-1=.'
p1920
I2641
sS'nsubj=Ethiopians'
p1921
I726
sS'w+2=help'
p1922
I2226
sS'nsubj=decline'
p1923
I961
sS'advcl=end'
p1924
I36
sS'w+2=package'
p1925
I2364
sS'w-2=of'
p1926
I3769
sS'xcomp=transport'
p1927
I4366
sS'w-2=wife'
p1928
I4001
sS'w-1=largely'
p1929
I2989
sS'nsubj=bank'
p1930
I880
sS'w+1=question'
p1931
I1715
sS'xcomp=select'
p1932
I4311
sS'nsubj=man'
p1933
I1079
sS'nsubj=resident'
p1934
I1198
sS'w-1=2002'
p1935
I2644
sS'w+2=much-needed'
p1936
I2322
sS'csubj=round'
p1937
I403
sS'w+1=go'
p1938
I1605
sS'nsubj=which'
p1939
I1309
sS'w-1=he'
p1940
I2963
sS'w-1=Inggriani'
p1941
I2720
sS'conj=eliminate'
p1942
I322
sS'w-2=Campaign'
p1943
I3282
sS'conj=take'
p1944
I383
sS'nsubj=disappointment'
p1945
I970
sS'w-2=Program'
p1946
I3388
sS'xcomp=urge'
p1947
I4376
sS'nsubj=Manufacturing'
p1948
I769
sS'w+2=accelerate'
p1949
I1989
sS'w+2=key'
p1950
I2265
sS'advmod=apparently'
p1951
I139
sS'w+2=and'
p1952
I2015
sS'w+2=Watch'
p1953
I1984
sS'advmod=recently'
p1954
I193
sS'w-1=fan'
p1955
I2928
sS'dobj=decade'
p1956
I506
sS'w-2=2008'
p1957
I3248
sS'w+2=set'
p1958
I2474
sS'nsubj=shutdown'
p1959
I1224
sS'w+1=force'
p1960
I1597
sS'w+1=service'
p1961
I1755
sS'advmod=willimmediately'
p1962
I215
sS'w-2=six-nation'
p1963
I3908
sS'w+1=warn'
p1964
I1824
sS'w+2=Kenya'
p1965
I1939
sS'w+1=warm'
p1966
I1823
sS'w-1=drama'
p1967
I2909
sS'nsubj=manufacturer'
p1968
I1080
sS'w-2=Ocean'
p1969
I3377
sS'w+2=Sydney'
p1970
I1975
sS'w-2=due'
p1971
I3594
sS'w-2=mobilization'
p1972
I3741
sS'nsubj=Galloway'
p1973
I732
sS'advcl=bring'
p1974
I18
sS'xcomp=recede'
p1975
I4270
sS'w-1=Sheridan'
p1976
I2773
sS'nsubj=FNL'
p1977
I727
sS'w-2=special'
p1978
I3920
sS'w-2=three-month'
p1979
I3956
sS'w+2=up'
p1980
I2592
sS'w-1=Gaza'
p1981
I2700
sS'w-2=Vietnam'
p1982
I3429
sS'nsubj=negotiator'
p1983
I1103
sS'ccomp=pro-american'
p1984
I266
sS'nsubj=guard'
p1985
I1038
sS'w-2=also'
p1986
I3468
sS'w-2=could'
p1987
I3553
sS'nsubj=mosque'
p1988
I1098
sS'w+1=reach'
p1989
I1718
sS'advcl=accuse'
p1990
I1
sS'w-2=large'
p1991
I3705
sS'w+2=inter-agency'
p1992
I2253
sS'w-1=barrel'
p1993
I2831
sS'w+1=correspond'
p1994
I1533
sS'w-1=bipedalism'
p1995
I2835
sS'w+2=later'
p1996
I2273
sS'w+2=confirm'
p1997
I2081
sS'w+1=while'
p1998
I1830
sS'w-1=Japan'
p1999
I2727
sS'xcomp=realize'
p2000
I4267
sS'prep=across'
p2001
I1353
sS'xcomp=speculate'
p2002
I4335
sS'pobj=year'
p2003
I1351
sS'w-2=vote-counting'
p2004
I3986
sS'w+2=patch'
p2005
I2369
sS'w-1=Hamas'
p2006
I2709
sS'w+2=troops'
p2007
I2581
sS'w+2=Somalia'
p2008
I1968
sS'w+1=February'
p2009
I1434
sS'dep=there'
p2010
I449
sS'nsubj=Court'
p2011
I712
sS'w-2=new'
p2012
I3757
sS'w+1=collect'
p2013
I1517
sS'w-2=project'
p2014
I3839
sS'w-2=100'
p2015
I3240
sS'w+1=with'
p2016
I1832
sS'w-2=goal'
p2017
I3649
sS'w-1=program'
p2018
I3085
sS'w+1=late'
p2019
I1641
sS'w-1=counting'
p2020
I2890
sS'dobj=house'
p2021
I544
sS'w-2=economic'
p2022
I3599
sS'w-2=siege'
p2023
I3904
sS'nsubj=professional'
p2024
I1164
sS'nsubj=cell'
p2025
I907
sS'w+2=face'
p2026
I2166
sS'w-2=european'
p2027
I3609
sS'w-1=agency'
p2028
I2807
sS'w-1=Cuba'
p2029
I2680
sS'w-2=,'
p2030
I3235
sS'conj=include'
p2031
I343
sS'w-2=.'
p2032
I3238
sS'nsubj=austerity'
p2033
I877
sS'w+2=Iraq'
p2034
I1932
sS"w-2='"
p2035
I3232
sS'aux=have'
p2036
I222
sS'w-1=amnesia'
p2037
I2816
sS'w+2=tackle'
p2038
I2540
sS'w-1=rioting'
p2039
I3116
sS'w-2=prepare'
p2040
I3824
sS'w+1=return'
p2041
I1736
sS'w-2=:'
p2042
I3255
sS'w+1=do'
p2043
I1563
sS'w+2=explore'
p2044
I2162
sS'w+2=therapy'
p2045
I2551
sS'w-2=Daisy'
p2046
I3297
sS'dobj=visit'
p2047
I646
sS'nsubj=Committee'
p2048
I708
sS'advmod=afterward'
p2049
I129
sS'xcomp=sell'
p2050
I4312
sS'nsubj=officer'
p2051
I1111
sS'w-2=decision'
p2052
I3573
sS'csubj=write'
p2053
I405
sS'w+1=pound'
p2054
I1695
sS'w+2=speculate'
p2055
I2512
sS'w+2=mean'
p2056
I2301
sS'w+2=Wednesday'
p2057
I1985
sS'conj=help'
p2058
I340
sS'w+2=1980'
p2059
I1863
sS'w+2=1986'
p2060
I1866
sS'w+2=1985'
p2061
I1865
sS'w+2=1984'
p2062
I1864
sS'w-2=log'
p2063
I3720
sS'w-2=m'
p2064
I3724
sS'conj=depict'
p2065
I317
sS'w+2=Friday'
p2066
I1922
sS'nsubj=Galofre'
p2067
I733
sS'w+1=sometime'
p2068
I1771
sS'w+2=turn'
p2069
I2585
sS'nsubj=action'
p2070
I848
sS'w-1=process'
p2071
I3083
sS'w-2=Hugo'
p2072
I3327
sS'w+2=check'
p2073
I2064
sS'nsubj=bar'
p2074
I881
sS'w+2=de-mining'
p2075
I2100
sS'w-1=volunteer'
p2076
I3204
sS'dobj=deployment'
p2077
I509
sS'w-2=Beijing'
p2078
I3273
sS'w+2=successful'
p2079
I2532
sS'nsubj=verification'
p2080
I1291
sS'w+2=police'
p2081
I2384
sS'dep=unprecedented'
p2082
I453
sS'w+2=program'
p2083
I2394
sS'w-2=colonize'
p2084
I3532
sS'w-2=Salehi'
p2085
I3398
sS'w+2=crucial'
p2086
I2095
sS'w+2=place'
p2087
I2379
sS'advcl=clash'
p2088
I22
sS'dobj=harvest'
p2089
I540
sS'w-1=Motors'
p2090
I2741
sS'xcomp=assist'
p2091
I4039
sS'dobj=sandwich'
p2092
I607
sS'nsubj=trophy'
p2093
I1281
sS'pobj=#DATE#'
p2094
I1347
sS'xcomp=focus'
p2095
I4159
sS'w+2=Prague'
p2096
I1960
sS'w-2=bank'
p2097
I3488
sS'w-1=flood'
p2098
I2940
sS'dep=panic'
p2099
I438
sS'nsubj=water'
p2100
I1304
sS'nsubj=plan'
p2101
I1146
sS'w+2=shout'
p2102
I2490
sS'xcomp=invest'
p2103
I4194
sS'w-2=resignation'
p2104
I3869
sS'w+2=stumble'
p2105
I2528
sS'w+2=amateur'
p2106
I2011
sS'nsubj=other'
p2107
I1120
sS'nsubj=production'
p2108
I1163
sS'dobj=distribution'
p2109
I516
sS'purpcl=enact'
p2110
I1396
sS'nsubj=play'
p2111
I1148
sS'xcomp=sing'
p2112
I4328
sS'xcomp=shrink'
p2113
I4325
sS'w+2=recite'
p2114
I2412
sS'w+2=sequence'
p2115
I2471
sS'nsubj=Trust'
p2116
I831
sS'w-1=demonstrator'
p2117
I2905
sS'w+2=hostage'
p2118
I2232
sS'xcomp=vote'
p2119
I4383
sS'nsubj=strike'
p2120
I1240
sS'w-1=now'
p2121
I3027
sS'w+2=wash'
p2122
I2606
sS'w+1=high-level'
p2123
I1615
sS'nsubj=Sirleaf'
p2124
I818
sS'nsubj=Hassan'
p2125
I741
sS'w-2=drive'
p2126
I3593
sS'w-2=Blackwater'
p2127
I3275
sS'nsubj=Africa'
p2128
I682
sS'w-2=yet'
p2129
I4014
sS'xcomp=slip'
p2130
I4331
sS'xcomp=send'
p2131
I4313
sS'w-1=shakeup'
p2132
I3127
sS'w+1=amid'
p2133
I1464
sS'w+2=systematic'
p2134
I2539
sS'w+1=discuss'
p2135
I1558
sS'w-2=attack'
p2136
I3484
sS'mark=since'
p2137
I665
sS'xcomp=voice'
p2138
I4381
sS'w+2=consult'
p2139
I2083
sS'nsubj=conflict'
p2140
I933
sS'w-1=even'
p2141
I2917
sS'w+2=romance'
p2142
I2446
sS'w-1=Mugabe'
p2143
I2742
sS'w-1=monitoring'
p2144
I3015
sS'dobj=recess'
p2145
I589
sS'nsubj=influx'
p2146
I1053
sS'w-2=Foundation'
p2147
I3317
sS'w-2=hat'
p2148
I3661
sS'w+2=voting'
p2149
I2603
sS'w+1=when'
p2150
I1829
sS'xcomp=prevent'
p2151
I4252
sS'w+1=withdraw'
p2152
I1833
sS'nsubj=department'
p2153
I964
sS'conj=engage'
p2154
I324
sS'w+1=recruit'
p2155
I1721
sS'w+2=examine'
p2156
I2157
sS'nsubj=push'
p2157
I1173
sS'nsubj=neighbor'
p2158
I1104
sS'advmod=slowly'
p2159
I197
sS'w+2=deploy'
p2160
I2106
sS'nsubj=democracy'
p2161
I963
sS'nsubj=convention'
p2162
I940
sS'pcomp=from'
p2163
I1343
sS'w+2=Mr.'
p2164
I1951
sS'dobj=presidency'
p2165
I580
sS'w+2=closely'
p2166
I2070
sS'w-1=officially'
p2167
I3034
sS'w-2=Iowa'
p2168
I3332
sS'tmod=week'
p2169
I1416
sS'w+1=,'
p2170
I1420
sS'nsubj=Teresa'
p2171
I829
sS'w+2=eight-day'
p2172
I2136
sS'w-1=old'
p2173
I3037
sS'dep=after'
p2174
I410
sS'w+2=Swat'
p2175
I1974
sS'w-1=Chavez'
p2176
I2671
sS'w+1=tackle'
p2177
I1782
sS'w+1=:'
p2178
I1430
sS'advcl=after'
p2179
I3
sS'w+1=debate'
p2180
I1540
sS'w+2=recognize'
p2181
I2413
sS'w+1=track'
p2182
I1803
sS'w+1=announce'
p2183
I1468
sS'w+2=cater'
p2184
I2061
sS'xcomp=diversify'
p2185
I4116
sS'w+1=pull'
p2186
I1711
sS'conj=figure'
p2187
I332
sS'w-1=Indians'
p2188
I2718
sS'w-1=Hassan'
p2189
I2711
sS'w+2=operate'
p2190
I2354
sS'w-1=capital'
p2191
I2853
sS'w-2=nigerian'
p2192
I3758
sS'w-1=have'
p2193
I2962
sS'w-1=Adams'
p2194
I2650
sS'w-1=today'
p2195
I3173
sS'w+2=late-saturday'
p2196
I2272
sS'nsubj=pharaoh'
p2197
I1140
sS'mark=with'
p2198
I669
sS'w+2=choreograph'
p2199
I2066
sS'conj=start'
p2200
I380
sS'w+1=a'
p2201
I1454
sS'nsubj=treatment'
p2202
I1275
sS'w+2=inquiry'
p2203
I2251
sS'nsubj=Society'
p2204
I819
sS'dep=night'
p2205
I434
sS'xcomp=see'
p2206
I4308
sS'advmod=reportedly'
p2207
I194
sS'advmod=primarily'
p2208
I190
sS'w-2=because'
p2209
I3491
sS'conj=rescue'
p2210
I369
sS'w-1=that'
p2211
I3162
sS'w-1=business'
p2212
I2846
sS'nsubj=System'
p2213
I825
sS'nsubj=investor'
p2214
I1060
sS'w-1=Vietnam'
p2215
I2792
sS'w+1=meet'
p2216
I1656
sS'w-1=relief'
p2217
I3107
sS'w-2=democratically-elected'
p2218
I3579
sS'nsubj=Sydney'
p2219
I822
sS'w-2=Taiwan'
p2220
I3413
sS'nsubj=Ban'
p2221
I692
sS'w-1=competition'
p2222
I2877
sS'w-2=Gate'
p2223
I3318
sS'nsubj=refugee'
p2224
I1186
sS'w-2=investigation'
p2225
I3693
sS'w+2=long-awaited'
p2226
I2288
sS'w+2=2010'
p2227
I1883
sS'w-2=administration'
p2228
I3447
sS'w-2=people'
p2229
I3807
sS'advmod=lower'
p2230
I171
sS'w+2=birth'
p2231
I2041
sS'w+2=Nahr'
p2232
I1953
sS'nsubj=Shell'
p2233
I813
sS'w-1=offensive'
p2234
I3031
sS'conj=lose'
p2235
I355
sS'nsubj=relief'
p2236
I1191
sS'w-2=trial'
p2237
I3967
sS'nsubj=offensive'
p2238
I1110
sS'nsubj=child'
p2239
I912
sS'xcomp=deny'
p2240
I4104
sS'w+1=ration'
p2241
I1717
sS'nsubj=vote-counting'
p2242
I1300
sS'xcomp=use'
p2243
I4377
sS'xcomp=consider'
p2244
I4079
sS'xcomp=treat'
p2245
I4368
sS'advcl=reinstate'
p2246
I87
sS'w-2=mediterranean'
p2247
I3731
sS'w-2=site'
p2248
I3907
sS'w-2=bloody'
p2249
I3496
sS'nsubj=riot'
p2250
I1204
sS'w+2=short'
p2251
I2488
sS'w-2=will'
p2252
I4002
sS'nsubj=Rally'
p2253
I799
sS'tmod=break'
p2254
I1403
sS'w-2=8'
p2255
I3253
sS'dobj=group'
p2256
I537
sS'conj=intensify'
p2257
I347
sS'w+2=withdrawal'
p2258
I2626
sS'xcomp=end'
p2259
I4129
sS'w-1=normally'
p2260
I3025
sS'nsubj=pandemic'
p2261
I1128
sS'ccomp=impact'
p2262
I249
sS'w-1=cartilage'
p2263
I2855
sS'nsubj=council'
p2264
I942
sS'w-2=more'
p2265
I3746
sS'w-2=volunteer'
p2266
I3984
sS'w+1=roll'
p2267
I1739
sS'w+2=monthly'
p2268
I2317
sS'w-1=team'
p2269
I3160
sS'w-2=troops'
p2270
I3971
sS'w+1=these'
p2271
I1792
sS'w+2=translate'
p2272
I2575
sS'w+1=only'
p2273
I1678
sS'dobj=meeting'
p2274
I555
sS'w-2=schooling'
p2275
I3886
sS'w+2=well'
p2276
I2615
sS'nsubj=Young'
p2277
I843
sS'w-2=Justice'
p2278
I3341
sS'w+1=outside'
p2279
I1683
sS'nsubj=counting'
p2280
I944
sS'w+2=melt'
p2281
I2304
sS'dobj=orbit'
p2282
I565
sS'nsubj=Elvis'
p2283
I723
sS'w-1=adoption'
p2284
I2803
sS'dobj=observance'
p2285
I562
sS'nsubj=proposal'
p2286
I1167
sS'tmod=December'
p2287
I1401
sS'w-2=need'
p2288
I3754
sS'w-2=country'
p2289
I3556
sS'advcl=descend'
p2290
I29
sS'w+2=countdown'
p2291
I2089
sS'w+1=program'
p2292
I1705
sS'advcl=topple'
p2293
I116
sS'w-2=to'
p2294
I3959
sS'w+2=scientist'
p2295
I2459
sS'dobj=trip'
p2296
I642
sS'w-2=power'
p2297
I3822
sS'w+2=through'
p2298
I2561
sS'w-2=rebuilding'
p2299
I3857
sS'w+2=25-year-long'
p2300
I1887
sS'w+2=emergency'
p2301
I2142
sS'dobj=talk'
p2302
I624
sS'w-1=ambition'
p2303
I2815
sS'dobj=breast-feeding'
p2304
I478
sS'w-2=freeze'
p2305
I3640
sS'w-1=investigation'
p2306
I2980
sS'advcl=take'
p2307
I114
sS'advcl=fire'
p2308
I42
sS'w+2=country'
p2309
I2090
sS'conj=conclude'
p2310
I311
sS'xcomp=crowd'
p2311
I4090
sS'w+1=larger'
p2312
I1638
sS'tmod=morning'
p2313
I1409
sS'w+2=to'
p2314
I2566
sS'w-1=breastfeed'
p2315
I2843
sS'w-1=conflict'
p2316
I2880
sS'csubj=settle'
p2317
I404
sS'w-1=student'
p2318
I3151
sS'w+1=sing'
p2319
I1766
sS'w-1=art'
p2320
I2821
sS'w-2=market'
p2321
I3727
sS'w-2=firefight'
p2322
I3629
sS'xcomp=shift'
p2323
I4320
sS'w-1=happen'
p2324
I2961
sS'w+1=pump'
p2325
I1712
sS'w-1=Islamists'
p2326
I2724
sS'w+2=broaden'
p2327
I2049
sS'w-1=Congress'
p2328
I2676
sS'w-1=lawmaker'
p2329
I2990
sS'nsubj=change'
p2330
I911
sS'w-1=Darfur'
p2331
I2682
sS'nsubj=price'
p2332
I1159
sS'advcl=rule'
p2333
I93
sS'ccomp=go'
p2334
I247
sS'w-2=success'
p2335
I3933
sS'w-1=chemical'
p2336
I2864
sS'xcomp=overheat'
p2337
I4232
sS'advcl=bomb'
p2338
I17
sS'w+2=attack'
p2339
I2028
sS'w+2=who'
p2340
I2622
sS'w-1=Zimbabwe'
p2341
I2795
sS'w+2=criminal'
p2342
I2094
sS'advcl=enter'
p2343
I37
sS'xcomp=recognize'
p2344
I4273
sS'complm=that'
p2345
I295
sS'w+2=iraqi'
p2346
I2260
sS'w+2=weekend'
p2347
I2613
sS'nsubj=scientist'
p2348
I1211
sS'w-1=really'
p2349
I3100
sS'advcl=promise'
p2350
I80
sS'nsubj=bombing'
p2351
I889
sS'w+2=legal'
p2352
I2279
sS'nsubj=training'
p2353
I1273
sS'dobj=career'
p2354
I483
sS'w-2=strategy'
p2355
I3927
sS'w-1=Show'
p2356
I2774
sS'w+2=world'
p2357
I2631
sS'nsubj=selloff'
p2358
I1216
sS'w+2=become'
p2359
I2035
sS'dep=on'
p2360
I436
sS'w+1=five'
p2361
I1592
sS'w-1=occupant'
p2362
I3029
sS'w+2=President'
p2363
I1961
sS'nsubj=person'
p2364
I1139
sS'w+1=now'
p2365
I1673
sS'w+2=Serbia'
p2366
I1966
sS'partmod=steal'
p2367
I1340
sS'w+2=long'
p2368
I2287
sS'advmod=hopefully'
p2369
I159
sS'advcl=invade'
p2370
I60
sS'advcl=vote'
p2371
I121
sS'w+2=dialogue'
p2372
I2109
sS'nsubj=shortage'
p2373
I1223
sS'nsubj=Israel'
p2374
I755
sS'xcomp=warn'
p2375
I4386
sS'w-2=future'
p2376
I3643
sS'w-1=forward'
p2377
I2948
sS'advmod=quickly'
p2378
I191
sS'w+1=send'
p2379
I1751
sS'w-1=Voting'
p2380
I2793
sS'prep=in'
p2381
I1373
sS'advmod=forever'
p2382
I154
sS'conj=win'
p2383
I392
sS'w+2=rock'
p2384
I2444
sS'w-1=Hill'
p2385
I2713
sS'xcomp=unravel'
p2386
I4375
sS'nsubj=insurgency'
p2387
I1056
sS'w+2=consolidate'
p2388
I2082
sS'nsubj=love'
p2389
I1078
sS'w-2=Islamists'
p2390
I3336
sS'w+1=attack'
p2391
I1483
sS'w-1=city'
p2392
I2866
sS'w-2=kidnapping'
p2393
I3703
sS'advmod=yet'
p2394
I216
sS'xcomp=wonder'
p2395
I4392
sS'w-1=community'
p2396
I2875
sS'dobj=day'
p2397
I502
sS'xcomp=promote'
p2398
I4254
sS'w-2=round'
p2399
I3878
sS'w+1=grow'
p2400
I1608
sS'w-2=village'
p2401
I3982
sS'ccomp=tell'
p2402
I285
sS'w+2=until'
p2403
I2591
sS'w-1=passenger'
p2404
I3058
sS'advcl=transport'
p2405
I117
sS'w-1=Adua'
p2406
I2651
sS'w-1=Television'
p2407
I2784
sS'w+2=telephone'
p2408
I2545
sS'w-2=Mount'
p2409
I3362
sS'w-1=bank'
p2410
I2828
sS'conj=time'
p2411
I386
sS'nsubj=Bowl'
p2412
I697
sS'conj=spend'
p2413
I377
sS'w+1=look'
p2414
I1649
sS'w+2=shift'
p2415
I2484
sS'xcomp=calm'
p2416
I4056
sS'w+2=manufacturing'
p2417
I2296
sS'w+2=film'
p2418
I2179
sS'w-1=research'
p2419
I3111
sS'nsubj=gazan'
p2420
I1030
sS'xcomp=outsource'
p2421
I4231
sS'w-2=Yucatan'
p2422
I3436
sS'xcomp=charge'
p2423
I4064
sS'w+1=shout'
p2424
I1763
sS'dobj=rioting'
p2425
I599
sS'w+1=consideration'
p2426
I1524
sS'nsubj=Linda'
p2427
I765
sS'dobj=training'
p2428
I634
sS'w+1=take'
p2429
I1783
sS'w-2=government'
p2430
I3651
sS'w-1=candidate'
p2431
I2852
sS'w-1=Rice'
p2432
I2765
sS'dobj=encounter'
p2433
I525
sS'prep=amid'
p2434
I1357
sS'advcl=learn'
p2435
I65
sS'nsubj=reputation'
p2436
I1194
sS'xcomp=measure'
p2437
I4213
sS'w-1=India'
p2438
I2717
sS'w-1=Bowl'
p2439
I2664
sS'conj=choose'
p2440
I309
sS'w+2=bring'
p2441
I2047
sS'w-2=grip'
p2442
I3652
sS'w-1=shopper'
p2443
I3131
sS'ccomp=work'
p2444
I293
sS'w-1=icrc'
p2445
I2971
sS'w+1=receive'
p2446
I1720
sS'w-1=apparently'
p2447
I2819
sS'w+2=soon'
p2448
I2509
sS'nsubj=experience'
p2449
I1000
sS'nsubj=controversy'
p2450
I939
sS'w-1=Sirleaf'
p2451
I2777
sS'advcl=work'
p2452
I124
sS'w+2=distribution'
p2453
I2115
sS'mark=if'
p2454
I663
sS'nsubj=health'
p2455
I1041
sS'xcomp=look'
p2456
I4206
sS'w-2=envoy'
p2457
I3606
sS'w+2=almost'
p2458
I2009
sS'pcomp=with'
p2459
I1346
sS'w+2=murder'
p2460
I2323
sS'advcl=rise'
p2461
I92
sS'w-2=state'
p2462
I3924
sS'nsubj=recovery'
p2463
I1185
sS'w+1=import'
p2464
I1622
sS'nsubj=colonization'
p2465
I921
sS'nsubj=patron'
p2466
I1136
sS'w+2=day'
p2467
I2099
sS'w-2=record'
p2468
I3861
sS'w-2=they'
p2469
I3952
sS'w-2=make'
p2470
I3726
sS'advcl=protest'
p2471
I81
sS'xcomp=ease'
p2472
I4124
sS'w+2=120'
p2473
I1851
sS'xcomp=hope'
p2474
I4183
sS'w-2=instrument'
p2475
I3688
sS'nsubj=bone'
p2476
I890
sS'nsubj=Ann'
p2477
I687
sS'w+1=campaigning'
p2478
I1503
sS'ccomp=move'
p2479
I261
sS'w-2=Nargis'
p2480
I3369
sS'xcomp=take'
p2481
I4352
sS'nsubj=issue'
p2482
I1061
sS'nsubj=voting'
p2483
I1302
sS'w+2=discussion'
p2484
I2112
sS'w-1=Congo'
p2485
I2675
sS'ccomp=organize'
p2486
I264
sS'nsubj=truce'
p2487
I1283
sS'w-1=transition'
p2488
I3183
sS'w-2=or'
p2489
I3786
sS'prep=along'
p2490
I1356
sS'nsubj=who'
p2491
I1310
sS'w-1=decline'
p2492
I2903
sS'w+2=pump'
p2493
I2399
sS'w+2=difficult'
p2494
I2110
sS'advcl=fulfil'
p2495
I47
sS'w+1=construct'
p2496
I1525
sS'w+1=research'
p2497
I1731
sS'xcomp=parse'
p2498
I4235
sS'w+2=focus'
p2499
I2191
sS'nsubj=dream'
p2500
I981
sS'w-2=South'
p2501
I3403
sS'w-2=-'
p2502
I3236
sS'w-2=on'
p2503
I3778
sS'w-2=union'
p2504
I3977
sS'w-2=eat'
p2505
I3597
sS'w+2=fifth'
p2506
I2176
sS'w-2=name'
p2507
I3751
sS'nsubj=drought'
p2508
I983
sS'advmod=instead'
p2509
I165
sS'w-1=supporter'
p2510
I3156
sS'w+2=agitation'
p2511
I2003
sS'xcomp=pelt'
p2512
I4237
sS'nsubj=heart'
p2513
I1043
sS'nsubj=rehearsal'
p2514
I1187
sS'w-2=McCain'
p2515
I3356
sS'nsubj=party'
p2516
I1132
sS'prep=despite'
p2517
I1367
sS'nsubj=authority'
p2518
I878
sS'w+1=regular'
p2519
I1723
sS'xcomp=rehabilitate'
p2520
I4280
sS'advmod=again'
p2521
I130
sS'advcl=outline'
p2522
I75
sS'w-2=anticipation'
p2523
I3475
sS'nsubj=relay'
p2524
I1190
sS'advmod=#NUMBER#'
p2525
I126
sS'nsubj=Guinea'
p2526
I737
sS'w-2=but'
p2527
I3504
sS'dobj=negotiation'
p2528
I560
sS'w-1=actually'
p2529
I2799
sS'w-2=appoint'
p2530
I3478
sS'w-2=iftar'
p2531
I3677
sS'w-2=haj'
p2532
I3657
sS'ccomp=respect'
p2533
I272
sS'w-1=Revere'
p2534
I2764
sS'nsubj=scholar'
p2535
I1210
sS'w-2=U.S.'
p2536
I3422
sS'w-1=guerrilla'
p2537
I2960
sS'w-2=center'
p2538
I3518
sS'w+2=five-day'
p2539
I2185
sS'w+2=allow'
p2540
I2008
sS'w+2=doctor'
p2541
I2119
sS'advmod=however'
p2542
I161
sS'w-1=and'
p2543
I2817
sS'aux=must'
p2544
I224
sS'w+1=as'
p2545
I1477
sS'w+1=schedule'
p2546
I1743
sS'w+1=at'
p2547
I1482
sS'w+2=debate'
p2548
I2102
sS'dep=start'
p2549
I447
sS'nsubj=infrastructure'
p2550
I1054
sS'xcomp=produce'
p2551
I4253
sS'w-2=crisis'
p2552
I3562
sS'nsubj=House'
p2553
I744
sS'nsubj=meeting'
p2554
I1088
sS'nsubj=Grisman'
p2555
I736
sS'w+1=flow'
p2556
I1593
sS'xcomp=recite'
p2557
I4272
sS'w+2=so'
p2558
I2505
sS'xcomp=wash'
p2559
I4387
sS'w-2=itself'
p2560
I3697
sS'mark=for'
p2561
I662
sS'w-2=Thai'
p2562
I3415
sS'w-2=Tokyo'
p2563
I3419
sS'w-1=Gates'
p2564
I2699
sS'w-1=south'
p2565
I3145
sS'w-2=cease-fire'
p2566
I3516
sS'w-1=can'
p2567
I2851
sS'w-2=official'
p2568
I3774
sS'w+1=shoulder'
p2569
I1762
sS'w-1=Knowles'
p2570
I2731
sS'w-1=tribunal'
p2571
I3186
sS'w-2=from'
p2572
I3641
sS'w+1=target'
p2573
I1785
sS'w+2=case'
p2574
I2060
sS'w-2=approval'
p2575
I3479
sS'nsubj=black'
p2576
I884
sS'advmod=earlier'
p2577
I146
sS'nsubj=power'
p2578
I1154
sS'w-2=identify'
p2579
I3675
sS'ccomp=sign'
p2580
I280
sS'w+2=oxidize'
p2581
I2363
sS'w+1=chess'
p2582
I1510
sS'purpcl=avoid'
p2583
I1395
sS'conj=last'
p2584
I352
sS'xcomp=resolve'
p2585
I4289
sS'w-2=peace'
p2586
I3805
sS'w+2=search'
p2587
I2461
sS'xcomp=write'
p2588
I4395
sS'advmod=when'
p2589
I211
sS'w+2=dog'
p2590
I2121
sS'nsubj=Olmert'
p2591
I789
sS'w+2=condition'
p2592
I2080
sS'nsubj=season'
p2593
I1212
sS'w-1=convention'
p2594
I2886
sS'w-1=diplomacy'
p2595
I2908
sS'dobj=redeployment'
p2596
I591
sS'xcomp=emphasize'
p2597
I4127
sS'w-2=support'
p2598
I3935
sS'w-2=annual'
p2599
I3473
sS'w+2=Monday'
p2600
I1949
sS'xcomp=protect'
p2601
I4256
sS'w+2=age'
p2602
I2002
sS'xcomp=occupy'
p2603
I4224
sS'w-2=key'
p2604
I3702
sS'w-1=fighting'
p2605
I2935
sS'w+1=we'
p2606
I1825
sS'nsubj=Sheridan'
p2607
I814
sS'w+2=believe'
p2608
I2037
sS"w-1='s"
p2609
I2637
sS'w-1=Sudan'
p2610
I2781
sS'w+2=ago'
p2611
I2004
sS'w+2=oil'
p2612
I2348
sS'w+2=look'
p2613
I2289
sS'xcomp=stabilize'
p2614
I4339
sS'nsubj=Syria'
p2615
I823
sS'dobj=study'
p2616
I622
sS'w+1=intensively'
p2617
I1626
sS'w-2=early'
p2618
I3595
sS'nsubj=vaccine'
p2619
I1290
sS'w+1=most'
p2620
I1661
sS'w-2=defection'
p2621
I3575
sS'xcomp=jump'
p2622
I4197
sS'w-1=unrest'
p2623
I3194
sS'nsubj=Ramadan'
p2624
I800
sS'w+1=investigation'
p2625
I1631
sS'w+2=genuine'
p2626
I2207
sS'w-2=Crescent'
p2627
I3293
sS'advmod=initially'
p2628
I164
sS'w-2=shootdown'
p2629
I3901
sS'nsubj=pilgrim'
p2630
I1143
sS'auxpass=be'
p2631
I229
sS'w+2=incorporate'
p2632
I2248
sS'w-2=review'
p2633
I3873
sS'dobj=firing'
p2634
I533
sS'w-1=heart'
p2635
I2965
sS'w-2=meeting'
p2636
I3732
sS'w-1=Harare'
p2637
I2710
sS'xcomp=shell'
p2638
I4318
sS'w+1=promote'
p2639
I1706
sS'nsubj=crowd'
p2640
I953
sS'xcomp=switch'
p2641
I4350
sS'w-2=water'
p2642
I3990
sS'dobj=transmission'
p2643
I637
sS'w+2=fourth'
p2644
I2199
sS'w+2=five-year'
p2645
I2186
sS'advmod=officially'
p2646
I181
sS'w-2=quadrennial'
p2647
I3848
sS'nsubj=disarmament'
p2648
I971
sS'conj=dead'
p2649
I315
sS'nsubj=road'
p2650
I1206
sS'w+1=next'
p2651
I1669
sS'w-1=two'
p2652
I3193
sS'w+1=play'
p2653
I1693
sS'w+2=apart'
p2654
I2019
sS'w+1=there'
p2655
I1791
sS'advcl=struggle'
p2656
I110
sS'prep=follow'
p2657
I1369
sS'nsubj=trial'
p2658
I1276
sS'w-2=limb'
p2659
I3718
sS'nsubj=Johnson'
p2660
I758
sS'w+1=give'
p2661
I1604
sS'nsubj=#NUMBER#'
p2662
I671
sS'dobj=conference'
p2663
I488
sS'w+2=retaliation'
p2664
I2436
sS'nsubj=step'
p2665
I1237
sS'w-2=nuclear'
p2666
I3768
sS'xcomp=turn'
p2667
I4371
sS'w+2=study'
p2668
I2527
sS'w+2=think'
p2669
I2554
sS'xcomp=shake'
p2670
I4316
sS'w-2=Syria'
p2671
I3411
sS'w+1=its'
p2672
I1634
sS'xcomp=declare'
p2673
I4098
sS'w-2=financial'
p2674
I3628
sS'w-2=neighbor'
p2675
I3756
sS'w-1=clash'
p2676
I2867
sS'nsubj=Cambodia'
p2677
I701
sS'w-2=floor'
p2678
I3634
sS'xcomp=challenge'
p2679
I4060
sS"w-1=''"
p2680
I2635
sS'xcomp=rent'
p2681
I4284
sS'w-1=strike'
p2682
I3150
sS'xcomp=work'
p2683
I4393
sS'w-2=Historic'
p2684
I3325
sS'w-2=foundation'
p2685
I3639
sS'w-2=Balkans'
p2686
I3271
sS'dobj=dictionary'
p2687
I511
sS'w-2=timetable'
p2688
I3958
sS'dobj=exercise'
p2689
I529
sS'w-1=1998and'
p2690
I2642
sS'tmod=night'
p2691
I1410
sS'w-1=Johnson'
p2692
I2728
sS'w-2=place'
p2693
I3810
sS'nsubj=ship'
p2694
I1221
sS'w+2=habit'
p2695
I2219
sS'w+2=though'
p2696
I2557
sS'w-2=Amenophis'
p2697
I3264
sS'xcomp=show'
p2698
I4324
sS'w-2=off'
p2699
I3770
sS'w-2=Pakistan'
p2700
I3381
sS'w-1=Phoenix'
p2701
I2756
sS'nsubj=airport'
p2702
I861
sS'w+2=song'
p2703
I2508
sS'w-1=campaigning'
p2704
I2850
sS'w+1=provide'
p2705
I1709
sS"w-2=''"
p2706
I3233
sS'w+2=yen'
p2707
I2634
sS'nsubj=this'
p2708
I1260
sS'dep=acknowledge'
p2709
I409
sS'nsubj=clearing'
p2710
I917
sS'dep=unhcr'
p2711
I452
sS'w+2=March'
p2712
I1945
sS'xcomp=escalate'
p2713
I4133
sS'nsubj=fighting'
p2714
I1014
sS'w-1=Golan'
p2715
I2704
sS'w-2=stress'
p2716
I3929
sS'dep=measure'
p2717
I432
sS'w-1=glory'
p2718
I2954
sS'w+2=separatist'
p2719
I2470
sS'w+2=make'
p2720
I2293
sS'conj=worry'
p2721
I394
sS'xcomp=say'
p2722
I4303
sS'w-1=Afghanistan'
p2723
I2652
sS'w+1=drift'
p2724
I1568
sS'dobj=move'
p2725
I559
sS'conj=have'
p2726
I339
sS'w-1=Olympics'
p2727
I2753
sS'w-1=department'
p2728
I2906
sS'nsubj=Intifada'
p2729
I749
sS'w+2=sink'
p2730
I2496
sS'w+2=win'
p2731
I2623
sS'w+2=grow'
p2732
I2217
sS'w-2=pandemic'
p2733
I3795
sS'w+1=preliminary'
p2734
I1698
sS'advcl=become'
p2735
I14
sS'w-2=there'
p2736
I3950
sS'w-1=snow'
p2737
I3139
sS'w+2=forget'
p2738
I2195
sS'w-2=then'
p2739
I3949
sS'w+2=final'
p2740
I2180
sS'xcomp=chase'
p2741
I4065
sS'w-2=Addis'
p2742
I3258
sS'nsubj=Taiwan'
p2743
I826
sS'csubj=brave'
p2744
I395
sS'tmod=weekend'
p2745
I1417
sS'w-2=hand'
p2746
I3658
sS'w+2=searing'
p2747
I2462
sS'dobj=address'
p2748
I470
sS'w-1=effort'
p2749
I2914
sS'w+2=Madagascar'
p2750
I1944
sS'w+2=Utan'
p2751
I1982
sS'advcl=have'
p2752
I52
sS'w+2=replace'
p2753
I2430
sS'w-2=safe'
p2754
I3880
sS'xcomp=roll'
p2755
I4298
sS'advcl=collapse'
p2756
I23
sS'w+1=singing'
p2757
I1767
sS'w-1=flame'
p2758
I2939
sS'nsubj=operation'
p2759
I1115
sS'xcomp=grasp'
p2760
I4176
sS'w-1=by'
p2761
I2848
sS'nsubj=direction'
p2762
I969
sS'nsubj=raider'
p2763
I1177
sS'w-1=contender'
p2764
I2883
sS'w+2=stage'
p2765
I2520
sS'w+1=rise'
p2766
I1738
sS'w+1=clean'
p2767
I1512
sS'xcomp=repatriate'
p2768
I4286
sS'w+2=follow'
p2769
I2192
sS'w-1=volcano'
p2770
I3203
sS'w-1=movement'
p2771
I3017
sS'w+1=deteriorate'
p2772
I1550
sS'nsubj=support'
p2773
I1248
sS'w+2=realize'
p2774
I2405
sS'w+2=near'
p2775
I2327
sS'w-1=since'
p2776
I3134
sS'partmod=agree'
p2777
I1329
sS'w-1=forever'
p2778
I2946
sS'w+2=South'
p2779
I1969
sS'w+1=clear'
p2780
I1513
sS'dobj=transfer'
p2781
I635
sS'w-2=ship'
p2782
I3900
sS'xcomp=break'
p2783
I4047
sS'w-1=mile'
p2784
I3009
sS'ccomp=valid'
p2785
I290
sS'advcl=send'
p2786
I99
sS'w-2=swing'
p2787
I3938
sS'w-2=osce'
p2788
I3787
sS'w+2=expand'
p2789
I2160
sS'w-1=support'
p2790
I3155
sS'w-2=not'
p2791
I3766
sS'nsubj=Fair'
p2792
I728
sS'xcomp=fuel'
p2793
I4166
sS'w+2=nationalheal'
p2794
I2325
sS'w-2=which'
p2795
I3998
sS'w+2=slowly'
p2796
I2504
sS'w+1=primarily'
p2797
I1703
sS'dobj=most'
p2798
I558
sS'w+1=May'
p2799
I1439
sS'w-1=battle'
p2800
I2832
sS'xcomp=rise'
p2801
I4297
sS'nsubj=gain'
p2802
I1027
sS'advmod=even'
p2803
I149
sS'w-2=Johnson'
p2804
I3339
sS'w+2=reconciliation'
p2805
I2414
sS'nsubj=incursion'
p2806
I1052
sS'xcomp=run'
p2807
I4301
sS'ccomp=involve'
p2808
I251
sS'nsubj=some'
p2809
I1232
sS'xcomp=address'
p2810
I4022
sS'w-2=career'
p2811
I3511
sS'w-1=organization'
p2812
I3048
sS'w-2=Republicans'
p2813
I3395
sS'w-2=Pyongyang'
p2814
I3389
sS'nsubj=Sills'
p2815
I816
sS'w-1=Saakashvili'
p2816
I2767
sS'w-2=107'
p2817
I3241
sS'advmod=ever'
p2818
I150
sS'purpcl=stabilize'
p2819
I1397
sS'w+2=June'
p2820
I1938
sS'w-1=thing'
p2821
I3169
sS'w-1=opposition'
p2822
I3044
sS'w+2=rural'
p2823
I2450
sS'w+2=Taleban'
p2824
I1976
sS'w-2=carrier'
p2825
I3512
sS'w-1=adventure'
p2826
I2804
sS'w+2=commercial'
p2827
I2076
sS'nsubj=seed'
p2828
I1214
sS'aux=will'
p2829
I227
sS'w+1=rent'
p2830
I1729
sS'w+1=week'
p2831
I1826
sS'w-2=empire'
p2832
I3604
sS'nsubj=analyst'
p2833
I863
sS'advcl=form'
p2834
I44
sS'w+2=mine'
p2835
I2312
sS'w-2=sleeve'
p2836
I3911
sS'w-1=ceasefire'
p2837
I2858
sS'w+2=Sunday'
p2838
I1972
sS'w-1=tour'
p2839
I3175
sS'dep=expect'
p2840
I423
sS'w-1=tradition'
p2841
I3179
sS'w-1=army'
p2842
I2820
sS'prep=with'
p2843
I1392
sS'w-2=negotiation'
p2844
I3755
sS'w-2=43-year-old'
p2845
I3251
sS'w+1=cry'
p2846
I1535
sS'nsubj=agency'
p2847
I857
sS'w-2=family'
p2848
I3620
sS'w-1=world'
p2849
I3223
sS'w-1=Fund'
p2850
I2696
sS'nsubj=Pyongyang'
p2851
I798
sS'w-2=republican'
p2852
I3866
sS'w+2=assess'
p2853
I2025
sS'w-1=Tsvangirai'
p2854
I2788
sS'w-2=suppose'
p2855
I3936
sS'ccomp=finish'
p2856
I246
sS'w+2=unravel'
p2857
I2590
sS'dobj=strike'
p2858
I620
sS'w-1=career'
p2859
I2854
sS'w-1=reaction'
p2860
I3099
sS'w+2=six-year'
p2861
I2499
sS'w-2=radically-different'
p2862
I3850
sS'w-1=recently'
p2863
I3101
sS'w-1=victim'
p2864
I3199
sS'nsubj=service'
p2865
I1217
sS'nsubj=organ'
p2866
I1118
sS'w-1=season'
p2867
I3123
sS'w+2=do'
p2868
I2118
sS'w+2=understand'
p2869
I2588
sS'nsubj=Moscow'
p2870
I774
sS'nsubj=Edwards'
p2871
I722
sS'w+1=demand'
p2872
I1546
sS'nsubj=unrest'
p2873
I1286
sS'w-2=vehicle'
p2874
I3981
sS'dobj=what'
p2875
I649
sS'w+2=mid-May'
p2876
I2308
sS'w+2=initially'
p2877
I2250
sS'w+1=America'
p2878
I1431
sS'w+2=relief'
p2879
I2426
sS'w-1=soldier'
p2880
I3141
sS'w-1=Calderon'
p2881
I2667
sS'w-2=UNHCR'
p2882
I3423
sS'xcomp=mend'
p2883
I4216
sS'w-1=crowd'
p2884
I2896
sS'w-2=Ghailani'
p2885
I3320
sS'nsubj=layoff'
p2886
I1070
sS'w+2=recently'
p2887
I2410
sS'dobj=reduction'
p2888
I592
sS'nsubj=term'
p2889
I1255
sS'w+1=just'
p2890
I1636
sS'w-1=Africa'
p2891
I2653
sS'w+2=mend'
p2892
I2306
sS'nsubj=funding'
p2893
I1025
sS'w+2=Obama'
p2894
I1956
sS'w-2=sinhalese-dominated'
p2895
I3906
sS'w+2=value'
p2896
I2596
sS'nsubj=attitude'
p2897
I876
sS'w+2=hormone'
p2898
I2231
sS'nsubj=generation'
p2899
I1033
sS'xcomp=pour'
p2900
I4247
sS'nsubj=record'
p2901
I1184
sS'w-2=student'
p2902
I3931
sS'w+2=Arab'
p2903
I1903
sS'w+2=microcredit'
p2904
I2307
sS'w-2=way'
p2905
I3991
sS'nsubj=Zoellick'
p2906
I845
sS'w-2=loss'
p2907
I3721
sS'w-1=farm'
p2908
I2929
sS'nsubj=Taliban'
p2909
I827
sS'xcomp=hear'
p2910
I4180
sS'w+1=exclude'
p2911
I1582
sS'w-2=2,000'
p2912
I3245
sS'w-1=these'
p2913
I3167
sS'w+2=form'
p2914
I2196
sS'nsubj=Education'
p2915
I721
sS'nsubj=delivery'
p2916
I962
sS'w+1=extend'
p2917
I1585
sS'w-1=agreement'
p2918
I2808
sS'cc=and'
p2919
I230
sS'nsubj=fan'
p2920
I1008
sS'w-1=accession'
p2921
I2797
sS'w-1=write'
p2922
I3225
sS'w-2=against'
p2923
I3451
sS'w+1=by'
p2924
I1501
sS'w+1=be'
p2925
I1486
sS'w-1=branch'
p2926
I2842
sS'nsubj=pair'
p2927
I1126
sS'nsubj=Cross'
p2928
I714
sS'w+2=Moscow'
p2929
I1950
sS'w+1=chant'
p2930
I1507
sS'nsubj=money'
p2931
I1094
sS'w+2=atone'
p2932
I2027
sS'w-1=assailant'
p2933
I2823
sS'w+1=troop'
p2934
I1808
sS'w-2=team'
p2935
I3940
sS'w-1=blaze'
p2936
I2836
sS'w-1=insurgency'
p2937
I2978
sS'dobj=age'
p2938
I472
sS'xcomp=bite'
p2939
I4045
sS'nsubj=Nations'
p2940
I780
sS'nsubj=flight'
p2941
I1018
sS'w-2=caucus'
p2942
I3514
sS'w+2=1240'
p2943
I1852
sS'tmod=year'
p2944
I1418
sS'w-2=Congress'
p2945
I3291
sS'w+2=party'
p2946
I2368
sS'nsubj=life'
p2947
I1075
sS'w+1=pour'
p2948
I1696
sS'dep=grow'
p2949
I426
sS'nsubj=Blair'
p2950
I695
sS'xcomp=normalize'
p2951
I4222
sS'nsubj=tourism'
p2952
I1267
sS'w-2=african'
p2953
I3449
sS'w-1=fatality'
p2954
I2932
sS'w-2=promise'
p2955
I3840
sS'w+1=into'
p2956
I1628
sS'xcomp=cry'
p2957
I4091
sS'w+1=will'
p2958
I1831
sS'advcl=approach'
p2959
I8
sS'w-2=Ethiopia'
p2960
I3310
sS'w-1=secretly'
p2961
I3124
sS'w+1=smoking'
p2962
I1769
sS'xcomp=battle'
p2963
I4042
sS'nsubj=condition'
p2964
I931
sS'w-2=Canada'
p2965
I3283
sS'nsubj=Woods'
p2966
I842
sS'w-2=health'
p2967
I3664
sS'w-1=credit'
p2968
I2894
sS'w-1=faction'
p2969
I2926
sS'w+2=flee'
p2970
I2187
sS'w-1=Mosque'
p2971
I2740
sS'w-2=schedule'
p2972
I3884
sS'w-1=Cup'
p2973
I2681
sS'dobj=chapter'
p2974
I485
sS'w-1=company'
p2975
I2876
sS'prep=like'
p2976
I1377
sS'w+1=consultation'
p2977
I1528
sS'w-2=President'
p2978
I3387
sS'w-1=prosperity'
p2979
I3087
sS'w-1=service'
p2980
I3125
sS'w-2=committee'
p2981
I3539
sS'dobj=hour'
p2982
I543
sS'w+2=subtly'
p2983
I2531
sS'dobj=spree'
p2984
I618
sS'w-2=inflation'
p2985
I3686
sS'w-2=Authority'
p2986
I3268
sS'w-2=pledge'
p2987
I3812
sS'w-2=these'
p2988
I3951
sS'dep=in'
p2989
I429
sS'w+2=orderly'
p2990
I2358
sS'nsubj=guerrilla'
p2991
I1039
sS'w+2=investigate'
p2992
I2258
sS'w-2=presidential'
p2993
I3826
sS'w-2=42-year'
p2994
I3250
sS'w+2=Damascus'
p2995
I1915
sS'w+2=time'
p2996
I2564
sS'w-2=pocket'
p2997
I3813
sS'w+2=spiral'
p2998
I2514
sS'w-2=spotter'
p2999
I3921
sS'w-2=egyptian'
p3000
I3601
sS'w-2=decline'
p3001
I3574
sS'dobj=campaign'
p3002
I481
sS'w-2=Baghdad'
p3003
I3270
sS'w+2=service'
p3004
I2473
sS'w+1=erect'
p3005
I1577
sS'nsubj=program'
p3006
I1166
sS'w+2=educational'
p3007
I2133
sS'w+2=dismantle'
p3008
I2113
sS'prep=of'
p3009
I1379
sS'w+2=try'
p3010
I2584
sS'w-2=propose'
p3011
I3843
sS'w+2=appear'
p3012
I2020
sS'w+1=convert'
p3013
I1531
sS'prep=on'
p3014
I1381
sS'w+2=project'
p3015
I2395
sS'w+1=September'
p3016
I1446
sS'dobj=a'
p3017
I468
sS'w-1=ground'
p3018
I2957
sS'xcomp=fight'
p3019
I4150
sS'dobj=trek'
p3020
I639
sS'nsubj=flock'
p3021
I1019
sS'w+2=Prime'
p3022
I1962
sS'w-2=colonization'
p3023
I3531
sS'xcomp=chant'
p3024
I4062
sS'w-2=company'
p3025
I3542
sS'advmod=nationwide'
p3026
I174
sS'dep=ask'
p3027
I412
sS'w-2=CNBC'
p3028
I3281
sS'parataxis=ground'
p3029
I1326
sS'w+1=farm'
p3030
I1588
sS'w+2=orbit'
p3031
I2357
sS'dobj=ride'
p3032
I598
sS'w-1=governor'
p3033
I2956
sS'acomp=early'
p3034
I0
sS'w-1=Ban'
p3035
I2658
sS'w+2=offensive'
p3036
I2345
sS'nsubj=investigation'
p3037
I1059
sS'nsubj=candidate'
p3038
I900
sS'conj=approach'
p3039
I301
sS'w-2=monument'
p3040
I3745
sS'w+1=four'
p3041
I1600
sS'w-2=dark'
p3042
I3567
sS'nsubj=Syrians'
p3043
I824
sS'w-1=festival'
p3044
I2933
sS'nsubj=woman'
p3045
I1313
sS'nsubj=ceremony'
p3046
I909
sS'nsubj=flame'
p3047
I1017
sS'w+2=rubble'
p3048
I2447
sS'w-2=exercise'
p3049
I3612
sS'advcl=digest'
p3050
I31
sS'w+2=thaw'
p3051
I2549
sS'w+2=that'
p3052
I2548
sS'w-2=Miami'
p3053
I3358
sS'w-1=Baxter'
p3054
I2659
sS'w+1=withdrawal'
p3055
I1834
sS'w-2=Mrs.'
p3056
I3364
sS'w-1=levee'
p3057
I2994
sS'w+2=Les'
p3058
I1940
sS'nsubj=interest'
p3059
I1057
sS'w+2=despite'
p3060
I2107
sS'nsubj=administration'
p3061
I852
sS'w+2=analysis'
p3062
I2013
sS'nsubj=address'
p3063
I851
sS'advcl=hear'
p3064
I55
sS'nsubj=fisherman'
p3065
I1016
sS'advcl=present'
p3066
I78
sS'nsubj=revolution'
p3067
I1202
sS'nsubj=career'
p3068
I902
sS'w-2=Hezbollah'
p3069
I3324
sS'w-2=spring'
p3070
I3922
sS'advcl=say'
p3071
I94
sS'dobj=round'
p3072
I603
sS'w-1=of'
p3073
I3030
sS'w+2=rebel'
p3074
I2407
sS'nsubj=police'
p3075
I1150
sS'w+1=protect'
p3076
I1707
sS'w-1=again'
p3077
I2805
sS'w+2=fight'
p3078
I2177
sS'w+2=membership'
p3079
I2305
sS'conj=go'
p3080
I336
sS'dobj=process'
p3081
I583
sS'xcomp=debate'
p3082
I4096
sS'w+2=end'
p3083
I2145
sS'w+1=thin'
p3084
I1794
sS'w-2=hope'
p3085
I3670
sS'w-1=relay'
p3086
I3106
sS'nsubj=nonprofit'
p3087
I1107
sS'advmod=actually'
p3088
I128
sS'dobj=patrol'
p3089
I569
sS'w+2=dominate'
p3090
I2122
sS'w-1=Kenya'
p3091
I2730
sS'xcomp=wane'
p3092
I4385
sS'w+1=this'
p3093
I1796
sS'xcomp=character'
p3094
I4063
sS'w+1=operate'
p3095
I1680
sS'w-2=enough'
p3096
I3605
sS'w-2=Kenya'
p3097
I3344
sS'w-1=Tuesday'
p3098
I2789
sS'xcomp=meet'
p3099
I4214
sS'w-1=Linda'
p3100
I2735
sS'w-1=plant'
p3101
I3071
sS'w-1=Society'
p3102
I2778
sS'w-1=Intifada'
p3103
I2721
sS'w+1=fairly'
p3104
I1586
sS'w-1=so'
p3105
I3140
sS'w-2=normalization'
p3106
I3763
sS'advcl=walk'
p3107
I122
sS'w+2=gospel'
p3108
I2211
sS'advmod=now'
p3109
I179
sS'w+1=practice'
p3110
I1697
sS'w-1=plane'
p3111
I3070
sS'w+2=into'
p3112
I2256
sS'nsubj=those'
p3113
I1261
sS'w-2=budget'
p3114
I3503
sS'advmod=peacefully'
p3115
I189
sS'w+2=ten'
p3116
I2546
sS'w+2=Americans'
p3117
I1901
sS'advmod=unfortunately'
p3118
I208
sS'advcl=beam'
p3119
I13
sS'w-1=peninsula'
p3120
I3061
sS'nsubj=connection'
p3121
I934
sS'advcl=reopen'
p3122
I90
sS'dobj=quest'
p3123
I587
sS'w+2=only'
p3124
I2351
sS'w-1=killing'
p3125
I2987
sS'w+1=ask'
p3126
I1478
sS'partmod=say'
p3127
I1336
sS'nsubj=amnesia'
p3128
I862
sS'ccomp=mark'
p3129
I259
sS'w-2=agency'
p3130
I3453
sS'nsubj=pundit'
p3131
I1172
sS'w+1=from'
p3132
I1601
sS'xcomp=manufacture'
p3133
I4210
sS'w-2=at'
p3134
I3483
sS'nsubj=crack'
p3135
I947
sS'w-2=as'
p3136
I3482
sS'nsubj=snow'
p3137
I1229
sS'w-2=al'
p3138
I3460
sS'w-1=also'
p3139
I2813
sS'nsubj=side'
p3140
I1225
sS'advcl=fall'
p3141
I41
sS'w+2=large'
p3142
I2269
sS'w-1=power'
p3143
I3075
sS'w-2=may'
p3144
I3729
sS'w-1=spare'
p3145
I3146
sS'w-2=league'
p3146
I3710
sS'w+1=during'
p3147
I1569
sS'advcl=make'
p3148
I66
sS'conj=add'
p3149
I299
sS'w-2=Dakar'
p3150
I3298
sS'advcl=gather'
p3151
I48
sS'w-2=crippling'
p3152
I3561
sS'w-1=Odinga'
p3153
I2751
sS'w-1=shop'
p3154
I3130
sS'dobj=time'
p3155
I630
sS'w+2=comic'
p3156
I2075
sS'w-2=until'
p3157
I3978
sS'nsubj=quest'
p3158
I1175
sS'w-1=sort'
p3159
I3144
sS'w+2=repair'
p3160
I2429
sS'nsubj=oil'
p3161
I1113
sS'w-2=Court'
p3162
I3292
sS'w+2=election'
p3163
I2137
sS'advcl=nurture'
p3164
I71
sS'w+2=death'
p3165
I2101
sS'advcl=state'
p3166
I109
sS'partmod=mediate'
p3167
I1334
sS'w+2=journey'
p3168
I2264
sS'nsubj=Mines'
p3169
I771
sS'w+2=egyptian'
p3170
I2135
sS'w+2=there'
p3171
I2552
sS'w-1=Army'
p3172
I2656
sS'w+2=hear'
p3173
I2222
sS'advmod=immediately'
p3174
I162
sS'nsubj=economy'
p3175
I985
sS'w-1=log'
p3176
I2996
sS'advcl=know'
p3177
I63
sS'w-2=should'
p3178
I3903
sS'dep=work'
p3179
I456
sS'w+2=again'
p3180
I2000
sS'xcomp=go'
p3181
I4174
sS'conj=keep'
p3182
I349
sS'nsubj=Department'
p3183
I719
sS'complm=whether'
p3184
I296
sS'w+1=more'
p3185
I1660
sS'partmod=screen'
p3186
I1337
sS'w-1=tumor'
p3187
I3192
sS'xcomp=surface'
p3188
I4347
sS'nsubj=Malaysia'
p3189
I767
sS'w-2=anti-war'
p3190
I3474
sS'w-2=EU'
p3191
I3304
sS'w-1=police'
p3192
I3073
sS'xcomp=pursue'
p3193
I4262
sS'nsubj=answer'
p3194
I865
sS'xcomp=climb'
p3195
I4071
sS'w-1=Tse'
p3196
I2787
sS'nsubj=rally'
p3197
I1179
sS'w+2=have'
p3198
I2220
sS'w-2=insurgency'
p3199
I3689
sS'w-2=opposition'
p3200
I3785
sS'advcl=refuse'
p3201
I86
sS'w+2=relation'
p3202
I2424
sS'w-2=Kouyate'
p3203
I3347
sS'w-2=delivery'
p3204
I3576
sS'w+2=stabilize'
p3205
I2519
sS'w-1=genocide'
p3206
I2953
sS'xcomp=march'
p3207
I4211
sS'advcl=launch'
p3208
I64
sS'advcl=kick'
p3209
I62
sS'w+1=redeploy'
p3210
I1722
sS'csubj=prevent'
p3211
I401
sS'dobj=drive'
p3212
I519
sS'w-1=peacekeeper'
p3213
I3060
sS'nsubj=Nkunda'
p3214
I784
sS'w-2=Syrians'
p3215
I3412
sS'w+2=neither'
p3216
I2329
sS'w+2=than'
p3217
I2547
sS'xcomp=delay'
p3218
I4099
sS'xcomp=support'
p3219
I4346
sS'nsubj=patient'
p3220
I1135
sS'nsubj=Movement'
p3221
I776
sS'nsubj=army'
p3222
I867
sS'w+1=eight'
p3223
I1573
sS'w-1=singer'
p3224
I3135
sS'w+2=petition'
p3225
I2376
sS'w+1=resolve'
p3226
I1733
sS'w-2=donor'
p3227
I3590
sS'w+2=Tuesday'
p3228
I1978
sS'w+2=within'
p3229
I2627
sS'w-2=national'
p3230
I3752
sS'w-2=activity'
p3231
I3445
sS"aux='ll"
p3232
I217
sS'xcomp=interrogate'
p3233
I4192
sS'dobj=creek'
p3234
I499
sS'w-2=much'
p3235
I3748
sS'w+2=least'
p3236
I2278
sS'ccomp=fear'
p3237
I245
sS'xcomp=occur'
p3238
I4225
sS'xcomp=enter'
p3239
I4132
sS'nsubj=gathering'
p3240
I1029
sS'w-1=McCain'
p3241
I2736
sS'w+1=seize'
p3242
I1749
sS'nsubj=surge'
p3243
I1250
sS'xcomp=decide'
p3244
I4097
sS'w-2=lawmaker'
p3245
I3708
sS'w-1=anticipate'
p3246
I2818
sS'dobj=planning'
p3247
I576
sS'w+1=boycott'
p3248
I1491
sS'w+2=training'
p3249
I2572
sS'w-1=for'
p3250
I2944
sS'nsubj=genocide'
p3251
I1034
sS'w+2=busy'
p3252
I2053
sS'dobj=relationship'
p3253
I596
sS'w+2=by'
p3254
I2055
sS'w+2=american'
p3255
I2012
sS'w+2=about'
p3256
I1988
sS'w-1=alike'
p3257
I2809
sS'w-2=door'
p3258
I3591
sS'w-1=cut'
p3259
I2898
sS'prep=during'
p3260
I1368
sS'w-1=pkk'
p3261
I3069
sS'dobj=journey'
p3262
I550
sS'xcomp=reverse'
p3263
I4295
sS'w+2=second'
p3264
I2463
sS'w+1=action'
p3265
I1456
sS'w+2=take'
p3266
I2541
sS'w+2=both'
p3267
I2044
sS'w+2=University'
p3268
I1981
sS'w-1=curfew'
p3269
I2897
sS'nsubj=judge'
p3270
I1063
sS'nsubj=assault'
p3271
I871
sS'w-1=on'
p3272
I3038
sS'ccomp=save'
p3273
I275
sS'dep=fuel'
p3274
I424
sS'w+2=recede'
p3275
I2409
sS'w-1=not'
p3276
I3026
sS'w+2=away'
p3277
I2030
sS'w-2=he'
p3278
I3663
sS'conj=sign'
p3279
I375
sS'w-1=opportunity'
p3280
I3043
sS'w-2=David'
p3281
I3299
sS'xcomp=convert'
p3282
I4084
sS'xcomp=throw'
p3283
I4358
sS'w+2=Republican'
p3284
I1963
sS'xcomp=introduce'
p3285
I4193
sS'ccomp=see'
p3286
I277
sS'w+1=vote'
p3287
I1822
sS'w-1=council'
p3288
I2888
sS'aux=be'
p3289
I218
sS'xcomp=translate'
p3290
I4365
sS'w-1=there'
p3291
I3166
sS'xcomp=displace'
p3292
I4113
sS'w-1=husband'
p3293
I2970
sS"w-2='s"
p3294
I3234
sS'w+2=2014'
p3295
I1884
sS'w+2=Guinea'
p3296
I1923
sS'xcomp=hurt'
p3297
I4184
sS'prep=before'
p3298
I1362
sS'w+2=operation'
p3299
I2355
sS'advcl=over'
p3300
I76
sS'advmod=about'
p3301
I127
sS'w+2=rwandan'
p3302
I2451
sS'nsubj=diplomacy'
p3303
I968
sS'w+2=settle'
p3304
I2475
sS'xcomp=value'
p3305
I4378
sS'ccomp=call'
p3306
I239
sS'xcomp=press'
p3307
I4251
sS'xcomp=reconcile'
p3308
I4274
sS'advmod=dramatically'
p3309
I145
sS'w-1=rush'
p3310
I3119
sS'w+2=ethiopian'
p3311
I2152
sS'nsubj=p.m.'
p3312
I1124
sS'w-1=operation'
p3313
I3041
sS'advcl=explain'
p3314
I38
sS'w-1=bar'
p3315
I2829
sS'w-2=handover'
p3316
I3659
sS'w+2=Europe'
p3317
I1920
sS'w+2=essential'
p3318
I2150
sS'w-1=organ'
p3319
I3047
sS'w-2=ring'
p3320
I3876
sS'nsubj=visitor'
p3321
I1296
sS'nsubj=Indians'
p3322
I747
sS'advmod=well'
p3323
I210
sS'w-2=election'
p3324
I3602
sS'w-1=Sydney'
p3325
I2782
sS'w+1=negotiate'
p3326
I1666
sS'xcomp=arrive'
p3327
I4035
sS'xcomp=call'
p3328
I4055
sS'w+2=use'
p3329
I2595
sS'w-2=Secretary'
p3330
I3399
sS'w-1=mission'
p3331
I3013
sS'w+2=strike'
p3332
I2524
sS'w-2=just'
p3333
I3701
sS'advcl=serve'
p3334
I100
sS'nsubj=rebuilding'
p3335
I1183
sS'nsubj=Gates'
p3336
I734
sS'advmod=forward'
p3337
I156
sS'w+2=heavily'
p3338
I2225
sS'w-2=decide'
p3339
I3572
sS'nsubj=Shapiro'
p3340
I811
sS'nsubj=animal'
p3341
I864
sS'w-1=Forum'
p3342
I2695
sS'w+1=art'
p3343
I1476
sS'prep=than'
p3344
I1386
sS'advcl=elect'
p3345
I35
sS'w-2=weekly'
p3346
I3994
sS'conj=finish'
p3347
I333
sS'prep=by'
p3348
I1365
sS'w+1=apprentice'
p3349
I1472
sS'w-2=Robert'
p3350
I3397
sS'prep=between'
p3351
I1364
sS'w-1=,'
p3352
I2638
sS'w-1=official'
p3353
I3033
sS'xcomp=import'
p3354
I4186
sS'nsubj=Lufthansa'
p3355
I766
sS'w-2=session'
p3356
I3894
sS'w-2=actual'
p3357
I3446
sS'w-2=Basongora'
p3358
I3272
sS'xcomp=pull'
p3359
I4260
sS'nsubj=government'
p3360
I1036
sS'dobj=deliberation'
p3361
I508
sS'nsubj=icrc'
p3362
I1046
sS'w-2=firmly'
p3363
I3630
sS'w+2=Hayarimana'
p3364
I1925
sS'w+2=change'
p3365
I2063
sS'w+2=selection'
p3366
I2468
sS'w+1=overnight'
p3367
I1685
sS'w-2=Zimbabwe'
p3368
I3437
sS'w-2=advocacy'
p3369
I3448
sS'w+2=mauritanian'
p3370
I2300
sS'w-2=North'
p3371
I3375
sS'w+2=treat'
p3372
I2577
sS'w-2=eskom'
p3373
I3608
sS'w+2=across'
p3374
I1990
sS'w-2=torch'
p3375
I3961
sS'w-2=high-tech'
p3376
I3667
sS'w-2=be'
p3377
I3490
sS'w+2=collective'
p3378
I2071
sS'advcl=declare'
p3379
I28
sS'w-1=Russia'
p3380
I2766
sS'w+2=enter'
p3381
I2147
sS'advmod=really'
p3382
I192
sS'w-1=champion'
p3383
I2861
sS'w-2=Albania'
p3384
I3262
sS'w+2=extensive'
p3385
I2164
sS'nsubj=sign'
p3386
I1226
sS'advcl=ask'
p3387
I10
sS'nsubj=center'
p3388
I908
sS'w+2=annual'
p3389
I2016
sS'w-2=I'
p3390
I3328
sS'nsubj=vote'
p3391
I1299
sS'w+2=trust'
p3392
I2583
sS'pcomp=in'
p3393
I1344
sS'xcomp=force'
p3394
I4161
sS'nsubj=adaptation'
p3395
I850
sS'w+1=tilt'
p3396
I1799
sS'nsubj=existence'
p3397
I998
sS'xcomp=lift'
p3398
I4203
sS'nsubj=protest'
p3399
I1169
sS'w+1=offer'
p3400
I1674
sS'w-2=current'
p3401
I3566
sS'w+2=sow'
p3402
I2511
sS'w-1=be'
p3403
I2833
sS'w-1=Sills'
p3404
I2775
sS'dobj=fall'
p3405
I530
sS'w-2=Cup'
p3406
I3295
sS'w+1=military'
p3407
I1658
sS'w-1=price'
p3408
I3080
sS'w+1=airlift'
p3409
I1462
sS'w+2=gunman'
p3410
I2218
sS'advcl=free'
p3411
I45
sS'w-2=era'
p3412
I3607
sS'xcomp=uncomfortable'
p3413
I4372
sS'w-1=blues'
p3414
I2837
sS'nsubj=visit'
p3415
I1295
sS'dobj=proceedings'
p3416
I582
sS'w-2=someone'
p3417
I3916
sS'advmod=sometime'
p3418
I199
sS'w+2=recession'
p3419
I2411
sS'w-1=Bush'
p3420
I2666
sS'w+2=emphasize'
p3421
I2143
sS'w-2=Easter'
p3422
I3306
sS'w-1=truce'
p3423
I3191
sS'nsubj=clash'
p3424
I915
sS'mark=because'
p3425
I660
sS'w-2=Castro'
p3426
I3284
sS'dobj=series'
p3427
I611
sS'xcomp=play'
p3428
I4243
sS'nsubj=Calderon'
p3429
I700
sS'w+1=think'
p3430
I1795
sS'w+2=July'
p3431
I1937
sS'nsubj=village'
p3432
I1293
sS'w+2=1989'
p3433
I1868
sS'dobj=prayer'
p3434
I577
sS'conj=indicate'
p3435
I345
sS'nsubj=rioting'
p3436
I1205
sS'nsubj=Mogadishu'
p3437
I772
sS'tmod=installation'
p3438
I1407
sS'xcomp=plan'
p3439
I4241
sS'w-1=authority'
p3440
I2827
sS'nsubj=practice'
p3441
I1155
sS'w-1=oil'
p3442
I3036
sS'xcomp=market'
p3443
I4212
sS'w+1=August'
p3444
I1432
sS'advcl=haven'
p3445
I53
sS'w-2=rat'
p3446
I3853
sS'w-2=petition'
p3447
I3809
sS'w-2=nonprofit'
p3448
I3761
sS'nsubj=writer'
p3449
I1317
sS'dep=though'
p3450
I450
sS'xcomp=sink'
p3451
I4329
sS'w+2=what'
p3452
I2616
sS'xcomp=perform'
p3453
I4238
sS'nsubj=Simonyi'
p3454
I817
sS'w+1=collapse'
p3455
I1516
sS'w-2=poll'
p3456
I3819
sS'w+1=enter'
p3457
I1576
sS'xcomp=divide'
p3458
I4117
sS'dobj=permanent'
p3459
I573
sS'advmod=once'
p3460
I183
sS'xcomp=come'
p3461
I4074
sS'w-1=which'
p3462
I3213
sS'w+2=reappear'
p3463
I2406
sS'xcomp=operate'
p3464
I4228
sS'w+1=turn'
p3465
I1809
sS'nsubj=policymaker'
p3466
I1151
sS'dep=since'
p3467
I445
sS'xcomp=assess'
p3468
I4038
sS'w+1=repatriate'
p3469
I1730
sS'dep=wrap'
p3470
I458
sS'dobj=month'
p3471
I557
sS'w-1=I'
p3472
I2715
sS'w-1=increase'
p3473
I2975
sS'nsubj=explosion'
p3474
I1004
sS'w-1=from'
p3475
I2949
sS'w+2=urgent'
p3476
I2594
sS'xcomp=build'
p3477
I4053
sS'w-2=effort'
p3478
I3600
sS'w-1=only'
p3479
I3040
sS'xcomp=pit'
p3480
I4240
sS'w+1=put'
p3481
I1714
sS'nsubj=studio'
p3482
I1243
sS'w-1=money'
p3483
I3014
sS'w-1=mean'
p3484
I3004
sS'w-2=reconciliation'
p3485
I3860
sS'dobj=electricity'
p3486
I524
sS'w+2=reverse'
p3487
I2439
sS'w+2=be'
p3488
I2033
sS'w-1=pharaoh'
p3489
I3065
sS'w-2=how'
p3490
I3672
sS'w-2=group'
p3491
I3653
sS'nsubj=pkk'
p3492
I1145
sS'w-2=wood'
p3493
I4007
sS'nsubj=debris'
p3494
I959
sS'w-1=mayhem'
p3495
I3003
sS'w-2=implementer'
p3496
I3680
sS'w-1=problem'
p3497
I3082
sS'w+1=loosen'
p3498
I1650
sS'nsubjpass=#PRP#'
p3499
I1322
sS'nsubj=train'
p3500
I1272
sS'w+2=subprime'
p3501
I2529
sS'xcomp=provide'
p3502
I4258
sS'w+1=employ'
p3503
I1574
sS'w-2=particularly'
p3504
I3799
sS'xcomp=publish'
p3505
I4259
sS'aux=would'
p3506
I228
sS'w-2=leader'
p3507
I3709
sS'w-1=it'
p3508
I2982
sS'dobj=tire'
p3509
I631
sS'w-2=Lufthansa'
p3510
I3352
sS'w+1=arm'
p3511
I1473
sS'w+2=analyst'
p3512
I2014
sS'w-1=Qala'
p3513
I2762
sS'w+1=immediately'
p3514
I1620
sS'conj=differ'
p3515
I320
sS'nsubj=clean'
p3516
I916
sS'w-2=U.N.'
p3517
I3421
sS'w-2=Uganda'
p3518
I3424
sS'nsubj=settlement'
p3519
I1219
sS'xcomp=pound'
p3520
I4246
sS'w-2=a'
p3521
I3439
sS'nsubj=downside'
p3522
I979
sS'pobj=month'
p3523
I1350
sS'w-2=Korea'
p3524
I3345
sS'w+2=Chad'
p3525
I1911
sS'dobj=lend'
p3526
I552
sS'w+2=relationship'
p3527
I2425
sS'ccomp=offer'
p3528
I263
sS'w+2=come'
p3529
I2074
sS'w-2=understanding'
p3530
I3976
sS'advmod=ago'
p3531
I131
sS'nsubj=objection'
p3532
I1108
sS'w+1=and'
p3533
I1466
sS'w+2=such'
p3534
I2533
sS'xcomp=seize'
p3535
I4310
sS'nsubj=Commissioner'
p3536
I707
sS'dobj=rubble'
p3537
I604
sS'w+2=rake'
p3538
I2402
sS'w-1=relaunch'
p3539
I3105
sS'w+1=deport'
p3540
I1548
sS'dobj=withdrawal'
p3541
I652
sS'w-2=Washington'
p3542
I3431
sS'w+2=open'
p3543
I2352
sS'w+2=generate'
p3544
I2206
sS'nsubj=Montanti'
p3545
I773
sS'w+1=any'
p3546
I1470
sS'w-1=breastfeeding'
p3547
I2844
sS'w+2=offer'
p3548
I2346
sS'w+2=send'
p3549
I2469
sS'w+1=issue'
p3550
I1632
sS'w-2=peacekeeper'
p3551
I3806
sS'w+2=deny'
p3552
I2105
sS'ccomp=discover'
p3553
I242
sS'nsubj=tourspatt'
p3554
I1268
sS'w+2=this'
p3555
I2556
sS'w+1=almost'
p3556
I1463
sS'w-1=farmland'
p3557
I2931
sS'w-2=Americans'
p3558
I3265
sS'xcomp=resume'
p3559
I4292
sS'w+1=relocate'
p3560
I1726
sS'w+2=link'
p3561
I2283
sS'w-2=worried'
p3562
I4011
sS'w-1=Olmert'
p3563
I2752
sS'w-2=ally'
p3564
I3465
sS'w+1=build'
p3565
I1497
sS'nsubj=setting'
p3566
I1218
sS'w-2=somali'
p3567
I3914
sS'w-2=tribunal'
p3568
I3968
sS'w-2=DPRK'
p3569
I3296
sS'w-2=State'
p3570
I3405
sS'w-1=host'
p3571
I2968
sS'w-1=commission'
p3572
I2873
sS'w-2=attention'
p3573
I3485
sS'w+2=increase'
p3574
I2249
sS'w+2=series'
p3575
I2472
sS'parataxis=add'
p3576
I1324
sS'nsubj=UNHCR'
p3577
I836
sS'nsubj=professor'
p3578
I1165
sS'nsubj=Rice'
p3579
I804
sS'w-1=Diwaniyah'
p3580
I2686
sS'nsubj=admirer'
p3581
I853
sS'w-2=electoral'
p3582
I3603
sS'w-2=home'
p3583
I3669
sS'nsubj=kasambalum'
p3584
I1064
sS'nsubj=Pakistan'
p3585
I791
sS'w+2=how'
p3586
I2234
sS'nsubj=Hill'
p3587
I742
sS'xcomp=affect'
p3588
I4023
sS'w-2=you'
p3589
I4015
sS'tmod=offensive'
p3590
I1412
sS'ccomp=Kaila'
p3591
I232
sS'ccomp=want'
p3592
I291
sS'w+2=sign'
p3593
I2495
sS'w+1=have'
p3594
I1609
sS'dobj=#DATE#'
p3595
I460
sS'w+1=transmission'
p3596
I1805
sS'w-1=Grisman'
p3597
I2706
sS'xcomp=fade'
p3598
I4143
sS'w-2=thecommando-style'
p3599
I3948
sS'xcomp=save'
p3600
I4302
sS'nsubj=Funding'
p3601
I731
sS'partmod=spark'
p3602
I1338
sS'w-2=life'
p3603
I3715
sS'w+2=Bushmen'
p3604
I1907
sS'w+1=experience'
p3605
I1583
sS'advcl=from'
p3606
I46
sS'xcomp=sleep'
p3607
I4330
sS'nsubj=Zubaydah'
p3608
I846
sS'w-1=workday'
p3609
I3221
sS'tmod=fall'
p3610
I1406
sS'w-1=pandemic'
p3611
I3053
sS'w+2=2005'
p3612
I1881
sS'mark=as'
p3613
I659
sS'w+2=2003'
p3614
I1879
sS'w+2=2002'
p3615
I1878
sS'w+2=2001'
p3616
I1877
sS'w+1=resume'
p3617
I1735
sS'w+1=pursue'
p3618
I1713
sS'w-2=officer'
p3619
I3773
sS'w-2=normalcy'
p3620
I3762
sS'w+2=Sunni'
p3621
I1973
sS'w-2=activist'
p3622
I3444
sS'nsubj=blaze'
p3623
I885
sS'w+2=2008'
p3624
I1882
sS'nsubj=transition'
p3625
I1274
sS'w-2=Afghans'
p3626
I3259
sS'w+2=for'
p3627
I2194
sS'w+2=notion'
p3628
I2339
sS'nsubj=flurry'
p3629
I1020
sS'nsubj=Alliance'
p3630
I685
sS'w-1=drought'
p3631
I2912
sS'w-2=palestinian'
p3632
I3794
sS'dobj=die'
p3633
I512
sS'w+2=more'
p3634
I2318
sS'w+2=reaction'
p3635
I2404
sS'w+1=interrogate'
p3636
I1627
sS'nsubj=head'
p3637
I1040
sS'nsubj=Vietnam'
p3638
I839
sS'nsubj=IOM'
p3639
I745
sS'conj=accuse'
p3640
I298
sS'nsubj=survey'
p3641
I1251
sS'w+2=mideast'
p3642
I2309
sS'w-1=deal'
p3643
I2901
sS'nsubj=facility'
p3644
I1005
sS'xcomp=air'
p3645
I4026
sS'nsubj=avenue'
p3646
I879
sS'nsubj=Union'
p3647
I838
sS'w-1=democracy'
p3648
I2904
sS'w+2=southern'
p3649
I2510
sS'w+1=circulate'
p3650
I1511
sS'conj=extend'
p3651
I330
sS'w+1=shut'
p3652
I1765
sS'w+2=slip'
p3653
I2501
sS'w-1=president'
p3654
I3079
sS'w-1=Court'
p3655
I2678
sS'w-1=Elvis'
p3656
I2688
sS'xcomp=embark'
p3657
I4125
sS'w-2=week'
p3658
I3993
sS'w+2=afterward'
p3659
I1999
sS'dep=because'
p3660
I414
sS'w+2=action'
p3661
I1991
sS'dobj=construction'
p3662
I491
sS'w+2=against'
p3663
I2001
sS'conj=wait'
p3664
I391
sS'w+1=nearly'
p3665
I1665
sS'advcl=focus'
p3666
I43
sS'xcomp=slow'
p3667
I4332
sS'w-2=communist'
p3668
I3540
sS'w+2=22'
p3669
I1885
sS'nsubj=Basongora'
p3670
I693
sS'w-1=record'
p3671
I3102
sS'w+2=25'
p3672
I1886
sS'w-2=military'
p3673
I3736
sS'xcomp=lose'
p3674
I4208
sS'w-1=push'
p3675
I3091
sS'w+2=reduce'
p3676
I2419
sS'w+1=make'
p3677
I1652
sS'w+2=whether'
p3678
I2619
sS'w+2=nato-led'
p3679
I2326
sS'nsubj=Fitr'
p3680
I730
sS'nsubj=exodus'
p3681
I999
sS'tmod=today'
p3682
I1415
sS'w+2=26'
p3683
I1889
sS'w-2=aid'
p3684
I3458
sS'w-2=Union'
p3685
I3425
sS'xcomp=learn'
p3686
I4199
sS'w+2=three'
p3687
I2559
sS'w+2=28'
p3688
I1891
sS'w-1=activism'
p3689
I2798
sS'w-2=aim'
p3690
I3459
sS'w+1=cooperate'
p3691
I1532
sS'dep=serve'
p3692
I443
sS'w+1=two'
p3693
I1810
sS'w+2=Asia'
p3694
I1904
sS'nsubj=bipedalism'
p3695
I883
sS'w-1=Washington'
p3696
I2794
sS'ccomp=serve'
p3697
I279
sS'w+1=estrogen'
p3698
I1579
sS'nsubj=fall'
p3699
I1006
sS'w+2=electricity'
p3700
I2139
sS'w-2=ready'
p3701
I3854
sS'w-2=Mina'
p3702
I3359
sS'nsubj=result'
p3703
I1200
sS'xcomp=investigate'
p3704
I4195
sS'w-2=vote'
p3705
I3985
sS'w+1=implement'
p3706
I1621
sS'prep=for'
p3707
I1370
sS'w+1=buffet'
p3708
I1496
sS'advcl=reach'
p3709
I82
sS'nsubj=force'
p3710
I1023
sS'w-2=together'
p3711
I3960
sS'w-1=dream'
p3712
I2910
sS'w+2=they'
p3713
I2553
sS'w+2=perilous'
p3714
I2373
sS'xcomp=grapple'
p3715
I4175
sS'nsubj=Bush'
p3716
I699
sS'w+2=at'
p3717
I2026
sS'w-2=generation'
p3718
I3645
sS'w+1=Sunday'
p3719
I1448
sS'nsubj=media'
p3720
I1087
sS'w+2=as'
p3721
I2023
sS'dobj=investigation'
p3722
I549
sS'nsubj=politician'
p3723
I1152
sS'dep=make'
p3724
I431
sS'w+2=local'
p3725
I2286
sS'prep=start'
p3726
I1385
sS'w+2=return'
p3727
I2438
sS'dobj=Championships'
p3728
I463
sS'w-2=satellite'
p3729
I3882
sS'dobj=outcome'
p3730
I566
sS'w-2=joint'
p3731
I3699
sS'w+2=document'
p3732
I2120
sS'w+1=45'
p3733
I1427
sS'xcomp=modernize'
p3734
I4217
sS'w-2=`'
p3735
I3438
sS'w+1=conduct'
p3736
I1520
sS'w+2=Australia'
p3737
I1906
sS'conj=organize'
p3738
I360
sS'w-2=with'
p3739
I4004
sS'xcomp=post'
p3740
I4245
sS'w+2=loosen'
p3741
I2290
sS'nsubj=war'
p3742
I1303
sS'conj=reach'
p3743
I367
sS'w+2=India'
p3744
I1929
sS'advmod=always'
p3745
I137
sS'w+1=soon'
p3746
I1772
sS'w+2=quiet'
p3747
I2401
sS'w-1=controversy'
p3748
I2885
sS'w-2=Bird'
p3749
I3274
sS'w+1=fight'
p3750
I1589
sS'w+2=breed'
p3751
I2046
sS'nsubj=credibility'
p3752
I949
sS'w+2=immediate'
p3753
I2239
sS'w+2=correct'
p3754
I2087
sS'advcl=wind'
p3755
I123
sS'w-2=ought'
p3756
I3789
sS'nsubj=parliament'
p3757
I1129
sS'nsubj=Schubert'
p3758
I808
sS'xcomp=return'
p3759
I4294
sS'dobj=Tonight'
p3760
I467
sS'dobj=tour'
p3761
I633
sS'w+1=dismantle'
p3762
I1560
sS'nsubj=rumor'
p3763
I1208
sS'w-2=Oscar'
p3764
I3378
sS'w+1=capture'
p3765
I1505
sS'w+2=task'
p3766
I2544
sS'xcomp=schedule'
p3767
I4304
sS'w+1=Orang'
p3768
I1443
sS'advcl=recall'
p3769
I83
sS'w+2=humanitarian'
p3770
I2235
sS'w-2=coffee'
p3771
I3529
sS'w+2=she'
p3772
I2481
sS'xcomp=de-authorize'
p3773
I4095
sS'conj=increase'
p3774
I344
sS'nsubj=Eskom'
p3775
I724
sS'nsubj=mining'
p3776
I1091
sS'xcomp=tilt'
p3777
I4360
sS'w+2=with'
p3778
I2624
sS'w+2=play'
p3779
I2382
sS'w+2=divide'
p3780
I2117
sS'w-2=-rrb-'
p3781
I3237
sS'w+2=Captain'
p3782
I1910
sS'w-2=expect'
p3783
I3614
sS'xcomp=root'
p3784
I4299
sS'w+2=Vienna'
p3785
I1983
sS'w-1=rocket'
p3786
I3118
sS'prep=off'
p3787
I1380
sS'advcl=continue'
p3788
I26
sS'nsubj=matter'
p3789
I1084
sS'w-1=people'
p3790
I3062
sS'w+2=aim'
p3791
I2007
sS'nsubj=path'
p3792
I1134
sS'nsubj=biggest'
p3793
I882
sS'w+2=roll'
p3794
I2445
sS'ccomp=use'
p3795
I289
sS'w+2=aid'
p3796
I2006
sS'w-2=apec'
p3797
I3477
sS'nsubj=bulldozer'
p3798
I896
sS'w-2=violence'
p3799
I3983
sS'w-2=month'
p3800
I3744
sS'w+2=or'
p3801
I2356
sS'w+2=community'
p3802
I2077
sS'w-2=passenger'
p3803
I3802
sS'w-2=artist'
p3804
I3481
sS'nsubj=exchange'
p3805
I995
sS'w-2=Muslims'
p3806
I3367
sS'w-2=Wednesday'
p3807
I3433
sS'w+2=official'
p3808
I2347
sS'w+1=assess'
p3809
I1480
sS'dobj=future'
p3810
I536
sS'w-1=resident'
p3811
I3112
sS'w+2=on'
p3812
I2349
sS'w-1=immediately'
p3813
I2973
sS'ccomp=profit'
p3814
I267
sS'dobj=deal-making'
p3815
I504
sS'w-1=polio'
p3816
I3074
sS'w+1=declare'
p3817
I1542
sS'nsubj=capital'
p3818
I901
sS'conj=determine'
p3819
I318
sS'prep=into'
p3820
I1375
sS'w-2=development'
p3821
I3582
sS'xcomp=tour'
p3822
I4361
sS'nsubj=affair'
p3823
I855
sS'w-1=uprising'
p3824
I3195
sS'nsubj=research'
p3825
I1196
sS'w-2=neck'
p3826
I3753
sS'w-1=Moscow'
p3827
I2739
sS'w+2=hurt'
p3828
I2237
sS'w+2=part'
p3829
I2367
sS'nsubj=mayhem'
p3830
I1085
sS'w+1=heart-healthy'
p3831
I1612
sS'w-2=Ehud'
p3832
I3308
sS'w+2=planning'
p3833
I2380
sS'prep=without'
p3834
I1394
sS'w-1=slum'
p3835
I3137
sS'w+1=dip'
p3836
I1555
sS'w-2=past'
p3837
I3803
sS'w-1=report'
p3838
I3108
sS'w-1=command'
p3839
I2872
sS'w-1=finally'
p3840
I2937
sS'w-2=holiday'
p3841
I3668
sS'w+2=voice'
p3842
I2601
sS'w+1=die'
p3843
I1553
sS'w-1=Chad'
p3844
I2670
sS'w-1=she'
p3845
I3129
sS'w+1=breast-feeding'
p3846
I1492
sS'w+1=lend'
p3847
I1644
sS'w+2=from'
p3848
I2202
sS'w+2=two'
p3849
I2586
sS'w+2=ceremony'
p3850
I2062
sS'csubj=fight'
p3851
I398
sS'advmod=next'
p3852
I176
sS'advmod=often'
p3853
I182
sS'nsubj=Campaign'
p3854
I702
sS'w-1=Myung-bak'
p3855
I2743
sS'w-1=Puntland'
p3856
I2760
sS'w+1=speak'
p3857
I1773
sS'nsubj=explorer'
p3858
I1003
sS'w-2=checkpoint'
p3859
I3521
sS'w+1=negotiation'
p3860
I1667
sS'w-2=kilometer'
p3861
I3704
sS'nsubj=Maliki'
p3862
I768
sS'dobj=shutdown'
p3863
I614
sS'w-1=Ethiopians'
p3864
I2690
sS'w-2=transition'
p3865
I3965
sS'w+1=over'
p3866
I1684
sS'xcomp=close'
p3867
I4072
sS'w-2=Iran'
p3868
I3333
sS'nsubj=gear'
p3869
I1031
sS'w+2=Hollywood'
p3870
I1926
sS'w-2=stall'
p3871
I3923
sS'w+1=invest'
p3872
I1629
sS'w-2=training-induced'
p3873
I3964
sS'w-2=ugandan'
p3874
I3975
sS'xcomp=practice'
p3875
I4248
sS'w-2=salary'
p3876
I3881
sS'w+1=battle'
p3877
I1485
sS'xcomp=flourish'
p3878
I4156
sS'w-1=brain'
p3879
I2841
sS'prep=begin'
p3880
I1363
sS'w-2=Condoleezza'
p3881
I3289
sS'dobj=art'
p3882
I475
sS'w-2=Iraq'
p3883
I3334
sS'w+1=Whibley'
p3884
I1453
sS'xcomp=feed'
p3885
I4148
sS'advcl=due'
p3886
I34
sS'prep=until'
p3887
I1391
sS'xcomp=agree'
p3888
I4025
sS'xcomp=mushroom'
p3889
I4219
sS'xcomp=feel'
p3890
I4149
sS'nsubj=icc'
p3891
I1045
sS'dobj=procedure'
p3892
I581
sS'w-1=trophy'
p3893
I3189
sS'nsubj=talk'
p3894
I1252
sS'w-2=seller'
p3895
I3892
sS'dobj=when'
p3896
I650
sS'xcomp=dismantle'
p3897
I4112
sS'conj=reject'
p3898
I368
sS'w+2=food'
p3899
I2193
sS'xcomp=replace'
p3900
I4287
sS'dobj=hajj'
p3901
I539
sS'w+2=adventure'
p3902
I1996
sS'nsubj=Academy'
p3903
I677
sS'w+2=nominating'
p3904
I2334
sS'w-2=if'
p3905
I3676
sS'xcomp=volunteer'
p3906
I4382
sS'w+2=news'
p3907
I2331
sS'w-2=public'
p3908
I3845
sS'w-2=India'
p3909
I3330
sS'w+1=run'
p3910
I1741
sS'w+2=voter'
p3911
I2602
sS'xcomp=confirm'
p3912
I4077
sS'advmod=already'
p3913
I135
sS'nsubj=Authority'
p3914
I691
sS'nsubj=eid'
p3915
I988
sS'w+2=rule'
p3916
I2448
sS'dep=old'
p3917
I435
sS'w+2=1854'
p3918
I1855
sS'expl=there'
p3919
I655
sS'w+2=U.S.'
p3920
I1979
sS'w+2=Hamas'
p3921
I1924
sS'w-1=City'
p3922
I2674
sS'nsubj=success'
p3923
I1245
sS'nsubj=people'
p3924
I1138
sS'w-1=hiv'
p3925
I2967
sS'conj=search'
p3926
I371
sS'w+2=dash'
p3927
I2098
sS'w-1=superstar'
p3928
I3154
sS'nsubj=commander'
p3929
I923
sS'w+2=lethal'
p3930
I2281
sS'w-2=in'
p3931
I3681
sS'w+1=discussion'
p3932
I1559
sS'w+2=tire'
p3933
I2565
sS'dobj=verification'
p3934
I643
sS'w-2=Davis'
p3935
I3300
sS'w+2=people'
p3936
I2372
sS'w-2=Acehnese'
p3937
I3257
sS'xcomp=start'
p3938
I4340
sS'w+1=line'
p3939
I1647
sS'w-2=Fed'
p3940
I3313
sS'nsubj=mass'
p3941
I1083
sS'w-1=journey'
p3942
I2984
sS'w-1=Hollywood'
p3943
I2714
sS'w-2=president'
p3944
I3825
sS'w-1=quartet'
p3945
I3092
sS'w+2=ton'
p3946
I2568
sS'w-1=woman'
p3947
I3219
sS'w+1=seep'
p3948
I1748
sS'w-1=song'
p3949
I3142
sS'nsubj=Sharif'
p3950
I812
sS'w-1=body'
p3951
I2839
sS'w-2=television'
p3952
I3943
sS'prep=from'
p3953
I1371
sS'nsubj=command'
p3954
I922
sS'nsubj=Obama'
p3955
I786
sS'nsubj=deal'
p3956
I957
sS'w+1=one'
p3957
I1676
sS'w+2=address'
p3958
I1993
sS'w+2=week'
p3959
I2611
sS'w-2=peruvian'
p3960
I3808
sS'w+2=Calcutta'
p3961
I1908
sS'w-1=Ugandans'
p3962
I2791
sS'nsubj=reinforcement'
p3963
I1188
sS'advcl=open'
p3964
I72
sS'advcl=young'
p3965
I125
sS'w+2=sexual'
p3966
I2478
sS'w+2=August'
p3967
I1905
sS"w+2=''"
p3968
I1840
sS'nsubj=country'
p3969
I945
sS'w-2=office'
p3970
I3772
sS'w-2=explosion'
p3971
I3618
sS'nsubj=old'
p3972
I1114
sS'w-1=reportedly'
p3973
I3109
sS'w+2=November'
p3974
I1955
sS'nsubj=Knowles'
p3975
I760
sS'w+2=Mississippi'
p3976
I1948
sS'advmod=nonetheless'
p3977
I177
sS'w-2=resettlement'
p3978
I3867
sS'w+2=weaken'
p3979
I2608
sS'w+2=balloting'
p3980
I2032
sS'w+1=follow'
p3981
I1594
sS'conj=try'
p3982
I388
sS'conj=culminate'
p3983
I314
sS'nsubj=struggle'
p3984
I1241
sS'w-1=Zubaydah'
p3985
I2796
sS'w+2=gather'
p3986
I2205
sS'w-1=visitor'
p3987
I3202
sS'w+1=even'
p3988
I1581
sS'w-1=pilgrim'
p3989
I3067
sS'w-2=agreeable'
p3990
I3455
sS'w-2=program'
p3991
I3838
sS'w-2=separate'
p3992
I3893
sS'nsubj=Senate'
p3993
I810
sS'xcomp=flout'
p3994
I4157
sS'w-1=work'
p3995
I3220
sS'w+2=arrive'
p3996
I2022
sS'w+2=admission'
p3997
I1994
sS'w+2=six'
p3998
I2498
sS'conj=work'
p3999
I393
sS'nsubj=exercise'
p4000
I997
sS'w+1=celebrate'
p4001
I1506
sS'xcomp=get'
p4002
I4171
sS'tmod=June'
p4003
I1402
sS'w+1=ten'
p4004
I1788
sS'prep=under'
p4005
I1390
sS'dobj=dash'
p4006
I501
sS'w-1=Convention'
p4007
I2677
sS'w+2=ease'
p4008
I2132
sS'w-1=artist'
p4009
I2822
sS'nsubj=Tsvangirai'
p4010
I833
sS'dobj=countdown'
p4011
I495
sS'w-1=Baghdad'
p4012
I2657
sS'w-2=setting'
p4013
I3896
sS'w-2=climate'
p4014
I3526
sS'w-2=Tibet'
p4015
I3418
sS'w-2=summit'
p4016
I3934
sS'w-1=initiative'
p4017
I2977
sS'w+2=sacred'
p4018
I2452
sS'w-1=but'
p4019
I2847
sS"w+2='s"
p4020
I1841
sS'nsubj=film'
p4021
I1015
sS'xcomp=cut'
p4022
I4094
sS'w+1=50'
p4023
I1428
sS'w-2=security'
p4024
I3889
sS'w+1=January'
p4025
I1436
sS'w+2=spread'
p4026
I2516
sS'w+2=step'
p4027
I2522
sS'w-2=intention'
p4028
I3690
sS'w-1=already'
p4029
I2812
sS'w+2=support'
p4030
I2536
sS'w-1=health'
p4031
I2964
sS'w+2=subside'
p4032
I2530
sS'ccomp=pursue'
p4033
I268
sS'mark=until'
p4034
I667
sS'w+1=downsize'
p4035
I1564
sS'xcomp=deliver'
p4036
I4101
sS'partmod=start'
p4037
I1339
sS'w-2=2011'
p4038
I3249
sS'w-1=crackdown'
p4039
I2893
sS'advcl=child'
p4040
I21
sS'w-1=opinion'
p4041
I3042
sS'nsubj=AFN'
p4042
I673
sS'nsubj=crisis'
p4043
I952
sS'w+2=October'
p4044
I1957
sS'w+2=contracting'
p4045
I2085
sS'partmod=destroy'
p4046
I1331
sS'w-1=production'
p4047
I3084
sS'w+1=publish'
p4048
I1710
sS'nsubj=boat'
p4049
I886
sS'w-2=campaign'
p4050
I3508
sS'w-1=Ceyhan'
p4051
I2669
sS'w-1=trader'
p4052
I3178
sS'w-1=standoff'
p4053
I3147
sS'w-1=Americans'
p4054
I2654
sS'w-1=follower'
p4055
I2942
sS'w+2=before'
p4056
I2036
sS'w+2=drawdown'
p4057
I2126
sS'w-2=Supreme'
p4058
I3410
sS'dobj=overnight'
p4059
I568
sS'dobj=evacuation'
p4060
I528
sS'w+2=fire'
p4061
I2181
sS'w+2=trip'
p4062
I2580
sS'advcl=determine'
p4063
I30
sS'w+2=2000'
p4064
I1876
sS'w+2=draw'
p4065
I2125
sS'dobj=image'
p4066
I546
sS'w+2=2004'
p4067
I1880
sS'w+2=negotiation'
p4068
I2328
sS'w+1=tax'
p4069
I1786
sS'w+2=struggle'
p4070
I2526
sS'dobj=dialogue'
p4071
I510
sS'w-1=soon'
p4072
I3143
sS'nsubj=commercial'
p4073
I924
sS'mark=before'
p4074
I661
sS'xcomp=atone'
p4075
I4040
sS'nsubj=thing'
p4076
I1259
sS'advmod=back'
p4077
I141
sS'w-1=administration'
p4078
I2801
sS'w+2=violently'
p4079
I2599
sS'w-2=Arabs'
p4080
I3267
sS'w-2=Africans'
p4081
I3261
sS'dobj=ritual'
p4082
I601
sS'w+2=remember'
p4083
I2427
sS'w-1=patient'
p4084
I3059
sS'w+2=visit'
p4085
I2600
sS'w-2=talk'
p4086
I3939
sS'w+2=freedom'
p4087
I2201
sS'w-1=North'
p4088
I2749
sS'partmod=focus'
p4089
I1332
sS'ccomp=turn'
p4090
I288
sS'w-2=primary'
p4091
I3829
sS'xcomp=object'
p4092
I4223
sS'nsubj=market'
p4093
I1082
sS'w+2=Liverpool'
p4094
I1942
sS'w+2=malaria'
p4095
I2294
sS'xcomp=conduct'
p4096
I4076
sS'ccomp=legacy'
p4097
I254
sS'xcomp=understand'
p4098
I4373
sS'w+2=global'
p4099
I2209
sS'conj=know'
p4100
I351
sS'xcomp=prompt'
p4101
I4255
sS'nsubj=kidnapping'
p4102
I1066
sS'nsubj=Odinga'
p4103
I788
sS'w+1=three'
p4104
I1797
sS'w-2=southern'
p4105
I3918
sS'w-1=life'
p4106
I2995
sS'dobj=schedule'
p4107
I608
sS'w+2=3'
p4108
I1893
sS'w-1=raider'
p4109
I3095
sS'w-1=group'
p4110
I2958
sS'nsubj=caucus'
p4111
I904
sS'ccomp=leftist'
p4112
I253
sS'w-1=factor'
p4113
I2927
sS'w+1=agricultural'
p4114
I1460
sS'w-2=jewish'
p4115
I3698
sS'advcl=begin'
p4116
I16
sS'nsubj=astronaut'
p4117
I872
sS'w+1=-'
p4118
I1421
sS'w+1=Tuesday'
p4119
I1451
sS'w-2=prime'
p4120
I3830
sS'advmod=clearly'
p4121
I143
sS'w+2=presidential'
p4122
I2390
sS'w+1=leave'
p4123
I1643
sS'nsubj=Brown'
p4124
I698
sS'nsubj=Rompuy'
p4125
I805
sS'xcomp=rebuild'
p4126
I4269
sS'xcomp=win'
p4127
I4390
sS'nsubj=quartet'
p4128
I1174
sS'w+1=.'
p4129
I1422
sS'w-1=objection'
p4130
I3028
sS'w-1=job'
p4131
I2983
sS'nsubj=rerun'
p4132
I1195
sS'xcomp=strengthen'
p4133
I4342
sS'dep=move'
p4134
I433
sS'advcl=remove'
p4135
I88
sS'w+1=December'
p4136
I1433
sS'xcomp=form'
p4137
I4163
sS'xcomp=oxidize'
p4138
I4234
sS'conj=teach'
p4139
I384
sS'dobj=diving'
p4140
I517
sS'w-2=battle'
p4141
I3489
sS'advmod=alike'
p4142
I132
sS'w-1=contest'
p4143
I2884
sS'w+2=.'
p4144
I1845
sS'xcomp=recover'
p4145
I4275
sS'dobj=disable'
p4146
I514
sS'nsubj=farm'
p4147
I1009
sS'dobj=craft'
p4148
I498
sS'w-2=want'
p4149
I3988
sS'w+2=post'
p4150
I2385
sS'advmod=informally'
p4151
I163
sS'w-2=craft'
p4152
I3559
sS'w-1=leader'
p4153
I2991
sS'conj=see'
p4154
I372
sS'w-1=often'
p4155
I3035
sS'dobj=list'
p4156
I554
sS'conj=escalate'
p4157
I325
sS'w-2=coalition'
p4158
I3528
sS'w+2=worldwide'
p4159
I2632
sS'nsubj=ouster'
p4160
I1121
sS'w-1=Michigan'
p4161
I2737
sS'conj=priority'
p4162
I365
sS'w-2=Nations'
p4163
I3371
sS'w+1=no'
p4164
I1671
sS'w+1=broadcast'
p4165
I1495
sS'conj=set'
p4166
I373
sS'w-2=conference'
p4167
I3544
sS'w-2=medication'
p4168
I3730
sS'nsubj=Acehnese'
p4169
I678
sS'conj=involve'
p4170
I348
sS'nsubj=Americans'
p4171
I686
sS'tmod=#DATE#'
p4172
I1399
sS'w+1=uncover'
p4173
I1811
sS'w+2=count'
p4174
I2088
sS'w-2=older'
p4175
I3777
sS'w-1=collection'
p4176
I2869
sS'xcomp=seek'
p4177
I4309
sS'dobj=communication'
p4178
I487
sS'w-1=officer'
p4179
I3032
sS'nsubj=problem'
p4180
I1160
sS'prep=near'
p4181
I1378
sS'w-2=traffic'
p4182
I3962
sS'nsubj=Hanh'
p4183
I740
sS'w+1=infantry'
p4184
I1624
sS'ccomp=take'
p4185
I283
sS'w+2=parse'
p4186
I2366
sS'w+2=war'
p4187
I2605
sS'advmod=nearly'
p4188
I175
sS'w-2=agreement'
p4189
I3456
sS'advcl=visit'
p4190
I120
sS'w+1=name'
p4191
I1664
sS'w+2=meeting'
p4192
I2303
sS'w+2=1910'
p4193
I1858
sS'w+2=1912'
p4194
I1859
sS'dobj=protest'
p4195
I586
sS'w+1=Thursday'
p4196
I1449
sS'w-2=Tripoli'
p4197
I3420
sS'w-2=minister'
p4198
I3738
sS'w+2=closed'
p4199
I2069
sS'advcl=announce'
p4200
I7
sS'nsubj=Washington'
p4201
I841
sS'w-2=northerner'
p4202
I3765
sS'w+2=boom'
p4203
I2043
sS'xcomp=incorporate'
p4204
I4189
sS'w+2=illegal'
p4205
I2238
sS'w-2=say'
p4206
I3883
sS'w+2=the'
p4207
I2550
sS'prep=at'
p4208
I1360
sS'nsubj=U.S.'
p4209
I835
sS'xcomp=grieve'
p4210
I4177
sS'prep=as'
p4211
I1359
sS'w-1=Nancy'
p4212
I2744
sS'xcomp=verify'
p4213
I4380
sS'w-2=Dunedin'
p4214
I3303
sS'w-1=connection'
p4215
I2881
sS'w+1=charge'
p4216
I1508
sS'w-2=Nairobi'
p4217
I3368
sS'nsubj=Afghanistan'
p4218
I680
sS'w+1=deal-making'
p4219
I1539
sS'advcl=suspend'
p4220
I112
sS'w+2=shipment'
p4221
I2485
sS'xcomp=spread'
p4222
I4337
sS'xcomp=adaptation'
p4223
I4021
sS'w-1=quickly'
p4224
I3093
sS'w+1=peacefully'
p4225
I1688
sS'w+1=sprout'
p4226
I1775
sS'w-1=-'
p4227
I2639
sS'nsubj=second'
p4228
I1213
sS'w+2=material'
p4229
I2299
sS'w-1=Hatshepsut'
p4230
I2712
sS'w-1=guard'
p4231
I2959
sS'xcomp=share'
p4232
I4317
sS'w-2=identification'
p4233
I3674
sS'w-1=rate'
p4234
I3098
sS'w+2=shake'
p4235
I2479
sS'w+2=israeli'
p4236
I2261
sS'w+1=venture'
p4237
I1817
sS'w-2=Thursday'
p4238
I3417
sS'dobj=violence'
p4239
I645
sS'w-1=outbreak'
p4240
I3051
sS'prep=through'
p4241
I1387
sS'xcomp=contribute'
p4242
I4083
sS'w+2=one'
p4243
I2350
sS'xcomp=track'
p4244
I4362
sS'csubj=count'
p4245
I396
sS'w+1=another'
p4246
I1469
sS'nsubj=pace'
p4247
I1125
sS'w+1=resettle'
p4248
I1732
sS'prep=include'
p4249
I1374
sS'dobj=habit'
p4250
I538
sS'dobj=Republik'
p4251
I466
sS'w-2=case'
p4252
I3513
sS'xcomp=disable'
p4253
I4110
sS'w-2=controversy'
p4254
I3551
sS'advcl=grow'
p4255
I50
sS'nsubj=McCain'
p4256
I770
sS'w-2=willing'
p4257
I4003
sS'w-2=Brown'
p4258
I3277
sS'w+1=modernize'
p4259
I1659
sS'nsubj=coffee'
p4260
I919
sS'nsubj=fighter'
p4261
I1013
sS'w+1=press'
p4262
I1702
sS'w+2=normalize'
p4263
I2338
sS'dobj=period'
p4264
I572
sS'w+2=lobby'
p4265
I2285
sS'w+1=remove'
p4266
I1727
sS'w-2=so'
p4267
I3912
sS'nsubj=city'
p4268
I913
sS'dobj=checkpoint'
p4269
I486
sS'nsubj=rate'
p4270
I1180
sS'w-2=House'
p4271
I3326
sS'w-1=province'
p4272
I3090
sS'w+2=security'
p4273
I2465
sS'dobj=service'
p4274
I612
sS'w-1=music'
p4275
I3018
sS'dobj=school'
p4276
I609
sS'advcl=seek'
p4277
I98
sS'ccomp=think'
p4278
I287
sS'w+2=professionally'
p4279
I2393
sS'w-1=-rrb-'
p4280
I2640
sS'xcomp=sign'
p4281
I4327
sS'nsubj=measure'
p4282
I1086
sS'w+2=Aborigines'
p4283
I1899
sS'w+1=again'
p4284
I1459
sS'w-2=IAEA'
p4285
I3329
sS'w-2=Kronos'
p4286
I3349
sS'w-1=Cambodia'
p4287
I2668
sS'w+1=hold'
p4288
I1616
sS'w+1=rapidly'
p4289
I1716
sS'w-2=fighting'
p4290
I3626
sS'ccomp=leave'
p4291
I252
sS'ccomp=teach'
p4292
I284
sS'w-2=industrial'
p4293
I3685
sS'w-1=Eskom'
p4294
I2689
sS'w+2=reign'
p4295
I2423
sS'nsubj=timetable'
p4296
I1264
sS'advmod=than'
p4297
I202
sS'w+2=cure'
p4298
I2097
sS'w+1=large-scale'
p4299
I1637
sS'w-2=year'
p4300
I4013
sS'w-2=register'
p4301
I3863
sS'xcomp=resettle'
p4302
I4288
sS'nsubj=count'
p4303
I943
sS'nsubj=fraud'
p4304
I1024
sS'w+2=impeachment'
p4305
I2242
sS'w-2=once'
p4306
I3779
sS'w+2=evacuation'
p4307
I2154
sS'w-2=call'
p4308
I3505
sS'w+2=retire'
p4309
I2437
sS'dobj=year'
p4310
I654
sS'w+1=fall'
p4311
I1587
sS'w+1=last'
p4312
I1639
sS'nsubj=Phoenix'
p4313
I794
sS'nsubj=shopper'
p4314
I1222
sS'w-2=both'
p4315
I3498
sS'w-2=lebanese'
p4316
I3711
sS'advcl=hold'
p4317
I57
sS'conj=aresuspicion'
p4318
I302
sS'nsubj=trip'
p4319
I1279
sS'w+2=encounter'
p4320
I2144
sS'conj=move'
p4321
I358
sS'w-1=Guinea'
p4322
I2707
sS'advmod=how'
p4323
I160
sS'dobj=fight'
p4324
I532
sS'nsubj=bottleneck'
p4325
I891
sS'nsubj=restoration'
p4326
I1199
sS'w-1=datum'
p4327
I2899
sS'w+1=consider'
p4328
I1523
sS'w-1=waterboarding'
p4329
I3210
sS'w+1=conversation'
p4330
I1530
sS'w-1=News'
p4331
I2746
sS'dobj=offensive'
p4332
I563
sS'advmod=out'
p4333
I185
sS'w-1=member'
p4334
I3008
sS'nsubj=corruption'
p4335
I941
sS'nsubj=outage'
p4336
I1122
sS'w+1=after'
p4337
I1458
sS'w-1=address'
p4338
I2800
sS'w-1=Lebanon'
p4339
I2734
sS'w-2=panic'
p4340
I3796
sS'w-2=command'
p4341
I3533
sS'w-1=we'
p4342
I3211
sS'w-2=political'
p4343
I3818
sS'nsubj=Zimbabwe'
p4344
I844
sS'w-2=rebel'
p4345
I3856
sS'w+2=February'
p4346
I1921
sS'w-2=latest'
p4347
I3707
sS'w+1=prepare'
p4348
I1700
sS'ccomp=plan'
p4349
I265
sS'advcl=travel'
p4350
I118
sS'w+2=parliament'
p4351
I2365
sS'w+1=60'
p4352
I1429
sS'w+2=8'
p4353
I1898
sS'nsubj=worker'
p4354
I1315
sS'w-1=negotiation'
p4355
I3022
sS'advcl=report'
p4356
I91
sS'nsubj=farmland'
p4357
I1011
sS'w+2=1'
p4358
I1847
sS'advmod=later'
p4359
I170
sS'w+2=7'
p4360
I1897
sS'nsubj=volcano'
p4361
I1297
sS'nsubj=activism'
p4362
I849
sS'nsubj=Ugandans'
p4363
I837
sS'nsubj=protester'
p4364
I1170
sS'w+1=some'
p4365
I1770
sS'w+2=week-long'
p4366
I2612
sS'nsubj=Iraq'
p4367
I751
sS'w+2=-'
p4368
I1843
sS'w-2=nightly'
p4369
I3759
sS'w+2=recover'
p4370
I2415
sS'w+2=!'
p4371
I1839
sS'mark=so'
p4372
I666
sS'w-1=ordeal'
p4373
I3046
sS'dobj=war'
p4374
I647
sS'w-2=productivity'
p4375
I3836
sS'w+2=refuel'
p4376
I2422
sS'w+1=rioting'
p4377
I1737
sS'w-2=reluctant'
p4378
I3864
sS'ccomp=obligation'
p4379
I262
sS'w+2=I'
p4380
I1928
sS'nsubj=goal'
p4381
I1035
sS'advcl=president'
p4382
I79
sS'advmod=usually'
p4383
I209
sS'w+2=sectarian'
p4384
I2464
sS'nsubj=occupant'
p4385
I1109
sS'w-1=comeback'
p4386
I2871
sS'w-1=what'
p4387
I3212
sS'nsubj=flyer'
p4388
I1021
sS'w-1=attitude'
p4389
I2826
sS'nsubj=cease-fire'
p4390
I905
sS'w+1=but'
p4391
I1499
sS'w+1=deploy'
p4392
I1547
sS'w-1=may'
p4393
I3002
sS'w+1=buy'
p4394
I1500
sS'w-1=man'
p4395
I2997
sS'w+2=impact'
p4396
I2241
sS'nsubj=review'
p4397
I1201
sS'nsubj=committee'
p4398
I926
sS'w+2=bid'
p4399
I2038
sS'w+2=a'
p4400
I1987
sS'xcomp=delineate'
p4401
I4100
sS'nsubj=zimbabwean'
p4402
I1320
sS'advmod=typically'
p4403
I207
ssS'dtype'
p4404
cnumpy
float64
p4405
sS'feature_names_'
p4406
(lp4407
g3034
ag1990
ag896
ag2179
ag848
ag43
ag1001
ag4200
ag2959
ag1193
ag3387
ag474
ag179
ag3119
ag2735
ag1549
ag4116
ag2338
ag1974
ag223
ag1823
ag4040
ag2088
ag2756
ag1216
ag756
ag3788
ag835
ag3379
ag2290
ag4063
ag3050
ag1354
ag1385
ag3886
ag3345
ag1924
ag2343
ag3314
ag1235
ag448
ag3141
ag2308
ag3666
ag2834
ag3411
ag3606
ag2495
ag3151
ag1520
ag4255
ag861
ag2752
ag3445
ag865
ag3064
ag1469
ag4317
ag681
ag1740
ag2370
ag1884
ag3209
ag3177
ag3208
ag2435
ag3148
ag64
ag659
ag317
ag1656
ag3164
ag3964
ag455
ag1313
ag2522
ag3300
ag10
ag3066
ag4382
ag2350
ag2471
ag3709
ag3769
ag1296
ag240
ag3201
ag2246
ag4135
ag1191
ag3122
ag4356
ag2461
ag2333
ag3071
ag289
ag1084
ag1855
ag4277
ag2786
ag3334
ag1845
ag468
ag388
ag530
ag1145
ag1425
ag216
ag623
ag3166
ag2656
ag828
ag4220
ag411
ag2307
ag1596
ag2293
ag2405
ag4350
ag307
ag4190
ag2371
ag3107
ag3755
ag2452
ag3965
ag2525
ag3301
ag3088
ag2049
ag2521
ag3531
ag4142
ag805
ag1518
ag3913
ag697
ag3745
ag1331
ag1951
ag1279
ag4077
ag1640
ag4121
ag1696
ag3309
ag2577
ag1858
ag327
ag2803
ag2818
ag154
ag636
ag1646
ag2382
ag158
ag3337
ag608
ag253
ag2369
ag4323
ag2542
ag3174
ag4151
ag2628
ag2509
ag1456
ag1187
ag1319
ag114
ag4359
ag2230
ag1433
ag15
ag3026
ag4188
ag3852
ag3977
ag417
ag3109
ag1358
ag2646
ag3853
ag3460
ag1291
ag4333
ag1472
ag589
ag1318
ag3115
ag2208
ag2378
ag3382
ag1954
ag2207
ag1189
ag1675
ag2159
ag1182
ag3418
ag943
ag123
ag4297
ag1115
ag1719
ag582
ag607
ag4403
ag3118
ag4383
ag3323
ag2589
ag277
ag1613
ag719
ag1962
ag2394
ag3232
ag3289
ag1271
ag267
ag205
ag2036
ag1197
ag2544
ag952
ag1837
ag2829
ag3506
ag2631
ag2919
ag1868
ag3591
ag92
ag1029
ag1496
ag624
ag840
ag497
ag3306
ag11
ag1677
ag3553
ag377
ag845
ag3237
ag2856
ag2334
ag160
ag2262
ag1052
ag2808
ag4291
ag4112
ag4097
ag260
ag1699
ag404
ag1572
ag3129
ag1041
ag2479
ag4379
ag3528
ag2486
ag4349
ag1984
ag3814
ag4033
ag1430
ag730
ag903
ag2533
ag1626
ag401
ag3273
ag140
ag3286
ag1221
ag3697
ag2580
ag1643
ag490
ag4185
ag4292
ag2402
ag324
ag4278
ag4090
ag3795
ag2785
ag3592
ag685
ag2444
ag1616
ag2345
ag3184
ag1232
ag3640
ag3149
ag1769
ag3039
ag4318
ag321
ag939
ag264
ag421
ag395
ag631
ag2440
ag86
ag2310
ag1799
ag316
ag3983
ag2649
ag1107
ag2065
ag3819
ag423
ag3515
ag1682
ag1942
ag1309
ag2154
ag4157
ag616
ag235
ag796
ag930
ag3651
ag655
ag2187
ag3347
ag1112
ag1480
ag3080
ag258
ag338
ag2726
ag2058
ag1409
ag18
ag2031
ag3774
ag3435
ag740
ag2257
ag4170
ag3182
ag1350
ag4100
ag2584
ag94
ag428
ag2235
ag1011
ag1180
ag4321
ag1782
ag3738
ag229
ag486
ag422
ag1050
ag4162
ag1773
ag3743
ag3898
ag2210
ag66
ag3926
ag4154
ag4166
ag1411
ag3279
ag1027
ag2413
ag1436
ag880
ag2200
ag318
ag578
ag1944
ag4139
ag1541
ag2411
ag1789
ag3982
ag1108
ag864
ag3664
ag2383
ag3999
ag2721
ag2744
ag4245
ag749
ag3851
ag1259
ag986
ag3211
ag725
ag1937
ag2317
ag2053
ag1547
ag1683
ag1466
ag2709
ag2174
ag516
ag3027
ag886
ag3660
ag1591
ag902
ag673
ag893
ag804
ag849
ag924
ag992
ag2840
ag3274
ag1103
ag2949
ag320
ag526
ag2989
ag1733
ag3724
ag2717
ag4134
ag2205
ag3917
ag2360
ag1250
ag2099
ag380
ag1539
ag829
ag102
ag3692
ag1205
ag3467
ag614
ag2549
ag942
ag2010
ag3450
ag1557
ag2711
ag2082
ag559
ag97
ag3179
ag84
ag3470
ag1673
ag3595
ag785
ag334
ag3728
ag1244
ag1276
ag4251
ag3760
ag3017
ag38
ag2748
ag1429
ag2938
ag443
ag722
ag3882
ag663
ag1104
ag2304
ag1915
ag820
ag3002
ag590
ag2354
ag1652
ag2974
ag4269
ag4178
ag2663
ag1178
ag206
ag3662
ag988
ag1801
ag1882
ag4011
ag1127
ag1135
ag4148
ag3234
ag73
ag4006
ag2397
ag798
ag3815
ag1415
ag1956
ag1379
ag3361
ag2077
ag4071
ag2687
ag3633
ag606
ag4146
ag542
ag2109
ag4140
ag921
ag3212
ag287
ag1174
ag1195
ag1372
ag3486
ag2433
ag720
ag891
ag4060
ag2689
ag3405
ag405
ag4324
ag2634
ag620
ag875
ag3810
ag2256
ag4250
ag3901
ag2089
ag385
ag1726
ag2982
ag2021
ag283
ag4066
ag1440
ag759
ag3722
ag3262
ag859
ag3526
ag705
ag4156
ag2274
ag310
ag3471
ag2798
ag2725
ag2528
ag1065
ag2285
ag4332
ag1081
ag2282
ag3730
ag1702
ag4059
ag3089
ag1420
ag1910
ag4264
ag3459
ag1635
ag1337
ag3247
ag3434
ag1424
ag1450
ag2165
ag3892
ag3416
ag3081
ag1323
ag1114
ag4195
ag3123
ag1117
ag2145
ag1811
ag2596
ag2888
ag1036
ag1785
ag1668
ag3253
ag1183
ag3032
ag2425
ag1648
ag4082
ag438
ag3072
ag3537
ag1273
ag51
ag2092
ag4107
ag4276
ag558
ag3427
ag4274
ag710
ag3863
ag1748
ag464
ag1685
ag2984
ag1850
ag2858
ag1780
ag2616
ag1510
ag2302
ag1085
ag1550
ag758
ag757
ag1171
ag3155
ag3509
ag713
ag3761
ag2428
ag2781
ag238
ag2643
ag1282
ag3020
ag270
ag807
ag2296
ag3934
ag329
ag4239
ag2047
ag4374
ag573
ag2875
ag3896
ag1363
ag3541
ag234
ag4310
ag3919
ag198
ag826
ag702
ag3613
ag3425
ag4074
ag2561
ag2454
ag966
ag2137
ag4372
ag4034
ag612
ag2198
ag1080
ag2662
ag760
ag4042
ag1792
ag80
ag1875
ag3903
ag4169
ag1241
ag4218
ag905
ag2128
ag1888
ag531
ag3630
ag4171
ag2477
ag990
ag281
ag1022
ag3914
ag2221
ag3670
ag506
ag2950
ag24
ag2412
ag4124
ag3716
ag3429
ag2677
ag3854
ag441
ag629
ag1457
ag1201
ag3536
ag2048
ag701
ag1206
ag1842
ag2011
ag1566
ag2928
ag1218
ag345
ag408
ag1832
ag3183
ag1794
ag2915
ag2871
ag2283
ag3775
ag291
ag1921
ag1977
ag2792
ag1751
ag3680
ag3601
ag1973
ag2067
ag3336
ag146
ag2555
ag2526
ag1242
ag1705
ag4183
ag2125
ag3587
ag1360
ag2553
ag3639
ag481
ag3322
ag101
ag2729
ag148
ag4367
ag561
ag603
ag577
ag2374
ag862
ag351
ag2660
ag1493
ag3975
ag446
ag1395
ag1481
ag203
ag2427
ag3355
ag3189
ag3862
ag1948
ag4256
ag3169
ag3437
ag3545
ag2870
ag498
ag3221
ag28
ag1325
ag852
ag2940
ag1499
ag1427
ag544
ag3214
ag1798
ag3955
ag1002
ag4103
ag2591
ag79
ag3585
ag1460
ag372
ag4313
ag597
ag434
ag969
ag2851
ag2253
ag2624
ag1033
ag399
ag77
ag3579
ag4125
ag1473
ag1840
ag3758
ag447
ag3993
ag3340
ag3950
ag2233
ag2607
ag503
ag2815
ag3454
ag2124
ag2204
ag1744
ag181
ag2219
ag2615
ag3043
ag2213
ag2743
ag2909
ag164
ag2171
ag1529
ag2116
ag37
ag4010
ag212
ag4209
ag3577
ag4363
ag3647
ag3638
ag812
ag4201
ag2966
ag2277
ag4344
ag2906
ag3608
ag1793
ag2070
ag4362
ag3395
ag3063
ag3061
ag3581
ag1442
ag3823
ag958
ag2847
ag46
ag1581
ag1583
ag2702
ag3128
ag2833
ag3341
ag3194
ag618
ag3222
ag584
ag1627
ag1207
ag3271
ag4117
ag1151
ag1345
ag1274
ag2897
ag2033
ag2518
ag3646
ag1930
ag2074
ag3793
ag3695
ag2576
ag3623
ag4049
ag653
ag1604
ag2351
ag2476
ag4325
ag1031
ag633
ag1190
ag1836
ag3798
ag56
ag1048
ag1077
ag3038
ag3818
ag3068
ag910
ag4111
ag4390
ag1828
ag2025
ag3388
ag3046
ag879
ag2330
ag2239
ag4268
ag1006
ag3424
ag3516
ag2710
ag776
ag4260
ag1091
ag2465
ag3954
ag3929
ag4073
ag510
ag4398
ag639
ag369
ag1260
ag1342
ag2964
ag1633
ag2140
ag3121
ag1818
ag1098
ag1893
ag1577
ag2450
ag2162
ag4335
ag2264
ag4303
ag2280
ag3969
ag598
ag3135
ag679
ag3752
ag26
ag265
ag4043
ag2640
ag928
ag1805
ag1376
ag3956
ag1348
ag3494
ag1742
ag1923
ag2916
ag2161
ag2153
ag1703
ag1512
ag1866
ag3303
ag2762
ag1945
ag2648
ag1352
ag588
ag979
ag714
ag352
ag1163
ag400
ag3522
ag425
ag2500
ag1377
ag2508
ag1438
ag3175
ag1749
ag1574
ag3915
ag382
ag1370
ag247
ag1829
ag1632
ag1126
ag3805
ag1579
ag4000
ag3397
ag3681
ag2449
ag1624
ag297
ag3858
ag3474
ag3644
ag3699
ag654
ag2920
ag4147
ag346
ag4357
ag1859
ag4261
ag2714
ag4021
ag3065
ag3047
ag2941
ag3021
ag3629
ag4388
ag1267
ag3710
ag4304
ag2893
ag349
ag2802
ag507
ag3240
ag2420
ag3869
ag592
ag2899
ag3251
ag4381
ag3360
ag263
ag1985
ag2991
ag3637
ag2455
ag732
ag2513
ag218
ag3891
ag3362
ag657
ag586
ag210
ag1255
ag799
ag2806
ag2146
ag2550
ag1391
ag2387
ag3059
ag1552
ag3037
ag2214
ag2482
ag42
ag3270
ag3584
ag1381
ag4102
ag728
ag874
ag1344
ag2886
ag1215
ag1087
ag193
ag457
ag2947
ag364
ag1412
ag2389
ag1933
ag1968
ag1161
ag4093
ag3941
ag3789
ag3830
ag4282
ag3720
ag2554
ag243
ag534
ag3776
ag1516
ag1225
ag2931
ag1750
ag1079
ag420
ag1988
ag863
ag1062
ag96
ag1064
ag1983
ag2158
ag1388
ag16
ag3087
ag3532
ag4385
ag2238
ag2051
ag1849
ag3161
ag3972
ag2759
ag956
ag1755
ag2866
ag1290
ag2107
ag4160
ag4336
ag780
ag3312
ag4247
ag2927
ag1132
ag2261
ag3757
ag14
ag1575
ag2516
ag1892
ag3792
ag3220
ag2466
ag652
ag3924
ag2364
ag2197
ag946
ag470
ag2630
ag1506
ag3492
ag2101
ag1600
ag2111
ag1700
ag3075
ag3466
ag3723
ag99
ag2578
ag3441
ag1101
ag1523
ag445
ag2332
ag4180
ag693
ag1150
ag2108
ag2024
ag3578
ag3006
ag2286
ag1907
ag3399
ag4364
ag347
ag3131
ag2157
ag4128
ag3158
ag175
ag2763
ag1504
ag3197
ag4270
ag1177
ag60
ag3335
ag2901
ag2463
ag2224
ag2514
ag3963
ag1564
ag2524
ag2236
ag343
ag781
ag2436
ag4132
ag3825
ag459
ag1934
ag4326
ag3703
ag4397
ag3067
ag1863
ag2250
ag3436
ag2650
ag1369
ag3763
ag1421
ag2535
ag2348
ag2593
ag4228
ag2828
ag948
ag2358
ag2865
ag3566
ag3519
ag980
ag2694
ag4314
ag2373
ag1959
ag3140
ag3386
ag358
ag569
ag3137
ag1465
ag1463
ag2809
ag12
ag708
ag244
ag564
ag2665
ag1486
ag961
ag2120
ag3984
ag723
ag3482
ag1185
ag3923
ag478
ag1716
ag2773
ag254
ag3243
ag3641
ag3894
ag692
ag39
ag2889
ag249
ag1330
ag196
ag4076
ag2708
ag3113
ag1300
ag715
ag4296
ag1754
ag869
ag2952
ag3554
ag1826
ag699
ag694
ag3500
ag2353
ag3625
ag2202
ag2658
ag1341
ag1827
ag4319
ag301
ag2093
ag390
ag2487
ag1322
ag1034
ag2873
ag1248
ag871
ag968
ag2619
ag2080
ag1869
ag3432
ag30
ag3415
ag3321
ag4361
ag220
ag3391
ag2242
ag1485
ag2483
ag3742
ag2100
ag1229
ag295
ag194
ag1219
ag1939
ag2491
ag36
ag907
ag3045
ag549
ag4354
ag974
ag3449
ag508
ag1540
ag4402
ag1918
ag3499
ag1483
ag3576
ag1546
ag3029
ag1533
ag1737
ag2777
ag513
ag4046
ag4089
ag342
ag3167
ag361
ag3127
ag3186
ag3602
ag4037
ag2367
ag575
ag1475
ag2163
ag3393
ag1571
ag2459
ag2094
ag505
ag403
ag3523
ag2003
ag1270
ag2001
ag1000
ag1020
ag2490
ag2434
ag163
ag4211
ag4208
ag1777
ag3298
ag3880
ag3351
ag3348
ag1800
ag2517
ag3260
ag2657
ag3707
ag3953
ag1146
ag2381
ag4249
ag3820
ag736
ag2976
ag4181
ag3009
ag3787
ag3014
ag296
ag632
ag1470
ag3726
ag3344
ag4241
ag1321
ag1784
ag4005
ag3887
ag2843
ag480
ag3834
ag2583
ag2110
ag2819
ag1428
ag4172
ag1697
ag2287
ag4003
ag2254
ag1701
ag1594
ag3610
ag3438
ag972
ag2313
ag2691
ag488
ag3590
ag727
ag262
ag3682
ag2169
ag2745
ag2944
ag1917
ag2170
ag4118
ag4129
ag890
ag892
ag1202
ag906
ag3733
ag4023
ag4352
ag2178
ag2878
ag3444
ag4136
ag2009
ag415
ag4025
ag594
ag1240
ag2799
ag984
ag1762
ag143
ag3768
ag204
ag359
ag3016
ag887
ag3719
ag4196
ag912
ag4119
ag437
ag3884
ag2201
ag762
ag3265
ag610
ag4337
ag4284
ag4114
ag748
ag3409
ag3556
ag2133
ag1175
ag3533
ag279
ag2183
ag4246
ag3546
ag68
ag3349
ag3511
ag45
ag1467
ag3343
ag2545
ag3126
ag1167
ag3809
ag44
ag2547
ag2391
ag626
ag3877
ag2925
ag1053
ag591
ag199
ag152
ag3248
ag3846
ag322
ag184
ag4165
ag3708
ag3565
ag981
ag4391
ag4394
ag2924
ag1468
ag2478
ag1431
ag3765
ag4001
ag2930
ag4216
ag1166
ag2582
ag3650
ag2767
ag2780
ag1631
ag860
ag3455
ag2013
ag1901
ag1144
ag3736
ag1709
ag562
ag4328
ag2426
ag2496
ag1653
ag236
ag2977
ag1908
ag4330
ag3013
ag3691
ag1994
ag1477
ag2846
ag429
ag755
ag1389
ag4219
ag2180
ag1015
ag3817
ag540
ag1693
ag1256
ag2872
ag4392
ag3540
ag1059
ag2772
ag873
ag787
ag3843
ag250
ag3836
ag914
ag1070
ag2135
ag3932
ag3762
ag112
ag1592
ag2043
ag4035
ag982
ag1902
ag412
ag2724
ag3147
ag1123
ag1097
ag452
ag3223
ag3503
ag1199
ag3457
ag3005
ag255
ag3698
ag1813
ag3988
ag2911
ag3605
ag1617
ag2917
ag3104
ag4311
ag3030
ag3750
ag376
ag1694
ag2361
ag2556
ag3981
ag166
ag1303
ag1960
ag1128
ag949
ag3041
ag3132
ag1109
ag1878
ag2661
ag1938
ag1040
ag157
ag2400
ag3594
ag370
ag1556
ag3831
ag1220
ag1843
ag2123
ag4288
ag1099
ag63
ag1637
ag3514
ag3706
ag2464
ag753
ag4184
ag294
ag2617
ag3636
ag2956
ag3872
ag1340
ag2625
ag3550
ag105
ag2672
ag1830
ag2890
ag4299
ag2312
ag4312
ag1359
ag2019
ag242
ag4123
ag3847
ag1739
ag1500
ag3939
ag953
ag2414
ag3498
ag1252
ag3677
ag1223
ag121
ag665
ag2216
ag553
ag3407
ag4259
ag3185
ag2620
ag797
ag1551
ag4191
ag3665
ag3326
ag3860
ag1063
ag2651
ag1664
ag4164
ag1047
ag2365
ag3400
ag128
ag3957
ag843
ag2273
ag1862
ag3095
ag1585
ag1314
ag2279
ag3866
ag3367
ag1423
ag977
ag4225
ag1339
ag733
ag309
ag1478
ag2653
ag803
ag2054
ag2948
ag3110
ag2734
ag1024
ag4348
ag1846
ag4262
ag2797
ag504
ag2292
ag2639
ag3076
ag1482
ag2705
ag4048
ag2186
ag2325
ag3618
ag3481
ag1931
ag4289
ag2241
ag1989
ag1912
ag2446
ag2155
ag3210
ag2519
ag1747
ag815
ag3560
ag4266
ag536
ag2830
ag3469
ag2497
ag4248
ag3226
ag1713
ag3617
ag2041
ag4377
ag2766
ag2267
ag1231
ag3910
ag1012
ag2546
ag533
ag527
ag1264
ag430
ag3948
ag3242
ag1778
ag2379
ag312
ag927
ag1021
ag1961
ag1382
ag1408
ag909
ag109
ag1124
ag495
ag2569
ag2424
ag560
ag3652
ag2319
ag2757
ag703
ag2962
ag4365
ag2068
ag3746
ag3857
ag1226
ag4226
ag918
ag1471
ag1361
ag1055
ag517
ag857
ag2177
ag2429
ag159
ag2573
ag4069
ag1061
ag4004
ag1164
ag183
ag2655
ag2271
ag1118
ag3084
ag3430
ag3093
ag4104
ag917
ag3396
ag1622
ag1553
ag1367
ag2182
ag637
ag3596
ag76
ag726
ag2934
ag3465
ag3693
ag4173
ag1582
ag651
ag1148
ag227
ag442
ag4237
ag1544
ag1612
ag1049
ag1451
ag3287
ag1966
ag1964
ag2606
ag2831
ag641
ag922
ag2150
ag1998
ag2958
ag2016
ag2152
ag3055
ag222
ag1437
ag276
ag344
ag4371
ag3968
ag4020
ag453
ag4368
ag1254
ag4144
ag230
ag4358
ag932
ag9
ag933
ag2473
ag2943
ag1157
ag232
ag3918
ag108
ag1810
ag4193
ag4194
ag795
ag1724
ag1728
ag2059
ag2062
ag2061
ag2060
ag306
ag3433
ag1741
ag1608
ag1743
ag1615
ag1745
ag1734
ag1735
ag4064
ag3616
ag3615
ag3614
ag4067
ag3612
ag3624
ag2227
ag3295
ag3669
ag3672
ag2300
ag1916
ag3683
ag609
ag3688
ag611
ag4108
ag303
ag814
ag514
ag4360
ag4353
ag4283
ag1390
ag3117
ag1659
ag2903
ag3694
ag3967
ag3737
ag3604
ag3961
ag1642
ag3782
ag3525
ag625
ag913
ag273
ag2995
ag129
ag71
ag1152
ag393
ag3317
ag4346
ag2066
ag3296
ag3921
ag3364
ag3870
ag1847
ag4380
ag3744
ag1688
ag1349
ag2034
ag1328
ag483
ag1548
ag1796
ag3431
ag2820
ag1965
ag3058
ag384
ag4094
ag256
ag2750
ag2712
ag955
ag524
ag3976
ag2600
ag2929
ag2164
ag348
ag2232
ag466
ag3974
ag2894
ag4044
ag1891
ag1141
ag2096
ag2363
ag3022
ag3284
ag416
ag1658
ag2366
ag1578
ag2008
ag2779
ag285
ag1900
ag2838
ag3621
ag2175
ag1970
ag2824
ag1569
ag3228
ag3920
ag782
ag3268
ag2751
ag3785
ag1953
ag2057
ag19
ag4400
ag3256
ag1949
ag3374
ag3661
ag357
ag3958
ag3997
ag899
ag3902
ag1181
ag648
ag3659
ag3180
ag3663
ag2602
ag2511
ag2611
ag1305
ag3796
ag3791
ag2540
ag2458
ag520
ag2106
ag3255
ag3062
ag3512
ag1952
ag3389
ag1491
ag1629
ag2654
ag3012
ag1116
ag3996
ag3721
ag718
ag2853
ag3717
ag2932
ag2339
ag1134
ag3277
ag475
ag3980
ag3488
ag392
ag2359
ag4056
ag2608
ag4399
ag525
ag433
ag2231
ag1511
ag4203
ag3267
ag571
ag3751
ag2441
ag1162
ag2327
ag1666
ag1217
ag1105
ag3252
ag35
ag3254
ag288
ag1082
ag1375
ag778
ag2574
ag2184
ag3850
ag3365
ag2073
ag1402
ag2199
ag1598
ag897
ag4199
ag2166
ag3378
ag319
ag645
ag3529
ag3156
ag2827
ag3802
ag522
ag962
ag2592
ag1997
ag2388
ag2139
ag1490
ag4045
ag1462
ag3754
ag4174
ag2291
ag2309
ag735
ag572
ag499
ag2342
ag2086
ag947
ag4298
ag3927
ag2467
ag2075
ag3165
ag2548
ag360
ag1730
ag3552
ag2160
ag3060
ag734
ag2372
ag2494
ag836
ag2484
ag3008
ag1095
ag2453
ag462
ag3780
ag2868
ag2541
ag3732
ag2590
ag3090
ag1779
ag1298
ag4065
ag4057
ag261
ag134
ag523
ag745
ag1815
ag4008
ag3007
ag363
ag3170
ag2172
ag3163
ag1035
ag3700
ag546
ag1607
ag2301
ag3421
ag4320
ag3083
ag1865
ag3381
ag1263
ag275
ag3318
ag1192
ag3311
ag1158
ag4307
ag293
ag89
ag2156
ag941
ag1717
ag2789
ag830
ag2044
ag1712
ag3385
ag1704
ag2026
ag1147
ag142
ag925
ag1489
ag1488
ag215
ag221
ag22
ag1110
ag2506
ag3078
ag1877
ag2418
ag2740
ag4061
ag156
ag683
ag1239
ag2539
ag2645
ag2970
ag539
ag1459
ag695
ag2499
ag2769
ag3899
ag3627
ag2738
ag2914
ag191
ag1094
ag2644
ag690
ag4087
ag3848
ag1775
ag1614
ag3986
ag3544
ag2626
ag1051
ag4099
ag1861
ag3108
ag1394
ag770
ag724
ag847
ag711
ag2732
ag3410
ag2695
ag3198
ag1628
ag3173
ag1288
ag1503
ag3338
ag1922
ag1453
ag1691
ag810
ag675
ag2898
ag2118
ag1387
ag3586
ag3770
ag362
ag3828
ag4205
ag3753
ag1293
ag4396
ag4305
ag1129
ag1380
ag1257
ag1487
ag409
ag2632
ag3574
ag2877
ag2203
ag454
ag1992
ag41
ag107
ag3112
ag878
ag2992
ag1595
ag2346
ag4236
ag1262
ag1698
ag3168
ag1950
ag1857
ag894
ag340
ag3142
ag130
ag379
ag2196
ag1996
ag1405
ag1272
ag1871
ag766
ag3236
ag2352
ag1786
ag3930
ag1088
ag3561
ag1605
ag4265
ag3725
ag2368
ag2226
ag2613
ag3741
ag1204
ag764
ag2720
ag4095
ag217
ag2417
ag1576
ag1715
ag4229
ag3370
ag2056
ag111
ag4192
ag2281
ag3079
ag2892
ag2904
ag2876
ag3642
ag827
ag638
ag2835
ag1606
ag1558
ag548
ag1825
ag2268
ag3634
ag1448
ag543
ag472
ag1936
ag2460
ag1414
ag2794
ag3679
ag2775
ag4068
ag3216
ag628
ag3907
ag1137
ag1194
ag3904
ag973
ag1787
ag834
ag4263
ag3628
ag1770
ag389
ag1133
ag1173
ag851
ag3036
ag3548
ag3808
ag2612
ag3812
ag4243
ag3124
ag3543
ag124
ag2190
ag3299
ag3801
ag3031
ag2990
ag1046
ag882
ag622
ag48
ag2581
ag1925
ag4351
ag4186
ag3829
ag2946
ag2005
ag103
ag1184
ag3936
ag3714
ag604
ag783
ag3225
ag1439
ag1651
ag2087
ag3833
ag1335
ag3779
ag1307
ag2081
ag4150
ag98
ag272
ag1096
ag52
ag4122
ag911
ag463
ag4279
ag2083
ag3015
ag93
ag1136
ag1302
ag2493
ag1587
ag3747
ag3538
ag993
ag3635
ag2774
ag3463
ag3074
ag1233
ag3275
ag2887
ag3419
ag2114
ag2181
ag2805
ag4370
ag1093
ag1509
ag1332
ag3676
ag997
ag286
ag4376
ag4295
ag3202
ag3527
ag2879
ag4083
ag290
ag3160
ag2753
ag999
ag552
ag825
ag1102
ag1346
ag2664
ag4309
ag3727
ag3487
ag1287
ag975
ag182
ag994
ag2384
ag3794
ag2142
ag3048
ag3916
ag613
ag2823
ag3302
ag4018
ag688
ag842
ag1570
ag1776
ag1894
ag135
ag2295
ag581
ag2587
ag2747
ag3264
ag4384
ag4273
ag313
ag1903
ag3366
ag3549
ag2719
ag2115
ag3575
ag3004
ag1958
ag3304
ag1759
ag484
ag3966
ag4235
ag139
ag3772
ag772
ag435
ag2415
ag4221
ag936
ag883
ag2251
ag1517
ag2102
ag473
ag308
ag355
ag47
ag3593
ag2730
ag509
ag3998
ag2861
ag501
ag3653
ag1243
ag1351
ag2796
ag2558
ag1848
ag1416
ag2703
ag2448
ag3649
ag3402
ag2055
ag817
ag2998
ag119
ag4026
ag1311
ag268
ag3205
ag2765
ag908
ag4027
ag335
ag3332
ag469
ag4070
ag2668
ag2105
ag3501
ag4032
ag2983
ag2079
ag3534
ag1684
ag1650
ag4030
ag266
ag661
ag2134
ag2038
ag3266
ag1527
ag935
ag3766
ag2408
ag3116
ag3217
ag3052
ag3051
ag4207
ag2045
ag3171
ag3713
ag2669
ag788
ag3555
ag2696
ag1285
ag3687
ag315
ag2298
ag1446
ag176
ag2996
ag3933
ag2314
ag779
ag3946
ag1407
ag1663
ag213
ag3249
ag970
ag647
ag2272
ag554
ag3372
ag118
ag1004
ag4062
ag2007
ag1838
ag3392
ag3010
ag2069
ag3849
ag816
ag2869
ag615
ag2857
ag2403
ag1980
ag1542
ag3476
ag3329
ag2896
ag1447
ag1139
ag4079
ag4085
ag3842
ag3911
ag2149
ag574
ag4187
ag2122
ag1366
ag3979
ag61
ag811
ag3959
ag4366
ag2347
ag1535
ag2276
ag3452
ag1338
ag1526
ag3678
ag1911
ag331
ag2340
ag2731
ag3778
ag458
ag2258
ag3229
ag790
ag1203
ag1156
ag2357
ag4159
ag1603
ag2707
ag2680
ag1689
ag2609
ag3352
ag4227
ag4280
ag1920
ag2690
ag635
ag1935
ag169
ag1155
ag1897
ag1013
ag1803
ag2194
ag2406
ag2723
ag2891
ag4054
ag976
ag3172
ag4012
ag3035
ag3054
ag763
ag995
ag337
ag1092
ag2439
ag381
ag3420
ag2881
ag4287
ag4051
ag3844
ag2176
ag931
ag954
ag3922
ag2485
ag2328
ag4007
ag3655
ag1078
ag2029
ag2973
ag2331
ag1237
ag660
ag1562
ag3580
ag155
ag3656
ag4294
ag3864
ag274
ag1086
ag1222
ag916
ag3342
ag2850
ag998
ag1695
ag2564
ag1981
ag617
ag767
ag1329
ag2715
ag1044
ag3597
ag4322
ag367
ag2006
ag2637
ag2189
ag4230
ag2385
ag3943
ag3472
ag1268
ag2438
ag2188
ag1876
ag1941
ag3103
ag449
ag90
ag2326
ag963
ag1736
ag1999
ag2692
ag1056
ag3091
ag2570
ag1534
ag21
ag4339
ag3100
ag3241
ag4161
ag832
ag3827
ag2971
ag2090
ag2143
ag3855
ag4212
ag1852
ag4331
ag707
ag1554
ag4088
ag456
ag3153
ag3563
ag2727
ag801
ag1720
ag2701
ag17
ag1251
ag1567
ag3856
ag59
ag3513
ag1853
ag2534
ag2432
ag3380
ag2816
ag1449
ag165
ag1790
ag619
ag27
ag1976
ag2356
ag3404
ag1873
ag2451
ag3102
ag923
ag671
ag2610
ag3325
ag1327
ag2407
ag50
ag145
ag3196
ag2854
ag3098
ag1707
ag3962
ag2215
ag2380
ag3696
ag2341
ag3985
ag2921
ag3689
ag2529
ag4338
ag4078
ag1038
ag2284
ag2826
ag3077
ag920
ag2028
ag2918
ag3257
ag1042
ag585
ag4029
ag3139
ag1721
ag2303
ag2037
ag2543
ag3246
ag2447
ag2842
ag2320
ag4009
ag2933
ag1315
ag1791
ag4389
ag3440
ag2410
ag3315
ag1767
ag1993
ag2800
ag3403
ag1455
ag1995
ag2936
ag3414
ag791
ag3951
ag1153
ag3879
ag2926
ag2315
ag3547
ag686
ag2212
ag4019
ag2761
ag901
ag2704
ag2567
ag2431
ag2191
ag2859
ag2263
ag1560
ag1874
ag2837
ag1909
ag1804
ag3383
ag1680
ag402
ag2336
ag771
ag2392
ag2676
ag366
ag4176
ag884
ag4386
ag3839
ag3572
ag1586
ag2396
ag2975
ag2222
ag1654
ag241
ag2316
ag4215
ag1026
ag2764
ag4143
ag3748
ag2594
ag161
ag3288
ag1710
ag2020
ag34
ag793
ag4039
ag2968
ag570
ag2884
ag3269
ag3259
ag4327
ag867
ag3643
ag1833
ag2492
ag3648
ag2117
ag2728
ag1760
ag2595
ag1967
ag3712
ag1073
ag3631
ag339
ag2749
ag691
ag1060
ag2141
ag83
ag689
ag960
ag1817
ag789
ag1417
ag1399
ag761
ag2969
ag4113
ag1955
ag2908
ag1280
ag3557
ag2954
ag3044
ag1142
ag2605
ag1008
ag3840
ag328
ag2758
ag2098
ag492
ag4055
ag115
ag3250
ag418
ag2778
ag1292
ag2377
ag3475
ag557
ag944
ag1140
ag3206
ag2718
ag1284
ag3033
ag3018
ag4110
ag4231
ag2537
ag2324
ag2193
ag1940
ag4031
ag2635
ag1808
ag3925
ag3571
ag1422
ag3293
ag2445
ag1297
ag3813
ag1054
ag3473
ag754
ag4017
ag2937
ag854
ag2306
ag1599
ag3508
ag4131
ag3942
ag1057
ag1045
ag3125
ag1630
ag1929
ag2329
ag4153
ag1210
ag269
ag3057
ag4106
ag3176
ag4395
ag1283
ag1809
ag978
ag680
ag4393
ag3495
ag3484
ag1068
ag1686
ag737
ag4334
ag2784
ag1708
ag305
ag185
ag3331
ag3483
ag2144
ag833
ag2771
ag4275
ag1100
ag25
ag219
ag4355
ag1356
ag1524
ag2260
ag3276
ag2121
ag4130
ag2362
ag3073
ag2234
ag4179
ag3353
ag2167
ag4155
ag3442
ag2173
ag3272
ag410
ag3479
ag3313
ag4041
ag3280
ag2822
ag82
ag4373
ag3319
ag2812
ag599
ag1788
ag4240
ag386
ag3611
ag987
ag1336
ag436
ag1286
ag2404
ag4084
ag3213
ag3120
ag3790
ag989
ag742
ag3489
ag739
ag3989
ag668
ag3261
ag3111
ag3101
ag547
ag3192
ag3816
ag3143
ag1839
ag1474
ag167
ag3654
ag3408
ag773
ag3497
ag2071
ag4047
ag2018
ag489
ag2979
ag1032
ag1589
ag4272
ag3675
ag3945
ag4224
ag1497
ag4109
ag189
ag467
ag4234
ag2860
ag2349
ag2863
ag3671
ag1543
ag1913
ag3539
ag3086
ag2217
ag3838
ag3973
ag1138
ag2419
ag3811
ag1765
ag1563
ag1007
ag2039
ag485
ag3786
ag3310
ag1090
ag1324
ag1005
ag2867
ag2961
ag2980
ag1856
ag2132
ag1887
ag3845
ag3154
ag2443
ag245
ag593
ag2776
ag3224
ag1835
ag3835
ag394
ag2737
ag3105
ag2880
ag3949
ag4072
ag3159
ag2565
ag3145
ag4053
ag126
ag1872
ag2682
ag2318
ag353
ag180
ag3928
ag2790
ag2510
ag496
ag53
ag669
ag2269
ag687
ag2211
ag1761
ag1722
ag957
ag3291
ag2913
ag741
ag2821
ag1565
ag1494
ag326
ag2195
ag1609
ag2839
ag1392
ag170
ag4052
ag2841
ag1236
ag1009
ag1714
ag2488
ag1374
ag1649
ag2571
ag226
ag595
ag3893
ag117
ag3423
ag3187
ag2652
ag2623
ag3824
ag837
ag1196
ag774
ag2864
ag1176
ag333
ag3987
ag2770
ag2076
ag1505
ag302
ag1899
ag1106
ag1492
ag4329
ag4342
ag4387
ag3462
ag1880
ag88
ag1904
ag20
ag802
ag3947
ag3995
ag3609
ag1434
ag2849
ag704
ag2922
ag354
ag1914
ag1507
ag171
ag397
ag898
ag2035
ag2706
ag3294
ag2030
ag2502
ag3781
ag2032
ag1076
ag2015
ag2817
ag1403
ag576
ag209
ag2912
ag1870
ag646
ag1957
ag4038
ag2994
ag2845
ag649
ag2255
ag87
ag2042
ag1896
ag3937
ag2742
ag3626
ag818
ag4081
ag3384
ag881
ag2697
ag3558
ag259
ag4080
ag2986
ag246
ag3003
ag2686
ag3358
ag2078
ag3749
ag2127
ag494
ag4258
ag700
ag1435
ag1623
ag3028
ag1943
ag2965
ag3426
ag1746
ag251
ag81
ag1198
ag3881
ag1253
ag2945
ag3162
ag2627
ag1479
ag3406
ag3569
ag2046
ag3150
ag3281
ag3935
ag1844
ag1738
ag4214
ag3191
ag168
ag3422
ag858
ag3832
ag1396
ag2960
ag1618
ag1519
ag3940
ag186
ag1258
ag1364
ag2147
ag2223
ag1277
ag2885
ag1159
ag664
ag712
ag3069
ag2684
ag4271
ag2072
ag3390
ag4285
ag3909
ag1580
ag2168
ag3868
ag3883
ag271
ag2390
ag1275
ag1058
ag2804
ag1597
ag2278
ag1568
ag775
ag3097
ag3524
ag538
ag3203
ag1841
ag4286
ag440
ag855
ag3510
ag1401
ag644
ag1537
ag2515
ag136
ag3053
ag3702
ag231
ag1687
ag2409
ag426
ag3056
ag634
ag838
ag3806
ag4217
ag2480
ag1771
ag4163
ag431
ag934
ag414
ag3371
ag1670
ag1969
ag3764
ag938
ag813
ag2700
ag1610
ag214
ag1731
ag729
ag1690
ag2978
ag1946
ag2814
ag413
ag1245
ag122
ag1461
ag141
ag2813
ag808
ag3350
ag2085
ag3330
ag1247
ag1638
ag237
ag2501
ag1037
ag3570
ag716
ag1113
ag1299
ag709
ag4058
ag2671
ag3215
ag2220
ag765
ag2562
ag1227
ag4238
ag4015
ag2563
ag4197
ag3517
ag2536
ag2882
ag3518
ag3685
ag1246
ag1860
ag1508
ag1982
ag784
ag3542
ag515
ag3807
ag1802
ag1851
ag2422
ag3368
ag3735
ag3521
ag1495
ag1353
ag777
ag768
ag3622
ag3231
ag3357
ag2228
ag3369
ag2953
ag1620
ag2923
ag172
ag3130
ag282
ag3990
ag4189
ag1725
ag3684
ag3690
ag3138
ag1531
ag1030
ag670
ag153
ag3564
ag872
ag1890
ag1986
ag1028
ag983
ag113
ag971
ag2599
ag3190
ag2523
ag1067
ag3797
ag2530
ag2575
ag1484
ag3804
ag3136
ag3134
ag2136
ag3573
ag1334
ag1347
ag2097
ag4141
ag3377
ag2209
ag658
ag1898
ag656
ag1119
ag2249
ag1756
ag4315
ag1069
ag1014
ag769
ag13
ag3114
ag2527
ag4308
ag1066
ag461
ag4050
ag950
ag1074
ag2811
ag2825
ag4252
ag2942
ag1397
ag2566
ag1316
ag2538
ag1089
ag1386
ag3859
ag1732
ag1043
ag541
ag23
ag4014
ag78
ag4158
ag3771
ag424
ag3023
ag2084
ag4341
ag1186
ag70
ag792
ag1208
ag427
ag2981
ag3668
ag304
ag3025
ag676
ag4167
ag1812
ag1763
ag800
ag49
ag1657
ag1368
ag4254
ag866
ag1987
ag1357
ag1502
ag2289
ag1404
ag747
ag4152
ag1212
ag3152
ag2552
ag311
ag58
ag1018
ag3401
ag3042
ag1130
ag1768
ag439
ag1075
ag3339
ag2052
ag3001
ag2621
ag3204
ag1919
ag450
ag2218
ag751
ag1679
ag3821
ag1261
ag822
ag1525
ag951
ag682
ag889
ag336
ag3227
ag3258
ag1464
ag2126
ag1971
ag2618
ag1513
ag2505
ag1441
ag2022
ag3478
ag3000
ag3324
ag3582
ag2832
ag3096
ag2457
ag3412
ag3373
ag2027
ag667
ag378
ag3049
ag926
ag3783
ag1764
ag1320
ag330
ag3971
ag300
ag2848
ag1071
ag174
ag985
ag888
ag460
ag4290
ag674
ag2674
ag2322
ag3363
ag1662
ag100
ag432
ag2678
ag1373
ag1019
ag550
ag487
ag2685
ag2305
ag2572
ag74
ag2376
ag1821
ag3718
ag356
ag1676
ag786
ag2017
ag885
ag2430
ag2442
ag3491
ag62
ag1312
ag299
ag2532
ag2746
ag3316
ag190
ag2148
ag721
ag3278
ag2967
ag406
ag407
ag3376
ag3841
ag3583
ag3085
ag132
ag3490
ag706
ag4233
ag2579
ag3905
ag2531
ag1476
ag95
ag3496
ag3931
ag794
ag1538
ag850
ag4293
ag2985
ag200
ag2475
ag3199
ag4028
ag919
ag106
ag2225
ag350
ag1532
ag662
ag2560
ag4115
ag3731
ag1413
ag3333
ag2604
ag2393
ag3861
ag1991
ag1452
ag4347
ag3245
ag3507
ag3146
ag4316
ag332
ag752
ag33
ag3603
ag806
ag396
ag2659
ag1672
ag2063
ag2907
ag587
ag1017
ag2064
ag1501
ag2470
ag2321
ag1238
ag3144
ag4168
ag2247
ag2636
ag642
ag1660
ag1168
ag3673
ag605
ag4198
ag566
ag1400
ag1972
ag1371
ag1634
ag3800
ag3040
ag2265
ag1774
ag3235
ag1443
ag502
ag2507
ag3230
ag3826
ag2288
ag2844
ag2675
ag2012
ag2192
ag4369
ag1834
ag3448
ag3620
ag3106
ag1530
ag4202
ag2791
ag1169
ag2666
ag1926
ag2699
ag192
ag3970
ag3619
ag2568
ag1301
ag1521
ag4175
ag2503
ag4306
ag937
ag915
ag868
ag1611
ag1498
ag3200
ag2489
ag2788
ag1213
ag3756
ag1667
ag91
ag1559
ag1515
ag3632
ag2733
ag4340
ag208
ag677
ag3504
ag1224
ag248
ag3803
ag3837
ag630
ag2586
ag3551
ag2229
ag3960
ag3447
ag2693
ag1758
ag2987
ag2997
ag239
ag929
ag292
ag1590
ag4343
ag3456
ag1445
ag341
ag2297
ag1753
ag2040
ag3944
ag2993
ag596
ag1444
ag4091
ag4120
ag1333
ag257
ag1426
ag1665
ag138
ag4375
ag1601
ag3991
ag2014
ag2955
ag1752
ag1265
ag3011
ag1706
ag3908
ag280
ag1025
ag2647
ag137
ag2862
ag529
ag532
ag3446
ag3701
ag202
ag4345
ag2299
ag959
ag877
ag3485
ag2468
ag537
ag4301
ag4378
ag125
ag2852
ag3978
ag1671
ag2104
ag1593
ag1718
ag1822
ag2633
ag444
ag1645
ag3320
ag1528
ag2399
ag32
ag2754
ag3876
ag3729
ag4206
ag2972
ag643
ag2275
ag567
ag841
ag4024
ag150
ag991
ag3895
ag3992
ag3356
ag1905
ag4013
ag1154
ag602
ag233
ag2782
ag2629
ag824
ag3178
ag2023
ag1362
ag2895
ag2248
ag1963
ag1306
ag1278
ag2836
ag4267
ag491
ag3567
ag1266
ag3417
ag846
ag4105
ag528
ag1978
ag2999
ag3070
ag3871
ag2462
ag493
ag1819
ag2355
ag831
ag2716
ag1781
ag2902
ag853
ag2335
ag4016
ag2598
ag2855
ag1149
ag2787
ag4086
ag2935
ag211
ag69
ag3952
ag565
ag1249
ag1072
ag1209
ag3599
ag2739
ag2736
ag2988
ag2469
ag201
ag477
ag621
ag1979
ag1454
ag2688
ag2294
ag3711
ag3375
ag4182
ag945
ag3873
ag3865
ag1584
ag2237
ag3568
ag650
ag967
ag2270
ag1120
ag371
ag1619
ag3874
ag3530
ag2504
ag3157
ag476
ag1383
ag2874
ag2401
ag3799
ag2266
ag3705
ag2004
ag1326
ag4149
ag55
ag2642
ag2905
ag1125
ag3658
ag3346
ag738
ag1418
ag1432
ag2795
ag666
ag717
ag1928
ag2252
ag4257
ag3739
ag1228
ag1783
ag3493
ag1674
ag900
ag67
ag3562
ag1669
ag4300
ag2129
ag3589
ag1179
ag870
ag551
ag104
ag147
ag4223
ag2810
ag3588
ag627
ag3888
ag3645
ag1820
ag314
ag1419
ag85
ag996
ag1003
ag696
ag383
ag3327
ag8
ag1729
ag3468
ag2091
ag4075
ag173
ag2963
ag1621
ag678
ag2939
ag1294
ag2783
ag1588
ag284
ag1160
ag1188
ag1522
ag3477
ag823
ag3328
ag2416
ag895
ag1854
ag1384
ag2679
ag1625
ag3024
ag3094
ag2423
ag2741
ag1170
ag54
ag1895
ag1797
ag1886
ag3195
ag3867
ag684
ag3461
ag1172
ag4096
ag3912
ag471
ag2244
ag819
ag856
ag1889
ag4242
ag3282
ag1561
ag1766
ag1393
ag1879
ag373
ag2311
ag2957
ag750
ag1545
ag4022
ag3773
ag3082
ag3244
ag2673
ag3218
ag4401
ag4036
ag1602
ag144
ag2240
ag374
ag1639
ag120
ag746
ag821
ag4253
ag1378
ag3897
ag3292
ag1867
ag151
ag2185
ag3458
ag419
ag29
ag188
ag1641
ag1555
ag325
ag2472
ag3657
ag583
ag2597
ag1772
ag2259
ag1016
ag940
ag3239
ag2713
ag225
ag1023
ag511
ag1343
ag127
ag387
ag1883
ag1636
ag1406
ag3598
ag197
ag1295
ag1230
ag744
ag3885
ag3890
ag3019
ag519
ag518
ag580
ag1661
ag72
ag3878
ag3994
ag1214
ag2095
ag1289
ag3394
ag1310
ag4137
ag1711
ag465
ag2793
ag512
ag133
ag1723
ag31
ag4002
ag640
ag479
ag3181
ag3715
ag2760
ag4210
ag1727
ag57
ag2910
ag965
ag116
ag2474
ag3297
ag323
ag3354
ag1831
ag278
ag4204
ag75
ag521
ag3233
ag3285
ag2103
ag3704
ag1281
ag2622
ag839
ag3686
ag500
ag178
ag1131
ag3398
ag809
ag195
ag2456
ag482
ag3674
ag1881
ag3133
ag3207
ag3443
ag2437
ag3099
ag1355
ag2883
ag3734
ag1122
ag3889
ag224
ag568
ag2951
ag4092
ag2603
ag3238
ag600
ag698
ag3464
ag579
ag904
ag2421
ag2337
ag844
ag4138
ag2498
ag1458
ag2512
ag3453
ag535
ag3480
ag3439
ag1211
ag3428
ag177
ag3740
ag3520
ag2900
ag3875
ag1807
ag1514
ag3307
ag2151
ag2551
ag2398
ag4101
ag2601
ag601
ag3502
ag3505
ag3359
ag298
ag3193
ag1692
ag1795
ag391
ag368
ag2000
ag731
ag4126
ag1975
ag1806
ag2557
ag2344
ag3308
ag4145
ag1906
ag1010
ag1824
ag1644
ag2520
ag1757
ag1269
ag563
ag2681
ag1678
ag2768
ag3900
ag4302
ag2585
ag964
ag149
ag3559
ag1655
ag3759
ag3263
ag110
ag2801
ag2755
ag3784
ag1647
ag2807
ag3600
ag2722
ag3767
ag1410
ag1864
ag375
ag2206
ag4177
ag3535
ag1932
ag2050
ag2131
ag1536
ag131
ag2670
ag4232
ag2638
ag187
ag2323
ag555
ag1083
ag1681
ag2698
ag2113
ag1143
ag4281
ag2112
ag3451
ag3607
ag2130
ag3667
ag365
ag1573
ag2002
ag556
ag4222
ag672
ag2614
ag3938
ag398
ag4133
ag252
ag1885
ag545
ag3219
ag3188
ag228
ag40
ag2641
ag1165
ag2481
ag1039
ag1234
ag743
ag1111
ag1308
ag3283
ag1365
ag3777
ag3822
ag4244
ag1398
ag876
ag3290
ag1927
ag65
ag2245
ag1814
ag1816
ag2667
ag3413
ag4098
ag1121
ag2386
ag1947
ag2243
ag3305
ag1200
ag4213
ag2138
ag3906
ag2119
ag207
ag3092
ag2375
ag2559
ag162
ag1317
ag4127
ag1304
ag2395
ag2683
ag451
ag2588
asS'separator'
p4408
S'='
sS'sparse'
p4409
I01
sb.