ccopy_reg
_reconstructor
p1
(csklearn.feature_extraction.dict_vectorizer
DictVectorizer
p2
c__builtin__
object
p3
NtRp4
(dp5
S'vocabulary_'
p6
(dp7
S'advmod=then'
p8
I36
sS'prep=before'
p9
I243
sS'w-2=billion'
p10
I633
sS'advmod=more'
p11
I23
sS'w-2=stage'
p12
I725
sS'w-2=hacker'
p13
I661
sS'advmod=certainly'
p14
I16
sS'w+2=problem'
p15
I462
sS'w+1=outside'
p16
I322
sS'advcl=suspend'
p17
I7
sS'advcl=ready'
p18
I6
sS'nsubjpass=inmate'
p19
I208
sS'w-2=surrender'
p20
I728
sS'nsubj=Sweden'
p21
I183
sS'dobj=datum'
p22
I125
sS'w-2=island'
p23
I675
sS'w-1=possible'
p24
I562
sS'w-2=of'
p25
I689
sS'w+2=civilian'
p26
I403
sS'w+2=from'
p27
I423
sS'xcomp=study'
p28
I761
sS'w+2=responsibility'
p29
I466
sS'amod=controversial'
p30
I44
sS'amod=safe'
p31
I60
sS'w-2=can'
p32
I636
sS'w+1=until'
p33
I347
sS'w-1=unconstitutional'
p34
I581
sS'w+2=camp'
p35
I399
sS'w+2=peaceful'
p36
I456
sS'dobj=knowledge'
p37
I132
sS'nsubjpass=those'
p38
I225
sS'w+2=south'
p39
I472
sS'w-2=since'
p40
I724
sS'w+2=400,000'
p41
I364
sS'xcomp=have'
p42
I757
sS'prep=by'
p43
I244
sS'w+2=larger'
p44
I439
sS'w-1=,'
p45
I495
sS'w+1=that'
p46
I340
sS'conj=call'
p47
I89
sS'w+1=responsibility'
p48
I330
sS'amod=smooth'
p49
I61
sS'w-1=peaceful'
p50
I560
sS'w-2=then'
p51
I733
sS'w-1=would'
p52
I589
sS'w-1=legislation'
p53
I542
sS'w-1=say'
p54
I567
sS'nsubjpass=pilot'
p55
I215
sS'amod=actual'
p56
I41
sS'w+2=detainee'
p57
I410
sS'w-2=volunteer'
p58
I742
sS'w+2=nuclear'
p59
I449
sS'dobj=dollar'
p60
I129
sS'w+1=20'
p61
I271
sS'w-2=release'
p62
I711
sS'w-1=speedy'
p63
I570
sS'w-2=we'
p64
I745
sS'w+1=in'
p65
I307
sS'w-1=will'
p66
I587
sS'w-2=I'
p67
I600
sS'aux=may'
p68
I74
sS'w-1=be'
p69
I515
sS'w+1=advanced'
p70
I280
sS'w+2=presidential'
p71
I460
sS'amod=full'
p72
I50
sS'w-2=the'
p73
I732
sS'w+1=she'
p74
I336
sS'w-2=power'
p75
I700
sS'ccomp=own'
p76
I83
sS'w-2=Sweden'
p77
I607
sS'nsubjpass=other'
p78
I213
sS'w-2=before'
p79
I630
sS'w+1=cash'
p80
I291
sS'amod=local'
p81
I52
sS'w+2=frozen'
p82
I424
sS'w+2=stockpiling'
p83
I474
sS'w+1=defuse'
p84
I295
sS'amod=unconstitutional'
p85
I65
sS'advcl=take'
p86
I8
sS'w-2=who'
p87
I748
sS'w+1=of'
p88
I319
sS'rcmod=stir'
p89
I263
sS'w+2=skill'
p90
I470
sS'nsubjpass=half'
p91
I207
sS'w+2=to'
p92
I483
sS'w+2=last'
p93
I440
sS'w+2=developed'
p94
I411
sS'w-2=counterproductive'
p95
I645
sS'w-1=final'
p96
I525
sS'w+1=or'
p97
I320
sS'w-2=process'
p98
I703
sS'w+2=share'
p99
I468
sS'w-1=have'
p100
I533
sS'w-1=Guard'
p101
I497
sS'w-2=approve'
p102
I619
sS'w+2=if'
p103
I430
sS'nn=investment'
p104
I168
sS'w+1=money'
p105
I314
sS'w+2=in'
p106
I431
sS'w+2=it'
p107
I435
sS'w-2=hope'
p108
I668
sS'w+1=datum'
p109
I294
sS'w+2=Tehran'
p110
I383
sS'w-2=all'
p111
I614
sS'w-2=other'
p112
I694
sS'w+1=district'
p113
I298
sS'prep=about'
p114
I236
sS'aux=can'
p115
I70
sS'complm=that'
p116
I84
sS'w+2=Indiahas'
p117
I375
sS'w-2=Israel'
p118
I601
sS'conj=possibility'
p119
I94
sS'nsubjpass=founder'
p120
I204
sS'w-2=blame'
p121
I634
sS'w+1=500'
p122
I272
sS'dobj=card'
p123
I121
sS'w-1=you'
p124
I590
sS'w-2=oversee'
p125
I697
sS'xcomp=fight'
p126
I756
sS'w+2=popularity'
p127
I458
sS'w+2=Benjamin'
p128
I367
sS'advcl=be'
p129
I0
sS'w-2=report'
p130
I712
sS'w+2=by'
p131
I398
sS'w+1=the'
p132
I341
sS'nsubjpass=school'
p133
I219
sS'w+2=2,000'
p134
I361
sS'w+1=most'
p135
I316
sS'rcmod=receive'
p136
I262
sS'advmod=only'
p137
I26
sS'w+2=be'
p138
I394
sS'cc=but'
p139
I81
sS'w+1=they'
p140
I344
sS'nsubj=Israel'
p141
I179
sS'w-2=group'
p142
I660
sS'w-2=role'
p143
I716
sS'w+1=those'
p144
I345
sS'w-1=already'
p145
I507
sS'w+2=prison'
p146
I461
sS'nsubjpass=#PRP#'
p147
I199
sS'prep=in'
p148
I248
sS'mark=about'
p149
I158
sS'aux=would'
p150
I78
sS'w+1=himout'
p151
I305
sS'nn=land'
p152
I169
sS'w+1=for'
p153
I301
sS'w-1=massive'
p154
I546
sS'w+2=land'
p155
I438
sS'w-2=journalist'
p156
I679
sS'w-2=that'
p157
I731
sS'prep=amid'
p158
I239
sS'w+1=Manzo'
p159
I276
sS'prep=to'
p160
I254
sS'xcomp=use'
p161
I763
sS'w-2=selling'
p162
I720
sS'w+2=Chad'
p163
I368
sS'w-1=bank'
p164
I514
sS'w-2=wound'
p165
I752
sS'infmod=expand'
p166
I157
sS'conj=spend'
p167
I98
sS'w-2=authority'
p168
I624
sS'w+2=use'
p169
I489
sS'w+1=and'
p170
I281
sS'w-1=Israel'
p171
I498
sS'dobj=theirallegiance'
p172
I152
sS'w+2=technology'
p173
I479
sS'w-2=police'
p174
I699
sS'w-2=project'
p175
I707
sS'w+1=ownership'
p176
I324
sS'nsubjpass=element'
p177
I202
sS'advmod=probably'
p178
I30
sS'xcomp=make'
p179
I759
sS'w+2=France'
p180
I371
sS'dobj=burden'
p181
I120
sS'conj=for'
p182
I92
sS'det=a'
p183
I103
sS'w+1=any'
p184
I282
sS'conj=transfer'
p185
I99
sS'w-2=order'
p186
I693
sS'nsubj=that'
p187
I196
sS'w-1=it'
p188
I538
sS'w-1=a'
p189
I502
sS'w+2=trade'
p190
I484
sS'w-2=ban'
p191
I625
sS'prt=up'
p192
I259
sS'det=this'
p193
I106
sS'w-2=bar'
p194
I627
sS'w+2=stall'
p195
I473
sS'w-1=in'
p196
I536
sS'w-1=land'
p197
I540
sS'w+2=we'
p198
I492
sS'w+1=fight'
p199
I300
sS'w+1=zookeeper'
p200
I352
sS'w+1=project'
p201
I329
sS'w+2=cargo'
p202
I400
sS'amod=automate'
p203
I42
sS'w+2=soon'
p204
I471
sS'advmod=overseas'
p205
I29
sS'w-2=confirm'
p206
I642
sS'dobj=weapon'
p207
I155
sS'w+2=power'
p208
I459
sS'w+1=Germain'
p209
I273
sS'amod=first'
p210
I48
sS'w+2=not'
p211
I448
sS'w-1=formal'
p212
I530
sS'advmod=where'
p213
I40
sS'poss=group'
p214
I232
sS'w-2=sector'
p215
I718
sS'w-2=agree'
p216
I613
sS'w+2=how'
p217
I428
sS'advmod=relatively'
p218
I32
sS'w-2=they'
p219
I734
sS'rcmod=be'
p220
I260
sS'w+2=120'
p221
I360
sS'w-2=which'
p222
I747
sS'w+1=have'
p223
I303
sS'w+2=national'
p224
I446
sS'det=the'
p225
I104
sS'dobj=district'
p226
I128
sS'det=these'
p227
I105
sS'w-2=use'
p228
I741
sS'conj=clear'
p229
I90
sS'rcmod=transfer'
p230
I264
sS'dobj=power'
p231
I142
sS'w-2=or'
p232
I692
sS'nsubj=who'
p233
I198
sS'conj=accidentally'
p234
I87
sS'advmod=meanwhile'
p235
I22
sS'w+2=nation'
p236
I445
sS'amod=voluntary'
p237
I68
sS'w-2=involve'
p238
I674
sS'w-2=relatively'
p239
I710
sS'nsubj=rendition'
p240
I195
sS'w+2=for'
p241
I421
sS'w-1=recent'
p242
I565
sS'w-2=on'
p243
I690
sS'w-1=to'
p244
I580
sS'w+1=patient'
p245
I325
sS'w-1=first'
p246
I527
sS'w-2=Serbia'
p247
I605
sS'w+2=release'
p248
I464
sS'dobj=assistance'
p249
I118
sS'dobj=#PRP#'
p250
I108
sS'w-2=do'
p251
I652
sS'dobj=pollutant'
p252
I139
sS'amod=massive'
p253
I53
sS'nsubjpass=much'
p254
I212
sS'w-2=reportedly'
p255
I713
sS'w+1=you'
p256
I351
sS'dobj=panel'
p257
I137
sS'partmod=revoke'
p258
I228
sS'w-2=delay'
p259
I650
sS'amod=high'
p260
I51
sS'w-1=such'
p261
I571
sS'xcomp=help'
p262
I758
sS'w+1=as'
p263
I284
sS'w+2=iranian'
p264
I433
sS'w+1=at'
p265
I285
sS'w+1=he'
p266
I304
sS'w+1=process'
p267
I328
sS'w+1=Israel'
p268
I275
sS'dobj=sash'
p269
I147
sS'prt=out'
p270
I258
sS'w+2=under'
p271
I487
sS'nsubjpass=that'
p272
I224
sS'w-2=military'
p273
I684
sS'w-1=weapon'
p274
I585
sS'w-1=financial'
p275
I526
sS'w+2=continue'
p276
I407
sS'w-1=can'
p277
I517
sS'dobj=many'
p278
I133
sS'w+2=cash'
p279
I402
sS'w+2=case'
p280
I401
sS'w+1=theirallegiance'
p281
I342
sS'nsubj=power'
p282
I194
sS'w-2=identify'
p283
I670
sS'w-2=datum'
p284
I646
sS'w+2=tax'
p285
I478
sS'advmod=when'
p286
I39
sS'w+1=weapon'
p287
I349
sS'w-1=unilateral'
p288
I583
sS'w-2=will'
p289
I749
sS'w+1=authority'
p290
I286
sS'w-2=ready'
p291
I708
sS'dobj=patient'
p292
I138
sS'w-2=recently'
p293
I709
sS'w-2=she'
p294
I721
sS'prep=for'
p295
I246
sS'dobj=authority'
p296
I119
sS'nsubj=force'
p297
I188
sS'w-2=target'
p298
I729
sS'w-1=allegedly'
p299
I506
sS'w-2=transfer'
p300
I737
sS'w-2=its'
p301
I678
sS'w-1=force'
p302
I529
sS'w+2=as'
p303
I391
sS'w-2=U.S.'
p304
I608
sS'w-2=problem'
p305
I701
sS'w-1=receive'
p306
I564
sS'dobj=anyone'
p307
I115
sS'partmod=enable'
p308
I227
sS'advcl=threaten'
p309
I9
sS'auxpass=be'
p310
I79
sS'w+2=terrorism'
p311
I480
sS"w-1='s"
p312
I494
sS'advmod=abroad'
p313
I10
sS'w+2=success'
p314
I475
sS'w+1=Vehicle'
p315
I277
sS'w+2=India'
p316
I374
sS'w-2=bank'
p317
I626
sS'w-2=stop'
p318
I726
sS'w-1=automate'
p319
I512
sS'w-2=over'
p320
I695
sS'w-1=cash'
p321
I518
sS'w+1=there'
p322
I343
sS'w-2=complete'
p323
I640
sS'prep=of'
p324
I250
sS'w+2=she'
p325
I469
sS'w+1=anyone'
p326
I283
sS'w+1=its'
p327
I310
sS'w-2=deal'
p328
I647
sS'w+2=New'
p329
I379
sS'w-2=rescind'
p330
I715
sS'w+2=brigade'
p331
I396
sS'w+1=knowledge'
p332
I312
sS'xcomp=suspect'
p333
I762
sS'w-2=up'
p334
I740
sS'w+2=Mutumba'
p335
I378
sS'w-2=commander'
p336
I639
sS'w-1=the'
p337
I575
sS'prep=off'
p338
I251
sS'amod=financial'
p339
I47
sS'w-1=people'
p340
I561
sS'w-2=element'
p341
I653
sS'w+2=clean'
p342
I404
sS'poss=country'
p343
I231
sS'dobj=popularity'
p344
I140
sS'w+2=fear'
p345
I419
sS'w-2=technique'
p346
I730
sS'nsubjpass=most'
p347
I211
sS'nsubjpass=man'
p348
I209
sS'w+2=fund'
p349
I425
sS'nsubjpass=situation'
p350
I220
sS'amod=nuclear'
p351
I55
sS'w-2=after'
p352
I612
sS'w+1=to'
p353
I346
sS'w-1=local'
p354
I543
sS'amod=formal'
p355
I49
sS'w+2=food'
p356
I420
sS'w+2=he'
p357
I427
sS'conj=send'
p358
I97
sS'prep=into'
p359
I249
sS'nsubj=Navy'
p360
I181
sS'w+2=billion'
p361
I395
sS'nn=overa'
p362
I171
sS'w+2=least'
p363
I441
sS'w-1=fund'
p364
I532
sS'w-2=bid'
p365
I632
sS'w-1=Kirchner'
p366
I499
sS'w-2=until'
p367
I739
sS'w+2=area'
p368
I390
sS'w+2=Katanga'
p369
I377
sS'nsubj=Kremlin'
p370
I180
sS'prep=without'
p371
I257
sS'w+2=Guantanamo'
p372
I372
sS'dobj=case'
p373
I122
sS'advmod=far'
p374
I18
sS'w-1=slow'
p375
I569
sS'dobj=cash'
p376
I123
sS"w-2='s"
p377
I592
sS'w-1=she'
p378
I568
sS'conj=U.K.'
p379
I86
sS'w-1=await'
p380
I513
sS'w-2=first'
p381
I654
sS'advcl=have'
p382
I3
sS'w+1=nine'
p383
I317
sS'dobj=those'
p384
I153
sS'nsubjpass=percentage'
p385
I214
sS'w-1=temporary'
p386
I573
sS'nsubj=Serbia'
p387
I182
sS'advmod=often'
p388
I25
sS'predet=all'
p389
I235
sS'w-2=arrival'
p390
I621
sS'w+2=entire'
p391
I417
sS'advcl=publish'
p392
I5
sS'w-2=handle'
p393
I663
sS'w+1=say'
p394
I332
sS'w+2=avian'
p395
I393
sS'w-1=money'
p396
I548
sS'w+1=clear'
p397
I292
sS'w-1=Navy'
p398
I501
sS'prep=onto'
p399
I253
sS'w-1=open'
p400
I557
sS'nn=theland'
p401
I173
sS'amod=temporary'
p402
I64
sS'w-2=hear'
p403
I666
sS'w-1=controversial'
p404
I522
sS'w-2=celebrate'
p405
I637
sS'w+2=regular'
p406
I463
sS'w-1=nuclear'
p407
I551
sS'w+1=several'
p408
I334
sS'w-1=official'
p409
I553
sS'nsubj=general'
p410
I189
sS'prep=until'
p411
I255
sS'dobj=husband'
p412
I131
sS'advmod=there'
p413
I37
sS'dobj=zookeeper'
p414
I156
sS'w+2=enriched'
p415
I416
sS'w+2=25'
p416
I362
sS'xcomp=stand'
p417
I760
sS'poss=Nigeria'
p418
I230
sS'w-1=they'
p419
I578
sS'aux=do'
p420
I72
sS'dobj=nurse'
p421
I136
sS'w+2=local'
p422
I442
sS'advmod=constantly'
p423
I17
sS'w+2=commercial'
p424
I405
sS'w-2=also'
p425
I617
sS'aux=will'
p426
I77
sS"dobj='s"
p427
I110
sS'w+2=Christmas'
p428
I369
sS'advmod=already'
p429
I12
sS'w+2=new'
p430
I447
sS'nn=money'
p431
I170
sS'nsubjpass=money'
p432
I210
sS'amod=normal'
p433
I54
sS'w+2=U.S.'
p434
I384
sS'w-2=manufacture'
p435
I683
sS'dobj=population'
p436
I141
sS'w+2=another'
p437
I389
sS'nsubj=people'
p438
I191
sS'prep=with'
p439
I256
sS'nn=bank'
p440
I165
sS'cc=or'
p441
I82
sS'dobj=detainee'
p442
I127
sS'nsubj=commander'
p443
I185
sS'nsubj=agency'
p444
I184
sS'w-1=constantly'
p445
I521
sS'w-2=Parhat'
p446
I602
sS'w+1=technology'
p447
I339
sS'w+2=its'
p448
I436
sS'amod=democratic'
p449
I45
sS'xcomp=face'
p450
I755
sS'w-2=if'
p451
I671
sS'w-1=resource'
p452
I566
sS'w-2=--'
p453
I595
sS'w+2=diminish'
p454
I413
sS'w-2=nation'
p455
I687
sS'w-2=willing'
p456
I750
sS'w-2=it'
p457
I677
sS'advmod=since'
p458
I34
sS'advmod=inland'
p459
I20
sS'w+2=do'
p460
I415
sS'dobj=problem'
p461
I143
sS'prep=because'
p462
I242
sS'advmod=away'
p463
I14
sS'w-1=agency'
p464
I505
sS'w-2=timetable'
p465
I735
sS'w+2=unilateral'
p466
I488
sS'w-1=for'
p467
I528
sS'w-1=advocate'
p468
I504
sS'w+2=Rwanda'
p469
I381
sS'w-2=controversial'
p470
I643
sS'nsubjpass=prisoner'
p471
I216
sS'w+2=Diallo'
p472
I370
sS'w+2=forestland'
p473
I422
sS'dobj=uranium'
p474
I154
sS'w+1=revoke'
p475
I331
sS'w-2=accept'
p476
I610
sS"w+2=''"
p477
I354
sS'w-1=this'
p478
I579
sS'w-2=Coast'
p479
I597
sS'w+2=burden'
p480
I397
sS'advmod=also'
p481
I13
sS'w+2=value'
p482
I490
sS'rcmod=crucial'
p483
I261
sS'w-1=ceremony'
p484
I519
sS'dobj=detail'
p485
I126
sS'w-2=way'
p486
I744
sS'mark=because'
p487
I161
sS'w-1=investment'
p488
I537
sS'w-2=program'
p489
I705
sS'w+2=1.6'
p490
I358
sS'w-2=States'
p491
I606
sS'w-2=plan'
p492
I698
sS'conj=operate'
p493
I93
sS'w-1=these'
p494
I577
sS'nsubjpass=who'
p495
I226
sS'w-2=have'
p496
I664
sS'cc=and'
p497
I80
sS'dobj=any'
p498
I114
sS'w+1=away'
p499
I287
sS'w+1=by'
p500
I290
sS'w+1=will'
p501
I350
sS'w+1=be'
p502
I288
sS'w+2=district'
p503
I414
sS'amod=final'
p504
I46
sS'w-2=represent'
p505
I714
sS'w-1=voluntary'
p506
I584
sS"w+2='s"
p507
I355
sS'w+2=remain'
p508
I465
sS'nsubjpass=fund'
p509
I206
sS'w-2=Department'
p510
I598
sS'nsubj=official'
p511
I190
sS'w+1=humanitarian'
p512
I306
sS'w-2=most'
p513
I686
sS'tmod=year'
p514
I267
sS'w+2=panel'
p515
I455
sS'mark=until'
p516
I163
sS'nsubj=#PRP#'
p517
I177
sS'w+1=about'
p518
I279
sS'w-2=fund'
p519
I656
sS'w-2=complicate'
p520
I641
sS'w+1=into'
p521
I308
sS'poss=journalist'
p522
I234
sS'w-2=decide'
p523
I648
sS'w+1=involve'
p524
I309
sS'dobj=success'
p525
I150
sS'poss=#PRP#'
p526
I229
sS'w-2=in'
p527
I672
sS'dobj=#NUMBER#'
p528
I107
sS'w-1=help'
p529
I535
sS'advcl=demonstrate'
p530
I1
sS'aux=could'
p531
I71
sS'nsubjpass=step'
p532
I221
sS'w-2=President'
p533
I603
sS'w-2=assistance'
p534
I623
sS'amod=open'
p535
I56
sS'w+2=war'
p536
I491
sS'w-2=begin'
p537
I631
sS'w-2=money'
p538
I685
sS'w+1=overseas'
p539
I323
sS'advmod=back'
p540
I15
sS'w-2=like'
p541
I680
sS'dobj=Katanga'
p542
I112
sS'w-1=make'
p543
I544
sS'w-2=allow'
p544
I616
sS'w+2=which'
p545
I493
sS'w-1=democratic'
p546
I523
sS'dobj=some'
p547
I149
sS'w-2=be'
p548
I628
sS'nn=trade'
p549
I174
sS'w+1=significant'
p550
I337
sS'w+2=try'
p551
I486
sS'amod=such'
p552
I62
sS'advcl=end'
p553
I2
sS'amod=uncritical'
p554
I66
sS'prep=on'
p555
I252
sS'mark=after'
p556
I159
sS'w-2=adopt'
p557
I611
sS'w-1=theland'
p558
I576
sS'nsubj=which'
p559
I197
sS"w-2=''"
p560
I591
sS'poss=island'
p561
I233
sS'advmod=later'
p562
I21
sS'w+2=Somali'
p563
I382
sS'w-2=could'
p564
I644
sS'w+2=7'
p565
I366
sS'w-1=orderly'
p566
I559
sS'dobj=$'
p567
I109
sS'dobj=arrival'
p568
I117
sS'w+1=out'
p569
I321
sS'advmod=recently'
p570
I31
sS'w+2=of'
p571
I451
sS'w+2=conventional'
p572
I409
sS'w-2=simpleenough'
p573
I723
sS'w+2=that'
p574
I481
sS'w+2=North'
p575
I380
sS'w+2=.'
p576
I357
sS'w+2=and'
p577
I388
sS'w-1=who'
p578
I586
sS'w-2=get'
p579
I658
sS'w-2=hague'
p580
I662
sS'w-2=want'
p581
I743
sS'w-1=or'
p582
I558
sS'w-2=argue'
p583
I620
sS'nsubjpass=sailor'
p584
I218
sS'w-1=often'
p585
I554
sS'w-2=general'
p586
I657
sS'nsubjpass=$'
p587
I200
sS'w-1=of'
p588
I552
sS'nsubj=police'
p589
I193
sS'dep=either'
p590
I102
sS'w-2=to'
p591
I736
sS'dobj=process'
p592
I144
sS'tmod=#DATE#'
p593
I265
sS'w-2=and'
p594
I618
sS'w+1=up'
p595
I348
sS'w-2=allege'
p596
I615
sS'nsubjpass=province'
p597
I217
sS'prep=across'
p598
I237
sS'w+2=about'
p599
I387
sS'w-2=try'
p600
I738
sS'nn=fund'
p601
I167
sS'w+1=detainee'
p602
I297
sS'cop=be'
p603
I100
sS'w-1=civilian-to-civilian'
p604
I520
sS'w-2=wish'
p605
I751
sS'w+2=transfer'
p606
I485
sS'w-1=uncritical'
p607
I582
sS'w+2=korean'
p608
I437
sS'w+1=more'
p609
I315
sS'w+1=share'
p610
I335
sS'w+1=pollutant'
p611
I326
sS'advmod=now'
p612
I24
sS'w-2=say'
p613
I717
sS'advmod=outside'
p614
I28
sS'w+2=into'
p615
I432
sS'w+2=100'
p616
I359
sS'prep=at'
p617
I241
sS'w+1=itself'
p618
I311
sS'prep=as'
p619
I240
sS'w-2=Hutus'
p620
I599
sS'w-2=,'
p621
I593
sS'w-2=-'
p622
I594
sS'w-2=.'
p623
I596
sS'w-1=Kremlin'
p624
I500
sS'w-1=and'
p625
I509
sS'advmod=unfortunately'
p626
I38
sS'w+2=Iraq'
p627
I376
sS'w+2=development'
p628
I412
sS'aux=have'
p629
I73
sS'w-2=but'
p630
I635
sS'w+1=billion'
p631
I289
sS'nsubjpass=Mann'
p632
I201
sS'w-2=overa'
p633
I696
sS'nn=wire'
p634
I176
sS'w-1=-'
p635
I496
sS'w+1=executive'
p636
I299
sS'w-2=not'
p637
I688
sS'xcomp=comply'
p638
I753
sS'dobj=share'
p639
I148
sS'conj=deprive'
p640
I91
sS'w-2=high'
p641
I667
sS'w-2=production'
p642
I704
sS'dobj=technology'
p643
I151
sS'dobj=Diallo'
p644
I111
sS'w-2=as'
p645
I622
sS'w-2=man'
p646
I682
sS'w+2=member'
p647
I443
sS'advmod=soon'
p648
I35
sS'w-2=decision'
p649
I649
sS'w-2=prohibit'
p650
I706
sS'w-1=also'
p651
I508
sS'w-2=how'
p652
I669
sS'dobj=fund'
p653
I130
sS'w+1=security'
p654
I333
sS'w+2=control'
p655
I408
sS'amod=recent'
p656
I59
sS'aux=should'
p657
I75
sS'amod=possible'
p658
I58
sS'w+2=iraqi'
p659
I434
sS'w+2=government'
p660
I426
sS'w-2=a'
p661
I609
sS'w+2=such'
p662
I476
sS'w+2=I'
p663
I373
sS'amod=target'
p664
I63
sS'mark=once'
p665
I162
sS'w+1=Guantanamo'
p666
I274
sS'w-2=Securitate'
p667
I604
sS'xcomp=enable'
p668
I754
sS'w+2=police'
p669
I457
sS'nn=technology'
p670
I172
sS'w-2=he'
p671
I665
sS'nsubjpass=embryo'
p672
I203
sS'w-1=actual'
p673
I503
sS'nsubjpass=technology'
p674
I223
sS'mark=as'
p675
I160
sS'w-1=he'
p676
I534
sS'w+2=security'
p677
I467
sS'w+1=many'
p678
I313
sS'w-2=include'
p679
I673
sS'dobj=area'
p680
I116
sS'dobj=money'
p681
I134
sS'w+1=from'
p682
I302
sS'w-2=such'
p683
I727
sS'nsubj=plan'
p684
I192
sS'nsubj=dump'
p685
I186
sS'nsubj=Department'
p686
I178
sS'complm=whether'
p687
I85
sS'w-2=issue'
p688
I676
sS'w-1=job'
p689
I539
sS'prep=after'
p690
I238
sS'w-2=welcome'
p691
I746
sS'w-2=procedure'
p692
I702
sS'amod=peaceful'
p693
I57
sS'w+2=nurse'
p694
I450
sS'w+2=palestinian'
p695
I454
sS'w+1=north'
p696
I318
sS'w+2=husband'
p697
I429
sS'w-2=once'
p698
I691
sS'amod=civilian-to-civilian'
p699
I43
sS'w+2=assistance'
p700
I392
sS'w-2=goal'
p701
I659
sS'w-1=begin'
p702
I516
sS'dobj=responsibility'
p703
I146
sS'advcl=hold'
p704
I4
sS'w+2=suspect'
p705
I477
sS'w-2=likely'
p706
I681
sS'w-1=asset'
p707
I511
sS'conj=release'
p708
I95
sS'w+1=delay'
p709
I296
sS'advmod=how'
p710
I19
sS'w-1=ever'
p711
I524
sS'nn=cash'
p712
I166
sS'prep=from'
p713
I247
sS'advmod=out'
p714
I27
sS'w+2=other'
p715
I453
sS'w+2=exist'
p716
I418
sS'conj=resume'
p717
I96
sS'aux=to'
p718
I76
sS'w-2=should'
p719
I722
sS'w-2=security'
p720
I719
sS'w-1=technology'
p721
I572
sS'amod=unilateral'
p722
I67
sS'w+2=the'
p723
I482
sS'nn=weapon'
p724
I175
sS'w-1=only'
p725
I556
sS'w+2=money'
p726
I444
sS'w-1=full'
p727
I531
sS'w-1=probably'
p728
I563
sS'w-2=discuss'
p729
I651
sS'w+1=$'
p730
I268
sS'w+1=control'
p731
I293
sS'nsubjpass=fugitive'
p732
I205
sS'tmod=week'
p733
I266
sS'w+1=,'
p734
I269
sS'w+1=.'
p735
I270
sS'nsubj=father'
p736
I187
sS'dep=after'
p737
I101
sS'w+1=some'
p738
I338
sS'w+2=,'
p739
I356
sS'dobj=Kurds'
p740
I113
sS'neg=not'
p741
I164
sS'w+2=$'
p742
I353
sS'prep=during'
p743
I245
sS'w-2=certainly'
p744
I638
sS'w+2=operate'
p745
I452
sS'w-1=wire'
p746
I588
sS'conj=aid'
p747
I88
sS'w+2=Zimbabwe'
p748
I385
sS'w+2=complete'
p749
I406
sS'w-1=on'
p750
I555
sS'dobj=nation'
p751
I135
sS'dobj=control'
p752
I124
sS'w+1=a'
p753
I278
sS'w-1=normal'
p754
I549
sS'w-1=not'
p755
I550
sS'w+2=a'
p756
I386
sS'nsubjpass=suspect'
p757
I222
sS'w-1=later'
p758
I541
sS'advmod=allegedly'
p759
I11
sS'w-1=may'
p760
I547
sS'advmod=reportedly'
p761
I33
sS'w-1=as'
p762
I510
sS'w-2=because'
p763
I629
sS'w-1=that'
p764
I574
sS'aux=be'
p765
I69
sS'w-2=for'
p766
I655
sS'w+1=power'
p767
I327
sS'w+2=40'
p768
I363
sS'w+2=48'
p769
I365
sS'w-1=man'
p770
I545
sS'dobj=project'
p771
I145
ssS'dtype'
p772
cnumpy
float64
p773
sS'feature_names_'
p774
(lp775
g129
ag530
ag553
ag382
ag704
ag392
ag18
ag17
ag86
ag309
ag313
ag759
ag429
ag481
ag463
ag540
ag14
ag423
ag374
ag710
ag459
ag562
ag235
ag11
ag612
ag388
ag137
ag714
ag614
ag205
ag178
ag570
ag218
ag761
ag458
ag648
ag8
ag413
ag626
ag286
ag213
ag56
ag203
ag699
ag30
ag449
ag504
ag339
ag210
ag355
ag72
ag260
ag81
ag253
ag433
ag351
ag535
ag693
ag658
ag656
ag31
ag49
ag552
ag664
ag402
ag85
ag554
ag722
ag237
ag765
ag115
ag531
ag420
ag629
ag68
ag657
ag718
ag426
ag150
ag310
ag497
ag139
ag441
ag76
ag116
ag687
ag379
ag234
ag747
ag47
ag229
ag640
ag182
ag493
ag119
ag708
ag717
ag358
ag167
ag185
ag603
ag737
ag590
ag183
ag225
ag227
ag193
ag528
ag250
ag567
ag427
ag644
ag542
ag740
ag498
ag307
ag680
ag568
ag249
ag296
ag181
ag123
ag373
ag376
ag752
ag22
ag485
ag442
ag226
ag60
ag653
ag412
ag37
ag278
ag681
ag751
ag421
ag257
ag292
ag252
ag344
ag436
ag231
ag461
ag592
ag771
ag703
ag269
ag639
ag547
ag525
ag643
ag172
ag384
ag474
ag207
ag414
ag166
ag149
ag556
ag675
ag487
ag665
ag516
ag741
ag440
ag712
ag601
ag104
ag152
ag431
ag362
ag670
ag401
ag549
ag724
ag634
ag517
ag686
ag141
ag370
ag360
ag387
ag21
ag444
ag443
ag685
ag736
ag297
ag410
ag511
ag438
ag684
ag589
ag282
ag240
ag187
ag559
ag233
ag147
ag587
ag632
ag177
ag672
ag120
ag732
ag509
ag91
ag19
ag348
ag432
ag347
ag254
ag78
ag385
ag55
ag471
ag597
ag584
ag133
ag350
ag532
ag757
ag674
ag272
ag38
ag495
ag308
ag258
ag526
ag418
ag343
ag214
ag561
ag522
ag389
ag114
ag598
ag690
ag158
ag619
ag617
ag462
ag9
ag43
ag743
ag295
ag713
ag148
ag359
ag324
ag338
ag555
ag399
ag160
ag411
ag439
ag371
ag270
ag192
ag220
ag483
ag136
ag89
ag230
ag593
ag733
ag514
ag730
ag734
ag735
ag61
ag122
ag209
ag666
ag268
ag159
ag315
ag753
ag518
ag70
ag170
ag184
ag326
ag263
ag265
ag290
ag499
ag502
ag631
ag500
ag80
ag397
ag731
ag109
ag84
ag709
ag602
ag113
ag636
ag199
ag153
ag682
ag223
ag266
ag151
ag512
ag65
ag521
ag524
ag327
ag618
ag332
ag678
ag105
ag609
ag135
ag383
ag696
ag88
ag97
ag569
ag16
ag539
ag176
ag245
ag611
ag767
ag267
ag201
ag48
ag475
ag394
ag654
ag408
ag610
ag74
ag550
ag738
ag447
ag46
ag132
ag281
ag322
ag140
ag144
ag353
ag33
ag595
ag287
ag501
ag256
ag200
ag742
ag477
ag507
ag739
ag576
ag490
ag616
ag221
ag134
ag416
ag768
ag41
ag769
ag565
ag128
ag163
ag428
ag472
ag180
ag372
ag663
ag316
ag117
ag627
ag369
ag335
ag329
ag575
ag469
ag563
ag110
ag434
ag748
ag756
ag599
ag577
ag437
ag368
ag303
ag700
ag395
ag138
ag361
ag331
ag480
ag131
ag35
ag202
ag280
ag279
ag26
ag342
ag424
ag749
ag276
ag655
ag572
ag57
ag94
ag628
ag454
ag503
ag460
ag415
ag391
ag716
ag345
ag356
ag241
ag473
ag27
ag82
ag349
ag660
ag357
ag217
ag697
ag103
ag106
ag615
ag264
ag659
ag107
ag448
ag608
ag155
ag44
ag93
ag363
ag422
ag647
ag726
ag236
ag224
ag430
ag211
ag59
ag694
ag571
ag745
ag715
ag695
ag515
ag36
ag669
ag127
ag208
ag71
ag146
ag15
ag406
ag248
ag508
ag29
ag677
ag99
ag325
ag90
ag204
ag39
ag195
ag83
ag314
ag662
ag705
ag285
ag173
ag311
ag574
ag723
ag92
ag190
ag606
ag551
ag271
ag466
ag169
ag482
ag536
ag198
ag545
ag312
ag45
ag635
ag101
ag171
ag366
ag624
ag398
ag189
ag673
ag468
ag464
ag299
ag145
ag651
ag625
ag762
ag707
ag319
ag380
ag164
ag69
ag702
ag277
ag321
ag484
ag604
ag445
ag404
ag546
ag711
ag96
ag275
ag246
ag467
ag302
ag212
ag727
ag364
ag100
ag676
ag529
ag196
ag488
ag188
ag689
ag197
ag758
ag53
ag354
ag543
ag770
ag154
ag760
ag396
ag754
ag755
ag407
ag588
ag409
ag585
ag750
ag725
ag400
ag582
ag566
ag50
ag340
ag24
ag728
ag306
ag242
ag452
ag54
ag378
ag375
ag63
ag261
ag721
ag386
ag764
ag337
ag558
ag494
ag419
ag478
ag244
ag34
ag607
ag288
ag506
ag274
ag578
ag66
ag746
ag52
ag124
ag560
ag377
ag621
ag622
ag453
ag623
ag479
ag510
ag620
ag67
ag118
ag446
ag533
ag667
ag247
ag491
ag77
ag304
ag661
ag476
ag557
ag352
ag216
ag111
ag596
ag544
ag425
ag594
ag102
ag583
ag390
ag645
ag534
ag168
ag191
ag317
ag194
ag548
ag763
ag79
ag537
ag365
ag10
ag121
ag630
ag32
ag405
ag744
ag336
ag323
ag520
ag206
ag470
ag564
ag95
ag284
ag328
ag523
ag649
ag259
ag729
ag251
ag341
ag381
ag766
ag519
ag586
ag579
ag701
ag142
ag13
ag580
ag393
ag496
ag671
ag403
ag641
ag108
ag652
ag283
ag451
ag527
ag679
ag238
ag23
ag688
ag457
ag301
ag156
ag541
ag706
ag646
ag435
ag273
ag538
ag513
ag455
ag637
ag25
ag243
ag698
ag232
ag186
ag112
ag320
ag633
ag125
ag492
ag174
ag75
ag305
ag692
ag98
ag642
ag489
ag650
ag175
ag291
ag293
ag239
ag62
ag130
ag255
ag505
ag330
ag143
ag613
ag215
ag720
ag162
ag294
ag719
ag573
ag40
ag12
ag318
ag683
ag20
ag298
ag346
ag157
ag73
ag51
ag219
ag465
ag591
ag300
ag600
ag367
ag334
ag228
ag58
ag581
ag486
ag64
ag691
ag222
ag87
ag289
ag456
ag605
ag165
ag638
ag668
ag450
ag126
ag42
ag262
ag179
ag417
ag28
ag333
ag161
asS'separator'
p776
S'='
sS'sparse'
p777
I01
sb.