ccopy_reg
_reconstructor
p1
(csklearn.feature_extraction.dict_vectorizer
DictVectorizer
p2
c__builtin__
object
p3
NtRp4
(dp5
S'vocabulary_'
p6
(dp7
S'w+1=finding'
p8
I122
sS'w+2=bill'
p9
I145
sS'w-1=player'
p10
I199
sS'dobj=law'
p11
I51
sS'w+2=birth'
p12
I146
sS'advmod=up'
p13
I10
sS'w-1=drastically'
p14
I192
sS'advmod=significantly'
p15
I9
sS'aux=have'
p16
I14
sS'w+1=available'
p17
I119
sS'w-2=would'
p18
I249
sS'w+2=course'
p19
I149
sS'w-2=investigation'
p20
I225
sS'w+2=facial'
p21
I154
sS'advmod=dramatically'
p22
I6
sS'dobj=certificate'
p23
I39
sS'w+2=travel'
p24
I180
sS'w+2=such'
p25
I176
sS'w+2=human'
p26
I158
sS'w-2=earthworm'
p27
I221
sS'w-2=which'
p28
I246
sS'w+1=passport'
p29
I127
sS'nsubj=forest'
p30
I85
sS'nsubj=change'
p31
I82
sS'conj=threaten'
p32
I32
sS'w-2=to'
p33
I240
sS'dobj=supply'
p34
I70
sS'w-2=use'
p35
I241
sS'w+2=.'
p36
I139
sS'w-2=,'
p37
I208
sS'prep=base'
p38
I104
sS'w+2=destroy'
p39
I151
sS'w-2=want'
p40
I243
sS'w+2=any'
p41
I143
sS'w-1=or'
p42
I198
sS'rel=in'
p43
I112
sS'w-2=or'
p44
I230
sS'nsubj=process'
p45
I89
sS'nsubj=player'
p46
I88
sS'nsubj=exposure'
p47
I84
sS'w-1=significantly'
p48
I201
sS'w-1=by'
p49
I189
sS'nsubj=attack'
p50
I80
sS'dobj=situation'
p51
I67
sS'w+2=early'
p52
I152
sS'w-2=could'
p53
I218
sS'w-2=they'
p54
I239
sS'w-2=will'
p55
I247
sS'w-1=to'
p56
I203
sS'prep=by'
p57
I106
sS'dobj=process'
p58
I61
sS'nsubj=many'
p59
I86
sS'w+2=balance'
p60
I144
sS'partmod=cut'
p61
I100
sS'nsubj=chamber'
p62
I81
sS'w+2=natural'
p63
I165
sS'w-2=do'
p64
I220
sS'ccomp=strike'
p65
I23
sS'w-1=without'
p66
I205
sS'w-1=would'
p67
I206
sS'w-1=exposure'
p68
I193
sS'w-2=expect'
p69
I222
sS'conj=potential'
p70
I30
sS'nsubj=session'
p71
I91
sS'aux=do'
p72
I13
sS'w+1=rain'
p73
I129
sS'dobj=legislature'
p74
I52
sS'dobj=impact'
p75
I50
sS'advcl=start'
p76
I4
sS'aux=will'
p77
I16
sS'nsubj=that'
p78
I94
sS'ccomp=get'
p79
I21
sS'conj=weaken'
p80
I33
sS'w-1=riches'
p81
I200
sS'w+2=law'
p82
I160
sS'conj=cause'
p83
I27
sS'advmod=practical'
p84
I8
sS'prep=as'
p85
I102
sS'w-1=will'
p86
I204
sS'xcomp=such'
p87
I252
sS'w+1=traditional'
p88
I134
sS'w-2=.'
p89
I209
sS'prep=with'
p90
I111
sS'cc=or'
p91
I20
sS'w+1=as'
p92
I118
sS'w+1=he'
p93
I123
sS'w+1=what'
p94
I137
sS'w+2=french-african'
p95
I156
sS'dobj=relation'
p96
I64
sS'nsubj=proposal'
p97
I90
sS'w-2=session'
p98
I235
sS'w-1=be'
p99
I188
sS'w-2=chamber'
p100
I216
sS'w+2=weaken'
p101
I183
sS'w+2=add'
p102
I142
sS'w-1=,'
p103
I184
sS'w+2=impact'
p104
I159
sS'w-1=could'
p105
I190
sS'dobj=balance'
p106
I37
sS'w+1=she'
p107
I131
sS'w-2=power'
p108
I232
sS'w-2=warming'
p109
I244
sS'w-2=able'
p110
I210
sS'w+2=cycle'
p111
I150
sS'advcl=cling'
p112
I1
sS'w-2=as'
p113
I213
sS'w-2=it'
p114
I226
sS'dobj=life'
p115
I53
sS'w-2=little'
p116
I227
sS'w+2=legislature'
p117
I161
sS'w-1=Researchers'
p118
I185
sS'w-2=aim'
p119
I212
sS'w+2=life'
p120
I162
sS'w+2=own'
p121
I168
sS'dobj=skyline'
p122
I68
sS'prep=because'
p123
I105
sS'w+2=tax'
p124
I177
sS'w+1=Britain'
p125
I114
sS'conj=add'
p126
I26
sS'w-2=soccer'
p127
I236
sS'prep=toward'
p128
I110
sS'w+1=ego'
p129
I121
sS'dobj=course'
p130
I41
sS'nsubj=pattern'
p131
I87
sS'prep=for'
p132
I107
sS'w+1=or'
p133
I126
sS'dep=that'
p134
I34
sS'w+1=any'
p135
I117
sS'w+1=we'
p136
I136
sS'w-1=have'
p137
I195
sS'nsubj=something'
p138
I92
sS'w-2=independence'
p139
I224
sS'w+1=metabolism'
p140
I125
sS'prep=at'
p141
I103
sS'nsubj=amendment'
p142
I79
sS'w-2=willingness'
p143
I248
sS'w-1=dramatically'
p144
I191
sS'dobj=position'
p145
I60
sS'nsubj=warming'
p146
I96
sS'advcl=appear'
p147
I0
sS'w-2=proposal'
p148
I234
sS'w-2=machine'
p149
I228
sS'w+2=national'
p150
I164
sS'nsubjpass=life'
p151
I98
sS'dobj=outcome'
p152
I55
sS'nsubj=Researchers'
p153
I78
sS'dobj=strategy'
p154
I69
sS'w+1=Turkey'
p155
I115
sS'auxpass=be'
p156
I18
sS'complm=that'
p157
I24
sS'complm=whether'
p158
I25
sS'w+2=they'
p159
I179
sS'dobj=distribution'
p160
I43
sS'w+2=either'
p161
I153
sS'w+2=vote'
p162
I181
sS'w+2=situation'
p163
I173
sS'advmod=as'
p164
I5
sS'w-1=oppose'
p165
I197
sS'w-2=have'
p166
I223
sS'cc=and'
p167
I19
sS'dobj=policy'
p168
I59
sS'dobj=any'
p169
I35
sS'w-2=pre-natal'
p170
I233
sS'w+2=position'
p171
I172
sS'w+1=the'
p172
I132
sS'dobj=finding'
p173
I48
sS'w+1=by'
p174
I120
sS'partmod=threaten'
p175
I101
sS'dobj=ecosystem'
p176
I44
sS'dobj=regulation'
p177
I63
sS'dobj=cycle'
p178
I42
sS'w+2=overhaul'
p179
I167
sS'w+1=they'
p180
I133
sS'dobj=term'
p181
I71
sS'dobj=flow'
p182
I49
sS'w+2=plan'
p183
I171
sS'dobj=virus'
p184
I72
sS'dobj=bill'
p185
I38
sS'nsubjpass=#PRP#'
p186
I97
sS'w-2=attack'
p187
I214
sS'w+2=1999'
p188
I140
sS'prep=in'
p189
I108
sS'neg=not'
p190
I76
sS'w+2=strategy'
p191
I175
sS'aux=would'
p192
I17
sS'w-2=way'
p193
I245
sS'w+2=physiology'
p194
I170
sS'nsubj=#PRP#'
p195
I77
sS'w-2=pattern'
p196
I231
sS'w-2=vow'
p197
I242
sS'w+2=term'
p198
I178
sS'w-1=and'
p199
I186
sS'w-2=activity'
p200
I211
sS'nsubj=stadium'
p201
I93
sS"w+1=''"
p202
I113
sS'dobj=prohibition'
p203
I62
sS'prep=to'
p204
I109
sS'dobj=metabolism'
p205
I54
sS'aux=to'
p206
I15
sS'w-1=at'
p207
I187
sS'xcomp=establish'
p208
I250
sS'w+2=final'
p209
I155
sS'dobj=passport'
p210
I57
sS'ccomp=plan'
p211
I22
sS'w+2=come'
p212
I147
sS'advcl=exist'
p213
I2
sS'conj=question'
p214
I31
sS'xcomp=make'
p215
I251
sS'w+1=and'
p216
I116
sS'w+2=skyline'
p217
I174
sS'dobj=part'
p218
I56
sS'conj=destroy'
p219
I28
sS'dobj=plan'
p220
I58
sS'advcl=play'
p221
I3
sS"w-2=''"
p222
I207
sS'w-1=for'
p223
I194
sS'nsubj=this'
p224
I95
sS'w-2=stadium'
p225
I237
sS'w+2=of'
p226
I166
sS'w+2=water'
p227
I182
sS'dobj=ego'
p228
I45
sS'w+2=constitution'
p229
I148
sS'w-2=dam'
p230
I219
sS'mark=so'
p231
I75
sS'w+1=propose'
p232
I128
sS'dobj=war'
p233
I73
sS'w+2=long'
p234
I163
sS'dobj=resource'
p235
I65
sS'w+1=key'
p236
I124
sS'w+1=regulation'
p237
I130
sS'nsubjpass=strategy'
p238
I99
sS'w+2=geographical'
p239
I157
sS'dobj=constitution'
p240
I40
sS"w+2='s"
p241
I138
sS'dobj=result'
p242
I66
sS'w-2=authority'
p243
I215
sS'w+2=part'
p244
I169
sS'dobj=approach'
p245
I36
sS'w-2=not'
p246
I229
sS'w-1=not'
p247
I196
sS'dobj=election'
p248
I46
sS'conj=overhaul'
p249
I29
sS'aux=could'
p250
I12
sS'w-1=the'
p251
I202
sS'w+1=upcoming'
p252
I135
sS'advmod=overseas'
p253
I7
sS'aux=be'
p254
I11
sS'w-2=substantive'
p255
I238
sS'mark=if'
p256
I74
sS'w-2=change'
p257
I217
sS'dobj=feature'
p258
I47
sS'w+2=a'
p259
I141
sS'nsubj=dam'
p260
I83
ssS'dtype'
p261
cnumpy
float64
p262
sS'feature_names_'
p263
(lp264
g147
ag112
ag213
ag221
ag76
ag164
ag22
ag253
ag84
ag15
ag13
ag254
ag250
ag72
ag16
ag206
ag77
ag192
ag156
ag167
ag91
ag79
ag211
ag65
ag157
ag158
ag126
ag83
ag219
ag249
ag70
ag214
ag32
ag80
ag134
ag169
ag245
ag106
ag185
ag23
ag240
ag130
ag178
ag160
ag176
ag228
ag248
ag258
ag173
ag182
ag75
ag11
ag74
ag115
ag205
ag152
ag218
ag210
ag220
ag168
ag145
ag58
ag203
ag177
ag96
ag235
ag242
ag51
ag122
ag154
ag34
ag181
ag184
ag233
ag256
ag231
ag190
ag195
ag153
ag142
ag50
ag62
ag31
ag260
ag47
ag30
ag59
ag131
ag46
ag45
ag97
ag71
ag138
ag201
ag78
ag224
ag146
ag186
ag151
ag238
ag61
ag175
ag85
ag141
ag38
ag123
ag57
ag132
ag189
ag204
ag128
ag90
ag43
ag202
ag125
ag155
ag216
ag135
ag92
ag17
ag174
ag129
ag8
ag93
ag236
ag140
ag133
ag29
ag232
ag73
ag237
ag107
ag172
ag180
ag88
ag252
ag136
ag94
ag241
ag36
ag188
ag259
ag102
ag41
ag60
ag9
ag12
ag212
ag229
ag19
ag111
ag39
ag52
ag161
ag21
ag209
ag95
ag239
ag26
ag104
ag82
ag117
ag120
ag234
ag150
ag63
ag226
ag179
ag121
ag244
ag194
ag183
ag171
ag163
ag217
ag191
ag25
ag124
ag198
ag159
ag24
ag162
ag227
ag101
ag103
ag118
ag199
ag207
ag99
ag49
ag105
ag144
ag14
ag68
ag223
ag137
ag247
ag165
ag42
ag10
ag81
ag48
ag251
ag56
ag86
ag66
ag67
ag222
ag37
ag89
ag110
ag200
ag119
ag113
ag187
ag243
ag100
ag257
ag53
ag230
ag64
ag27
ag69
ag166
ag139
ag20
ag114
ag116
ag149
ag246
ag44
ag196
ag108
ag170
ag148
ag98
ag127
ag225
ag255
ag54
ag33
ag35
ag197
ag40
ag109
ag193
ag28
ag55
ag143
ag18
ag208
ag215
ag87
asS'separator'
p265
S'='
sS'sparse'
p266
I01
sb.