ccopy_reg
_reconstructor
p1
(csklearn.feature_extraction.dict_vectorizer
DictVectorizer
p2
c__builtin__
object
p3
NtRp4
(dp5
S'sort'
p6
I01
sS'feature_names_'
p7
(lp8
S'advmod=faster'
p9
aS'aux=have'
p10
aS'aux=to'
p11
aS'aux=would'
p12
aS'auxpass=be'
p13
aS'cc=and'
p14
aS'ccomp=give'
p15
aS'conj=assassinate'
p16
aS'dobj=#NUMBER#'
p17
aS'dobj=#PRP#'
p18
aS'dobj=Heights'
p19
aS'dobj=activist'
p20
aS'dobj=antenna'
p21
aS'dobj=car'
p22
aS'dobj=equipment'
p23
aS'dobj=file'
p24
aS'dobj=property'
p25
aS'dobj=water'
p26
aS'dobj=weapon'
p27
aS'nsubj=#PRP#'
p28
aS'nsubj=Mercenaries'
p29
aS'nsubj=man'
p30
aS'nsubj=ship'
p31
aS'nsubjpass=#PRP#'
p32
aS'nsubjpass=goods'
p33
aS'prep=from'
p34
aS'w+1=.'
p35
aS'w+1=a'
p36
aS'w+1=five'
p37
aS'w+1=from'
p38
aS'w+1=it'
p39
aS'w+1=spill'
p40
aS'w+1=the'
p41
aS'w+1=they'
p42
aS'w+1=water'
p43
aS'w+1=you'
p44
aS'w+2=,'
p45
aS'w+2=activist'
p46
aS'w+2=broken'
p47
aS'w+2=car'
p48
aS'w+2=faster'
p49
aS'w+2=file'
p50
aS'w+2=for'
p51
aS'w+2=property'
p52
aS'w+2=response'
p53
aS'w+2=strategic'
p54
aS'w+2=the'
p55
aS'w+2=weapon'
p56
aS'w-1=and'
p57
aS'w-1=be'
p58
aS'w-1=have'
p59
aS'w-1=in'
p60
aS'w-1=man'
p61
aS'w-1=of'
p62
aS'w-1=to'
p63
aS'w-1=would'
p64
aS'w-2=,'
p65
aS'w-2=.'
p66
aS'w-2=Mercenaries'
p67
aS'w-2=adroa'
p68
aS'w-2=come'
p69
aS'w-2=have'
p70
aS'w-2=involve'
p71
aS'w-2=process'
p72
aS'w-2=say'
p73
aS'w-2=spacewalk'
p74
aS'w-2=they'
p75
aS'w-2=war'
p76
aS'w-2=we'
p77
aS'xcomp=return'
p78
asS'dtype'
p79
cnumpy
float64
p80
sS'vocabulary_'
p81
(dp82
g74
I65
sg23
I14
sg16
I7
sg53
I44
sg67
I58
sg54
I45
sg71
I62
sg11
I2
sg21
I12
sg20
I11
sg31
I22
sg22
I13
sg75
I66
sg77
I68
sg35
I26
sg38
I29
sg17
I8
sg65
I56
sg66
I57
sg13
I4
sg34
I25
sg52
I43
sg47
I38
sg9
I0
sg10
I1
sg40
I31
sg58
I49
sg73
I64
sg45
I36
sg51
I42
sg48
I39
sg37
I28
sg70
I61
sg29
I20
sg68
I59
sg14
I5
sg57
I48
sg78
I69
sg41
I32
sg49
I40
sg27
I18
sg30
I21
sg42
I33
sg62
I53
sg19
I10
sg60
I51
sg63
I54
sg44
I35
sg36
I27
sg32
I23
sg76
I67
sg43
I34
sg55
I46
sg25
I16
sg12
I3
sg18
I9
sg15
I6
sg56
I47
sg26
I17
sg50
I41
sg64
I55
sg39
I30
sg69
I60
sg28
I19
sg72
I63
sg46
I37
sg33
I24
sg59
I50
sg61
I52
sg24
I15
ssS'separator'
p83
S'='
sS'sparse'
p84
I01
sb.