ccopy_reg
_reconstructor
p1
(csklearn.feature_extraction.dict_vectorizer
DictVectorizer
p2
c__builtin__
object
p3
NtRp4
(dp5
S'vocabulary_'
p6
(dp7
S'csubj=allow'
p8
I48
sS'w-1=militia'
p9
I333
sS'aux=have'
p10
I29
sS'w+2=World'
p11
I237
sS'w+1=flooding'
p12
I187
sS'nsubjpass=system'
p13
I135
sS'rcmod=lose'
p14
I155
sS'w-1=infrastructure'
p15
I330
sS'w+1=education'
p16
I184
sS'nsubj=attack'
p17
I94
sS'w-2=they'
p18
I431
sS'w-2=II'
p19
I366
sS'prep=by'
p20
I144
sS'w-2=country'
p21
I387
sS'nsubj=fallout'
p22
I104
sS'dobj=crop'
p23
I68
sS'nsubj=government'
p24
I105
sS'w-1=would'
p25
I356
sS'dobj=family'
p26
I70
sS'w+1=town'
p27
I216
sS'advcl=low'
p28
I4
sS'nsubjpass=village'
p29
I137
sS'w+1=locust'
p30
I195
sS'advmod=hard'
p31
I13
sS'w+2=tamil'
p32
I282
sS'w-2=from'
p33
I393
sS'w-1=clash'
p34
I316
sS'nsubj=cost'
p35
I99
sS'prep=upon'
p36
I153
sS'w-2=winter'
p37
I442
sS'conj=destroy'
p38
I40
sS'w+1=consequence'
p39
I180
sS'w+2=delta'
p40
I250
sS'dobj=Orleans'
p41
I61
sS'w+2=begin'
p42
I243
sS'w-1=be'
p43
I312
sS'w+1=setback'
p44
I200
sS'w+2=Hurricane'
p45
I231
sS'w+1=family'
p46
I185
sS'w-2=the'
p47
I430
sS'nsubjpass=infrastructure'
p48
I127
sS'w+2=activity'
p49
I239
sS'w+2=Trident'
p50
I235
sS'w-2=risk'
p51
I420
sS'w+1=crop'
p52
I182
sS'nsubj=clash'
p53
I97
sS'w+2=country'
p54
I248
sS'w+2=continent'
p55
I247
sS'nsubj=earthquake'
p56
I102
sS'w-1=village'
p57
I351
sS'w-2=Katrina'
p58
I368
sS'w-2=infrastructure'
p59
I399
sS'w-2=Ocean'
p60
I371
sS'w+2=grower'
p61
I259
sS'w+1=or'
p62
I198
sS'w-1=its'
p63
I332
sS'w-1=have'
p64
I329
sS'tmod=year'
p65
I156
sS'advcl=find'
p66
I1
sS'w+2=if'
p67
I261
sS'w+2=in'
p68
I262
sS'conj=trigger'
p69
I46
sS'w+2=what'
p70
I292
sS'xcomp=see'
p71
I445
sS'w-2=may'
p72
I407
sS'w-1=could'
p73
I319
sS'w-1=also'
p74
I309
sS'aux=can'
p75
I27
sS'complm=that'
p76
I38
sS'conj=impact'
p77
I42
sS'w+1=suicide'
p78
I207
sS'dobj=area'
p79
I62
sS'w-1=government'
p80
I328
sS'w-1=tsunami'
p81
I348
sS'dobj=pastureland'
p82
I79
sS'w-2=report'
p83
I415
sS'w-2=that'
p84
I429
sS'w+1=the'
p85
I211
sS'w+2=shiite'
p86
I279
sS'w+1=they'
p87
I212
sS'advcl=uproot'
p88
I6
sS'dobj=orchard'
p89
I77
sS'w-1=already'
p90
I308
sS'nsubjpass=#PRP#'
p91
I119
sS'w+2=Irrawaddy'
p92
I232
sS'prep=in'
p93
I149
sS'aux=would'
p94
I33
sS'w+1=for'
p95
I189
sS'w-1=Hill'
p96
I301
sS'w+1=Indonesia'
p97
I162
sS'w-1=community'
p98
I317
sS'dobj=swath'
p99
I84
sS'w-2=village'
p100
I437
sS'prep=to'
p101
I152
sS'w-1=population'
p102
I338
sS'w+1=summer'
p103
I208
sS'nsubjpass=industry'
p104
I126
sS'w-2=deficit'
p105
I389
sS'w-1=still'
p106
I342
sS'w+1=and'
p107
I168
sS'w-2=rainfall'
p108
I411
sS'w-1=fire'
p109
I324
sS'w+2=for'
p110
I257
sS'nsubjpass=Stanley'
p111
I121
sS'det=a'
p112
I55
sS'nsubj=that'
p113
I113
sS'w-1=it'
p114
I331
sS'w+2=drought'
p115
I252
sS'w+2=Cyclone'
p116
I229
sS'w-1=suffer'
p117
I343
sS'w+1=Darwin'
p118
I160
sS'w-2=tree'
p119
I435
sS'w+2=species'
p120
I280
sS'w+2=we'
p121
I291
sS'w+2=possibly'
p122
I273
sS'w-2=assassination'
p123
I379
sS'xcomp=threaten'
p124
I446
sS'w-1=the'
p125
I345
sS'w+2=bomb'
p126
I244
sS'w+1=coastal'
p127
I178
sS'advmod=where'
p128
I24
sS'w+2=consequence'
p129
I246
sS'csubj=do'
p130
I49
sS'dobj=city'
p131
I65
sS'nsubj=war'
p132
I116
sS'w-2=which'
p133
I440
sS'nsubj=loss'
p134
I109
sS'w-2=so'
p135
I427
sS'dobj=port'
p136
I80
sS'w+1=tropical'
p137
I217
sS'w-2=life'
p138
I403
sS'dobj=country'
p139
I67
sS'prep=include'
p140
I150
sS'w+2=kill'
p141
I265
sS'w+2=see'
p142
I277
sS'advmod=meanwhile'
p143
I15
sS'w-2=of'
p144
I409
sS'w+1=work'
p145
I222
sS'w+1=cattle'
p146
I174
sS'w-1=to'
p147
I347
sS'w-2=Aceh'
p148
I361
sS'w-2=kind'
p149
I402
sS'nsubj=lack'
p150
I108
sS'w-1=province'
p151
I339
sS'w-1=two'
p152
I349
sS'advmod=completely'
p153
I10
sS'w+1=upon'
p154
I218
sS'dep=vulnerable'
p155
I52
sS'w-1=deal'
p156
I321
sS'w-2=attack'
p157
I380
sS'w-1=completely'
p158
I318
sS'w+1=as'
p159
I170
sS'w+2=all'
p160
I240
sS'nsubjpass=that'
p161
I136
sS'w-1=when'
p162
I354
sS'w-1=can'
p163
I315
sS'w+1=Oberoi'
p164
I166
sS'w-1=water'
p165
I353
sS'w-1=call'
p166
I314
sS'w-1=very'
p167
I350
sS'xcomp=learn'
p168
I444
sS'advmod=most'
p169
I16
sS'advmod=when'
p170
I23
sS'w-2=support'
p171
I428
sS'w-2=she'
p172
I424
sS'prep=for'
p173
I147
sS'w+1=civil'
p174
I176
sS'w+1=pastureland'
p175
I199
sS'w-2=burma'
p176
I383
sS'auxpass=be'
p177
I34
sS"w-1='s"
p178
I296
sS'prep=and'
p179
I142
sS'w+2=good'
p180
I258
sS'dobj=region'
p181
I82
sS'advmod=still'
p182
I20
sS'w-2=drought'
p183
I390
sS'w+2=recent'
p184
I275
sS'w+2=many'
p185
I269
sS'w+1=swath'
p186
I209
sS'dobj=Florida'
p187
I59
sS'w+2=with'
p188
I293
sS'nsubj=Nargis'
p189
I93
sS"w-1=''"
p190
I295
sS'w+2=port'
p191
I272
sS'w+2=Orleans'
p192
I234
sS'xcomp=work'
p193
I448
sS'w+1=village'
p194
I219
sS'w+2=year'
p195
I294
sS'nsubj=bombardment'
p196
I95
sS'xcomp=vote'
p197
I447
sS'w-2=Pacific'
p198
I372
sS'dobj=education'
p199
I69
sS'nsubjpass=most'
p200
I130
sS'nsubj=this'
p201
I114
sS'w+2=of'
p202
I270
sS'w+1=common'
p203
I179
sS'w+2=on'
p204
I271
sS'w+1=to'
p205
I213
sS'w+2=long-term'
p206
I268
sS'dobj=Haiti'
p207
I60
sS'w-1=that'
p208
I344
sS'w-1=and'
p209
I310
sS'w+2=storm'
p210
I281
sS'nsubj=swarm'
p211
I112
sS'advmod=very'
p212
I22
sS'w-2=bombing'
p213
I382
sS'w+1=violence'
p214
I220
sS'w+2=area'
p215
I242
sS'w-2=fly'
p216
I392
sS'w-1=Nargis'
p217
I304
sS'w+2=cyclone'
p218
I249
sS'w-1=cyclone'
p219
I320
sS'w+2=provide'
p220
I274
sS'w-2=upset'
p221
I436
sS'aux=may'
p222
I30
sS'advcl=breadwinner'
p223
I0
sS'advcl=have'
p224
I3
sS'w+1=news'
p225
I196
sS'nsubjpass=economy'
p226
I125
sS'w+1=city'
p227
I175
sS'w-2=resident'
p228
I417
sS'advmod=often'
p229
I17
sS'w-2=responsible'
p230
I418
sS'w+1=because'
p231
I171
sS'dobj=grower'
p232
I71
sS'w-1=since'
p233
I341
sS'w-2=would'
p234
I443
sS'w+2=break'
p235
I245
sS'advmod=thus'
p236
I21
sS'w+1=storm'
p237
I206
sS'nsubjpass=area'
p238
I122
sS'w+1=several'
p239
I201
sS'w+2=farther'
p240
I254
sS'nsubj=disaster'
p241
I101
sS'w-2=skyrocket'
p242
I426
sS'w-2=decade'
p243
I388
sS'nsubj=some'
p244
I110
sS'w-1=Europe'
p245
I300
sS'conj=complain'
p246
I39
sS'partmod=send'
p247
I140
sS'advmod=ever'
p248
I12
sS'w-2=return'
p249
I419
sS'nsubj=impact'
p250
I106
sS'aux=will'
p251
I32
sS'advmod=already'
p252
I8
sS'dobj=Darwin'
p253
I57
sS'prep=with'
p254
I154
sS'nsubj=effect'
p255
I103
sS'cc=or'
p256
I37
sS'nsubjpass=Angola'
p257
I120
sS"w-2=shi'ite"
p258
I425
sS'w-1=most'
p259
I334
sS'w-2=quake'
p260
I410
sS'w+1=area'
p261
I169
sS'dobj=village'
p262
I86
sS'w-2=in'
p263
I397
sS'w-1=Katrina'
p264
I303
sS'w-2=it'
p265
I401
sS'w-1=reportedly'
p266
I340
sS'nsubjpass=city'
p267
I124
sS'dobj=continent'
p268
I66
sS'w+1=civilian'
p269
I177
sS'w-1=after'
p270
I306
sS"w+2=''"
p271
I223
sS'nsubj=country'
p272
I100
sS'w-2=alcohol'
p273
I375
sS'advmod=also'
p274
I9
sS'w-2=activity'
p275
I374
sS'w+1=follow'
p276
I188
sS'dobj=life'
p277
I74
sS'w+2=Kivu'
p278
I233
sS'w-2=rebel'
p279
I412
sS'w-2=Stanley'
p280
I373
sS'w-2=have'
p281
I394
sS'cc=and'
p282
I35
sS'dobj=province'
p283
I81
sS'w-2=flood'
p284
I391
sS'w+1=by'
p285
I173
sS'w+1=criticism'
p286
I181
sS'nsubj=consequence'
p287
I98
sS'w+1=tobacco'
p288
I214
sS'w-1=but'
p289
I313
sS"w+2='s"
p290
I224
sS'nsubjpass=region'
p291
I132
sS'w-2=when'
p292
I439
sS'w-2=war'
p293
I438
sS'nsubjpass=network'
p294
I131
sS'dobj=cattle'
p295
I64
sS'w+1=if'
p296
I192
sS'conj=say'
p297
I45
sS'w+1=home'
p298
I191
sS'w-2=Cyclone'
p299
I363
sS'w+1=in'
p300
I193
sS'nsubj=#PRP#'
p301
I90
sS'w-1=from'
p302
I326
sS'advcl=go'
p303
I2
sS'w+2=learn'
p304
I266
sS'w+1=New'
p305
I165
sS'w-2=see'
p306
I421
sS'w+2=family'
p307
I253
sS'conj=leave'
p308
I44
sS'cc=but'
p309
I36
sS'w-2=set'
p310
I423
sS'w-2=Hanson'
p311
I364
sS'w+1=social'
p312
I204
sS'w-1=Indonesia'
p313
I302
sS'aux=could'
p314
I28
sS'w-2=could'
p315
I386
sS'w-2=homeless'
p316
I396
sS'w+1=-rrb-'
p317
I158
sS'w+1=southern'
p318
I205
sS'nsubj=increase'
p319
I107
sS'w-1=warfare'
p320
I352
sS'w+2=war'
p321
I289
sS'w-2=anti-independence'
p322
I377
sS'advmod=all'
p323
I7
sS'w-1=over'
p324
I337
sS'dobj=Coast'
p325
I56
sS'dobj=business'
p326
I63
sS'w-2=Karima'
p327
I367
sS'w-2=be'
p328
I381
sS'w+2=seven'
p329
I278
sS'prep=on'
p330
I151
sS'w-2=rebuild'
p331
I413
sS'mark=after'
p332
I87
sS'w+2=Florida'
p333
I230
sS'w-1=2004'
p334
I299
sS'nsubj=which'
p335
I118
sS'w+2=region'
p336
I276
sS'w+1=six'
p337
I202
sS'nsubj=II'
p338
I91
sS'w+1=small'
p339
I203
sS'dep=watch'
p340
I54
sS'w+2=village'
p341
I288
sS'w-2=can'
p342
I384
sS'w+2=destroy'
p343
I251
sS'dobj=species'
p344
I83
sS'w+1=large'
p345
I194
sS'w-1=of'
p346
I335
sS'nsubjpass=member'
p347
I129
sS'w+1=flood'
p348
I186
sS'w-2=to'
p349
I433
sS'w+2=and'
p350
I241
sS'w-2=and'
p351
I376
sS'w-2=Hurricane'
p352
I365
sS'nsubj=Katrina'
p353
I92
sS'cop=be'
p354
I47
sS'w+2=urban'
p355
I287
sS'w-2=he'
p356
I395
sS'nsubjpass=resident'
p357
I133
sS'w+2=flooding'
p358
I256
sS'w+1=business'
p359
I172
sS'w-2=Angola'
p360
I362
sS'w+2=the'
p361
I283
sS'w-2=will'
p362
I441
sS'prep=as'
p363
I143
sS'w+1=Irrawaddy'
p364
I163
sS'w-2=,'
p365
I358
sS'w-2=-'
p366
I359
sS'w-2=.'
p367
I360
sS'w+2=Americans'
p368
I227
sS'w+2=he'
p369
I260
sS"w-2='"
p370
I357
sS'advmod=south'
p371
I19
sS'w-2=island'
p372
I400
sS'w-1=,'
p373
I297
sS'w+2=threaten'
p374
I285
sS'dobj=infrastructure'
p375
I72
sS'amod=social'
p376
I25
sS'w-2=as'
p377
I378
sS'w-2=Lankan'
p378
I369
sS'w-1=earthquake'
p379
I322
sS'w-2=Mosul'
p380
I370
sS'w-1=which'
p381
I355
sS'w+1=during'
p382
I183
sS'conj=irreversible'
p383
I43
sS'w-1=they'
p384
I346
sS'w-1=emotionally'
p385
I323
sS'w-1=a'
p386
I305
sS'w+2=fisher'
p387
I255
sS'nsubjpass=which'
p388
I138
sS'w-2=massive'
p389
I406
sS'dep=since'
p390
I51
sS'w-1=-lrb-'
p391
I298
sS'nsubjpass=body'
p392
I123
sS'mark=as'
p393
I88
sS'w+2=Bari'
p394
I228
sS'dobj=land'
p395
I73
sS'advmod=emotionally'
p396
I11
sS'nsubjpass=life'
p397
I128
sS'w+1=from'
p398
I190
sS'nsubj=water'
p399
I117
sS'w-2=request'
p400
I416
sS'w-2=city'
p401
I385
sS'w-2=major'
p402
I405
sS'w+2=they'
p403
I284
sS'dobj=Delta'
p404
I58
sS'prep=after'
p405
I141
sS'w+2=watch'
p406
I290
sS'w+1=north'
p407
I197
sS'nsubj=strike'
p408
I111
sS'w-2=series'
p409
I422
sS'w-2=likely'
p410
I404
sS'w-2=tourism'
p411
I434
sS'w-2=this'
p412
I432
sS'mark=since'
p413
I89
sS'advmod=how'
p414
I14
sS'w-2=industry'
p415
I398
sS'prep=follow'
p416
I146
sS'w+2=U.S.'
p417
I236
sS'w+1=Haiti'
p418
I161
sS'w-1=all'
p419
I307
sS'partmod=force'
p420
I139
sS'nsubj=tsunami'
p421
I115
sS'prep=from'
p422
I148
sS'conj=elicit'
p423
I41
sS'nsubj=campaign'
p424
I96
sS'w+1=when'
p425
I221
sS'aux=to'
p426
I31
sS'w+2=town'
p427
I286
sS'w-2=measure'
p428
I408
sS'dep=warfare'
p429
I53
sS'w+1=toll'
p430
I215
sS'w+1=Mogadishu'
p431
I164
sS'dobj=part'
p432
I78
sS'dobj=market'
p433
I75
sS'w-1=for'
p434
I325
sS'w+1=,'
p435
I157
sS'w+1=.'
p436
I159
sS'w-2=region'
p437
I414
sS'dep=after'
p438
I50
sS'w+2=.'
p439
I226
sS'w+2=,'
p440
I225
sS'w-1=often'
p441
I336
sS'advcl=persuade'
p442
I5
sS'dobj=operation'
p443
I76
sS'prep=during'
p444
I145
sS'w+1=temblor'
p445
I210
sS'dobj=town'
p446
I85
sS'w+2=internal'
p447
I264
sS'w+2=life'
p448
I267
sS'w+1=a'
p449
I167
sS'w+2=indian'
p450
I263
sS'advmod=reportedly'
p451
I18
sS'w-1=as'
p452
I311
sS'nsubjpass=society'
p453
I134
sS'aux=be'
p454
I26
sS'w+2=a'
p455
I238
sS'w-1=fuel'
p456
I327
ssS'dtype'
p457
cnumpy
float64
p458
sS'feature_names_'
p459
(lp460
g223
ag66
ag303
ag224
ag28
ag442
ag88
ag323
ag252
ag274
ag153
ag396
ag248
ag31
ag414
ag143
ag169
ag229
ag451
ag371
ag182
ag236
ag212
ag170
ag128
ag376
ag454
ag75
ag314
ag10
ag222
ag426
ag251
ag94
ag177
ag282
ag309
ag256
ag76
ag246
ag38
ag423
ag77
ag383
ag308
ag297
ag69
ag354
ag8
ag130
ag438
ag390
ag155
ag429
ag340
ag112
ag325
ag253
ag404
ag187
ag207
ag41
ag79
ag326
ag295
ag131
ag268
ag139
ag23
ag199
ag26
ag232
ag375
ag395
ag277
ag433
ag443
ag89
ag432
ag82
ag136
ag283
ag181
ag344
ag99
ag446
ag262
ag332
ag393
ag413
ag301
ag338
ag353
ag189
ag17
ag196
ag424
ag53
ag287
ag35
ag272
ag241
ag56
ag255
ag22
ag24
ag250
ag319
ag150
ag134
ag244
ag408
ag211
ag113
ag201
ag421
ag132
ag399
ag335
ag91
ag257
ag111
ag238
ag392
ag267
ag226
ag104
ag48
ag397
ag347
ag200
ag294
ag291
ag357
ag453
ag13
ag161
ag29
ag388
ag420
ag247
ag405
ag179
ag363
ag20
ag444
ag416
ag173
ag422
ag93
ag140
ag330
ag101
ag36
ag254
ag14
ag65
ag435
ag317
ag436
ag118
ag418
ag97
ag364
ag431
ag305
ag164
ag449
ag107
ag261
ag159
ag231
ag359
ag285
ag146
ag227
ag174
ag269
ag127
ag203
ag39
ag286
ag52
ag382
ag16
ag46
ag348
ag12
ag276
ag95
ag398
ag298
ag296
ag300
ag345
ag30
ag225
ag407
ag62
ag175
ag44
ag239
ag337
ag339
ag312
ag318
ag237
ag78
ag103
ag186
ag445
ag85
ag87
ag205
ag288
ag430
ag27
ag137
ag154
ag194
ag214
ag425
ag145
ag271
ag290
ag440
ag439
ag368
ag394
ag116
ag333
ag45
ag92
ag278
ag192
ag50
ag417
ag11
ag455
ag49
ag160
ag350
ag215
ag42
ag126
ag235
ag129
ag55
ag54
ag218
ag40
ag343
ag115
ag307
ag240
ag387
ag358
ag110
ag180
ag61
ag369
ag67
ag68
ag450
ag447
ag141
ag304
ag448
ag206
ag185
ag202
ag204
ag191
ag122
ag220
ag184
ag336
ag142
ag329
ag86
ag120
ag210
ag32
ag361
ag403
ag374
ag427
ag355
ag341
ag321
ag406
ag121
ag70
ag188
ag195
ag190
ag178
ag373
ag391
ag334
ag245
ag96
ag313
ag264
ag217
ag386
ag270
ag419
ag90
ag74
ag209
ag452
ag43
ag289
ag166
ag163
ag34
ag98
ag158
ag73
ag219
ag156
ag379
ag385
ag109
ag434
ag302
ag456
ag80
ag64
ag15
ag114
ag63
ag9
ag259
ag346
ag441
ag324
ag102
ag151
ag266
ag233
ag106
ag117
ag208
ag125
ag384
ag147
ag81
ag152
ag167
ag57
ag320
ag165
ag162
ag381
ag25
ag370
ag365
ag366
ag367
ag148
ag360
ag299
ag311
ag352
ag19
ag327
ag58
ag378
ag380
ag60
ag198
ag280
ag275
ag273
ag351
ag322
ag377
ag123
ag157
ag328
ag213
ag176
ag342
ag401
ag315
ag21
ag243
ag105
ag183
ag284
ag216
ag33
ag281
ag356
ag316
ag263
ag415
ag59
ag372
ag265
ag149
ag138
ag410
ag402
ag389
ag72
ag428
ag144
ag260
ag108
ag279
ag331
ag437
ag83
ag400
ag228
ag230
ag249
ag51
ag306
ag409
ag310
ag172
ag258
ag242
ag135
ag171
ag84
ag47
ag18
ag412
ag349
ag411
ag119
ag221
ag100
ag293
ag292
ag133
ag362
ag37
ag234
ag168
ag71
ag124
ag197
ag193
asS'separator'
p461
S'='
sS'sparse'
p462
I01
sb.