ccopy_reg
_reconstructor
p1
(csklearn.feature_extraction.dict_vectorizer
DictVectorizer
p2
c__builtin__
object
p3
NtRp4
(dp5
S'vocabulary_'
p6
(dp7
S'w+1=al-Qaida'
p8
I201
sS'w+2=armed'
p9
I282
sS'nsubj=gravity'
p10
I143
sS'w+2=newly'
p11
I334
sS'dobj=Pakistanis'
p12
I63
sS'w-2=we'
p13
I543
sS'w-2=people'
p14
I506
sS'w+2=Lebanese'
p15
I273
sS'w+1=insurgent'
p16
I221
sS'w-1=present'
p17
I409
sS'w-2=absorb'
p18
I441
sS'ccomp=learn'
p19
I32
sS'w-2=level'
p20
I493
sS'w-1=country'
p21
I396
sS'advmod=well'
p22
I15
sS'dobj=neighbor'
p23
I100
sS'w-2=offer'
p24
I500
sS'w+2=victim'
p25
I367
sS'w+1=Thailand'
p26
I193
sS'w+1=troubled'
p27
I248
sS'w+2=worker'
p28
I373
sS'ccomp=kick-start'
p29
I31
sS'xcomp=bring'
p30
I549
sS'w+1=Italy'
p31
I190
sS'dobj=country'
p32
I81
sS'w+2=nation'
p33
I331
sS'w+1=internally'
p34
I222
sS'w+2=british'
p35
I292
sS'dobj=group'
p36
I88
sS'dobj=firm'
p37
I86
sS'nsubj=government'
p38
I142
sS'w+1=disadvantaged'
p39
I212
sS'nsubj=official'
p40
I148
sS'w-2=official'
p41
I502
sS'ccomp=find'
p42
I30
sS'w+1=survivor'
p43
I241
sS'advmod=better'
p44
I9
sS'w-1=will'
p45
I419
sS'w-2=find'
p46
I477
sS'dobj=move'
p47
I98
sS'dobj=effort'
p48
I83
sS'w+1=-lrb-'
p49
I179
sS'aux=may'
p50
I21
sS'dobj=lebanese'
p51
I94
sS'w-2=receive'
p52
I516
sS'w-1=be'
p53
I390
sS'w-2=family'
p54
I476
sS'w-2=the'
p55
I533
sS'w-2=why'
p56
I545
sS'w-2=resource'
p57
I520
sS'w+2=800,000'
p58
I264
sS'nsubj=mission'
p59
I146
sS'w+2=country'
p60
I298
sS'dobj=Nations'
p61
I62
sS'w-2=aid'
p62
I446
sS'w-1=state'
p63
I410
sS'dobj=survivor'
p64
I114
sS'w+2=to'
p65
I364
sS'dobj=aid'
p66
I70
sS'w+1=or'
p67
I231
sS'w+2=young'
p68
I374
sS'w-2=Network'
p69
I434
sS'w-2=Africa'
p70
I425
sS'w-1=have'
p71
I402
sS'w-2=something'
p72
I527
sS'w+2=internally'
p73
I322
sS'w+2=in'
p74
I321
sS'conj=help'
p75
I38
sS'w+1=victim'
p76
I250
sS'w-2=pathologist'
p77
I505
sS'w+1=India'
p78
I187
sS'w+2=who'
p79
I370
sS'w-1=could'
p80
I395
sS'prep=about'
p81
I161
sS'aux=can'
p82
I18
sS'complm=that'
p83
I34
sS'w+2=iraqi'
p84
I323
sS'w+1=people'
p85
I234
sS'w+2=flood'
p86
I310
sS'dobj=Zimbabwe'
p87
I68
sS'w+1=distressed'
p88
I214
sS'nsubj=Center'
p89
I126
sS'w-1=government'
p90
I400
sS'w+2=but'
p91
I293
sS'w-2=effort'
p92
I470
sS'dobj=Americans'
p93
I55
sS'w+2=by'
p94
I294
sS'w+1=the'
p95
I243
sS'w+2=transitional'
p96
I365
sS'advmod=allegedly'
p97
I5
sS'w+2=be'
p98
I288
sS'w+1=they'
p99
I244
sS'w+1=those'
p100
I246
sS'nsubjpass=#PRP#'
p101
I157
sS'w-2=out'
p102
I504
sS'xcomp=provide'
p103
I557
sS'prep=in'
p104
I169
sS'w+2=population'
p105
I346
sS'w-1=about'
p106
I383
sS'dobj=military'
p107
I96
sS'nsubj=fund'
p108
I141
sS'dobj=hospital'
p109
I90
sS'nsubj=U.N.'
p110
I135
sS'w-1=UNHCR'
p111
I382
sS'dobj=India'
p112
I58
sS'prep=to'
p113
I174
sS'dobj=program'
p114
I108
sS'w+2=Iraqis'
p115
I272
sS'dobj=worker'
p116
I118
sS'xcomp=alleviate'
p117
I548
sS'nsubj=Ethiopia'
p118
I128
sS'w-1=towards'
p119
I415
sS'xcomp=improve'
p120
I555
sS'w+1=and'
p121
I203
sS'dobj=hungry'
p122
I91
sS'w+2=naval'
p123
I332
sS'w-2=project'
p124
I511
sS'w+1=u.s.-led'
p125
I249
sS'w+1=child'
p126
I209
sS'nsubjpass=victim'
p127
I159
sS'w-2=intervention'
p128
I490
sS'w+2=for'
p129
I312
sS'w+1=accord'
p130
I198
sS'w+1=other'
p131
I232
sS'conj=transfer'
p132
I45
sS'nsubj=that'
p133
I154
sS'w+1=woman'
p134
I254
sS'advmod=further'
p135
I11
sS'w-2=government'
p136
I481
sS'advmod=here'
p137
I12
sS'dobj=journalist'
p138
I92
sS'w+2=this'
p139
I363
sS'w+2=uncover'
p140
I366
sS'w-1=in'
p141
I404
sS'w+2=we'
p142
I368
sS'w+2=bring'
p143
I291
sS'w-2=tribunal'
p144
I536
sS'w-2=IOM'
p145
I430
sS'w+2=army'
p146
I283
sS'w-2=obligation'
p147
I499
sS'w-2=need'
p148
I496
sS'dep=Chadians'
p149
I46
sS'mark=if'
p150
I122
sS'dobj=Palestinians'
p151
I64
sS'dobj=refugee'
p152
I110
sS'nsubj=initiative'
p153
I144
sS'nsubj=UNHCR'
p154
I136
sS'w-2=state'
p155
I529
sS'conj=protect'
p156
I43
sS'w+2=ed'
p157
I301
sS'w+2=space'
p158
I354
sS'w-2=agree'
p159
I445
sS'advmod=internally'
p160
I13
sS'w+2=when'
p161
I369
sS'nsubj=way'
p162
I155
sS'dobj=Cameroonians'
p163
I56
sS'dobj=Iraqis'
p164
I59
sS'w+2=33'
p165
I261
sS'w-2=community'
p166
I461
sS'prep=by'
p167
I165
sS'dobj=people'
p168
I104
sS'w-2=staffer'
p169
I528
sS'conj=assist'
p170
I35
sS'w+2=regional'
p171
I351
sS'nsubj=who'
p172
I156
sS'w+1=both'
p173
I205
sS'dobj=au'
p174
I73
sS'xcomp=come'
p175
I550
sS'xcomp=short'
p176
I560
sS'w-2=country'
p177
I464
sS'w-1=to'
p178
I414
sS'w-2=deploy'
p179
I467
sS'nsubj=swedish'
p180
I153
sS'w+2=60,000'
p181
I263
sS'dobj=#PRP#'
p182
I54
sS'nsubj=IOM'
p183
I130
sS'w-2=prepare'
p184
I510
sS'w+1=domestic'
p185
I215
sS'w+2=Cameroonians'
p186
I269
sS'w+2=here'
p187
I316
sS'w-2=Guard'
p188
I429
sS'w-2=serious'
p189
I525
sS'w+2=apply'
p190
I281
sS'w+1=non-iraqi'
p191
I230
sS'w-2=ability'
p192
I439
sS'w-1=INTERPOL'
p193
I381
sS'w+2=Pakistanis'
p194
I275
sS'w+2=zanu-pf'
p195
I375
sS'w-2=protect'
p196
I512
sS'w-1=-rrb-'
p197
I378
sS'prep=over'
p198
I171
sS'w-1=actually'
p199
I384
sS'w-2=Italy'
p200
I432
sS'w+1=he'
p201
I219
sS'w-2=army'
p202
I451
sS'nsubj=Patrol'
p203
I133
sS'nsubj=Italy'
p204
I131
sS'w-2=Cross'
p205
I427
sS'w+1=nearly'
p206
I229
sS'w+2=financial'
p207
I308
sS'w-2=arm'
p208
I450
sS'w-1=can'
p209
I394
sS'dobj=many'
p210
I95
sS'w-2=newspaper'
p211
I497
sS'w-2=able'
p212
I440
sS'w+2=journalist'
p213
I324
sS'dep=ed'
p214
I48
sS'dobj=Georgia'
p215
I57
sS'w-2=initiative'
p216
I489
sS'w-2=ready'
p217
I515
sS'w-2=recently'
p218
I517
sS'prep=for'
p219
I167
sS'conj=facilitate'
p220
I37
sS'dep=that'
p221
I51
sS'w+1=we'
p222
I251
sS'nsubj=force'
p223
I140
sS'w-1=allegedly'
p224
I386
sS'w-2=appeal'
p225
I449
sS'w+2=at'
p226
I286
sS'w+2=au'
p227
I287
sS'w-2=U.S.'
p228
I437
sS'w-2=commitment'
p229
I460
sS'w+2=return'
p230
I353
sS'w-2=create'
p231
I465
sS'w+2=state'
p232
I356
sS'w-2=commit'
p233
I459
sS'dep=whole'
p234
I52
sS'w+1=burma'
p235
I206
sS'auxpass=be'
p236
I25
sS'w-2=Nepal'
p237
I433
sS'dobj=all'
p238
I71
sS'w+2=Astronaut'
p239
I268
sS'advmod=always'
p240
I7
sS'dobj=community'
p241
I79
sS'w+2=after'
p242
I278
sS'w+2=terrorist'
p243
I357
sS'w-2=also'
p244
I447
sS'w-2=desire'
p245
I468
sS'xcomp=return'
p246
I559
sS'w+2=peacekeeping'
p247
I343
sS'w+2=nomad'
p248
I336
sS'conj=optimistic'
p249
I42
sS'w-1=further'
p250
I398
sS'conj=increase'
p251
I39
sS'w+2=Democratic'
p252
I270
sS'w+2=New'
p253
I274
sS'w+2=with'
p254
I372
sS'w+2=move'
p255
I330
sS"w-1=''"
p256
I376
sS'dobj=Italy'
p257
I60
sS'w-2=place'
p258
I507
sS'w-2=expert'
p259
I475
sS'dobj=corporation'
p260
I80
sS'advcl=deem'
p261
I1
sS'conj=do'
p262
I36
sS'nsubj=contact'
p263
I139
sS'w+2=whose'
p264
I371
sS"w-2=''"
p265
I421
sS'dobj=government'
p266
I87
sS'w+2=of'
p267
I337
sS'w-2=after'
p268
I443
sS'w-2=unit'
p269
I538
sS'w+2=on'
p270
I338
sS'w+1=to'
p271
I247
sS'xcomp=defend'
p272
I551
sS'w+2=food'
p273
I311
sS'w-1=and'
p274
I389
sS'nsubj=staffer'
p275
I152
sS'w+1=so'
p276
I239
sS'w-2=leave'
p277
I492
sS'dobj=Party'
p278
I65
sS'w+1=Georgia'
p279
I186
sS'w+2=part'
p280
I341
sS'w+1=Zimbabwe'
p281
I195
sS'w-2=critical'
p282
I466
sS'w-2=same'
p283
I522
sS'w+2=final'
p284
I307
sS'w+2=nigerian'
p285
I335
sS'conj=not'
p286
I41
sS'xcomp=help'
p287
I554
sS'dobj=those'
p288
I115
sS'w+2=enforcement'
p289
I304
sS'w+1=local'
p290
I225
sS'w-2=go'
p291
I480
sS'dobj=grower'
p292
I89
sS'advmod=worldwide'
p293
I16
sS'w+1=over'
p294
I233
sS'w+2=hungry'
p295
I320
sS'w+2=break'
p296
I290
sS'ccomp=likely'
p297
I33
sS'w+1=180,000'
p298
I181
sS'auxpass=get'
p299
I26
sS'w+2=Afghan'
p300
I266
sS'w-2=Iraq'
p301
I431
sS'w-1=official'
p302
I407
sS'w+2=protect'
p303
I349
sS'dobj=planner'
p304
I105
sS'nsubj=Network'
p305
I132
sS'w-1=always'
p306
I388
sS'w-2=advise'
p307
I442
sS'dep=so'
p308
I50
sS'w+2=over'
p309
I340
sS'dobj=network'
p310
I101
sS'w-2=with'
p311
I547
sS'w+2=minister'
p312
I328
sS'advcl=start'
p313
I3
sS'aux=will'
p314
I24
sS'dobj=democracy'
p315
I82
sS'ccomp=assist'
p316
I29
sS'w+2=hospital'
p317
I319
sS'expl=there'
p318
I120
sS'w-2=unloaded'
p319
I539
sS'nsubj=States'
p320
I134
sS'dobj=population'
p321
I107
sS'nsubj=people'
p322
I150
sS'prep=with'
p323
I176
sS'cc=or'
p324
I28
sS'nsubj=community'
p325
I138
sS'xcomp=well-beyond'
p326
I562
sS'w+1=well'
p327
I252
sS'nsubj=agency'
p328
I137
sS'xcomp=involve'
p329
I556
sS'w+2=people'
p330
I344
sS'w-2=plan'
p331
I508
sS'w-2=suppose'
p332
I530
sS'w+1=area'
p333
I204
sS'w-2=if'
p334
I487
sS'w-2=best'
p335
I455
sS'w+1=refugee'
p336
I237
sS'w+2=moderate'
p337
I329
sS'w+1=foreign'
p338
I218
sS'w-2=service'
p339
I526
sS'w-1=ICRC'
p340
I380
sS'w+2=relief'
p341
I352
sS'w-2=it'
p342
I491
sS'w-2=Congress'
p343
I426
sS'w-2=determine'
p344
I469
sS'w+2=private'
p345
I347
sS'w-2=come'
p346
I458
sS'w+2=help'
p347
I315
sS'prep=accord'
p348
I162
sS"w+2=''"
p349
I257
sS'w-2=organization'
p350
I503
sS'dobj=farmer'
p351
I85
sS'advmod=also'
p352
I6
sS'w-2=refuel'
p353
I518
sS'dobj=victim'
p354
I116
sS'w+1=Turkey'
p355
I194
sS'nsubj=officer'
p356
I147
sS'w-2=States'
p357
I436
sS'w-2=who'
p358
I544
sS'w-2=enthusiastic'
p359
I473
sS'w+2=neighbor'
p360
I333
sS'w-2=have'
p361
I483
sS'cc=and'
p362
I27
sS'w+1=zimbabwean'
p363
I256
sS'w+1=ten'
p364
I242
sS'prep=under'
p365
I175
sS'advmod=currently'
p366
I10
sS'w-2=use'
p367
I540
sS'w+1=by'
p368
I207
sS'dobj=moderate'
p369
I97
sS'w+2=community'
p370
I295
sS'w-2=2005'
p371
I424
sS'w-1=but'
p372
I393
sS"w+2='s"
p373
I258
sS'w-2=team'
p374
I531
sS'xcomp=target'
p375
I561
sS'w+1=Iraq'
p376
I189
sS'w+2=asylum'
p377
I285
sS'w+1=state'
p378
I240
sS'w+1=in'
p379
I220
sS'w+1=aid'
p380
I200
sS'w+2=party'
p381
I342
sS'nsubj=#PRP#'
p382
I125
sS'w+1=312,000'
p383
I183
sS'w+1=about'
p384
I197
sS'w+2=group'
p385
I314
sS'w+1=Iran'
p386
I188
sS'w-2=fund'
p387
I479
sS'w-2=want'
p388
I542
sS'w-2=role'
p389
I521
sS'w+1=fail'
p390
I216
sS'w-2=Ethiopia'
p391
I428
sS'w+2=coordinate'
p392
I296
sS'w-2=quickly'
p393
I513
sS'dobj=#NUMBER#'
p394
I53
sS'w-1=you'
p395
I420
sS'w+2=facilitate'
p396
I305
sS'advmod=anywhere'
p397
I8
sS'aux=could'
p398
I19
sS'w-1=vessel'
p399
I416
sS'w-2=increase'
p400
I488
sS'dobj=Turkey'
p401
I67
sS'w+2=corporation'
p402
I297
sS'dobj=state'
p403
I113
sS'w+1=law'
p404
I224
sS'w+2=judiciary'
p405
I325
sS'aux=must'
p406
I22
sS'dobj=bloc'
p407
I74
sS'advcl=do'
p408
I2
sS'w+2=bloc'
p409
I289
sS'w-1=gravity'
p410
I401
sS'w-1=better'
p411
I392
sS'w-2=authority'
p412
I453
sS'dobj=judiciary'
p413
I93
sS'w-2=be'
p414
I454
sS'conj=know'
p415
I40
sS'prep=on'
p416
I170
sS'nsubj=man'
p417
I145
sS'w-2=counseling'
p418
I463
sS'w-2=company'
p419
I462
sS'w+1=care'
p420
I208
sS'dobj=burma'
p421
I75
sS'nsubj=police'
p422
I151
sS'w+2=5'
p423
I262
sS'w+2=election'
p424
I303
sS'dobj=citizen'
p425
I78
sS'nsubj=ICRC'
p426
I129
sS'w+1=all'
p427
I202
sS'w-2=emergency'
p428
I471
sS'w+2=than'
p429
I358
sS'w+1=small'
p430
I238
sS'w+2=that'
p431
I359
sS'w-2=to'
p432
I535
sS'w+2=home'
p433
I318
sS'w-1=who'
p434
I418
sS'w+1=zanu-pf'
p435
I255
sS'w-1=or'
p436
I408
sS'conj=push'
p437
I44
sS'w+1=develop'
p438
I211
sS'dobj=woman'
p439
I117
sS'w-2=-lrb-'
p440
I423
sS'w+2=agency'
p441
I279
sS'w+1=flood'
p442
I217
sS'w-2=pledge'
p443
I509
sS'w+2=and'
p444
I280
sS'tmod=#DATE#'
p445
I177
sS'w-2=and'
p446
I448
sS'w-2=grant'
p447
I482
sS'advmod=actually'
p448
I4
sS'dobj=buyer'
p449
I76
sS'mark=so'
p450
I123
sS'w-2=try'
p451
I537
sS'w+1=planner'
p452
I235
sS'w+1=this'
p453
I245
sS'w+2=find'
p454
I309
sS'w-2=enough'
p455
I472
sS'w-2=he'
p456
I484
sS'w-2=entity'
p457
I474
sS'prep=since'
p458
I172
sS'w+1=more'
p459
I228
sS'w+1=police'
p460
I236
sS'w+1=with'
p461
I253
sS'advmod=now'
p462
I14
sS'w-2=say'
p463
I524
sS'xcomp=go'
p464
I553
sS'w+2=the'
p465
I360
sS'prep=at'
p466
I164
sS'w-2=will'
p467
I546
sS'w-1=agency'
p468
I385
sS'w-2=,'
p469
I422
sS'w+2=Americans'
p470
I267
sS'dobj=exodus'
p471
I84
sS'w-2=logistics'
p472
I494
sS'w+2=make'
p473
I327
sS'aux=have'
p474
I20
sS'dobj=Thailand'
p475
I66
sS'w-2=republic'
p476
I519
sS'w-2=think'
p477
I534
sS'w-1=.'
p478
I379
sS'dobj=agency'
p479
I69
sS'w-1=,'
p480
I377
sS'w-2=not'
p481
I498
sS'w+1=african'
p482
I199
sS'w-2=agency'
p483
I444
sS'w+2=United'
p484
I277
sS'nsubj=Committee'
p485
I127
sS'w-2=at'
p486
I452
sS'w-1=also'
p487
I387
sS'prep=through'
p488
I173
sS'dep=conduct'
p489
I47
sS'w+2=one'
p490
I339
sS'w-2=may'
p491
I495
sS'w+1=40,000'
p492
I184
sS'w+2=government'
p493
I313
sS'w-1=they'
p494
I413
sS'w-2=capital'
p495
I457
sS'w+2=police'
p496
I345
sS'w+2=program'
p497
I348
sS'dobj=sector'
p498
I111
sS'mark=as'
p499
I121
sS'w-2=officer'
p500
I501
sS'w-1=he'
p501
I403
sS'w+1=many'
p502
I226
sS'w+2=there'
p503
I361
sS'dobj=area'
p504
I72
sS'w+2=displaced'
p505
I300
sS'w+2=farmer'
p506
I306
sS'w+1=Somalia'
p507
I192
sS'w+2=hit'
p508
I317
sS'dobj=push'
p509
I109
sS'w+2=they'
p510
I362
sS'w-2=satellite'
p511
I523
sS'prep=after'
p512
I163
sS'dobj=nation'
p513
I99
sS'w+2=stabilization'
p514
I355
sS'w-1=must'
p515
I405
sS'w+1=240,000'
p516
I182
sS'w+2=refugee'
p517
I350
sS'dobj=Lebanese'
p518
I61
sS'advcl=able'
p519
I0
sS'dobj=seeker'
p520
I112
sS'dep=send'
p521
I49
sS'dobj=police'
p522
I106
sS'w+1=displaced'
p523
I213
sS'nsubjpass=who'
p524
I160
sS'w-2=Sea'
p525
I435
sS'nsubj=patient'
p526
I149
sS'w+2=U.S.'
p527
I276
sS'dobj=zanu-pf'
p528
I119
sS'prep=from'
p529
I168
sS'xcomp=record'
p530
I558
sS'w-2=help'
p531
I486
sS'w+1=Palestinians'
p532
I191
sS'w-1=we'
p533
I417
sS'aux=to'
p534
I23
sS'w+1=kenyan'
p535
I223
sS'w+2=effort'
p536
I302
sS'w-1=get'
p537
I399
sS'w-2=can'
p538
I456
sS'w+1=million'
p539
I227
sS'w+2=?'
p540
I265
sS'w-2=force'
p541
I478
sS'w+1=country'
p542
I210
sS'w+1=,'
p543
I178
sS'w+1=.'
p544
I180
sS'w-2=that'
p545
I532
sS'dobj=party'
p546
I103
sS'w+2=.'
p547
I260
sS'w+2=,'
p548
I259
sS'w-2=helicopter'
p549
I485
sS'neg=not'
p550
I124
sS'w+2=lebanese'
p551
I326
sS'prep=during'
p552
I166
sS'w-2=Zimbabweans'
p553
I438
sS'dobj=nomad'
p554
I102
sS'nsubjpass=logistics'
p555
I158
sS'w+1=785'
p556
I185
sS'w+2=I'
p557
I271
sS'w+2=assess'
p558
I284
sS'dobj=child'
p559
I77
sS'w+2=desperately'
p560
I299
sS'w+1=a'
p561
I196
sS'w-2=rapidly'
p562
I514
sS'w-1=not'
p563
I406
sS'w-1=begin'
p564
I391
sS'xcomp=do'
p565
I552
sS'w-1=that'
p566
I411
sS'aux=be'
p567
I17
sS'w-2=view'
p568
I541
sS'w-1=there'
p569
I412
sS'w-1=currently'
p570
I397
ssS'dtype'
p571
cnumpy
float64
p572
sS'feature_names_'
p573
(lp574
g519
ag261
ag408
ag313
ag448
ag97
ag352
ag240
ag397
ag44
ag366
ag135
ag137
ag160
ag462
ag22
ag293
ag567
ag82
ag398
ag474
ag50
ag406
ag534
ag314
ag236
ag299
ag362
ag324
ag316
ag42
ag29
ag19
ag297
ag83
ag170
ag262
ag220
ag75
ag251
ag415
ag286
ag249
ag156
ag437
ag132
ag149
ag489
ag214
ag521
ag308
ag221
ag234
ag394
ag182
ag93
ag163
ag215
ag112
ag164
ag257
ag518
ag61
ag12
ag151
ag278
ag475
ag401
ag87
ag479
ag66
ag238
ag504
ag174
ag407
ag421
ag449
ag559
ag425
ag241
ag260
ag32
ag315
ag48
ag471
ag351
ag37
ag266
ag36
ag292
ag109
ag122
ag138
ag413
ag51
ag210
ag107
ag369
ag47
ag513
ag23
ag310
ag554
ag546
ag168
ag304
ag522
ag321
ag114
ag509
ag152
ag498
ag520
ag403
ag64
ag288
ag354
ag439
ag116
ag528
ag318
ag499
ag150
ag450
ag550
ag382
ag89
ag485
ag118
ag426
ag183
ag204
ag305
ag203
ag320
ag110
ag154
ag328
ag325
ag263
ag223
ag108
ag38
ag10
ag153
ag417
ag59
ag356
ag40
ag526
ag322
ag422
ag275
ag180
ag133
ag162
ag172
ag101
ag555
ag127
ag524
ag81
ag348
ag512
ag466
ag167
ag552
ag219
ag529
ag104
ag416
ag198
ag458
ag488
ag113
ag365
ag323
ag445
ag543
ag49
ag544
ag298
ag516
ag383
ag492
ag556
ag279
ag78
ag386
ag376
ag31
ag532
ag507
ag26
ag355
ag281
ag561
ag384
ag130
ag482
ag380
ag8
ag427
ag121
ag333
ag173
ag235
ag368
ag420
ag126
ag542
ag438
ag39
ag523
ag88
ag185
ag390
ag442
ag338
ag201
ag379
ag16
ag34
ag535
ag404
ag290
ag502
ag539
ag459
ag206
ag191
ag67
ag131
ag294
ag85
ag452
ag460
ag336
ag430
ag276
ag378
ag43
ag364
ag95
ag99
ag453
ag100
ag271
ag27
ag125
ag76
ag222
ag327
ag461
ag134
ag435
ag363
ag349
ag373
ag548
ag547
ag165
ag423
ag181
ag58
ag540
ag300
ag470
ag239
ag186
ag252
ag557
ag115
ag15
ag253
ag194
ag527
ag484
ag242
ag441
ag444
ag190
ag9
ag146
ag558
ag377
ag226
ag227
ag98
ag409
ag296
ag143
ag35
ag91
ag94
ag370
ag392
ag402
ag60
ag560
ag505
ag157
ag536
ag424
ag289
ag396
ag506
ag284
ag207
ag454
ag86
ag273
ag129
ag493
ag385
ag347
ag187
ag508
ag433
ag317
ag295
ag74
ag73
ag84
ag213
ag405
ag551
ag473
ag312
ag337
ag255
ag33
ag123
ag360
ag11
ag285
ag248
ag267
ag270
ag490
ag309
ag280
ag381
ag247
ag330
ag496
ag105
ag345
ag497
ag303
ag517
ag171
ag341
ag230
ag158
ag514
ag232
ag243
ag429
ag431
ag465
ag503
ag510
ag139
ag65
ag96
ag140
ag25
ag142
ag161
ag79
ag264
ag254
ag28
ag68
ag195
ag256
ag480
ag197
ag478
ag340
ag193
ag111
ag106
ag199
ag468
ag224
ag487
ag306
ag274
ag53
ag564
ag411
ag372
ag209
ag80
ag21
ag570
ag250
ag537
ag90
ag410
ag71
ag501
ag141
ag515
ag563
ag302
ag436
ag17
ag63
ag566
ag569
ag494
ag178
ag119
ag399
ag533
ag434
ag45
ag395
ag265
ag469
ag440
ag371
ag70
ag343
ag205
ag391
ag188
ag145
ag301
ag200
ag237
ag69
ag525
ag357
ag228
ag553
ag192
ag212
ag18
ag307
ag268
ag483
ag159
ag62
ag244
ag446
ag225
ag208
ag202
ag486
ag412
ag414
ag335
ag538
ag495
ag346
ag233
ag229
ag166
ag419
ag418
ag177
ag231
ag282
ag179
ag245
ag344
ag92
ag428
ag455
ag359
ag457
ag259
ag54
ag46
ag541
ag387
ag291
ag136
ag447
ag361
ag456
ag549
ag531
ag334
ag400
ag216
ag128
ag342
ag277
ag20
ag472
ag491
ag148
ag211
ag481
ag147
ag24
ag500
ag41
ag350
ag102
ag77
ag14
ag258
ag331
ag443
ag184
ag124
ag196
ag393
ag562
ag217
ag52
ag218
ag353
ag476
ag57
ag389
ag283
ag511
ag463
ag189
ag339
ag72
ag169
ag155
ag332
ag374
ag545
ag55
ag477
ag432
ag144
ag451
ag269
ag319
ag367
ag568
ag388
ag13
ag358
ag56
ag467
ag311
ag117
ag30
ag175
ag272
ag565
ag464
ag287
ag120
ag329
ag103
ag530
ag246
ag176
ag375
ag326
asS'separator'
p575
S'='
sS'sparse'
p576
I01
sb.