ccopy_reg
_reconstructor
p1
(csklearn.feature_extraction.dict_vectorizer
DictVectorizer
p2
c__builtin__
object
p3
NtRp4
(dp5
S'vocabulary_'
p6
(dp7
S'advmod=then'
p8
I15
sS'dobj=will'
p9
I66
sS'dobj=law'
p10
I56
sS'w+2=human'
p11
I180
sS'advmod=though'
p12
I16
sS'advcl=have'
p13
I0
sS'w+2=from'
p14
I176
sS'w-2=Blair'
p15
I261
sS'w-1=of'
p16
I239
sS'w+2=money'
p17
I189
sS'nsubj=this'
p18
I103
sS'conj=come'
p19
I36
sS'w-2=have'
p20
I285
sS'w-2=tactical'
p21
I309
sS'conj=distribute'
p22
I38
sS'w-2=statement'
p23
I308
sS'w+2=justice'
p24
I184
sS'w-2=website'
p25
I317
sS'nsubj=figure'
p26
I91
sS'w-2=people'
p27
I300
sS'w-1=this'
p28
I249
sS'w-2=diplomacy'
p29
I280
sS'csubj=stall'
p30
I43
sS'w+2=Holocaust'
p31
I157
sS'w-2=which'
p32
I320
sS'dobj=system'
p33
I60
sS'advcl=rise'
p34
I1
sS'w+2=Love'
p35
I158
sS'w+2=higher'
p36
I179
sS'xcomp=about'
p37
I323
sS'w+2=fewer'
p38
I174
sS'w+2=less'
p39
I186
sS'w+2=behavior'
p40
I166
sS'w+2=greater'
p41
I178
sS'w+2=31'
p42
I155
sS'prep=by'
p43
I125
sS'w-1=Iraq'
p44
I218
sS'w+2=word'
p45
I213
sS'w-2=bhutanese'
p46
I276
sS'nsubjpass=sentiment'
p47
I118
sS'w-1=on'
p48
I240
sS'w-1=who'
p49
I253
sS'nsubj=slogan'
p50
I99
sS'w+2=concrete'
p51
I171
sS'w-1=spend'
p52
I245
sS'w+2=better'
p53
I167
sS'w+2=new'
p54
I191
sS'w-2=and'
p55
I270
sS'nsubj=who'
p56
I108
sS'w-1=not'
p57
I238
sS'nsubjpass=charge'
p58
I114
sS'nsubjpass=sense'
p59
I117
sS'auxpass=get'
p60
I29
sS'w-2=then'
p61
I312
sS'w-2=northern'
p62
I295
sS'xcomp=come'
p63
I324
sS'w-2=of'
p64
I298
sS'dobj=wealth'
p65
I64
sS'w+2=vision'
p66
I208
sS'nsubjpass=catalogue'
p67
I113
sS'w-1=.'
p68
I217
sS'nsubjpass=vote'
p69
I122
sS'w-2=they'
p70
I313
sS'w-1=to'
p71
I250
sS'w-2=Iraq'
p72
I262
sS'w-2=around'
p73
I273
sS'nsubj=anybody'
p74
I81
sS'nsubj=emphasis'
p75
I90
sS'dep=be'
p76
I45
sS'w-1=roughly'
p77
I242
sS'w-2=expert'
p78
I283
sS'w+2=more'
p79
I190
sS'dobj=vision'
p80
I63
sS'nsubj=KILI'
p81
I76
sS'w-1=necessarily'
p82
I237
sS'w+1=these'
p83
I148
sS'w+1=that'
p84
I146
sS'dobj=#PRP#'
p85
I51
sS'w-2=do'
p86
I281
sS'mark=so'
p87
I71
sS'w+2=real'
p88
I197
sS'w+2=change'
p89
I170
sS'w-1=would'
p90
I255
sS'w-2=.'
p91
I260
sS'w+1=this'
p92
I149
sS'mark=while'
p93
I72
sS'w-1=can'
p94
I224
sS'dep=so'
p95
I46
sS'aux=do'
p96
I21
sS'xcomp=meet'
p97
I329
sS'w-2=vote'
p98
I316
sS'w-2=ability'
p99
I269
sS'dobj=this'
p100
I61
sS'w-1=loosely'
p101
I234
sS'advmod=loosely'
p102
I9
sS'w+1=with'
p103
I152
sS'w-2=own'
p104
I299
sS'w+2=recent'
p105
I198
sS'w+1=its'
p106
I144
sS'advmod=now'
p107
I11
sS'advmod=so'
p108
I14
sS'advmod=roughly'
p109
I12
sS'w-2=say'
p110
I304
sS'advmod=however'
p111
I8
sS'conj=republish'
p112
I41
sS'w-1=sentence'
p113
I243
sS'w+2=the'
p114
I205
sS'w+1=as'
p115
I137
sS'w-1=always'
p116
I220
sS'advmod=around'
p117
I4
sS'prep=as'
p118
I124
sS'w-1=will'
p119
I254
sS'nsubj=improvement'
p120
I92
sS'nsubj=success'
p121
I101
sS'nsubj=people'
p122
I95
sS'prep=with'
p123
I132
sS'nsubj=company'
p124
I84
sS'dobj=experience'
p125
I53
sS'w-1=awareness'
p126
I222
sS'aux=may'
p127
I23
sS'w+2=language'
p128
I185
sS'w-2=interpreter'
p129
I290
sS'aux=have'
p130
I22
sS'w+2=work'
p131
I214
sS'nsubjpass=that'
p132
I120
sS'nsubj=electorate'
p133
I89
sS'conj=serve'
p134
I42
sS'w-1=record'
p135
I241
sS'advmod=simultaneously'
p136
I13
sS'w-2=plan'
p137
I301
sS'w-1=,'
p138
I216
sS'w+2=English'
p139
I156
sS'w-2=not'
p140
I296
sS'w-2=now'
p141
I297
sS'w+2=tangible'
p142
I204
sS'w-2=if'
p143
I288
sS'w-1=could'
p144
I225
sS'w-1=be'
p145
I223
sS'w+1=from'
p146
I140
sS'dobj=language'
p147
I55
sS'w-2=song'
p148
I306
sS'nsubj=power'
p149
I97
sS'w-2=Thursday'
p150
I268
sS'nsubjpass=album'
p151
I111
sS'w-2=it'
p152
I292
sS'w-1=also'
p153
I219
sS'nsubj=uncertainty'
p154
I104
sS'nsubj=welcome'
p155
I106
sS'w-1=which'
p156
I251
sS'w+2=indonesian'
p157
I182
sS'aux=might'
p158
I24
sS'advmod=easily'
p159
I5
sS'advmod=when'
p160
I17
sS'prep=from'
p161
I127
sS'w-2=begin'
p162
I275
sS'nsubj=Shura'
p163
I79
sS'dobj=time'
p164
I62
sS'prep=for'
p165
I126
sS'w-2=word'
p166
I321
sS'nsubj=record'
p167
I98
sS'dep=that'
p168
I47
sS'w-2=Shura'
p169
I267
sS'nsubj=awareness'
p170
I83
sS'dep=what'
p171
I48
sS'w-1=have'
p172
I230
sS'ccomp=say'
p173
I32
sS'nsubj=Microsoft'
p174
I77
sS'w+2=assess'
p175
I165
sS'w+2=oil'
p176
I193
sS'w-2=worker'
p177
I322
sS'w-2=,'
p178
I259
sS'w+2=three'
p179
I206
sS'w+2=something'
p180
I201
sS'w-2=so'
p181
I305
sS"w+2=''"
p182
I153
sS'w-1=he'
p183
I231
sS'w+2=many'
p184
I188
sS'w+2=what'
p185
I211
sS'advmod=also'
p186
I2
sS'xcomp=independent'
p187
I327
sS'w-2=may'
p188
I294
sS'nsubj=economy'
p189
I87
sS'dobj=strategy'
p190
I58
sS'nsubjpass=word'
p191
I123
sS'w-2=KILI'
p192
I263
sS'w-2=easily'
p193
I282
sS'auxpass=be'
p194
I28
sS'aux=can'
p195
I19
sS'complm=that'
p196
I34
sS'w+1=document'
p197
I139
sS'w-2=issue'
p198
I291
sS'w-2=program'
p199
I302
sS'advmod=necessarily'
p200
I10
sS'w+2=durable'
p201
I172
sS'nsubj=contribution'
p202
I85
sS'advmod=always'
p203
I3
sS'w+2=vote'
p204
I209
sS'w-2=sound'
p205
I307
sS'w+2=wealth'
p206
I210
sS'w+2=equally'
p207
I173
sS'w+2=seat'
p208
I200
sS'w-2=approach'
p209
I272
sS'w-2=to'
p210
I315
sS'w+1=into'
p211
I142
sS'xcomp=have'
p212
I326
sS'w+2=people'
p213
I195
sS'cc=and'
p214
I30
sS'nsubj=approach'
p215
I82
sS'w+2=reject'
p216
I199
sS'aux=will'
p217
I26
sS'w-1=emphasis'
p218
I226
sS'w-2=that'
p219
I310
sS'w+1=the'
p220
I147
sS'advmod=hopefully'
p221
I6
sS'w+2=specific'
p222
I202
sS'w-2=record'
p223
I303
sS'w+1=be'
p224
I138
sS'w-2=cost'
p225
I278
sS'w-2=how'
p226
I286
sS'cc=but'
p227
I31
sS'w+2=hundreds-of-thousand'
p228
I181
sS'w+1=simultaneously'
p229
I145
sS'csubj=stay'
p230
I44
sS'dobj=extent'
p231
I54
sS'nsubj=soil'
p232
I100
sS'w-1=slogan'
p233
I244
sS'nsubjpass=#PRP#'
p234
I110
sS'w+2=global'
p235
I177
sS'w-2=this'
p236
I314
sS'prep=in'
p237
I128
sS'w-2=when'
p238
I319
sS'advmod=how'
p239
I7
sS'aux=would'
p240
I27
sS'w-2=information'
p241
I289
sS'w+1=arabic'
p242
I136
sS'xcomp=cool'
p243
I325
sS'w-1=government'
p244
I228
sS'w-2=however'
p245
I287
sS'w-2=be'
p246
I274
sS'w+2=political'
p247
I196
sS'w+1=it'
p248
I143
sS'nsubj=#PRP#'
p249
I75
sS'dobj=what'
p250
I65
sS'w-2=greater'
p251
I284
sS'w-1=may'
p252
I235
sS"w-1=''"
p253
I215
sS'conj=precept'
p254
I40
sS'w-2=Nom'
p255
I264
sS"w+1=''"
p256
I133
sS'w-1=the'
p257
I248
sS'prep=to'
p258
I131
sS'w+2=into'
p259
I183
sS'w+2=strategic'
p260
I203
sS'aux=to'
p261
I25
sS'w-1=language'
p262
I233
sS'conj=assess'
p263
I35
sS'nsubj=lifestyle'
p264
I93
sS'nsubj=which'
p265
I107
sS'w-2=Rahman'
p266
I265
sS'dobj=success'
p267
I59
sS'nsubj=pinch'
p268
I96
sS'conj=do'
p269
I39
sS'w-1=get'
p270
I227
sS'dobj=#NUMBER#'
p271
I50
sS'w-1=you'
p272
I256
sS'nsubj=Rahman'
p273
I78
sS'w-2=can'
p274
I277
sS'dobj=work'
p275
I68
sS'w-2=another'
p276
I271
sS'w-2=decline'
p277
I279
sS'nsubjpass=information'
p278
I116
sS'aux=could'
p279
I20
sS'w-2=Rome'
p280
I266
sS'nsubjpass=this'
p281
I121
sS"w-2=''"
p282
I257
sS'nsubj=education'
p283
I88
sS'dobj=word'
p284
I67
sS'dobj=papers'
p285
I57
sS'w+2=action'
p286
I162
sS'w+2=of'
p287
I192
sS'nsubj=all'
p288
I80
sS'w+2=.'
p289
I154
sS'xcomp=make'
p290
I328
sS'w+2=will'
p291
I212
sS'w+2=central'
p292
I169
sS'w+2=on'
p293
I194
sS'w+1=to'
p294
I151
sS'dobj=document'
p295
I52
sS'w-1=anybody'
p296
I221
sS'neg=not'
p297
I74
sS'mark=before'
p298
I69
sS'nsubjpass=book'
p299
I112
sS'w+1=and'
p300
I135
sS'nsubj=that'
p301
I102
sS'w-1=it'
p302
I232
sS'conj=decipher'
p303
I37
sS'nsubj=word'
p304
I109
sS'w+1=,'
p305
I134
sS'prep=into'
p306
I129
sS'w+2=french'
p307
I175
sS'nsubj=lot'
p308
I94
sS'w-1=might'
p309
I236
sS'w+2=billion'
p310
I168
sS'w+1=thousand'
p311
I150
sS'w-2=the'
p312
I311
sS'mark=with'
p313
I73
sS'w+2=area'
p314
I164
sS'w+2=ticket'
p315
I207
sS'ccomp=start'
p316
I33
sS'w-1=while'
p317
I252
sS'w-2=what'
p318
I318
sS'nsubj=victory'
p319
I105
sS'w+2=love'
p320
I187
sS'w+2=about'
p321
I161
sS'nsubj=decline'
p322
I86
sS'w+1=he'
p323
I141
sS'w-1=success'
p324
I246
sS'w-2=just'
p325
I293
sS'prep=on'
p326
I130
sS'nsubjpass=crisis'
p327
I115
sS'w-1=that'
p328
I247
sS'aux=be'
p329
I18
sS'nsubjpass=some'
p330
I119
sS'w-1=ground'
p331
I229
sS'mark=if'
p332
I70
sS'w+2=all'
p333
I163
sS'dep=whether'
p334
I49
sS'w+2=`'
p335
I159
sS'w+2=a'
p336
I160
sS"w-2='s"
p337
I258
ssS'dtype'
p338
cnumpy
float64
p339
sS'feature_names_'
p340
(lp341
g13
ag34
ag186
ag203
ag117
ag159
ag221
ag239
ag111
ag102
ag200
ag107
ag109
ag136
ag108
ag8
ag12
ag160
ag329
ag195
ag279
ag96
ag130
ag127
ag158
ag261
ag217
ag240
ag194
ag60
ag214
ag227
ag173
ag316
ag196
ag263
ag19
ag303
ag22
ag269
ag254
ag112
ag134
ag30
ag230
ag76
ag95
ag168
ag171
ag334
ag271
ag85
ag295
ag125
ag231
ag147
ag10
ag285
ag190
ag267
ag33
ag100
ag164
ag80
ag65
ag250
ag9
ag284
ag275
ag298
ag332
ag87
ag93
ag313
ag297
ag249
ag81
ag174
ag273
ag163
ag288
ag74
ag215
ag170
ag124
ag202
ag322
ag189
ag283
ag133
ag75
ag26
ag120
ag264
ag308
ag122
ag268
ag149
ag167
ag50
ag232
ag121
ag301
ag18
ag154
ag319
ag155
ag265
ag56
ag304
ag234
ag151
ag299
ag67
ag58
ag327
ag278
ag59
ag47
ag330
ag132
ag281
ag69
ag191
ag118
ag43
ag165
ag161
ag237
ag306
ag326
ag258
ag123
ag256
ag305
ag300
ag242
ag115
ag224
ag197
ag146
ag323
ag211
ag248
ag106
ag229
ag84
ag220
ag83
ag92
ag311
ag294
ag103
ag182
ag289
ag42
ag139
ag31
ag35
ag335
ag336
ag321
ag286
ag333
ag314
ag175
ag40
ag53
ag310
ag292
ag89
ag51
ag201
ag207
ag38
ag307
ag14
ag235
ag41
ag36
ag11
ag228
ag157
ag259
ag24
ag128
ag39
ag320
ag184
ag17
ag79
ag54
ag287
ag176
ag293
ag213
ag247
ag88
ag105
ag216
ag208
ag180
ag222
ag260
ag142
ag114
ag179
ag315
ag66
ag204
ag206
ag185
ag291
ag45
ag131
ag253
ag138
ag68
ag44
ag153
ag116
ag296
ag126
ag145
ag94
ag144
ag218
ag270
ag244
ag331
ag172
ag183
ag302
ag262
ag101
ag252
ag309
ag82
ag57
ag16
ag48
ag135
ag77
ag113
ag233
ag52
ag324
ag328
ag257
ag28
ag71
ag156
ag317
ag49
ag119
ag90
ag272
ag282
ag337
ag178
ag91
ag15
ag72
ag192
ag255
ag266
ag280
ag169
ag150
ag99
ag55
ag276
ag209
ag73
ag246
ag162
ag46
ag274
ag225
ag277
ag29
ag86
ag193
ag78
ag251
ag20
ag226
ag245
ag143
ag241
ag129
ag198
ag152
ag325
ag188
ag62
ag140
ag141
ag64
ag104
ag27
ag137
ag199
ag223
ag110
ag181
ag148
ag205
ag23
ag21
ag219
ag312
ag61
ag70
ag236
ag210
ag98
ag25
ag318
ag238
ag32
ag166
ag177
ag37
ag63
ag243
ag212
ag187
ag290
ag97
asS'separator'
p342
S'='
sS'sparse'
p343
I01
sb.