ccopy_reg
_reconstructor
p1
(csklearn.feature_extraction.dict_vectorizer
DictVectorizer
p2
c__builtin__
object
p3
NtRp4
(dp5
S'sort'
p6
I01
sS'feature_names_'
p7
(lp8
S'acomp=illegal'
p9
aS'acomp=live'
p10
aS'acomp=more'
p11
aS'acomp=right'
p12
aS'advcl=allow'
p13
aS'advcl=amplify'
p14
aS'advcl=arrest'
p15
aS'advcl=attack'
p16
aS'advcl=ban'
p17
aS'advcl=be'
p18
aS'advcl=burst'
p19
aS'advcl=come'
p20
aS'advcl=confirm'
p21
aS'advcl=constitute'
p22
aS'advcl=document'
p23
aS'advcl=elect'
p24
aS'advcl=emerge'
p25
aS'advcl=expose'
p26
aS'advcl=fail'
p27
aS'advcl=infect'
p28
aS'advcl=meeting'
p29
aS'advcl=pardon'
p30
aS'advcl=peer'
p31
aS'advcl=provoke'
p32
aS'advcl=pursue'
p33
aS'advcl=report'
p34
aS'advcl=rest'
p35
aS'advcl=say'
p36
aS'advcl=see'
p37
aS'advcl=start'
p38
aS'advcl=struggle'
p39
aS'advcl=think'
p40
aS'advcl=want'
p41
aS'advcl=wave'
p42
aS'advmod=#PRP#'
p43
aS'advmod=about'
p44
aS'advmod=actually'
p45
aS'advmod=again'
p46
aS'advmod=ago'
p47
aS'advmod=all'
p48
aS'advmod=allegedly'
p49
aS'advmod=also'
p50
aS'advmod=anyway'
p51
aS'advmod=as'
p52
aS'advmod=away'
p53
aS'advmod=back'
p54
aS'advmod=briefly'
p55
aS'advmod=comfortably'
p56
aS'advmod=en'
p57
aS'advmod=far'
p58
aS'advmod=finally'
p59
aS'advmod=first'
p60
aS'advmod=forward'
p61
aS'advmod=here'
p62
aS'advmod=how'
p63
aS'advmod=immediately'
p64
aS'advmod=initially'
p65
aS'advmod=internationally'
p66
aS'advmod=just'
p67
aS'advmod=largely'
p68
aS'advmod=later'
p69
aS'advmod=long'
p70
aS'advmod=longer'
p71
aS'advmod=meanwhile'
p72
aS'advmod=mostly'
p73
aS'advmod=necessarily'
p74
aS'advmod=now'
p75
aS'advmod=often'
p76
aS'advmod=once'
p77
aS'advmod=only'
p78
aS'advmod=originally'
p79
aS'advmod=out'
p80
aS'advmod=personally'
p81
aS'advmod=previously'
p82
aS'advmod=reportedly'
p83
aS'advmod=smoothly'
p84
aS'advmod=so'
p85
aS'advmod=soon'
p86
aS'advmod=southward'
p87
aS'advmod=still'
p88
aS'advmod=that'
p89
aS'advmod=then'
p90
aS'advmod=there'
p91
aS'advmod=well'
p92
aS'advmod=when'
p93
aS'advmod=where'
p94
aS'advmod=while'
p95
aS'advmod=why'
p96
aS'advmod=worldwide'
p97
aS'advmod=yet'
p98
aS"aux='ll"
p99
aS'aux=be'
p100
aS'aux=can'
p101
aS'aux=could'
p102
aS'aux=do'
p103
aS'aux=have'
p104
aS'aux=must'
p105
aS'aux=shall'
p106
aS'aux=should'
p107
aS'aux=to'
p108
aS'aux=will'
p109
aS'aux=would'
p110
aS'auxpass=be'
p111
aS'cc=and'
p112
aS'cc=but'
p113
aS'cc=nor'
p114
aS'cc=or'
p115
aS'cc=well'
p116
aS'ccomp=#NUMBER#'
p117
aS'ccomp=assume'
p118
aS'ccomp=be'
p119
aS'ccomp=call'
p120
aS'ccomp=deem'
p121
aS'ccomp=demonstration'
p122
aS'ccomp=describe'
p123
aS'ccomp=develop'
p124
aS'ccomp=dismiss'
p125
aS'ccomp=fiasco'
p126
aS'ccomp=give'
p127
aS'ccomp=go'
p128
aS'ccomp=hear'
p129
aS'ccomp=like'
p130
aS'ccomp=make'
p131
aS'ccomp=open'
p132
aS'ccomp=popular'
p133
aS'ccomp=rainwater'
p134
aS'ccomp=read'
p135
aS'ccomp=save'
p136
aS'ccomp=say'
p137
aS'ccomp=see'
p138
aS'ccomp=show'
p139
aS'ccomp=suffer'
p140
aS'ccomp=take'
p141
aS'ccomp=try'
p142
aS'ccomp=unlimited'
p143
aS'ccomp=unloaded'
p144
aS'ccomp=use'
p145
aS'ccomp=want'
p146
aS'ccomp=wear'
p147
aS'complm=that'
p148
aS'complm=whether'
p149
aS'conj=appeal'
p150
aS'conj=be'
p151
aS'conj=become'
p152
aS'conj=brandish'
p153
aS'conj=carry'
p154
aS'conj=cause'
p155
aS'conj=collect'
p156
aS'conj=come'
p157
aS'conj=conduct'
p158
aS'conj=construct'
p159
aS'conj=continue'
p160
aS'conj=cross'
p161
aS'conj=demand'
p162
aS'conj=die'
p163
aS'conj=distract'
p164
aS'conj=do'
p165
aS'conj=enable'
p166
aS'conj=enforce'
p167
aS'conj=farm'
p168
aS'conj=file'
p169
aS'conj=go'
p170
aS'conj=have'
p171
aS'conj=hit'
p172
aS'conj=keep'
p173
aS'conj=kill'
p174
aS'conj=leave'
p175
aS'conj=member'
p176
aS'conj=message'
p177
aS'conj=model'
p178
aS'conj=more'
p179
aS'conj=not'
p180
aS'conj=open'
p181
aS'conj=order'
p182
aS'conj=perform'
p183
aS'conj=place'
p184
aS'conj=plant'
p185
aS'conj=prey'
p186
aS'conj=promise'
p187
aS'conj=provide'
p188
aS'conj=ready'
p189
aS'conj=redeploy'
p190
aS'conj=release'
p191
aS'conj=say'
p192
aS'conj=seem'
p193
aS'conj=shout'
p194
aS'conj=simmer'
p195
aS'conj=solution'
p196
aS'conj=speak'
p197
aS'conj=succeed'
p198
aS'conj=tap'
p199
aS'conj=torture'
p200
aS'conj=toxic'
p201
aS'conj=transport'
p202
aS'conj=try'
p203
aS'conj=vow'
p204
aS'conj=wound'
p205
aS'cop=be'
p206
aS'csubj=carry'
p207
aS'csubj=condemn'
p208
aS'csubj=disband'
p209
aS'csubj=have'
p210
aS'csubjpass=help'
p211
aS'dep=#PRP#'
p212
aS'dep=David'
p213
aS'dep=accumulate'
p214
aS'dep=as'
p215
aS'dep=ask'
p216
aS'dep=be'
p217
aS'dep=believe'
p218
aS'dep=both'
p219
aS'dep=brazen'
p220
aS'dep=by'
p221
aS'dep=develop'
p222
aS'dep=do'
p223
aS'dep=hold'
p224
aS'dep=if'
p225
aS'dep=in'
p226
aS'dep=ingredient'
p227
aS'dep=inspector'
p228
aS'dep=know'
p229
aS'dep=line'
p230
aS'dep=message'
p231
aS'dep=move'
p232
aS'dep=of'
p233
aS'dep=official'
p234
aS'dep=prohibit'
p235
aS'dep=promise'
p236
aS'dep=provoke'
p237
aS'dep=report'
p238
aS'dep=say'
p239
aS'dep=so'
p240
aS'dep=that'
p241
aS'dep=toinspire'
p242
aS'dep=vote'
p243
aS'dep=while'
p244
aS'dep=whose'
p245
aS'dobj=#NUMBER#'
p246
aS'dobj=#PRP#'
p247
aS'dobj=Brennan'
p248
aS'dobj=Bush'
p249
aS'dobj=Center'
p250
aS'dobj=Gusmao'
p251
aS'dobj=Koreans'
p252
aS'dobj=Margaret'
p253
aS'dobj=Plan'
p254
aS'dobj=Reisman'
p255
aS'dobj=Somalis'
p256
aS'dobj=Soro'
p257
aS'dobj=Tamils'
p258
aS'dobj=a'
p259
aS'dobj=abduction'
p260
aS'dobj=abuse'
p261
aS'dobj=act'
p262
aS'dobj=action'
p263
aS'dobj=activist'
p264
aS'dobj=activity'
p265
aS'dobj=agenda'
p266
aS'dobj=agreement'
p267
aS'dobj=aid'
p268
aS'dobj=airstrike'
p269
aS'dobj=alcohol'
p270
aS'dobj=ambassador'
p271
aS'dobj=amount'
p272
aS'dobj=amplifier'
p273
aS'dobj=analysis'
p274
aS'dobj=any'
p275
aS'dobj=approach'
p276
aS'dobj=arm'
p277
aS'dobj=assassination'
p278
aS'dobj=assessment'
p279
aS'dobj=assignment'
p280
aS'dobj=astronaut'
p281
aS'dobj=atrocity'
p282
aS'dobj=attack'
p283
aS'dobj=attempt'
p284
aS'dobj=audit'
p285
aS'dobj=baby'
p286
aS'dobj=backpack'
p287
aS'dobj=bag'
p288
aS'dobj=ball'
p289
aS'dobj=banner'
p290
aS'dobj=basket'
p291
aS'dobj=battle'
p292
aS'dobj=bauxite'
p293
aS'dobj=best'
p294
aS'dobj=blanket'
p295
aS'dobj=blood'
p296
aS'dobj=bloodshed'
p297
aS'dobj=body'
p298
aS'dobj=bomb'
p299
aS'dobj=bombing'
p300
aS'dobj=book'
p301
aS'dobj=bowl'
p302
aS'dobj=box'
p303
aS'dobj=branch'
p304
aS'dobj=broom'
p305
aS'dobj=bucket'
p306
aS'dobj=bundle'
p307
aS'dobj=burden'
p308
aS'dobj=business'
p309
aS'dobj=campaign'
p310
aS'dobj=can'
p311
aS'dobj=cancer'
p312
aS'dobj=cargo'
p313
aS'dobj=carjacking'
p314
aS'dobj=case'
p315
aS'dobj=casket'
p316
aS'dobj=census'
p317
aS'dobj=cent'
p318
aS'dobj=ceremony'
p319
aS'dobj=change'
p320
aS'dobj=channel'
p321
aS'dobj=check'
p322
aS'dobj=chemical'
p323
aS'dobj=chief'
p324
aS'dobj=child'
p325
aS'dobj=clearance'
p326
aS'dobj=combination'
p327
aS'dobj=commitment'
p328
aS'dobj=computer'
p329
aS'dobj=congolese'
p330
aS'dobj=content'
p331
aS'dobj=coup'
p332
aS'dobj=crew'
p333
aS'dobj=crewmember'
p334
aS'dobj=crime'
p335
aS'dobj=cross'
p336
aS"dobj=d'etat"
p337
aS'dobj=dead'
p338
aS'dobj=deal'
p339
aS'dobj=debt'
p340
aS'dobj=demonstration'
p341
aS'dobj=dialogue'
p342
aS'dobj=diplomat'
p343
aS'dobj=disc'
p344
aS'dobj=disease'
p345
aS'dobj=distribution'
p346
aS'dobj=document'
p347
aS'dobj=dove'
p348
aS'dobj=dozen'
p349
aS'dobj=drug'
p350
aS'dobj=drum'
p351
aS'dobj=duty'
p352
aS'dobj=eavesdropping'
p353
aS'dobj=education'
p354
aS'dobj=election'
p355
aS'dobj=element'
p356
aS'dobj=employee'
p357
aS'dobj=equipment'
p358
aS'dobj=espionage'
p359
aS'dobj=everything'
p360
aS'dobj=eviction'
p361
aS'dobj=evidence'
p362
aS'dobj=examination'
p363
aS'dobj=execution'
p364
aS'dobj=exercise'
p365
aS'dobj=expert'
p366
aS'dobj=explosive'
p367
aS'dobj=feeling'
p368
aS'dobj=field'
p369
aS'dobj=fine'
p370
aS'dobj=flag'
p371
aS'dobj=flame'
p372
aS'dobj=flour'
p373
aS'dobj=food'
p374
aS'dobj=force'
p375
aS'dobj=form'
p376
aS'dobj=fuel'
p377
aS'dobj=gas'
p378
aS'dobj=gene'
p379
aS'dobj=genocide'
p380
aS'dobj=girl'
p381
aS'dobj=goal'
p382
aS'dobj=goods'
p383
aS'dobj=government'
p384
aS'dobj=groom'
p385
aS'dobj=group'
p386
aS'dobj=gun'
p387
aS'dobj=gunman'
p388
aS'dobj=handgun'
p389
aS'dobj=hanging'
p390
aS'dobj=headline'
p391
aS'dobj=holocaust'
p392
aS'dobj=home'
p393
aS'dobj=hope'
p394
aS'dobj=house'
p395
aS'dobj=husband'
p396
aS'dobj=idea'
p397
aS'dobj=ied'
p398
aS'dobj=image'
p399
aS'dobj=immigrant'
p400
aS'dobj=implication'
p401
aS'dobj=independent'
p402
aS'dobj=information'
p403
aS'dobj=ingredient'
p404
aS'dobj=instruction'
p405
aS'dobj=instrument'
p406
aS'dobj=internet'
p407
aS'dobj=invasion'
p408
aS'dobj=investigation'
p409
aS'dobj=item'
p410
aS'dobj=justice'
p411
aS'dobj=kidnapping'
p412
aS'dobj=killing'
p413
aS'dobj=kilo'
p414
aS'dobj=kind'
p415
aS'dobj=knapsack'
p416
aS'dobj=labor'
p417
aS'dobj=laborer'
p418
aS'dobj=launch'
p419
aS'dobj=law'
p420
aS'dobj=leader'
p421
aS'dobj=leaf'
p422
aS'dobj=legacy'
p423
aS'dobj=letter'
p424
aS'dobj=load'
p425
aS'dobj=loop'
p426
aS'dobj=lot'
p427
aS'dobj=majority'
p428
aS'dobj=mandate'
p429
aS'dobj=mantle'
p430
aS'dobj=many'
p431
aS'dobj=massacre'
p432
aS'dobj=mattress'
p433
aS'dobj=meaning'
p434
aS'dobj=member'
p435
aS'dobj=message'
p436
aS'dobj=meter'
p437
aS'dobj=microphone'
p438
aS'dobj=migrant'
p439
aS'dobj=militant'
p440
aS'dobj=military'
p441
aS'dobj=minister'
p442
aS'dobj=mission'
p443
aS'dobj=missionary'
p444
aS'dobj=monitoring'
p445
aS'dobj=most'
p446
aS'dobj=murder'
p447
aS'dobj=name'
p448
aS'dobj=news'
p449
aS'dobj=number'
p450
aS'dobj=offensive'
p451
aS'dobj=officer'
p452
aS'dobj=official'
p453
aS'dobj=oil'
p454
aS'dobj=operation'
p455
aS'dobj=order'
p456
aS'dobj=ore'
p457
aS'dobj=oversight'
p458
aS'dobj=oxygen'
p459
aS'dobj=package'
p460
aS'dobj=part'
p461
aS'dobj=particle'
p462
aS'dobj=passenger'
p463
aS'dobj=passport'
p464
aS'dobj=patrol'
p465
aS'dobj=penalty'
p466
aS'dobj=people'
p467
aS'dobj=percent'
p468
aS'dobj=performance'
p469
aS'dobj=person'
p470
aS'dobj=personnel'
p471
aS'dobj=phone'
p472
aS'dobj=phosphorus'
p473
aS'dobj=picture'
p474
aS'dobj=pilgrim'
p475
aS'dobj=placard'
p476
aS'dobj=plan'
p477
aS'dobj=plot'
p478
aS'dobj=pogrom'
p479
aS'dobj=polling'
p480
aS'dobj=possession'
p481
aS'dobj=possibility'
p482
aS'dobj=pot'
p483
aS'dobj=president'
p484
aS'dobj=print'
p485
aS'dobj=prize'
p486
aS'dobj=process'
p487
aS'dobj=product'
p488
aS'dobj=program'
p489
aS'dobj=project'
p490
aS'dobj=property'
p491
aS'dobj=proposal'
p492
aS'dobj=provision'
p493
aS'dobj=punch'
p494
aS'dobj=quantity'
p495
aS'dobj=raid'
p496
aS'dobj=rape'
p497
aS'dobj=rebellion'
p498
aS'dobj=reform'
p499
aS'dobj=remains'
p500
aS'dobj=report'
p501
aS'dobj=rescue'
p502
aS'dobj=research'
p503
aS'dobj=reshuffle'
p504
aS'dobj=responsibility'
p505
aS'dobj=result'
p506
aS'dobj=rifle'
p507
aS'dobj=risk'
p508
aS'dobj=role'
p509
aS'dobj=round'
p510
aS'dobj=sack'
p511
aS'dobj=satellite'
p512
aS'dobj=score'
p513
aS'dobj=search'
p514
aS'dobj=seed'
p515
aS'dobj=seeker'
p516
aS'dobj=sensor'
p517
aS'dobj=sentence'
p518
aS'dobj=series'
p519
aS'dobj=set'
p520
aS'dobj=shooting'
p521
aS'dobj=shotgun'
p522
aS'dobj=show'
p523
aS'dobj=shutdown'
p524
aS'dobj=sign'
p525
aS'dobj=significance'
p526
aS'dobj=soldier'
p527
aS'dobj=somebody'
p528
aS'dobj=soviet-era'
p529
aS'dobj=stand'
p530
aS'dobj=step'
p531
aS'dobj=stick'
p532
aS'dobj=stigma'
p533
aS'dobj=stone'
p534
aS'dobj=story'
p535
aS'dobj=strategy'
p536
aS'dobj=stretcher'
p537
aS'dobj=strike'
p538
aS'dobj=study'
p539
aS'dobj=stuff'
p540
aS'dobj=such'
p541
aS'dobj=supplies'
p542
aS'dobj=supporter'
p543
aS'dobj=sword'
p544
aS'dobj=system'
p545
aS'dobj=tag'
p546
aS'dobj=team'
p547
aS'dobj=term'
p548
aS'dobj=terror'
p549
aS'dobj=test'
p550
aS'dobj=testing'
p551
aS'dobj=that'
p552
aS'dobj=the'
p553
aS'dobj=threat'
p554
aS'dobj=ton'
p555
aS'dobj=torch'
p556
aS'dobj=total'
p557
aS'dobj=tourist'
p558
aS'dobj=traffic'
p559
aS'dobj=traveler'
p560
aS'dobj=trial'
p561
aS'dobj=view'
p562
aS'dobj=virus'
p563
aS'dobj=visit'
p564
aS'dobj=vote'
p565
aS'dobj=voter'
p566
aS'dobj=wallet'
p567
aS'dobj=war'
p568
aS'dobj=wares'
p569
aS'dobj=warhead'
p570
aS'dobj=water'
p571
aS'dobj=wave'
p572
aS'dobj=weapon'
p573
aS'dobj=weight'
p574
aS'dobj=what'
p575
aS'dobj=woman'
p576
aS'dobj=work'
p577
aS'dobj=worker'
p578
aS'dobj=youth'
p579
aS'iobj=banner'
p580
aS'mark=after'
p581
aS'mark=although'
p582
aS'mark=as'
p583
aS'mark=because'
p584
aS'mark=before'
p585
aS'mark=for'
p586
aS'mark=if'
p587
aS'mark=in'
p588
aS'mark=so'
p589
aS'mark=until'
p590
aS'mark=while'
p591
aS'neg=not'
p592
aS'nsubj=#NUMBER#'
p593
aS'nsubj=#PRP#'
p594
aS'nsubj=$'
p595
aS'nsubj=AMISOM'
p596
aS'nsubj=Africa'
p597
aS'nsubj=Agency'
p598
aS'nsubj=Algeria'
p599
aS'nsubj=Benedict'
p600
aS'nsubj=Bush'
p601
aS'nsubj=CIA'
p602
aS'nsubj=Clinton'
p603
aS'nsubj=Congress'
p604
aS'nsubj=Discovery'
p605
aS'nsubj=Endeavour'
p606
aS'nsubj=Ethiopia'
p607
aS'nsubj=Ethiopians'
p608
aS'nsubj=Fallon'
p609
aS'nsubj=Hamas'
p610
aS'nsubj=Homosexuality'
p611
aS'nsubj=Institute'
p612
aS'nsubj=Iraqis'
p613
aS'nsubj=Israel'
p614
aS'nsubj=Koreans'
p615
aS'nsubj=LRA'
p616
aS'nsubj=Mahanan'
p617
aS'nsubj=Maoists'
p618
aS'nsubj=Media'
p619
aS'nsubj=Ming'
p620
aS'nsubj=Mohammed'
p621
aS'nsubj=North'
p622
aS'nsubj=Olmert'
p623
aS'nsubj=Pakistan'
p624
aS'nsubj=Palestinians'
p625
aS'nsubj=Petraeus'
p626
aS'nsubj=Pilgrims'
p627
aS'nsubj=Police'
p628
aS'nsubj=Roger'
p629
aS'nsubj=Simonyi'
p630
aS'nsubj=Solana'
p631
aS'nsubj=Turkey'
p632
aS'nsubj=UNICEF'
p633
aS'nsubj=Yar'
p634
aS'nsubj=ability'
p635
aS'nsubj=abuse'
p636
aS'nsubj=activist'
p637
aS'nsubj=aid'
p638
aS'nsubj=airline'
p639
aS'nsubj=airliner'
p640
aS'nsubj=al-Qaida'
p641
aS'nsubj=al-shabab'
p642
aS'nsubj=army'
p643
aS'nsubj=athlete'
p644
aS'nsubj=attack'
p645
aS'nsubj=attacker'
p646
aS'nsubj=attorney'
p647
aS'nsubj=authority'
p648
aS'nsubj=award'
p649
aS'nsubj=bloc'
p650
aS'nsubj=boat'
p651
aS'nsubj=bomber'
p652
aS'nsubj=book'
p653
aS'nsubj=bus'
p654
aS'nsubj=business'
p655
aS'nsubj=casualty'
p656
aS'nsubj=cell'
p657
aS'nsubj=charge'
p658
aS'nsubj=conviction'
p659
aS'nsubj=convoy'
p660
aS'nsubj=country'
p661
aS'nsubj=delegate'
p662
aS'nsubj=delegation'
p663
aS'nsubj=development'
p664
aS'nsubj=diplomat'
p665
aS'nsubj=disease'
p666
aS'nsubj=drone'
p667
aS'nsubj=duck'
p668
aS'nsubj=effort'
p669
aS'nsubj=election'
p670
aS'nsubj=element'
p671
aS'nsubj=energy'
p672
aS'nsubj=epr'
p673
aS'nsubj=explosion'
p674
aS'nsubj=family'
p675
aS'nsubj=finding'
p676
aS'nsubj=food'
p677
aS'nsubj=force'
p678
aS'nsubj=foreigner'
p679
aS'nsubj=gene'
p680
aS'nsubj=girl'
p681
aS'nsubj=government'
p682
aS'nsubj=group'
p683
aS'nsubj=guard'
p684
aS'nsubj=gunman'
p685
aS'nsubj=gunship'
p686
aS'nsubj=hope'
p687
aS'nsubj=immigrant'
p688
aS'nsubj=institution'
p689
aS'nsubj=insurgent'
p690
aS'nsubj=islamic'
p691
aS'nsubj=isto'
p692
aS'nsubj=jet'
p693
aS'nsubj=laugh'
p694
aS'nsubj=leader'
p695
aS'nsubj=level'
p696
aS'nsubj=mammal'
p697
aS'nsubj=man'
p698
aS'nsubj=measure'
p699
aS'nsubj=meat'
p700
aS'nsubj=member'
p701
aS'nsubj=militant'
p702
aS'nsubj=military'
p703
aS'nsubj=mission'
p704
aS'nsubj=module'
p705
aS'nsubj=mortality'
p706
aS'nsubj=motorbike'
p707
aS'nsubj=musician'
p708
aS'nsubj=nation'
p709
aS'nsubj=neither'
p710
aS'nsubj=network'
p711
aS'nsubj=newspaper'
p712
aS'nsubj=none'
p713
aS'nsubj=operation'
p714
aS'nsubj=organization'
p715
aS'nsubj=other'
p716
aS'nsubj=participant'
p717
aS'nsubj=party'
p718
aS'nsubj=people'
p719
aS'nsubj=pig'
p720
aS'nsubj=pipeline'
p721
aS'nsubj=plane'
p722
aS'nsubj=plant'
p723
aS'nsubj=police'
p724
aS'nsubj=poll'
p725
aS'nsubj=popularity'
p726
aS'nsubj=president'
p727
aS'nsubj=process'
p728
aS'nsubj=protester'
p729
aS'nsubj=rebel'
p730
aS'nsubj=refugee'
p731
aS'nsubj=reinforcement'
p732
aS'nsubj=report'
p733
aS'nsubj=resident'
p734
aS'nsubj=resolution'
p735
aS'nsubj=returnee'
p736
aS'nsubj=riot'
p737
aS'nsubj=route'
p738
aS'nsubj=runner'
p739
aS'nsubj=school'
p740
aS'nsubj=sea'
p741
aS'nsubj=ship'
p742
aS'nsubj=side'
p743
aS'nsubj=smoke'
p744
aS'nsubj=soldier'
p745
aS'nsubj=some'
p746
aS'nsubj=spacecraft'
p747
aS'nsubj=staff'
p748
aS'nsubj=statement'
p749
aS'nsubj=strike'
p750
aS'nsubj=supporter'
p751
aS'nsubj=surge'
p752
aS'nsubj=talibanmilitant'
p753
aS'nsubj=tanker'
p754
aS'nsubj=team'
p755
aS'nsubj=television'
p756
aS'nsubj=terrorist'
p757
aS'nsubj=that'
p758
aS'nsubj=time'
p759
aS'nsubj=train'
p760
aS'nsubj=troops'
p761
aS'nsubj=truck'
p762
aS'nsubj=unrest'
p763
aS'nsubj=vehicle'
p764
aS'nsubj=vessel'
p765
aS'nsubj=victory'
p766
aS'nsubj=violence'
p767
aS'nsubj=visit'
p768
aS'nsubj=voice'
p769
aS'nsubj=voyager'
p770
aS'nsubj=warplane'
p771
aS'nsubj=weapon'
p772
aS'nsubj=what'
p773
aS'nsubj=which'
p774
aS'nsubj=who'
p775
aS'nsubj=woman'
p776
aS'nsubj=yacht'
p777
aS'nsubjpass=#NUMBER#'
p778
aS'nsubjpass=#PRP#'
p779
aS'nsubjpass=Agreement'
p780
aS'nsubjpass=Everett'
p781
aS'nsubjpass=Hussein'
p782
aS'nsubjpass=Lockerbie'
p783
aS'nsubjpass=Perch'
p784
aS'nsubjpass=action'
p785
aS'nsubjpass=advocacy'
p786
aS'nsubjpass=al-Tikriti'
p787
aS'nsubjpass=announcement'
p788
aS'nsubjpass=arrest'
p789
aS'nsubjpass=attack'
p790
aS'nsubjpass=bombing'
p791
aS'nsubjpass=campaign'
p792
aS'nsubjpass=casket'
p793
aS'nsubjpass=child'
p794
aS'nsubjpass=coffin'
p795
aS'nsubjpass=conflict'
p796
aS'nsubjpass=cross'
p797
aS'nsubjpass=cutting'
p798
aS'nsubjpass=detail'
p799
aS'nsubjpass=effort'
p800
aS'nsubjpass=execution'
p801
aS'nsubjpass=identification'
p802
aS'nsubjpass=inquiry'
p803
aS'nsubjpass=investigation'
p804
aS'nsubjpass=kind'
p805
aS'nsubjpass=much'
p806
aS'nsubjpass=operation'
p807
aS'nsubjpass=opposition'
p808
aS'nsubjpass=other'
p809
aS'nsubjpass=people'
p810
aS'nsubjpass=plan'
p811
aS'nsubjpass=proceedings'
p812
aS'nsubjpass=process'
p813
aS'nsubjpass=raid'
p814
aS'nsubjpass=reason'
p815
aS'nsubjpass=research'
p816
aS'nsubjpass=rite'
p817
aS'nsubjpass=screening'
p818
aS'nsubjpass=search'
p819
aS'nsubjpass=sentence'
p820
aS'nsubjpass=series'
p821
aS'nsubjpass=shutdown'
p822
aS'nsubjpass=some'
p823
aS'nsubjpass=state'
p824
aS'nsubjpass=study'
p825
aS'nsubjpass=that'
p826
aS'nsubjpass=treatment'
p827
aS'nsubjpass=virus'
p828
aS'nsubjpass=which'
p829
aS'nsubjpass=wiretap'
p830
aS'nsubjpass=work'
p831
aS'parataxis=be'
p832
aS'parataxis=get'
p833
aS'parataxis=problematic'
p834
aS'partmod=bypass'
p835
aS'partmod=call'
p836
aS'partmod=cause'
p837
aS'partmod=conduct'
p838
aS'partmod=indicate'
p839
aS'partmod=kill'
p840
aS'partmod=launch'
p841
aS'partmod=sell'
p842
aS'partmod=set'
p843
aS'prep=aboard'
p844
aS'prep=accord'
p845
aS'prep=across'
p846
aS'prep=after'
p847
aS'prep=against'
p848
aS'prep=along'
p849
aS'prep=amid'
p850
aS'prep=around'
p851
aS'prep=as'
p852
aS'prep=at'
p853
aS'prep=base'
p854
aS'prep=because'
p855
aS'prep=before'
p856
aS'prep=by'
p857
aS'prep=despite'
p858
aS'prep=down'
p859
aS'prep=during'
p860
aS'prep=except'
p861
aS'prep=for'
p862
aS'prep=from'
p863
aS'prep=in'
p864
aS'prep=include'
p865
aS'prep=into'
p866
aS'prep=like'
p867
aS'prep=of'
p868
aS'prep=on'
p869
aS'prep=out'
p870
aS'prep=outside'
p871
aS'prep=over'
p872
aS'prep=provide'
p873
aS'prep=since'
p874
aS'prep=than'
p875
aS'prep=that'
p876
aS'prep=through'
p877
aS'prep=throughout'
p878
aS'prep=to'
p879
aS'prep=toward'
p880
aS'prep=under'
p881
aS'prep=upon'
p882
aS'prep=while'
p883
aS'prep=with'
p884
aS'prep=within'
p885
aS'prep=without'
p886
aS'prt=around'
p887
aS'prt=away'
p888
aS'prt=back'
p889
aS'prt=forward'
p890
aS'prt=off'
p891
aS'prt=on'
p892
aS'prt=out'
p893
aS'prt=over'
p894
aS'prt=up'
p895
aS'purpcl=escape'
p896
aS'rel=with'
p897
aS'tmod=attack'
p898
aS'tmod=day'
p899
aS'tmod=month'
p900
aS'tmod=morning'
p901
aS'tmod=raid'
p902
aS'tmod=today'
p903
aS'tmod=week'
p904
aS'tmod=year'
p905
aS'w+1=,'
p906
aS'w+1=-'
p907
aS'w+1=.'
p908
aS'w+1=100'
p909
aS'w+1=102'
p910
aS'w+1=133'
p911
aS'w+1=140'
p912
aS'w+1=154'
p913
aS'w+1=220'
p914
aS'w+1=28'
p915
aS'w+1=29'
p916
aS'w+1=30'
p917
aS'w+1=33'
p918
aS'w+1=34'
p919
aS'w+1=45'
p920
aS'w+1=600'
p921
aS'w+1=80'
p922
aS'w+1=925'
p923
aS'w+1=Air'
p924
aS'w+1=Brennan'
p925
aS'w+1=I'
p926
aS'w+1=Iraq'
p927
aS'w+1=Islamic'
p928
aS'w+1=Margaret'
p929
aS'w+1=Mr.'
p930
aS'w+1=President'
p931
aS'w+1=Prime'
p932
aS'w+1=Provenzano'
p933
aS'w+1=Southeast'
p934
aS'w+1=UNHCR'
p935
aS'w+1=a'
p936
aS'w+1=aboard'
p937
aS'w+1=across'
p938
aS'w+1=alcohol'
p939
aS'w+1=all'
p940
aS'w+1=american'
p941
aS'w+1=american-style'
p942
aS'w+1=amplifier'
p943
aS'w+1=another'
p944
aS'w+1=arm'
p945
aS'w+1=around'
p946
aS'w+1=assault'
p947
aS'w+1=astronaut'
p948
aS'w+1=at'
p949
aS'w+1=aviation'
p950
aS'w+1=away'
p951
aS'w+1=back'
p952
aS'w+1=backpack'
p953
aS'w+1=ballot'
p954
aS'w+1=banner'
p955
aS'w+1=bauxite'
p956
aS'w+1=blood'
p957
aS'w+1=book'
p958
aS'w+1=bucket'
p959
aS'w+1=by'
p960
aS'w+1=candle'
p961
aS'w+1=capacity'
p962
aS'w+1=cardboard'
p963
aS'w+1=cargo'
p964
aS'w+1=consumer'
p965
aS'w+1=content'
p966
aS'w+1=could'
p967
aS'w+1=cowhide'
p968
aS'w+1=defense'
p969
aS'w+1=desperately'
p970
aS'w+1=device'
p971
aS'w+1=dozen'
p972
aS'w+1=drug'
p973
aS'w+1=each'
p974
aS'w+1=emergency'
p975
aS'w+1=employee'
p976
aS'w+1=enough'
p977
aS'w+1=equipment'
p978
aS'w+1=even'
p979
aS'w+1=everything'
p980
aS'w+1=explosive'
p981
aS'w+1=extra'
p982
aS'w+1=fake'
p983
aS'w+1=five'
p984
aS'w+1=food'
p985
aS'w+1=for'
p986
aS'w+1=foreign'
p987
aS'w+1=forward'
p988
aS'w+1=forwardthe'
p989
aS'w+1=four'
p990
aS'w+1=front-page'
p991
aS'w+1=fuel'
p992
aS'w+1=gas'
p993
aS'w+1=goods'
p994
aS'w+1=government'
p995
aS'w+1=gun'
p996
aS'w+1=gunman'
p997
aS'w+1=handgun'
p998
aS'w+1=he'
p999
aS'w+1=heavy'
p1000
aS'w+1=hereditary'
p1001
aS'w+1=humanitarian'
p1002
aS'w+1=hunting'
p1003
aS'w+1=image'
p1004
aS'w+1=immense'
p1005
aS'w+1=in'
p1006
aS'w+1=intelligence'
p1007
aS'w+1=interim'
p1008
aS'w+1=internationally'
p1009
aS'w+1=into'
p1010
aS'w+1=iranian'
p1011
aS'w+1=iraqi'
p1012
aS'w+1=iron'
p1013
aS'w+1=it'
p1014
aS'w+1=knapsack'
p1015
aS'w+1=large'
p1016
aS'w+1=law'
p1017
aS'w+1=live'
p1018
aS'w+1=load'
p1019
aS'w+1=looted'
p1020
aS'w+1=mattress'
p1021
aS'w+1=medical'
p1022
aS'w+1=member'
p1023
aS'w+1=migrant'
p1024
aS'w+1=military'
p1025
aS'w+1=miniature'
p1026
aS'w+1=more'
p1027
aS'w+1=most'
p1028
aS'w+1=mostly'
p1029
aS'w+1=much'
p1030
aS'w+1=multiple'
p1031
aS'w+1=musical'
p1032
aS'w+1=my'
p1033
aS'w+1=name'
p1034
aS'w+1=nearly'
p1035
aS'w+1=news'
p1036
aS'w+1=nine'
p1037
aS'w+1=no'
p1038
aS'w+1=nuclear'
p1039
aS'w+1=numerous'
p1040
aS'w+1=off'
p1041
aS'w+1=olive'
p1042
aS'w+1=on'
p1043
aS'w+1=only'
p1044
aS'w+1=or'
p1045
aS'w+1=other'
p1046
aS'w+1=out'
p1047
aS'w+1=outside'
p1048
aS'w+1=over'
p1049
aS'w+1=oxygen'
p1050
aS'w+1=palm'
p1051
aS'w+1=passenger'
p1052
aS'w+1=phosphorus'
p1053
aS'w+1=placard'
p1054
aS'w+1=plan'
p1055
aS'w+1=plastic'
p1056
aS'w+1=possible'
p1057
aS'w+1=pot'
p1058
aS'w+1=prohibit'
p1059
aS'w+1=rainbow-colored'
p1060
aS'w+1=rainwater'
p1061
aS'w+1=relief'
p1062
aS'w+1=report'
p1063
aS'w+1=right'
p1064
aS'w+1=risk'
p1065
aS'w+1=russian'
p1066
aS'w+1=score'
p1067
aS'w+1=semi-automatic'
p1068
aS'w+1=sensor'
p1069
aS'w+1=serious'
p1070
aS'w+1=seven'
p1071
aS'w+1=she'
p1072
aS'w+1=shiite'
p1073
aS'w+1=sign'
p1074
aS'w+1=similar'
p1075
aS'w+1=some'
p1076
aS'w+1=somebody'
p1077
aS'w+1=stage'
p1078
aS'w+1=stick'
p1079
aS'w+1=stone'
p1080
aS'w+1=stretcher'
p1081
aS'w+1=supplies'
p1082
aS'w+1=suspect'
p1083
aS'w+1=sword'
p1084
aS'w+1=tag'
p1085
aS'w+1=that'
p1086
aS'w+1=the'
p1087
aS'w+1=these'
p1088
aS'w+1=they'
p1089
aS'w+1=those'
p1090
aS'w+1=thousand'
p1091
aS'w+1=three'
p1092
aS'w+1=through'
p1093
aS'w+1=to'
p1094
aS'w+1=too'
p1095
aS'w+1=tourist'
p1096
aS'w+1=toward'
p1097
aS'w+1=traffic'
p1098
aS'w+1=turkish'
p1099
aS'w+1=twice'
p1100
aS'w+1=two'
p1101
aS'w+1=unregistered'
p1102
aS'w+1=up'
p1103
aS'w+1=urgently'
p1104
aS'w+1=vegetable'
p1105
aS'w+1=venezuelan'
p1106
aS'w+1=war-weary'
p1107
aS'w+1=water'
p1108
aS'w+1=weapon'
p1109
aS'w+1=wfp'
p1110
aS'w+1=what'
p1111
aS'w+1=wheat'
p1112
aS'w+1=white'
p1113
aS'w+1=wireless'
p1114
aS'w+1=with'
p1115
aS'w+1=within'
p1116
aS'w+1=worker'
p1117
aS'w+1=wounded'
p1118
aS'w+1=you'
p1119
aS'w+2=$'
p1120
aS"w+2=''"
p1121
aS"w+2='s"
p1122
aS'w+2=,'
p1123
aS'w+2=-'
p1124
aS'w+2=.'
p1125
aS'w+2=14'
p1126
aS'w+2=20-year'
p1127
aS'w+2=21'
p1128
aS'w+2=25-kilogram'
p1129
aS'w+2=36'
p1130
aS'w+2=400'
p1131
aS'w+2=500'
p1132
aS'w+2=55-year-old'
p1133
aS'w+2=60'
p1134
aS'w+2=80'
p1135
aS'w+2=Asia'
p1136
aS'w+2=Automatic'
p1137
aS'w+2=Baghdad'
p1138
aS'w+2=Force'
p1139
aS'w+2=Ford'
p1140
aS'w+2=Foreign'
p1141
aS'w+2=Garrett'
p1142
aS'w+2=I'
p1143
aS'w+2=Ivory'
p1144
aS'w+2=Japan'
p1145
aS'w+2=Jihad'
p1146
aS'w+2=Minister'
p1147
aS'w+2=Monday'
p1148
aS'w+2=Olympic'
p1149
aS'w+2=Somalis'
p1150
aS'w+2=Soro'
p1151
aS'w+2=South'
p1152
aS'w+2=Thursday'
p1153
aS'w+2=Turkmenistan'
p1154
aS'w+2=U.S.'
p1155
aS'w+2=`'
p1156
aS'w+2=a'
p1157
aS'w+2=abduction'
p1158
aS'w+2=across'
p1159
aS'w+2=act'
p1160
aS'w+2=activity'
p1161
aS'w+2=adult'
p1162
aS'w+2=aerial'
p1163
aS'w+2=after'
p1164
aS'w+2=agency'
p1165
aS'w+2=agreement'
p1166
aS'w+2=aid'
p1167
aS'w+2=air'
p1168
aS'w+2=alcohol'
p1169
aS'w+2=all'
p1170
aS'w+2=along'
p1171
aS'w+2=amount'
p1172
aS'w+2=and'
p1173
aS'w+2=another'
p1174
aS'w+2=anti-terrorism'
p1175
aS'w+2=any'
p1176
aS'w+2=around'
p1177
aS'w+2=as'
p1178
aS'w+2=assassination'
p1179
aS'w+2=astronaut'
p1180
aS'w+2=asylum'
p1181
aS'w+2=at'
p1182
aS'w+2=atrocity'
p1183
aS'w+2=attack'
p1184
aS'w+2=audit'
p1185
aS'w+2=awareness'
p1186
aS'w+2=away'
p1187
aS'w+2=baby'
p1188
aS'w+2=bag'
p1189
aS'w+2=banner'
p1190
aS'w+2=basket'
p1191
aS'w+2=battered'
p1192
aS'w+2=battle'
p1193
aS'w+2=be'
p1194
aS'w+2=because'
p1195
aS'w+2=before'
p1196
aS'w+2=biological'
p1197
aS'w+2=blanket'
p1198
aS'w+2=body'
p1199
aS'w+2=bomb'
p1200
aS'w+2=bombing'
p1201
aS'w+2=book'
p1202
aS'w+2=bowl'
p1203
aS'w+2=box'
p1204
aS'w+2=breast'
p1205
aS'w+2=bucket'
p1206
aS'w+2=bundle'
p1207
aS'w+2=burden'
p1208
aS'w+2=but'
p1209
aS'w+2=by'
p1210
aS'w+2=call'
p1211
aS'w+2=capital'
p1212
aS'w+2=car'
p1213
aS'w+2=cargo'
p1214
aS'w+2=case'
p1215
aS'w+2=catch'
p1216
aS'w+2=chain'
p1217
aS'w+2=channel'
p1218
aS'w+2=child'
p1219
aS'w+2=chinese'
p1220
aS'w+2=combat'
p1221
aS'w+2=commitment'
p1222
aS'w+2=computer'
p1223
aS'w+2=congolese'
p1224
aS'w+2=construct'
p1225
aS'w+2=continuous'
p1226
aS'w+2=coordinate'
p1227
aS'w+2=core'
p1228
aS'w+2=counter-terrorism'
p1229
aS'w+2=covert'
p1230
aS'w+2=crew'
p1231
aS'w+2=crewmember'
p1232
aS'w+2=cross'
p1233
aS'w+2=cross-border'
p1234
aS'w+2=daily'
p1235
aS'w+2=daughter'
p1236
aS'w+2=day'
p1237
aS'w+2=dead'
p1238
aS'w+2=death'
p1239
aS'w+2=delicate'
p1240
aS'w+2=demonstration'
p1241
aS'w+2=demonstrator'
p1242
aS'w+2=detailed'
p1243
aS'w+2=detonate'
p1244
aS'w+2=direct'
p1245
aS'w+2=disaster'
p1246
aS'w+2=disease'
p1247
aS'w+2=district'
p1248
aS'w+2=dramatic'
p1249
aS'w+2=drug'
p1250
aS'w+2=drum'
p1251
aS'w+2=ear'
p1252
aS'w+2=election'
p1253
aS'w+2=empty'
p1254
aS'w+2=end'
p1255
aS'w+2=equipment'
p1256
aS'w+2=espionage'
p1257
aS'w+2=execution'
p1258
aS'w+2=expert'
p1259
aS'w+2=fatal'
p1260
aS'w+2=first'
p1261
aS'w+2=flag'
p1262
aS'w+2=flame'
p1263
aS'w+2=flour'
p1264
aS'w+2=food'
p1265
aS'w+2=for'
p1266
aS'w+2=force'
p1267
aS'w+2=form'
p1268
aS'w+2=four-month-old'
p1269
aS'w+2=frequent'
p1270
aS'w+2=from'
p1271
aS'w+2=fuel'
p1272
aS'w+2=full'
p1273
aS'w+2=full-scale'
p1274
aS'w+2=further'
p1275
aS'w+2=gas'
p1276
aS'w+2=gene'
p1277
aS'w+2=genocide'
p1278
aS'w+2=ghanaian'
p1279
aS'w+2=girl'
p1280
aS'w+2=gold-plated'
p1281
aS'w+2=government'
p1282
aS'w+2=greater'
p1283
aS'w+2=greatest'
p1284
aS'w+2=groom'
p1285
aS'w+2=group'
p1286
aS'w+2=gun'
p1287
aS'w+2=gunman'
p1288
aS'w+2=hard'
p1289
aS'w+2=he'
p1290
aS'w+2=headline'
p1291
aS'w+2=heavy'
p1292
aS'w+2=home'
p1293
aS'w+2=hope'
p1294
aS'w+2=hospital'
p1295
aS'w+2=human'
p1296
aS'w+2=husband'
p1297
aS'w+2=identity'
p1298
aS'w+2=ied'
p1299
aS'w+2=illegal'
p1300
aS'w+2=immediately'
p1301
aS'w+2=immigration'
p1302
aS'w+2=implication'
p1303
aS'w+2=imply'
p1304
aS'w+2=in'
p1305
aS'w+2=independent'
p1306
aS'w+2=instrument'
p1307
aS'w+2=internet'
p1308
aS'w+2=into'
p1309
aS'w+2=investigation'
p1310
aS'w+2=it'
p1311
aS'w+2=item'
p1312
aS'w+2=its'
p1313
aS'w+2=jewish'
p1314
aS'w+2=joint'
p1315
aS'w+2=kidnapping'
p1316
aS'w+2=kilo'
p1317
aS'w+2=large'
p1318
aS'w+2=large-scale'
p1319
aS'w+2=largely'
p1320
aS'w+2=leaf'
p1321
aS'w+2=letter'
p1322
aS'w+2=life'
p1323
aS'w+2=limited'
p1324
aS'w+2=live'
p1325
aS'w+2=load'
p1326
aS'w+2=loved'
p1327
aS'w+2=major'
p1328
aS'w+2=malaria'
p1329
aS'w+2=mandatory'
p1330
aS'w+2=mantle'
p1331
aS'w+2=many'
p1332
aS'w+2=mass'
p1333
aS'w+2=massive'
p1334
aS'w+2=maximum'
p1335
aS'w+2=measles'
p1336
aS'w+2=message'
p1337
aS'w+2=metric'
p1338
aS'w+2=military'
p1339
aS'w+2=million'
p1340
aS'w+2=minister'
p1341
aS'w+2=missile'
p1342
aS'w+2=mission'
p1343
aS'w+2=missionary'
p1344
aS'w+2=more'
p1345
aS'w+2=mosquito'
p1346
aS'w+2=most'
p1347
aS'w+2=much'
p1348
aS'w+2=nation'
p1349
aS'w+2=national'
p1350
aS'w+2=nationwide'
p1351
aS'w+2=need'
p1352
aS'w+2=new'
p1353
aS'w+2=number'
p1354
aS'w+2=numerous'
p1355
aS'w+2=of'
p1356
aS'w+2=official'
p1357
aS'w+2=oil'
p1358
aS'w+2=on'
p1359
aS'w+2=one'
p1360
aS'w+2=operation'
p1361
aS'w+2=or'
p1362
aS'w+2=ore'
p1363
aS'w+2=other'
p1364
aS'w+2=out'
p1365
aS'w+2=oversight'
p1366
aS'w+2=own'
p1367
aS'w+2=oxygen'
p1368
aS'w+2=paper'
p1369
aS'w+2=particle'
p1370
aS'w+2=passenger'
p1371
aS'w+2=past'
p1372
aS'w+2=peace'
p1373
aS'w+2=people'
p1374
aS'w+2=percent'
p1375
aS'w+2=performance'
p1376
aS'w+2=person'
p1377
aS'w+2=personnel'
p1378
aS'w+2=pilgrim'
p1379
aS'w+2=plan'
p1380
aS'w+2=police'
p1381
aS'w+2=political'
p1382
aS'w+2=politics'
p1383
aS'w+2=polling'
p1384
aS'w+2=possession'
p1385
aS'w+2=possibility'
p1386
aS'w+2=potential'
p1387
aS'w+2=prison'
p1388
aS'w+2=private'
p1389
aS'w+2=product'
p1390
aS'w+2=promise'
p1391
aS'w+2=proper'
p1392
aS'w+2=property'
p1393
aS'w+2=proposal'
p1394
aS'w+2=proxy'
p1395
aS'w+2=put'
p1396
aS'w+2=raid'
p1397
aS'w+2=rape'
p1398
aS'w+2=rebellion'
p1399
aS'w+2=reform'
p1400
aS'w+2=regular'
p1401
aS'w+2=relief'
p1402
aS'w+2=remains'
p1403
aS'w+2=reprisal'
p1404
aS'w+2=result'
p1405
aS'w+2=rifle'
p1406
aS'w+2=right'
p1407
aS'w+2=risk'
p1408
aS'w+2=rocket'
p1409
aS'w+2=sack'
p1410
aS'w+2=same'
p1411
aS'w+2=satellite'
p1412
aS'w+2=say'
p1413
aS'w+2=second'
p1414
aS'w+2=security'
p1415
aS'w+2=seed'
p1416
aS'w+2=selective'
p1417
aS'w+2=senior'
p1418
aS'w+2=sentence'
p1419
aS"w+2=shi'ite"
p1420
aS'w+2=shield'
p1421
aS'w+2=shotgun'
p1422
aS'w+2=show'
p1423
aS'w+2=sign'
p1424
aS'w+2=since'
p1425
aS'w+2=sink'
p1426
aS'w+2=six-month'
p1427
aS'w+2=small'
p1428
aS'w+2=small-scale'
p1429
aS'w+2=smoothly'
p1430
aS'w+2=soldier'
p1431
aS'w+2=somali'
p1432
aS'w+2=some'
p1433
aS'w+2=soviet-era'
p1434
aS'w+2=special'
p1435
aS'w+2=stigma'
p1436
aS'w+2=story'
p1437
aS'w+2=street'
p1438
aS'w+2=strike'
p1439
aS'w+2=such'
p1440
aS'w+2=suicide'
p1441
aS'w+2=supplies'
p1442
aS'w+2=swimming'
p1443
aS'w+2=take'
p1444
aS'w+2=target'
p1445
aS'w+2=team'
p1446
aS'w+2=tell'
p1447
aS'w+2=term'
p1448
aS'w+2=terrorist'
p1449
aS'w+2=test'
p1450
aS'w+2=than'
p1451
aS'w+2=that'
p1452
aS'w+2=the'
p1453
aS'w+2=these'
p1454
aS'w+2=they'
p1455
aS'w+2=this'
p1456
aS'w+2=those'
p1457
aS'w+2=three'
p1458
aS'w+2=through'
p1459
aS'w+2=throughout'
p1460
aS'w+2=thus'
p1461
aS'w+2=to'
p1462
aS'w+2=ton'
p1463
aS'w+2=torch'
p1464
aS'w+2=torture'
p1465
aS'w+2=total'
p1466
aS'w+2=turn'
p1467
aS'w+2=two'
p1468
aS'w+2=unannounced'
p1469
aS'w+2=under'
p1470
aS'w+2=unfinished'
p1471
aS'w+2=unpaid'
p1472
aS'w+2=unpopular'
p1473
aS'w+2=up'
p1474
aS'w+2=vast'
p1475
aS'w+2=very'
p1476
aS'w+2=view'
p1477
aS'w+2=violent'
p1478
aS'w+2=virus'
p1479
aS'w+2=visit'
p1480
aS'w+2=voter'
p1481
aS'w+2=wallet'
p1482
aS'w+2=wares'
p1483
aS'w+2=warhead'
p1484
aS'w+2=water'
p1485
aS'w+2=watering'
p1486
aS'w+2=we'
p1487
aS'w+2=weapon'
p1488
aS'w+2=weight'
p1489
aS'w+2=what'
p1490
aS'w+2=when'
p1491
aS'w+2=who'
p1492
aS'w+2=will'
p1493
aS'w+2=with'
p1494
aS'w+2=within'
p1495
aS'w+2=without'
p1496
aS'w+2=worker'
p1497
aS'w+2=world'
p1498
aS'w+2=would'
p1499
aS'w+2=wound'
p1500
aS'w+2=youth'
p1501
aS"w-1='ll"
p1502
aS'w-1=,'
p1503
aS'w-1=-'
p1504
aS'w-1=-rrb-'
p1505
aS'w-1=.'
p1506
aS'w-1=737-400'
p1507
aS'w-1=Agency'
p1508
aS'w-1=Benedict'
p1509
aS'w-1=Bush'
p1510
aS'w-1=CIA'
p1511
aS'w-1=Clinton'
p1512
aS'w-1=Ethiopians'
p1513
aS'w-1=Hamas'
p1514
aS'w-1=Helicopters'
p1515
aS'w-1=I'
p1516
aS'w-1=Israel'
p1517
aS'w-1=Istanbul'
p1518
aS'w-1=Koreans'
p1519
aS'w-1=Ming'
p1520
aS'w-1=Mohammed'
p1521
aS'w-1=Monday'
p1522
aS'w-1=Niger'
p1523
aS'w-1=North'
p1524
aS'w-1=Olmert'
p1525
aS'w-1=Pakistan'
p1526
aS'w-1=Palestinians'
p1527
aS'w-1=Police'
p1528
aS'w-1=Roger'
p1529
aS'w-1=South'
p1530
aS'w-1=Turkey'
p1531
aS'w-1=Yemen'
p1532
aS'w-1=abuse'
p1533
aS'w-1=activist'
p1534
aS'w-1=actually'
p1535
aS'w-1=after'
p1536
aS'w-1=aid'
p1537
aS'w-1=aircraft'
p1538
aS'w-1=airline'
p1539
aS'w-1=airplane'
p1540
aS'w-1=al-Qaida'
p1541
aS'w-1=al-shabab'
p1542
aS'w-1=all'
p1543
aS'w-1=allegedly'
p1544
aS'w-1=also'
p1545
aS'w-1=and'
p1546
aS'w-1=area'
p1547
aS'w-1=army'
p1548
aS'w-1=as'
p1549
aS'w-1=assessment'
p1550
aS'w-1=at'
p1551
aS'w-1=athlete'
p1552
aS'w-1=atrocity'
p1553
aS'w-1=attack'
p1554
aS'w-1=award'
p1555
aS'w-1=be'
p1556
aS'w-1=better'
p1557
aS'w-1=boat'
p1558
aS'w-1=bomber'
p1559
aS'w-1=bombing'
p1560
aS'w-1=book'
p1561
aS'w-1=both'
p1562
aS'w-1=boy'
p1563
aS'w-1=briefly'
p1564
aS'w-1=burma'
p1565
aS'w-1=bus'
p1566
aS'w-1=but'
p1567
aS'w-1=by'
p1568
aS'w-1=can'
p1569
aS'w-1=car'
p1570
aS'w-1=casualty'
p1571
aS'w-1=charter'
p1572
aS'w-1=cigarette'
p1573
aS'w-1=comfortably'
p1574
aS'w-1=commander'
p1575
aS'w-1=conference'
p1576
aS'w-1=conviction'
p1577
aS'w-1=convoy'
p1578
aS'w-1=could'
p1579
aS'w-1=country'
p1580
aS'w-1=day'
p1581
aS'w-1=delegate'
p1582
aS'w-1=deny'
p1583
aS'w-1=development'
p1584
aS'w-1=disease'
p1585
aS'w-1=do'
p1586
aS'w-1=drone'
p1587
aS'w-1=effort'
p1588
aS'w-1=energy'
p1589
aS'w-1=eulogy'
p1590
aS'w-1=eviction'
p1591
aS'w-1=execution'
p1592
aS'w-1=explosion'
p1593
aS'w-1=facility'
p1594
aS'w-1=faithful'
p1595
aS'w-1=finally'
p1596
aS'w-1=find'
p1597
aS'w-1=flight'
p1598
aS'w-1=food'
p1599
aS'w-1=for'
p1600
aS'w-1=force'
p1601
aS'w-1=foreigner'
p1602
aS'w-1=from'
p1603
aS'w-1=gene'
p1604
aS'w-1=goods'
p1605
aS'w-1=govern'
p1606
aS'w-1=government'
p1607
aS'w-1=group'
p1608
aS'w-1=guard'
p1609
aS'w-1=gunship'
p1610
aS'w-1=have'
p1611
aS'w-1=he'
p1612
aS'w-1=hearse'
p1613
aS'w-1=helicopter'
p1614
aS'w-1=help'
p1615
aS'w-1=here'
p1616
aS'w-1=hill'
p1617
aS'w-1=hopefully'
p1618
aS'w-1=ideology'
p1619
aS'w-1=if'
p1620
aS'w-1=in'
p1621
aS'w-1=initially'
p1622
aS'w-1=instead'
p1623
aS'w-1=investigation'
p1624
aS'w-1=isto'
p1625
aS'w-1=it'
p1626
aS'w-1=itself'
p1627
aS'w-1=just'
p1628
aS'w-1=leftist'
p1629
aS'w-1=like'
p1630
aS'w-1=longer'
p1631
aS'w-1=lorry'
p1632
aS'w-1=mammal'
p1633
aS'w-1=man'
p1634
aS'w-1=marriage'
p1635
aS'w-1=meal'
p1636
aS'w-1=member'
p1637
aS'w-1=message'
p1638
aS'w-1=militant'
p1639
aS'w-1=minibus'
p1640
aS'w-1=misdemeanor'
p1641
aS'w-1=mission'
p1642
aS'w-1=motorcade'
p1643
aS'w-1=motorcycle'
p1644
aS'w-1=mule'
p1645
aS'w-1=mutilation'
p1646
aS'w-1=nationality'
p1647
aS'w-1=necessarily'
p1648
aS'w-1=network'
p1649
aS'w-1=newspaper'
p1650
aS'w-1=not'
p1651
aS'w-1=now'
p1652
aS'w-1=of'
p1653
aS'w-1=official'
p1654
aS'w-1=often'
p1655
aS'w-1=on'
p1656
aS'w-1=one'
p1657
aS'w-1=only'
p1658
aS'w-1=operation'
p1659
aS'w-1=or'
p1660
aS'w-1=originally'
p1661
aS'w-1=other'
p1662
aS'w-1=particular'
p1663
aS'w-1=past'
p1664
aS'w-1=people'
p1665
aS'w-1=person'
p1666
aS'w-1=personally'
p1667
aS'w-1=pig'
p1668
aS'w-1=placard'
p1669
aS'w-1=plane'
p1670
aS'w-1=police'
p1671
aS'w-1=politician'
p1672
aS'w-1=poll'
p1673
aS'w-1=president'
p1674
aS'w-1=process'
p1675
aS'w-1=protester'
p1676
aS'w-1=raid'
p1677
aS'w-1=really'
p1678
aS'w-1=reform'
p1679
aS'w-1=reinforcement'
p1680
aS'w-1=relative'
p1681
aS'w-1=remark'
p1682
aS'w-1=reportedly'
p1683
aS'w-1=require'
p1684
aS'w-1=resident'
p1685
aS'w-1=returnee'
p1686
aS'w-1=riot'
p1687
aS'w-1=runner'
p1688
aS'w-1=say'
p1689
aS'w-1=see'
p1690
aS'w-1=she'
p1691
aS'w-1=ship'
p1692
aS'w-1=should'
p1693
aS'w-1=side'
p1694
aS'w-1=size'
p1695
aS'w-1=smoke'
p1696
aS'w-1=soldier'
p1697
aS'w-1=some'
p1698
aS'w-1=south'
p1699
aS'w-1=spacecraft'
p1700
aS'w-1=start'
p1701
aS'w-1=statement'
p1702
aS'w-1=still'
p1703
aS'w-1=street'
p1704
aS'w-1=supporter'
p1705
aS'w-1=survey'
p1706
aS'w-1=tanker'
p1707
aS'w-1=team'
p1708
aS'w-1=terrorist'
p1709
aS'w-1=that'
p1710
aS'w-1=the'
p1711
aS'w-1=then'
p1712
aS'w-1=they'
p1713
aS'w-1=those'
p1714
aS'w-1=to'
p1715
aS'w-1=toward'
p1716
aS'w-1=tradition'
p1717
aS'w-1=train'
p1718
aS'w-1=troops'
p1719
aS'w-1=truck'
p1720
aS'w-1=unrest'
p1721
aS'w-1=vehicle'
p1722
aS'w-1=violence'
p1723
aS'w-1=virus'
p1724
aS'w-1=voice'
p1725
aS'w-1=warplane'
p1726
aS'w-1=water'
p1727
aS'w-1=we'
p1728
aS'w-1=weapon'
p1729
aS'w-1=what'
p1730
aS'w-1=which'
p1731
aS'w-1=while'
p1732
aS'w-1=who'
p1733
aS'w-1=will'
p1734
aS'w-1=world'
p1735
aS'w-1=would'
p1736
aS'w-1=year'
p1737
aS"w-2=''"
p1738
aS"w-2='s"
p1739
aS'w-2=,'
p1740
aS'w-2=-'
p1741
aS'w-2=-rrb-'
p1742
aS'w-2=.'
p1743
aS'w-2=...'
p1744
aS'w-2=11'
p1745
aS'w-2=15-vehicle'
p1746
aS'w-2=180'
p1747
aS'w-2=1990s'
p1748
aS'w-2=80'
p1749
aS'w-2=900'
p1750
aS'w-2=AMISOM'
p1751
aS'w-2=Afghanistan'
p1752
aS'w-2=Agency'
p1753
aS'w-2=Agreement'
p1754
aS'w-2=Bangladesh'
p1755
aS'w-2=Bush'
p1756
aS'w-2=CIA'
p1757
aS'w-2=Cessna'
p1758
aS'w-2=Congress'
p1759
aS'w-2=Embassy'
p1760
aS'w-2=Ethiopia'
p1761
aS'w-2=Everett'
p1762
aS'w-2=France'
p1763
aS'w-2=Fulbright'
p1764
aS'w-2=Garuda'
p1765
aS'w-2=Hamas'
p1766
aS'w-2=Hezbollah'
p1767
aS'w-2=Hinode'
p1768
aS'w-2=Holocaust'
p1769
aS'w-2=Hutu'
p1770
aS'w-2=I'
p1771
aS'w-2=Iran'
p1772
aS'w-2=Iraq'
p1773
aS'w-2=Israel'
p1774
aS'w-2=Jordan'
p1775
aS'w-2=July'
p1776
aS'w-2=Karachi'
p1777
aS'w-2=Kurdistan'
p1778
aS'w-2=LRA'
p1779
aS'w-2=Leone'
p1780
aS'w-2=Liberia'
p1781
aS'w-2=Mount'
p1782
aS'w-2=Mr.'
p1783
aS'w-2=Nations'
p1784
aS'w-2=News'
p1785
aS'w-2=Nigeria'
p1786
aS'w-2=Nigerians'
p1787
aS'w-2=North'
p1788
aS'w-2=Olmert'
p1789
aS'w-2=Pakistan'
p1790
aS'w-2=Party'
p1791
aS'w-2=Peace'
p1792
aS'w-2=Pope'
p1793
aS'w-2=President'
p1794
aS'w-2=Said'
p1795
aS'w-2=Senator'
p1796
aS'w-2=Services'
p1797
aS'w-2=Seung-hui'
p1798
aS'w-2=Shanghai'
p1799
aS'w-2=Simonyi'
p1800
aS'w-2=States'
p1801
aS'w-2=Taleban'
p1802
aS'w-2=Thursday'
p1803
aS'w-2=Tigers'
p1804
aS'w-2=Tuareg'
p1805
aS'w-2=Turkey'
p1806
aS'w-2=U.N.'
p1807
aS'w-2=U.S.'
p1808
aS'w-2=Uganda'
p1809
aS'w-2=Wednesday'
p1810
aS'w-2=Yao'
p1811
aS'w-2=a'
p1812
aS'w-2=abdomen'
p1813
aS'w-2=ability'
p1814
aS'w-2=able'
p1815
aS'w-2=accuse'
p1816
aS'w-2=administration'
p1817
aS'w-2=admit'
p1818
aS'w-2=after'
p1819
aS'w-2=again'
p1820
aS'w-2=against'
p1821
aS'w-2=ago'
p1822
aS'w-2=aim'
p1823
aS'w-2=aircraft'
p1824
aS'w-2=airliner'
p1825
aS'w-2=airport'
p1826
aS'w-2=allow'
p1827
aS'w-2=also'
p1828
aS'w-2=and'
p1829
aS'w-2=animal'
p1830
aS'w-2=announcement'
p1831
aS'w-2=another'
p1832
aS'w-2=anxious'
p1833
aS'w-2=anyone'
p1834
aS'w-2=army'
p1835
aS'w-2=arrival'
p1836
aS'w-2=as'
p1837
aS'w-2=assignment'
p1838
aS'w-2=attack'
p1839
aS'w-2=attempt'
p1840
aS'w-2=attitude'
p1841
aS'w-2=attorney'
p1842
aS'w-2=authority'
p1843
aS'w-2=authorize'
p1844
aS'w-2=be'
p1845
aS'w-2=because'
p1846
aS'w-2=believe'
p1847
aS'w-2=black'
p1848
aS'w-2=blame'
p1849
aS'w-2=bloc'
p1850
aS'w-2=blood'
p1851
aS'w-2=boat'
p1852
aS'w-2=bomber'
p1853
aS'w-2=bombing'
p1854
aS'w-2=both'
p1855
aS'w-2=brazilian'
p1856
aS'w-2=bridge'
p1857
aS'w-2=build'
p1858
aS'w-2=bus'
p1859
aS'w-2=but'
p1860
aS'w-2=by'
p1861
aS'w-2=c-130'
p1862
aS'w-2=call'
p1863
aS'w-2=camera'
p1864
aS'w-2=camp'
p1865
aS'w-2=can'
p1866
aS'w-2=capable'
p1867
aS'w-2=case'
p1868
aS'w-2=casket'
p1869
aS'w-2=center'
p1870
aS'w-2=certain'
p1871
aS'w-2=challenge'
p1872
aS'w-2=charge'
p1873
aS'w-2=child'
p1874
aS'w-2=choose'
p1875
aS'w-2=coffin'
p1876
aS'w-2=come'
p1877
aS'w-2=commitment'
p1878
aS'w-2=company'
p1879
aS'w-2=conduct'
p1880
aS'w-2=confess'
p1881
aS'w-2=conservative'
p1882
aS'w-2=continue'
p1883
aS'w-2=convoy'
p1884
aS'w-2=coordinate'
p1885
aS'w-2=cost'
p1886
aS'w-2=could'
p1887
aS'w-2=country'
p1888
aS'w-2=crime'
p1889
aS'w-2=cross'
p1890
aS'w-2=crowd'
p1891
aS'w-2=dead'
p1892
aS'w-2=defense'
p1893
aS'w-2=delegate'
p1894
aS'w-2=design'
p1895
aS'w-2=detail'
p1896
aS'w-2=determine'
p1897
aS'w-2=develop'
p1898
aS'w-2=difficult'
p1899
aS'w-2=difficulty'
p1900
aS'w-2=diplomat'
p1901
aS'w-2=disease'
p1902
aS'w-2=displaced'
p1903
aS'w-2=do'
p1904
aS'w-2=door'
p1905
aS'w-2=duck'
p1906
aS'w-2=easy'
p1907
aS'w-2=economic'
p1908
aS'w-2=effectiveness'
p1909
aS'w-2=efficiency'
p1910
aS'w-2=effort'
p1911
aS'w-2=election'
p1912
aS'w-2=embassy'
p1913
aS'w-2=encounter'
p1914
aS'w-2=enormous'
p1915
aS'w-2=enough'
p1916
aS'w-2=enthusiast'
p1917
aS'w-2=equipment'
p1918
aS'w-2=evening'
p1919
aS'w-2=every'
p1920
aS'w-2=except'
p1921
aS'w-2=excuse'
p1922
aS'w-2=execution'
p1923
aS'w-2=exempt'
p1924
aS'w-2=expect'
p1925
aS'w-2=extremist'
p1926
aS'w-2=fail'
p1927
aS'w-2=failure'
p1928
aS'w-2=faith'
p1929
aS'w-2=family'
p1930
aS'w-2=federal'
p1931
aS'w-2=fighter'
p1932
aS'w-2=finding'
p1933
aS'w-2=fishing'
p1934
aS'w-2=flood'
p1935
aS'w-2=floor'
p1936
aS'w-2=focus'
p1937
aS'w-2=folder'
p1938
aS'w-2=follow'
p1939
aS'w-2=for'
p1940
aS'w-2=force'
p1941
aS'w-2=four'
p1942
aS'w-2=freedom'
p1943
aS'w-2=generation'
p1944
aS'w-2=girl'
p1945
aS'w-2=go'
p1946
aS'w-2=government'
p1947
aS'w-2=group'
p1948
aS'w-2=gunman'
p1949
aS'w-2=hard'
p1950
aS'w-2=have'
p1951
aS'w-2=he'
p1952
aS'w-2=helicopter'
p1953
aS'w-2=help'
p1954
aS'w-2=home'
p1955
aS'w-2=honor'
p1956
aS'w-2=hope'
p1957
aS'w-2=horse'
p1958
aS'w-2=identify'
p1959
aS'w-2=ied'
p1960
aS'w-2=if'
p1961
aS'w-2=illegal'
p1962
aS'w-2=immigrant'
p1963
aS'w-2=important'
p1964
aS'w-2=in'
p1965
aS'w-2=independent'
p1966
aS'w-2=individual'
p1967
aS'w-2=infringe'
p1968
aS'w-2=injection'
p1969
aS'w-2=inquiry'
p1970
aS'w-2=inspection'
p1971
aS'w-2=institution'
p1972
aS'w-2=insurgent'
p1973
aS'w-2=intend'
p1974
aS'w-2=intent'
p1975
aS'w-2=investigation'
p1976
aS'w-2=israeli'
p1977
aS'w-2=issue'
p1978
aS'w-2=it'
p1979
aS'w-2=jet'
p1980
aS'w-2=joint'
p1981
aS'w-2=just'
p1982
aS'w-2=knot'
p1983
aS'w-2=know'
p1984
aS'w-2=land'
p1985
aS'w-2=largely'
p1986
aS'w-2=later'
p1987
aS'w-2=latest'
p1988
aS'w-2=let'
p1989
aS'w-2=limb'
p1990
aS'w-2=little'
p1991
aS'w-2=local'
p1992
aS'w-2=logistics'
p1993
aS'w-2=man'
p1994
aS'w-2=many'
p1995
aS'w-2=marine'
p1996
aS'w-2=may'
p1997
aS'w-2=measure'
p1998
aS'w-2=member'
p1999
aS'w-2=mexican'
p2000
aS'w-2=might'
p2001
aS'w-2=militant'
p2002
aS'w-2=military'
p2003
aS'w-2=million'
p2004
aS'w-2=mistake'
p2005
aS'w-2=module'
p2006
aS'w-2=money'
p2007
aS'w-2=month'
p2008
aS'w-2=monuc-supported'
p2009
aS'w-2=morning'
p2010
aS'w-2=mosquito'
p2011
aS'w-2=motorbike'
p2012
aS'w-2=motorcycle'
p2013
aS'w-2=mule'
p2014
aS'w-2=music'
p2015
aS'w-2=must'
p2016
aS'w-2=nation'
p2017
aS'w-2=need'
p2018
aS'w-2=neighbor'
p2019
aS'w-2=net'
p2020
aS'w-2=network'
p2021
aS'w-2=news'
p2022
aS'w-2=newspaper'
p2023
aS'w-2=no'
p2024
aS'w-2=not'
p2025
aS'w-2=note'
p2026
aS'w-2=now'
p2027
aS'w-2=nuclear'
p2028
aS'w-2=of'
p2029
aS'w-2=offense'
p2030
aS'w-2=official'
p2031
aS'w-2=often'
p2032
aS'w-2=on'
p2033
aS'w-2=one'
p2034
aS'w-2=only'
p2035
aS'w-2=open'
p2036
aS'w-2=operation'
p2037
aS'w-2=operative'
p2038
aS'w-2=opinion'
p2039
aS'w-2=opportunity'
p2040
aS'w-2=oppose'
p2041
aS'w-2=or'
p2042
aS'w-2=orbit'
p2043
aS'w-2=order'
p2044
aS'w-2=organization'
p2045
aS'w-2=other'
p2046
aS'w-2=out'
p2047
aS'w-2=outlet'
p2048
aS'w-2=parasite'
p2049
aS'w-2=participant'
p2050
aS'w-2=party'
p2051
aS'w-2=peace'
p2052
aS'w-2=peacekeeper'
p2053
aS'w-2=people'
p2054
aS'w-2=person'
p2055
aS'w-2=pilot-less'
p2056
aS'w-2=pipeline'
p2057
aS'w-2=plan'
p2058
aS'w-2=plane'
p2059
aS'w-2=pledge'
p2060
aS'w-2=police'
p2061
aS'w-2=policy'
p2062
aS'w-2=poll'
p2063
aS'w-2=population'
p2064
aS'w-2=porter'
p2065
aS'w-2=potential'
p2066
aS'w-2=prepare'
p2067
aS'w-2=pride'
p2068
aS'w-2=process'
p2069
aS'w-2=procession'
p2070
aS'w-2=promise'
p2071
aS'w-2=prosecutor'
p2072
aS'w-2=protect'
p2073
aS'w-2=protest'
p2074
aS'w-2=punch'
p2075
aS'w-2=purpose'
p2076
aS'w-2=raid'
p2077
aS'w-2=ready'
p2078
aS'w-2=rebel'
p2079
aS'w-2=recent'
p2080
aS'w-2=recruit'
p2081
aS'w-2=refugee'
p2082
aS'w-2=refuse'
p2083
aS'w-2=region'
p2084
aS'w-2=relief'
p2085
aS'w-2=require'
p2086
aS'w-2=research'
p2087
aS'w-2=researcher'
p2088
aS'w-2=resolution'
p2089
aS'w-2=response'
p2090
aS'w-2=responsibility'
p2091
aS'w-2=responsible'
p2092
aS'w-2=return'
p2093
aS'w-2=risk'
p2094
aS'w-2=roadblock'
p2095
aS'w-2=room'
p2096
aS'w-2=rower'
p2097
aS'w-2=runner'
p2098
aS'w-2=russian'
p2099
aS'w-2=same'
p2100
aS'w-2=say'
p2101
aS'w-2=score'
p2102
aS'w-2=second'
p2103
aS'w-2=sectarian'
p2104
aS'w-2=send'
p2105
aS'w-2=sentence'
p2106
aS'w-2=serious'
p2107
aS'w-2=service'
p2108
aS'w-2=set'
p2109
aS'w-2=sexual'
p2110
aS'w-2=shall'
p2111
aS'w-2=she'
p2112
aS'w-2=ship'
p2113
aS'w-2=shirt'
p2114
aS'w-2=should'
p2115
aS'w-2=shoulder'
p2116
aS'w-2=side'
p2117
aS'w-2=sing'
p2118
aS'w-2=six-car'
p2119
aS'w-2=slogan'
p2120
aS'w-2=small'
p2121
aS'w-2=smuggled'
p2122
aS'w-2=sodomy'
p2123
aS'w-2=soldier'
p2124
aS'w-2=some'
p2125
aS'w-2=space'
p2126
aS'w-2=squad'
p2127
aS'w-2=stability'
p2128
aS'w-2=staff'
p2129
aS'w-2=start'
p2130
aS'w-2=steep'
p2131
aS'w-2=still'
p2132
aS'w-2=stop'
p2133
aS'w-2=strain'
p2134
aS'w-2=student'
p2135
aS'w-2=study'
p2136
aS'w-2=suicide'
p2137
aS'w-2=surveillance'
p2138
aS'w-2=suspect'
p2139
aS'w-2=system'
p2140
aS'w-2=systematic'
p2141
aS'w-2=talibanmilitant'
p2142
aS'w-2=tanker'
p2143
aS'w-2=tannery'
p2144
aS'w-2=television'
p2145
aS'w-2=tend'
p2146
aS'w-2=terrorist'
p2147
aS'w-2=that'
p2148
aS'w-2=the'
p2149
aS'w-2=these'
p2150
aS'w-2=they'
p2151
aS'w-2=those'
p2152
aS'w-2=threaten'
p2153
aS'w-2=through'
p2154
aS'w-2=tire'
p2155
aS'w-2=tma-11'
p2156
aS'w-2=to'
p2157
aS'w-2=tradition'
p2158
aS'w-2=treatment'
p2159
aS'w-2=troops'
p2160
aS'w-2=truck'
p2161
aS'w-2=try'
p2162
aS'w-2=ukrainian'
p2163
aS'w-2=unable'
p2164
aS'w-2=unique'
p2165
aS'w-2=upon'
p2166
aS'w-2=vaccine'
p2167
aS'w-2=various'
p2168
aS'w-2=victory'
p2169
aS'w-2=volunteer'
p2170
aS'w-2=voter'
p2171
aS'w-2=vow'
p2172
aS'w-2=voyager'
p2173
aS'w-2=wail'
p2174
aS'w-2=wait'
p2175
aS'w-2=want'
p2176
aS'w-2=way'
p2177
aS'w-2=we'
p2178
aS'w-2=weapon'
p2179
aS'w-2=well'
p2180
aS'w-2=when'
p2181
aS'w-2=which'
p2182
aS'w-2=who'
p2183
aS'w-2=whom'
p2184
aS'w-2=whose'
p2185
aS'w-2=will'
p2186
aS'w-2=willing'
p2187
aS'w-2=wiretap'
p2188
aS'w-2=with'
p2189
aS'w-2=work'
p2190
aS'w-2=worker'
p2191
aS'w-2=would'
p2192
aS'w-2=wound'
p2193
aS'w-2=wreckage'
p2194
aS'w-2=yacht'
p2195
aS'w-2=year'
p2196
aS'w-2=yet'
p2197
aS'w-2=you'
p2198
aS'xcomp=arrest'
p2199
aS'xcomp=attack'
p2200
aS'xcomp=avenge'
p2201
aS'xcomp=bring'
p2202
aS'xcomp=call'
p2203
aS'xcomp=cast'
p2204
aS'xcomp=cement'
p2205
aS'xcomp=clear'
p2206
aS'xcomp=create'
p2207
aS'xcomp=cripple'
p2208
aS'xcomp=criticize'
p2209
aS'xcomp=daughter'
p2210
aS'xcomp=enhance'
p2211
aS'xcomp=ensure'
p2212
aS'xcomp=establish'
p2213
aS'xcomp=flee'
p2214
aS'xcomp=go'
p2215
aS'xcomp=guarantee'
p2216
aS'xcomp=help'
p2217
aS'xcomp=hold'
p2218
aS'xcomp=home'
p2219
aS'xcomp=integrate'
p2220
aS'xcomp=operate'
p2221
aS'xcomp=overhaul'
p2222
aS'xcomp=pick'
p2223
aS'xcomp=produce'
p2224
aS'xcomp=protect'
p2225
aS'xcomp=reach'
p2226
aS'xcomp=resolve'
p2227
aS'xcomp=result'
p2228
aS'xcomp=save'
p2229
aS'xcomp=secure'
p2230
aS'xcomp=show'
p2231
aS'xcomp=start'
p2232
aS'xcomp=study'
p2233
aS'xcomp=tell'
p2234
aS'xcomp=the'
p2235
aS'xcomp=transport'
p2236
aS'xcomp=try'
p2237
aS'xcomp=win'
p2238
aS'xcomp=work'
p2239
asS'dtype'
p2240
cnumpy
float64
p2241
sS'vocabulary_'
p2242
(dp2243
g413
I404
sg55
I46
sg659
I650
sg2184
I2175
sg1471
I1462
sg1841
I1832
sg725
I716
sg468
I459
sg1933
I1924
sg57
I48
sg767
I758
sg1436
I1427
sg739
I730
sg330
I321
sg833
I824
sg263
I254
sg755
I746
sg571
I562
sg1445
I1436
sg2122
I2113
sg2020
I2011
sg946
I937
sg2061
I2052
sg1973
I1964
sg95
I86
sg1539
I1530
sg2032
I2023
sg2018
I2009
sg1289
I1280
sg1706
I1697
sg2202
I2193
sg1231
I1222
sg2062
I2053
sg1552
I1543
sg1349
I1340
sg1479
I1470
sg1977
I1968
sg2228
I2219
sg2214
I2205
sg1554
I1545
sg1534
I1525
sg1475
I1466
sg400
I391
sg1622
I1613
sg963
I954
sg1937
I1928
sg882
I873
sg2177
I2168
sg1734
I1725
sg799
I790
sg1572
I1563
sg686
I677
sg1394
I1385
sg1074
I1065
sg662
I653
sg1755
I1746
sg279
I270
sg1308
I1299
sg606
I597
sg1072
I1063
sg2194
I2185
sg1306
I1297
sg809
I800
sg1599
I1590
sg73
I64
sg781
I772
sg663
I654
sg2183
I2174
sg968
I959
sg1540
I1531
sg2134
I2125
sg1043
I1034
sg1964
I1955
sg917
I908
sg1045
I1036
sg1698
I1689
sg1883
I1874
sg954
I945
sg137
I128
sg1228
I1219
sg1154
I1145
sg1962
I1953
sg2223
I2214
sg2035
I2026
sg525
I516
sg1579
I1570
sg691
I682
sg543
I534
sg851
I842
sg1618
I1609
sg1314
I1305
sg985
I976
sg302
I293
sg2200
I2191
sg1585
I1576
sg1209
I1200
sg317
I308
sg18
I9
sg331
I322
sg2148
I2139
sg1087
I1078
sg1677
I1668
sg1431
I1422
sg1553
I1544
sg1162
I1153
sg574
I565
sg2109
I2100
sg370
I361
sg1243
I1234
sg1275
I1266
sg1791
I1782
sg1012
I1003
sg1694
I1685
sg255
I246
sg345
I336
sg1116
I1107
sg913
I904
sg2043
I2034
sg578
I569
sg27
I18
sg1515
I1506
sg2044
I2035
sg577
I568
sg130
I121
sg245
I236
sg211
I202
sg1576
I1567
sg701
I692
sg1693
I1684
sg758
I749
sg186
I177
sg2233
I2224
sg62
I53
sg751
I742
sg1188
I1179
sg1172
I1163
sg411
I402
sg832
I823
sg683
I674
sg1425
I1416
sg151
I142
sg2159
I2150
sg158
I149
sg1919
I1910
sg1257
I1248
sg635
I626
sg1903
I1894
sg190
I181
sg220
I211
sg1259
I1250
sg2105
I2096
sg1398
I1389
sg1747
I1738
sg94
I85
sg2220
I2211
sg1419
I1410
sg2057
I2048
sg2021
I2012
sg1491
I1482
sg1400
I1391
sg1211
I1202
sg1630
I1621
sg870
I861
sg1798
I1789
sg419
I410
sg761
I752
sg1130
I1121
sg404
I395
sg443
I434
sg687
I678
sg1317
I1308
sg1795
I1786
sg1104
I1095
sg421
I412
sg730
I721
sg1133
I1124
sg1715
I1706
sg2097
I2088
sg377
I368
sg247
I238
sg1904
I1895
sg361
I352
sg1330
I1321
sg839
I830
sg733
I724
sg1119
I1110
sg418
I409
sg633
I624
sg1635
I1626
sg161
I152
sg1535
I1526
sg2226
I2217
sg999
I990
sg1170
I1161
sg2207
I2198
sg1470
I1461
sg646
I637
sg811
I802
sg181
I172
sg670
I661
sg1597
I1588
sg1201
I1192
sg1084
I1075
sg1093
I1084
sg1969
I1960
sg1195
I1186
sg1281
I1272
sg2210
I2201
sg131
I122
sg368
I359
sg1385
I1376
sg212
I203
sg428
I419
sg1118
I1109
sg836
I827
sg1657
I1648
sg1629
I1620
sg1031
I1022
sg1544
I1535
sg1601
I1592
sg430
I421
sg2103
I2094
sg1878
I1869
sg1325
I1316
sg1838
I1829
sg830
I821
sg500
I491
sg132
I123
sg1344
I1335
sg1421
I1412
sg556
I547
sg231
I222
sg1449
I1440
sg599
I590
sg741
I732
sg727
I718
sg2141
I2132
sg1700
I1691
sg537
I528
sg1519
I1510
sg1865
I1856
sg2231
I2222
sg1758
I1749
sg1769
I1760
sg1423
I1414
sg16
I7
sg2152
I2143
sg326
I317
sg298
I289
sg391
I382
sg1985
I1976
sg685
I676
sg1013
I1004
sg1114
I1105
sg224
I215
sg1770
I1761
sg971
I962
sg215
I206
sg1875
I1866
sg423
I414
sg1098
I1089
sg1171
I1162
sg1825
I1816
sg154
I145
sg2098
I2089
sg381
I372
sg943
I934
sg766
I757
sg2077
I2068
sg1102
I1093
sg656
I647
sg1840
I1831
sg703
I694
sg58
I49
sg2219
I2210
sg1909
I1900
sg789
I780
sg540
I531
sg1888
I1879
sg1682
I1673
sg87
I78
sg1377
I1368
sg1113
I1104
sg1674
I1665
sg672
I663
sg613
I604
sg2147
I2138
sg912
I903
sg1520
I1511
sg2192
I2183
sg923
I914
sg1416
I1407
sg1586
I1577
sg563
I554
sg466
I457
sg1456
I1447
sg690
I681
sg1223
I1214
sg688
I679
sg1662
I1653
sg35
I26
sg640
I631
sg1128
I1119
sg2004
I1995
sg1707
I1698
sg1925
I1916
sg591
I582
sg2093
I2084
sg240
I231
sg410
I401
sg2189
I2180
sg1341
I1332
sg1828
I1819
sg764
I755
sg952
I943
sg313
I304
sg155
I146
sg871
I862
sg371
I362
sg115
I106
sg1339
I1330
sg712
I703
sg2160
I2151
sg813
I804
sg1277
I1268
sg1716
I1707
sg1961
I1952
sg675
I666
sg1441
I1432
sg989
I980
sg1965
I1956
sg1979
I1970
sg2119
I2110
sg486
I477
sg1294
I1285
sg787
I778
sg1451
I1442
sg379
I370
sg1061
I1052
sg9
I0
sg1901
I1892
sg1322
I1313
sg50
I41
sg1884
I1875
sg1902
I1893
sg582
I573
sg1609
I1600
sg2127
I2118
sg1310
I1301
sg759
I750
sg1801
I1792
sg1555
I1546
sg1863
I1854
sg1681
I1672
sg552
I543
sg1951
I1942
sg274
I265
sg275
I266
sg603
I594
sg1768
I1759
sg1970
I1961
sg951
I942
sg1015
I1006
sg1628
I1619
sg660
I651
sg2099
I2090
sg824
I815
sg1666
I1657
sg1060
I1051
sg2125
I2116
sg364
I355
sg1002
I993
sg1989
I1980
sg1006
I997
sg1014
I1005
sg523
I514
sg594
I585
sg1594
I1585
sg1966
I1957
sg1328
I1319
sg402
I393
sg822
I813
sg22
I13
sg1379
I1370
sg2022
I2013
sg1831
I1822
sg133
I124
sg246
I237
sg271
I262
sg432
I423
sg1050
I1041
sg1558
I1549
sg924
I915
sg1509
I1500
sg1488
I1479
sg1548
I1539
sg2218
I2209
sg1333
I1324
sg188
I179
sg17
I8
sg457
I448
sg48
I39
sg1207
I1198
sg757
I748
sg740
I731
sg2069
I2060
sg819
I810
sg376
I367
sg1608
I1599
sg1274
I1265
sg2163
I2154
sg581
I572
sg2039
I2030
sg1366
I1357
sg1508
I1499
sg1285
I1276
sg816
I807
sg1778
I1769
sg157
I148
sg1811
I1802
sg1967
I1958
sg1467
I1458
sg1956
I1947
sg605
I596
sg1283
I1274
sg1537
I1528
sg570
I561
sg2060
I2051
sg644
I635
sg487
I478
sg2081
I2072
sg957
I948
sg2037
I2028
sg217
I208
sg1823
I1814
sg227
I218
sg128
I119
sg1165
I1156
sg1392
I1383
sg1598
I1589
sg1365
I1356
sg2157
I2148
sg462
I453
sg1692
I1683
sg1829
I1820
sg1907
I1898
sg1129
I1120
sg1647
I1638
sg911
I902
sg2034
I2025
sg2191
I2182
sg221
I212
sg1952
I1943
sg329
I320
sg874
I865
sg972
I963
sg29
I20
sg1099
I1090
sg2230
I2221
sg332
I323
sg1499
I1490
sg1078
I1069
sg1546
I1537
sg1111
I1102
sg1573
I1564
sg1070
I1061
sg1126
I1117
sg1593
I1584
sg2013
I2004
sg2026
I2017
sg2212
I2203
sg1921
I1912
sg86
I77
sg2046
I2037
sg107
I98
sg1018
I1009
sg1669
I1660
sg1282
I1273
sg1712
I1703
sg285
I276
sg2080
I2071
sg348
I339
sg1713
I1704
sg319
I310
sg1751
I1742
sg2217
I2208
sg1721
I1712
sg676
I667
sg333
I324
sg1775
I1766
sg297
I288
sg694
I685
sg1408
I1399
sg898
I889
sg974
I965
sg560
I551
sg2128
I2119
sg280
I271
sg291
I282
sg1478
I1469
sg233
I224
sg1978
I1969
sg831
I822
sg847
I838
sg343
I334
sg1177
I1168
sg1929
I1920
sg1946
I1937
sg609
I600
sg848
I839
sg218
I209
sg2168
I2159
sg1493
I1484
sg116
I107
sg748
I739
sg2082
I2073
sg1132
I1123
sg658
I649
sg1334
I1325
sg2089
I2080
sg1302
I1293
sg1543
I1534
sg1364
I1355
sg502
I493
sg2198
I2189
sg2115
I2106
sg123
I114
sg2131
I2122
sg150
I141
sg140
I131
sg2075
I2066
sg709
I700
sg1645
I1636
sg1432
I1423
sg1047
I1038
sg580
I571
sg1866
I1857
sg156
I147
sg1744
I1735
sg674
I665
sg592
I583
sg455
I446
sg1323
I1314
sg930
I921
sg814
I805
sg325
I316
sg1931
I1922
sg1193
I1184
sg1405
I1396
sg558
I549
sg294
I285
sg378
I369
sg490
I481
sg90
I81
sg498
I489
sg617
I608
sg182
I173
sg439
I430
sg955
I946
sg403
I394
sg273
I264
sg2178
I2169
sg1048
I1039
sg1142
I1133
sg1476
I1467
sg389
I380
sg932
I923
sg1169
I1160
sg728
I719
sg645
I636
sg827
I818
sg1497
I1488
sg641
I632
sg885
I876
sg1086
I1077
sg1254
I1245
sg2173
I2164
sg541
I532
sg2002
I1993
sg1689
I1680
sg179
I170
sg1234
I1225
sg352
I343
sg965
I956
sg1723
I1714
sg735
I726
sg382
I373
sg1779
I1770
sg1373
I1364
sg67
I58
sg114
I105
sg915
I906
sg1465
I1456
sg293
I284
sg616
I607
sg818
I809
sg2076
I2067
sg604
I595
sg1886
I1877
sg2149
I2140
sg248
I239
sg1412
I1403
sg1446
I1437
sg1003
I994
sg695
I686
sg20
I11
sg763
I754
sg773
I764
sg1914
I1905
sg704
I695
sg194
I185
sg673
I664
sg942
I933
sg1995
I1986
sg1261
I1252
sg1435
I1426
sg281
I272
sg1908
I1899
sg1611
I1602
sg2000
I1991
sg837
I828
sg512
I503
sg30
I21
sg1305
I1296
sg547
I538
sg43
I34
sg1957
I1948
sg677
I668
sg184
I175
sg1220
I1211
sg1545
I1536
sg101
I92
sg937
I928
sg1009
I1000
sg1774
I1765
sg1765
I1756
sg296
I287
sg52
I43
sg1607
I1598
sg995
I986
sg1390
I1381
sg631
I622
sg187
I178
sg11
I2
sg1664
I1655
sg715
I706
sg1633
I1624
sg78
I69
sg1406
I1397
sg1221
I1212
sg1042
I1033
sg554
I545
sg1301
I1292
sg1640
I1631
sg2213
I2204
sg953
I944
sg2048
I2039
sg1023
I1014
sg550
I541
sg986
I977
sg950
I941
sg195
I186
sg441
I432
sg452
I443
sg1583
I1574
sg1242
I1233
sg473
I464
sg68
I59
sg879
I870
sg489
I480
sg388
I379
sg1591
I1582
sg2171
I2162
sg272
I263
sg607
I598
sg314
I305
sg1703
I1694
sg480
I471
sg2144
I2135
sg477
I468
sg1029
I1020
sg555
I546
sg528
I519
sg308
I299
sg1266
I1257
sg174
I165
sg283
I274
sg2164
I2155
sg458
I449
sg483
I474
sg1487
I1478
sg355
I346
sg1742
I1733
sg1960
I1951
sg1571
I1562
sg1920
I1911
sg1357
I1348
sg573
I564
sg335
I326
sg258
I249
sg1160
I1151
sg628
I619
sg1958
I1949
sg1158
I1149
sg1702
I1693
sg615
I606
sg1824
I1815
sg1041
I1032
sg983
I974
sg1745
I1736
sg1463
I1454
sg1590
I1581
sg289
I280
sg1350
I1341
sg1485
I1476
sg1199
I1190
sg467
I458
sg1459
I1450
sg546
I537
sg265
I256
sg2030
I2021
sg318
I309
sg1404
I1395
sg765
I756
sg485
I476
sg2138
I2129
sg1550
I1541
sg2068
I2059
sg806
I797
sg692
I683
sg1287
I1278
sg2107
I2098
sg745
I736
sg1298
I1289
sg2079
I2070
sg872
I863
sg2118
I2109
sg453
I444
sg193
I184
sg1267
I1258
sg1760
I1751
sg1910
I1901
sg826
I817
sg1299
I1290
sg1793
I1784
sg1368
I1359
sg408
I399
sg958
I949
sg252
I243
sg1727
I1718
sg1815
I1806
sg119
I110
sg1292
I1283
sg918
I909
sg479
I470
sg1240
I1231
sg919
I910
sg721
I712
sg1367
I1358
sg1620
I1611
sg51
I42
sg2112
I2103
sg784
I775
sg503
I494
sg1021
I1012
sg1460
I1451
sg1500
I1491
sg650
I641
sg2086
I2077
sg1447
I1438
sg649
I640
sg1511
I1502
sg1844
I1835
sg307
I298
sg619
I610
sg1144
I1135
sg548
I539
sg1069
I1060
sg1340
I1331
sg1439
I1430
sg1343
I1334
sg1826
I1817
sg1413
I1404
sg66
I57
sg189
I180
sg834
I825
sg1486
I1477
sg669
I660
sg717
I708
sg1105
I1096
sg941
I932
sg56
I47
sg638
I629
sg1864
I1855
sg1892
I1883
sg488
I479
sg406
I397
sg723
I714
sg1208
I1199
sg713
I704
sg427
I418
sg1873
I1864
sg722
I713
sg1217
I1208
sg1827
I1818
sg354
I345
sg887
I878
sg1834
I1825
sg1466
I1457
sg1819
I1810
sg1094
I1085
sg796
I787
sg1757
I1748
sg1265
I1256
sg1290
I1281
sg935
I926
sg1100
I1091
sg282
I273
sg166
I157
sg1854
I1845
sg373
I364
sg26
I17
sg508
I499
sg60
I51
sg1224
I1215
sg1442
I1433
sg726
I717
sg315
I306
sg551
I542
sg201
I192
sg387
I378
sg2165
I2156
sg196
I187
sg1036
I1027
sg1880
I1871
sg2158
I2149
sg1226
I1217
sg1502
I1493
sg1858
I1849
sg97
I88
sg390
I381
sg1457
I1448
sg786
I777
sg2066
I2057
sg899
I890
sg1927
I1918
sg610
I601
sg933
I924
sg1639
I1630
sg1401
I1392
sg521
I512
sg632
I623
sg118
I109
sg961
I952
sg499
I490
sg2015
I2006
sg1264
I1255
sg91
I82
sg1052
I1043
sg1422
I1413
sg303
I294
sg393
I384
sg967
I958
sg1786
I1777
sg680
I671
sg1410
I1401
sg803
I794
sg311
I302
sg1332
I1323
sg125
I116
sg1295
I1286
sg838
I829
sg812
I803
sg771
I762
sg1589
I1580
sg1851
I1842
sg520
I511
sg445
I436
sg1068
I1059
sg1186
I1177
sg1313
I1304
sg320
I311
sg2058
I2049
sg1613
I1604
sg1218
I1209
sg1137
I1128
sg1762
I1753
sg2014
I2005
sg1272
I1263
sg397
I388
sg1667
I1658
sg855
I846
sg142
I133
sg2108
I2099
sg702
I693
sg642
I633
sg880
I871
sg1389
I1380
sg1877
I1868
sg202
I193
sg1926
I1917
sg1542
I1533
sg636
I627
sg622
I613
sg160
I151
sg595
I586
sg1563
I1554
sg435
I426
sg1661
I1652
sg2237
I2228
sg33
I24
sg910
I901
sg909
I900
sg53
I44
sg1894
I1885
sg407
I398
sg620
I611
sg697
I688
sg1248
I1239
sg1813
I1804
sg865
I856
sg126
I117
sg369
I360
sg2120
I2111
sg1181
I1172
sg1433
I1424
sg2052
I2043
sg531
I522
sg1726
I1717
sg37
I28
sg222
I213
sg113
I104
sg1321
I1312
sg1733
I1724
sg1615
I1606
sg1687
I1678
sg1153
I1144
sg800
I791
sg2206
I2197
sg664
I655
sg1081
I1072
sg1782
I1773
sg1577
I1568
sg257
I248
sg2070
I2061
sg497
I488
sg1737
I1728
sg309
I300
sg1000
I991
sg1189
I1180
sg608
I599
sg2019
I2010
sg2236
I2227
sg1342
I1333
sg1627
I1618
sg698
I689
sg734
I725
sg336
I327
sg774
I765
sg845
I836
sg237
I228
sg2174
I2165
sg2175
I2166
sg210
I201
sg1395
I1386
sg1151
I1142
sg1564
I1555
sg12
I3
sg1407
I1398
sg1386
I1377
sg770
I761
sg1280
I1271
sg549
I540
sg1766
I1757
sg854
I845
sg661
I652
sg1474
I1465
sg310
I301
sg684
I675
sg1887
I1878
sg1517
I1508
sg1767
I1758
sg1103
I1094
sg1701
I1692
sg790
I781
sg1679
I1670
sg2162
I2153
sg1889
I1880
sg284
I275
sg1943
I1934
sg1053
I1044
sg1514
I1505
sg612
I603
sg1764
I1755
sg2199
I2190
sg82
I73
sg572
I563
sg1139
I1130
sg1115
I1106
sg738
I729
sg395
I386
sg2215
I2206
sg1638
I1629
sg657
I648
sg511
I502
sg1740
I1731
sg1741
I1732
sg1743
I1734
sg535
I526
sg450
I441
sg104
I95
sg1315
I1306
sg665
I656
sg1247
I1238
sg1942
I1933
sg1771
I1762
sg564
I555
sg1789
I1780
sg1025
I1016
sg978
I969
sg1939
I1930
sg1331
I1322
sg492
I483
sg1717
I1708
sg1127
I1118
sg1083
I1074
sg1079
I1070
sg2117
I2108
sg147
I138
sg1812
I1803
sg792
I783
sg992
I983
sg1518
I1509
sg1244
I1235
sg2053
I2044
sg266
I257
sg1381
I1372
sg964
I955
sg1900
I1891
sg249
I240
sg1612
I1603
sg1075
I1066
sg1999
I1990
sg1805
I1796
sg700
I691
sg1311
I1302
sg716
I707
sg346
I337
sg1418
I1409
sg1752
I1743
sg328
I319
sg1213
I1204
sg565
I556
sg977
I968
sg1787
I1778
sg750
I741
sg1403
I1394
sg753
I744
sg597
I588
sg1898
I1889
sg301
I292
sg505
I496
sg1780
I1771
sg191
I182
sg1022
I1013
sg394
I385
sg353
I344
sg863
I854
sg491
I482
sg1448
I1439
sg891
I882
sg1922
I1913
sg859
I850
sg451
I442
sg566
I557
sg1896
I1887
sg881
I872
sg907
I898
sg906
I897
sg908
I899
sg1293
I1284
sg341
I332
sg926
I917
sg1803
I1794
sg425
I416
sg2102
I2093
sg844
I835
sg936
I927
sg1473
I1464
sg846
I837
sg83
I74
sg1846
I1837
sg1710
I1701
sg1482
I1473
sg392
I383
sg681
I672
sg420
I411
sg744
I735
sg513
I504
sg460
I451
sg731
I722
sg1976
I1967
sg1817
I1808
sg2054
I2045
sg810
I801
sg527
I518
sg69
I60
sg478
I469
sg229
I220
sg585
I576
sg1438
I1429
sg1595
I1586
sg1695
I1686
sg1799
I1790
sg1270
I1261
sg2104
I2095
sg821
I812
sg2036
I2027
sg737
I728
sg1312
I1303
sg1750
I1741
sg386
I377
sg1736
I1727
sg1219
I1210
sg2031
I2022
sg2170
I2161
sg1619
I1610
sg1107
I1098
sg1975
I1966
sg1708
I1699
sg1088
I1079
sg1044
I1035
sg1095
I1086
sg1974
I1965
sg947
I938
sg1636
I1627
sg253
I244
sg600
I591
sg1058
I1049
sg1141
I1132
sg980
I971
sg1719
I1710
sg1930
I1921
sg456
I447
sg769
I760
sg106
I97
sg1284
I1275
sg1804
I1795
sg360
I351
sg1624
I1615
sg1792
I1783
sg783
I774
sg901
I892
sg1462
I1453
sg54
I45
sg268
I259
sg1337
I1328
sg1955
I1946
sg1260
I1251
sg998
I989
sg2095
I2086
sg544
I535
sg1184
I1175
sg1492
I1483
sg1450
I1441
sg148
I139
sg1393
I1384
sg337
I328
sg1678
I1669
sg900
I891
sg2197
I2188
sg214
I205
sg1849
I1840
sg1085
I1076
sg1498
I1489
sg1862
I1853
sg1718
I1709
sg244
I235
sg984
I975
sg888
I879
sg929
I920
sg1696
I1687
sg1028
I1019
sg1940
I1931
sg1089
I1080
sg614
I605
sg2133
I2124
sg1090
I1081
sg976
I967
sg864
I855
sg340
I331
sg1233
I1224
sg1869
I1860
sg1690
I1681
sg902
I893
sg1522
I1513
sg98
I89
sg567
I558
sg850
I841
sg1523
I1514
sg134
I125
sg464
I455
sg204
I195
sg2136
I2127
sg1806
I1797
sg2222
I2213
sg254
I245
sg506
I497
sg1748
I1739
sg1915
I1906
sg1148
I1139
sg1046
I1037
sg596
I587
sg621
I612
sg1626
I1617
sg1947
I1938
sg1375
I1366
sg2040
I2031
sg1848
I1839
sg42
I33
sg2224
I2215
sg1968
I1959
sg1621
I1612
sg1091
I1082
sg1096
I1087
sg890
I881
sg1711
I1702
sg587
I578
sg1867
I1858
sg19
I10
sg509
I500
sg588
I579
sg2124
I2115
sg2190
I2181
sg32
I23
sg1237
I1228
sg449
I440
sg1191
I1182
sg1800
I1791
sg2188
I2179
sg239
I230
sg679
I670
sg991
I982
sg1327
I1318
sg1847
I1838
sg414
I405
sg1192
I1183
sg2154
I2145
sg579
I570
sg828
I819
sg2006
I1997
sg2042
I2033
sg849
I840
sg775
I766
sg762
I753
sg2029
I2020
sg1117
I1108
sg2033
I2024
sg1232
I1223
sg1705
I1696
sg1842
I1833
sg718
I709
sg647
I638
sg858
I849
sg648
I639
sg2067
I2058
sg1051
I1042
sg1225
I1216
sg1204
I1195
sg1150
I1141
sg269
I260
sg1814
I1805
sg2090
I2081
sg1320
I1311
sg1839
I1830
sg2073
I2064
sg1007
I998
sg1832
I1823
sg949
I940
sg1521
I1512
sg1570
I1561
sg517
I508
sg1835
I1826
sg2129
I2120
sg1820
I1811
sg586
I577
sg1699
I1690
sg1569
I1560
sg177
I168
sg1574
I1565
sg1680
I1671
sg1215
I1206
sg1890
I1881
sg1527
I1518
sg1959
I1950
sg1483
I1474
sg817
I808
sg1197
I1188
sg306
I297
sg1480
I1471
sg1714
I1705
sg529
I520
sg93
I84
sg1109
I1100
sg1725
I1716
sg623
I614
sg1688
I1679
sg1106
I1097
sg1560
I1551
sg1307
I1298
sg1238
I1229
sg1358
I1349
sg2130
I2121
sg1557
I1548
sg539
I530
sg808
I799
sg1533
I1524
sg1538
I1529
sg493
I484
sg2106
I2097
sg65
I56
sg25
I16
sg654
I645
sg706
I697
sg205
I196
sg111
I102
sg892
I883
sg956
I947
sg235
I226
sg1146
I1137
sg1631
I1622
sg1164
I1155
sg338
I329
sg1649
I1640
sg1876
I1867
sg339
I330
sg438
I429
sg88
I79
sg1338
I1329
sg966
I957
sg2016
I2007
sg1065
I1056
sg1990
I1981
sg714
I705
sg472
I463
sg422
I413
sg593
I584
sg693
I684
sg2028
I2019
sg1578
I1569
sg85
I76
sg200
I191
sg31
I22
sg278
I269
sg2111
I2102
sg575
I566
sg1992
I1983
sg982
I973
sg2239
I2230
sg129
I120
sg778
I769
sg742
I733
sg795
I786
sg471
I462
sg165
I156
sg1790
I1781
sg938
I929
sg1625
I1616
sg1738
I1729
sg384
I375
sg916
I907
sg990
I981
sg1547
I1538
sg1830
I1821
sg1856
I1847
sg1179
I1170
sg557
I548
sg299
I290
sg1426
I1417
sg1437
I1428
sg475
I466
sg948
I939
sg1185
I1176
sg1605
I1596
sg1584
I1575
sg2110
I2101
sg39
I30
sg2096
I2087
sg1739
I1730
sg1484
I1475
sg1559
I1550
sg1588
I1579
sg1235
I1226
sg815
I806
sg2024
I2015
sg1383
I1374
sg501
I492
sg1852
I1843
sg1348
I1339
sg2116
I2107
sg1781
I1772
sg1163
I1154
sg1428
I1419
sg921
I912
sg711
I702
sg270
I261
sg1581
I1572
sg2211
I2202
sg1166
I1157
sg1180
I1171
sg197
I188
sg2182
I2173
sg1654
I1645
sg446
I437
sg746
I737
sg878
I869
sg696
I687
sg1205
I1196
sg350
I341
sg169
I160
sg213
I204
sg351
I342
sg1753
I1744
sg1663
I1654
sg2225
I2216
sg981
I972
sg412
I403
sg109
I100
sg261
I252
sg13
I4
sg1984
I1975
sg804
I795
sg1777
I1768
sg655
I646
sg375
I366
sg1026
I1017
sg40
I31
sg164
I155
sg538
I529
sg292
I283
sg1913
I1904
sg1704
I1695
sg2201
I2192
sg1991
I1982
sg2038
I2029
sg1683
I1674
sg545
I536
sg1646
I1637
sg969
I960
sg437
I428
sg653
I644
sg1216
I1207
sg618
I609
sg1024
I1015
sg1402
I1393
sg1697
I1688
sg176
I167
sg1536
I1527
sg288
I279
sg1632
I1623
sg1582
I1573
sg1541
I1532
sg2135
I2126
sg1950
I1941
sg163
I154
sg627
I618
sg973
I964
sg385
I376
sg434
I425
sg366
I357
sg74
I65
sg1112
I1103
sg925
I916
sg1145
I1136
sg1268
I1259
sg1212
I1203
sg1001
I992
sg112
I103
sg1871
I1862
sg454
I445
sg960
I951
sg121
I112
sg208
I199
sg1203
I1194
sg1149
I1140
sg927
I918
sg192
I183
sg1906
I1897
sg905
I896
sg1759
I1750
sg1963
I1954
sg749
I740
sg398
I389
sg2143
I2134
sg2161
I2152
sg569
I560
sg2071
I2062
sg1010
I1001
sg2012
I2003
sg372
I363
sg323
I314
sg1761
I1752
sg1227
I1218
sg707
I698
sg2050
I2041
sg1528
I1519
sg1918
I1909
sg153
I144
sg2051
I2042
sg102
I93
sg867
I858
sg1794
I1785
sg1949
I1940
sg225
I216
sg238
I229
sg1017
I1008
sg2150
I2141
sg2055
I2046
sg226
I217
sg367
I358
sg2113
I2104
sg1881
I1872
sg424
I415
sg841
I832
sg463
I454
sg868
I859
sg869
I860
sg1443
I1434
sg1391
I1382
sg922
I913
sg1879
I1870
sg736
I727
sg216
I207
sg401
I392
sg1617
I1608
sg1351
I1342
sg2009
I2000
sg629
I620
sg1253
I1244
sg1928
I1919
sg776
I767
sg139
I130
sg1411
I1402
sg440
I431
sg1452
I1443
sg1198
I1189
sg484
I475
sg1660
I1651
sg159
I150
sg2140
I2131
sg36
I27
sg510
I501
sg1653
I1644
sg724
I715
sg170
I161
sg1656
I1647
sg873
I864
sg1255
I1246
sg45
I36
sg465
I456
sg889
I880
sg2011
I2002
sg1916
I1907
sg1135
I1126
sg1641
I1632
sg267
I258
sg75
I66
sg1670
I1661
sg230
I221
sg1309
I1300
sg2186
I2177
sg124
I115
sg1278
I1269
sg1833
I1824
sg316
I307
sg534
I525
sg415
I406
sg2025
I2016
sg2027
I2018
sg374
I365
sg1110
I1101
sg1837
I1828
sg1994
I1985
sg1369
I1360
sg743
I734
sg625
I616
sg1318
I1309
sg1997
I1988
sg256
I247
sg171
I162
sg2047
I2038
sg1529
I1520
sg1034
I1025
sg2059
I2050
sg1643
I1634
sg1239
I1230
sg1756
I1747
sg1251
I1242
sg64
I55
sg1250
I1241
sg416
I407
sg300
I291
sg2146
I2137
sg149
I140
sg1027
I1018
sg1722
I1713
sg1671
I1662
sg1932
I1923
sg1297
I1288
sg666
I657
sg1496
I1487
sg516
I507
sg1676
I1667
sg530
I521
sg1501
I1492
sg474
I465
sg1020
I1011
sg1675
I1666
sg2074
I2065
sg2056
I2047
sg802
I793
sg1300
I1291
sg996
I987
sg643
I634
sg1245
I1236
sg1495
I1486
sg1489
I1480
sg1202
I1193
sg99
I90
sg207
I198
sg108
I99
sg286
I277
sg1998
I1989
sg1252
I1243
sg1658
I1649
sg752
I743
sg526
I517
sg461
I452
sg1600
I1591
sg2084
I2075
sg1262
I1253
sg1347
I1338
sg347
I338
sg1905
I1896
sg1802
I1793
sg860
I851
sg1097
I1088
sg1414
I1405
sg1444
I1435
sg1054
I1045
sg1303
I1294
sg1923
I1914
sg136
I127
sg1652
I1643
sg1651
I1642
sg1187
I1178
sg494
I485
sg49
I40
sg1899
I1890
sg2209
I2200
sg138
I129
sg1941
I1932
sg100
I91
sg1057
I1048
sg2005
I1996
sg1993
I1984
sg365
I356
sg295
I286
sg1019
I1010
sg856
I847
sg1273
I1264
sg356
I347
sg1361
I1352
sg44
I35
sg1684
I1675
sg120
I111
sg223
I214
sg2087
I2078
sg975
I966
sg234
I225
sg777
I768
sg1354
I1345
sg1507
I1498
sg92
I83
sg1912
I1903
sg2139
I2130
sg876
I867
sg2203
I2194
sg1642
I1633
sg1982
I1973
sg1388
I1379
sg61
I52
sg28
I19
sg162
I153
sg1850
I1841
sg2151
I2142
sg875
I866
sg24
I15
sg1504
I1495
sg857
I848
sg1944
I1935
sg1686
I1677
sg250
I241
sg1256
I1247
sg2083
I2074
sg682
I673
sg2114
I2105
sg1040
I1031
sg1788
I1779
sg1159
I1150
sg2172
I2163
sg897
I888
sg79
I70
sg1319
I1310
sg1853
I1844
sg334
I325
sg1420
I1411
sg1568
I1559
sg1556
I1547
sg504
I495
sg1430
I1421
sg1370
I1361
sg533
I524
sg1288
I1279
sg842
I833
sg470
I461
sg1796
I1787
sg1206
I1197
sg1161
I1152
sg768
I759
sg327
I318
sg2094
I2085
sg514
I505
sg1510
I1501
sg1384
I1375
sg1720
I1711
sg584
I575
sg519
I510
sg242
I233
sg122
I113
sg23
I14
sg183
I174
sg2155
I2146
sg429
I420
sg1080
I1071
sg1490
I1481
sg630
I621
sg518
I509
sg1175
I1166
sg835
I826
sg77
I68
sg1731
I1722
sg172
I163
sg1039
I1030
sg173
I164
sg1516
I1507
sg1776
I1767
sg1818
I1809
sg1603
I1594
sg1004
I995
sg1911
I1902
sg959
I950
sg1210
I1201
sg1336
I1327
sg305
I296
sg1194
I1185
sg1152
I1143
sg1948
I1939
sg779
I770
sg760
I751
sg10
I1
sg1190
I1181
sg110
I101
sg805
I796
sg1746
I1737
sg362
I353
sg1005
I996
sg945
I936
sg1258
I1249
sg2063
I2054
sg1807
I1798
sg1809
I1800
sg1604
I1595
sg2088
I2079
sg553
I544
sg2137
I2128
sg47
I38
sg820
I811
sg322
I313
sg1355
I1346
sg1512
I1503
sg896
I887
sg522
I513
sg481
I472
sg895
I886
sg1008
I999
sg1454
I1445
sg988
I979
sg1525
I1516
sg1229
I1220
sg840
I831
sg1531
I1522
sg2180
I2171
sg495
I486
sg14
I5
sg1200
I1191
sg1934
I1925
sg1378
I1369
sg2166
I2157
sg624
I615
sg146
I137
sg562
I553
sg1066
I1057
sg1971
I1962
sg152
I143
sg1822
I1813
sg1140
I1131
sg21
I12
sg1735
I1726
sg785
I776
sg287
I278
sg1427
I1418
sg1241
I1232
sg1434
I1425
sg1749
I1740
sg1345
I1336
sg1763
I1754
sg2153
I2144
sg611
I602
sg396
I387
sg127
I118
sg2041
I2032
sg2216
I2207
sg1073
I1064
sg639
I630
sg1035
I1026
sg893
I884
sg1580
I1571
sg1650
I1641
sg2003
I1994
sg1562
I1553
sg1729
I1720
sg431
I422
sg2023
I2014
sg1872
I1863
sg2204
I2195
sg1987
I1978
sg903
I894
sg883
I874
sg1458
I1449
sg2121
I2112
sg1101
I1092
sg1136
I1127
sg363
I354
sg2078
I2069
sg862
I853
sg1754
I1745
sg241
I232
sg678
I669
sg1011
I1002
sg344
I335
sg601
I592
sg1182
I1173
sg41
I32
sg1387
I1378
sg1134
I1125
sg1178
I1169
sg409
I400
sg1808
I1799
sg1783
I1774
sg1616
I1607
sg2065
I2056
sg2169
I2160
sg199
I190
sg1981
I1972
sg920
I911
sg1346
I1337
sg1996
I1987
sg70
I61
sg1230
I1221
sg38
I29
sg1304
I1295
sg1249
I1240
sg447
I438
sg1785
I1776
sg1461
I1452
sg349
I340
sg1672
I1663
sg1380
I1371
sg2205
I2196
sg1353
I1344
sg1494
I1485
sg1269
I1260
sg167
I158
sg1030
I1021
sg732
I723
sg1464
I1455
sg1033
I1024
sg962
I953
sg1168
I1159
sg1665
I1656
sg1279
I1270
sg1064
I1055
sg433
I424
sg1983
I1974
sg145
I136
sg1167
I1158
sg1396
I1387
sg1077
I1068
sg1526
I1517
sg2049
I2040
sg2008
I1999
sg1362
I1353
sg1810
I1801
sg1071
I1062
sg1891
I1882
sg1356
I1347
sg1836
I1827
sg2167
I2158
sg1685
I1676
sg459
I450
sg1359
I1350
sg1382
I1373
sg448
I439
sg866
I857
sg884
I875
sg417
I408
sg708
I699
sg59
I50
sg1732
I1723
sg747
I738
sg894
I885
sg886
I877
sg2100
I2091
sg970
I961
sg1596
I1587
sg1530
I1521
sg1376
I1367
sg1561
I1552
sg1691
I1682
sg180
I171
sg1271
I1262
sg1468
I1459
sg2132
I2123
sg76
I67
sg798
I789
sg482
I473
sg2092
I2083
sg1067
I1058
sg1469
I1460
sg2072
I2063
sg524
I515
sg1513
I1504
sg710
I701
sg1049
I1040
sg1644
I1635
sg277
I268
sg1772
I1763
sg1236
I1227
sg1980
I1971
sg2126
I2117
sg1773
I1764
sg324
I315
sg1874
I1865
sg993
I984
sg561
I552
sg1059
I1050
sg103
I94
sg243
I234
sg756
I747
sg689
I680
sg1481
I1472
sg2179
I2170
sg1986
I1977
sg2195
I2186
sg1155
I1146
sg1174
I1165
sg719
I710
sg793
I784
sg1326
I1317
sg2208
I2199
sg1037
I1028
sg1276
I1267
sg1246
I1237
sg1587
I1578
sg1374
I1365
sg2232
I2223
sg1709
I1700
sg1477
I1468
sg444
I435
sg667
I658
sg2017
I2008
sg532
I523
sg71
I62
sg1938
I1929
sg987
I978
sg2145
I2136
sg312
I303
sg754
I745
sg1592
I1583
sg1897
I1888
sg782
I773
sg1882
I1873
sg1062
I1053
sg1121
I1112
sg2045
I2036
sg1954
I1945
sg380
I371
sg1972
I1963
sg536
I527
sg15
I6
sg1816
I1807
sg203
I194
sg1614
I1605
sg979
I970
sg357
I348
sg515
I506
sg825
I816
sg426
I417
sg1352
I1343
sg476
I467
sg1724
I1715
sg1532
I1523
sg1673
I1664
sg652
I643
sg168
I159
sg1935
I1926
sg209
I200
sg1936
I1927
sg1566
I1557
sg1567
I1558
sg1122
I1113
sg1857
I1848
sg2181
I2172
sg2085
I2076
sg228
I219
sg1917
I1908
sg590
I581
sg1286
I1277
sg914
I905
sg175
I166
sg260
I251
sg84
I75
sg668
I659
sg651
I642
sg1372
I1363
sg1623
I1614
sg2091
I2082
sg1196
I1187
sg1575
I1566
sg399
I390
sg342
I333
sg46
I37
sg2007
I1998
sg1606
I1597
sg1870
I1861
sg105
I96
sg72
I63
sg1668
I1659
sg251
I242
sg720
I711
sg1524
I1515
sg2221
I2212
sg135
I126
sg1843
I1834
sg1329
I1320
sg1845
I1836
sg1214
I1205
sg1063
I1054
sg1092
I1083
sg823
I814
sg1055
I1046
sg219
I210
sg496
I487
sg1861
I1852
sg788
I779
sg1296
I1287
sg2142
I2133
sg904
I895
sg2001
I1992
sg383
I374
sg507
I498
sg2238
I2229
sg940
I931
sg232
I223
sg1131
I1122
sg1610
I1601
sg1797
I1788
sg1183
I1174
sg1335
I1326
sg1821
I1812
sg1125
I1116
sg1409
I1400
sg1397
I1388
sg1924
I1915
sg2176
I2167
sg1176
I1167
sg559
I550
sg2185
I2176
sg637
I628
sg1565
I1556
sg1016
I1007
sg1655
I1646
sg598
I589
sg576
I567
sg259
I250
sg1784
I1775
sg1038
I1029
sg791
I782
sg185
I176
sg1173
I1164
sg178
I169
sg780
I771
sg262
I253
sg1648
I1639
sg589
I580
sg141
I132
sg206
I197
sg144
I135
sg671
I662
sg1371
I1362
sg2156
I2147
sg1056
I1047
sg198
I189
sg264
I255
sg2101
I2092
sg117
I108
sg1453
I1444
sg853
I844
sg2227
I2218
sg852
I843
sg807
I798
sg236
I227
sg276
I267
sg1859
I1850
sg2234
I2225
sg1860
I1851
sg1659
I1650
sg1945
I1936
sg1506
I1497
sg2010
I2001
sg1503
I1494
sg436
I427
sg1893
I1884
sg994
I985
sg290
I281
sg877
I868
sg1360
I1351
sg1138
I1129
sg944
I935
sg797
I788
sg1868
I1859
sg1147
I1138
sg1082
I1073
sg1032
I1023
sg1440
I1431
sg2187
I2178
sg829
I820
sg794
I785
sg1363
I1354
sg1424
I1415
sg583
I574
sg1415
I1406
sg542
I533
sg1505
I1496
sg2123
I2114
sg699
I690
sg939
I930
sg861
I852
sg89
I80
sg934
I925
sg1455
I1446
sg634
I625
sg931
I922
sg2196
I2187
sg321
I312
sg1316
I1307
sg626
I617
sg1602
I1593
sg143
I134
sg405
I396
sg81
I72
sg1855
I1846
sg96
I87
sg1399
I1390
sg63
I54
sg1472
I1463
sg772
I763
sg442
I433
sg1263
I1254
sg80
I71
sg359
I350
sg1637
I1628
sg705
I696
sg1429
I1420
sg358
I349
sg469
I460
sg1549
I1540
sg1728
I1719
sg1291
I1282
sg1988
I1979
sg2229
I2220
sg1895
I1886
sg843
I834
sg2235
I2226
sg34
I25
sg2064
I2055
sg729
I720
sg1076
I1067
sg1123
I1114
sg1124
I1115
sg1953
I1944
sg2193
I2184
sg1120
I1111
sg568
I559
sg1143
I1134
sg602
I593
sg997
I988
sg304
I295
sg1730
I1721
sg1324
I1315
sg1885
I1876
sg1417
I1408
sg1108
I1099
sg1551
I1542
sg1222
I1213
sg801
I792
sg928
I919
sg1156
I1147
sg1157
I1148
sg1634
I1625
ssS'separator'
p2244
S'='
sS'sparse'
p2245
I01
sb.