ccopy_reg
_reconstructor
p1
(csklearn.feature_extraction.dict_vectorizer
DictVectorizer
p2
c__builtin__
object
p3
NtRp4
(dp5
S'vocabulary_'
p6
(dp7
S'w+2=delegate'
p8
I16
sS'w+1=King'
p9
I11
sS'w-2=world'
p10
I25
sS'advmod=severely'
p11
I1
sS'nsubj=Speaker'
p12
I7
sS'dobj=Hezbollah'
p13
I3
sS'aux=have'
p14
I2
sS'w+2=Lalibela'
p15
I14
sS'dobj=Lalibela'
p16
I4
sS'w-1=police'
p17
I20
sS'w-1=,'
p18
I18
sS'w-2=have'
p19
I23
sS'dobj=parent'
p20
I6
sS'w+2=Hezbollah'
p21
I13
sS'w-1=and'
p22
I19
sS'w+1=the'
p23
I12
sS'w+2=parent'
p24
I17
sS'w-2=coalition'
p25
I22
sS'w-1=severely'
p26
I21
sS'nsubj=police'
p27
I8
sS'w+1=Hezbollah'
p28
I10
sS'w+2=and'
p29
I15
sS'advcl=of'
p30
I0
sS'prep=for'
p31
I9
sS'w-2=the'
p32
I24
sS'dobj=delegate'
p33
I5
ssS'dtype'
p34
cnumpy
float64
p35
sS'feature_names_'
p36
(lp37
g30
ag11
ag14
ag13
ag16
ag33
ag20
ag12
ag27
ag31
ag28
ag9
ag23
ag21
ag15
ag29
ag8
ag24
ag18
ag22
ag17
ag26
ag25
ag19
ag32
ag10
asS'separator'
p38
S'='
sS'sparse'
p39
I01
sb.