ccopy_reg
_reconstructor
p1
(csklearn.feature_extraction.dict_vectorizer
DictVectorizer
p2
c__builtin__
object
p3
NtRp4
(dp5
S'sort'
p6
I01
sS'feature_names_'
p7
(lp8
S'acomp=complete'
p9
aS'acomp=consistent'
p10
aS'acomp=terror-free'
p11
aS'advcl=be'
p12
aS'advcl=have'
p13
aS'advcl=hold'
p14
aS'advcl=likely'
p15
aS'advcl=pay'
p16
aS'advcl=soar'
p17
aS'advmod=almost'
p18
aS'advmod=also'
p19
aS'advmod=at'
p20
aS'advmod=back'
p21
aS'advmod=emotionally'
p22
aS'advmod=everywhere'
p23
aS'advmod=far'
p24
aS'advmod=fast'
p25
aS'advmod=heavily'
p26
aS'advmod=here'
p27
aS'advmod=how'
p28
aS'advmod=indeed'
p29
aS'advmod=more'
p30
aS'advmod=much'
p31
aS'advmod=now'
p32
aS'advmod=only'
p33
aS'advmod=privately'
p34
aS'advmod=really'
p35
aS'advmod=still'
p36
aS'advmod=there'
p37
aS'advmod=tragically'
p38
aS'advmod=when'
p39
aS'advmod=where'
p40
aS'advmod=why'
p41
aS'aux=be'
p42
aS'aux=can'
p43
aS'aux=could'
p44
aS'aux=have'
p45
aS'aux=should'
p46
aS'aux=stay'
p47
aS'aux=to'
p48
aS'aux=will'
p49
aS'auxpass=be'
p50
aS'cc=and'
p51
aS'cc=or'
p52
aS'cc=rather'
p53
aS'ccomp=be'
p54
aS'ccomp=lead'
p55
aS'ccomp=think'
p56
aS'complm=that'
p57
aS'complm=whether'
p58
aS'conj=create'
p59
aS'conj=extend'
p60
aS'conj=facilitate'
p61
aS'conj=help'
p62
aS'conj=increase'
p63
aS'conj=involve'
p64
aS'conj=make'
p65
aS'conj=not'
p66
aS'conj=number'
p67
aS'conj=pay'
p68
aS'conj=plan'
p69
aS'conj=port'
p70
aS'conj=pursue'
p71
aS'conj=reap'
p72
aS'conj=remove'
p73
aS'conj=sponsor'
p74
aS'conj=tie'
p75
aS'conj=turn'
p76
aS'conj=want'
p77
aS'csubj=be'
p78
aS'dep=Network'
p79
aS'dep=build'
p80
aS'dep=develop'
p81
aS'dep=in'
p82
aS'dep=pediatrician'
p83
aS'dep=possible'
p84
aS'dep=reduce'
p85
aS'dep=so'
p86
aS'dep=spend'
p87
aS'dep=that'
p88
aS'dep=then'
p89
aS'dep=use'
p90
aS'dobj=#NUMBER#'
p91
aS'dobj=#PRP#'
p92
aS'dobj=$'
p93
aS'dobj=all'
p94
aS'dobj=amount'
p95
aS'dobj=capital'
p96
aS'dobj=chunk'
p97
aS'dobj=confidence'
p98
aS'dobj=dollar'
p99
aS'dobj=drop'
p100
aS'dobj=fund'
p101
aS'dobj=locallyat'
p102
aS'dobj=lot'
p103
aS'dobj=mandatory'
p104
aS'dobj=money'
p105
aS'dobj=more'
p106
aS'dobj=option'
p107
aS'dobj=percent'
p108
aS'dobj=some'
p109
aS'dobj=than'
p110
aS'dobj=time'
p111
aS'dobj=year'
p112
aS'iobj=$'
p113
aS'mark=because'
p114
aS'mark=if'
p115
aS'mark=so'
p116
aS'mark=than'
p117
aS'neg=not'
p118
aS'nsubj=#PRP#'
p119
aS'nsubj=Airtel'
p120
aS'nsubj=America'
p121
aS'nsubj=Asia'
p122
aS'nsubj=Authority'
p123
aS'nsubj=Bank'
p124
aS'nsubj=Hungary'
p125
aS'nsubj=Kolff'
p126
aS'nsubj=Spain'
p127
aS'nsubj=States'
p128
aS'nsubj=Zapatero'
p129
aS'nsubj=agency'
p130
aS'nsubj=bank'
p131
aS'nsubj=business'
p132
aS'nsubj=community'
p133
aS'nsubj=company'
p134
aS'nsubj=consumer'
p135
aS'nsubj=country'
p136
aS'nsubj=customer'
p137
aS'nsubj=employer'
p138
aS'nsubj=few'
p139
aS'nsubj=foreigner'
p140
aS'nsubj=government'
p141
aS'nsubj=group'
p142
aS'nsubj=handful'
p143
aS'nsubj=industry'
p144
aS'nsubj=member'
p145
aS'nsubj=nation'
p146
aS'nsubj=nobody'
p147
aS'nsubj=officer'
p148
aS'nsubj=power'
p149
aS'nsubj=professional'
p150
aS'nsubj=program'
p151
aS'nsubj=staff'
p152
aS'nsubj=sum'
p153
aS'nsubj=support'
p154
aS'nsubj=textile'
p155
aS'nsubj=that'
p156
aS'nsubj=which'
p157
aS'nsubj=who'
p158
aS'nsubjpass=Iran'
p159
aS'nsubjpass=lot'
p160
aS'nsubjpass=money'
p161
aS'nsubjpass=some'
p162
aS'nsubjpass=that'
p163
aS'prep=as'
p164
aS'prep=at'
p165
aS'prep=base'
p166
aS'prep=by'
p167
aS'prep=for'
p168
aS'prep=in'
p169
aS'prep=into'
p170
aS'prep=on'
p171
aS'prep=over'
p172
aS'prep=than'
p173
aS'prep=through'
p174
aS'prep=throughout'
p175
aS'prep=to'
p176
aS'prep=with'
p177
aS'prt=up'
p178
aS'purpcl=ensure'
p179
aS'rel=in'
p180
aS'tmod=month'
p181
aS'tmod=today'
p182
aS'tmod=year'
p183
aS'w+1=$'
p184
aS'w+1=,'
p185
aS'w+1=.'
p186
aS'w+1=15'
p187
aS'w+1=Opportunities'
p188
aS'w+1=a'
p189
aS'w+1=about'
p190
aS'w+1=all'
p191
aS'w+1=almost'
p192
aS'w+1=and'
p193
aS'w+1=as'
p194
aS'w+1=at'
p195
aS'w+1=back'
p196
aS'w+1=base'
p197
aS'w+1=be'
p198
aS'w+1=billion'
p199
aS'w+1=by'
p200
aS'w+1=capital'
p201
aS'w+1=even'
p202
aS'w+1=everywhere'
p203
aS'w+1=four'
p204
aS'w+1=get'
p205
aS'w+1=gigantic'
p206
aS'w+1=heavily'
p207
aS'w+1=here'
p208
aS'w+1=in'
p209
aS'w+1=into'
p210
aS'w+1=it'
p211
aS'w+1=locallyat'
p212
aS'w+1=million'
p213
aS'w+1=money'
p214
aS'w+1=more'
p215
aS'w+1=much'
p216
aS'w+1=nearly'
p217
aS'w+1=on'
p218
aS'w+1=only'
p219
aS'w+1=or'
p220
aS'w+1=over'
p221
aS'w+1=right'
p222
aS'w+1=so'
p223
aS'w+1=some'
p224
aS'w+1=ten'
p225
aS'w+1=terror-free'
p226
aS'w+1=that'
p227
aS'w+1=the'
p228
aS'w+1=there'
p229
aS'w+1=they'
p230
aS'w+1=time'
p231
aS'w+1=to'
p232
aS'w+1=today'
p233
aS'w+1=up'
p234
aS'w+1=year'
p235
aS'w+2=$'
p236
aS"w+2=''"
p237
aS'w+2=,'
p238
aS'w+2=--'
p239
aS'w+2=.'
p240
aS'w+2=1'
p241
aS'w+2=1.8'
p242
aS'w+2=15'
p243
aS'w+2=150'
p244
aS'w+2=2'
p245
aS'w+2=40,000'
p246
aS'w+2=450'
p247
aS'w+2=500'
p248
aS'w+2=ASEAN'
p249
aS'w+2=Africa'
p250
aS'w+2=Asia'
p251
aS'w+2=Cambodia'
p252
aS'w+2=Congo'
p253
aS'w+2=East'
p254
aS'w+2=France'
p255
aS'w+2=Georgia'
p256
aS'w+2=Harlem'
p257
aS'w+2=Iran'
p258
aS'w+2=Network'
p259
aS'w+2=Northern'
p260
aS'w+2=Sudan'
p261
aS'w+2=Thailand'
p262
aS'w+2=U.S.'
p263
aS'w+2=Uganada'
p264
aS'w+2=Venezuela'
p265
aS'w+2=Vietnam'
p266
aS'w+2=a'
p267
aS'w+2=african'
p268
aS'w+2=airport'
p269
aS'w+2=american'
p270
aS'w+2=amount'
p271
aS'w+2=and'
p272
aS'w+2=as'
p273
aS'w+2=asian'
p274
aS'w+2=at'
p275
aS'w+2=billion'
p276
aS'w+2=biofuel'
p277
aS'w+2=clean'
p278
aS'w+2=confidence'
p279
aS'w+2=drug'
p280
aS'w+2=early'
p281
aS'w+2=educate'
p282
aS'w+2=education'
p283
aS'w+2=electrical'
p284
aS'w+2=empower'
p285
aS'w+2=equity'
p286
aS'w+2=extra'
p287
aS'w+2=find'
p288
aS'w+2=for'
p289
aS'w+2=fund'
p290
aS'w+2=heavily'
p291
aS'w+2=here'
p292
aS'w+2=high'
p293
aS'w+2=high-tech'
p294
aS'w+2=home'
p295
aS'w+2=improve'
p296
aS'w+2=in'
p297
aS'w+2=increase'
p298
aS'w+2=infrastructure'
p299
aS'w+2=instead'
p300
aS'w+2=involve'
p301
aS'w+2=its'
p302
aS'w+2=large'
p303
aS'w+2=least'
p304
aS'w+2=lend'
p305
aS'w+2=local'
p306
aS'w+2=lot'
p307
aS'w+2=make'
p308
aS'w+2=malaria'
p309
aS'w+2=massive'
p310
aS'w+2=money'
p311
aS'w+2=more'
p312
aS'w+2=much'
p313
aS'w+2=net'
p314
aS'w+2=new'
p315
aS'w+2=now'
p316
aS'w+2=of'
p317
aS'w+2=oil'
p318
aS'w+2=on'
p319
aS'w+2=only'
p320
aS'w+2=other'
p321
aS'w+2=people'
p322
aS'w+2=percent'
p323
aS'w+2=poor'
p324
aS'w+2=private'
p325
aS'w+2=program'
p326
aS'w+2=property'
p327
aS'w+2=real'
p328
aS'w+2=reconstruction'
p329
aS'w+2=research'
p330
aS'w+2=seven'
p331
aS'w+2=she'
p332
aS'w+2=show'
p333
aS'w+2=small'
p334
aS'w+2=social'
p335
aS'w+2=solar'
p336
aS'w+2=some'
p337
aS'w+2=steel-making'
p338
aS'w+2=than'
p339
aS'w+2=that'
p340
aS'w+2=the'
p341
aS'w+2=then'
p342
aS'w+2=they'
p343
aS'w+2=this'
p344
aS'w+2=time'
p345
aS'w+2=to'
p346
aS'w+2=tourism'
p347
aS'w+2=tragically'
p348
aS'w+2=upgrade'
p349
aS'w+2=wind'
p350
aS'w+2=woman'
p351
aS"w-1=''"
p352
aS'w-1=,'
p353
aS'w-1=:'
p354
aS'w-1=Asia'
p355
aS'w-1=Iraq'
p356
aS'w-1=Spain'
p357
aS'w-1=States'
p358
aS'w-1=UNAIDS'
p359
aS'w-1=after'
p360
aS'w-1=also'
p361
aS'w-1=and'
p362
aS'w-1=be'
p363
aS'w-1=before'
p364
aS'w-1=begin'
p365
aS'w-1=by'
p366
aS'w-1=can'
p367
aS'w-1=cash'
p368
aS'w-1=company'
p369
aS'w-1=consider'
p370
aS'w-1=continue'
p371
aS'w-1=delegate'
p372
aS'w-1=dollar'
p373
aS'w-1=for'
p374
aS'w-1=foreigner'
p375
aS'w-1=from'
p376
aS'w-1=government'
p377
aS'w-1=have'
p378
aS'w-1=how'
p379
aS'w-1=if'
p380
aS'w-1=in'
p381
aS'w-1=industry'
p382
aS'w-1=it'
p383
aS'w-1=local'
p384
aS'w-1=member'
p385
aS'w-1=money'
p386
aS'w-1=nobody'
p387
aS'w-1=not'
p388
aS'w-1=of'
p389
aS'w-1=on'
p390
aS'w-1=or'
p391
aS'w-1=power'
p392
aS'w-1=really'
p393
aS'w-1=savings'
p394
aS'w-1=say'
p395
aS'w-1=she'
p396
aS'w-1=should'
p397
aS'w-1=start'
p398
aS'w-1=stay'
p399
aS'w-1=that'
p400
aS'w-1=the'
p401
aS'w-1=to'
p402
aS'w-1=use'
p403
aS'w-1=we'
p404
aS'w-1=which'
p405
aS'w-1=will'
p406
aS'w-1=you'
p407
aS"w-2=''"
p408
aS'w-2=,'
p409
aS'w-2=-rrb-'
p410
aS'w-2=.'
p411
aS'w-2=America'
p412
aS'w-2=Asia'
p413
aS'w-2=Authority'
p414
aS'w-2=Bank'
p415
aS'w-2=Dhir'
p416
aS'w-2=Europe'
p417
aS'w-2=Germany'
p418
aS'w-2=I'
p419
aS'w-2=Iran'
p420
aS'w-2=Israel'
p421
aS'w-2=Kolff'
p422
aS'w-2=Organization'
p423
aS'w-2=Shinawatra'
p424
aS'w-2=States'
p425
aS'w-2=United'
p426
aS'w-2=Zapatero'
p427
aS'w-2=ability'
p428
aS'w-2=african'
p429
aS'w-2=agency'
p430
aS'w-2=and'
p431
aS'w-2=around'
p432
aS'w-2=autocratic'
p433
aS'w-2=back'
p434
aS'w-2=be'
p435
aS'w-2=benefit'
p436
aS'w-2=break'
p437
aS'w-2=business'
p438
aS'w-2=businessman'
p439
aS'w-2=buy'
p440
aS'w-2=by'
p441
aS'w-2=can'
p442
aS'w-2=capacity'
p443
aS'w-2=come'
p444
aS'w-2=community'
p445
aS'w-2=company'
p446
aS'w-2=consumer'
p447
aS'w-2=continue'
p448
aS'w-2=contract'
p449
aS'w-2=corruption'
p450
aS'w-2=could'
p451
aS'w-2=country'
p452
aS'w-2=dollar'
p453
aS'w-2=drug'
p454
aS'w-2=each'
p455
aS'w-2=encourage'
p456
aS'w-2=entrepreneur'
p457
aS'w-2=evidence'
p458
aS'w-2=excitement'
p459
aS'w-2=expect'
p460
aS'w-2=fail'
p461
aS'w-2=firm'
p462
aS'w-2=focus'
p463
aS'w-2=from'
p464
aS'w-2=fund'
p465
aS'w-2=go'
p466
aS'w-2=goodwill'
p467
aS'w-2=government'
p468
aS'w-2=group'
p469
aS'w-2=have'
p470
aS'w-2=hesitant'
p471
aS'w-2=hesitate'
p472
aS'w-2=household'
p473
aS'w-2=how'
p474
aS'w-2=hurdle'
p475
aS'w-2=if'
p476
aS'w-2=importance'
p477
aS'w-2=incentive'
p478
aS'w-2=indian'
p479
aS'w-2=individual'
p480
aS'w-2=industry'
p481
aS'w-2=interest'
p482
aS'w-2=interested'
p483
aS'w-2=into'
p484
aS'w-2=it'
p485
aS'w-2=job'
p486
aS'w-2=know'
p487
aS'w-2=lead'
p488
aS'w-2=life'
p489
aS'w-2=look'
p490
aS'w-2=manager'
p491
aS'w-2=member'
p492
aS'w-2=million'
p493
aS'w-2=money'
p494
aS'w-2=must'
p495
aS'w-2=nation'
p496
aS'w-2=need'
p497
aS'w-2=of'
p498
aS'w-2=only'
p499
aS'w-2=operator'
p500
aS'w-2=other'
p501
aS'w-2=people'
p502
aS'w-2=place'
p503
aS'w-2=plan'
p504
aS'w-2=power'
p505
aS'w-2=professional'
p506
aS'w-2=program'
p507
aS'w-2=promise'
p508
aS'w-2=ready'
p509
aS'w-2=rebellion'
p510
aS'w-2=research'
p511
aS'w-2=role'
p512
aS'w-2=save'
p513
aS'w-2=say'
p514
aS'w-2=should'
p515
aS'w-2=small'
p516
aS'w-2=spend'
p517
aS'w-2=staff'
p518
aS'w-2=than'
p519
aS'w-2=that'
p520
aS'w-2=the'
p521
aS'w-2=they'
p522
aS'w-2=to'
p523
aS'w-2=twice'
p524
aS'w-2=up'
p525
aS'w-2=want'
p526
aS'w-2=way'
p527
aS'w-2=we'
p528
aS'w-2=when'
p529
aS'w-2=where'
p530
aS'w-2=who'
p531
aS'w-2=why'
p532
aS'w-2=will'
p533
aS'w-2=willing'
p534
aS'w-2=willingness'
p535
aS'w-2=world'
p536
aS'xcomp=achieve'
p537
aS'xcomp=benefit'
p538
aS'xcomp=boost'
p539
aS'xcomp=build'
p540
aS'xcomp=develop'
p541
aS'xcomp=empower'
p542
aS'xcomp=ensure'
p543
aS'xcomp=escape'
p544
aS'xcomp=establish'
p545
aS'xcomp=expand'
p546
aS'xcomp=explore'
p547
aS'xcomp=get'
p548
aS'xcomp=grow'
p549
aS'xcomp=improve'
p550
aS'xcomp=increase'
p551
aS'xcomp=maintain'
p552
aS'xcomp=make'
p553
aS'xcomp=meet'
p554
aS'xcomp=necessary'
p555
aS'xcomp=offer'
p556
aS'xcomp=promote'
p557
aS'xcomp=spur'
p558
aS'xcomp=tap'
p559
aS'xcomp=transform'
p560
aS'xcomp=upgrade'
p561
asS'dtype'
p562
cnumpy
float64
p563
sS'vocabulary_'
p564
(dp565
g418
I409
sg355
I346
sg30
I21
sg354
I345
sg528
I519
sg502
I493
sg421
I412
sg370
I361
sg79
I70
sg38
I29
sg497
I488
sg457
I448
sg522
I513
sg173
I164
sg132
I123
sg167
I158
sg107
I98
sg78
I69
sg227
I218
sg141
I132
sg395
I386
sg176
I167
sg235
I226
sg551
I542
sg256
I247
sg282
I273
sg561
I552
sg143
I134
sg219
I210
sg464
I455
sg463
I454
sg209
I200
sg406
I397
sg356
I347
sg293
I284
sg366
I357
sg160
I151
sg363
I354
sg87
I78
sg521
I512
sg53
I44
sg505
I496
sg532
I523
sg530
I521
sg108
I99
sg114
I105
sg399
I390
sg531
I522
sg346
I337
sg218
I209
sg85
I76
sg220
I211
sg448
I439
sg513
I504
sg330
I321
sg294
I285
sg147
I138
sg214
I205
sg297
I288
sg62
I53
sg101
I92
sg517
I508
sg249
I240
sg265
I256
sg499
I490
sg430
I421
sg305
I296
sg361
I352
sg43
I34
sg57
I48
sg327
I318
sg393
I384
sg181
I172
sg20
I11
sg203
I194
sg508
I499
sg407
I398
sg537
I528
sg377
I368
sg540
I531
sg458
I449
sg129
I120
sg520
I511
sg228
I219
sg348
I339
sg269
I260
sg137
I128
sg519
I510
sg33
I24
sg560
I551
sg230
I221
sg469
I460
sg443
I434
sg169
I160
sg99
I90
sg9
I0
sg26
I17
sg557
I548
sg455
I446
sg493
I484
sg376
I367
sg424
I415
sg545
I536
sg95
I86
sg490
I481
sg25
I16
sg65
I56
sg550
I541
sg193
I184
sg298
I289
sg122
I113
sg188
I179
sg436
I427
sg83
I74
sg255
I246
sg289
I280
sg447
I438
sg397
I388
sg156
I147
sg383
I374
sg468
I459
sg244
I235
sg323
I314
sg456
I447
sg192
I183
sg380
I371
sg271
I262
sg381
I372
sg479
I470
sg94
I85
sg142
I133
sg410
I401
sg301
I292
sg401
I392
sg403
I394
sg23
I14
sg115
I106
sg68
I59
sg268
I259
sg316
I307
sg40
I31
sg307
I298
sg433
I424
sg140
I131
sg117
I108
sg438
I429
sg445
I436
sg225
I216
sg262
I253
sg544
I535
sg59
I50
sg106
I97
sg158
I149
sg261
I252
sg179
I170
sg55
I46
sg498
I489
sg131
I122
sg145
I136
sg452
I443
sg402
I393
sg546
I537
sg449
I440
sg312
I303
sg120
I111
sg72
I63
sg67
I58
sg92
I83
sg473
I464
sg252
I243
sg292
I283
sg22
I13
sg428
I419
sg285
I276
sg478
I469
sg60
I51
sg336
I327
sg135
I126
sg172
I163
sg194
I185
sg329
I320
sg195
I186
sg139
I130
sg357
I348
sg134
I125
sg212
I203
sg239
I230
sg217
I208
sg518
I509
sg29
I20
sg163
I154
sg178
I169
sg367
I358
sg27
I18
sg422
I413
sg182
I173
sg54
I45
sg149
I140
sg547
I538
sg295
I286
sg104
I95
sg467
I458
sg251
I242
sg39
I30
sg16
I7
sg509
I500
sg168
I159
sg61
I52
sg500
I491
sg318
I309
sg275
I266
sg97
I88
sg273
I264
sg413
I404
sg240
I231
sg50
I41
sg201
I192
sg426
I417
sg36
I27
sg31
I22
sg368
I359
sg454
I445
sg229
I220
sg474
I465
sg324
I315
sg524
I515
sg332
I323
sg123
I114
sg539
I530
sg315
I306
sg71
I62
sg331
I322
sg216
I207
sg352
I343
sg525
I516
sg103
I94
sg296
I287
sg503
I494
sg506
I497
sg222
I213
sg278
I269
sg429
I420
sg446
I437
sg290
I281
sg417
I408
sg319
I310
sg232
I223
sg384
I375
sg362
I353
sg308
I299
sg223
I214
sg170
I161
sg276
I267
sg304
I295
sg347
I338
sg558
I549
sg387
I378
sg152
I143
sg333
I324
sg11
I2
sg89
I80
sg270
I261
sg80
I71
sg482
I473
sg396
I387
sg66
I57
sg13
I4
sg311
I302
sg554
I545
sg555
I546
sg466
I457
sg552
I543
sg90
I81
sg154
I145
sg98
I89
sg386
I377
sg221
I212
sg484
I475
sg313
I304
sg69
I60
sg334
I325
sg322
I313
sg253
I244
sg159
I150
sg344
I335
sg359
I350
sg434
I425
sg556
I547
sg37
I28
sg175
I166
sg257
I248
sg460
I451
sg549
I540
sg86
I77
sg306
I297
sg483
I474
sg450
I441
sg109
I100
sg49
I40
sg196
I187
sg314
I305
sg63
I54
sg161
I152
sg96
I87
sg487
I478
sg128
I119
sg177
I168
sg52
I43
sg226
I217
sg133
I124
sg126
I117
sg130
I121
sg302
I293
sg504
I495
sg350
I341
sg476
I467
sg496
I487
sg485
I476
sg242
I233
sg535
I526
sg358
I349
sg286
I277
sg247
I238
sg325
I316
sg444
I435
sg461
I452
sg100
I91
sg237
I228
sg136
I127
sg264
I255
sg75
I66
sg19
I10
sg372
I363
sg10
I1
sg148
I139
sg527
I518
sg489
I480
sg202
I193
sg439
I430
sg125
I116
sg507
I498
sg425
I416
sg338
I329
sg41
I32
sg470
I461
sg548
I539
sg51
I42
sg274
I265
sg491
I482
sg144
I135
sg559
I550
sg70
I61
sg200
I191
sg198
I189
sg138
I129
sg205
I196
sg260
I251
sg208
I199
sg529
I520
sg281
I272
sg541
I532
sg337
I328
sg423
I414
sg110
I101
sg183
I174
sg211
I202
sg119
I110
sg190
I181
sg81
I72
sg465
I456
sg462
I453
sg279
I270
sg77
I68
sg210
I201
sg512
I503
sg91
I82
sg180
I171
sg44
I35
sg369
I360
sg437
I428
sg432
I423
sg414
I405
sg82
I73
sg494
I485
sg335
I326
sg21
I12
sg102
I93
sg542
I533
sg35
I26
sg233
I224
sg345
I336
sg420
I411
sg309
I300
sg155
I146
sg151
I142
sg435
I426
sg378
I369
sg511
I502
sg171
I162
sg124
I115
sg162
I153
sg553
I544
sg538
I529
sg427
I418
sg441
I432
sg157
I148
sg408
I399
sg360
I351
sg389
I380
sg93
I84
sg76
I67
sg287
I278
sg34
I25
sg480
I471
sg317
I308
sg191
I182
sg339
I330
sg47
I38
sg340
I331
sg64
I55
sg224
I215
sg272
I263
sg166
I157
sg246
I237
sg526
I517
sg391
I382
sg516
I507
sg488
I479
sg451
I442
sg523
I514
sg390
I381
sg431
I422
sg234
I225
sg398
I389
sg373
I364
sg187
I178
sg118
I109
sg328
I319
sg320
I311
sg495
I486
sg288
I279
sg475
I466
sg394
I385
sg215
I206
sg121
I112
sg536
I527
sg32
I23
sg514
I505
sg73
I64
sg150
I141
sg341
I332
sg165
I156
sg533
I524
sg164
I155
sg409
I400
sg440
I431
sg371
I362
sg17
I8
sg382
I373
sg45
I36
sg199
I190
sg197
I188
sg258
I249
sg416
I407
sg291
I282
sg243
I234
sg353
I344
sg419
I410
sg543
I534
sg88
I79
sg349
I340
sg174
I165
sg303
I294
sg392
I383
sg405
I396
sg501
I492
sg459
I450
sg46
I37
sg127
I118
sg207
I198
sg415
I406
sg111
I102
sg534
I525
sg486
I477
sg231
I222
sg326
I317
sg364
I355
sg56
I47
sg492
I483
sg105
I96
sg280
I271
sg58
I49
sg343
I334
sg259
I250
sg379
I370
sg342
I333
sg153
I144
sg74
I65
sg204
I195
sg375
I366
sg112
I103
sg277
I268
sg248
I239
sg14
I5
sg206
I197
sg284
I275
sg310
I301
sg28
I19
sg481
I472
sg263
I254
sg299
I290
sg385
I376
sg321
I312
sg254
I245
sg404
I395
sg48
I39
sg15
I6
sg515
I506
sg412
I403
sg12
I3
sg250
I241
sg146
I137
sg471
I462
sg213
I204
sg184
I175
sg245
I236
sg241
I232
sg374
I365
sg185
I176
sg186
I177
sg24
I15
sg442
I433
sg238
I229
sg477
I468
sg510
I501
sg116
I107
sg236
I227
sg453
I444
sg411
I402
sg18
I9
sg113
I104
sg189
I180
sg388
I379
sg365
I356
sg84
I75
sg300
I291
sg266
I257
sg351
I342
sg472
I463
sg283
I274
sg400
I391
sg42
I33
sg267
I258
ssS'separator'
p566
S'='
sS'sparse'
p567
I01
sb.