ccopy_reg
_reconstructor
p1
(csklearn.feature_extraction.dict_vectorizer
DictVectorizer
p2
c__builtin__
object
p3
NtRp4
(dp5
S'vocabulary_'
p6
(dp7
S'advmod=then'
p8
I30
sS'dobj=killing'
p9
I132
sS'prep=before'
p10
I234
sS'w-2=flee'
p11
I594
sS'nsubj=onabe'
p12
I219
sS'w-2=we'
p13
I655
sS'advmod=quite'
p14
I28
sS'w-2=Sudanese'
p15
I556
sS'w+2=near-daily'
p16
I415
sS'dobj=crackdown'
p17
I110
sS'mark=like'
p18
I168
sS'advmod=well'
p19
I33
sS'w-2=Mogadishu'
p20
I551
sS'w-2=Gedi'
p21
I543
sS'xcomp=shut'
p22
I664
sS'w+2=victim'
p23
I449
sS'dobj=condition'
p24
I108
sS'w-1=diplomat'
p25
I486
sS'w+1=punishment'
p26
I307
sS'conj=arrive'
p27
I57
sS'w-2=indoors'
p28
I605
sS'w-2=male'
p29
I613
sS'dobj=fallout'
p30
I118
sS'prep=by'
p31
I235
sS'nsubj=many'
p32
I214
sS'dobj=fire'
p33
I120
sS'w-2=country'
p34
I584
sS'dobj=loss'
p35
I135
sS'w+2=unscathed'
p36
I448
sS'w-1=eight-day'
p37
I488
sS'dobj=death'
p38
I114
sS'w-2=militant'
p39
I618
sS'w-1=would'
p40
I530
sS'w+2=burma'
p41
I363
sS'w+2=maoist'
p42
I411
sS'w-1=aide'
p43
I474
sS'dobj=impact'
p44
I129
sS'prep=follow'
p45
I237
sS'w-1=managedto'
p46
I503
sS'w-2=Aklilu'
p47
I537
sS'tmod=year'
p48
I253
sS'w-1=will'
p49
I529
sS'amod=dramatic'
p50
I35
sS'w+2=night'
p51
I416
sS'w-2=Nixon'
p52
I553
sS'aux=may'
p53
I43
sS'w+2=attention'
p54
I358
sS'xcomp=alive'
p55
I660
sS'w-1=be'
p56
I480
sS'w-2=militia'
p57
I619
sS'w+1=physical'
p58
I303
sS'w-2=the'
p59
I649
sS'dep=arrive'
p60
I82
sS'w-2=fire'
p61
I593
sS'w-2=as'
p62
I570
sS'w-2=man'
p63
I614
sS'dobj=prosecution'
p64
I144
sS'w+2=country'
p65
I370
sS'w+1=unhurt'
p66
I325
sS'w-2=Hamid'
p67
I545
sS'w+2=to'
p68
I447
sS'w+1=on'
p69
I298
sS'w-2=U'
p70
I560
sS'w-1=gorilla'
p71
I493
sS'w-1=Karzai'
p72
I468
sS'w+2=shut'
p73
I438
sS'w+1=or'
p74
I300
sS'w-2=home'
p75
I603
sS'conj=find'
p76
I60
sS'w+1=assassination'
p77
I266
sS'w-1=have'
p78
I495
sS'ccomp=say'
p79
I54
sS'nsubj=nobody'
p80
I218
sS'w+2=in'
p81
I396
sS'w-2=week'
p82
I656
sS'w+2=what'
p83
I454
sS'w+2=it'
p84
I401
sS'w+2=attack'
p85
I357
sS'nsubj=Graceland'
p86
I181
sS'w+2=winter'
p87
I457
sS'w+2=Vrindavan'
p88
I348
sS'acomp=unhurt'
p89
I1
sS'w+2=between'
p90
I361
sS'poss=Elvis'
p91
I231
sS'aux=can'
p92
I39
sS'complm=that'
p93
I55
sS'w-2=Afgoye'
p94
I536
sS'tmod=month'
p95
I252
sS'dep=flee'
p96
I85
sS'dobj=area'
p97
I100
sS'nsubj=night'
p98
I217
sS'dobj=treatment'
p99
I155
sS'w-1=Sherpao'
p100
I471
sS'xcomp=fight'
p101
I662
sS'dep=order'
p102
I88
sS'w+2=but'
p103
I365
sS'advcl=be'
p104
I5
sS'w-2=mechanic'
p105
I617
sS'w+2=by'
p106
I366
sS'w+1=the'
p107
I319
sS'dobj=reproof'
p108
I147
sS'advmod=only'
p109
I26
sS'w+2=be'
p110
I359
sS'w+1=they'
p111
I320
sS'w-1=lieutenant'
p112
I500
sS'nsubj=prisoner'
p113
I222
sS'w-2=former'
p114
I596
sS'w-1=already'
p115
I476
sS'w+2=marriage'
p116
I412
sS'prep=in'
p117
I240
sS'aux=would'
p118
I46
sS'w-2=neighborhood'
p119
I624
sS'advcl=appoint'
p120
I3
sS'dobj=day'
p121
I113
sS'prep=to'
p122
I245
sS'w-1=movie'
p123
I507
sS'w+2=Pakistan'
p124
I342
sS'nsubj=Taylor'
p125
I191
sS'w+2=jal'
p126
I403
sS'conj=wander'
p127
I76
sS'ccomp=offer'
p128
I52
sS'conj=spend'
p129
I71
sS'conj=make'
p130
I68
sS'w-1=either'
p131
I489
sS'w+1=and'
p132
I265
sS'w-2=north'
p133
I627
sS'advmod=ago'
p134
I12
sS'nsubj=patch'
p135
I220
sS'nsubj=all'
p136
I196
sS'dep=dress'
p137
I84
sS'w+2=shoot'
p138
I437
sS'w-1=family'
p139
I490
sS'w+2=for'
p140
I388
sS'conj=kill'
p141
I63
sS'w-2=order'
p142
I636
sS'dobj=attack'
p143
I102
sS'w-2=opportunity'
p144
I635
sS'dobj=ordeal'
p145
I139
sS'w+1=nazi'
p146
I297
sS'dobj=justice'
p147
I131
sS'w-1=in'
p148
I498
sS'w+2=slave'
p149
I440
sS'w+1=sectarian'
p150
I313
sS'w+1=into'
p151
I290
sS'w+1=fight'
p152
I278
sS'advcl=uncomfortable'
p153
I11
sS'w+1=dress'
p154
I276
sS'conj=be'
p155
I58
sS'w-1=the'
p156
I522
sS'w+1=accountability'
p157
I261
sS'nsubj=Toumba'
p158
I192
sS'w+1=kp'
p159
I293
sS'mark=in'
p160
I167
sS'w-2=Somalia'
p161
I555
sS'w+2=now'
p162
I419
sS'w+2=not'
p163
I418
sS'w+2=invade'
p164
I399
sS'w+2=day'
p165
I374
sS'nsubj=chief'
p166
I199
sS'w-2=16'
p167
I533
sS'w+2=when'
p168
I455
sS'w+2=previous'
p169
I428
sS'w-1=tourist'
p170
I525
sS'w-1=daring'
p171
I485
sS'dep=say'
p172
I89
sS'dobj=ambush'
p173
I99
sS'dobj=heat'
p174
I126
sS'dobj=debate'
p175
I115
sS'det=the'
p176
I92
sS'w+1=soldier'
p177
I315
sS'w-2=ago'
p178
I566
sS'acomp=unharmed'
p179
I0
sS'w-1=whom'
p180
I528
sS'conj=pressure'
p181
I69
sS'nsubj=Nepal'
p182
I188
sS'amod=realistic'
p183
I37
sS'w-1=repeatedly'
p184
I519
sS'dobj=line'
p185
I134
sS'nsubj=who'
p186
I227
sS'w-2=baby'
p187
I574
sS'dep=Ofelia'
p188
I80
sS'w-1=he'
p189
I496
sS'w-2=of'
p190
I630
sS'w-2=Jews'
p191
I550
sS'w-1=to'
p192
I524
sS'w-2=name'
p193
I622
sS'xcomp=unharmed'
p194
I665
sS'w+2=Somalia'
p195
I345
sS'dobj=#PRP#'
p196
I93
sS'w-2=do'
p197
I588
sS'advmod=completely'
p198
I17
sS'w+1=boat'
p199
I271
sS'w+2=war'
p200
I451
sS'w+1=persecution'
p201
I302
sS'advcl=destroy'
p202
I6
sS'nsubj=Musharraf'
p203
I187
sS'dobj=flood'
p204
I123
sS'nsubj=Botha'
p205
I178
sS'w+2=Dantewada'
p206
I335
sS'w-1=completely'
p207
I483
sS'nsubj=rest'
p208
I223
sS'w+1=at'
p209
I267
sS'w+2=debate'
p210
I375
sS'w+2=Kyrgyzstan'
p211
I341
sS'conj=wait'
p212
I75
sS'dobj=turmoil'
p213
I157
sS'nsubj=Gedi'
p214
I180
sS'conj=lose'
p215
I67
sS'ccomp=drive'
p216
I51
sS'w-1=country'
p217
I484
sS'nsubj=attacker'
p218
I197
sS'w-1=methane'
p219
I506
sS'w-1=can'
p220
I482
sS'advmod=here'
p221
I21
sS'w-2=able'
p222
I564
sS'w+1=through'
p223
I321
sS'w+2=at'
p224
I356
sS'w+2=wife'
p225
I456
sS'dobj=siege'
p226
I151
sS'w+2=because'
p227
I360
sS'w+2=tell'
p228
I443
sS'amod=daring'
p229
I34
sS'w+2=Hong'
p230
I340
sS'advmod=repeatedly'
p231
I29
sS'w-2=she'
p232
I645
sS'w-1=refugee'
p233
I518
sS'prep=for'
p234
I238
sS'w+1=ahead'
p235
I264
sS'w-2=key'
p236
I609
sS'w+1=starvation'
p237
I316
sS'dobj=marriage'
p238
I136
sS'xcomp=walk'
p239
I667
sS'w-2=50'
p240
I534
sS'nsubj=economy'
p241
I202
sS'w+2=Pfeiffer'
p242
I343
sS'w+2=line'
p243
I409
sS'dep=from'
p244
I86
sS'w+2=killing'
p245
I406
sS'w-1=Iraqis'
p246
I467
sS'prep=despite'
p247
I236
sS'nsubj=mayor'
p248
I215
sS'w+2=persecution'
p249
I424
sS'conj=live'
p250
I66
sS'w-2=while'
p251
I657
sS'w+2=condemnation'
p252
I367
sS'w-2=Dheere'
p253
I541
sS'conj=wound'
p254
I78
sS'w+2=scourge'
p255
I433
sS'w-1=quite'
p256
I516
sS'w-2=Nepal'
p257
I552
sS'dobj=scourge'
p258
I148
sS"w-1='s"
p259
I460
sS'w+2=give'
p260
I391
sS'w+2=fallout'
p261
I382
sS'dobj=flare-up'
p262
I122
sS'w+2=after'
p263
I350
sS'w-1=narrowly'
p264
I508
sS'w-2=manage'
p265
I615
sS'w+2=Castro'
p266
I334
sS'nsubj=baby'
p267
I198
sS'w-2=Thailand'
p268
I558
sS'dobj=oppression'
p269
I138
sS'w+2=recent'
p270
I429
sS'w+2=since'
p271
I439
sS'amod=eight-day'
p272
I36
sS'w-1=dramatic'
p273
I487
sS'nsubj=#NUMBER#'
p274
I173
sS'dobj=abuse'
p275
I97
sS'w+2=separate'
p276
I435
sS'w-2=foreign'
p277
I595
sS'w+2=she'
p278
I436
sS'w+1=back'
p279
I268
sS'dobj=epidemic'
p280
I117
sS'nsubj=air'
p281
I195
sS'w+2=labor'
p282
I407
sS'w-2=from'
p283
I598
sS'w+2=with'
p284
I458
sS'w-2=body'
p285
I577
sS'advcl=attack'
p286
I4
sS'dobj=fury'
p287
I124
sS'w-2=those'
p288
I651
sS'w-2=fighter'
p289
I592
sS'w-2=Toumba'
p290
I559
sS'w-2=boss'
p291
I579
sS'w-1=people'
p292
I514
sS'w-2=element'
p293
I590
sS'dobj=persecution'
p294
I141
sS'w-2=seek'
p295
I644
sS'w-1=no'
p296
I510
sS'w-2=attacker'
p297
I571
sS'w+2=or'
p298
I422
sS'w+1=across'
p299
I262
sS'nsubj=this'
p300
I225
sS'w+2=of'
p301
I420
sS'w-2=after'
p302
I565
sS'w+2=on'
p303
I421
sS'w+1=to'
p304
I322
sS'dobj=condemnation'
p305
I107
sS'nsubj=gorilla'
p306
I206
sS'dobj=prejudice'
p307
I142
sS'w+2=he'
p308
I394
sS'nsubj=Gusmao'
p309
I182
sS'w+2=storm'
p310
I441
sS'w+1=poverty'
p311
I305
sS'prep=into'
p312
I241
sS'w-2=journey'
p313
I608
sS'w+2=assassination'
p314
I355
sS'w-2=part'
p315
I637
sS'w+1=injury'
p316
I288
sS'w+1=suspicion'
p317
I318
sS'dobj=bomb'
p318
I105
sS'w-2=Holiday'
p319
I547
sS'advmod=barely'
p320
I16
sS'w+2=area'
p321
I354
sS'advmod=finally'
p322
I20
sS'w+1=militant'
p323
I296
sS'w+2=Sierra'
p324
I344
sS'w-1=Fernando'
p325
I465
sS'w+1=malnutrition'
p326
I295
sS'w-2=attempt'
p327
I572
sS'advmod=far'
p328
I19
sS'w+1=political'
p329
I304
sS'w-2=only'
p330
I634
sS'nn=methane'
p331
I171
sS'w+2=England'
p332
I336
sS'w-1=she'
p333
I521
sS'w+2=daily'
p334
I373
sS'w+2=scar'
p335
I431
sS'nsubj=trafficker'
p336
I226
sS'w+2=from'
p337
I389
sS'w+2=poverty'
p338
I426
sS'w-2=safe'
p339
I641
sS'w-2=ocean'
p340
I629
sS'w-2=Zimbabwe'
p341
I562
sS'dobj=Holocaust'
p342
I95
sS'w-2=go'
p343
I599
sS'nsubj=Iraqis'
p344
I184
sS'w+1=international'
p345
I289
sS'w+1=long'
p346
I294
sS'dobj=identification'
p347
I128
sS'w-1=Awbata'
p348
I463
sS'w+2=enhance'
p349
I379
sS'dobj=week'
p350
I162
sS'w-2=Iran'
p351
I548
sS'dobj=suspicion'
p352
I153
sS'tmod=day'
p353
I251
sS'w+2=economic'
p354
I378
sS'w-2=student'
p355
I647
sS'prep=up'
p356
I247
sS'w+2=destructive'
p357
I376
sS'nsubj=immigrant'
p358
I210
sS'dobj=shooting'
p359
I150
sS'w+1=death'
p360
I274
sS'ccomp=perceive'
p361
I53
sS'nsubj=aide'
p362
I194
sS'w-2=child'
p363
I583
sS'dobj=home'
p364
I127
sS'mark=while'
p365
I169
sS'dep=so'
p366
I90
sS'aux=do'
p367
I41
sS'w-1=rest'
p368
I520
sS'w-2=also'
p369
I567
sS'aux=will'
p370
I45
sS'w-2=Bhutto'
p371
I540
sS'advmod=already'
p372
I14
sS'dep=land'
p373
I87
sS'advmod=unhurt'
p374
I32
sS'w+1=unharmed'
p375
I324
sS'advcl=evaporate'
p376
I8
sS'nsubj=people'
p377
I221
sS'w+1=violence'
p378
I326
sS'cc=or'
p379
I49
sS'ccomp=choose'
p380
I50
sS'w-2=Bandala'
p381
I539
sS'nsubj=family'
p382
I203
sS'w+2=suicide'
p383
I442
sS'w-2=basement'
p384
I575
sS'w-2=descent'
p385
I587
sS'w-1=barely'
p386
I479
sS'w-2=learn'
p387
I610
sS'w-2=day'
p388
I586
sS'w+2=Holocaust'
p389
I339
sS'dobj=attention'
p390
I104
sS'w-2=it'
p391
I607
sS'acomp=unscathed'
p392
I2
sS'w+2=naked'
p393
I414
sS'w+2=crash'
p394
I371
sS'parataxis=call'
p395
I228
sS'w+1=one'
p396
I299
sS'w+2=fire'
p397
I384
sS'w+2=week'
p398
I453
sS'w+1=hatch'
p399
I282
sS'w+1=despite'
p400
I275
sS'w-1=after'
p401
I473
sS'advmod=narrowly'
p402
I23
sS'nsubj=country'
p403
I200
sS'mark=although'
p404
I165
sS'w+1=follow'
p405
I279
sS'dobj=life'
p406
I133
sS'w-2=way'
p407
I654
sS'nsubj=home'
p408
I209
sS'w-2=economy'
p409
I589
sS'advmod=necessarily'
p410
I24
sS'w-2=who'
p411
I658
sS'w-2=they'
p412
I650
sS'w-1=twice'
p413
I526
sS'w-2=have'
p414
I600
sS'w+2=flame'
p415
I385
sS'cc=and'
p416
I47
sS'w+2=grasp'
p417
I392
sS'nsubj=issue'
p418
I211
sS'w+1=religious'
p419
I310
sS'w+1=by'
p420
I272
sS'w+2=Taliban'
p421
I346
sS'w+1=criticism'
p422
I273
sS'w+1=be'
p423
I269
sS'dobj=cycle'
p424
I112
sS'aux=to'
p425
I44
sS'w-1=but'
p426
I481
sS'w+1=here'
p427
I284
sS'w-2=border'
p428
I578
sS'w+2=constant'
p429
I368
sS'w-1=Botha'
p430
I464
sS'w-1=Haiti'
p431
I466
sS'nsubj=flight'
p432
I204
sS'xcomp=loyal'
p433
I663
sS'w-2=most'
p434
I621
sS'w+1=in'
p435
I286
sS'w+1=-lrb-'
p436
I255
sS'w-2=lucky'
p437
I612
sS'w+1=it'
p438
I291
sS'w+2=identification'
p439
I395
sS'nsubj=#PRP#'
p440
I174
sS'w-2=many'
p441
I616
sS'w-1=from'
p442
I492
sS'w+1=relatively'
p443
I309
sS'w+1=justice'
p444
I292
sS'w+2=violence'
p445
I450
sS'prep=toward'
p446
I246
sS'conj=leave'
p447
I65
sS'cc=but'
p448
I48
sS'dobj=flame'
p449
I121
sS'w+1=Michelle'
p450
I259
sS'w-1=mayor'
p451
I505
sS'advmod=ahead'
p452
I13
sS'w+1=such'
p453
I317
sS'poss=#PRP#'
p454
I230
sS'w+2=ethnic'
p455
I381
sS'w-1=Ofelia'
p456
I470
sS'nsubj=Awbata'
p457
I176
sS'aux=could'
p458
I40
sS'w-2=President'
p459
I554
sS'nsubj=James'
p460
I185
sS'w+2=fighting'
p461
I383
sS'w-1=onabe'
p462
I513
sS'advmod=either'
p463
I18
sS'w+2=roadside'
p464
I430
sS'w-1=home'
p465
I497
sS'advmod=back'
p466
I15
sS'conj=get'
p467
I61
sS'w-2=like'
p468
I611
sS'nsubj=terrorist'
p469
I224
sS'w-2=month'
p470
I620
sS'w-2=people'
p471
I638
sS'w-1=Musharraf'
p472
I469
sS'w-1=group'
p473
I494
sS'w-1=air'
p474
I475
sS'w+1=heavy'
p475
I283
sS'w-2=Hindus'
p476
I546
sS'w+1=herself'
p477
I285
sS'prep=of'
p478
I242
sS'conj=know'
p479
I64
sS'dobj=assassination'
p480
I101
sS'prep=on'
p481
I243
sS'mark=after'
p482
I164
sS'dobj=turbulence'
p483
I156
sS'nsubj=man'
p484
I213
sS'dobj=injury'
p485
I130
sS'advcl=drive'
p486
I7
sS'conj=take'
p487
I74
sS'nsubj=Nixon'
p488
I189
sS'w-2=courage'
p489
I585
sS'conj=enjoy'
p490
I59
sS'dobj=fighting'
p491
I119
sS'w+1=.'
p492
I256
sS'w-2=on'
p493
I632
sS'w-2=never'
p494
I625
sS'dobj=system'
p495
I154
sS'w-2=run'
p496
I640
sS'dobj=starvation'
p497
I152
sS'w+2=brutal'
p498
I362
sS'dobj=militant'
p499
I137
sS'w+2=that'
p500
I444
sS'w+1=prosecution'
p501
I306
sS'w+2=loyal'
p502
I410
sS'xcomp=victim'
p503
I666
sS"w+2=''"
p504
I330
sS'nsubj=most'
p505
I216
sS'w-2=can'
p506
I581
sS'w+2=and'
p507
I353
sS'w-1=who'
p508
I527
sS'w-2=be'
p509
I576
sS'w-2=prisoner'
p510
I639
sS'w-2=and'
p511
I569
sS'advcl=hear'
p512
I10
sS'w-1=attacker'
p513
I478
sS'nsubj=Sherpao'
p514
I190
sS'nsubj=guard'
p515
I207
sS'w-1=of'
p516
I512
sS'w+2=eastern'
p517
I377
sS'w+2=foot'
p518
I387
sS'xcomp=await'
p519
I661
sS'w+1=;'
p520
I257
sS'conj=go'
p521
I62
sS'dobj=process'
p522
I143
sS'tmod=#DATE#'
p523
I249
sS'dep=be'
p524
I83
sS'tmod=cold'
p525
I250
sS'nsubj=Diakite'
p526
I179
sS'xcomp=want'
p527
I668
sS'w-1=necessarily'
p528
I509
sS'w-2=national'
p529
I623
sS'neg=not'
p530
I170
sS'w-2=try'
p531
I652
sS'dobj=attempt'
p532
I103
sS'w-2=freedom'
p533
I597
sS'w-2=one'
p534
I633
sS'cop=be'
p535
I79
sS'w-2=he'
p536
I601
sS'w-2=scramble'
p537
I643
sS'dobj=wave'
p538
I161
sS'w+1=with'
p539
I329
sS'conj=able'
p540
I56
sS'advmod=now'
p541
I25
sS'nsubj=Haiti'
p542
I183
sS'conj=where'
p543
I77
sS'w-2=chief'
p544
I582
sS'w+2=burning'
p545
I364
sS'w+2=into'
p546
I398
sS'dobj=economy'
p547
I116
sS'w+2=the'
p548
I445
sS'prep=at'
p549
I233
sS'w-2=european'
p550
I591
sS'w+1=war'
p551
I327
sS'dobj=accountability'
p552
I98
sS'w-2=,'
p553
I531
sS'w+2=genocide'
p554
I390
sS'w-2=.'
p555
I532
sS'dobj=grasp'
p556
I125
sS'w-1=and'
p557
I477
sS'w-2=bus'
p558
I580
sS'w-2=nobody'
p559
I626
sS'w+1=route'
p560
I312
sS'w+2=epidemic'
p561
I380
sS'w-2=Jalalabad'
p562
I549
sS'aux=have'
p563
I42
sS'w-2=Gusmao'
p564
I544
sS'w+1=serious'
p565
I314
sS'w+2=joint'
p566
I404
sS'w-1=realistic'
p567
I517
sS'w-2=:'
p568
I535
sS'w-1=.'
p569
I462
sS'w-1=,'
p570
I461
sS'w-2=not'
p571
I628
sS'dobj=wife'
p572
I163
sS'w+2=worst'
p573
I459
sS'w-1=indeed'
p574
I499
sS'prep=with'
p575
I248
sS'w+1=from'
p576
I281
sS'conj=survive'
p577
I73
sS'w+2=israeli'
p578
I400
sS'dobj=regime'
p579
I146
sS'dobj=violence'
p580
I159
sS'w-2=offer'
p581
I631
sS'prep=through'
p582
I244
sS'w-2=hot'
p583
I604
sS'w+1=Eritrea'
p584
I258
sS'w+2=control'
p585
I369
sS'dobj=Pfeiffer'
p586
I96
sS'dobj=outage'
p587
I140
sS'w+2=wave'
p588
I452
sS'w+2=Friday'
p589
I338
sS'w-2=a'
p590
I563
sS'w-1=they'
p591
I523
sS'w-2=Elvis'
p592
I542
sS'det=a'
p593
I91
sS'w-1=a'
p594
I472
sS'advmod=naked'
p595
I22
sS'w+2=judicial'
p596
I405
sS'w+2=scorching'
p597
I432
sS'w-2=so'
p598
I646
sS'conj=receive'
p599
I70
sS'mark=as'
p600
I166
sS'nsubj=hero'
p601
I208
sS'w+2=flood'
p602
I386
sS'nsubj=Karzai'
p603
I186
sS'dobj=punishment'
p604
I145
sS'w+2=jail'
p605
I402
sS'dobj=criticism'
p606
I111
sS'w+2=scrutiny'
p607
I434
sS'w+2=they'
p608
I446
sS'w-2=issue'
p609
I606
sS'dobj=Eritrea'
p610
I94
sS'dobj=unhurt'
p611
I158
sS'prep=after'
p612
I232
sS'conj=start'
p613
I72
sS'w-2=year'
p614
I659
sS'w+1=a'
p615
I260
sS'w+2=have'
p616
I393
sS'w+2=no'
p617
I417
sS'w-1=protester'
p618
I515
sS'w-2=although'
p619
I568
sS'w-2=avenue'
p620
I573
sS'partmod=visit'
p621
I229
sS'w+2=massive'
p622
I413
sS'w-2=say'
p623
I642
sS'w+1=reproof'
p624
I311
sS'w+1=black'
p625
I270
sS'prep=from'
p626
I239
sS'advmod=out'
p627
I27
sS'w+2=Tuesday'
p628
I347
sS'w+2=injury'
p629
I397
sS'w+2=other'
p630
I423
sS'w-2=help'
p631
I602
sS'w+1=after'
p632
I263
sS'nsubj=Zimbabwe'
p633
I193
sS'nsubj=Bhutto'
p634
I177
sS'nn=protester'
p635
I172
sS'advcl=go'
p636
I9
sS'w-2=Baker'
p637
I538
sS'nsubj=democracy'
p638
I201
sS'w+2=prejudice'
p639
I427
sS'advmod=twice'
p640
I31
sS'w+2=Ethiopia'
p641
I337
sS'w+1=forced'
p642
I280
sS'w+1=,'
p643
I254
sS'w+1=out'
p644
I301
sS'w-2=Taylor'
p645
I557
sS'w-2=that'
p646
I648
sS'dep=after'
p647
I81
sS'w+2=.'
p648
I332
sS'w+2=,'
p649
I331
sS'w-1=finally'
p650
I491
sS'dobj=camp'
p651
I106
sS'nsubj=Aklilu'
p652
I175
sS'w+1=racial'
p653
I308
sS'dobj=war'
p654
I160
sS'w+2=current'
p655
I372
sS'dobj=scrutiny'
p656
I149
sS'w-2=Union'
p657
I561
sS'w+2=life'
p658
I408
sS'w+2=Americans'
p659
I333
sS'w+2=plantation'
p660
I425
sS'w+1=turmoil'
p661
I323
sS'dobj=control'
p662
I109
sS'w+1=early'
p663
I277
sS'w-1=not'
p664
I511
sS'w+2=ambush'
p665
I352
sS'w+1=infection'
p666
I287
sS'w-1=may'
p667
I504
sS'w-2=turbine'
p668
I653
sS'w-1=man'
p669
I502
sS'nsubj=lieutenant'
p670
I212
sS'aux=be'
p671
I38
sS'w-1=maker'
p672
I501
sS'w+2=all'
p673
I351
sS'w+2=a'
p674
I349
sS'w+1=what'
p675
I328
sS'nsubj=girl'
p676
I205
ssS'dtype'
p677
cnumpy
float64
p678
sS'feature_names_'
p679
(lp680
g179
ag89
ag392
ag120
ag286
ag104
ag202
ag486
ag376
ag636
ag512
ag153
ag134
ag452
ag372
ag466
ag320
ag198
ag463
ag328
ag322
ag221
ag595
ag402
ag410
ag541
ag109
ag627
ag14
ag231
ag8
ag640
ag374
ag19
ag229
ag50
ag272
ag183
ag671
ag92
ag458
ag367
ag563
ag53
ag425
ag370
ag118
ag416
ag448
ag379
ag380
ag216
ag128
ag361
ag79
ag93
ag540
ag27
ag155
ag490
ag76
ag467
ag521
ag141
ag479
ag447
ag250
ag215
ag130
ag181
ag599
ag129
ag613
ag577
ag487
ag212
ag127
ag543
ag254
ag535
ag188
ag647
ag60
ag524
ag137
ag96
ag244
ag373
ag102
ag172
ag366
ag593
ag176
ag196
ag610
ag342
ag586
ag275
ag552
ag173
ag97
ag480
ag143
ag532
ag390
ag318
ag651
ag305
ag24
ag662
ag17
ag606
ag424
ag121
ag38
ag175
ag547
ag280
ag30
ag491
ag33
ag449
ag262
ag204
ag287
ag556
ag174
ag364
ag347
ag44
ag485
ag147
ag9
ag406
ag185
ag35
ag238
ag499
ag269
ag145
ag587
ag294
ag307
ag522
ag64
ag604
ag579
ag108
ag258
ag656
ag359
ag226
ag497
ag352
ag495
ag99
ag483
ag213
ag611
ag580
ag654
ag538
ag350
ag572
ag482
ag404
ag600
ag160
ag18
ag365
ag530
ag331
ag635
ag274
ag440
ag652
ag457
ag634
ag205
ag526
ag214
ag86
ag309
ag542
ag344
ag460
ag603
ag203
ag182
ag488
ag514
ag125
ag158
ag633
ag362
ag281
ag136
ag218
ag267
ag166
ag403
ag638
ag241
ag382
ag432
ag676
ag306
ag515
ag601
ag408
ag358
ag418
ag670
ag484
ag32
ag248
ag505
ag98
ag80
ag12
ag135
ag377
ag113
ag208
ag469
ag300
ag336
ag186
ag395
ag621
ag454
ag91
ag612
ag549
ag10
ag31
ag247
ag45
ag234
ag626
ag117
ag312
ag478
ag481
ag582
ag122
ag446
ag356
ag575
ag523
ag525
ag353
ag95
ag48
ag643
ag436
ag492
ag520
ag584
ag450
ag615
ag157
ag299
ag632
ag235
ag132
ag77
ag209
ag279
ag423
ag625
ag199
ag420
ag422
ag360
ag400
ag154
ag663
ag152
ag405
ag642
ag576
ag399
ag475
ag427
ag477
ag435
ag666
ag316
ag345
ag151
ag438
ag444
ag159
ag346
ag326
ag323
ag146
ag69
ag396
ag74
ag644
ag201
ag58
ag329
ag311
ag501
ag26
ag653
ag443
ag419
ag624
ag560
ag150
ag565
ag177
ag237
ag453
ag317
ag107
ag111
ag223
ag304
ag661
ag375
ag66
ag378
ag551
ag675
ag539
ag504
ag649
ag648
ag659
ag266
ag206
ag332
ag641
ag589
ag389
ag230
ag211
ag124
ag242
ag324
ag195
ag421
ag628
ag88
ag674
ag263
ag673
ag665
ag507
ag321
ag314
ag224
ag85
ag54
ag110
ag227
ag90
ag498
ag41
ag545
ag103
ag106
ag252
ag429
ag585
ag65
ag394
ag655
ag334
ag165
ag210
ag357
ag517
ag354
ag349
ag561
ag455
ag261
ag461
ag397
ag415
ag602
ag518
ag140
ag337
ag554
ag260
ag417
ag616
ag308
ag439
ag81
ag629
ag546
ag164
ag578
ag84
ag605
ag126
ag566
ag596
ag245
ag282
ag658
ag243
ag502
ag42
ag116
ag622
ag393
ag16
ag51
ag617
ag163
ag162
ag301
ag303
ag298
ag630
ag249
ag660
ag338
ag639
ag169
ag270
ag464
ag335
ag597
ag255
ag607
ag276
ag278
ag138
ag73
ag271
ag149
ag310
ag383
ag228
ag500
ag548
ag608
ag68
ag36
ag23
ag445
ag200
ag588
ag398
ag83
ag168
ag225
ag87
ag284
ag573
ag259
ag570
ag569
ag348
ag430
ag325
ag431
ag246
ag72
ag472
ag456
ag100
ag594
ag401
ag43
ag474
ag115
ag557
ag513
ag386
ag56
ag426
ag220
ag207
ag217
ag171
ag25
ag273
ag37
ag131
ag139
ag650
ag442
ag71
ag473
ag78
ag189
ag465
ag148
ag574
ag112
ag672
ag669
ag46
ag667
ag451
ag219
ag123
ag264
ag528
ag296
ag664
ag516
ag462
ag292
ag618
ag256
ag567
ag233
ag184
ag368
ag333
ag156
ag591
ag192
ag170
ag413
ag508
ag180
ag49
ag40
ag553
ag555
ag167
ag240
ag568
ag94
ag47
ag637
ag381
ag371
ag253
ag592
ag21
ag564
ag67
ag476
ag319
ag351
ag562
ag191
ag20
ag257
ag52
ag459
ag161
ag15
ag645
ag268
ag290
ag70
ag657
ag341
ag590
ag222
ag302
ag178
ag369
ag619
ag511
ag62
ag297
ag327
ag620
ag187
ag384
ag509
ag285
ag428
ag291
ag558
ag506
ag544
ag363
ag34
ag489
ag388
ag385
ag197
ag409
ag293
ag550
ag289
ag61
ag11
ag277
ag114
ag533
ag283
ag343
ag414
ag536
ag631
ag75
ag583
ag28
ag609
ag391
ag313
ag236
ag387
ag468
ag437
ag29
ag63
ag265
ag441
ag105
ag39
ag57
ag470
ag434
ag193
ag529
ag119
ag494
ag559
ag133
ag571
ag340
ag190
ag581
ag493
ag534
ag330
ag144
ag142
ag315
ag471
ag510
ag496
ag339
ag623
ag537
ag295
ag232
ag598
ag355
ag646
ag59
ag412
ag288
ag531
ag668
ag407
ag13
ag82
ag251
ag411
ag614
ag55
ag519
ag101
ag433
ag22
ag194
ag503
ag239
ag527
asS'separator'
p681
S'='
sS'sparse'
p682
I01
sb.