ccopy_reg
_reconstructor
p1
(csklearn.feature_extraction.dict_vectorizer
DictVectorizer
p2
c__builtin__
object
p3
NtRp4
(dp5
S'sort'
p6
I01
sS'feature_names_'
p7
(lp8
S'advcl=attack'
p9
aS'advcl=be'
p10
aS'advcl=disqualify'
p11
aS'advcl=explode'
p12
aS'advcl=go'
p13
aS'advcl=have'
p14
aS'advcl=indicate'
p15
aS'advcl=say'
p16
aS'advcl=step'
p17
aS'advcl=with'
p18
aS'advmod=along'
p19
aS'advmod=also'
p20
aS'advmod=appropriately'
p21
aS'advmod=barely'
p22
aS'advmod=even'
p23
aS'advmod=here'
p24
aS'advmod=high'
p25
aS'advmod=just'
p26
aS'advmod=magnetically'
p27
aS'advmod=newly'
p28
aS'advmod=practically'
p29
aS'advmod=properly'
p30
aS'advmod=since'
p31
aS'advmod=strongly'
p32
aS'advmod=than'
p33
aS'advmod=up'
p34
aS'advmod=when'
p35
aS'advmod=where'
p36
aS'advmod=worldwide'
p37
aS'advmod=yet'
p38
aS'amod=higher'
p39
aS'amod=national'
p40
aS'amod=precinct'
p41
aS'aux=be'
p42
aS'aux=can'
p43
aS'aux=could'
p44
aS'aux=have'
p45
aS'aux=must'
p46
aS'aux=to'
p47
aS'aux=will'
p48
aS'aux=would'
p49
aS'auxpass=be'
p50
aS'auxpass=get'
p51
aS'auxpass=remain'
p52
aS'cc=and'
p53
aS'cc=but'
p54
aS'cc=or'
p55
aS'ccomp=be'
p56
aS'ccomp=feel'
p57
aS'ccomp=have'
p58
aS'ccomp=receive'
p59
aS'ccomp=turn'
p60
aS'complm=that'
p61
aS'conj=access'
p62
aS'conj=apparent'
p63
aS'conj=cast'
p64
aS'conj=decide'
p65
aS'conj=hold'
p66
aS'conj=lock'
p67
aS'conj=look'
p68
aS'conj=maintain'
p69
aS'conj=make'
p70
aS'conj=norm'
p71
aS'conj=say'
p72
aS'conj=try'
p73
aS'conj=unaffiliated'
p74
aS'conj=user'
p75
aS'dep=difficult'
p76
aS'dep=here'
p77
aS'dep=in'
p78
aS'dep=land'
p79
aS'dep=new'
p80
aS'dep=of'
p81
aS'dep=vote'
p82
aS'det=a'
p83
aS'det=any'
p84
aS'det=the'
p85
aS'dobj=#NUMBER#'
p86
aS'dobj=#PRP#'
p87
aS'dobj=Democrats'
p88
aS'dobj=Mangudadatu'
p89
aS'dobj=Maoists'
p90
aS'dobj=belief'
p91
aS'dobj=birth'
p92
aS'dobj=candidate'
p93
aS'dobj=claim'
p94
aS'dobj=complaint'
p95
aS'dobj=concern'
p96
aS'dobj=correspondent'
p97
aS'dobj=everything'
p98
aS'dobj=fighter'
p99
aS'dobj=growth'
p100
aS'dobj=member'
p101
aS'dobj=name'
p102
aS'dobj=party'
p103
aS'dobj=people'
p104
aS'dobj=property'
p105
aS'dobj=rate'
p106
aS'dobj=refugee'
p107
aS'dobj=temple'
p108
aS'dobj=truck'
p109
aS'dobj=turnout'
p110
aS'dobj=vehicle'
p111
aS'dobj=vote'
p112
aS'dobj=voter'
p113
aS'dobj=which'
p114
aS'dobj=whom'
p115
aS'dobj=win'
p116
aS'expl=there'
p117
aS'mark=as'
p118
aS'mark=because'
p119
aS'mark=if'
p120
aS'mark=while'
p121
aS'neg=not'
p122
aS'nn=identity'
p123
aS'nn=state'
p124
aS'nn=voter'
p125
aS'nsubj=#NUMBER#'
p126
aS'nsubj=#PRP#'
p127
aS'nsubj=Africa'
p128
aS'nsubj=Cambodia'
p129
aS'nsubj=EPRDF'
p130
aS'nsubj=Hispanics'
p131
aS'nsubj=Howard'
p132
aS'nsubj=Islamabad'
p133
aS'nsubj=Ivorians'
p134
aS'nsubj=Maoists'
p135
aS'nsubj=Nations'
p136
aS'nsubj=Romney'
p137
aS'nsubj=States'
p138
aS'nsubj=all'
p139
aS'nsubj=candidate'
p140
aS'nsubj=compilation'
p141
aS'nsubj=country'
p142
aS'nsubj=couple'
p143
aS'nsubj=economy'
p144
aS'nsubj=form'
p145
aS'nsubj=government'
p146
aS'nsubj=man'
p147
aS'nsubj=many'
p148
aS'nsubj=number'
p149
aS'nsubj=oil'
p150
aS'nsubj=operator'
p151
aS'nsubj=other'
p152
aS'nsubj=party'
p153
aS'nsubj=people'
p154
aS'nsubj=percent'
p155
aS'nsubj=politician'
p156
aS'nsubj=station'
p157
aS'nsubj=that'
p158
aS'nsubj=voter'
p159
aS'nsubj=who'
p160
aS'nsubj=worker'
p161
aS'nsubjpass=#NUMBER#'
p162
aS'nsubjpass=#PRP#'
p163
aS'nsubjpass=car'
p164
aS'nsubjpass=everybody'
p165
aS'nsubjpass=head'
p166
aS'nsubjpass=party'
p167
aS'nsubjpass=people'
p168
aS'nsubjpass=player'
p169
aS'nsubjpass=returnee'
p170
aS'nsubjpass=that'
p171
aS'nsubjpass=the'
p172
aS'nsubjpass=vehicle'
p173
aS'nsubjpass=voter'
p174
aS'nsubjpass=who'
p175
aS'partmod=expand'
p176
aS'poss=voter'
p177
aS'prep=about'
p178
aS'prep=as'
p179
aS'prep=at'
p180
aS'prep=by'
p181
aS'prep=during'
p182
aS'prep=for'
p183
aS'prep=in'
p184
aS'prep=of'
p185
aS'prep=on'
p186
aS'prep=out'
p187
aS'prep=since'
p188
aS'prep=than'
p189
aS'prep=to'
p190
aS'prep=up'
p191
aS'prep=with'
p192
aS'tmod=day'
p193
aS'tmod=today'
p194
aS'tmod=week'
p195
aS'tmod=year'
p196
aS'w+1=,'
p197
aS'w+1=-'
p198
aS'w+1=-lrb-'
p199
aS'w+1=.'
p200
aS'w+1=31,000'
p201
aS'w+1=400'
p202
aS'w+1=537'
p203
aS'w+1=?'
p204
aS'w+1=Afghan'
p205
aS'w+1=Democrat'
p206
aS'w+1=Democrats'
p207
aS'w+1=Ismael'
p208
aS'w+1=Maoists'
p209
aS'w+1=a'
p210
aS'w+1=about'
p211
aS'w+1=and'
p212
aS'w+1=around'
p213
aS'w+1=as'
p214
aS'w+1=at'
p215
aS'w+1=be'
p216
aS'w+1=before'
p217
aS'w+1=better'
p218
aS'w+1=by'
p219
aS'w+1=candidate'
p220
aS'w+1=cast'
p221
aS'w+1=create'
p222
aS'w+1=decline'
p223
aS'w+1=displaced'
p224
aS'w+1=display'
p225
aS'w+1=do'
p226
aS'w+1=during'
p227
aS'w+1=economic'
p228
aS'w+1=every'
p229
aS'w+1=everything'
p230
aS'w+1=far'
p231
aS'w+1=for'
p232
aS'w+1=growth'
p233
aS'w+1=he'
p234
aS'w+1=here'
p235
aS'w+1=hundred'
p236
aS'w+1=in'
p237
aS'w+1=magnetically'
p238
aS'w+1=miss'
p239
aS'w+1=more'
p240
aS'w+1=must'
p241
aS'w+1=nearly'
p242
aS'w+1=negative'
p243
aS'w+1=new'
p244
aS'w+1=nine'
p245
aS'w+1=of'
p246
aS'w+1=on'
p247
aS'w+1=only'
p248
aS'w+1=opposition'
p249
aS'w+1=or'
p250
aS'w+1=palestinian'
p251
aS'w+1=people'
p252
aS'w+1=political'
p253
aS'w+1=property'
p254
aS'w+1=receive'
p255
aS'w+1=six'
p256
aS'w+1=somali'
p257
aS'w+1=sustained'
p258
aS'w+1=that'
p259
aS'w+1=they'
p260
aS'w+1=those'
p261
aS'w+1=to'
p262
aS'w+1=today'
p263
aS'w+1=under'
p264
aS'w+1=vehicle'
p265
aS'w+1=voter'
p266
aS'w+1=win'
p267
aS'w+1=with'
p268
aS"w+2='"
p269
aS"w+2=''"
p270
aS'w+2=,'
p271
aS'w+2=.'
p272
aS'w+2=100,000'
p273
aS'w+2=31,000'
p274
aS'w+2=60'
p275
aS'w+2=Britain'
p276
aS'w+2=California'
p277
aS'w+2=Jakarta'
p278
aS'w+2=Kashmir'
p279
aS'w+2=Mangudadatu'
p280
aS'w+2=Monday'
p281
aS'w+2=Switzerland'
p282
aS'w+2=Tuesday'
p283
aS'w+2=a'
p284
aS'w+2=actual'
p285
aS'w+2=and'
p286
aS'w+2=appropriately'
p287
aS'w+2=as'
p288
aS'w+2=asylum'
p289
aS'w+2=at'
p290
aS'w+2=authority'
p291
aS'w+2=be'
p292
aS'w+2=bear'
p293
aS'w+2=begin'
p294
aS'w+2=belong'
p295
aS'w+2=birth'
p296
aS'w+2=brisk'
p297
aS'w+2=but'
p298
aS'w+2=cast'
p299
aS'w+2=class'
p300
aS'w+2=come'
p301
aS'w+2=concern'
p302
aS'w+2=correspondent'
p303
aS'w+2=democrat'
p304
aS'w+2=display'
p305
aS'w+2=do'
p306
aS'w+2=draw'
p307
aS'w+2=economic'
p308
aS'w+2=either'
p309
aS'w+2=fighter'
p310
aS'w+2=find'
p311
aS'w+2=for'
p312
aS'w+2=formal'
p313
aS'w+2=four'
p314
aS'w+2=go'
p315
aS'w+2=growth'
p316
aS'w+2=harare'
p317
aS'w+2=have'
p318
aS'w+2=hold'
p319
aS'w+2=identity'
p320
aS'w+2=in'
p321
aS'w+2=include'
p322
aS'w+2=its'
p323
aS'w+2=late'
p324
aS'w+2=leverage'
p325
aS'w+2=likely'
p326
aS'w+2=many'
p327
aS'w+2=medical'
p328
aS'w+2=million'
p329
aS'w+2=more'
p330
aS'w+2=name'
p331
aS'w+2=not'
p332
aS'w+2=note'
p333
aS'w+2=of'
p334
aS'w+2=on'
p335
aS'w+2=out'
p336
aS'w+2=parliamentary'
p337
aS'w+2=party'
p338
aS'w+2=people'
p339
aS'w+2=preparation'
p340
aS'w+2=provide'
p341
aS'w+2=rate'
p342
aS'w+2=refugee'
p343
aS'w+2=represent'
p344
aS'w+2=run'
p345
aS'w+2=security'
p346
aS'w+2=suppose'
p347
aS'w+2=take'
p348
aS'w+2=temple'
p349
aS'w+2=than'
p350
aS'w+2=the'
p351
aS'w+2=they'
p352
aS'w+2=to'
p353
aS'w+2=truck'
p354
aS'w+2=turn'
p355
aS'w+2=two-million'
p356
aS'w+2=various'
p357
aS'w+2=voluntary'
p358
aS'w+2=vote'
p359
aS'w+2=voter'
p360
aS'w+2=who'
p361
aS'w+2=worldwide'
p362
aS'w+2=youth'
p363
aS"w-1='"
p364
aS'w-1=,'
p365
aS'w-1=-'
p366
aS'w-1=160,000'
p367
aS'w-1=200,000'
p368
aS'w-1=28,000'
p369
aS'w-1=30,000'
p370
aS'w-1=50'
p371
aS'w-1=900,000'
p372
aS'w-1=920,000'
p373
aS'w-1=Democrats'
p374
aS'w-1=I'
p375
aS'w-1=Islamabad'
p376
aS'w-1=Maoists'
p377
aS'w-1=Romney'
p378
aS'w-1=States'
p379
aS'w-1=a'
p380
aS'w-1=also'
p381
aS'w-1=among'
p382
aS'w-1=and'
p383
aS'w-1=as'
p384
aS'w-1=attack'
p385
aS'w-1=barely'
p386
aS'w-1=be'
p387
aS'w-1=become'
p388
aS'w-1=by'
p389
aS'w-1=capital'
p390
aS'w-1=company'
p391
aS'w-1=could'
p392
aS'w-1=country'
p393
aS'w-1=couple'
p394
aS'w-1=even'
p395
aS'w-1=for'
p396
aS'w-1=formally'
p397
aS'w-1=from'
p398
aS'w-1=get'
p399
aS'w-1=have'
p400
aS'w-1=higher'
p401
aS'w-1=identity'
p402
aS'w-1=in'
p403
aS'w-1=information'
p404
aS'w-1=it'
p405
aS'w-1=many'
p406
aS'w-1=million'
p407
aS'w-1=must'
p408
aS'w-1=new'
p409
aS'w-1=newly'
p410
aS'w-1=not'
p411
aS'w-1=of'
p412
aS'w-1=or'
p413
aS'w-1=other'
p414
aS'w-1=patent'
p415
aS'w-1=people'
p416
aS'w-1=policy'
p417
aS'w-1=precinct'
p418
aS'w-1=properly'
p419
aS'w-1=remain'
p420
aS'w-1=since'
p421
aS'w-1=spot'
p422
aS'w-1=state'
p423
aS'w-1=than'
p424
aS'w-1=that'
p425
aS'w-1=the'
p426
aS'w-1=they'
p427
aS'w-1=to'
p428
aS'w-1=voter'
p429
aS'w-1=while'
p430
aS'w-1=who'
p431
aS'w-1=will'
p432
aS'w-1=worker'
p433
aS'w-1=would'
p434
aS"w-2=''"
p435
aS"w-2='s"
p436
aS'w-2=,'
p437
aS'w-2=.'
p438
aS'w-2=12'
p439
aS'w-2=17'
p440
aS'w-2=18'
p441
aS'w-2=200'
p442
aS'w-2=25,000'
p443
aS'w-2=3.2'
p444
aS'w-2=36'
p445
aS'w-2=45'
p446
aS'w-2=49'
p447
aS'w-2=5.7'
p448
aS'w-2=61'
p449
aS'w-2=7'
p450
aS'w-2=Africa'
p451
aS'w-2=Americans'
p452
aS'w-2=Cambodia'
p453
aS'w-2=EPRDF'
p454
aS'w-2=Hispanics'
p455
aS'w-2=I'
p456
aS'w-2=Ivorians'
p457
aS'w-2=Nations'
p458
aS'w-2=United'
p459
aS'w-2=a'
p460
aS'w-2=all'
p461
aS'w-2=allow'
p462
aS'w-2=also'
p463
aS'w-2=and'
p464
aS'w-2=any'
p465
aS'w-2=around'
p466
aS'w-2=arrive'
p467
aS'w-2=as'
p468
aS'w-2=authentic'
p469
aS'w-2=be'
p470
aS'w-2=can'
p471
aS'w-2=candidate'
p472
aS'w-2=chance'
p473
aS'w-2=company'
p474
aS'w-2=convoy'
p475
aS'w-2=country'
p476
aS'w-2=court'
p477
aS'w-2=death'
p478
aS'w-2=earthquake'
p479
aS'w-2=economy'
p480
aS'w-2=edge'
p481
aS'w-2=election'
p482
aS'w-2=family'
p483
aS'w-2=fee'
p484
aS'w-2=fence'
p485
aS'w-2=fleet'
p486
aS'w-2=form'
p487
aS'w-2=forward'
p488
aS'w-2=get'
p489
aS'w-2=government'
p490
aS'w-2=group'
p491
aS'w-2=have'
p492
aS'w-2=home'
p493
aS'w-2=host'
p494
aS'w-2=identify'
p495
aS'w-2=indicator'
p496
aS'w-2=just'
p497
aS'w-2=land'
p498
aS'w-2=lawyer'
p499
aS'w-2=licens'
p500
aS'w-2=line'
p501
aS'w-2=list'
p502
aS'w-2=lodge'
p503
aS'w-2=million'
p504
aS'w-2=motorbike'
p505
aS'w-2=nation'
p506
aS'w-2=national'
p507
aS'w-2=not'
p508
aS'w-2=of'
p509
aS'w-2=official'
p510
aS'w-2=one'
p511
aS'w-2=papers'
p512
aS'w-2=parent'
p513
aS'w-2=party'
p514
aS'w-2=people'
p515
aS'w-2=percent'
p516
aS'w-2=polish'
p517
aS'w-2=print'
p518
aS'w-2=pro-american'
p519
aS'w-2=race'
p520
aS'w-2=refuse'
p521
aS'w-2=reluctant'
p522
aS'w-2=remain'
p523
aS'w-2=see'
p524
aS'w-2=signature'
p525
aS'w-2=site'
p526
aS'w-2=six'
p527
aS'w-2=southern'
p528
aS'w-2=supporter'
p529
aS'w-2=territory'
p530
aS'w-2=that'
p531
aS'w-2=the'
p532
aS'w-2=they'
p533
aS'w-2=those'
p534
aS'w-2=through'
p535
aS'w-2=time'
p536
aS'w-2=to'
p537
aS'w-2=try'
p538
aS'w-2=violence'
p539
aS'w-2=voter'
p540
aS'w-2=we'
p541
aS'w-2=well'
p542
aS'w-2=when'
p543
aS'w-2=where'
p544
aS'w-2=whether'
p545
aS'w-2=while'
p546
aS'w-2=who'
p547
aS'w-2=will'
p548
aS'w-2=woman'
p549
aS'w-2=worker'
p550
aS'w-2=you'
p551
aS'xcomp=begin'
p552
aS'xcomp=decline'
p553
aS'xcomp=run'
p554
aS'xcomp=take'
p555
aS'xcomp=vote'
p556
asS'dtype'
p557
cnumpy
float64
p558
sS'vocabulary_'
p559
(dp560
g209
I200
sg296
I287
sg131
I122
sg203
I194
sg541
I532
sg515
I506
sg168
I159
sg170
I161
sg251
I242
sg393
I384
sg298
I289
sg482
I473
sg494
I485
sg213
I204
sg497
I488
sg295
I286
sg526
I517
sg486
I477
sg533
I524
sg189
I180
sg254
I245
sg181
I172
sg376
I367
sg148
I139
sg450
I441
sg476
I467
sg259
I250
sg521
I512
sg370
I361
sg146
I137
sg72
I63
sg434
I425
sg342
I333
sg165
I156
sg293
I284
sg385
I376
sg510
I501
sg409
I400
sg356
I347
sg429
I420
sg57
I48
sg248
I239
sg26
I17
sg487
I478
sg237
I228
sg432
I423
sg454
I445
sg110
I101
sg149
I140
sg294
I285
sg389
I380
sg387
I378
sg373
I364
sg95
I86
sg483
I474
sg345
I336
sg536
I527
sg530
I521
sg544
I535
sg410
I401
sg221
I212
sg145
I136
sg377
I368
sg98
I89
sg119
I110
sg18
I9
sg547
I538
sg246
I237
sg423
I414
sg353
I344
sg247
I238
sg12
I3
sg250
I241
sg493
I484
sg451
I442
sg400
I391
sg174
I165
sg321
I312
sg77
I68
sg92
I83
sg133
I124
sg311
I302
sg320
I311
sg361
I352
sg222
I213
sg249
I240
sg58
I49
sg238
I229
sg32
I23
sg278
I269
sg381
I372
sg43
I34
sg93
I84
sg252
I243
sg81
I72
sg309
I300
sg359
I350
sg398
I389
sg421
I412
sg10
I1
sg531
I522
sg505
I496
sg348
I339
sg265
I256
sg292
I283
sg260
I251
sg202
I193
sg491
I482
sg397
I388
sg261
I252
sg163
I154
sg184
I175
sg419
I410
sg49
I40
sg232
I223
sg404
I395
sg38
I29
sg190
I181
sg488
I479
sg540
I531
sg301
I292
sg70
I61
sg212
I203
sg169
I160
sg139
I130
sg183
I174
sg312
I303
sg115
I106
sg158
I149
sg405
I396
sg490
I481
sg449
I440
sg24
I15
sg452
I443
sg403
I394
sg529
I520
sg255
I246
sg426
I417
sg62
I53
sg207
I198
sg120
I111
sg310
I301
sg516
I507
sg107
I98
sg109
I100
sg25
I16
sg326
I317
sg88
I79
sg332
I323
sg100
I91
sg36
I27
sg441
I432
sg440
I431
sg439
I430
sg477
I468
sg406
I397
sg187
I178
sg85
I76
sg479
I470
sg555
I546
sg104
I95
sg535
I526
sg512
I503
sg337
I328
sg160
I151
sg503
I494
sg433
I424
sg509
I500
sg428
I419
sg500
I491
sg330
I321
sg155
I146
sg153
I144
sg87
I78
sg322
I313
sg316
I307
sg396
I387
sg214
I205
sg215
I206
sg234
I225
sg242
I233
sg171
I162
sg159
I150
sg324
I315
sg65
I56
sg230
I221
sg194
I185
sg56
I47
sg473
I464
sg495
I486
sg369
I360
sg223
I214
sg299
I290
sg35
I26
sg27
I18
sg519
I510
sg19
I10
sg114
I105
sg157
I148
sg352
I343
sg290
I281
sg313
I304
sg29
I20
sg275
I266
sg288
I279
sg156
I147
sg94
I85
sg402
I393
sg206
I197
sg50
I41
sg243
I234
sg481
I472
sg329
I320
sg143
I134
sg297
I288
sg378
I369
sg459
I450
sg264
I255
sg17
I8
sg328
I319
sg129
I120
sg9
I0
sg534
I525
sg453
I444
sg141
I132
sg162
I153
sg420
I411
sg416
I407
sg111
I102
sg517
I508
sg498
I489
sg11
I2
sg462
I453
sg435
I426
sg334
I325
sg444
I435
sg335
I326
sg262
I253
sg422
I413
sg21
I12
sg383
I374
sg173
I164
sg280
I271
sg542
I533
sg102
I93
sg22
I13
sg277
I268
sg430
I421
sg68
I59
sg125
I116
sg341
I332
sg253
I244
sg457
I448
sg448
I439
sg436
I427
sg478
I469
sg108
I99
sg14
I5
sg34
I25
sg172
I163
sg281
I272
sg501
I492
sg257
I248
sg126
I117
sg37
I28
sg523
I514
sg415
I406
sg323
I314
sg193
I184
sg308
I299
sg51
I42
sg96
I87
sg191
I182
sg276
I267
sg208
I199
sg23
I14
sg414
I405
sg504
I495
sg121
I112
sg532
I523
sg176
I167
sg463
I454
sg48
I39
sg360
I351
sg362
I353
sg327
I318
sg79
I70
sg15
I6
sg138
I129
sg154
I145
sg192
I183
sg55
I46
sg89
I80
sg527
I518
sg245
I236
sg442
I433
sg339
I330
sg267
I258
sg82
I73
sg472
I463
sg386
I377
sg374
I365
sg506
I497
sg31
I22
sg220
I211
sg306
I297
sg101
I92
sg379
I370
sg465
I456
sg231
I222
sg137
I128
sg273
I264
sg135
I126
sg549
I540
sg40
I31
sg270
I261
sg142
I133
sg41
I32
sg485
I476
sg314
I305
sg371
I362
sg20
I11
sg166
I157
sg475
I466
sg164
I155
sg344
I335
sg73
I64
sg28
I19
sg175
I166
sg492
I483
sg53
I44
sg74
I65
sg446
I437
sg447
I438
sg219
I210
sg216
I207
sg551
I542
sg235
I226
sg543
I534
sg66
I57
sg90
I81
sg289
I280
sg136
I127
sg63
I54
sg196
I187
sg199
I190
sg338
I329
sg347
I338
sg239
I230
sg489
I480
sg127
I118
sg211
I202
sg315
I306
sg524
I515
sg218
I209
sg382
I373
sg325
I316
sg54
I45
sg75
I66
sg258
I249
sg266
I257
sg520
I511
sg282
I273
sg86
I77
sg514
I505
sg300
I291
sg44
I35
sg391
I382
sg307
I298
sg394
I385
sg466
I457
sg177
I168
sg78
I69
sg539
I530
sg46
I37
sg469
I460
sg116
I107
sg302
I293
sg528
I519
sg263
I254
sg354
I345
sg60
I51
sg553
I544
sg470
I461
sg418
I409
sg185
I176
sg186
I177
sg134
I125
sg147
I138
sg319
I310
sg474
I465
sg198
I189
sg52
I43
sg256
I247
sg140
I131
sg274
I265
sg350
I341
sg480
I471
sg303
I294
sg471
I462
sg443
I434
sg39
I30
sg431
I422
sg287
I278
sg413
I404
sg225
I216
sg464
I455
sg554
I545
sg304
I295
sg16
I7
sg458
I449
sg412
I403
sg336
I327
sg537
I528
sg286
I277
sg69
I60
sg401
I392
sg201
I192
sg507
I498
sg269
I260
sg349
I340
sg538
I529
sg511
I502
sg550
I541
sg467
I458
sg188
I179
sg76
I67
sg461
I452
sg268
I259
sg333
I324
sg351
I342
sg180
I171
sg548
I539
sg179
I170
sg445
I436
sg437
I428
sg438
I429
sg106
I97
sg45
I36
sg358
I349
sg364
I355
sg455
I446
sg305
I296
sg84
I75
sg366
I357
sg365
I356
sg508
I499
sg546
I537
sg392
I383
sg229
I220
sg456
I447
sg468
I459
sg67
I58
sg97
I88
sg167
I158
sg178
I169
sg123
I114
sg484
I475
sg388
I379
sg375
I366
sg61
I52
sg227
I218
sg552
I543
sg91
I82
sg71
I62
sg355
I346
sg460
I451
sg427
I418
sg83
I74
sg380
I371
sg150
I141
sg368
I359
sg118
I109
sg346
I337
sg228
I219
sg233
I224
sg144
I135
sg502
I493
sg545
I536
sg417
I408
sg240
I231
sg132
I123
sg357
I348
sg152
I143
sg241
I232
sg99
I90
sg33
I24
sg408
I399
sg130
I121
sg112
I103
sg318
I309
sg556
I547
sg343
I334
sg367
I358
sg128
I119
sg363
I354
sg124
I115
sg205
I196
sg372
I363
sg59
I50
sg224
I215
sg80
I71
sg395
I386
sg499
I490
sg291
I282
sg283
I274
sg496
I487
sg285
I276
sg47
I38
sg217
I208
sg13
I4
sg513
I504
sg331
I322
sg399
I390
sg113
I104
sg244
I235
sg161
I152
sg279
I270
sg195
I186
sg197
I188
sg200
I191
sg103
I94
sg272
I263
sg271
I262
sg117
I108
sg122
I113
sg204
I195
sg182
I173
sg317
I308
sg226
I217
sg390
I381
sg522
I513
sg340
I331
sg210
I201
sg411
I402
sg236
I227
sg518
I509
sg525
I516
sg105
I96
sg424
I415
sg384
I375
sg407
I398
sg151
I142
sg425
I416
sg42
I33
sg64
I55
sg284
I275
sg30
I21
ssS'separator'
p561
S'='
sS'sparse'
p562
I01
sb.