ccopy_reg
_reconstructor
p1
(csklearn.feature_extraction.dict_vectorizer
DictVectorizer
p2
c__builtin__
object
p3
NtRp4
(dp5
S'sort'
p6
I01
sS'feature_names_'
p7
(lp8
S'acomp=american'
p9
aS'acomp=highly'
p10
aS'acomp=much'
p11
aS'acomp=topush'
p12
aS'advcl=#NUMBER#'
p13
aS'advcl=agree'
p14
aS'advcl=approve'
p15
aS'advcl=assert'
p16
aS'advcl=assume'
p17
aS'advcl=award'
p18
aS'advcl=be'
p19
aS'advcl=begin'
p20
aS'advcl=bog'
p21
aS'advcl=case'
p22
aS'advcl=come'
p23
aS'advcl=complete'
p24
aS'advcl=conclude'
p25
aS'advcl=confirm'
p26
aS'advcl=consider'
p27
aS'advcl=continue'
p28
aS'advcl=control'
p29
aS'advcl=debate'
p30
aS'advcl=decide'
p31
aS'advcl=defeat'
p32
aS'advcl=destroy'
p33
aS'advcl=do'
p34
aS'advcl=effective'
p35
aS'advcl=eliminate'
p36
aS'advcl=end'
p37
aS'advcl=enter'
p38
aS'advcl=expect'
p39
aS'advcl=explode'
p40
aS'advcl=feel'
p41
aS'advcl=film'
p42
aS'advcl=focus'
p43
aS'advcl=force'
p44
aS'advcl=get'
p45
aS'advcl=go'
p46
aS'advcl=have'
p47
aS'advcl=in'
p48
aS'advcl=indicate'
p49
aS'advcl=invincible'
p50
aS'advcl=law'
p51
aS'advcl=likely'
p52
aS'advcl=look'
p53
aS'advcl=make'
p54
aS'advcl=meet'
p55
aS'advcl=move'
p56
aS'advcl=plan'
p57
aS'advcl=prefer'
p58
aS'advcl=present'
p59
aS'advcl=provide'
p60
aS'advcl=raise'
p61
aS'advcl=reach'
p62
aS'advcl=recognize'
p63
aS'advcl=reject'
p64
aS'advcl=report'
p65
aS'advcl=respect'
p66
aS'advcl=respond'
p67
aS'advcl=restore'
p68
aS'advcl=schedule'
p69
aS'advcl=secure'
p70
aS'advcl=seek'
p71
aS'advcl=set'
p72
aS'advcl=speculate'
p73
aS'advcl=sponsor'
p74
aS'advcl=start'
p75
aS'advcl=stronghold'
p76
aS'advcl=struggle'
p77
aS'advcl=successful'
p78
aS'advcl=sufficient'
p79
aS'advcl=swear'
p80
aS'advcl=take'
p81
aS'advcl=tell'
p82
aS'advcl=think'
p83
aS'advcl=try'
p84
aS'advcl=visit'
p85
aS'advcl=vote'
p86
aS'advcl=win'
p87
aS'advcl=without'
p88
aS'advcl=work'
p89
aS'advcl=worry'
p90
aS'advmod=#PRP#'
p91
aS'advmod=actually'
p92
aS'advmod=ahead'
p93
aS'advmod=all'
p94
aS'advmod=almost'
p95
aS'advmod=along'
p96
aS'advmod=already'
p97
aS'advmod=also'
p98
aS'advmod=always'
p99
aS'advmod=anyway'
p100
aS'advmod=as'
p101
aS'advmod=aside'
p102
aS'advmod=back'
p103
aS'advmod=before'
p104
aS'advmod=better'
p105
aS'advmod=both'
p106
aS'advmod=certainly'
p107
aS'advmod=currently'
p108
aS'advmod=definitely'
p109
aS'advmod=eagerly'
p110
aS'advmod=early'
p111
aS'advmod=either'
p112
aS'advmod=even'
p113
aS'advmod=eventually'
p114
aS'advmod=ever'
p115
aS'advmod=fully'
p116
aS'advmod=here'
p117
aS'advmod=how'
p118
aS'advmod=however'
p119
aS'advmod=illegally'
p120
aS'advmod=indeed'
p121
aS'advmod=just'
p122
aS'advmod=later'
p123
aS'advmod=less'
p124
aS'advmod=long'
p125
aS'advmod=longer'
p126
aS'advmod=matter'
p127
aS'advmod=meanwhile'
p128
aS'advmod=more'
p129
aS'advmod=much'
p130
aS'advmod=naturally'
p131
aS'advmod=nevertheless'
p132
aS'advmod=now'
p133
aS'advmod=once'
p134
aS'advmod=only'
p135
aS'advmod=originally'
p136
aS'advmod=otherwise'
p137
aS'advmod=previously'
p138
aS'advmod=probably'
p139
aS'advmod=quickly'
p140
aS'advmod=really'
p141
aS'advmod=reasonably'
p142
aS'advmod=regardless'
p143
aS'advmod=rightly'
p144
aS'advmod=sadly'
p145
aS'advmod=so'
p146
aS'advmod=somehow'
p147
aS'advmod=sometime'
p148
aS'advmod=soon'
p149
aS'advmod=still'
p150
aS'advmod=than'
p151
aS'advmod=then'
p152
aS'advmod=todraw'
p153
aS'advmod=together'
p154
aS'advmod=well'
p155
aS'advmod=when'
p156
aS'advmod=where'
p157
aS'advmod=why'
p158
aS'advmod=widely'
p159
aS'advmod=worldwide'
p160
aS"aux='ll"
p161
aS'aux=be'
p162
aS'aux=can'
p163
aS'aux=could'
p164
aS'aux=do'
p165
aS'aux=have'
p166
aS'aux=might'
p167
aS'aux=must'
p168
aS'aux=should'
p169
aS'aux=to'
p170
aS'aux=will'
p171
aS'aux=would'
p172
aS'auxpass=be'
p173
aS'cc=and'
p174
aS'cc=but'
p175
aS'cc=or'
p176
aS'ccomp=#NUMBER#'
p177
aS'ccomp=able'
p178
aS'ccomp=achieve'
p179
aS'ccomp=add'
p180
aS'ccomp=allow'
p181
aS'ccomp=arrest'
p182
aS'ccomp=attempt'
p183
aS'ccomp=available'
p184
aS'ccomp=be'
p185
aS'ccomp=begin'
p186
aS'ccomp=cause'
p187
aS'ccomp=claim'
p188
aS'ccomp=close'
p189
aS'ccomp=come'
p190
aS'ccomp=complete'
p191
aS'ccomp=confirm'
p192
aS'ccomp=consume'
p193
aS'ccomp=continue'
p194
aS'ccomp=debate'
p195
aS'ccomp=decade'
p196
aS'ccomp=defect'
p197
aS'ccomp=defend'
p198
aS'ccomp=depress'
p199
aS'ccomp=discuss'
p200
aS'ccomp=discussion'
p201
aS'ccomp=do'
p202
aS'ccomp=doctor'
p203
aS'ccomp=double'
p204
aS'ccomp=easy'
p205
aS'ccomp=elapse'
p206
aS'ccomp=election'
p207
aS'ccomp=engulf'
p208
aS'ccomp=enter'
p209
aS'ccomp=exceed'
p210
aS'ccomp=expand'
p211
aS'ccomp=flat'
p212
aS'ccomp=fly'
p213
aS'ccomp=focus'
p214
aS'ccomp=follow'
p215
aS'ccomp=free'
p216
aS'ccomp=fulfill'
p217
aS'ccomp=fund'
p218
aS'ccomp=get'
p219
aS'ccomp=go'
p220
aS'ccomp=green'
p221
aS'ccomp=grill'
p222
aS'ccomp=grow'
p223
aS'ccomp=happen'
p224
aS'ccomp=have'
p225
aS'ccomp=help'
p226
aS'ccomp=higher'
p227
aS'ccomp=impose'
p228
aS'ccomp=include'
p229
aS'ccomp=increase'
p230
aS'ccomp=involve'
p231
aS'ccomp=issue'
p232
aS'ccomp=lay'
p233
aS'ccomp=leader'
p234
aS'ccomp=let'
p235
aS'ccomp=likely'
p236
aS'ccomp=listen'
p237
aS'ccomp=make'
p238
aS'ccomp=meet'
p239
aS'ccomp=more'
p240
aS'ccomp=move'
p241
aS'ccomp=need'
p242
aS'ccomp=number'
p243
aS'ccomp=obstacle'
p244
aS'ccomp=operate'
p245
aS'ccomp=oppose'
p246
aS'ccomp=people'
p247
aS'ccomp=pilgrim'
p248
aS'ccomp=produce'
p249
aS'ccomp=provide'
p250
aS'ccomp=pursue'
p251
aS'ccomp=raise'
p252
aS'ccomp=rally'
p253
aS'ccomp=release'
p254
aS'ccomp=remain'
p255
aS'ccomp=resolve'
p256
aS'ccomp=response'
p257
aS'ccomp=return'
p258
aS'ccomp=say'
p259
aS'ccomp=see'
p260
aS'ccomp=showdown'
p261
aS'ccomp=state'
p262
aS'ccomp=stay'
p263
aS'ccomp=succeed'
p264
aS'ccomp=survive'
p265
aS'ccomp=take'
p266
aS'ccomp=talk'
p267
aS'ccomp=tolerate'
p268
aS'ccomp=treat'
p269
aS'ccomp=turn'
p270
aS'ccomp=use'
p271
aS'ccomp=vote-getter'
p272
aS'ccomp=want'
p273
aS'ccomp=wave'
p274
aS'ccomp=will'
p275
aS'ccomp=win'
p276
aS'ccomp=work'
p277
aS'complm=that'
p278
aS'complm=whether'
p279
aS'conj=#DATE#'
p280
aS'conj=add'
p281
aS'conj=affect'
p282
aS'conj=aid'
p283
aS'conj=ally'
p284
aS'conj=alternative'
p285
aS'conj=approve'
p286
aS'conj=argue'
p287
aS'conj=at'
p288
aS'conj=available'
p289
aS'conj=avoid'
p290
aS'conj=be'
p291
aS'conj=begin'
p292
aS'conj=believe'
p293
aS'conj=brief'
p294
aS'conj=call'
p295
aS'conj=challenge'
p296
aS'conj=clear'
p297
aS'conj=continue'
p298
aS'conj=cool'
p299
aS'conj=cost'
p300
aS'conj=difficult'
p301
aS'conj=do'
p302
aS'conj=early'
p303
aS'conj=enter'
p304
aS'conj=expect'
p305
aS'conj=fail'
p306
aS'conj=feel'
p307
aS'conj=file'
p308
aS'conj=find'
p309
aS'conj=follow'
p310
aS'conj=form'
p311
aS'conj=get'
p312
aS'conj=go'
p313
aS'conj=have'
p314
aS'conj=heavier'
p315
aS'conj=hit'
p316
aS'conj=hope'
p317
aS'conj=in'
p318
aS'conj=last'
p319
aS'conj=life'
p320
aS'conj=likely'
p321
aS'conj=look'
p322
aS'conj=lose'
p323
aS'conj=low'
p324
aS'conj=maintain'
p325
aS'conj=make'
p326
aS'conj=meet'
p327
aS'conj=move'
p328
aS'conj=much'
p329
aS'conj=need'
p330
aS'conj=news'
p331
aS'conj=on'
p332
aS'conj=part'
p333
aS'conj=plan'
p334
aS'conj=play'
p335
aS'conj=predict'
p336
aS'conj=prepare'
p337
aS'conj=pressure'
p338
aS'conj=push'
p339
aS'conj=put'
p340
aS'conj=question'
p341
aS'conj=raise'
p342
aS'conj=ready'
p343
aS'conj=recognize'
p344
aS'conj=reduce'
p345
aS'conj=remain'
p346
aS'conj=request'
p347
aS'conj=restore'
p348
aS'conj=result'
p349
aS'conj=resume'
p350
aS'conj=say'
p351
aS'conj=see'
p352
aS'conj=seek'
p353
aS'conj=set'
p354
aS'conj=strike'
p355
aS'conj=talk'
p356
aS'conj=tell'
p357
aS'conj=think'
p358
aS'conj=threaten'
p359
aS'conj=unclear'
p360
aS'conj=unlikely'
p361
aS'conj=urge'
p362
aS'conj=want'
p363
aS'conj=watch'
p364
aS'conj=with'
p365
aS'csubj=do'
p366
aS'csubj=likely'
p367
aS'csubj=think'
p368
aS'csubjpass=learn'
p369
aS'csubjpass=say'
p370
aS'csubjpass=start'
p371
aS'dep=#DATE#'
p372
aS'dep=allocate'
p373
aS'dep=arrive'
p374
aS'dep=as'
p375
aS'dep=before'
p376
aS'dep=bigger'
p377
aS'dep=clear'
p378
aS'dep=commission'
p379
aS'dep=complete'
p380
aS'dep=continue'
p381
aS'dep=cut'
p382
aS'dep=do'
p383
aS'dep=full'
p384
aS'dep=have'
p385
aS'dep=if'
p386
aS'dep=iraqi'
p387
aS'dep=now'
p388
aS'dep=of'
p389
aS'dep=reckon'
p390
aS'dep=report'
p391
aS'dep=request'
p392
aS'dep=result'
p393
aS'dep=ruling'
p394
aS'dep=run'
p395
aS'dep=say'
p396
aS'dep=see'
p397
aS'dep=so'
p398
aS'dep=take'
p399
aS'dep=than'
p400
aS'dep=that'
p401
aS'dep=try'
p402
aS'dep=turnout'
p403
aS'dep=well'
p404
aS'dep=what'
p405
aS'dep=which'
p406
aS'dep=whose'
p407
aS'dep=yeah'
p408
aS'dobj=#NUMBER#'
p409
aS'dobj=#PRP#'
p410
aS'dobj=$'
p411
aS'dobj=African-Americans'
p412
aS'dobj=Clinton'
p413
aS'dobj=House'
p414
aS'dobj=Koreans'
p415
aS'dobj=Nasional'
p416
aS'dobj=States'
p417
aS'dobj=a'
p418
aS'dobj=action'
p419
aS'dobj=activity'
p420
aS'dobj=ad'
p421
aS'dobj=aid'
p422
aS'dobj=all'
p423
aS'dobj=ally'
p424
aS'dobj=anger'
p425
aS'dobj=announcement'
p426
aS'dobj=answer'
p427
aS'dobj=any'
p428
aS'dobj=anybody'
p429
aS'dobj=anything'
p430
aS'dobj=arrest'
p431
aS'dobj=assistance'
p432
aS'dobj=attack'
p433
aS'dobj=authority'
p434
aS'dobj=bank'
p435
aS'dobj=battle'
p436
aS'dobj=bombing'
p437
aS'dobj=breakthrough'
p438
aS'dobj=candidate'
p439
aS'dobj=casualty'
p440
aS'dobj=challenge'
p441
aS'dobj=change'
p442
aS'dobj=child'
p443
aS'dobj=cholera'
p444
aS'dobj=citizen'
p445
aS'dobj=clash'
p446
aS'dobj=cloning'
p447
aS'dobj=clout'
p448
aS'dobj=coalition'
p449
aS'dobj=colleague'
p450
aS'dobj=collection'
p451
aS'dobj=command'
p452
aS'dobj=committee'
p453
aS'dobj=competition'
p454
aS'dobj=compliance'
p455
aS'dobj=concession'
p456
aS'dobj=condemnation'
p457
aS'dobj=conference'
p458
aS'dobj=confrontation'
p459
aS'dobj=consultation'
p460
aS'dobj=contender'
p461
aS'dobj=continuity'
p462
aS'dobj=cooperation'
p463
aS'dobj=cooperative'
p464
aS'dobj=country'
p465
aS'dobj=crisis'
p466
aS'dobj=day'
p467
aS'dobj=declaration'
p468
aS'dobj=degree'
p469
aS'dobj=delegation'
p470
aS'dobj=demand'
p471
aS'dobj=demonstration'
p472
aS'dobj=deputy'
p473
aS'dobj=deterioration'
p474
aS'dobj=development'
p475
aS'dobj=dialogue'
p476
aS'dobj=disclosure'
p477
aS'dobj=discussion'
p478
aS'dobj=doctor'
p479
aS'dobj=document'
p480
aS'dobj=downturn'
p481
aS'dobj=dryer'
p482
aS'dobj=economy'
p483
aS'dobj=effort'
p484
aS'dobj=either'
p485
aS'dobj=emergency'
p486
aS'dobj=end'
p487
aS'dobj=environmentalist'
p488
aS'dobj=eruption'
p489
aS'dobj=evolution'
p490
aS'dobj=export'
p491
aS'dobj=falloff'
p492
aS'dobj=family'
p493
aS'dobj=fighting'
p494
aS'dobj=figure'
p495
aS'dobj=flooding'
p496
aS'dobj=force'
p497
aS'dobj=fortune'
p498
aS'dobj=fraud'
p499
aS'dobj=fund'
p500
aS'dobj=gain'
p501
aS'dobj=generation'
p502
aS'dobj=government'
p503
aS'dobj=growth'
p504
aS'dobj=guest'
p505
aS'dobj=half'
p506
aS'dobj=harvest'
p507
aS'dobj=impact'
p508
aS'dobj=improvement'
p509
aS'dobj=increase'
p510
aS'dobj=inflation'
p511
aS'dobj=insurgent'
p512
aS'dobj=investigation'
p513
aS'dobj=kind'
p514
aS'dobj=landslide'
p515
aS'dobj=language'
p516
aS'dobj=leader'
p517
aS'dobj=legislature'
p518
aS'dobj=letter'
p519
aS'dobj=lifetime'
p520
aS'dobj=lot'
p521
aS'dobj=map'
p522
aS'dobj=margin'
p523
aS'dobj=market'
p524
aS'dobj=mayor'
p525
aS'dobj=meat'
p526
aS'dobj=meeting'
p527
aS'dobj=member'
p528
aS'dobj=mention'
p529
aS'dobj=military'
p530
aS'dobj=minister'
p531
aS'dobj=model'
p532
aS'dobj=more'
p533
aS'dobj=name'
p534
aS'dobj=negotiation'
p535
aS'dobj=news'
p536
aS'dobj=nothing'
p537
aS'dobj=number'
p538
aS'dobj=obstacle'
p539
aS'dobj=onslaught'
p540
aS'dobj=organization'
p541
aS'dobj=other'
p542
aS'dobj=outcome'
p543
aS'dobj=participation'
p544
aS'dobj=party'
p545
aS'dobj=passion'
p546
aS'dobj=penalty'
p547
aS'dobj=people'
p548
aS'dobj=percentage'
p549
aS'dobj=policy'
p550
aS'dobj=presentation'
p551
aS'dobj=press'
p552
aS'dobj=price'
p553
aS'dobj=procedure'
p554
aS'dobj=process'
p555
aS'dobj=profit'
p556
aS'dobj=program'
p557
aS'dobj=progress'
p558
aS'dobj=prosecution'
p559
aS'dobj=prospects'
p560
aS'dobj=quart'
p561
aS'dobj=question'
p562
aS'dobj=rain'
p563
aS'dobj=re-shuffle'
p564
aS'dobj=reaction'
p565
aS'dobj=recession'
p566
aS'dobj=reconciliation'
p567
aS'dobj=reduction'
p568
aS'dobj=regime'
p569
aS'dobj=remedy'
p570
aS'dobj=report'
p571
aS'dobj=response'
p572
aS'dobj=restoration'
p573
aS'dobj=restructuring'
p574
aS'dobj=result'
p575
aS'dobj=revenue'
p576
aS'dobj=revival'
p577
aS'dobj=rift'
p578
aS'dobj=rigging'
p579
aS'dobj=rise'
p580
aS'dobj=rival'
p581
aS'dobj=road'
p582
aS'dobj=ruling'
p583
aS'dobj=safety'
p584
aS'dobj=same'
p585
aS'dobj=sanction'
p586
aS'dobj=score'
p587
aS'dobj=secret'
p588
aS'dobj=sector'
p589
aS'dobj=shift'
p590
aS'dobj=shortage'
p591
aS'dobj=side'
p592
aS'dobj=solution'
p593
aS'dobj=something'
p594
aS'dobj=state'
p595
aS'dobj=statement'
p596
aS'dobj=strain'
p597
aS'dobj=strategy'
p598
aS'dobj=strife'
p599
aS'dobj=struggle'
p600
aS'dobj=style'
p601
aS'dobj=success'
p602
aS'dobj=superdelegate'
p603
aS'dobj=support'
p604
aS'dobj=surprise'
p605
aS'dobj=sweep'
p606
aS'dobj=talk'
p607
aS'dobj=tension'
p608
aS'dobj=terror'
p609
aS'dobj=that'
p610
aS'dobj=the'
p611
aS'dobj=these'
p612
aS'dobj=thing'
p613
aS'dobj=this'
p614
aS'dobj=tomorrow'
p615
aS'dobj=transition'
p616
aS'dobj=transmission'
p617
aS'dobj=tree'
p618
aS'dobj=trend'
p619
aS'dobj=troika'
p620
aS'dobj=troops'
p621
aS'dobj=trouble'
p622
aS'dobj=turnout'
p623
aS'dobj=victory'
p624
aS'dobj=vigilance'
p625
aS'dobj=violence'
p626
aS'dobj=visit'
p627
aS'dobj=visitor'
p628
aS'dobj=volatility'
p629
aS'dobj=vote'
p630
aS'dobj=wave'
p631
aS'dobj=weather'
p632
aS'dobj=week'
p633
aS'dobj=welcome'
p634
aS'dobj=what'
p635
aS'dobj=which'
p636
aS'dobj=whom'
p637
aS'dobj=will'
p638
aS'dobj=winner'
p639
aS'dobj=woman'
p640
aS'dobj=wrangling'
p641
aS'expl=there'
p642
aS'mark=about'
p643
aS'mark=although'
p644
aS'mark=as'
p645
aS'mark=because'
p646
aS'mark=before'
p647
aS'mark=for'
p648
aS'mark=if'
p649
aS'mark=since'
p650
aS'mark=so'
p651
aS'mark=than'
p652
aS'mark=though'
p653
aS'mark=whereas'
p654
aS'mark=while'
p655
aS'mark=with'
p656
aS'neg=never'
p657
aS'neg=not'
p658
aS'nsubj=#NUMBER#'
p659
aS'nsubj=#PRP#'
p660
aS'nsubj=Afghanistan'
p661
aS'nsubj=Africa'
p662
aS'nsubj=Ali'
p663
aS'nsubj=Amano'
p664
aS'nsubj=Americans'
p665
aS'nsubj=Australia'
p666
aS'nsubj=Bacevich'
p667
aS'nsubj=Balch'
p668
aS'nsubj=Bank'
p669
aS'nsubj=Bush'
p670
aS'nsubj=China'
p671
aS'nsubj=Cirincione'
p672
aS'nsubj=Council'
p673
aS'nsubj=Cubans'
p674
aS'nsubj=Dannatt'
p675
aS'nsubj=Democrats'
p676
aS'nsubj=Department'
p677
aS'nsubj=E.U.'
p678
aS'nsubj=Fatah'
p679
aS'nsubj=Feiglin'
p680
aS'nsubj=Fortier'
p681
aS'nsubj=Fowler'
p682
aS'nsubj=GIA'
p683
aS'nsubj=Gardner'
p684
aS'nsubj=Gerard'
p685
aS'nsubj=Goodson'
p686
aS'nsubj=Hoya'
p687
aS'nsubj=Hoyer'
p688
aS'nsubj=Hussain'
p689
aS'nsubj=Iran'
p690
aS'nsubj=Iranis'
p691
aS'nsubj=Iraq'
p692
aS'nsubj=Iraqis'
p693
aS'nsubj=Islamabad'
p694
aS'nsubj=Israel'
p695
aS'nsubj=Jeong'
p696
aS'nsubj=Jiangguang'
p697
aS'nsubj=June'
p698
aS'nsubj=Kenyans'
p699
aS'nsubj=Kibaki'
p700
aS'nsubj=Kodi'
p701
aS'nsubj=Kohut'
p702
aS'nsubj=Korea'
p703
aS'nsubj=Krzyzewski'
p704
aS'nsubj=Lee'
p705
aS'nsubj=Lopez'
p706
aS'nsubj=Lytvynenko'
p707
aS'nsubj=Mbeki'
p708
aS'nsubj=Mehboob'
p709
aS'nsubj=Mueller'
p710
aS'nsubj=Nahata'
p711
aS'nsubj=Nigeria'
p712
aS'nsubj=Organization'
p713
aS'nsubj=Palestinians'
p714
aS'nsubj=Penn'
p715
aS'nsubj=Potts'
p716
aS'nsubj=President'
p717
aS'nsubj=Republicans'
p718
aS'nsubj=Reynold'
p719
aS'nsubj=Rice'
p720
aS'nsubj=Rollins'
p721
aS'nsubj=Rothenberg'
p722
aS'nsubj=Rynne'
p723
aS'nsubj=Savani'
p724
aS'nsubj=Secretary'
p725
aS'nsubj=Shapiro'
p726
aS'nsubj=Sharga'
p727
aS'nsubj=Siwaily'
p728
aS'nsubj=States'
p729
aS'nsubj=Stothard'
p730
aS'nsubj=Thais'
p731
aS'nsubj=U.S.'
p732
aS'nsubj=UNHCR'
p733
aS'nsubj=Valasek'
p734
aS'nsubj=Volvo'
p735
aS'nsubj=Washington'
p736
aS'nsubj=Wiggins'
p737
aS'nsubj=Wolfson'
p738
aS'nsubj=administration'
p739
aS'nsubj=agency'
p740
aS'nsubj=al-Omari'
p741
aS'nsubj=analysis'
p742
aS'nsubj=analyst'
p743
aS'nsubj=anyone'
p744
aS'nsubj=audience'
p745
aS'nsubj=authority'
p746
aS'nsubj=baby'
p747
aS'nsubj=bank'
p748
aS'nsubj=center'
p749
aS'nsubj=chef'
p750
aS'nsubj=coalition'
p751
aS'nsubj=command'
p752
aS'nsubj=commander'
p753
aS'nsubj=commander-in-chief'
p754
aS'nsubj=commission'
p755
aS'nsubj=community'
p756
aS'nsubj=company'
p757
aS'nsubj=congress'
p758
aS'nsubj=consumer'
p759
aS'nsubj=consuming'
p760
aS'nsubj=country'
p761
aS'nsubj=cuba-watcher'
p762
aS'nsubj=customer'
p763
aS'nsubj=delegate'
p764
aS'nsubj=delegation'
p765
aS'nsubj=dollar'
p766
aS'nsubj=economist'
p767
aS'nsubj=editor'
p768
aS'nsubj=epidemoliogist'
p769
aS'nsubj=everyone'
p770
aS'nsubj=expert'
p771
aS'nsubj=fan'
p772
aS'nsubj=farm'
p773
aS'nsubj=faster'
p774
aS'nsubj=few'
p775
aS'nsubj=flood'
p776
aS'nsubj=forecaster'
p777
aS'nsubj=game'
p778
aS'nsubj=government'
p779
aS'nsubj=industry'
p780
aS'nsubj=inflation'
p781
aS'nsubj=investor'
p782
aS'nsubj=israeli'
p783
aS'nsubj=kenyan'
p784
aS'nsubj=label'
p785
aS'nsubj=leader'
p786
aS'nsubj=least'
p787
aS'nsubj=lender'
p788
aS'nsubj=maker'
p789
aS'nsubj=many'
p790
aS'nsubj=market'
p791
aS'nsubj=mass'
p792
aS'nsubj=member'
p793
aS'nsubj=military'
p794
aS'nsubj=most'
p795
aS'nsubj=n-o-t'
p796
aS'nsubj=nation'
p797
aS'nsubj=negotiator'
p798
aS'nsubj=ngo'
p799
aS'nsubj=no-one'
p800
aS'nsubj=nobody'
p801
aS'nsubj=none'
p802
aS'nsubj=number'
p803
aS'nsubj=nurse'
p804
aS'nsubj=observer'
p805
aS'nsubj=officer'
p806
aS'nsubj=official'
p807
aS'nsubj=opponent'
p808
aS'nsubj=opposition'
p809
aS'nsubj=organizer'
p810
aS'nsubj=panel'
p811
aS'nsubj=park'
p812
aS'nsubj=parliament'
p813
aS'nsubj=party'
p814
aS'nsubj=passenger'
p815
aS'nsubj=patient'
p816
aS'nsubj=people'
p817
aS'nsubj=percent'
p818
aS'nsubj=planet'
p819
aS'nsubj=politician'
p820
aS'nsubj=president'
p821
aS'nsubj=process'
p822
aS'nsubj=prosecutor'
p823
aS'nsubj=protester'
p824
aS'nsubj=region'
p825
aS'nsubj=reluctance'
p826
aS'nsubj=researcher'
p827
aS'nsubj=responsibility'
p828
aS'nsubj=rival'
p829
aS'nsubj=salesman'
p830
aS'nsubj=scientist'
p831
aS'nsubj=some'
p832
aS'nsubj=staff'
p833
aS'nsubj=team'
p834
aS'nsubj=that'
p835
aS'nsubj=the'
p836
aS'nsubj=trader'
p837
aS'nsubj=troops'
p838
aS'nsubj=visitor'
p839
aS'nsubj=voter'
p840
aS'nsubj=what'
p841
aS'nsubj=who'
p842
aS'nsubj=worker'
p843
aS'nsubj=year'
p844
aS'nsubjpass=#NUMBER#'
p845
aS'nsubjpass=#PRP#'
p846
aS'nsubjpass=AFRICOM'
p847
aS'nsubjpass=Abbas'
p848
aS'nsubjpass=Afganistan'
p849
aS'nsubjpass=Afghanistan'
p850
aS'nsubjpass=AfriCom'
p851
aS'nsubjpass=Africa'
p852
aS'nsubjpass=Albania'
p853
aS'nsubjpass=Ankara'
p854
aS'nsubjpass=Annan'
p855
aS'nsubjpass=Arroyo'
p856
aS'nsubjpass=Ashton'
p857
aS'nsubjpass=Assembly'
p858
aS'nsubjpass=Azerbaijan'
p859
aS'nsubjpass=Aziz'
p860
aS'nsubjpass=Badawi'
p861
aS'nsubjpass=Ban'
p862
aS'nsubjpass=Bank'
p863
aS'nsubjpass=Barak'
p864
aS'nsubjpass=Barroso'
p865
aS'nsubjpass=Bashir'
p866
aS'nsubjpass=Benedict'
p867
aS'nsubjpass=Berlusconi'
p868
aS'nsubjpass=Blair'
p869
aS'nsubjpass=Boehner'
p870
aS'nsubjpass=Brown'
p871
aS'nsubjpass=Bush'
p872
aS'nsubjpass=Bushehr'
p873
aS'nsubjpass=Cabinet'
p874
aS'nsubjpass=Chavez'
p875
aS'nsubjpass=Cheney'
p876
aS'nsubjpass=Chertoff'
p877
aS'nsubjpass=China'
p878
aS'nsubjpass=Christian'
p879
aS'nsubjpass=Clinton'
p880
aS'nsubjpass=Commission'
p881
aS'nsubjpass=Committee'
p882
aS'nsubjpass=Congress'
p883
aS'nsubjpass=Court'
p884
aS'nsubjpass=Craig'
p885
aS'nsubjpass=Day'
p886
aS'nsubjpass=Delegates'
p887
aS'nsubjpass=EU'
p888
aS'nsubjpass=Elizabeth'
p889
aS'nsubjpass=Ethiopia'
p890
aS'nsubjpass=Fallon'
p891
aS'nsubjpass=France'
p892
aS'nsubjpass=Fukuda'
p893
aS'nsubjpass=Gates'
p894
aS'nsubjpass=Gbagbo'
p895
aS'nsubjpass=Ghaly'
p896
aS'nsubjpass=Hagel'
p897
aS'nsubjpass=Hampshire'
p898
aS'nsubjpass=Heinonen'
p899
aS'nsubjpass=Hill'
p900
aS'nsubjpass=Hoi-chang'
p901
aS'nsubjpass=House'
p902
aS'nsubjpass=Il'
p903
aS'nsubjpass=Improvements'
p904
aS'nsubjpass=India'
p905
aS'nsubjpass=Indonesia'
p906
aS'nsubjpass=Iraq'
p907
aS'nsubjpass=Israel'
p908
aS'nsubjpass=Japan'
p909
aS'nsubjpass=Jones'
p910
aS'nsubjpass=Kenya'
p911
aS'nsubjpass=Kerry'
p912
aS'nsubjpass=Kibaki'
p913
aS'nsubjpass=Kim'
p914
aS'nsubjpass=Korea'
p915
aS'nsubjpass=Kosovo'
p916
aS'nsubjpass=Lavrov'
p917
aS'nsubjpass=League'
p918
aS'nsubjpass=Lee'
p919
aS'nsubjpass=Lieberman'
p920
aS'nsubjpass=Life'
p921
aS'nsubjpass=Lucy'
p922
aS'nsubjpass=Mbeki'
p923
aS'nsubjpass=McCain'
p924
aS'nsubjpass=Merkel'
p925
aS'nsubjpass=Millionaire'
p926
aS'nsubjpass=Ministers'
p927
aS'nsubjpass=Mission'
p928
aS'nsubjpass=Movement'
p929
aS'nsubjpass=Mugabe'
p930
aS'nsubjpass=Mullen'
p931
aS'nsubjpass=Musharraf'
p932
aS'nsubjpass=Mwanawasa'
p933
aS'nsubjpass=Nations'
p934
aS'nsubjpass=Nina'
p935
aS'nsubjpass=No.'
p936
aS'nsubjpass=OPEC'
p937
aS'nsubjpass=Obama'
p938
aS'nsubjpass=Obiang'
p939
aS'nsubjpass=Odinga'
p940
aS'nsubjpass=Organization'
p941
aS'nsubjpass=PPP'
p942
aS'nsubjpass=Pakistan'
p943
aS'nsubjpass=Party'
p944
aS'nsubjpass=Patil'
p945
aS'nsubjpass=Petraeus'
p946
aS'nsubjpass=Pohamba'
p947
aS'nsubjpass=Putin'
p948
aS'nsubjpass=Republicans'
p949
aS'nsubjpass=Ribadu'
p950
aS'nsubjpass=Rice'
p951
aS'nsubjpass=Richardson'
p952
aS'nsubjpass=Roh'
p953
aS'nsubjpass=Rudd'
p954
aS'nsubjpass=Russia'
p955
aS'nsubjpass=Sam'
p956
aS'nsubjpass=Samphan'
p957
aS'nsubjpass=San'
p958
aS'nsubjpass=Sarkisian'
p959
aS'nsubjpass=Sarkozy'
p960
aS'nsubjpass=Secretary'
p961
aS'nsubjpass=Senate'
p962
aS'nsubjpass=Sharif'
p963
aS'nsubjpass=Show'
p964
aS'nsubjpass=Siniora'
p965
aS'nsubjpass=Skywalk'
p966
aS'nsubjpass=Smith'
p967
aS'nsubjpass=Soaringfood'
p968
aS'nsubjpass=Southerners'
p969
aS'nsubjpass=States'
p970
aS'nsubjpass=Sudan'
p971
aS'nsubjpass=Sudanese'
p972
aS'nsubjpass=Suleiman'
p973
aS'nsubjpass=Sunnis'
p974
aS'nsubjpass=Teachers'
p975
aS'nsubjpass=Thinley'
p976
aS'nsubjpass=Thompson'
p977
aS'nsubjpass=Toure'
p978
aS'nsubjpass=Trees'
p979
aS'nsubjpass=Tsvangirai'
p980
aS'nsubjpass=U.S.'
p981
aS'nsubjpass=Union'
p982
aS'nsubjpass=Washington'
p983
aS'nsubjpass=Yusuf'
p984
aS'nsubjpass=Zardari'
p985
aS'nsubjpass=Zimbabwe'
p986
aS'nsubjpass=administration'
p987
aS'nsubjpass=advocate'
p988
aS'nsubjpass=agenda'
p989
aS'nsubjpass=agreement'
p990
aS'nsubjpass=aid'
p991
aS'nsubjpass=akp'
p992
aS'nsubjpass=al-Bashir'
p993
aS'nsubjpass=ally'
p994
aS'nsubjpass=ambassador'
p995
aS'nsubjpass=amendment'
p996
aS'nsubjpass=announcement'
p997
aS'nsubjpass=application'
p998
aS'nsubjpass=argentine'
p999
aS'nsubjpass=arrangement'
p1000
aS'nsubjpass=arrest'
p1001
aS'nsubjpass=arrival'
p1002
aS'nsubjpass=assembly'
p1003
aS'nsubjpass=attack'
p1004
aS'nsubjpass=au'
p1005
aS'nsubjpass=audience'
p1006
aS'nsubjpass=authority'
p1007
aS'nsubjpass=banana'
p1008
aS'nsubjpass=battle'
p1009
aS'nsubjpass=beach'
p1010
aS'nsubjpass=beef'
p1011
aS'nsubjpass=bill'
p1012
aS'nsubjpass=breakthrough'
p1013
aS'nsubjpass=brigade'
p1014
aS'nsubjpass=business'
p1015
aS'nsubjpass=byut'
p1016
aS'nsubjpass=campaign'
p1017
aS'nsubjpass=candidate'
p1018
aS'nsubjpass=car'
p1019
aS'nsubjpass=case'
p1020
aS'nsubjpass=celebration'
p1021
aS'nsubjpass=chairmanship'
p1022
aS'nsubjpass=challenge'
p1023
aS'nsubjpass=chamber'
p1024
aS'nsubjpass=change'
p1025
aS'nsubjpass=charge'
p1026
aS'nsubjpass=charter'
p1027
aS'nsubjpass=city'
p1028
aS'nsubjpass=club'
p1029
aS'nsubjpass=co-prosecutor'
p1030
aS'nsubjpass=collapse'
p1031
aS'nsubjpass=command'
p1032
aS'nsubjpass=commander'
p1033
aS'nsubjpass=commission'
p1034
aS'nsubjpass=commitment'
p1035
aS'nsubjpass=committee'
p1036
aS'nsubjpass=community'
p1037
aS'nsubjpass=company'
p1038
aS'nsubjpass=complication'
p1039
aS'nsubjpass=conference'
p1040
aS'nsubjpass=conservative'
p1041
aS'nsubjpass=construction'
p1042
aS'nsubjpass=consumption'
p1043
aS'nsubjpass=contents'
p1044
aS'nsubjpass=contract'
p1045
aS'nsubjpass=cost'
p1046
aS'nsubjpass=country'
p1047
aS'nsubjpass=court'
p1048
aS'nsubjpass=crackdown'
p1049
aS'nsubjpass=crew'
p1050
aS'nsubjpass=criticism'
p1051
aS'nsubjpass=crowd'
p1052
aS'nsubjpass=current'
p1053
aS'nsubjpass=date'
p1054
aS'nsubjpass=datum'
p1055
aS'nsubjpass=deal'
p1056
aS'nsubjpass=death'
p1057
aS'nsubjpass=debate'
p1058
aS'nsubjpass=decision'
p1059
aS'nsubjpass=defendant'
p1060
aS'nsubjpass=delegate'
p1061
aS'nsubjpass=delegation'
p1062
aS'nsubjpass=delivery'
p1063
aS'nsubjpass=demand'
p1064
aS'nsubjpass=democrat'
p1065
aS'nsubjpass=deposit'
p1066
aS'nsubjpass=diplomat'
p1067
aS'nsubjpass=disagreement'
p1068
aS'nsubjpass=discussion'
p1069
aS'nsubjpass=disease'
p1070
aS'nsubjpass=disparity'
p1071
aS'nsubjpass=distress'
p1072
aS'nsubjpass=division'
p1073
aS'nsubjpass=echo'
p1074
aS'nsubjpass=eco-city'
p1075
aS'nsubjpass=economy'
p1076
aS'nsubjpass=effort'
p1077
aS'nsubjpass=election'
p1078
aS'nsubjpass=environment'
p1079
aS'nsubjpass=envoy'
p1080
aS'nsubjpass=estimate'
p1081
aS'nsubjpass=event'
p1082
aS'nsubjpass=everyone'
p1083
aS'nsubjpass=expert'
p1084
aS'nsubjpass=export'
p1085
aS'nsubjpass=facility'
p1086
aS'nsubjpass=faction'
p1087
aS'nsubjpass=farmer'
p1088
aS'nsubjpass=few'
p1089
aS'nsubjpass=figure'
p1090
aS'nsubjpass=first'
p1091
aS'nsubjpass=fleet'
p1092
aS'nsubjpass=flight'
p1093
aS'nsubjpass=force'
p1094
aS'nsubjpass=framework'
p1095
aS'nsubjpass=french'
p1096
aS'nsubjpass=fund'
p1097
aS'nsubjpass=funding'
p1098
aS'nsubjpass=future'
p1099
aS'nsubjpass=gathering'
p1100
aS'nsubjpass=general'
p1101
aS'nsubjpass=generation'
p1102
aS'nsubjpass=gesture'
p1103
aS'nsubjpass=government'
p1104
aS'nsubjpass=governor'
p1105
aS'nsubjpass=group'
p1106
aS'nsubjpass=growth'
p1107
aS'nsubjpass=guideline'
p1108
aS'nsubjpass=harvest'
p1109
aS'nsubjpass=head'
p1110
aS'nsubjpass=hike'
p1111
aS'nsubjpass=home'
p1112
aS'nsubjpass=hurdle'
p1113
aS'nsubjpass=hurricane'
p1114
aS'nsubjpass=import'
p1115
aS'nsubjpass=improvement'
p1116
aS'nsubjpass=incarnation'
p1117
aS'nsubjpass=increase'
p1118
aS'nsubjpass=incumbent'
p1119
aS'nsubjpass=individual'
p1120
aS'nsubjpass=industry'
p1121
aS'nsubjpass=inquiry'
p1122
aS'nsubjpass=inspector'
p1123
aS'nsubjpass=instrument'
p1124
aS'nsubjpass=investigation'
p1125
aS'nsubjpass=investigator'
p1126
aS'nsubjpass=investment'
p1127
aS'nsubjpass=investor'
p1128
aS'nsubjpass=issue'
p1129
aS'nsubjpass=job'
p1130
aS'nsubjpass=judge'
p1131
aS'nsubjpass=justice'
p1132
aS'nsubjpass=ki-moon'
p1133
aS'nsubjpass=labor'
p1134
aS'nsubjpass=lack'
p1135
aS'nsubjpass=law'
p1136
aS'nsubjpass=lawmaker'
p1137
aS'nsubjpass=leader'
p1138
aS'nsubjpass=legislation'
p1139
aS'nsubjpass=level'
p1140
aS'nsubjpass=line'
p1141
aS'nsubjpass=man'
p1142
aS'nsubjpass=many'
p1143
aS'nsubjpass=measure'
p1144
aS'nsubjpass=mediator'
p1145
aS'nsubjpass=meeting'
p1146
aS'nsubjpass=member'
p1147
aS'nsubjpass=midfielder'
p1148
aS'nsubjpass=minister'
p1149
aS'nsubjpass=minority'
p1150
aS'nsubjpass=more'
p1151
aS'nsubjpass=most'
p1152
aS'nsubjpass=move'
p1153
aS'nsubjpass=much'
p1154
aS'nsubjpass=nation'
p1155
aS'nsubjpass=navy'
p1156
aS'nsubjpass=negotiation'
p1157
aS'nsubjpass=negotiator'
p1158
aS'nsubjpass=network'
p1159
aS'nsubjpass=none'
p1160
aS'nsubjpass=number'
p1161
aS'nsubjpass=observer'
p1162
aS'nsubjpass=officer'
p1163
aS'nsubjpass=official'
p1164
aS'nsubjpass=operation'
p1165
aS'nsubjpass=opposition'
p1166
aS'nsubjpass=other'
p1167
aS'nsubjpass=outcome'
p1168
aS'nsubjpass=package'
p1169
aS'nsubjpass=pair'
p1170
aS'nsubjpass=panel'
p1171
aS'nsubjpass=parliament'
p1172
aS'nsubjpass=participant'
p1173
aS'nsubjpass=party'
p1174
aS'nsubjpass=peacekeeper'
p1175
aS'nsubjpass=people'
p1176
aS'nsubjpass=percent'
p1177
aS'nsubjpass=performance'
p1178
aS'nsubjpass=performer'
p1179
aS'nsubjpass=person'
p1180
aS'nsubjpass=picture'
p1181
aS'nsubjpass=pilgrim'
p1182
aS'nsubjpass=plan'
p1183
aS'nsubjpass=plant'
p1184
aS'nsubjpass=policy'
p1185
aS'nsubjpass=politician'
p1186
aS'nsubjpass=post'
p1187
aS'nsubjpass=power'
p1188
aS'nsubjpass=president'
p1189
aS'nsubjpass=pressure'
p1190
aS'nsubjpass=price'
p1191
aS'nsubjpass=priority'
p1192
aS'nsubjpass=process'
p1193
aS'nsubjpass=product'
p1194
aS'nsubjpass=profit'
p1195
aS'nsubjpass=program'
p1196
aS'nsubjpass=project'
p1197
aS'nsubjpass=promoter'
p1198
aS'nsubjpass=prosecution'
p1199
aS'nsubjpass=prosecutor'
p1200
aS'nsubjpass=prospects'
p1201
aS'nsubjpass=protest'
p1202
aS'nsubjpass=protester'
p1203
aS'nsubjpass=protestor'
p1204
aS'nsubjpass=province'
p1205
aS'nsubjpass=rain'
p1206
aS'nsubjpass=rate'
p1207
aS'nsubjpass=raucous'
p1208
aS'nsubjpass=re-polling'
p1209
aS'nsubjpass=rebel'
p1210
aS'nsubjpass=referendum'
p1211
aS'nsubjpass=reform'
p1212
aS'nsubjpass=regulator'
p1213
aS'nsubjpass=report'
p1214
aS'nsubjpass=representative'
p1215
aS'nsubjpass=republican'
p1216
aS'nsubjpass=reshuffle'
p1217
aS'nsubjpass=resignation'
p1218
aS'nsubjpass=resistance'
p1219
aS'nsubjpass=resolution'
p1220
aS'nsubjpass=result'
p1221
aS'nsubjpass=revenue'
p1222
aS'nsubjpass=review'
p1223
aS'nsubjpass=round'
p1224
aS'nsubjpass=ruling'
p1225
aS'nsubjpass=russian'
p1226
aS'nsubjpass=sale'
p1227
aS'nsubjpass=same'
p1228
aS'nsubjpass=satellite'
p1229
aS'nsubjpass=scene'
p1230
aS'nsubjpass=season'
p1231
aS'nsubjpass=secretary'
p1232
aS'nsubjpass=secretary-general'
p1233
aS'nsubjpass=selection'
p1234
aS'nsubjpass=senator'
p1235
aS'nsubjpass=sentence'
p1236
aS'nsubjpass=service'
p1237
aS'nsubjpass=shift'
p1238
aS'nsubjpass=ship'
p1239
aS'nsubjpass=shipment'
p1240
aS'nsubjpass=shuttle'
p1241
aS'nsubjpass=situation'
p1242
aS'nsubjpass=soccer'
p1243
aS'nsubjpass=some'
p1244
aS'nsubjpass=son'
p1245
aS'nsubjpass=spending'
p1246
aS'nsubjpass=stability'
p1247
aS'nsubjpass=stage'
p1248
aS'nsubjpass=state'
p1249
aS'nsubjpass=statement'
p1250
aS'nsubjpass=storm'
p1251
aS'nsubjpass=strategy'
p1252
aS'nsubjpass=strength'
p1253
aS'nsubjpass=strengthening'
p1254
aS'nsubjpass=strike'
p1255
aS'nsubjpass=student'
p1256
aS'nsubjpass=subject'
p1257
aS'nsubjpass=summit'
p1258
aS'nsubjpass=support'
p1259
aS'nsubjpass=talk'
p1260
aS'nsubjpass=tally'
p1261
aS'nsubjpass=team'
p1262
aS'nsubjpass=temperature'
p1263
aS'nsubjpass=tender'
p1264
aS'nsubjpass=that'
p1265
aS'nsubjpass=this'
p1266
aS'nsubjpass=those'
p1267
aS'nsubjpass=time'
p1268
aS'nsubjpass=toll'
p1269
aS'nsubjpass=tour'
p1270
aS'nsubjpass=train'
p1271
aS'nsubjpass=trainload'
p1272
aS'nsubjpass=trend'
p1273
aS'nsubjpass=trial'
p1274
aS'nsubjpass=trip'
p1275
aS'nsubjpass=troops'
p1276
aS'nsubjpass=truck'
p1277
aS'nsubjpass=turnout'
p1278
aS'nsubjpass=undersecretary-general'
p1279
aS'nsubjpass=verdict'
p1280
aS'nsubjpass=victory'
p1281
aS'nsubjpass=villager'
p1282
aS'nsubjpass=violence'
p1283
aS'nsubjpass=vote'
p1284
aS'nsubjpass=voter'
p1285
aS'nsubjpass=war'
p1286
aS'nsubjpass=what'
p1287
aS'nsubjpass=which'
p1288
aS'nsubjpass=who'
p1289
aS'nsubjpass=wife'
p1290
aS'nsubjpass=wind'
p1291
aS'nsubjpass=woman'
p1292
aS'nsubjpass=work'
p1293
aS'nsubjpass=worker'
p1294
aS'nsubjpass=yield'
p1295
aS'nsubjpass=zone'
p1296
aS'parataxis=allow'
p1297
aS'parataxis=link'
p1298
aS'parataxis=say'
p1299
aS'parataxis=show'
p1300
aS'parataxis=start'
p1301
aS'parataxis=sure'
p1302
aS'parataxis=win'
p1303
aS'partmod=assume'
p1304
aS'partmod=complete'
p1305
aS'partmod=express'
p1306
aS'partmod=fail'
p1307
aS'partmod=involve'
p1308
aS'partmod=perform'
p1309
aS'partmod=say'
p1310
aS'partmod=speak'
p1311
aS'partmod=spread'
p1312
aS'prep=about'
p1313
aS'prep=accord'
p1314
aS'prep=across'
p1315
aS'prep=after'
p1316
aS'prep=amid'
p1317
aS'prep=among'
p1318
aS'prep=around'
p1319
aS'prep=as'
p1320
aS'prep=at'
p1321
aS'prep=bar'
p1322
aS'prep=base'
p1323
aS'prep=because'
p1324
aS'prep=before'
p1325
aS'prep=besides'
p1326
aS'prep=between'
p1327
aS'prep=both'
p1328
aS'prep=by'
p1329
aS'prep=compare'
p1330
aS'prep=depend'
p1331
aS'prep=despite'
p1332
aS'prep=during'
p1333
aS'prep=follow'
p1334
aS'prep=for'
p1335
aS'prep=from'
p1336
aS'prep=give'
p1337
aS'prep=in'
p1338
aS'prep=include'
p1339
aS'prep=into'
p1340
aS'prep=like'
p1341
aS'prep=next'
p1342
aS'prep=of'
p1343
aS'prep=on'
p1344
aS'prep=over'
p1345
aS'prep=start'
p1346
aS'prep=than'
p1347
aS'prep=thing'
p1348
aS'prep=to'
p1349
aS'prep=toward'
p1350
aS'prep=under'
p1351
aS'prep=unlike'
p1352
aS'prep=until'
p1353
aS'prep=with'
p1354
aS'prep=within'
p1355
aS'prep=without'
p1356
aS'prt=up'
p1357
aS'purpcl=observe'
p1358
aS'rel=during'
p1359
aS'rel=in'
p1360
aS'rel=of'
p1361
aS'rel=that'
p1362
aS'rel=which'
p1363
aS'rel=who'
p1364
aS'tmod=#DATE#'
p1365
aS'tmod=December'
p1366
aS'tmod=day'
p1367
aS'tmod=evening'
p1368
aS'tmod=month'
p1369
aS'tmod=night'
p1370
aS'tmod=rate'
p1371
aS'tmod=response'
p1372
aS'tmod=season'
p1373
aS'tmod=time'
p1374
aS'tmod=today'
p1375
aS'tmod=tonight'
p1376
aS'tmod=victimswhen'
p1377
aS'tmod=week'
p1378
aS'tmod=year'
p1379
aS'tmod=yesterday'
p1380
aS'w+1=$'
p1381
aS"w+1=''"
p1382
aS'w+1=,'
p1383
aS'w+1=-'
p1384
aS'w+1=-lrb-'
p1385
aS'w+1=.'
p1386
aS'w+1=100,000'
p1387
aS'w+1=2,100'
p1388
aS'w+1=22'
p1389
aS'w+1=600,000'
p1390
aS'w+1=?'
p1391
aS'w+1=ASEAN'
p1392
aS'w+1=Africa'
p1393
aS'w+1=America'
p1394
aS'w+1=Arab'
p1395
aS'w+1=Arenas'
p1396
aS'w+1=Barack'
p1397
aS'w+1=Belarus'
p1398
aS'w+1=China'
p1399
aS'w+1=Commonwealth'
p1400
aS'w+1=Congress'
p1401
aS'w+1=December'
p1402
aS'w+1=Egypt'
p1403
aS'w+1=Friday'
p1404
aS'w+1=General'
p1405
aS'w+1=Guantanamo'
p1406
aS'w+1=Guinea'
p1407
aS'w+1=Hagel'
p1408
aS'w+1=I'
p1409
aS'w+1=Iran'
p1410
aS'w+1=Iraq'
p1411
aS'w+1=Kaesong'
p1412
aS'w+1=Mengistu'
p1413
aS'w+1=Mr.'
p1414
aS'w+1=Ms.'
p1415
aS'w+1=Mukasey'
p1416
aS'w+1=NATO'
p1417
aS'w+1=Nigeria'
p1418
aS'w+1=North'
p1419
aS'w+1=Obama'
p1420
aS'w+1=Pakistan'
p1421
aS'w+1=Pope'
p1422
aS'w+1=President'
p1423
aS'w+1=Prime'
p1424
aS'w+1=Raul'
p1425
aS'w+1=Redgrave'
p1426
aS'w+1=Russia'
p1427
aS'w+1=Saturday'
p1428
aS'w+1=Serbia'
p1429
aS'w+1=Somalia'
p1430
aS'w+1=South'
p1431
aS'w+1=Sunday'
p1432
aS'w+1=Syria'
p1433
aS'w+1=Taleban'
p1434
aS'w+1=Taliban'
p1435
aS'w+1=Thompson'
p1436
aS'w+1=Thursday'
p1437
aS'w+1=Tuesday'
p1438
aS'w+1=Turkey'
p1439
aS'w+1=U.S.'
p1440
aS'w+1=Zubkov'
p1441
aS'w+1=a'
p1442
aS'w+1=about'
p1443
aS'w+1=across'
p1444
aS'w+1=action'
p1445
aS'w+1=after'
p1446
aS'w+1=agreement'
p1447
aS'w+1=air'
p1448
aS'w+1=airline'
p1449
aS'w+1=al-Qaida'
p1450
aS'w+1=all'
p1451
aS'w+1=and'
p1452
aS'w+1=announcement'
p1453
aS'w+1=another'
p1454
aS'w+1=any'
p1455
aS'w+1=anybody'
p1456
aS'w+1=anything'
p1457
aS'w+1=approval'
p1458
aS'w+1=around'
p1459
aS'w+1=as'
p1460
aS'w+1=asian'
p1461
aS'w+1=at'
p1462
aS'w+1=back'
p1463
aS'w+1=bad'
p1464
aS'w+1=be'
p1465
aS'w+1=because'
p1466
aS'w+1=before'
p1467
aS'w+1=between'
p1468
aS'w+1=bid'
p1469
aS'w+1=big'
p1470
aS'w+1=both'
p1471
aS'w+1=british'
p1472
aS'w+1=broad'
p1473
aS'w+1=budget'
p1474
aS'w+1=but'
p1475
aS'w+1=by'
p1476
aS'w+1=call'
p1477
aS'w+1=campaign'
p1478
aS'w+1=cholera'
p1479
aS'w+1=clash'
p1480
aS'w+1=coalition'
p1481
aS'w+1=concession'
p1482
aS'w+1=consumer'
p1483
aS'w+1=continued'
p1484
aS'w+1=continuity'
p1485
aS'w+1=cooperation'
p1486
aS'w+1=counterfeit'
p1487
aS'w+1=crop'
p1488
aS'w+1=decision'
p1489
aS'w+1=democrat'
p1490
aS'w+1=demonstration'
p1491
aS'w+1=departure'
p1492
aS'w+1=deterioration'
p1493
aS'w+1=disbursement'
p1494
aS'w+1=discussion'
p1495
aS'w+1=do'
p1496
aS'w+1=dramatic'
p1497
aS'w+1=during'
p1498
aS'w+1=e-mail'
p1499
aS'w+1=early'
p1500
aS'w+1=earnings'
p1501
aS'w+1=economic'
p1502
aS'w+1=effort'
p1503
aS'w+1=egyptian'
p1504
aS'w+1=either'
p1505
aS'w+1=enough'
p1506
aS'w+1=entrance'
p1507
aS'w+1=entry'
p1508
aS'w+1=equally'
p1509
aS'w+1=even'
p1510
aS'w+1=eventually'
p1511
aS'w+1=ever'
p1512
aS'w+1=extreme'
p1513
aS'w+1=five'
p1514
aS'w+1=flood'
p1515
aS'w+1=follow'
p1516
aS'w+1=food'
p1517
aS'w+1=for'
p1518
aS'w+1=foreign'
p1519
aS'w+1=fraud'
p1520
aS'w+1=from'
p1521
aS'w+1=front-runner'
p1522
aS'w+1=full'
p1523
aS'w+1=further'
p1524
aS'w+1=gain'
p1525
aS'w+1=give'
p1526
aS'w+1=global'
p1527
aS'w+1=gold'
p1528
aS'w+1=good'
p1529
aS'w+1=government'
p1530
aS'w+1=gradual'
p1531
aS'w+1=grand'
p1532
aS'w+1=grandchild'
p1533
aS'w+1=great'
p1534
aS'w+1=he'
p1535
aS'w+1=heavy'
p1536
aS'w+1=huge'
p1537
aS'w+1=if'
p1538
aS'w+1=immediate'
p1539
aS'w+1=impact'
p1540
aS'w+1=improve'
p1541
aS'w+1=in'
p1542
aS'w+1=increase'
p1543
aS'w+1=independence'
p1544
aS'w+1=indian'
p1545
aS'w+1=inflation'
p1546
aS'w+1=instant'
p1547
aS'w+1=insurgent'
p1548
aS'w+1=intense'
p1549
aS'w+1=intensive'
p1550
aS'w+1=international'
p1551
aS'w+1=into'
p1552
aS'w+1=investment'
p1553
aS'w+1=it'
p1554
aS'w+1=its'
p1555
aS'w+1=just'
p1556
aS'w+1=last'
p1557
aS'w+1=late'
p1558
aS'w+1=later'
p1559
aS'w+1=lengthy'
p1560
aS'w+1=little'
p1561
aS'w+1=lower'
p1562
aS'w+1=major'
p1563
aS'w+1=many'
p1564
aS'w+1=map'
p1565
aS'w+1=margin'
p1566
aS'w+1=member'
p1567
aS'w+1=might'
p1568
aS'w+1=model'
p1569
aS'w+1=more'
p1570
aS'w+1=most'
p1571
aS'w+1=much'
p1572
aS'w+1=near-record'
p1573
aS'w+1=nearly'
p1574
aS'w+1=negative'
p1575
aS'w+1=negotiation'
p1576
aS'w+1=new'
p1577
aS'w+1=next'
p1578
aS'w+1=nine'
p1579
aS'w+1=no'
p1580
aS'w+1=not'
p1581
aS'w+1=nothing'
p1582
aS'w+1=now'
p1583
aS'w+1=nuclear'
p1584
aS'w+1=number'
p1585
aS'w+1=obstacle'
p1586
aS'w+1=of'
p1587
aS'w+1=offensive'
p1588
aS'w+1=official'
p1589
aS'w+1=on'
p1590
aS'w+1=operation'
p1591
aS'w+1=or'
p1592
aS'w+1=other'
p1593
aS'w+1=otherwise'
p1594
aS'w+1=over'
p1595
aS'w+1=overnight'
p1596
aS'w+1=palestinian'
p1597
aS'w+1=passion'
p1598
aS'w+1=pattern'
p1599
aS'w+1=peace'
p1600
aS'w+1=people'
p1601
aS'w+1=performance'
p1602
aS'w+1=policy'
p1603
aS'w+1=political'
p1604
aS'w+1=presentation'
p1605
aS'w+1=president-elect'
p1606
aS'w+1=presidential'
p1607
aS'w+1=price'
p1608
aS'w+1=progress'
p1609
aS'w+1=protest'
p1610
aS'w+1=publication'
p1611
aS'w+1=push'
p1612
aS'w+1=rate'
p1613
aS'w+1=real'
p1614
aS'w+1=recession'
p1615
aS'w+1=referendum'
p1616
aS'w+1=regional'
p1617
aS'w+1=remain'
p1618
aS'w+1=republican'
p1619
aS'w+1=result'
p1620
aS'w+1=return'
p1621
aS'w+1=rise'
p1622
aS'w+1=russian'
p1623
aS'w+1=safety'
p1624
aS'w+1=sale'
p1625
aS'w+1=serious'
p1626
aS'w+1=several'
p1627
aS'w+1=sharp'
p1628
aS'w+1=she'
p1629
aS'w+1=significant'
p1630
aS'w+1=similar'
p1631
aS'w+1=some'
p1632
aS'w+1=something'
p1633
aS'w+1=sometime'
p1634
aS'w+1=soon'
p1635
aS'w+1=spring'
p1636
aS'w+1=stalemate'
p1637
aS'w+1=start'
p1638
aS'w+1=storm'
p1639
aS'w+1=substantive'
p1640
aS'w+1=success'
p1641
aS'w+1=such'
p1642
aS'w+1=talk'
p1643
aS'w+1=ten'
p1644
aS'w+1=tension'
p1645
aS'w+1=that'
p1646
aS'w+1=the'
p1647
aS'w+1=there'
p1648
aS'w+1=these'
p1649
aS'w+1=they'
p1650
aS'w+1=this'
p1651
aS'w+1=those'
p1652
aS'w+1=thousand'
p1653
aS'w+1=throughout'
p1654
aS'w+1=to'
p1655
aS'w+1=today'
p1656
aS'w+1=todraw'
p1657
aS'w+1=too'
p1658
aS'w+1=topush'
p1659
aS'w+1=torch'
p1660
aS'w+1=tough'
p1661
aS'w+1=transmission'
p1662
aS'w+1=trouble'
p1663
aS'w+1=turkish'
p1664
aS'w+1=unanimous'
p1665
aS'w+1=until'
p1666
aS'w+1=up'
p1667
aS'w+1=very'
p1668
aS'w+1=veto'
p1669
aS'w+1=violence'
p1670
aS'w+1=vote'
p1671
aS'w+1=we'
p1672
aS'w+1=when'
p1673
aS'w+1=widespread'
p1674
aS'w+1=will'
p1675
aS'w+1=with'
p1676
aS'w+1=within'
p1677
aS'w+1=world'
p1678
aS'w+1=would'
p1679
aS'w+1=yesterday'
p1680
aS'w+1=you'
p1681
aS'w+2=$'
p1682
aS"w+2=''"
p1683
aS"w+2='ll"
p1684
aS"w+2='s"
p1685
aS'w+2=,'
p1686
aS'w+2=-'
p1687
aS'w+2=-lrb-'
p1688
aS'w+2=.'
p1689
aS'w+2=0.5'
p1690
aS'w+2=100,000'
p1691
aS'w+2=12'
p1692
aS'w+2=2.5'
p1693
aS'w+2=20'
p1694
aS'w+2=20,000'
p1695
aS'w+2=2010'
p1696
aS'w+2=30,000'
p1697
aS'w+2=335'
p1698
aS'w+2=47-member'
p1699
aS'w+2=500,000'
p1700
aS'w+2=7'
p1701
aS'w+2=ASEAN'
p1702
aS'w+2=Africa'
p1703
aS'w+2=Alianza'
p1704
aS'w+2=America'
p1705
aS'w+2=Americans'
p1706
aS'w+2=Annapolis'
p1707
aS'w+2=Arroyo'
p1708
aS'w+2=Badawi'
p1709
aS'w+2=Baquba'
p1710
aS'w+2=Barack'
p1711
aS'w+2=Beijing'
p1712
aS'w+2=Benedict'
p1713
aS'w+2=Bhutto'
p1714
aS'w+2=Bouake'
p1715
aS'w+2=Bulgaria'
p1716
aS'w+2=Bush'
p1717
aS'w+2=Castro'
p1718
aS'w+2=Chavez'
p1719
aS'w+2=Congress'
p1720
aS'w+2=Cubans'
p1721
aS'w+2=December'
p1722
aS'w+2=Democrats'
p1723
aS'w+2=East'
p1724
aS'w+2=Egyptians'
p1725
aS'w+2=Fed'
p1726
aS'w+2=Frazer'
p1727
aS'w+2=Friday'
p1728
aS'w+2=Ghana'
p1729
aS'w+2=I'
p1730
aS'w+2=Iraqis'
p1731
aS'w+2=Israel'
p1732
aS'w+2=January'
p1733
aS'w+2=Japan'
p1734
aS'w+2=June'
p1735
aS'w+2=Karbala'
p1736
aS'w+2=Khartoum'
p1737
aS'w+2=Kibaki'
p1738
aS'w+2=Korea'
p1739
aS'w+2=Lahoud'
p1740
aS'w+2=Maoists'
p1741
aS'w+2=Military'
p1742
aS'w+2=Minister'
p1743
aS'w+2=Mitt'
p1744
aS'w+2=Monday'
p1745
aS'w+2=Mr.'
p1746
aS'w+2=Mugabe'
p1747
aS'w+2=NATO'
p1748
aS'w+2=North'
p1749
aS'w+2=Obama'
p1750
aS'w+2=Pakistan'
p1751
aS'w+2=Petraeus'
p1752
aS'w+2=President'
p1753
aS'w+2=Putin'
p1754
aS'w+2=Rice'
p1755
aS'w+2=Robert'
p1756
aS'w+2=Russians'
p1757
aS'w+2=Saturday'
p1758
aS'w+2=Security'
p1759
aS'w+2=Senator'
p1760
aS'w+2=September'
p1761
aS'w+2=Sharif'
p1762
aS'w+2=Thabo'
p1763
aS'w+2=Turkey'
p1764
aS'w+2=U.N.'
p1765
aS'w+2=U.S.'
p1766
aS'w+2=UMNO'
p1767
aS'w+2=US'
p1768
aS'w+2=United'
p1769
aS'w+2=Venezuela'
p1770
aS'w+2=Vlok'
p1771
aS'w+2=Wednesday'
p1772
aS'w+2=World'
p1773
aS'w+2=a'
p1774
aS'w+2=about'
p1775
aS'w+2=abstain'
p1776
aS'w+2=acquisition'
p1777
aS'w+2=activity'
p1778
aS'w+2=actual'
p1779
aS'w+2=add'
p1780
aS'w+2=address'
p1781
aS'w+2=affect'
p1782
aS'w+2=after'
p1783
aS'w+2=against'
p1784
aS'w+2=agree'
p1785
aS'w+2=agreement'
p1786
aS'w+2=aid'
p1787
aS'w+2=all'
p1788
aS'w+2=also'
p1789
aS'w+2=alter'
p1790
aS'w+2=although'
p1791
aS'w+2=ambitious'
p1792
aS'w+2=american'
p1793
aS'w+2=among'
p1794
aS'w+2=analyst'
p1795
aS'w+2=and'
p1796
aS'w+2=anger'
p1797
aS'w+2=announce'
p1798
aS'w+2=announcement'
p1799
aS'w+2=any'
p1800
aS'w+2=anything'
p1801
aS'w+2=anyway'
p1802
aS'w+2=apologize'
p1803
aS'w+2=appear'
p1804
aS'w+2=approve'
p1805
aS'w+2=arrest'
p1806
aS'w+2=arrive'
p1807
aS'w+2=as'
p1808
aS'w+2=assistance'
p1809
aS'w+2=assume'
p1810
aS'w+2=at'
p1811
aS'w+2=attend'
p1812
aS'w+2=attract'
p1813
aS'w+2=authority'
p1814
aS'w+2=back'
p1815
aS'w+2=bank'
p1816
aS'w+2=be'
p1817
aS'w+2=bear'
p1818
aS'w+2=because'
p1819
aS'w+2=become'
p1820
aS'w+2=before'
p1821
aS'w+2=begin'
p1822
aS'w+2=benefit'
p1823
aS'w+2=better'
p1824
aS'w+2=bid'
p1825
aS'w+2=big'
p1826
aS'w+2=bigger'
p1827
aS'w+2=bolster'
p1828
aS'w+2=bombing'
p1829
aS'w+2=boost'
p1830
aS'w+2=both'
p1831
aS'w+2=boycott'
p1832
aS'w+2=breakthrough'
p1833
aS'w+2=brief'
p1834
aS'w+2=bring'
p1835
aS'w+2=british'
p1836
aS'w+2=bumper'
p1837
aS'w+2=burmese'
p1838
aS'w+2=but'
p1839
aS'w+2=by'
p1840
aS'w+2=cacao'
p1841
aS'w+2=call'
p1842
aS'w+2=campaign'
p1843
aS'w+2=candidacy'
p1844
aS'w+2=candidate'
p1845
aS'w+2=capture'
p1846
aS'w+2=caretaker'
p1847
aS'w+2=carry'
p1848
aS'w+2=cast'
p1849
aS'w+2=casualty'
p1850
aS'w+2=cement'
p1851
aS'w+2=challenge'
p1852
aS'w+2=change'
p1853
aS'w+2=charge'
p1854
aS'w+2=chief'
p1855
aS'w+2=cite'
p1856
aS'w+2=city'
p1857
aS'w+2=clash'
p1858
aS'w+2=clean'
p1859
aS'w+2=clear'
p1860
aS'w+2=clearer'
p1861
aS'w+2=climb'
p1862
aS'w+2=cloning'
p1863
aS'w+2=closely'
p1864
aS'w+2=clout'
p1865
aS'w+2=colleague'
p1866
aS'w+2=color'
p1867
aS'w+2=come'
p1868
aS'w+2=command'
p1869
aS'w+2=commanding'
p1870
aS'w+2=competition'
p1871
aS'w+2=complete'
p1872
aS'w+2=compliance'
p1873
aS'w+2=complicate'
p1874
aS'w+2=compromise'
p1875
aS'w+2=concede'
p1876
aS'w+2=conclude'
p1877
aS'w+2=condemnation'
p1878
aS'w+2=conference'
p1879
aS'w+2=confirm'
p1880
aS'w+2=conform'
p1881
aS'w+2=congregate'
p1882
aS'w+2=connection'
p1883
aS'w+2=consider'
p1884
aS'w+2=consult'
p1885
aS'w+2=consultation'
p1886
aS'w+2=contender'
p1887
aS'w+2=contest'
p1888
aS'w+2=continue'
p1889
aS'w+2=convene'
p1890
aS'w+2=converge'
p1891
aS'w+2=convey'
p1892
aS'w+2=cooperation'
p1893
aS'w+2=cooperative'
p1894
aS'w+2=corn'
p1895
aS'w+2=correct'
p1896
aS'w+2=corruption'
p1897
aS'w+2=cost'
p1898
aS'w+2=country'
p1899
aS'w+2=crash'
p1900
aS'w+2=create'
p1901
aS'w+2=crisis'
p1902
aS'w+2=cross'
p1903
aS'w+2=crowded'
p1904
aS'w+2=cuban'
p1905
aS'w+2=cut'
p1906
aS'w+2=dampen'
p1907
aS'w+2=day'
p1908
aS'w+2=debate'
p1909
aS'w+2=decide'
p1910
aS'w+2=decision'
p1911
aS'w+2=declaration'
p1912
aS'w+2=declare'
p1913
aS'w+2=decline'
p1914
aS'w+2=defeat'
p1915
aS'w+2=definitive'
p1916
aS'w+2=delegation'
p1917
aS'w+2=deliberate'
p1918
aS'w+2=deliver'
p1919
aS'w+2=deploy'
p1920
aS'w+2=derail'
p1921
aS'w+2=desert'
p1922
aS'w+2=deteriorate'
p1923
aS'w+2=dialogue'
p1924
aS'w+2=die'
p1925
aS'w+2=different'
p1926
aS'w+2=dim'
p1927
aS'w+2=disclosure'
p1928
aS'w+2=discuss'
p1929
aS'w+2=discussion'
p1930
aS'w+2=dissident'
p1931
aS'w+2=do'
p1932
aS'w+2=dominate'
p1933
aS'w+2=donor'
p1934
aS'w+2=doom'
p1935
aS'w+2=double'
p1936
aS'w+2=downturn'
p1937
aS'w+2=downward'
p1938
aS'w+2=dramatic'
p1939
aS'w+2=draw'
p1940
aS'w+2=drive'
p1941
aS'w+2=drop'
p1942
aS'w+2=dry'
p1943
aS'w+2=dryer'
p1944
aS'w+2=early'
p1945
aS'w+2=earn'
p1946
aS'w+2=ease'
p1947
aS'w+2=economic'
p1948
aS'w+2=economy'
p1949
aS'w+2=either'
p1950
aS'w+2=elect'
p1951
aS'w+2=elected'
p1952
aS'w+2=election'
p1953
aS'w+2=eliminate'
p1954
aS'w+2=else'
p1955
aS'w+2=emerge'
p1956
aS'w+2=emergency'
p1957
aS'w+2=encounter'
p1958
aS'w+2=end'
p1959
aS'w+2=endorse'
p1960
aS'w+2=enemy'
p1961
aS'w+2=enforce'
p1962
aS'w+2=enter'
p1963
aS'w+2=entire'
p1964
aS'w+2=epic'
p1965
aS'w+2=eritrean'
p1966
aS'w+2=establish'
p1967
aS'w+2=even'
p1968
aS'w+2=evolution'
p1969
aS'w+2=exceed'
p1970
aS'w+2=expand'
p1971
aS'w+2=export'
p1972
aS'w+2=extend'
p1973
aS'w+2=extended'
p1974
aS'w+2=face'
p1975
aS'w+2=fail'
p1976
aS'w+2=fall'
p1977
aS'w+2=falloff'
p1978
aS'w+2=favor'
p1979
aS'w+2=feed'
p1980
aS'w+2=fellow'
p1981
aS'w+2=few'
p1982
aS'w+2=fighting'
p1983
aS'w+2=figure'
p1984
aS'w+2=file'
p1985
aS'w+2=final'
p1986
aS'w+2=financial'
p1987
aS'w+2=find'
p1988
aS'w+2=firm'
p1989
aS'w+2=first'
p1990
aS'w+2=flooding'
p1991
aS'w+2=focus'
p1992
aS'w+2=fold'
p1993
aS'w+2=follow-up'
p1994
aS'w+2=for'
p1995
aS'w+2=force'
p1996
aS'w+2=form'
p1997
aS'w+2=formally'
p1998
aS'w+2=former'
p1999
aS'w+2=fortune'
p2000
aS'w+2=from'
p2001
aS'w+2=full'
p2002
aS'w+2=fund'
p2003
aS'w+2=fundamental'
p2004
aS'w+2=funeral'
p2005
aS'w+2=further'
p2006
aS'w+2=g8'
p2007
aS'w+2=gain'
p2008
aS'w+2=garner'
p2009
aS'w+2=gather'
p2010
aS'w+2=general'
p2011
aS'w+2=generate'
p2012
aS'w+2=get'
p2013
aS'w+2=give'
p2014
aS'w+2=go'
p2015
aS'w+2=good'
p2016
aS'w+2=government'
p2017
aS'w+2=grab'
p2018
aS'w+2=greater'
p2019
aS'w+2=grill'
p2020
aS'w+2=grow'
p2021
aS'w+2=growth'
p2022
aS'w+2=guest'
p2023
aS'w+2=hail'
p2024
aS'w+2=hand'
p2025
aS'w+2=happen'
p2026
aS'w+2=harvest'
p2027
aS'w+2=have'
p2028
aS'w+2=he'
p2029
aS'w+2=head'
p2030
aS'w+2=hear'
p2031
aS'w+2=heavy'
p2032
aS'w+2=height'
p2033
aS'w+2=help'
p2034
aS'w+2=here'
p2035
aS'w+2=highlight'
p2036
aS'w+2=highly'
p2037
aS'w+2=hit'
p2038
aS'w+2=hold'
p2039
aS'w+2=homecoming'
p2040
aS'w+2=hot'
p2041
aS'w+2=house'
p2042
aS'w+2=however'
p2043
aS'w+2=imminent'
p2044
aS'w+2=implement'
p2045
aS'w+2=impose'
p2046
aS'w+2=improvement'
p2047
aS'w+2=in'
p2048
aS'w+2=include'
p2049
aS'w+2=increase'
p2050
aS'w+2=incumbent'
p2051
aS'w+2=independent'
p2052
aS'w+2=indian'
p2053
aS'w+2=insurgent'
p2054
aS'w+2=international'
p2055
aS'w+2=into'
p2056
aS'w+2=introduce'
p2057
aS'w+2=invest'
p2058
aS'w+2=involve'
p2059
aS'w+2=iranian'
p2060
aS'w+2=iraqi'
p2061
aS'w+2=israeli'
p2062
aS'w+2=issue'
p2063
aS'w+2=it'
p2064
aS'w+2=jirga'
p2065
aS'w+2=join'
p2066
aS'w+2=jump'
p2067
aS'w+2=jump-start'
p2068
aS'w+2=just'
p2069
aS'w+2=keep'
p2070
aS'w+2=kind'
p2071
aS'w+2=larger'
p2072
aS'w+2=last'
p2073
aS'w+2=late'
p2074
aS'w+2=later'
p2075
aS'w+2=launch'
p2076
aS'w+2=lead'
p2077
aS'w+2=leader'
p2078
aS'w+2=learn'
p2079
aS'w+2=least'
p2080
aS'w+2=leave'
p2081
aS'w+2=legalize'
p2082
aS'w+2=legislature'
p2083
aS'w+2=less'
p2084
aS'w+2=letter'
p2085
aS'w+2=light'
p2086
aS'w+2=like'
p2087
aS'w+2=little'
p2088
aS'w+2=live'
p2089
aS'w+2=long'
p2090
aS'w+2=lot'
p2091
aS'w+2=lower'
p2092
aS'w+2=maintain'
p2093
aS'w+2=major'
p2094
aS'w+2=majority'
p2095
aS'w+2=make'
p2096
aS'w+2=mango'
p2097
aS'w+2=many'
p2098
aS'w+2=market'
p2099
aS'w+2=matching'
p2100
aS'w+2=maybe'
p2101
aS'w+2=mayor'
p2102
aS'w+2=meet'
p2103
aS'w+2=meeting'
p2104
aS'w+2=mention'
p2105
aS'w+2=mid-century'
p2106
aS'w+2=might'
p2107
aS'w+2=military'
p2108
aS'w+2=mine'
p2109
aS'w+2=minister'
p2110
aS'w+2=mitigate'
p2111
aS'w+2=moderate'
p2112
aS'w+2=modest'
p2113
aS'w+2=month'
p2114
aS'w+2=more'
p2115
aS'w+2=most'
p2116
aS'w+2=mount'
p2117
aS'w+2=move'
p2118
aS'w+2=much'
p2119
aS'w+2=my'
p2120
aS'w+2=nation'
p2121
aS'w+2=nearly'
p2122
aS'w+2=negotiation'
p2123
aS'w+2=new'
p2124
aS'w+2=newly'
p2125
aS'w+2=news'
p2126
aS'w+2=next'
p2127
aS'w+2=night'
p2128
aS'w+2=nikolic'
p2129
aS'w+2=not'
p2130
aS'w+2=nuclear'
p2131
aS'w+2=number'
p2132
aS'w+2=obey'
p2133
aS'w+2=obtain'
p2134
aS'w+2=occur'
p2135
aS'w+2=of'
p2136
aS'w+2=offensive'
p2137
aS'w+2=offer'
p2138
aS'w+2=official'
p2139
aS'w+2=officially'
p2140
aS'w+2=on'
p2141
aS'w+2=one'
p2142
aS'w+2=open'
p2143
aS'w+2=operation'
p2144
aS'w+2=opponent'
p2145
aS'w+2=opposition'
p2146
aS'w+2=or'
p2147
aS'w+2=other'
p2148
aS'w+2=outcome'
p2149
aS'w+2=outline'
p2150
aS'w+2=over'
p2151
aS'w+2=oversee'
p2152
aS'w+2=pace'
p2153
aS'w+2=package'
p2154
aS'w+2=pakistani'
p2155
aS'w+2=paralyze'
p2156
aS'w+2=parliament'
p2157
aS'w+2=part'
p2158
aS'w+2=participate'
p2159
aS'w+2=participation'
p2160
aS'w+2=particular'
p2161
aS'w+2=party'
p2162
aS'w+2=pass'
p2163
aS'w+2=patient'
p2164
aS'w+2=pause'
p2165
aS'w+2=pave'
p2166
aS'w+2=pay'
p2167
aS'w+2=peak'
p2168
aS'w+2=penalty'
p2169
aS'w+2=people'
p2170
aS'w+2=per'
p2171
aS'w+2=pick'
p2172
aS'w+2=play'
p2173
aS'w+2=plead'
p2174
aS'w+2=point'
p2175
aS'w+2=policy'
p2176
aS'w+2=political'
p2177
aS'w+2=poll'
p2178
aS'w+2=possible'
p2179
aS'w+2=post-september'
p2180
aS'w+2=power'
p2181
aS'w+2=present'
p2182
aS'w+2=president'
p2183
aS'w+2=president-elect'
p2184
aS'w+2=presidential'
p2185
aS'w+2=press'
p2186
aS'w+2=price'
p2187
aS'w+2=prime'
p2188
aS'w+2=private'
p2189
aS'w+2=procedure'
p2190
aS'w+2=proceed'
p2191
aS'w+2=process'
p2192
aS'w+2=produce'
p2193
aS'w+2=program'
p2194
aS'w+2=prompt'
p2195
aS'w+2=propose'
p2196
aS'w+2=prosecution'
p2197
aS'w+2=prospects'
p2198
aS'w+2=protect'
p2199
aS'w+2=protester'
p2200
aS'w+2=provide'
p2201
aS'w+2=publish'
p2202
aS'w+2=punch'
p2203
aS'w+2=pursue'
p2204
aS'w+2=push'
p2205
aS'w+2=put'
p2206
aS'w+2=quadruple'
p2207
aS'w+2=quality'
p2208
aS'w+2=question'
p2209
aS'w+2=quick'
p2210
aS'w+2=quick-fix'
p2211
aS'w+2=quickly'
p2212
aS'w+2=rain'
p2213
aS'w+2=raise'
p2214
aS'w+2=rank'
p2215
aS'w+2=rate'
p2216
aS'w+2=re-fuel'
p2217
aS'w+2=reach'
p2218
aS'w+2=reaction'
p2219
aS'w+2=reaffirm'
p2220
aS'w+2=real'
p2221
aS'w+2=receive'
p2222
aS'w+2=recognize'
p2223
aS'w+2=recommend'
p2224
aS'w+2=reconciliation'
p2225
aS'w+2=reconvene'
p2226
aS'w+2=red'
p2227
aS'w+2=redress'
p2228
aS'w+2=reduce'
p2229
aS'w+2=refer'
p2230
aS'w+2=regard'
p2231
aS'w+2=regional'
p2232
aS'w+2=release'
p2233
aS'w+2=remain'
p2234
aS'w+2=repeat'
p2235
aS'w+2=replace'
p2236
aS'w+2=report'
p2237
aS'w+2=republican'
p2238
aS'w+2=resist'
p2239
aS'w+2=respond'
p2240
aS'w+2=result'
p2241
aS'w+2=resume'
p2242
aS'w+2=retain'
p2243
aS'w+2=retention'
p2244
aS'w+2=return'
p2245
aS'w+2=reveal'
p2246
aS'w+2=revenue'
p2247
aS'w+2=reverse'
p2248
aS'w+2=review'
p2249
aS'w+2=revival'
p2250
aS'w+2=revive'
p2251
aS'w+2=rich'
p2252
aS'w+2=rigging'
p2253
aS'w+2=rightly'
p2254
aS'w+2=rise'
p2255
aS'w+2=road'
p2256
aS'w+2=route'
p2257
aS'w+2=rule'
p2258
aS'w+2=ruling'
p2259
aS'w+2=run'
p2260
aS'w+2=run-off'
p2261
aS'w+2=rupee'
p2262
aS'w+2=same'
p2263
aS'w+2=sanction'
p2264
aS'w+2=say'
p2265
aS'w+2=schedule'
p2266
aS'w+2=score'
p2267
aS'w+2=scrutinize'
p2268
aS'w+2=secure'
p2269
aS'w+2=see'
p2270
aS'w+2=seek'
p2271
aS'w+2=select'
p2272
aS'w+2=senate'
p2273
aS'w+2=send'
p2274
aS'w+2=serve'
p2275
aS'w+2=set'
p2276
aS'w+2=settle'
p2277
aS'w+2=seven-member'
p2278
aS'w+2=several'
p2279
aS'w+2=sharp'
p2280
aS'w+2=sharply'
p2281
aS'w+2=she'
p2282
aS'w+2=shortage'
p2283
aS'w+2=shrink'
p2284
aS'w+2=sign'
p2285
aS'w+2=signal'
p2286
aS'w+2=since'
p2287
aS'w+2=situation'
p2288
aS'w+2=six'
p2289
aS'w+2=sixth'
p2290
aS'w+2=sizeable'
p2291
aS'w+2=slow'
p2292
aS'w+2=small'
p2293
aS'w+2=smooth'
p2294
aS'w+2=so'
p2295
aS'w+2=society'
p2296
aS'w+2=soldier'
p2297
aS'w+2=solution'
p2298
aS'w+2=solve'
p2299
aS'w+2=some'
p2300
aS'w+2=something'
p2301
aS'w+2=soon'
p2302
aS'w+2=sort'
p2303
aS'w+2=speak'
p2304
aS'w+2=speaker'
p2305
aS'w+2=spend'
p2306
aS'w+2=spending'
p2307
aS'w+2=spring'
p2308
aS'w+2=staffing'
p2309
aS'w+2=stage'
p2310
aS'w+2=star'
p2311
aS'w+2=start'
p2312
aS'w+2=state'
p2313
aS'w+2=statement'
p2314
aS'w+2=stay'
p2315
aS'w+2=steady-as-you-go'
p2316
aS'w+2=step'
p2317
aS'w+2=stimulus'
p2318
aS'w+2=stop'
p2319
aS'w+2=strain'
p2320
aS'w+2=strife'
p2321
aS'w+2=strip'
p2322
aS'w+2=strong'
p2323
aS'w+2=strongly'
p2324
aS'w+2=submit'
p2325
aS'w+2=succeed'
p2326
aS'w+2=sudanese'
p2327
aS'w+2=suffer'
p2328
aS'w+2=summit'
p2329
aS'w+2=super'
p2330
aS'w+2=superdelegate'
p2331
aS'w+2=support'
p2332
aS'w+2=surpass'
p2333
aS'w+2=surprise'
p2334
aS'w+2=survive'
p2335
aS'w+2=sustain'
p2336
aS'w+2=sweep'
p2337
aS'w+2=swell'
p2338
aS'w+2=tackle'
p2339
aS'w+2=take'
p2340
aS'w+2=talk'
p2341
aS'w+2=tell'
p2342
aS'w+2=temperature'
p2343
aS'w+2=terror'
p2344
aS'w+2=testify'
p2345
aS'w+2=than'
p2346
aS'w+2=that'
p2347
aS'w+2=the'
p2348
aS'w+2=there'
p2349
aS'w+2=they'
p2350
aS'w+2=thing'
p2351
aS'w+2=this'
p2352
aS'w+2=those'
p2353
aS'w+2=thousand'
p2354
aS'w+2=three'
p2355
aS'w+2=tie'
p2356
aS'w+2=tighten'
p2357
aS'w+2=to'
p2358
aS'w+2=ton'
p2359
aS'w+2=top'
p2360
aS'w+2=total'
p2361
aS'w+2=touch'
p2362
aS'w+2=tough'
p2363
aS'w+2=transport'
p2364
aS'w+2=travel'
p2365
aS'w+2=tread'
p2366
aS'w+2=treat'
p2367
aS'w+2=trend'
p2368
aS'w+2=trial'
p2369
aS'w+2=trigger'
p2370
aS'w+2=trim'
p2371
aS'w+2=triple'
p2372
aS'w+2=troika'
p2373
aS'w+2=troop'
p2374
aS'w+2=troops'
p2375
aS'w+2=trouble'
p2376
aS'w+2=try'
p2377
aS'w+2=turn'
p2378
aS'w+2=turnout'
p2379
aS'w+2=two'
p2380
aS'w+2=u.s.-iran'
p2381
aS'w+2=undergo'
p2382
aS'w+2=underscore'
p2383
aS'w+2=undertake'
p2384
aS'w+2=unless'
p2385
aS'w+2=unveil'
p2386
aS'w+2=update'
p2387
aS'w+2=uranium'
p2388
aS'w+2=urge'
p2389
aS'w+2=use'
p2390
aS'w+2=valley'
p2391
aS'w+2=verification'
p2392
aS'w+2=verify'
p2393
aS'w+2=very'
p2394
aS'w+2=veto'
p2395
aS'w+2=vietnamese'
p2396
aS'w+2=visit'
p2397
aS'w+2=vote'
p2398
aS'w+2=voter'
p2399
aS'w+2=wage'
p2400
aS'w+2=warm'
p2401
aS'w+2=warn'
p2402
aS'w+2=wary'
p2403
aS'w+2=watch'
p2404
aS'w+2=wave'
p2405
aS'w+2=we'
p2406
aS'w+2=weaken'
p2407
aS'w+2=weather'
p2408
aS'w+2=week'
p2409
aS'w+2=welcome'
p2410
aS'w+2=well'
p2411
aS'w+2=when'
p2412
aS'w+2=widen'
p2413
aS'w+2=will'
p2414
aS'w+2=win'
p2415
aS'w+2=wind'
p2416
aS'w+2=with'
p2417
aS'w+2=withdraw'
p2418
aS'w+2=woman'
p2419
aS'w+2=work'
p2420
aS'w+2=world'
p2421
aS'w+2=worsen'
p2422
aS'w+2=would'
p2423
aS'w+2=wrangling'
p2424
aS'w+2=wrap'
p2425
aS'w+2=write'
p2426
aS'w+2=year'
p2427
aS'w+2=you'
p2428
aS"w-1='ll"
p2429
aS"w-1='s"
p2430
aS'w-1=,'
p2431
aS'w-1=-rrb-'
p2432
aS'w-1=.'
p2433
aS'w-1=35'
p2434
aS'w-1=Africa'
p2435
aS'w-1=Ali'
p2436
aS'w-1=Bacevich'
p2437
aS'w-1=Balch'
p2438
aS'w-1=Bank'
p2439
aS'w-1=Bush'
p2440
aS'w-1=China'
p2441
aS'w-1=Congress'
p2442
aS'w-1=Council'
p2443
aS'w-1=Dannatt'
p2444
aS'w-1=Dayan'
p2445
aS'w-1=Delhi'
p2446
aS'w-1=Democrats'
p2447
aS'w-1=Department'
p2448
aS'w-1=E.U.'
p2449
aS'w-1=Economics'
p2450
aS'w-1=Fowler'
p2451
aS'w-1=GIA'
p2452
aS'w-1=Gerard'
p2453
aS'w-1=Hoya'
p2454
aS'w-1=I'
p2455
aS'w-1=Iranis'
p2456
aS'w-1=Iraq'
p2457
aS'w-1=Iraqis'
p2458
aS'w-1=Islamabad'
p2459
aS'w-1=Israel'
p2460
aS'w-1=Jeong'
p2461
aS'w-1=June'
p2462
aS'w-1=Kenya'
p2463
aS'w-1=Kenyans'
p2464
aS'w-1=Kibaki'
p2465
aS'w-1=Kodi'
p2466
aS'w-1=Korea'
p2467
aS'w-1=Krzyzewski'
p2468
aS'w-1=Lopez'
p2469
aS'w-1=Lytvynenko'
p2470
aS'w-1=Mbeki'
p2471
aS'w-1=Mehboob'
p2472
aS'w-1=Nahata'
p2473
aS'w-1=Nigeria'
p2474
aS'w-1=Organization'
p2475
aS'w-1=Palestinians'
p2476
aS'w-1=Pope'
p2477
aS'w-1=Potts'
p2478
aS'w-1=Rice'
p2479
aS'w-1=Rollins'
p2480
aS'w-1=Rothenberg'
p2481
aS'w-1=Savani'
p2482
aS'w-1=Shapiro'
p2483
aS'w-1=Sharga'
p2484
aS'w-1=Siwaily'
p2485
aS'w-1=Socialists'
p2486
aS'w-1=States'
p2487
aS'w-1=UNHCR'
p2488
aS'w-1=Volvo'
p2489
aS'w-1=Washington'
p2490
aS'w-1=Wiggins'
p2491
aS'w-1=Wolfson'
p2492
aS'w-1=a'
p2493
aS'w-1=a380'
p2494
aS'w-1=actually'
p2495
aS'w-1=administration'
p2496
aS'w-1=against'
p2497
aS'w-1=agency'
p2498
aS'w-1=agreement'
p2499
aS'w-1=al-Omari'
p2500
aS'w-1=all'
p2501
aS'w-1=almost'
p2502
aS'w-1=already'
p2503
aS'w-1=also'
p2504
aS'w-1=analyst'
p2505
aS'w-1=and'
p2506
aS'w-1=anyone'
p2507
aS'w-1=as'
p2508
aS'w-1=authority'
p2509
aS'w-1=bank'
p2510
aS'w-1=be'
p2511
aS'w-1=bill'
p2512
aS'w-1=billion'
p2513
aS'w-1=both'
p2514
aS'w-1=brigade'
p2515
aS'w-1=but'
p2516
aS'w-1=can'
p2517
aS'w-1=center'
p2518
aS'w-1=come'
p2519
aS'w-1=command'
p2520
aS'w-1=commander'
p2521
aS'w-1=commander-in-chief'
p2522
aS'w-1=commission'
p2523
aS'w-1=conference'
p2524
aS'w-1=conservative'
p2525
aS'w-1=could'
p2526
aS'w-1=country'
p2527
aS'w-1=cuba-watcher'
p2528
aS'w-1=customer'
p2529
aS'w-1=decision'
p2530
aS'w-1=defeat'
p2531
aS'w-1=deficit'
p2532
aS'w-1=definitely'
p2533
aS'w-1=demand'
p2534
aS'w-1=do'
p2535
aS'w-1=during'
p2536
aS'w-1=eagerly'
p2537
aS'w-1=economist'
p2538
aS'w-1=election'
p2539
aS'w-1=electorate'
p2540
aS'w-1=ere'
p2541
aS'w-1=event'
p2542
aS'w-1=eventually'
p2543
aS'w-1=everyone'
p2544
aS'w-1=expert'
p2545
aS'w-1=face'
p2546
aS'w-1=fair'
p2547
aS'w-1=family'
p2548
aS'w-1=fan'
p2549
aS'w-1=farm'
p2550
aS'w-1=few'
p2551
aS'w-1=flood'
p2552
aS'w-1=follow'
p2553
aS'w-1=force'
p2554
aS'w-1=forecaster'
p2555
aS'w-1=front'
p2556
aS'w-1=fully'
p2557
aS'w-1=government'
p2558
aS'w-1=grain'
p2559
aS'w-1=have'
p2560
aS'w-1=he'
p2561
aS'w-1=here'
p2562
aS'w-1=higher-than'
p2563
aS'w-1=holder'
p2564
aS'w-1=home'
p2565
aS'w-1=import'
p2566
aS'w-1=industry'
p2567
aS'w-1=infection'
p2568
aS'w-1=initiative'
p2569
aS'w-1=inquiry'
p2570
aS'w-1=iraqare'
p2571
aS'w-1=issue'
p2572
aS'w-1=it'
p2573
aS'w-1=just'
p2574
aS'w-1=label'
p2575
aS'w-1=law'
p2576
aS'w-1=leader'
p2577
aS'w-1=least'
p2578
aS'w-1=longer'
p2579
aS'w-1=maker'
p2580
aS'w-1=man'
p2581
aS'w-1=many'
p2582
aS'w-1=measure'
p2583
aS'w-1=might'
p2584
aS'w-1=military'
p2585
aS'w-1=mind'
p2586
aS'w-1=more'
p2587
aS'w-1=must'
p2588
aS'w-1=n-o-t'
p2589
aS'w-1=nation'
p2590
aS'w-1=negotiator'
p2591
aS'w-1=neither'
p2592
aS'w-1=never'
p2593
aS'w-1=ngo'
p2594
aS'w-1=no-one'
p2595
aS'w-1=nobody'
p2596
aS'w-1=not'
p2597
aS'w-1=now'
p2598
aS'w-1=observer'
p2599
aS'w-1=of'
p2600
aS'w-1=offensive'
p2601
aS'w-1=official'
p2602
aS'w-1=one'
p2603
aS'w-1=only'
p2604
aS'w-1=originally'
p2605
aS'w-1=pace'
p2606
aS'w-1=pain'
p2607
aS'w-1=panel'
p2608
aS'w-1=park'
p2609
aS'w-1=parliament'
p2610
aS'w-1=passenger'
p2611
aS'w-1=people'
p2612
aS'w-1=policy'
p2613
aS'w-1=population'
p2614
aS'w-1=president'
p2615
aS'w-1=previously'
p2616
aS'w-1=probe'
p2617
aS'w-1=professional'
p2618
aS'w-1=prosecutor'
p2619
aS'w-1=really'
p2620
aS'w-1=reasonably'
p2621
aS'w-1=record'
p2622
aS'w-1=region'
p2623
aS'w-1=researcher'
p2624
aS'w-1=result'
p2625
aS'w-1=roll'
p2626
aS'w-1=runner'
p2627
aS'w-1=session'
p2628
aS'w-1=several'
p2629
aS'w-1=she'
p2630
aS'w-1=should'
p2631
aS'w-1=side'
p2632
aS'w-1=soldier'
p2633
aS'w-1=some'
p2634
aS'w-1=staff'
p2635
aS'w-1=start'
p2636
aS'w-1=statehood'
p2637
aS'w-1=still'
p2638
aS'w-1=summit'
p2639
aS'w-1=talk'
p2640
aS'w-1=task'
p2641
aS'w-1=than'
p2642
aS'w-1=that'
p2643
aS'w-1=the'
p2644
aS'w-1=then'
p2645
aS'w-1=they'
p2646
aS'w-1=those'
p2647
aS'w-1=to'
p2648
aS'w-1=visit'
p2649
aS'w-1=visitor'
p2650
aS'w-1=voter'
p2651
aS'w-1=warrant'
p2652
aS'w-1=we'
p2653
aS'w-1=well'
p2654
aS'w-1=what'
p2655
aS'w-1=widely'
p2656
aS'w-1=will'
p2657
aS'w-1=would'
p2658
aS'w-1=year'
p2659
aS'w-1=you'
p2660
aS"w-2=''"
p2661
aS'w-2=,'
p2662
aS'w-2=-'
p2663
aS'w-2=.'
p2664
aS'w-2=10'
p2665
aS'w-2=2004'
p2666
aS'w-2=2007'
p2667
aS'w-2=2008'
p2668
aS'w-2=26,000'
p2669
aS'w-2=400,000'
p2670
aS'w-2=80'
p2671
aS'w-2=88,000'
p2672
aS'w-2=:'
p2673
aS'w-2=AFRICOM'
p2674
aS'w-2=Abbas'
p2675
aS'w-2=Abuja'
p2676
aS'w-2=Afganistan'
p2677
aS'w-2=Afghanistan'
p2678
aS'w-2=AfriCom'
p2679
aS'w-2=Africa'
p2680
aS'w-2=Africom'
p2681
aS'w-2=Ahmadinejad'
p2682
aS'w-2=Americans'
p2683
aS'w-2=Ankara'
p2684
aS'w-2=Annan'
p2685
aS'w-2=April'
p2686
aS'w-2=Asia'
p2687
aS'w-2=Assembly'
p2688
aS'w-2=Australia'
p2689
aS'w-2=Azerbaijan'
p2690
aS'w-2=Baidoa'
p2691
aS'w-2=Bali'
p2692
aS'w-2=Ban'
p2693
aS'w-2=Bank'
p2694
aS'w-2=Barak'
p2695
aS'w-2=Barroso'
p2696
aS'w-2=Bashir'
p2697
aS'w-2=Beckham'
p2698
aS'w-2=Benedict'
p2699
aS'w-2=Berlusconi'
p2700
aS'w-2=Biden'
p2701
aS'w-2=Bilal'
p2702
aS'w-2=Blair'
p2703
aS'w-2=Boehner'
p2704
aS'w-2=Brussels'
p2705
aS'w-2=Bush'
p2706
aS'w-2=Bushehr'
p2707
aS'w-2=Business'
p2708
aS'w-2=Cabinet'
p2709
aS'w-2=Camara'
p2710
aS'w-2=Cambodia'
p2711
aS'w-2=Caucasus'
p2712
aS'w-2=Chavez'
p2713
aS'w-2=Cheney'
p2714
aS'w-2=China'
p2715
aS'w-2=City'
p2716
aS'w-2=Clinton'
p2717
aS'w-2=College'
p2718
aS'w-2=Commerce'
p2719
aS'w-2=Commission'
p2720
aS'w-2=Committee'
p2721
aS'w-2=Community'
p2722
aS'w-2=Congress'
p2723
aS'w-2=Consultation'
p2724
aS'w-2=Court'
p2725
aS'w-2=Craig'
p2726
aS'w-2=Cup'
p2727
aS'w-2=Day'
p2728
aS'w-2=Democratic'
p2729
aS'w-2=Development'
p2730
aS'w-2=Dr.'
p2731
aS'w-2=EU'
p2732
aS'w-2=Elizabeth'
p2733
aS'w-2=Ethiopia'
p2734
aS'w-2=Europe'
p2735
aS'w-2=France'
p2736
aS'w-2=Friday'
p2737
aS'w-2=Fukuda'
p2738
aS'w-2=Gardner'
p2739
aS'w-2=Gates'
p2740
aS'w-2=Gbagbo'
p2741
aS'w-2=General'
p2742
aS'w-2=Geneva'
p2743
aS'w-2=Germany'
p2744
aS'w-2=Ghaith'
p2745
aS'w-2=Gruevski'
p2746
aS'w-2=Hagel'
p2747
aS'w-2=Hampshire'
p2748
aS'w-2=Harare'
p2749
aS'w-2=Health'
p2750
aS'w-2=Henk'
p2751
aS'w-2=Hill'
p2752
aS'w-2=Hoi-chang'
p2753
aS'w-2=House'
p2754
aS'w-2=I'
p2755
aS'w-2=IFFIM'
p2756
aS'w-2=IMF'
p2757
aS'w-2=Il'
p2758
aS'w-2=Indiana'
p2759
aS'w-2=Iran'
p2760
aS'w-2=Iraq'
p2761
aS'w-2=Israel'
p2762
aS'w-2=Italy'
p2763
aS'w-2=Japan'
p2764
aS'w-2=Jones'
p2765
aS'w-2=Jordan'
p2766
aS'w-2=Kenya'
p2767
aS'w-2=Kenyans'
p2768
aS'w-2=Kibaki'
p2769
aS'w-2=Kibo'
p2770
aS'w-2=Kim'
p2771
aS'w-2=Kong'
p2772
aS'w-2=Korea'
p2773
aS'w-2=Koreas'
p2774
aS'w-2=Kosovo'
p2775
aS'w-2=La'
p2776
aS'w-2=League'
p2777
aS'w-2=Lee'
p2778
aS'w-2=Lewis'
p2779
aS'w-2=Lieberman'
p2780
aS'w-2=Life'
p2781
aS'w-2=Mbeki'
p2782
aS'w-2=McCain'
p2783
aS'w-2=McConnell'
p2784
aS'w-2=Meles'
p2785
aS'w-2=Merkel'
p2786
aS'w-2=Millionaire'
p2787
aS'w-2=Minister'
p2788
aS'w-2=Mitchell'
p2789
aS'w-2=Mogadishu'
p2790
aS'w-2=Monday'
p2791
aS'w-2=Movement'
p2792
aS'w-2=Mugabe'
p2793
aS'w-2=Mushake'
p2794
aS'w-2=Musharraf'
p2795
aS'w-2=NABE'
p2796
aS'w-2=Nations'
p2797
aS'w-2=Negroponte'
p2798
aS'w-2=Network'
p2799
aS'w-2=New'
p2800
aS'w-2=Nina'
p2801
aS'w-2=North'
p2802
aS'w-2=OPEC'
p2803
aS'w-2=Obama'
p2804
aS'w-2=Obiang'
p2805
aS'w-2=Odinga'
p2806
aS'w-2=Olmert'
p2807
aS'w-2=Organization'
p2808
aS'w-2=PPP'
p2809
aS'w-2=Pacific'
p2810
aS'w-2=Party'
p2811
aS'w-2=Petraeus'
p2812
aS'w-2=Pohamba'
p2813
aS'w-2=President'
p2814
aS'w-2=Putin'
p2815
aS'w-2=Regional'
p2816
aS'w-2=Representatives'
p2817
aS'w-2=Republicans'
p2818
aS'w-2=Ribadu'
p2819
aS'w-2=Rice'
p2820
aS'w-2=Richardson'
p2821
aS'w-2=Roh'
p2822
aS'w-2=Rudd'
p2823
aS'w-2=Russia'
p2824
aS'w-2=Samphan'
p2825
aS'w-2=San'
p2826
aS'w-2=Sarkozy'
p2827
aS'w-2=Saturday'
p2828
aS'w-2=Secretary'
p2829
aS'w-2=Security'
p2830
aS'w-2=Senate'
p2831
aS'w-2=Senior'
p2832
aS'w-2=September'
p2833
aS'w-2=Serbia'
p2834
aS'w-2=Sharif'
p2835
aS'w-2=Show'
p2836
aS'w-2=Skywalk'
p2837
aS'w-2=Southerners'
p2838
aS'w-2=State'
p2839
aS'w-2=States'
p2840
aS'w-2=Stuart'
p2841
aS'w-2=Studies'
p2842
aS'w-2=Sudanese'
p2843
aS'w-2=Suleiman'
p2844
aS'w-2=Sunday'
p2845
aS'w-2=Sunnis'
p2846
aS'w-2=Taleban'
p2847
aS'w-2=Taliban'
p2848
aS'w-2=Team'
p2849
aS'w-2=Tennessee'
p2850
aS'w-2=Thais'
p2851
aS'w-2=Theresa'
p2852
aS'w-2=Thinley'
p2853
aS'w-2=Thompson'
p2854
aS'w-2=Thursday'
p2855
aS'w-2=Toure'
p2856
aS'w-2=Tsvangirai'
p2857
aS'w-2=Turnoff'
p2858
aS'w-2=U.N.'
p2859
aS'w-2=U.S.'
p2860
aS'w-2=Union'
p2861
aS'w-2=United'
p2862
aS'w-2=Unity'
p2863
aS'w-2=Uzi'
p2864
aS'w-2=Vernon'
p2865
aS'w-2=Vietnam'
p2866
aS'w-2=Vlok'
p2867
aS'w-2=Wednesday'
p2868
aS'w-2=Yuschenko'
p2869
aS'w-2=Yusuf'
p2870
aS'w-2=Zimbabwe'
p2871
aS'w-2=a'
p2872
aS'w-2=about'
p2873
aS'w-2=administration'
p2874
aS'w-2=advocate'
p2875
aS'w-2=after'
p2876
aS'w-2=against'
p2877
aS'w-2=agency'
p2878
aS'w-2=agenda'
p2879
aS'w-2=ago'
p2880
aS'w-2=agreement'
p2881
aS'w-2=ahead'
p2882
aS'w-2=aid'
p2883
aS'w-2=airport'
p2884
aS'w-2=akp'
p2885
aS'w-2=al-Bashir'
p2886
aS'w-2=also'
p2887
aS'w-2=although'
p2888
aS'w-2=always'
p2889
aS'w-2=amendment'
p2890
aS'w-2=american'
p2891
aS'w-2=among'
p2892
aS'w-2=analyst'
p2893
aS'w-2=and'
p2894
aS'w-2=announce'
p2895
aS'w-2=announcement'
p2896
aS'w-2=application'
p2897
aS'w-2=approval'
p2898
aS'w-2=argentine'
p2899
aS'w-2=arrest'
p2900
aS'w-2=arrival'
p2901
aS'w-2=as'
p2902
aS'w-2=assembly'
p2903
aS'w-2=attack'
p2904
aS'w-2=au'
p2905
aS'w-2=audience'
p2906
aS'w-2=authority'
p2907
aS'w-2=bahanga'
p2908
aS'w-2=bank'
p2909
aS'w-2=be'
p2910
aS'w-2=because'
p2911
aS'w-2=beef'
p2912
aS'w-2=before'
p2913
aS'w-2=behind'
p2914
aS'w-2=better'
p2915
aS'w-2=bill'
p2916
aS'w-2=blunt'
p2917
aS'w-2=both'
p2918
aS'w-2=breakthrough'
p2919
aS'w-2=breeze'
p2920
aS'w-2=business'
p2921
aS'w-2=but'
p2922
aS'w-2=camp'
p2923
aS'w-2=campaign'
p2924
aS'w-2=can'
p2925
aS'w-2=candidate'
p2926
aS'w-2=car'
p2927
aS'w-2=care'
p2928
aS'w-2=carmaker'
p2929
aS'w-2=case'
p2930
aS'w-2=caution'
p2931
aS'w-2=celebration'
p2932
aS'w-2=central'
p2933
aS'w-2=challenge'
p2934
aS'w-2=chamber'
p2935
aS'w-2=change'
p2936
aS'w-2=channel'
p2937
aS'w-2=charge'
p2938
aS'w-2=charter'
p2939
aS'w-2=child'
p2940
aS'w-2=chronic'
p2941
aS'w-2=citizen'
p2942
aS'w-2=city'
p2943
aS'w-2=co-prosecutor'
p2944
aS'w-2=coach'
p2945
aS'w-2=collapse'
p2946
aS'w-2=come'
p2947
aS'w-2=command'
p2948
aS'w-2=commander'
p2949
aS'w-2=commission'
p2950
aS'w-2=committee'
p2951
aS'w-2=community'
p2952
aS'w-2=company'
p2953
aS'w-2=complication'
p2954
aS'w-2=conference'
p2955
aS'w-2=conservative'
p2956
aS'w-2=construction'
p2957
aS'w-2=consumer'
p2958
aS'w-2=consumption'
p2959
aS'w-2=could'
p2960
aS'w-2=country'
p2961
aS'w-2=couple'
p2962
aS'w-2=court'
p2963
aS'w-2=crackdown'
p2964
aS'w-2=crew'
p2965
aS'w-2=cross'
p2966
aS'w-2=datum'
p2967
aS'w-2=day'
p2968
aS'w-2=deal'
p2969
aS'w-2=death'
p2970
aS'w-2=debate'
p2971
aS'w-2=decision'
p2972
aS'w-2=deep'
p2973
aS'w-2=defense'
p2974
aS'w-2=deficit'
p2975
aS'w-2=delegate'
p2976
aS'w-2=delegation'
p2977
aS'w-2=demand'
p2978
aS'w-2=democrat'
p2979
aS'w-2=democratic'
p2980
aS'w-2=despite'
p2981
aS'w-2=detail'
p2982
aS'w-2=develop'
p2983
aS'w-2=developing'
p2984
aS'w-2=difficult'
p2985
aS'w-2=diplomat'
p2986
aS'w-2=diplomatic'
p2987
aS'w-2=disagreement'
p2988
aS'w-2=discussion'
p2989
aS'w-2=disease'
p2990
aS'w-2=district'
p2991
aS'w-2=do'
p2992
aS'w-2=earlier'
p2993
aS'w-2=east-african'
p2994
aS'w-2=echo'
p2995
aS'w-2=economic'
p2996
aS'w-2=economy'
p2997
aS'w-2=effort'
p2998
aS'w-2=eight'
p2999
aS'w-2=election'
p3000
aS'w-2=emergency'
p3001
aS'w-2=environment'
p3002
aS'w-2=envoy'
p3003
aS'w-2=epidemoliogist'
p3004
aS'w-2=event'
p3005
aS'w-2=everyone'
p3006
aS'w-2=exercise'
p3007
aS'w-2=exhaustive'
p3008
aS'w-2=experiment'
p3009
aS'w-2=expert'
p3010
aS'w-2=export'
p3011
aS'w-2=facility'
p3012
aS'w-2=faction'
p3013
aS'w-2=fan'
p3014
aS'w-2=far'
p3015
aS'w-2=farmer'
p3016
aS'w-2=few'
p3017
aS'w-2=field'
p3018
aS'w-2=figure'
p3019
aS'w-2=final'
p3020
aS'w-2=first'
p3021
aS'w-2=fleet'
p3022
aS'w-2=flooding'
p3023
aS'w-2=for'
p3024
aS'w-2=force'
p3025
aS'w-2=forecast'
p3026
aS'w-2=framework'
p3027
aS'w-2=french'
p3028
aS'w-2=future'
p3029
aS'w-2=game'
p3030
aS'w-2=general'
p3031
aS'w-2=generation'
p3032
aS'w-2=gesture'
p3033
aS'w-2=girlfriend'
p3034
aS'w-2=go'
p3035
aS'w-2=goal'
p3036
aS'w-2=government'
p3037
aS'w-2=greater'
p3038
aS'w-2=group'
p3039
aS'w-2=growth'
p3040
aS'w-2=grumble'
p3041
aS'w-2=guest'
p3042
aS'w-2=half'
p3043
aS'w-2=hard'
p3044
aS'w-2=harvest'
p3045
aS'w-2=have'
p3046
aS'w-2=he'
p3047
aS'w-2=hearing'
p3048
aS'w-2=hezbollah'
p3049
aS'w-2=higher'
p3050
aS'w-2=home'
p3051
aS'w-2=hope'
p3052
aS'w-2=how'
p3053
aS'w-2=human-rights'
p3054
aS'w-2=idea'
p3055
aS'w-2=if'
p3056
aS'w-2=immigration'
p3057
aS'w-2=impractical'
p3058
aS'w-2=improvement'
p3059
aS'w-2=in'
p3060
aS'w-2=incarnation'
p3061
aS'w-2=include'
p3062
aS'w-2=indian'
p3063
aS'w-2=industry'
p3064
aS'w-2=infrastructure'
p3065
aS'w-2=injection'
p3066
aS'w-2=innocence'
p3067
aS'w-2=inquiry'
p3068
aS'w-2=inspector'
p3069
aS'w-2=instrument'
p3070
aS'w-2=into'
p3071
aS'w-2=investigation'
p3072
aS'w-2=investigator'
p3073
aS'w-2=investor'
p3074
aS'w-2=issue'
p3075
aS'w-2=it'
p3076
aS'w-2=judge'
p3077
aS'w-2=kenyan'
p3078
aS'w-2=ki-moon'
p3079
aS'w-2=kind'
p3080
aS'w-2=labor'
p3081
aS'w-2=larger'
p3082
aS'w-2=lawmaker'
p3083
aS'w-2=leader'
p3084
aS'w-2=least'
p3085
aS'w-2=legal'
p3086
aS'w-2=legislation'
p3087
aS'w-2=lender'
p3088
aS'w-2=level'
p3089
aS'w-2=line'
p3090
aS'w-2=longer'
p3091
aS'w-2=majority'
p3092
aS'w-2=man'
p3093
aS'w-2=mandate'
p3094
aS'w-2=many'
p3095
aS'w-2=market'
p3096
aS'w-2=measure'
p3097
aS'w-2=mediator'
p3098
aS'w-2=medical'
p3099
aS'w-2=meeting'
p3100
aS'w-2=member'
p3101
aS'w-2=midfielder'
p3102
aS'w-2=might'
p3103
aS'w-2=million'
p3104
aS'w-2=minister'
p3105
aS'w-2=minority'
p3106
aS'w-2=mission'
p3107
aS'w-2=month'
p3108
aS'w-2=more'
p3109
aS'w-2=most'
p3110
aS'w-2=motion'
p3111
aS'w-2=move'
p3112
aS'w-2=movie'
p3113
aS'w-2=much'
p3114
aS'w-2=nation'
p3115
aS'w-2=national'
p3116
aS'w-2=navy'
p3117
aS'w-2=negotiation'
p3118
aS'w-2=negotiator'
p3119
aS'w-2=network'
p3120
aS'w-2=new'
p3121
aS'w-2=no'
p3122
aS'w-2=none'
p3123
aS'w-2=not'
p3124
aS'w-2=nothing'
p3125
aS'w-2=now'
p3126
aS'w-2=number'
p3127
aS'w-2=of'
p3128
aS'w-2=officer'
p3129
aS'w-2=official'
p3130
aS'w-2=oil'
p3131
aS'w-2=one'
p3132
aS'w-2=operation'
p3133
aS'w-2=opinion'
p3134
aS'w-2=opposition'
p3135
aS'w-2=organize'
p3136
aS'w-2=organizer'
p3137
aS'w-2=other'
p3138
aS'w-2=outline'
p3139
aS'w-2=oversee'
p3140
aS'w-2=pair'
p3141
aS'w-2=palestinian'
p3142
aS'w-2=panel'
p3143
aS'w-2=parliament'
p3144
aS'w-2=parliamentary'
p3145
aS'w-2=participant'
p3146
aS'w-2=participation'
p3147
aS'w-2=party'
p3148
aS'w-2=peace'
p3149
aS'w-2=peacekeeper'
p3150
aS'w-2=people'
p3151
aS'w-2=performer'
p3152
aS'w-2=picture'
p3153
aS'w-2=pilgrim'
p3154
aS'w-2=plaintiff'
p3155
aS'w-2=plan'
p3156
aS'w-2=plane'
p3157
aS'w-2=planet'
p3158
aS'w-2=plant'
p3159
aS'w-2=player'
p3160
aS'w-2=policy'
p3161
aS'w-2=political'
p3162
aS'w-2=politician'
p3163
aS'w-2=poorer'
p3164
aS'w-2=position'
p3165
aS'w-2=post'
p3166
aS'w-2=power'
p3167
aS'w-2=practical'
p3168
aS'w-2=president'
p3169
aS'w-2=pressure'
p3170
aS'w-2=prevent'
p3171
aS'w-2=price'
p3172
aS'w-2=probably'
p3173
aS'w-2=process'
p3174
aS'w-2=product'
p3175
aS'w-2=program'
p3176
aS'w-2=progress'
p3177
aS'w-2=project'
p3178
aS'w-2=proposal'
p3179
aS'w-2=prosecution'
p3180
aS'w-2=prosecutor'
p3181
aS'w-2=prospects'
p3182
aS'w-2=protest'
p3183
aS'w-2=protester'
p3184
aS'w-2=protestor'
p3185
aS'w-2=province'
p3186
aS'w-2=public'
p3187
aS'w-2=quickly'
p3188
aS'w-2=race'
p3189
aS'w-2=rain'
p3190
aS'w-2=rainfall'
p3191
aS'w-2=rate'
p3192
aS'w-2=re-polling'
p3193
aS'w-2=realistic'
p3194
aS'w-2=reason'
p3195
aS'w-2=rebel'
p3196
aS'w-2=reduce'
p3197
aS'w-2=referendum'
p3198
aS'w-2=reflect'
p3199
aS'w-2=reform'
p3200
aS'w-2=region'
p3201
aS'w-2=regional'
p3202
aS'w-2=regulator'
p3203
aS'w-2=reinforcement'
p3204
aS'w-2=reluctant'
p3205
aS'w-2=report'
p3206
aS'w-2=reporter'
p3207
aS'w-2=republican'
p3208
aS'w-2=request'
p3209
aS'w-2=requirement'
p3210
aS'w-2=resistance'
p3211
aS'w-2=resolution'
p3212
aS'w-2=result'
p3213
aS'w-2=review'
p3214
aS'w-2=rice'
p3215
aS'w-2=right'
p3216
aS'w-2=rightful'
p3217
aS'w-2=ruling'
p3218
aS'w-2=sale'
p3219
aS'w-2=same'
p3220
aS'w-2=satellite'
p3221
aS'w-2=say'
p3222
aS'w-2=scene'
p3223
aS'w-2=season'
p3224
aS'w-2=secretary-general'
p3225
aS'w-2=senator'
p3226
aS'w-2=sentence'
p3227
aS'w-2=service'
p3228
aS'w-2=she'
p3229
aS'w-2=shift'
p3230
aS'w-2=shiite'
p3231
aS'w-2=shipment'
p3232
aS'w-2=shortage'
p3233
aS'w-2=should'
p3234
aS'w-2=shuttle'
p3235
aS'w-2=side'
p3236
aS'w-2=similar'
p3237
aS'w-2=situation'
p3238
aS'w-2=slower'
p3239
aS'w-2=slowly'
p3240
aS'w-2=so'
p3241
aS'w-2=soccer'
p3242
aS'w-2=soldier'
p3243
aS'w-2=some'
p3244
aS'w-2=somehow'
p3245
aS'w-2=soon'
p3246
aS'w-2=sound'
p3247
aS'w-2=soundly'
p3248
aS'w-2=south'
p3249
aS'w-2=spending'
p3250
aS'w-2=stake'
p3251
aS'w-2=state'
p3252
aS'w-2=statement'
p3253
aS'w-2=still'
p3254
aS'w-2=stop'
p3255
aS'w-2=storm'
p3256
aS'w-2=strategy'
p3257
aS'w-2=strengthening'
p3258
aS'w-2=strike'
p3259
aS'w-2=stronger'
p3260
aS'w-2=student'
p3261
aS'w-2=subsidy'
p3262
aS'w-2=summit'
p3263
aS'w-2=superdelegate'
p3264
aS'w-2=supplies'
p3265
aS'w-2=supporter'
p3266
aS'w-2=talk'
p3267
aS'w-2=team'
p3268
aS'w-2=tender'
p3269
aS'w-2=than'
p3270
aS'w-2=that'
p3271
aS'w-2=the'
p3272
aS'w-2=there'
p3273
aS'w-2=they'
p3274
aS'w-2=thing'
p3275
aS'w-2=think'
p3276
aS'w-2=this'
p3277
aS'w-2=those'
p3278
aS'w-2=though'
p3279
aS'w-2=thousand'
p3280
aS'w-2=time'
p3281
aS'w-2=to'
p3282
aS'w-2=toll'
p3283
aS'w-2=tourist'
p3284
aS'w-2=train'
p3285
aS'w-2=trend'
p3286
aS'w-2=trial'
p3287
aS'w-2=trip'
p3288
aS'w-2=troops'
p3289
aS'w-2=truck'
p3290
aS'w-2=turnout'
p3291
aS'w-2=two'
p3292
aS'w-2=unionist'
p3293
aS'w-2=unity'
p3294
aS'w-2=unrealistic'
p3295
aS'w-2=unreasonable'
p3296
aS'w-2=venture'
p3297
aS'w-2=verdict'
p3298
aS'w-2=victim'
p3299
aS'w-2=victory'
p3300
aS'w-2=visit'
p3301
aS'w-2=vote'
p3302
aS'w-2=voter'
p3303
aS'w-2=voting'
p3304
aS'w-2=wage'
p3305
aS'w-2=want'
p3306
aS'w-2=war'
p3307
aS'w-2=war-funding'
p3308
aS'w-2=warn'
p3309
aS'w-2=water'
p3310
aS'w-2=way'
p3311
aS'w-2=we'
p3312
aS'w-2=weapon'
p3313
aS'w-2=weather'
p3314
aS'w-2=week'
p3315
aS'w-2=welcome'
p3316
aS'w-2=western'
p3317
aS'w-2=what'
p3318
aS'w-2=where'
p3319
aS'w-2=whether'
p3320
aS'w-2=which'
p3321
aS'w-2=while'
p3322
aS'w-2=who'
p3323
aS'w-2=whom'
p3324
aS'w-2=why'
p3325
aS'w-2=wider'
p3326
aS'w-2=will'
p3327
aS'w-2=win'
p3328
aS'w-2=wind'
p3329
aS'w-2=with'
p3330
aS'w-2=withstand'
p3331
aS'w-2=woman'
p3332
aS'w-2=work'
p3333
aS'w-2=worker'
p3334
aS'w-2=world'
p3335
aS'w-2=worse'
p3336
aS'w-2=would'
p3337
aS'w-2=yeah'
p3338
aS'w-2=year'
p3339
aS'w-2=you'
p3340
aS'w-2=zone'
p3341
aS'xcomp=#NUMBER#'
p3342
aS'xcomp=$'
p3343
aS'xcomp=Medvedev'
p3344
aS'xcomp=Summit'
p3345
aS'xcomp=abandon'
p3346
aS'xcomp=able'
p3347
aS'xcomp=abstain'
p3348
aS'xcomp=accelerate'
p3349
aS'xcomp=accept'
p3350
aS'xcomp=accurate'
p3351
aS'xcomp=act'
p3352
aS'xcomp=action'
p3353
aS'xcomp=add'
p3354
aS'xcomp=address'
p3355
aS'xcomp=adhere'
p3356
aS'xcomp=adopt'
p3357
aS'xcomp=affect'
p3358
aS'xcomp=agree'
p3359
aS'xcomp=alter'
p3360
aS'xcomp=anger'
p3361
aS'xcomp=announce'
p3362
aS'xcomp=apologize'
p3363
aS'xcomp=appear'
p3364
aS'xcomp=approve'
p3365
aS'xcomp=arrest'
p3366
aS'xcomp=arrive'
p3367
aS'xcomp=ask'
p3368
aS'xcomp=assume'
p3369
aS'xcomp=attend'
p3370
aS'xcomp=attract'
p3371
aS'xcomp=available'
p3372
aS'xcomp=average'
p3373
aS'xcomp=back'
p3374
aS'xcomp=bad'
p3375
aS'xcomp=base'
p3376
aS'xcomp=be'
p3377
aS'xcomp=bear'
p3378
aS'xcomp=begin'
p3379
aS'xcomp=benefit'
p3380
aS'xcomp=better'
p3381
aS'xcomp=bid'
p3382
aS'xcomp=bolster'
p3383
aS'xcomp=boost'
p3384
aS'xcomp=bout'
p3385
aS'xcomp=brief'
p3386
aS'xcomp=brighten'
p3387
aS'xcomp=bring'
p3388
aS'xcomp=build'
p3389
aS'xcomp=busy'
p3390
aS'xcomp=call'
p3391
aS'xcomp=candidate'
p3392
aS'xcomp=capture'
p3393
aS'xcomp=carry'
p3394
aS'xcomp=case'
p3395
aS'xcomp=cast'
p3396
aS'xcomp=catalyst'
p3397
aS'xcomp=celebrate'
p3398
aS'xcomp=cement'
p3399
aS'xcomp=centerpiece'
p3400
aS'xcomp=challenge'
p3401
aS'xcomp=change'
p3402
aS'xcomp=charge'
p3403
aS'xcomp=chief'
p3404
aS'xcomp=childish'
p3405
aS'xcomp=choose'
p3406
aS'xcomp=cite'
p3407
aS'xcomp=clear'
p3408
aS'xcomp=climb'
p3409
aS'xcomp=close'
p3410
aS'xcomp=closed'
p3411
aS'xcomp=closest'
p3412
aS'xcomp=color'
p3413
aS'xcomp=come'
p3414
aS'xcomp=commander'
p3415
aS'xcomp=competitive'
p3416
aS'xcomp=complain'
p3417
aS'xcomp=complete'
p3418
aS'xcomp=complicate'
p3419
aS'xcomp=comply'
p3420
aS'xcomp=concede'
p3421
aS'xcomp=conclude'
p3422
aS'xcomp=confirm'
p3423
aS'xcomp=conform'
p3424
aS'xcomp=congregate'
p3425
aS'xcomp=consider'
p3426
aS'xcomp=consistent'
p3427
aS'xcomp=consult'
p3428
aS'xcomp=contender'
p3429
aS'xcomp=contentious'
p3430
aS'xcomp=contest'
p3431
aS'xcomp=continue'
p3432
aS'xcomp=contribute'
p3433
aS'xcomp=convene'
p3434
aS'xcomp=converge'
p3435
aS'xcomp=convey'
p3436
aS'xcomp=convict'
p3437
aS'xcomp=cooperation'
p3438
aS'xcomp=cornerstone'
p3439
aS'xcomp=correct'
p3440
aS'xcomp=cost'
p3441
aS'xcomp=costly'
p3442
aS'xcomp=counterfeit'
p3443
aS'xcomp=crash'
p3444
aS'xcomp=create'
p3445
aS'xcomp=crisis'
p3446
aS'xcomp=cross'
p3447
aS'xcomp=cut'
p3448
aS'xcomp=dampen'
p3449
aS'xcomp=day'
p3450
aS'xcomp=debate'
p3451
aS'xcomp=decide'
p3452
aS'xcomp=declare'
p3453
aS'xcomp=decline'
p3454
aS'xcomp=deepen'
p3455
aS'xcomp=defeat'
p3456
aS'xcomp=defend'
p3457
aS'xcomp=delay'
p3458
aS'xcomp=deliberate'
p3459
aS'xcomp=deliver'
p3460
aS'xcomp=deploy'
p3461
aS'xcomp=derail'
p3462
aS'xcomp=desert'
p3463
aS'xcomp=destabilize'
p3464
aS'xcomp=deteriorate'
p3465
aS'xcomp=develop'
p3466
aS'xcomp=die'
p3467
aS'xcomp=different'
p3468
aS'xcomp=dim'
p3469
aS'xcomp=diminish'
p3470
aS'xcomp=discuss'
p3471
aS'xcomp=do'
p3472
aS'xcomp=dominant'
p3473
aS'xcomp=dominate'
p3474
aS'xcomp=double'
p3475
aS'xcomp=draw'
p3476
aS'xcomp=drive'
p3477
aS'xcomp=drop'
p3478
aS'xcomp=dry'
p3479
aS'xcomp=dwindle'
p3480
aS'xcomp=earn'
p3481
aS'xcomp=ease'
p3482
aS'xcomp=effect'
p3483
aS'xcomp=elect'
p3484
aS'xcomp=elicit'
p3485
aS'xcomp=eliminate'
p3486
aS'xcomp=emerge'
p3487
aS'xcomp=emphasize'
p3488
aS'xcomp=encounter'
p3489
aS'xcomp=end'
p3490
aS'xcomp=endorse'
p3491
aS'xcomp=enforce'
p3492
aS'xcomp=engage'
p3493
aS'xcomp=enrich'
p3494
aS'xcomp=ensure'
p3495
aS'xcomp=enter'
p3496
aS'xcomp=erupt'
p3497
aS'xcomp=establish'
p3498
aS'xcomp=exceed'
p3499
aS'xcomp=expand'
p3500
aS'xcomp=express'
p3501
aS'xcomp=extend'
p3502
aS'xcomp=extensive'
p3503
aS'xcomp=face'
p3504
aS'xcomp=factor'
p3505
aS'xcomp=fade'
p3506
aS'xcomp=fail'
p3507
aS'xcomp=fair'
p3508
aS'xcomp=fall'
p3509
aS'xcomp=favor'
p3510
aS'xcomp=feed'
p3511
aS'xcomp=fierce'
p3512
aS'xcomp=fight'
p3513
aS'xcomp=file'
p3514
aS'xcomp=find'
p3515
aS'xcomp=firm'
p3516
aS'xcomp=fly'
p3517
aS'xcomp=focus'
p3518
aS'xcomp=follow'
p3519
aS'xcomp=force'
p3520
aS'xcomp=form'
p3521
aS'xcomp=forward'
p3522
aS'xcomp=free'
p3523
aS'xcomp=fulfill'
p3524
aS'xcomp=full'
p3525
aS'xcomp=gain'
p3526
aS'xcomp=garner'
p3527
aS'xcomp=gather'
p3528
aS'xcomp=generate'
p3529
aS'xcomp=get'
p3530
aS'xcomp=give'
p3531
aS'xcomp=go'
p3532
aS'xcomp=good'
p3533
aS'xcomp=grab'
p3534
aS'xcomp=greet'
p3535
aS'xcomp=grow'
p3536
aS'xcomp=hail'
p3537
aS'xcomp=hand'
p3538
aS'xcomp=happen'
p3539
aS'xcomp=harvest'
p3540
aS'xcomp=have'
p3541
aS'xcomp=head'
p3542
aS'xcomp=hear'
p3543
aS'xcomp=heavy'
p3544
aS'xcomp=help'
p3545
aS'xcomp=high'
p3546
aS'xcomp=higher'
p3547
aS'xcomp=highlight'
p3548
aS'xcomp=hit'
p3549
aS'xcomp=hold'
p3550
aS'xcomp=honor'
p3551
aS'xcomp=house'
p3552
aS'xcomp=impact'
p3553
aS'xcomp=implement'
p3554
aS'xcomp=include'
p3555
aS'xcomp=increase'
p3556
aS'xcomp=indict'
p3557
aS'xcomp=induct'
p3558
aS'xcomp=inform'
p3559
aS'xcomp=initiate'
p3560
aS'xcomp=install'
p3561
aS'xcomp=intense'
p3562
aS'xcomp=introduce'
p3563
aS'xcomp=invest'
p3564
aS'xcomp=involve'
p3565
aS'xcomp=issue'
p3566
aS'xcomp=join'
p3567
aS'xcomp=jump'
p3568
aS'xcomp=jump-start'
p3569
aS'xcomp=keep'
p3570
aS'xcomp=know'
p3571
aS'xcomp=largest'
p3572
aS'xcomp=last'
p3573
aS'xcomp=launch'
p3574
aS'xcomp=lead'
p3575
aS'xcomp=leader'
p3576
aS'xcomp=learn'
p3577
aS'xcomp=leave'
p3578
aS'xcomp=legalize'
p3579
aS'xcomp=less'
p3580
aS'xcomp=level'
p3581
aS'xcomp=lift'
p3582
aS'xcomp=limit'
p3583
aS'xcomp=line'
p3584
aS'xcomp=live'
p3585
aS'xcomp=long'
p3586
aS'xcomp=look'
p3587
aS'xcomp=lower'
p3588
aS'xcomp=maintain'
p3589
aS'xcomp=make'
p3590
aS'xcomp=manufacture'
p3591
aS'xcomp=match'
p3592
aS'xcomp=meet'
p3593
aS'xcomp=meeting'
p3594
aS'xcomp=minister'
p3595
aS'xcomp=mitigate'
p3596
aS'xcomp=moderate'
p3597
aS'xcomp=monitor'
p3598
aS'xcomp=more'
p3599
aS'xcomp=mount'
p3600
aS'xcomp=move'
p3601
aS'xcomp=name'
p3602
aS'xcomp=need'
p3603
aS'xcomp=nominate'
p3604
aS'xcomp=obey'
p3605
aS'xcomp=obtain'
p3606
aS'xcomp=occur'
p3607
aS'xcomp=offer'
p3608
aS'xcomp=okay'
p3609
aS'xcomp=open'
p3610
aS'xcomp=operational'
p3611
aS'xcomp=outgrow'
p3612
aS'xcomp=outline'
p3613
aS'xcomp=oversee'
p3614
aS'xcomp=paralyze'
p3615
aS'xcomp=parliament'
p3616
aS'xcomp=part'
p3617
aS'xcomp=participate'
p3618
aS'xcomp=pass'
p3619
aS'xcomp=pause'
p3620
aS'xcomp=pave'
p3621
aS'xcomp=pay'
p3622
aS'xcomp=peak'
p3623
aS'xcomp=people'
p3624
aS'xcomp=percent'
p3625
aS'xcomp=perform'
p3626
aS'xcomp=permit'
p3627
aS'xcomp=persuade'
p3628
aS'xcomp=pick'
p3629
aS'xcomp=plan'
p3630
aS'xcomp=play'
p3631
aS'xcomp=plead'
p3632
aS'xcomp=point'
p3633
aS'xcomp=popular'
p3634
aS'xcomp=present'
p3635
aS'xcomp=press'
p3636
aS'xcomp=pressure'
p3637
aS'xcomp=proceed'
p3638
aS'xcomp=produce'
p3639
aS'xcomp=progress'
p3640
aS'xcomp=propose'
p3641
aS'xcomp=protect'
p3642
aS'xcomp=provide'
p3643
aS'xcomp=publish'
p3644
aS'xcomp=punch'
p3645
aS'xcomp=push'
p3646
aS'xcomp=put'
p3647
aS'xcomp=quadruple'
p3648
aS'xcomp=question'
p3649
aS'xcomp=race'
p3650
aS'xcomp=raise'
p3651
aS'xcomp=rank'
p3652
aS'xcomp=re-fuel'
p3653
aS'xcomp=reach'
p3654
aS'xcomp=read'
p3655
aS'xcomp=ready'
p3656
aS'xcomp=reaffirm'
p3657
aS'xcomp=receive'
p3658
aS'xcomp=recognize'
p3659
aS'xcomp=recommend'
p3660
aS'xcomp=reconvene'
p3661
aS'xcomp=redress'
p3662
aS'xcomp=reduce'
p3663
aS'xcomp=refer'
p3664
aS'xcomp=referendum'
p3665
aS'xcomp=relax'
p3666
aS'xcomp=release'
p3667
aS'xcomp=remain'
p3668
aS'xcomp=reopen'
p3669
aS'xcomp=repeat'
p3670
aS'xcomp=replace'
p3671
aS'xcomp=report'
p3672
aS'xcomp=represent'
p3673
aS'xcomp=resign'
p3674
aS'xcomp=resist'
p3675
aS'xcomp=resolve'
p3676
aS'xcomp=respect'
p3677
aS'xcomp=respond'
p3678
aS'xcomp=result'
p3679
aS'xcomp=resume'
p3680
aS'xcomp=retain'
p3681
aS'xcomp=return'
p3682
aS'xcomp=reveal'
p3683
aS'xcomp=reverse'
p3684
aS'xcomp=review'
p3685
aS'xcomp=revisit'
p3686
aS'xcomp=revive'
p3687
aS'xcomp=rise'
p3688
aS'xcomp=rule'
p3689
aS'xcomp=run'
p3690
aS'xcomp=same'
p3691
aS'xcomp=say'
p3692
aS'xcomp=schedule'
p3693
aS'xcomp=scrutinize'
p3694
aS'xcomp=season'
p3695
aS'xcomp=secure'
p3696
aS'xcomp=see'
p3697
aS'xcomp=seek'
p3698
aS'xcomp=select'
p3699
aS'xcomp=send'
p3700
aS'xcomp=serve'
p3701
aS'xcomp=set'
p3702
aS'xcomp=settle'
p3703
aS'xcomp=sheltered'
p3704
aS'xcomp=shoulder'
p3705
aS'xcomp=show'
p3706
aS'xcomp=shrink'
p3707
aS'xcomp=shut'
p3708
aS'xcomp=sign'
p3709
aS'xcomp=signal'
p3710
aS'xcomp=significant'
p3711
aS'xcomp=similar'
p3712
aS'xcomp=slow'
p3713
aS'xcomp=society'
p3714
aS'xcomp=solve'
p3715
aS'xcomp=speak'
p3716
aS'xcomp=speaker'
p3717
aS'xcomp=spend'
p3718
aS'xcomp=spoil'
p3719
aS'xcomp=spur'
p3720
aS'xcomp=stabilize'
p3721
aS'xcomp=stage'
p3722
aS'xcomp=stand'
p3723
aS'xcomp=star'
p3724
aS'xcomp=start'
p3725
aS'xcomp=state'
p3726
aS'xcomp=stay'
p3727
aS'xcomp=step'
p3728
aS'xcomp=stop'
p3729
aS'xcomp=strain'
p3730
aS'xcomp=string'
p3731
aS'xcomp=strip'
p3732
aS'xcomp=stronger'
p3733
aS'xcomp=submit'
p3734
aS'xcomp=subside'
p3735
aS'xcomp=substantive'
p3736
aS'xcomp=succeed'
p3737
aS'xcomp=suffer'
p3738
aS'xcomp=support'
p3739
aS'xcomp=supportive'
p3740
aS'xcomp=surpass'
p3741
aS'xcomp=surrender'
p3742
aS'xcomp=survive'
p3743
aS'xcomp=sustain'
p3744
aS'xcomp=swell'
p3745
aS'xcomp=tackle'
p3746
aS'xcomp=take'
p3747
aS'xcomp=talent'
p3748
aS'xcomp=talk'
p3749
aS'xcomp=taper'
p3750
aS'xcomp=teacher'
p3751
aS'xcomp=tell'
p3752
aS'xcomp=testify'
p3753
aS'xcomp=theme'
p3754
aS'xcomp=those'
p3755
aS'xcomp=threaten'
p3756
aS'xcomp=tie'
p3757
aS'xcomp=tighten'
p3758
aS'xcomp=tighter'
p3759
aS'xcomp=time'
p3760
aS'xcomp=to'
p3761
aS'xcomp=top'
p3762
aS'xcomp=topic'
p3763
aS'xcomp=total'
p3764
aS'xcomp=touch'
p3765
aS'xcomp=tough'
p3766
aS'xcomp=tougher'
p3767
aS'xcomp=tour'
p3768
aS'xcomp=transport'
p3769
aS'xcomp=travel'
p3770
aS'xcomp=tread'
p3771
aS'xcomp=treat'
p3772
aS'xcomp=trigger'
p3773
aS'xcomp=trim'
p3774
aS'xcomp=trip'
p3775
aS'xcomp=triple'
p3776
aS'xcomp=try'
p3777
aS'xcomp=turn'
p3778
aS'xcomp=undergo'
p3779
aS'xcomp=undermine'
p3780
aS'xcomp=underscore'
p3781
aS'xcomp=understanding'
p3782
aS'xcomp=undertake'
p3783
aS'xcomp=unite'
p3784
aS'xcomp=unity'
p3785
aS'xcomp=unveil'
p3786
aS'xcomp=update'
p3787
aS'xcomp=uphold'
p3788
aS'xcomp=urge'
p3789
aS'xcomp=use'
p3790
aS'xcomp=verify'
p3791
aS'xcomp=violent'
p3792
aS'xcomp=visit'
p3793
aS'xcomp=voice'
p3794
aS'xcomp=vote'
p3795
aS'xcomp=wage'
p3796
aS'xcomp=warm'
p3797
aS'xcomp=warn'
p3798
aS'xcomp=watch'
p3799
aS'xcomp=weak'
p3800
aS'xcomp=weaken'
p3801
aS'xcomp=weakest'
p3802
aS'xcomp=welcome'
p3803
aS'xcomp=widen'
p3804
aS'xcomp=win'
p3805
aS'xcomp=withdraw'
p3806
aS'xcomp=woman'
p3807
aS'xcomp=work'
p3808
aS'xcomp=worsen'
p3809
aS'xcomp=worth'
p3810
aS'xcomp=wrap'
p3811
aS'xcomp=write'
p3812
aS'xcomp=year'
p3813
asS'dtype'
p3814
cnumpy
float64
p3815
sS'vocabulary_'
p3816
(dp3817
g3368
I3359
sg1407
I1398
sg1896
I1887
sg955
I946
sg2125
I2116
sg2867
I2858
sg129
I120
sg1574
I1565
sg107
I98
sg1773
I1764
sg227
I218
sg812
I803
sg1143
I1134
sg3397
I3388
sg2298
I2289
sg902
I893
sg2737
I2728
sg2120
I2111
sg2520
I2511
sg1261
I1252
sg3529
I3520
sg3089
I3080
sg728
I719
sg1839
I1830
sg3600
I3591
sg451
I442
sg419
I410
sg834
I825
sg3555
I3546
sg2055
I2046
sg1449
I1440
sg3121
I3112
sg2590
I2581
sg1459
I1450
sg1231
I1222
sg2622
I2613
sg3627
I3618
sg840
I831
sg3557
I3548
sg1093
I1084
sg3165
I3156
sg3564
I3555
sg3161
I3152
sg2259
I2250
sg2459
I2450
sg2121
I2112
sg1234
I1225
sg2826
I2817
sg3080
I3071
sg3443
I3434
sg2793
I2784
sg295
I286
sg1538
I1529
sg55
I46
sg678
I669
sg1101
I1092
sg1722
I1713
sg3679
I3670
sg2738
I2729
sg2494
I2485
sg1818
I1809
sg2716
I2707
sg3556
I3547
sg1123
I1114
sg2025
I2016
sg725
I716
sg2803
I2794
sg1189
I1180
sg2542
I2533
sg1474
I1465
sg3499
I3490
sg2729
I2720
sg3362
I3353
sg1759
I1750
sg1080
I1071
sg3453
I3444
sg2657
I2648
sg2928
I2919
sg2106
I2097
sg2874
I2865
sg2723
I2714
sg803
I794
sg849
I840
sg1582
I1573
sg2635
I2626
sg2654
I2645
sg764
I755
sg1794
I1785
sg1006
I997
sg2167
I2158
sg1869
I1860
sg2260
I2251
sg3280
I3271
sg3766
I3757
sg1629
I1620
sg2103
I2094
sg2052
I2043
sg1167
I1158
sg2893
I2884
sg3319
I3310
sg2984
I2975
sg1614
I1605
sg3382
I3373
sg1619
I1610
sg1488
I1479
sg2208
I2199
sg2188
I2179
sg765
I756
sg199
I190
sg2787
I2778
sg3323
I3314
sg2026
I2017
sg1587
I1578
sg3246
I3237
sg2666
I2657
sg2667
I2658
sg1590
I1581
sg3065
I3056
sg2073
I2064
sg2280
I2271
sg3588
I3579
sg1592
I1583
sg2634
I2625
sg2215
I2206
sg3174
I3165
sg2680
I2671
sg259
I250
sg961
I952
sg1976
I1967
sg452
I443
sg3436
I3427
sg2851
I2842
sg1895
I1886
sg3730
I3721
sg2088
I2079
sg3629
I3620
sg3286
I3277
sg3091
I3082
sg225
I216
sg2800
I2791
sg3726
I3717
sg2428
I2419
sg1319
I1310
sg1517
I1508
sg1972
I1963
sg2660
I2651
sg261
I252
sg3513
I3504
sg1177
I1168
sg1092
I1083
sg3579
I3570
sg19
I10
sg990
I981
sg3206
I3197
sg3271
I3262
sg1647
I1638
sg901
I892
sg2999
I2990
sg3270
I3261
sg1102
I1093
sg544
I535
sg2297
I2288
sg3045
I3036
sg1529
I1520
sg938
I929
sg2503
I2494
sg3073
I3064
sg3127
I3118
sg2475
I2466
sg3507
I3498
sg643
I634
sg3669
I3660
sg189
I180
sg3195
I3186
sg2942
I2933
sg511
I502
sg387
I378
sg3084
I3075
sg1545
I1536
sg1393
I1384
sg1105
I1096
sg3780
I3771
sg2006
I1997
sg1532
I1523
sg1633
I1624
sg3626
I3617
sg1980
I1971
sg2632
I2623
sg2051
I2042
sg1677
I1668
sg1211
I1202
sg3754
I3745
sg3753
I3744
sg2134
I2125
sg1663
I1654
sg496
I487
sg672
I663
sg3446
I3437
sg1121
I1112
sg299
I290
sg3081
I3072
sg2226
I2217
sg3229
I3220
sg891
I882
sg305
I296
sg407
I398
sg616
I607
sg1108
I1099
sg2798
I2789
sg1217
I1208
sg2524
I2515
sg1559
I1550
sg3152
I3143
sg597
I588
sg793
I784
sg3104
I3095
sg2631
I2622
sg3079
I3070
sg835
I826
sg3619
I3610
sg117
I108
sg2526
I2517
sg942
I933
sg1974
I1965
sg3349
I3340
sg1180
I1171
sg2287
I2278
sg1874
I1865
sg291
I282
sg3061
I3052
sg710
I701
sg1368
I1359
sg1594
I1585
sg2181
I2172
sg3239
I3230
sg537
I528
sg429
I420
sg342
I333
sg2294
I2285
sg504
I495
sg157
I148
sg3217
I3208
sg1989
I1980
sg3388
I3379
sg852
I843
sg2385
I2376
sg1842
I1833
sg69
I60
sg3729
I3720
sg3440
I3431
sg1438
I1429
sg3378
I3369
sg3184
I3175
sg3750
I3741
sg1109
I1100
sg894
I885
sg294
I285
sg838
I829
sg3326
I3317
sg2952
I2943
sg2502
I2493
sg84
I75
sg1602
I1593
sg920
I911
sg1509
I1500
sg1306
I1297
sg2270
I2261
sg529
I520
sg2724
I2715
sg1471
I1462
sg3601
I3592
sg3407
I3398
sg605
I596
sg3554
I3545
sg3090
I3081
sg1698
I1689
sg3559
I3550
sg2043
I2034
sg2648
I2639
sg1269
I1260
sg3757
I3748
sg3342
I3333
sg3520
I3511
sg3010
I3001
sg2932
I2923
sg2687
I2678
sg426
I417
sg3087
I3078
sg2649
I2640
sg410
I401
sg2992
I2983
sg2962
I2953
sg2821
I2812
sg2789
I2780
sg2819
I2810
sg679
I670
sg1346
I1337
sg1681
I1672
sg742
I733
sg1065
I1056
sg1883
I1874
sg11
I2
sg599
I590
sg709
I700
sg191
I182
sg904
I895
sg2284
I2275
sg256
I247
sg3006
I2997
sg2231
I2222
sg2091
I2082
sg1428
I1419
sg2676
I2667
sg1388
I1379
sg2495
I2486
sg936
I927
sg3654
I3645
sg2332
I2323
sg1535
I1526
sg3292
I3283
sg1788
I1779
sg3445
I3436
sg3461
I3452
sg868
I859
sg2935
I2926
sg2675
I2666
sg1107
I1098
sg2074
I2065
sg867
I858
sg2743
I2734
sg2824
I2815
sg3431
I3422
sg473
I464
sg3724
I3715
sg3142
I3133
sg3066
I3057
sg2967
I2958
sg1938
I1929
sg3223
I3214
sg922
I913
sg1148
I1139
sg1419
I1410
sg1232
I1223
sg108
I99
sg2587
I2578
sg1727
I1718
sg3164
I3155
sg455
I446
sg2388
I2379
sg3048
I3039
sg2316
I2307
sg1153
I1144
sg3455
I3446
sg3739
I3730
sg197
I188
sg727
I718
sg3444
I3435
sg3203
I3194
sg2109
I2100
sg1404
I1395
sg1758
I1749
sg2301
I2292
sg2319
I2310
sg2554
I2545
sg381
I372
sg1588
I1579
sg364
I355
sg2107
I2098
sg292
I283
sg1332
I1323
sg1528
I1519
sg1609
I1600
sg433
I424
sg2089
I2080
sg1029
I1020
sg1282
I1273
sg637
I628
sg348
I339
sg2486
I2477
sg3788
I3779
sg1923
I1914
sg2522
I2513
sg374
I365
sg137
I128
sg2562
I2553
sg508
I499
sg2235
I2226
sg99
I90
sg2290
I2281
sg519
I510
sg1326
I1317
sg2777
I2768
sg1081
I1072
sg3650
I3641
sg821
I812
sg1115
I1106
sg703
I694
sg620
I611
sg636
I627
sg492
I483
sg3336
I3327
sg1410
I1401
sg1503
I1494
sg3517
I3508
sg2252
I2243
sg195
I186
sg2418
I2409
sg827
I818
sg2626
I2617
sg2923
I2914
sg3119
I3110
sg3384
I3375
sg1914
I1905
sg527
I518
sg3208
I3199
sg2373
I2364
sg1762
I1753
sg2933
I2924
sg2118
I2109
sg970
I961
sg2113
I2104
sg1815
I1806
sg2386
I2377
sg3278
I3269
sg344
I335
sg2016
I2007
sg13
I4
sg1732
I1723
sg1736
I1727
sg2279
I2270
sg1060
I1051
sg3683
I3674
sg1433
I1424
sg66
I57
sg2273
I2264
sg1184
I1175
sg415
I406
sg2599
I2590
sg402
I393
sg3668
I3659
sg245
I236
sg268
I259
sg880
I871
sg1963
I1954
sg1901
I1892
sg3578
I3569
sg105
I96
sg307
I298
sg457
I448
sg755
I746
sg813
I804
sg102
I93
sg3740
I3731
sg606
I597
sg1697
I1688
sg1737
I1728
sg2489
I2480
sg2030
I2021
sg2422
I2413
sg3034
I3025
sg2031
I2022
sg3514
I3505
sg2884
I2875
sg820
I811
sg373
I364
sg3316
I3307
sg1720
I1711
sg1951
I1942
sg3120
I3111
sg3171
I3162
sg1684
I1675
sg3190
I3181
sg794
I785
sg3346
I3337
sg2439
I2430
sg2701
I2692
sg1547
I1538
sg1247
I1238
sg478
I469
sg2593
I2584
sg3735
I3726
sg1362
I1353
sg3525
I3516
sg958
I949
sg956
I947
sg3593
I3584
sg2240
I2231
sg2365
I2356
sg1598
I1589
sg3718
I3709
sg562
I553
sg3634
I3625
sg2615
I2606
sg1888
I1879
sg3773
I3764
sg693
I684
sg218
I209
sg1496
I1487
sg3589
I3580
sg1331
I1322
sg2271
I2262
sg3107
I3098
sg687
I678
sg2076
I2067
sg3337
I3328
sg633
I624
sg864
I855
sg2325
I2316
sg2333
I2324
sg2352
I2343
sg469
I460
sg2693
I2684
sg1725
I1716
sg1994
I1985
sg577
I568
sg1447
I1438
sg1468
I1459
sg2237
I2228
sg1494
I1485
sg2282
I2273
sg717
I708
sg1178
I1169
sg441
I432
sg3608
I3599
sg1752
I1743
sg449
I440
sg1694
I1685
sg3370
I3361
sg229
I220
sg246
I237
sg2765
I2756
sg655
I646
sg274
I265
sg398
I389
sg1036
I1027
sg3617
I3608
sg388
I379
sg3225
I3216
sg639
I630
sg3330
I3321
sg2110
I2101
sg2909
I2900
sg2887
I2878
sg1993
I1984
sg301
I292
sg3693
I3684
sg700
I691
sg2267
I2258
sg2124
I2115
sg1795
I1786
sg326
I317
sg2497
I2488
sg3533
I3524
sg1571
I1562
sg176
I167
sg3665
I3656
sg2108
I2099
sg1833
I1824
sg1441
I1432
sg3254
I3245
sg1193
I1184
sg3325
I3316
sg383
I374
sg304
I295
sg2222
I2213
sg2700
I2691
sg964
I955
sg1891
I1882
sg3056
I3047
sg445
I436
sg2258
I2249
sg306
I297
sg1905
I1896
sg3060
I3051
sg2954
I2945
sg365
I356
sg2447
I2438
sg855
I846
sg3076
I3067
sg688
I679
sg3005
I2996
sg2640
I2631
sg2487
I2478
sg2117
I2108
sg1927
I1918
sg382
I373
sg2122
I2113
sg1691
I1682
sg1925
I1916
sg3144
I3135
sg1155
I1146
sg2075
I2066
sg1090
I1081
sg2496
I2487
sg73
I64
sg276
I267
sg934
I925
sg70
I61
sg181
I172
sg3193
I3184
sg1130
I1121
sg2988
I2979
sg412
I403
sg2747
I2738
sg1936
I1927
sg1533
I1524
sg858
I849
sg2594
I2585
sg2085
I2076
sg2881
I2872
sg1014
I1005
sg2990
I2981
sg159
I150
sg2592
I2583
sg773
I764
sg644
I635
sg2681
I2672
sg3035
I3026
sg1063
I1054
sg802
I793
sg825
I816
sg3661
I3652
sg856
I847
sg2840
I2831
sg1860
I1851
sg3230
I3221
sg158
I149
sg1140
I1131
sg3046
I3037
sg1966
I1957
sg2156
I2147
sg428
I419
sg3573
I3564
sg3068
I3059
sg2131
I2122
sg954
I945
sg1675
I1666
sg2436
I2427
sg2020
I2011
sg3318
I3309
sg1416
I1407
sg1249
I1240
sg2234
I2225
sg2576
I2567
sg1945
I1936
sg3466
I3457
sg1075
I1066
sg3244
I3235
sg3373
I3364
sg1790
I1781
sg1542
I1533
sg2710
I2701
sg2040
I2031
sg1715
I1706
sg1554
I1545
sg610
I601
sg2668
I2659
sg660
I651
sg1443
I1434
sg3594
I3585
sg2094
I2085
sg2079
I2070
sg603
I594
sg1066
I1057
sg1861
I1852
sg1768
I1759
sg2370
I2361
sg1415
I1406
sg361
I352
sg2013
I2004
sg93
I84
sg271
I262
sg1763
I1754
sg2896
I2887
sg1838
I1829
sg409
I400
sg739
I730
sg2206
I2197
sg1605
I1596
sg1371
I1362
sg2629
I2620
sg1568
I1559
sg1906
I1897
sg3218
I3209
sg1801
I1792
sg2619
I2610
sg2513
I2504
sg3550
I3541
sg488
I479
sg3686
I3677
sg1089
I1080
sg1337
I1328
sg1213
I1204
sg94
I85
sg459
I450
sg2368
I2359
sg34
I25
sg3690
I3681
sg1942
I1933
sg2618
I2609
sg3094
I3085
sg59
I50
sg375
I366
sg1887
I1878
sg1287
I1278
sg3197
I3188
sg2230
I2221
sg3031
I3022
sg3539
I3530
sg1699
I1690
sg2937
I2928
sg3799
I3790
sg3454
I3445
sg2306
I2297
sg2939
I2930
sg1709
I1700
sg2788
I2779
sg2771
I2762
sg3233
I3224
sg120
I111
sg2068
I2059
sg3134
I3125
sg2913
I2904
sg787
I778
sg2589
I2580
sg1301
I1292
sg1212
I1203
sg903
I894
sg2518
I2509
sg1707
I1698
sg2535
I2526
sg3575
I3566
sg2434
I2425
sg3560
I3551
sg1048
I1039
sg2692
I2683
sg14
I5
sg1330
I1321
sg3496
I3487
sg828
I819
sg2897
I2888
sg1242
I1233
sg962
I953
sg2989
I2980
sg3796
I3787
sg582
I573
sg495
I486
sg3494
I3485
sg2019
I2010
sg1749
I1740
sg1072
I1063
sg795
I786
sg1275
I1266
sg250
I241
sg3050
I3041
sg1363
I1354
sg417
I408
sg3133
I3124
sg3102
I3093
sg1480
I1471
sg2894
I2885
sg1264
I1255
sg3341
I3332
sg62
I53
sg2820
I2811
sg2402
I2393
sg702
I693
sg2057
I2048
sg212
I203
sg1279
I1270
sg2778
I2769
sg2571
I2562
sg3282
I3273
sg204
I195
sg1073
I1064
sg3636
I3627
sg3622
I3613
sg668
I659
sg2187
I2178
sg1023
I1014
sg2823
I2814
sg3132
I3123
sg1499
I1490
sg3755
I3746
sg1374
I1365
sg3245
I3236
sg3405
I3396
sg3047
I3038
sg3049
I3040
sg1991
I1982
sg2214
I2205
sg1770
I1761
sg2192
I2183
sg1844
I1835
sg1112
I1103
sg483
I474
sg41
I32
sg1188
I1179
sg3657
I3648
sg2029
I2020
sg3802
I3793
sg2567
I2558
sg2174
I2165
sg2695
I2686
sg2779
I2770
sg1933
I1924
sg471
I462
sg1713
I1704
sg2444
I2435
sg1643
I1634
sg3200
I3191
sg2441
I2432
sg2093
I2084
sg1138
I1129
sg235
I226
sg3381
I3372
sg796
I787
sg534
I525
sg3495
I3486
sg1340
I1331
sg149
I140
sg2782
I2773
sg31
I22
sg1228
I1219
sg3703
I3694
sg3138
I3129
sg1553
I1544
sg2037
I2028
sg579
I570
sg169
I160
sg3334
I3325
sg346
I337
sg2061
I2052
sg2017
I2008
sg2645
I2636
sg399
I390
sg2499
I2490
sg2646
I2637
sg3678
I3669
sg1608
I1599
sg1300
I1291
sg2413
I2404
sg589
I580
sg2766
I2757
sg2255
I2246
sg2944
I2935
sg2891
I2882
sg201
I192
sg2608
I2599
sg460
I451
sg3251
I3242
sg3320
I3311
sg1934
I1925
sg2069
I2060
sg2389
I2380
sg2256
I2247
sg2408
I2399
sg3075
I3066
sg1025
I1016
sg1293
I1284
sg3082
I3073
sg490
I481
sg1316
I1307
sg1399
I1390
sg3364
I3355
sg2288
I2279
sg2160
I2151
sg550
I541
sg2105
I2096
sg2596
I2587
sg3402
I3393
sg869
I860
sg2837
I2828
sg2888
I2879
sg2407
I2398
sg1664
I1655
sg104
I95
sg461
I452
sg1569
I1560
sg3660
I3651
sg3212
I3203
sg21
I12
sg3749
I3740
sg1053
I1044
sg3064
I3055
sg3609
I3600
sg184
I175
sg2501
I2492
sg1846
I1837
sg3386
I3377
sg1704
I1695
sg1245
I1236
sg883
I874
sg3696
I3687
sg2148
I2139
sg754
I745
sg1873
I1864
sg522
I513
sg1877
I1868
sg2918
I2909
sg230
I221
sg3340
I3331
sg3234
I3225
sg1274
I1265
sg3794
I3785
sg46
I37
sg1628
I1619
sg1146
I1137
sg2539
I2530
sg797
I788
sg1114
I1105
sg1577
I1568
sg2291
I2282
sg923
I914
sg1832
I1823
sg1248
I1239
sg2927
I2918
sg1630
I1621
sg3789
I3780
sg3015
I3006
sg545
I536
sg2925
I2916
sg2971
I2962
sg2362
I2353
sg658
I649
sg2220
I2211
sg2753
I2744
sg2672
I2663
sg1843
I1834
sg3705
I3696
sg2182
I2173
sg2024
I2015
sg1052
I1043
sg3412
I3403
sg1414
I1405
sg2463
I2454
sg1057
I1048
sg443
I434
sg1500
I1491
sg3249
I3240
sg3158
I3149
sg2241
I2232
sg2457
I2448
sg2053
I2044
sg2465
I2456
sg2269
I2260
sg3024
I3015
sg878
I869
sg1893
I1884
sg2768
I2759
sg356
I347
sg3295
I3286
sg152
I143
sg3714
I3705
sg941
I932
sg3290
I3281
sg3623
I3614
sg3798
I3789
sg3296
I3287
sg2699
I2690
sg1380
I1371
sg2916
I2907
sg3312
I3303
sg1305
I1296
sg541
I532
sg1548
I1539
sg3797
I3788
sg1229
I1220
sg1626
I1617
sg2135
I2126
sg2704
I2695
sg76
I67
sg3571
I3562
sg2127
I2118
sg1904
I1895
sg1652
I1643
sg3545
I3536
sg3207
I3198
sg2553
I2544
sg1897
I1888
sg3708
I3699
sg986
I977
sg1424
I1415
sg3635
I3626
sg1666
I1657
sg822
I813
sg51
I42
sg3265
I3256
sg2396
I2387
sg2566
I2557
sg3003
I2994
sg3136
I3127
sg258
I249
sg790
I781
sg1836
I1827
sg1646
I1637
sg1011
I1002
sg3430
I3421
sg789
I780
sg898
I889
sg3633
I3624
sg3698
I3689
sg2150
I2141
sg3294
I3285
sg1692
I1683
sg3041
I3032
sg3625
I3616
sg12
I3
sg699
I690
sg3616
I3607
sg1483
I1474
sg1427
I1418
sg1805
I1796
sg574
I565
sg1526
I1517
sg1782
I1773
sg146
I137
sg2739
I2730
sg3598
I3589
sg2949
I2940
sg845
I836
sg3610
I3601
sg1791
I1782
sg1967
I1958
sg109
I100
sg623
I614
sg2128
I2119
sg484
I475
sg2296
I2287
sg2217
I2208
sg3567
I3558
sg3416
I3407
sg671
I662
sg2310
I2301
sg3538
I3529
sg1435
I1426
sg1431
I1422
sg3248
I3239
sg2882
I2873
sg981
I972
sg3688
I3679
sg909
I900
sg3272
I3263
sg3293
I3284
sg2905
I2896
sg3451
I3442
sg1237
I1228
sg1824
I1815
sg3586
I3577
sg786
I777
sg23
I14
sg2702
I2693
sg841
I832
sg2445
I2436
sg3093
I3084
sg1556
I1547
sg1216
I1207
sg27
I18
sg2875
I2866
sg2639
I2630
sg1259
I1250
sg1997
I1988
sg3202
I3193
sg2479
I2470
sg1015
I1006
sg3095
I3086
sg40
I31
sg3427
I3418
sg1990
I1981
sg481
I472
sg583
I574
sg1309
I1300
sg2799
I2790
sg405
I396
sg2560
I2551
sg2261
I2252
sg768
I759
sg2811
I2802
sg3722
I3713
sg925
I916
sg523
I514
sg984
I975
sg2048
I2039
sg267
I258
sg467
I458
sg2272
I2263
sg2064
I2055
sg3052
I3043
sg1988
I1979
sg3350
I3341
sg3604
I3595
sg2152
I2143
sg404
I395
sg2480
I2471
sg255
I246
sg1035
I1026
sg2196
I2187
sg2504
I2495
sg163
I154
sg439
I430
sg3463
I3454
sg2334
I2325
sg1531
I1522
sg2742
I2733
sg760
I751
sg397
I388
sg3566
I3557
sg101
I92
sg3140
I3131
sg2558
I2549
sg240
I231
sg3260
I3251
sg2067
I2058
sg3421
I3412
sg2473
I2464
sg2354
I2345
sg916
I907
sg160
I151
sg2340
I2331
sg3379
I3370
sg2193
I2184
sg2889
I2880
sg135
I126
sg1187
I1178
sg847
I838
sg3331
I3322
sg329
I320
sg2058
I2049
sg3498
I3489
sg915
I906
sg1567
I1558
sg2846
I2837
sg1255
I1246
sg1518
I1509
sg3071
I3062
sg1241
I1232
sg2934
I2925
sg1785
I1776
sg3356
I3347
sg2175
I2166
sg654
I645
sg1835
I1826
sg2694
I2685
sg530
I521
sg2510
I2501
sg334
I325
sg2617
I2608
sg3437
I3428
sg1922
I1913
sg232
I223
sg2794
I2785
sg316
I307
sg1349
I1340
sg557
I548
sg3305
I3296
sg1806
I1797
sg624
I615
sg3253
I3244
sg854
I845
sg1135
I1126
sg3800
I3791
sg3083
I3074
sg2326
I2317
sg2638
I2629
sg791
I782
sg3154
I3145
sg2610
I2601
sg1931
I1922
sg2050
I2041
sg2698
I2689
sg573
I564
sg3178
I3169
sg924
I915
sg3467
I3458
sg3711
I3702
sg2092
I2083
sg2242
I2233
sg10
I1
sg1995
I1986
sg2958
I2949
sg1948
I1939
sg2873
I2864
sg2849
I2840
sg3618
I3609
sg1270
I1261
sg584
I575
sg3262
I3253
sg2070
I2061
sg2991
I2982
sg1406
I1397
sg2406
I2397
sg1661
I1652
sg423
I414
sg1253
I1244
sg64
I55
sg3756
I3747
sg2161
I2152
sg2774
I2765
sg3615
I3606
sg1385
I1376
sg1638
I1629
sg2139
I2130
sg2936
I2927
sg2042
I2033
sg993
I984
sg179
I170
sg1054
I1045
sg2383
I2374
sg2628
I2619
sg1969
I1960
sg724
I715
sg943
I934
sg335
I326
sg572
I563
sg2963
I2954
sg2665
I2656
sg3504
I3495
sg2244
I2235
sg2359
I2350
sg317
I308
sg1579
I1570
sg3759
I3750
sg2767
I2758
sg17
I8
sg1668
I1659
sg2921
I2912
sg1056
I1047
sg3758
I3749
sg1947
I1938
sg2360
I2351
sg1984
I1975
sg2531
I2522
sg2886
I2877
sg533
I524
sg1940
I1931
sg558
I549
sg2202
I2193
sg3177
I3168
sg183
I174
sg128
I119
sg420
I411
sg1712
I1703
sg2917
I2908
sg406
I397
sg3256
I3247
sg1082
I1073
sg331
I322
sg2266
I2257
sg1050
I1041
sg367
I358
sg512
I503
sg2899
I2890
sg438
I429
sg1154
I1145
sg371
I362
sg394
I385
sg3736
I3727
sg2035
I2026
sg3281
I3272
sg713
I704
sg3647
I3638
sg3424
I3415
sg3054
I3045
sg2338
I2329
sg2114
I2105
sg1477
I1468
sg556
I547
sg3196
I3187
sg1345
I1336
sg2157
I2148
sg775
I766
sg463
I454
sg353
I344
sg2454
I2445
sg3074
I3065
sg2728
I2719
sg1996
I1987
sg3324
I3315
sg3242
I3233
sg1610
I1601
sg1265
I1256
sg2740
I2731
sg682
I673
sg1311
I1302
sg2957
I2948
sg3541
I3532
sg2246
I2237
sg1889
I1880
sg2384
I2375
sg1748
I1739
sg874
I865
sg2309
I2300
sg2595
I2586
sg972
I963
sg1000
I991
sg185
I176
sg3551
I3542
sg2032
I2023
sg3026
I3017
sg2616
I2607
sg1434
I1425
sg2464
I2455
sg3801
I3792
sg1636
I1627
sg141
I132
sg100
I91
sg3030
I3021
sg1665
I1656
sg3055
I3046
sg1941
I1932
sg3672
I3663
sg944
I935
sg1012
I1003
sg96
I87
sg45
I36
sg1586
I1577
sg279
I270
sg2854
I2845
sg2341
I2332
sg1917
I1908
sg2314
I2305
sg1299
I1290
sg3473
I3464
sg2467
I2458
sg2609
I2600
sg3111
I3102
sg3701
I3692
sg2313
I2304
sg145
I136
sg1878
I1869
sg358
I349
sg284
I275
sg3187
I3178
sg2523
I2514
sg2603
I2594
sg723
I714
sg372
I363
sg1616
I1607
sg2980
I2971
sg1133
I1124
sg3476
I3467
sg2862
I2853
sg2644
I2635
sg1882
I1873
sg2448
I2439
sg1756
I1747
sg2533
I2524
sg3432
I3423
sg946
I937
sg3313
I3304
sg2265
I2256
sg1001
I992
sg343
I334
sg926
I917
sg3462
I3453
sg2848
I2839
sg277
I268
sg3170
I3161
sg848
I839
sg937
I928
sg2054
I2045
sg2588
I2579
sg2969
I2960
sg1591
I1582
sg1377
I1368
sg2209
I2200
sg1128
I1119
sg1013
I1004
sg2324
I2315
sg376
I367
sg3211
I3202
sg767
I758
sg3491
I3482
sg3779
I3770
sg2357
I2348
sg260
I251
sg2938
I2929
sg207
I198
sg2190
I2181
sg2028
I2019
sg3544
I3535
sg1859
I1850
sg2427
I2418
sg602
I593
sg985
I976
sg3135
I3126
sg1956
I1947
sg327
I318
sg1944
I1935
sg1566
I1557
sg515
I506
sg1103
I1094
sg1181
I1172
sg932
I923
sg2735
I2726
sg2361
I2352
sg2876
I2867
sg1292
I1283
sg1655
I1646
sg3457
I3448
sg771
I762
sg2641
I2632
sg3493
I3484
sg826
I817
sg214
I205
sg2506
I2497
sg2424
I2415
sg491
I482
sg63
I54
sg1539
I1530
sg3666
I3657
sg3720
I3711
sg3492
I3483
sg2315
I2306
sg833
I824
sg2311
I2302
sg580
I571
sg1492
I1483
sg2583
I2574
sg1192
I1183
sg2000
I1991
sg3806
I3797
sg1761
I1752
sg2822
I2813
sg945
I936
sg1911
I1902
sg3021
I3012
sg785
I776
sg2394
I2385
sg3516
I3507
sg1625
I1616
sg1120
I1111
sg881
I872
sg2804
I2795
sg3348
I3339
sg1281
I1272
sg758
I749
sg1549
I1540
sg48
I39
sg3810
I3801
sg3442
I3433
sg1876
I1867
sg2423
I2414
sg498
I489
sg2065
I2056
sg2815
I2806
sg2429
I2420
sg380
I371
sg2278
I2269
sg1139
I1130
sg3509
I3500
sg2140
I2131
sg1002
I993
sg2353
I2344
sg3733
I3724
sg612
I603
sg2082
I2073
sg236
I227
sg1367
I1358
sg74
I65
sg2483
I2474
sg3033
I3024
sg857
I848
sg1639
I1630
sg2005
I1996
sg1600
I1591
sg1387
I1378
sg1973
I1964
sg1233
I1224
sg561
I552
sg1797
I1788
sg696
I687
sg1254
I1245
sg1491
I1482
sg792
I783
sg1916
I1907
sg3528
I3519
sg2993
I2984
sg3536
I3527
sg1765
I1756
sg2151
I2142
sg2218
I2209
sg1122
I1113
sg3137
I3128
sg2098
I2089
sg2344
I2335
sg2908
I2899
sg853
I844
sg2731
I2722
sg2412
I2403
sg49
I40
sg1117
I1108
sg729
I720
sg263
I254
sg2227
I2218
sg1670
I1661
sg2143
I2134
sg2770
I2761
sg3298
I3289
sg1470
I1461
sg1469
I1460
sg1490
I1481
sg442
I433
sg3667
I3658
sg1603
I1594
sg3156
I3147
sg2416
I2407
sg3479
I3470
sg318
I309
sg1863
I1854
sg362
I353
sg3198
I3189
sg2715
I2706
sg2926
I2917
sg2741
I2732
sg2968
I2959
sg2207
I2198
sg340
I331
sg3781
I3772
sg528
I519
sg2111
I2102
sg1324
I1315
sg3228
I3219
sg3226
I3217
sg2709
I2700
sg1104
I1095
sg1350
I1341
sg1198
I1189
sg1239
I1230
sg2189
I2180
sg3042
I3033
sg2947
I2938
sg1946
I1937
sg2726
I2717
sg3070
I3061
sg200
I191
sg3651
I3642
sg1733
I1724
sg285
I276
sg697
I688
sg2393
I2384
sg2606
I2597
sg298
I289
sg1087
I1078
sg2605
I2596
sg1421
I1412
sg3011
I3002
sg3658
I3649
sg3145
I3136
sg2795
I2786
sg1767
I1758
sg566
I557
sg403
I394
sg3684
I3675
sg3317
I3308
sg395
I386
sg3777
I3768
sg2816
I2807
sg2835
I2826
sg2492
I2483
sg3663
I3654
sg1565
I1556
sg1289
I1280
sg2976
I2967
sg3235
I3226
sg1903
I1894
sg2981
I2972
sg780
I771
sg3283
I3274
sg3009
I3000
sg676
I667
sg3640
I3631
sg1919
I1910
sg1615
I1606
sg1413
I1404
sg600
I591
sg1467
I1458
sg3287
I3278
sg1339
I1330
sg3360
I3351
sg3621
I3612
sg72
I63
sg1159
I1150
sg3490
I3481
sg2300
I2291
sg807
I798
sg3078
I3069
sg1426
I1417
sg1221
I1212
sg988
I979
sg3646
I3637
sg1034
I1025
sg2323
I2314
sg3613
I3604
sg111
I102
sg3374
I3365
sg2015
I2006
sg1827
I1818
sg3540
I3531
sg2870
I2861
sg1962
I1953
sg2011
I2002
sg175
I166
sg977
I968
sg39
I30
sg1985
I1976
sg1524
I1515
sg369
I360
sg1584
I1575
sg3590
I3581
sg2547
I2538
sg3502
I3493
sg3738
I3729
sg1077
I1068
sg3408
I3399
sg1777
I1768
sg2688
I2679
sg3428
I3419
sg3423
I3414
sg280
I271
sg1983
I1974
sg57
I48
sg2512
I2503
sg815
I806
sg552
I543
sg948
I939
sg595
I586
sg976
I967
sg1771
I1762
sg1881
I1872
sg18
I9
sg3524
I3515
sg87
I78
sg994
I985
sg619
I610
sg1656
I1647
sg2833
I2824
sg3343
I3334
sg3721
I3712
sg3510
I3501
sg674
I665
sg2659
I2650
sg1536
I1527
sg769
I760
sg2978
I2969
sg1871
I1862
sg3163
I3154
sg37
I28
sg2154
I2145
sg1992
I1983
sg3769
I3760
sg1067
I1058
sg213
I204
sg800
I791
sg2009
I2000
sg1042
I1033
sg2466
I2457
sg2039
I2030
sg221
I212
sg2484
I2475
sg1314
I1305
sg3620
I3611
sg917
I908
sg3592
I3583
sg3014
I3005
sg3675
I3666
sg1096
I1087
sg1106
I1097
sg2987
I2978
sg1113
I1104
sg3652
I3643
sg2549
I2540
sg1823
I1814
sg3291
I3282
sg3001
I2992
sg264
I255
sg414
I405
sg2084
I2075
sg3044
I3035
sg1268
I1259
sg1879
I1870
sg2450
I2441
sg609
I600
sg1323
I1314
sg761
I752
sg860
I851
sg164
I155
sg3411
I3402
sg2866
I2857
sg798
I789
sg436
I427
sg1142
I1133
sg2960
I2951
sg1147
I1138
sg2669
I2660
sg966
I957
sg206
I197
sg2460
I2451
sg2538
I2529
sg3417
I3408
sg3501
I3492
sg3677
I3668
sg3581
I3572
sg1880
I1871
sg3302
I3293
sg1315
I1306
sg1705
I1696
sg2929
I2920
sg1678
I1669
sg2838
I2829
sg2375
I2366
sg1246
I1237
sg3366
I3357
sg3304
I3295
sg138
I129
sg631
I622
sg1570
I1561
sg2850
I2841
sg2959
I2950
sg3335
I3326
sg3036
I3027
sg949
I940
sg1558
I1549
sg1020
I1011
sg116
I107
sg3532
I3523
sg591
I582
sg325
I316
sg3114
I3105
sg531
I522
sg3452
I3443
sg3231
I3222
sg2498
I2489
sg2330
I2321
sg2662
I2653
sg1225
I1216
sg2664
I2655
sg1175
I1166
sg2791
I2782
sg2570
I2561
sg2801
I2792
sg692
I683
sg538
I529
sg166
I157
sg1019
I1010
sg2339
I2330
sg1563
I1554
sg1621
I1612
sg598
I589
sg2673
I2664
sg435
I426
sg1485
I1476
sg3569
I3560
sg1373
I1364
sg2682
I2673
sg2216
I2207
sg384
I375
sg2755
I2746
sg1769
I1760
sg627
I618
sg2807
I2798
sg379
I370
sg806
I797
sg3813
I3804
sg2171
I2162
sg2972
I2963
sg1195
I1186
sg1772
I1763
sg1812
I1803
sg1837
I1828
sg2784
I2775
sg2176
I2167
sg456
I447
sg1728
I1719
sg2133
I2124
sg1739
I1730
sg2828
I2819
sg1634
I1625
sg2378
I2369
sg2872
I2863
sg1017
I1008
sg1397
I1388
sg2012
I2003
sg3150
I3141
sg879
I870
sg1637
I1628
sg3023
I3014
sg2194
I2185
sg2792
I2783
sg3058
I3049
sg507
I498
sg2561
I2552
sg3351
I3342
sg2320
I2311
sg1303
I1294
sg1631
I1622
sg784
I775
sg1457
I1448
sg3101
I3092
sg3387
I3378
sg2552
I2543
sg1521
I1512
sg657
I648
sg2943
I2934
sg2674
I2665
sg774
I765
sg1430
I1421
sg2462
I2453
sg2254
I2245
sg888
I879
sg1599
I1590
sg3352
I3343
sg2730
I2721
sg1573
I1564
sg2335
I2326
sg2678
I2669
sg1512
I1503
sg2437
I2428
sg3674
I3665
sg585
I576
sg202
I193
sg2711
I2702
sg1506
I1497
sg3795
I3786
sg3162
I3153
sg44
I35
sg621
I612
sg3692
I3683
sg1118
I1109
sg576
I567
sg282
I273
sg2322
I2313
sg662
I653
sg777
I768
sg1511
I1502
sg1852
I1843
sg3700
I3691
sg3328
I3319
sg837
I828
sg2376
I2367
sg3277
I3268
sg650
I641
sg892
I883
sg1885
I1876
sg1766
I1757
sg2776
I2767
sg1803
I1794
sg564
I555
sg1336
I1327
sg3038
I3029
sg3717
I3708
sg1673
I1664
sg3147
I3138
sg3603
I3594
sg590
I581
sg1854
I1845
sg3012
I3003
sg2369
I2360
sg1401
I1392
sg1024
I1015
sg2146
I2137
sg781
I772
sg2982
I2973
sg1381
I1372
sg3025
I3016
sg2168
I2159
sg1864
I1855
sg1384
I1375
sg1383
I1374
sg1386
I1377
sg1479
I1470
sg2060
I2051
sg1295
I1286
sg233
I224
sg61
I52
sg357
I348
sg3383
I3374
sg2243
I2234
sg1409
I1400
sg1520
I1511
sg3487
I3478
sg95
I86
sg3400
I3391
sg283
I274
sg450
I441
sg859
I850
sg1872
I1863
sg1278
I1269
sg2586
I2577
sg1074
I1065
sg726
I717
sg656
I647
sg3167
I3158
sg757
I748
sg1442
I1433
sg1403
I1394
sg1286
I1277
sg1440
I1431
sg2642
I2633
sg2419
I2410
sg2911
I2902
sg3763
I3754
sg2643
I2634
sg1134
I1125
sg716
I707
sg1390
I1381
sg427
I418
sg782
I773
sg3199
I3190
sg1291
I1282
sg2744
I2735
sg142
I133
sg3552
I3543
sg1450
I1441
sg587
I578
sg3770
I3761
sg3072
I3063
sg1884
I1875
sg1696
I1687
sg3691
I3682
sg3497
I3488
sg3151
I3142
sg836
I827
sg1030
I1021
sg1176
I1167
sg2198
I2189
sg1617
I1608
sg323
I314
sg378
I369
sg1489
I1480
sg1069
I1060
sg2790
I2781
sg1297
I1288
sg1171
I1162
sg719
I710
sg3790
I3781
sg866
I857
sg3761
I3752
sg1199
I1190
sg2529
I2520
sg2712
I2703
sg2900
I2891
sg3448
I3439
sg90
I81
sg1267
I1258
sg1183
I1174
sg2249
I2240
sg3469
I3460
sg3375
I3366
sg2528
I2519
sg1562
I1553
sg1005
I996
sg2130
I2121
sg3793
I3784
sg928
I919
sg2536
I2527
sg2658
I2649
sg1473
I1464
sg2713
I2704
sg3168
I3159
sg2517
I2508
sg3149
I3140
sg1185
I1176
sg3712
I3703
sg3354
I3345
sg3289
I3280
sg1649
I1640
sg3727
I3718
sg2411
I2402
sg3181
I3172
sg2485
I2476
sg930
I921
sg1119
I1110
sg3723
I3714
sg3172
I3163
sg3771
I3762
sg337
I328
sg1822
I1813
sg1486
I1477
sg1366
I1357
sg908
I899
sg444
I435
sg547
I538
sg1612
I1603
sg2470
I2461
sg2879
I2870
sg3429
I3420
sg2304
I2295
sg3584
I3575
sg251
I242
sg1038
I1029
sg3531
I3522
sg3358
I3349
sg3288
I3279
sg3474
I3465
sg2591
I2582
sg1957
I1948
sg607
I598
sg296
I287
sg2027
I2018
sg81
I72
sg1899
I1890
sg80
I71
sg1209
I1200
sg3345
I3336
sg704
I695
sg2358
I2349
sg1191
I1182
sg332
I323
sg991
I982
sg422
I413
sg1210
I1201
sg1408
I1399
sg2164
I2155
sg967
I958
sg3096
I3087
sg3051
I3042
sg2796
I2787
sg2545
I2536
sg1819
I1810
sg1493
I1484
sg1285
I1276
sg2442
I2433
sg330
I321
sg861
I852
sg220
I211
sg2401
I2392
sg2575
I2566
sg694
I685
sg3435
I3426
sg2403
I2394
sg2852
I2843
sg38
I29
sg3659
I3650
sg3624
I3615
sg278
I269
sg2757
I2748
sg3464
I3455
sg831
I822
sg2620
I2611
sg1369
I1360
sg3537
I3528
sg389
I380
sg2721
I2712
sg3257
I3248
sg2398
I2389
sg2421
I2412
sg1820
I1811
sg2414
I2405
sg1514
I1505
sg1753
I1744
sg1581
I1572
sg2733
I2724
sg1583
I1574
sg431
I422
sg1484
I1475
sg896
I887
sg2090
I2081
sg3472
I3463
sg1924
I1915
sg1907
I1898
sg1680
I1671
sg1650
I1641
sg695
I686
sg3546
I3537
sg1131
I1122
sg3255
I3246
sg3029
I3020
sg3637
I3628
sg147
I138
sg140
I131
sg2126
I2117
sg345
I336
sg2708
I2699
sg1338
I1329
sg889
I880
sg1716
I1707
sg3734
I3725
sg2077
I2068
sg289
I280
sg2119
I2110
sg1010
I1001
sg2563
I2554
sg1979
I1970
sg910
I901
sg1317
I1308
sg238
I229
sg501
I492
sg489
I480
sg2677
I2668
sg805
I796
sg468
I459
sg2177
I2168
sg3040
I3031
sg968
I959
sg706
I697
sg2656
I2647
sg3100
I3091
sg1624
I1615
sg2390
I2381
sg3570
I3561
sg575
I566
sg3125
I3116
sg2685
I2676
sg1157
I1148
sg1223
I1214
sg2163
I2154
sg1018
I1009
sg3414
I3405
sg1593
I1584
sg434
I425
sg2573
I2564
sg216
I207
sg3037
I3028
sg2264
I2255
sg3639
I3630
sg3710
I3701
sg1653
I1644
sg1163
I1154
sg144
I135
sg3266
I3257
sg1999
I1990
sg2722
I2713
sg1046
I1037
sg2461
I2452
sg2830
I2821
sg2063
I2054
sg649
I640
sg178
I169
sg1482
I1473
sg3587
I3578
sg3333
I3324
sg1723
I1714
sg2343
I2334
sg3252
I3243
sg1908
I1899
sg887
I878
sg1392
I1383
sg3357
I3348
sg1918
I1909
sg536
I527
sg1100
I1091
sg3482
I3473
sg2582
I2573
sg396
I387
sg1611
I1602
sg3160
I3151
sg1710
I1701
sg2670
I2661
sg416
I407
sg1033
I1024
sg241
I232
sg211
I202
sg3747
I3738
sg1738
I1729
sg2786
I2777
sg3032
I3023
sg297
I288
sg249
I240
sg1355
I1346
sg2232
I2223
sg3019
I3010
sg842
I833
sg3527
I3518
sg3264
I3255
sg1327
I1318
sg3128
I3119
sg748
I739
sg1472
I1463
sg3237
I3228
sg1858
I1849
sg180
I171
sg1158
I1149
sg3194
I3185
sg3500
I3491
sg3595
I3586
sg2233
I2224
sg814
I805
sg3653
I3644
sg3372
I3363
sg746
I737
sg377
I368
sg3393
I3384
sg2805
I2796
sg939
I930
sg535
I526
sg875
I866
sg2500
I2491
sg1744
I1735
sg614
I605
sg715
I706
sg2904
I2895
sg119
I110
sg2864
I2855
sg3728
I3719
sg1095
I1086
sg1460
I1451
sg2087
I2078
sg1462
I1453
sg1915
I1906
sg1909
I1900
sg2763
I2754
sg625
I616
sg520
I511
sg2295
I2286
sg648
I639
sg1987
I1978
sg1070
I1061
sg2337
I2328
sg3526
I3517
sg193
I184
sg1719
I1710
sg2684
I2675
sg3130
I3121
sg1061
I1052
sg3077
I3068
sg2898
I2889
sg2186
I2177
sg2966
I2957
sg2476
I2467
sg1508
I1499
sg1129
I1120
sg3175
I3166
sg3518
I3509
sg1041
I1032
sg1849
I1840
sg319
I310
sg3434
I3425
sg2647
I2638
sg1127
I1118
sg3812
I3803
sg156
I147
sg3456
I3447
sg3347
I3338
sg1256
I1247
sg2568
I2559
sg68
I59
sg3204
I3195
sg1016
I1007
sg3488
I3479
sg2627
I2618
sg2534
I2525
sg1745
I1736
sg3369
I3360
sg3689
I3680
sg2166
I2157
sg2720
I2711
sg2813
I2804
sg3243
I3234
sg60
I51
sg2007
I1998
sg2802
I2793
sg2100
I2091
sg474
I465
sg1166
I1157
sg2458
I2449
sg3568
I3559
sg3376
I3367
sg2381
I2372
sg3227
I3218
sg1040
I1031
sg1312
I1303
sg3809
I3800
sg173
I164
sg1173
I1164
sg393
I384
sg244
I235
sg2018
I2009
sg2430
I2421
sg1575
I1566
sg897
I888
sg2579
I2570
sg1783
I1774
sg1049
I1040
sg617
I608
sg2974
I2965
sg2382
I2373
sg3614
I3605
sg1718
I1709
sg150
I141
sg1578
I1569
sg223
I214
sg2557
I2548
sg2101
I2092
sg1648
I1639
sg3053
I3044
sg3250
I3241
sg666
I657
sg1358
I1349
sg3704
I3695
sg659
I650
sg458
I449
sg2275
I2266
sg3778
I3769
sg2351
I2342
sg750
I741
sg2847
I2838
sg1555
I1546
sg983
I974
sg1037
I1028
sg635
I626
sg3401
I3392
sg1405
I1396
sg269
I260
sg3808
I3799
sg1389
I1380
sg1522
I1513
sg1240
I1231
sg122
I113
sg711
I702
sg1022
I1013
sg3110
I3101
sg3146
I3137
sg3173
I3164
sg302
I293
sg1928
I1919
sg82
I73
sg1243
I1234
sg1250
I1241
sg1444
I1435
sg3605
I3596
sg989
I980
sg2661
I2652
sg503
I494
sg3664
I3655
sg2003
I1994
sg2806
I2797
sg872
I863
sg526
I517
sg3480
I3471
sg222
I213
sg1921
I1912
sg3751
I3742
sg9
I0
sg2964
I2955
sg2780
I2771
sg3699
I3690
sg2096
I2087
sg563
I554
sg2477
I2468
sg314
I305
sg67
I58
sg663
I654
sg2415
I2406
sg2021
I2012
sg689
I680
sg477
I468
sg3273
I3264
sg252
I243
sg737
I728
sg322
I313
sg1226
I1217
sg1986
I1977
sg1754
I1745
sg2201
I2192
sg2224
I2215
sg1525
I1516
sg479
I470
sg77
I68
sg870
I861
sg638
I629
sg3762
I3753
sg47
I38
sg2236
I2227
sg2703
I2694
sg1981
I1972
sg1051
I1042
sg1043
I1034
sg1145
I1136
sg3122
I3113
sg1865
I1856
sg20
I11
sg1302
I1293
sg1622
I1613
sg3477
I3468
sg1964
I1955
sg3611
I3602
sg1466
I1457
sg2044
I2035
sg2532
I2523
sg3355
I3346
sg3258
I3249
sg2625
I2616
sg1059
I1050
sg571
I562
sg1091
I1082
sg3439
I3430
sg3236
I3227
sg2919
I2910
sg2474
I2465
sg1169
I1160
sg653
I644
sg871
I862
sg2274
I2265
sg1786
I1777
sg1971
I1962
sg907
I898
sg2331
I2322
sg1078
I1069
sg3321
I3312
sg2602
I2593
sg3192
I3183
sg3086
I3077
sg113
I104
sg2225
I2216
sg2400
I2391
sg231
I222
sg832
I823
sg228
I219
sg482
I473
sg2818
I2809
sg3447
I3438
sg265
I256
sg308
I299
sg1190
I1181
sg2210
I2201
sg1735
I1726
sg3642
I3633
sg2169
I2160
sg965
I956
sg1851
I1842
sg171
I162
sg3057
I3048
sg219
I210
sg2781
I2772
sg743
I734
sg2705
I2696
sg594
I585
sg2505
I2496
sg1458
I1449
sg1757
I1748
sg673
I664
sg1513
I1504
sg1125
I1116
sg1170
I1161
sg3118
I3109
sg2836
I2827
sg3406
I3397
sg740
I731
sg1160
I1151
sg3706
I3697
sg1755
I1746
sg497
I488
sg3353
I3344
sg2097
I2088
sg3185
I3176
sg1044
I1035
sg2686
I2677
sg2036
I2027
sg2469
I2460
sg3745
I3736
sg913
I904
sg3169
I3160
sg851
I842
sg3299
I3290
sg3478
I3469
sg408
I399
sg863
I854
sg2083
I2074
sg1932
I1923
sg1161
I1152
sg862
I853
sg1900
I1891
sg15
I6
sg2317
I2308
sg3123
I3114
sg2364
I2355
sg1394
I1385
sg3215
I3206
sg2633
I2624
sg2912
I2903
sg1402
I1393
sg1564
I1555
sg2247
I2238
sg1926
I1917
sg2749
I2740
sg1862
I1853
sg1086
I1077
sg2945
I2936
sg3426
I3417
sg2435
I2426
sg3512
I3503
sg188
I179
sg3534
I3525
sg1750
I1741
sg1527
I1518
sg1799
I1790
sg1708
I1699
sg905
I896
sg3261
I3252
sg680
I671
sg3311
I3302
sg1866
I1857
sg390
I381
sg1417
I1408
sg2550
I2541
sg3543
I3534
sg167
I158
sg1543
I1534
sg35
I26
sg1064
I1055
sg1182
I1173
sg1734
I1725
sg3363
I3354
sg360
I351
sg174
I165
sg315
I306
sg772
I763
sg3681
I3672
sg1164
I1155
sg2471
I2462
sg2213
I2204
sg1476
I1467
sg3404
I3395
sg1465
I1456
sg446
I437
sg525
I516
sg1186
I1177
sg1370
I1361
sg2336
I2327
sg3268
I3259
sg1097
I1088
sg1411
I1402
sg3307
I3298
sg2565
I2556
sg351
I342
sg1912
I1903
sg2858
I2849
sg546
I537
sg1949
I1940
sg1641
I1632
sg1379
I1370
sg919
I910
sg2162
I2153
sg3628
I3619
sg1551
I1542
sg1943
I1934
sg106
I97
sg333
I324
sg1561
I1552
sg911
I902
sg341
I332
sg3306
I3297
sg683
I674
sg1552
I1543
sg2239
I2230
sg2892
I2883
sg2734
I2725
sg3189
I3180
sg3188
I3179
sg3240
I3231
sg1172
I1163
sg3148
I3139
sg2623
I2614
sg1307
I1298
sg1657
I1648
sg1202
I1193
sg3422
I3413
sg2578
I2569
sg1341
I1332
sg1378
I1369
sg2814
I2805
sg2995
I2986
sg2652
I2643
sg386
I377
sg391
I382
sg957
I948
sg112
I103
sg3630
I3621
sg3371
I3362
sg440
I431
sg2129
I2120
sg3377
I3368
sg1412
I1403
sg349
I340
sg2611
I2602
sg2292
I2283
sg3403
I3394
sg1168
I1159
sg3783
I3774
sg1203
I1194
sg53
I44
sg1343
I1334
sg2377
I2368
sg1804
I1795
sg3098
I3089
sg1344
I1335
sg1372
I1363
sg2951
I2942
sg618
I609
sg1540
I1531
sg1453
I1444
sg2831
I2822
sg1683
I1674
sg2045
I2036
sg1688
I1679
sg2953
I2944
sg124
I115
sg885
I876
sg3716
I3707
sg2305
I2296
sg1645
I1636
sg770
I761
sg385
I376
sg494
I485
sg2137
I2128
sg1953
I1944
sg2451
I2442
sg3141
I3132
sg963
I954
sg3511
I3502
sg1045
I1036
sg2346
I2337
sg3267
I3258
sg2263
I2254
sg1009
I1000
sg3007
I2998
sg1724
I1715
sg2347
I2338
sg3329
I3320
sg1789
I1780
sg3471
I3462
sg540
I531
sg253
I244
sg665
I656
sg3315
I3306
sg2059
I2050
sg1886
I1877
sg927
I918
sg3695
I3686
sg3784
I3775
sg2387
I2378
sg3785
I3776
sg1929
I1920
sg2600
I2591
sg1515
I1506
sg3109
I3100
sg3131
I3122
sg89
I80
sg555
I546
sg91
I82
sg1959
I1950
sg810
I801
sg2204
I2195
sg92
I83
sg2636
I2627
sg3561
I3552
sg2769
I2760
sg2221
I2212
sg1977
I1968
sg2453
I2444
sg2751
I2742
sg1651
I1642
sg275
I266
sg143
I134
sg3179
I3170
sg2650
I2641
sg1032
I1023
sg518
I509
sg3139
I3130
sg2066
I2057
sg133
I124
sg3213
I3204
sg3764
I3755
sg1004
I995
sg2056
I2047
sg3327
I3318
sg22
I13
sg1706
I1697
sg2078
I2069
sg2842
I2833
sg586
I577
sg1960
I1951
sg1487
I1478
sg1700
I1691
sg1425
I1416
sg1798
I1789
sg1318
I1309
sg217
I208
sg514
I505
sg1310
I1301
sg3124
I3115
sg3126
I3117
sg3322
I3313
sg1220
I1211
sg3591
I3582
sg2950
I2941
sg1546
I1537
sg2902
I2893
sg3285
I3276
sg1174
I1165
sg2328
I2319
sg1313
I1304
sg2996
I2987
sg714
I705
sg1504
I1495
sg500
I491
sg3535
I3526
sg1498
I1489
sg2812
I2803
sg54
I45
sg281
I272
sg1740
I1731
sg1672
I1663
sg675
I666
sg3159
I3150
sg168
I159
sg464
I455
sg1961
I1952
sg2762
I2753
sg2281
I2272
sg3157
I3148
sg2725
I2716
sg3398
I3389
sg3670
I3661
sg2519
I2510
sg1792
I1783
sg248
I239
sg734
I725
sg3782
I3773
sg2706
I2697
sg86
I77
sg3418
I3409
sg3062
I3053
sg2349
I2340
sg1263
I1254
sg1856
I1847
sg3732
I3723
sg2449
I2440
sg3027
I3018
sg437
I428
sg3209
I3200
sg3549
I3540
sg2613
I2604
sg929
I920
sg677
I668
sg1834
I1825
sg3547
I3538
sg1998
I1989
sg2014
I2005
sg3645
I3636
sg2732
I2723
sg499
I490
sg1950
I1941
sg3105
I3096
sg3409
I3400
sg2750
I2741
sg3475
I3466
sg1676
I1667
sg3772
I3763
sg2546
I2537
sg3180
I3171
sg3558
I3549
sg3465
I3456
sg565
I556
sg1207
I1198
sg3183
I3174
sg153
I144
sg1007
I998
sg975
I966
sg3458
I3449
sg816
I807
sg2746
I2737
sg1296
I1287
sg3522
I3513
sg3441
I3432
sg1530
I1521
sg3284
I3275
sg350
I341
sg161
I152
sg2238
I2229
sg1079
I1070
sg1954
I1945
sg170
I161
sg950
I941
sg1857
I1848
sg3097
I3088
sg1589
I1580
sg3607
I3598
sg3220
I3211
sg3210
I3201
sg1975
I1966
sg882
I873
sg3673
I3664
sg1200
I1191
sg732
I723
sg524
I515
sg1179
I1170
sg215
I206
sg3201
I3192
sg447
I438
sg1793
I1784
sg2116
I2107
sg3450
I3441
sg2559
I2550
sg1507
I1498
sg1604
I1595
sg480
I471
sg2965
I2956
sg1775
I1766
sg1669
I1660
sg1333
I1324
sg2663
I2654
sg1445
I1436
sg2689
I2680
sg1831
I1822
sg3519
I3510
sg3043
I3034
sg2655
I2646
sg1847
I1838
sg2104
I2095
sg681
I672
sg3415
I3406
sg608
I599
sg2047
I2038
sg2598
I2589
sg2597
I2588
sg472
I463
sg3602
I3593
sg2985
I2976
sg3563
I3554
sg3067
I3058
sg1671
I1662
sg1537
I1528
sg162
I153
sg506
I497
sg2268
I2259
sg3765
I3756
sg247
I238
sg641
I632
sg2691
I2682
sg336
I327
sg1325
I1316
sg2002
I1993
sg2144
I2135
sg2379
I2370
sg2165
I2156
sg2810
I2801
sg2277
I2268
sg549
I540
sg1144
I1135
sg1008
I999
sg2363
I2354
sg198
I189
sg79
I70
sg2843
I2834
sg933
I924
sg430
I421
sg209
I200
sg347
I338
sg2748
I2739
sg1342
I1333
sg1618
I1609
sg2132
I2123
sg1094
I1085
sg839
I830
sg1729
I1720
sg3481
I3472
sg155
I146
sg3000
I2991
sg3276
I3267
sg3662
I3653
sg3214
I3205
sg3367
I3358
sg3391
I3382
sg2525
I2516
sg2829
I2820
sg1204
I1195
sg2564
I2555
sg979
I970
sg1218
I1209
sg3232
I3223
sg974
I965
sg3013
I3004
sg3022
I3013
sg3274
I3265
sg1347
I1338
sg1076
I1067
sg1329
I1320
sg1930
I1921
sg2033
I2024
sg2072
I2063
sg224
I215
sg2961
I2952
sg766
I757
sg1227
I1218
sg470
I461
sg1085
I1076
sg1659
I1650
sg779
I770
sg1955
I1946
sg1853
I1844
sg3420
I3411
sg2145
I2136
sg1400
I1391
sg2871
I2862
sg3468
I3459
sg1230
I1221
sg510
I501
sg2367
I2358
sg2425
I2416
sg2915
I2906
sg1776
I1767
sg2651
I2642
sg1334
I1325
sg83
I74
sg811
I802
sg2844
I2835
sg2366
I2357
sg136
I127
sg783
I774
sg2903
I2894
sg1830
I1821
sg749
I740
sg203
I194
sg900
I891
sg3002
I2993
sg2861
I2852
sg1461
I1452
sg542
I533
sg2924
I2915
sg1328
I1319
sg516
I507
sg996
I987
sg3744
I3735
sg2511
I2502
sg735
I726
sg2727
I2718
sg1055
I1046
sg918
I909
sg551
I542
sg2856
I2847
sg1778
I1769
sg1660
I1651
sg890
I881
sg3020
I3011
sg2308
I2299
sg148
I139
sg3742
I3733
sg2440
I2431
sg1260
I1251
sg56
I47
sg559
I550
sg646
I637
sg581
I572
sg553
I544
sg3631
I3622
sg239
I230
sg1150
I1141
sg969
I960
sg363
I354
sg2228
I2219
sg2637
I2628
sg2973
I2964
sg596
I587
sg309
I300
sg2509
I2500
sg2785
I2776
sg1658
I1649
sg801
I792
sg3702
I3693
sg3792
I3783
sg1276
I1267
sg42
I33
sg3565
I3556
sg3697
I3688
sg1111
I1102
sg1702
I1693
sg3583
I3574
sg355
I346
sg2878
I2869
sg134
I125
sg1601
I1592
sg3562
I3553
sg3314
I3305
sg745
I736
sg1454
I1445
sg1364
I1355
sg539
I530
sg3648
I3639
sg691
I682
sg290
I281
sg3389
I3380
sg2391
I2382
sg2998
I2989
sg2604
I2595
sg205
I196
sg1840
I1831
sg1693
I1684
sg570
I561
sg593
I584
sg686
I677
sg1760
I1751
sg1667
I1658
sg763
I754
sg2248
I2239
sg1817
I1808
sg2719
I2710
sg3743
I3734
sg3039
I3030
sg1690
I1681
sg131
I122
sg2183
I2174
sg2977
I2968
sg1721
I1712
sg1039
I1030
sg846
I837
sg3643
I3634
sg3365
I3356
sg2262
I2253
sg3644
I3635
sg172
I163
sg3303
I3294
sg2159
I2150
sg3008
I2999
sg311
I302
sg1201
I1192
sg2979
I2970
sg3599
I3590
sg1731
I1722
sg613
I604
sg3016
I3007
sg2046
I2037
sg2488
I2479
sg2859
I2850
sg210
I201
sg208
I199
sg2481
I2472
sg1751
I1742
sg2614
I2605
sg2773
I2764
sg2293
I2284
sg3748
I3739
sg611
I602
sg1868
I1859
sg2086
I2077
sg1236
I1227
sg2426
I2417
sg1452
I1443
sg3191
I3182
sg2975
I2966
sg2195
I2186
sg139
I130
sg194
I185
sg2548
I2539
sg2717
I2708
sg2138
I2129
sg2827
I2818
sg1968
I1959
sg121
I112
sg1357
I1348
sg1252
I1243
sg730
I721
sg632
I623
sg2683
I2674
sg2857
I2848
sg2153
I2144
sg886
I877
sg3301
I3292
sg615
I606
sg664
I655
sg154
I145
sg2679
I2670
sg2839
I2830
sg1501
I1492
sg16
I7
sg324
I315
sg1277
I1268
sg1151
I1142
sg58
I49
sg701
I692
sg733
I724
sg2155
I2146
sg1027
I1018
sg1813
I1804
sg2392
I2383
sg462
I453
sg521
I512
sg1497
I1488
sg2041
I2032
sg2752
I2743
sg776
I767
sg3085
I3076
sg2405
I2396
sg273
I264
sg2420
I2411
sg1662
I1653
sg3506
I3497
sg3746
I3737
sg359
I350
sg1271
I1262
sg1902
I1893
sg2880
I2871
sg1644
I1635
sg338
I329
sg26
I17
sg1550
I1541
sg1970
I1961
sg912
I903
sg366
I357
sg2775
I2766
sg2199
I2190
sg2759
I2750
sg2754
I2745
sg2772
I2763
sg3641
I3632
sg1284
I1275
sg804
I795
sg421
I412
sg2825
I2816
sg3470
I3461
sg1875
I1866
sg2834
I2825
sg2671
I2662
sg2115
I2106
sg818
I809
sg2736
I2727
sg2307
I2298
sg906
I897
sg2395
I2386
sg1455
I1446
sg1162
I1153
sg3153
I3144
sg75
I66
sg1429
I1420
sg2022
I2013
sg33
I24
sg1083
I1074
sg2179
I2170
sg601
I592
sg1534
I1525
sg1845
I1836
sg50
I41
sg1149
I1140
sg2607
I2598
sg3117
I3108
sg2410
I2401
sg992
I983
sg2853
I2844
sg1395
I1386
sg110
I101
sg2540
I2531
sg43
I34
sg3713
I3704
sg509
I500
sg3088
I3079
sg2527
I2518
sg865
I856
sg1560
I1551
sg2514
I2505
sg1892
I1883
sg2229
I2220
sg2345
I2336
sg2994
I2985
sg3396
I3387
sg2809
I2800
sg1375
I1366
sg465
I456
sg237
I228
sg288
I279
sg2883
I2874
sg532
I523
sg25
I16
sg3577
I3568
sg3395
I3386
sg2355
I2346
sg115
I106
sg1464
I1455
sg3310
I3301
sg592
I583
sg744
I735
sg2200
I2191
sg2515
I2506
sg2490
I2481
sg953
I944
sg628
I619
sg3585
I3576
sg1215
I1206
sg400
I391
sg339
I330
sg1335
I1326
sg401
I392
sg1132
I1123
sg2178
I2169
sg1283
I1274
sg952
I943
sg3632
I3623
sg3224
I3215
sg670
I661
sg1811
I1802
sg3275
I3266
sg517
I508
sg1432
I1423
sg1808
I1799
sg513
I504
sg2860
I2851
sg1262
I1253
sg2049
I2040
sg2245
I2236
sg1679
I1670
sg3300
I3291
sg543
I534
sg1829
I1820
sg3063
I3054
sg2327
I2318
sg125
I116
sg1280
I1271
sg1635
I1626
sg1841
I1832
sg368
I359
sg2302
I2293
sg1978
I1969
sg1939
I1930
sg502
I493
sg3776
I3767
sg3682
I3673
sg747
I738
sg413
I404
sg234
I225
sg287
I278
sg1850
I1841
sg3483
I3474
sg935
I926
sg1208
I1199
sg3092
I3083
sg2004
I1995
sg1062
I1053
sg1463
I1454
sg475
I466
sg1867
I1858
sg2417
I2408
sg2173
I2164
sg578
I569
sg1322
I1313
sg3004
I2995
sg1607
I1598
sg1596
I1587
sg286
I277
sg893
I884
sg630
I621
sg998
I989
sg3505
I3496
sg3656
I3647
sg486
I477
sg28
I19
sg2612
I2603
sg3344
I3335
sg3553
I3544
sg1894
I1885
sg1787
I1778
sg1398
I1389
sg2184
I2175
sg3108
I3099
sg3269
I3260
sg2147
I2138
sg1058
I1049
sg1152
I1143
sg1436
I1427
sg2286
I2277
sg2868
I2859
sg2136
I2127
sg2901
I2892
sg2099
I2090
sg2530
I2521
sg3694
I3685
sg2141
I2132
sg293
I284
sg3503
I3494
sg3361
I3352
sg1952
I1943
sg2299
I2290
sg667
I658
sg799
I790
sg1273
I1264
sg1071
I1062
sg3390
I3381
sg1348
I1339
sg2890
I2881
sg2537
I2528
sg3768
I3759
sg1354
I1345
sg2885
I2876
sg2543
I2534
sg1855
I1846
sg3259
I3250
sg1585
I1576
sg2158
I2149
sg448
I439
sg3508
I3499
sg1695
I1686
sg1356
I1347
sg2845
I2836
sg3113
I3104
sg2863
I2854
sg756
I747
sg303
I294
sg2970
I2961
sg2630
I2621
sg971
I962
sg1890
I1881
sg2001
I1992
sg2380
I2371
sg2289
I2280
sg2764
I2755
sg1026
I1017
sg1620
I1611
sg738
I729
sg877
I868
sg1898
I1889
sg720
I711
sg3485
I3476
sg3786
I3777
sg182
I173
sg2758
I2749
sg1481
I1472
sg1576
I1567
sg242
I233
sg884
I875
sg629
I620
sg3574
I3565
sg2456
I2447
sg2095
I2086
sg1595
I1586
sg3410
I3401
sg1136
I1127
sg685
I676
sg2760
I2751
sg2468
I2459
sg3182
I3173
sg192
I183
sg2697
I2688
sg1780
I1771
sg2941
I2932
sg1870
I1861
sg1627
I1618
sg2761
I2752
sg1308
I1299
sg823
I814
sg226
I217
sg947
I938
sg1353
I1344
sg3359
I3350
sg1541
I1532
sg2906
I2897
sg2940
I2931
sg554
I545
sg257
I248
sg2472
I2463
sg960
I951
sg3143
I3134
sg3671
I3662
sg3687
I3678
sg165
I156
sg1197
I1188
sg1747
I1738
sg3731
I3722
sg2443
I2434
sg3811
I3802
sg3612
I3603
sg2399
I2390
sg1505
I1496
sg2714
I2705
sg97
I88
sg762
I753
sg3216
I3207
sg959
I950
sg3459
I3450
sg642
I633
sg3580
I3571
sg1266
I1257
sg454
I445
sg817
I808
sg2303
I2294
sg1544
I1535
sg1816
I1807
sg982
I973
sg3807
I3798
sg753
I744
sg1352
I1343
sg1294
I1285
sg3413
I3404
sg1495
I1486
sg24
I15
sg1084
I1075
sg2170
I2161
sg2081
I2072
sg3725
I3716
sg3719
I3710
sg2491
I2482
sg1137
I1128
sg684
I675
sg3606
I3597
sg3279
I3270
sg980
I971
sg2372
I2363
sg424
I415
sg3115
I3106
sg1156
I1147
sg712
I703
sg1420
I1411
sg126
I117
sg2356
I2347
sg485
I476
sg1028
I1019
sg3489
I3480
sg1519
I1510
sg1828
I1819
sg2250
I2241
sg752
I743
sg2621
I2612
sg2112
I2103
sg788
I779
sg1623
I1614
sg1251
I1242
sg254
I245
sg1781
I1772
sg2409
I2400
sg1361
I1352
sg2034
I2025
sg3308
I3299
sg652
I643
sg1674
I1665
sg1124
I1115
sg1982
I1973
sg1446
I1437
sg1110
I1101
sg1597
I1588
sg940
I931
sg741
I732
sg3649
I3640
sg1478
I1469
sg1439
I1430
sg1516
I1507
sg3332
I3323
sg2452
I2443
sg1047
I1038
sg2010
I2001
sg1510
I1501
sg3176
I3167
sg1141
I1132
sg721
I712
sg2023
I2014
sg1807
I1798
sg2948
I2939
sg3484
I3475
sg2983
I2974
sg2707
I2698
sg2931
I2922
sg3530
I3521
sg2080
I2071
sg1448
I1439
sg548
I539
sg1351
I1342
sg604
I595
sg978
I969
sg3028
I3019
sg2283
I2274
sg3263
I3254
sg2569
I2560
sg52
I43
sg2516
I2507
sg1685
I1676
sg300
I291
sg778
I769
sg2544
I2535
sg2180
I2171
sg2808
I2799
sg3425
I3416
sg634
I625
sg1003
I994
sg1126
I1117
sg1714
I1705
sg2869
I2860
sg2817
I2808
sg1920
I1911
sg1382
I1373
sg2211
I2202
sg132
I123
sg1304
I1295
sg3787
I3778
sg705
I696
sg2756
I2747
sg2312
I2303
sg1360
I1351
sg1821
I1812
sg3486
I3477
sg751
I742
sg272
I263
sg2521
I2512
sg3219
I3210
sg493
I484
sg2123
I2114
sg1068
I1059
sg2371
I2362
sg1088
I1079
sg850
I841
sg921
I912
sg476
I467
sg2783
I2774
sg647
I638
sg2071
I2062
sg1848
I1839
sg1396
I1387
sg1272
I1263
sg103
I94
sg312
I303
sg1391
I1382
sg3018
I3009
sg876
I867
sg873
I864
sg2397
I2388
sg1214
I1205
sg718
I709
sg2584
I2575
sg3680
I3671
sg270
I261
sg3715
I3706
sg2907
I2898
sg1224
I1215
sg1746
I1737
sg2910
I2901
sg3297
I3288
sg88
I79
sg731
I722
sg987
I978
sg2946
I2937
sg1099
I1090
sg1802
I1793
sg2832
I2823
sg669
I660
sg1244
I1235
sg1606
I1597
sg690
I681
sg895
I886
sg3380
I3371
sg1021
I1012
sg1298
I1289
sg997
I988
sg1913
I1904
sg3576
I3567
sg568
I559
sg1742
I1733
sg698
I689
sg2102
I2093
sg3803
I3794
sg321
I312
sg3103
I3094
sg2185
I2176
sg3099
I3090
sg130
I121
sg411
I402
sg2841
I2832
sg3805
I3796
sg1613
I1604
sg2920
I2911
sg844
I835
sg186
I177
sg2374
I2365
sg1937
I1928
sg3548
I3539
sg1451
I1442
sg392
I383
sg2541
I2532
sg722
I713
sg3521
I3512
sg310
I301
sg1965
I1956
sg2191
I2182
sg1359
I1350
sg2997
I2988
sg2877
I2868
sg1689
I1680
sg36
I27
sg1290
I1281
sg2149
I2140
sg3155
I3146
sg243
I234
sg2718
I2709
sg1800
I1791
sg29
I20
sg1686
I1677
sg2577
I2568
sg352
I343
sg1687
I1678
sg995
I986
sg2172
I2163
sg1116
I1107
sg640
I631
sg418
I409
sg1235
I1226
sg2797
I2788
sg1580
I1571
sg2251
I2242
sg354
I345
sg2955
I2946
sg1796
I1787
sg1365
I1356
sg262
I253
sg2986
I2977
sg1257
I1248
sg1205
I1196
sg3116
I3107
sg187
I178
sg2219
I2210
sg425
I416
sg266
I257
sg2223
I2214
sg2276
I2267
sg98
I89
sg1741
I1732
sg85
I76
sg30
I21
sg3186
I3177
sg1219
I1210
sg2745
I2736
sg432
I423
sg1437
I1428
sg2585
I2576
sg2696
I2687
sg736
I727
sg2690
I2681
sg3309
I3300
sg567
I558
sg3222
I3213
sg177
I168
sg2342
I2333
sg2348
I2339
sg1321
I1312
sg3676
I3667
sg1320
I1311
sg3791
I3782
sg1165
I1156
sg2551
I2542
sg3804
I3795
sg3775
I3766
sg3767
I3758
sg3752
I3743
sg3392
I3383
sg661
I652
sg2922
I2913
sg2478
I2469
sg3438
I3429
sg1258
I1249
sg78
I69
sg2895
I2886
sg3774
I3765
sg2433
I2424
sg899
I890
sg2431
I2422
sg313
I304
sg1456
I1447
sg2556
I2547
sg914
I905
sg588
I579
sg2318
I2309
sg3523
I3514
sg3582
I3573
sg3017
I3008
sg2865
I2856
sg1640
I1631
sg2062
I2053
sg569
I560
sg2855
I2846
sg626
I617
sg2008
I1999
sg2438
I2429
sg3399
I3390
sg3685
I3676
sg3433
I3424
sg2142
I2133
sg1523
I1514
sg2601
I2592
sg2455
I2446
sg2321
I2312
sg114
I105
sg2930
I2921
sg1743
I1734
sg1726
I1717
sg3106
I3097
sg3394
I3385
sg2914
I2905
sg505
I496
sg1717
I1708
sg1810
I1801
sg2493
I2484
sg1935
I1926
sg466
I457
sg32
I23
sg1288
I1279
sg2257
I2248
sg3741
I3732
sg2285
I2276
sg3241
I3232
sg645
I636
sg3129
I3120
sg1502
I1493
sg71
I62
sg2432
I2423
sg3709
I3700
sg3238
I3229
sg999
I990
sg3655
I3646
sg1098
I1089
sg2624
I2615
sg2038
I2029
sg2350
I2341
sg320
I311
sg3221
I3212
sg1423
I1414
sg2507
I2498
sg809
I800
sg2404
I2395
sg151
I142
sg3339
I3330
sg3515
I3506
sg951
I942
sg1031
I1022
sg1572
I1563
sg808
I799
sg3760
I3751
sg3112
I3103
sg1809
I1800
sg1557
I1548
sg560
I551
sg3338
I3329
sg3542
I3533
sg2555
I2546
sg622
I613
sg1376
I1367
sg1958
I1949
sg487
I478
sg328
I319
sg759
I750
sg118
I109
sg2572
I2563
sg3638
I3629
sg3737
I3728
sg2482
I2473
sg1194
I1185
sg708
I699
sg1814
I1805
sg2329
I2320
sg707
I698
sg2956
I2947
sg3166
I3157
sg1418
I1409
sg1222
I1213
sg973
I964
sg2446
I2437
sg2653
I2644
sg1779
I1770
sg829
I820
sg3419
I3410
sg2212
I2203
sg196
I187
sg3460
I3451
sg1642
I1633
sg3385
I3376
sg3597
I3588
sg1703
I1694
sg1238
I1229
sg127
I118
sg843
I834
sg2205
I2196
sg3247
I3238
sg65
I56
sg123
I114
sg1701
I1692
sg824
I815
sg2253
I2244
sg1632
I1623
sg1422
I1413
sg2197
I2188
sg830
I821
sg1196
I1187
sg651
I642
sg1682
I1673
sg1764
I1755
sg3069
I3060
sg1910
I1901
sg3205
I3196
sg1730
I1721
sg190
I181
sg3059
I3050
sg370
I361
sg1784
I1775
sg1206
I1197
sg2574
I2565
sg453
I444
sg1475
I1466
sg1711
I1702
sg819
I810
sg1654
I1645
sg2508
I2499
sg3572
I3563
sg2203
I2194
sg2580
I2571
sg931
I922
sg3707
I3698
sg1825
I1816
sg1826
I1817
sg1774
I1765
sg2581
I2572
sg3596
I3587
sg3449
I3440
ssS'separator'
p3818
S'='
sS'sparse'
p3819
I01
sb.