ccopy_reg
_reconstructor
p1
(csklearn.feature_extraction.dict_vectorizer
DictVectorizer
p2
c__builtin__
object
p3
NtRp4
(dp5
S'sort'
p6
I01
sS'feature_names_'
p7
(lp8
S'advcl=back'
p9
aS'advcl=go'
p10
aS'advmod=absolutely'
p11
aS'advmod=even'
p12
aS'advmod=how'
p13
aS'advmod=more'
p14
aS'advmod=only'
p15
aS'advmod=perhaps'
p16
aS'advmod=quickly'
p17
aS'advmod=temporarily'
p18
aS'advmod=very'
p19
aS'aux=be'
p20
aS'aux=could'
p21
aS'aux=have'
p22
aS'aux=must'
p23
aS'aux=to'
p24
aS'aux=will'
p25
aS'auxpass=be'
p26
aS'cc=and'
p27
aS'cc=but'
p28
aS'ccomp=believe'
p29
aS'ccomp=cite'
p30
aS'ccomp=go'
p31
aS'ccomp=line'
p32
aS'ccomp=priority'
p33
aS'complm=that'
p34
aS'conj=bring'
p35
aS'conj=quickly'
p36
aS'conj=say'
p37
aS'conj=sensible'
p38
aS'cop=be'
p39
aS'cop=seem'
p40
aS'csubj=read'
p41
aS'csubj=say'
p42
aS'dep=if'
p43
aS'dep=in'
p44
aS'dep=say'
p45
aS'dobj=#PRP#'
p46
aS'dobj=a'
p47
aS'dobj=course'
p48
aS'dobj=distortion'
p49
aS'dobj=host'
p50
aS'dobj=imbalance'
p51
aS'dobj=issue'
p52
aS'dobj=length'
p53
aS'dobj=mistake'
p54
aS'dobj=policy'
p55
aS'dobj=problem'
p56
aS'dobj=record'
p57
aS'dobj=slump'
p58
aS'dobj=thing'
p59
aS'dobj=this'
p60
aS'dobj=valve'
p61
aS'dobj=view'
p62
aS'mark=if'
p63
aS'neg=not'
p64
aS'nsubj=#PRP#'
p65
aS'nsubj=Guinea-Bissau'
p66
aS'nsubj=amount'
p67
aS'nsubj=court'
p68
aS'nsubj=economy'
p69
aS'nsubj=editor'
p70
aS'nsubj=poll'
p71
aS'nsubj=report'
p72
aS'nsubj=science'
p73
aS'nsubj=tally'
p74
aS'nsubj=that'
p75
aS'nsubj=theory'
p76
aS'nsubj=this'
p77
aS'nsubj=who'
p78
aS'nsubjpass=list'
p79
aS'nsubjpass=mistake'
p80
aS'nsubjpass=that'
p81
aS'nsubjpass=those'
p82
aS'prep=at'
p83
aS'prep=by'
p84
aS'prep=for'
p85
aS'prep=in'
p86
aS'prep=like'
p87
aS'prep=toward'
p88
aS'prep=with'
p89
aS"w+1=''"
p90
aS'w+1=,'
p91
aS'w+1=-rrb-'
p92
aS'w+1=.'
p93
aS'w+1=I'
p94
aS'w+1=a'
p95
aS'w+1=accounting'
p96
aS'w+1=all'
p97
aS'w+1=and'
p98
aS'w+1=approach'
p99
aS'w+1=by'
p100
aS'w+1=compensation'
p101
aS'w+1=consider'
p102
aS'w+1=datum'
p103
aS'w+1=deal'
p104
aS'w+1=decision'
p105
aS'w+1=declaration'
p106
aS'w+1=deficiency'
p107
aS'w+1=diagnosis'
p108
aS'w+1=distortion'
p109
aS'w+1=documentation'
p110
aS'w+1=faulty'
p111
aS'w+1=for'
p112
aS'w+1=if'
p113
aS'w+1=in'
p114
aS'w+1=income'
p115
aS'w+1=institutional'
p116
aS'w+1=it'
p117
aS'w+1=its'
p118
aS'w+1=itself'
p119
aS'w+1=length'
p120
aS'w+1=list'
p121
aS'w+1=move'
p122
aS'w+1=nuclear'
p123
aS'w+1=physics'
p124
aS'w+1=step'
p125
aS'w+1=that'
p126
aS'w+1=the'
p127
aS'w+1=these'
p128
aS'w+1=they'
p129
aS'w+1=thing'
p130
aS'w+1=this'
p131
aS'w+1=those'
p132
aS'w+1=to'
p133
aS'w+1=voter'
p134
aS'w+1=way'
p135
aS'w+1=what'
p136
aS'w+1=wherever'
p137
aS"w+2=''"
p138
aS'w+2=,'
p139
aS'w+2=.'
p140
aS'w+2=75'
p141
aS'w+2=Nicolas'
p142
aS'w+2=a'
p143
aS'w+2=abuse'
p144
aS'w+2=and'
p145
aS'w+2=at'
p146
aS'w+2=be'
p147
aS'w+2=begin'
p148
aS'w+2=coordinate'
p149
aS'w+2=declaration'
p150
aS'w+2=economic'
p151
aS'w+2=exact'
p152
aS'w+2=for'
p153
aS'w+2=go'
p154
aS'w+2=he'
p155
aS'w+2=heart'
p156
aS'w+2=historical'
p157
aS'w+2=host'
p158
aS'w+2=how'
p159
aS'w+2=imbalance'
p160
aS'w+2=in'
p161
aS'w+2=inequality'
p162
aS'w+2=issue'
p163
aS'w+2=it'
p164
aS'w+2=its'
p165
aS'w+2=list'
p166
aS'w+2=mistake'
p167
aS'w+2=of'
p168
aS'w+2=over'
p169
aS'w+2=policy'
p170
aS'w+2=politically'
p171
aS'w+2=problem'
p172
aS'w+2=say'
p173
aS'w+2=that'
p174
aS'w+2=the'
p175
aS'w+2=then'
p176
aS'w+2=they'
p177
aS'w+2=this'
p178
aS'w+2=view'
p179
aS'w+2=we'
p180
aS'w+2=whenever'
p181
aS'w+2=yen'
p182
aS"w-1=''"
p183
aS'w-1=,'
p184
aS'w-1=-lrb-'
p185
aS'w-1=a'
p186
aS'w-1=absolutely'
p187
aS'w-1=affiliation'
p188
aS'w-1=and'
p189
aS'w-1=at'
p190
aS'w-1=be'
p191
aS'w-1=have'
p192
aS'w-1=help'
p193
aS'w-1=more'
p194
aS'w-1=not'
p195
aS'w-1=procedure'
p196
aS'w-1=prove'
p197
aS'w-1=put'
p198
aS'w-1=quickly'
p199
aS'w-1=that'
p200
aS'w-1=the'
p201
aS'w-1=to'
p202
aS'w-1=very'
p203
aS'w-1=who'
p204
aS'w-1=will'
p205
aS'w-2=,'
p206
aS'w-2=-rrb-'
p207
aS'w-2=Sunday'
p208
aS'w-2=a'
p209
aS'w-2=activity'
p210
aS'w-2=all'
p211
aS'w-2=amount'
p212
aS'w-2=and'
p213
aS'w-2=arrive'
p214
aS'w-2=be'
p215
aS'w-2=begin'
p216
aS'w-2=bud'
p217
aS'w-2=calm'
p218
aS'w-2=complete'
p219
aS'w-2=could'
p220
aS'w-2=country'
p221
aS'w-2=court'
p222
aS'w-2=economy'
p223
aS'w-2=ensure'
p224
aS'w-2=estimate'
p225
aS'w-2=expect'
p226
aS'w-2=fail'
p227
aS'w-2=flaw'
p228
aS'w-2=full'
p229
aS'w-2=have'
p230
aS'w-2=he'
p231
aS'w-2=how'
p232
aS'w-2=identify'
p233
aS'w-2=it'
p234
aS'w-2=justice'
p235
aS'w-2=like'
p236
aS'w-2=lot'
p237
aS'w-2=make'
p238
aS'w-2=negotiate'
p239
aS'w-2=not'
p240
aS'w-2=only'
p241
aS'w-2=pact'
p242
aS'w-2=poll'
p243
aS'w-2=quickly'
p244
aS'w-2=race'
p245
aS'w-2=re-measured'
p246
aS'w-2=religious'
p247
aS'w-2=report'
p248
aS'w-2=review'
p249
aS'w-2=rule'
p250
aS'w-2=say'
p251
aS'w-2=science'
p252
aS'w-2=seek'
p253
aS'w-2=seem'
p254
aS'w-2=speculation'
p255
aS'w-2=step'
p256
aS'w-2=that'
p257
aS'w-2=the'
p258
aS'w-2=theory'
p259
aS'w-2=therapy'
p260
aS'w-2=there'
p261
aS'w-2=those'
p262
aS'w-2=to'
p263
aS'w-2=try'
p264
aS'w-2=up'
p265
aS'w-2=want'
p266
aS'w-2=way'
p267
aS'xcomp=come'
p268
aS'xcomp=consider'
p269
aS'xcomp=say'
p270
asS'dtype'
p271
cnumpy
float64
p272
sS'vocabulary_'
p273
(dp274
g243
I234
sg259
I250
sg52
I43
sg110
I101
sg250
I241
sg14
I5
sg91
I82
sg36
I27
sg172
I163
sg92
I83
sg30
I21
sg59
I50
sg71
I62
sg40
I31
sg45
I36
sg227
I218
sg104
I95
sg174
I165
sg16
I7
sg84
I75
sg35
I26
sg76
I67
sg158
I149
sg150
I141
sg204
I195
sg49
I40
sg266
I257
sg78
I69
sg151
I142
sg178
I169
sg235
I226
sg187
I178
sg47
I38
sg171
I162
sg82
I73
sg220
I211
sg224
I215
sg202
I193
sg263
I254
sg145
I136
sg213
I204
sg105
I96
sg221
I212
sg12
I3
sg126
I117
sg236
I227
sg113
I104
sg46
I37
sg51
I42
sg79
I70
sg37
I28
sg226
I217
sg111
I102
sg131
I122
sg72
I63
sg39
I30
sg217
I208
sg214
I205
sg169
I160
sg231
I222
sg53
I44
sg60
I51
sg25
I16
sg238
I229
sg219
I210
sg118
I109
sg128
I119
sg251
I242
sg112
I103
sg135
I126
sg255
I246
sg175
I166
sg83
I74
sg119
I110
sg205
I196
sg206
I197
sg107
I98
sg89
I80
sg189
I180
sg264
I255
sg148
I139
sg136
I127
sg22
I13
sg222
I213
sg68
I59
sg191
I182
sg165
I156
sg102
I93
sg57
I48
sg184
I175
sg240
I231
sg258
I249
sg96
I87
sg179
I170
sg198
I189
sg141
I132
sg97
I88
sg233
I224
sg203
I194
sg11
I2
sg234
I225
sg170
I161
sg232
I223
sg166
I157
sg228
I219
sg38
I29
sg56
I47
sg106
I97
sg167
I158
sg194
I185
sg229
I220
sg130
I121
sg88
I79
sg209
I200
sg142
I133
sg48
I39
sg256
I247
sg85
I76
sg186
I177
sg237
I228
sg270
I261
sg32
I23
sg192
I183
sg181
I172
sg70
I61
sg101
I92
sg137
I128
sg269
I260
sg62
I53
sg185
I176
sg146
I137
sg138
I129
sg161
I152
sg157
I148
sg31
I22
sg80
I71
sg164
I155
sg133
I124
sg103
I94
sg28
I19
sg211
I202
sg241
I232
sg69
I60
sg26
I17
sg42
I33
sg34
I25
sg249
I240
sg123
I114
sg154
I145
sg177
I168
sg223
I214
sg212
I203
sg218
I209
sg50
I41
sg121
I112
sg230
I221
sg27
I18
sg195
I186
sg188
I179
sg260
I251
sg248
I239
sg257
I248
sg29
I20
sg127
I118
sg215
I206
sg252
I243
sg173
I164
sg15
I6
sg147
I138
sg81
I72
sg129
I120
sg247
I238
sg41
I32
sg132
I123
sg17
I8
sg115
I106
sg86
I77
sg176
I167
sg13
I4
sg225
I216
sg114
I105
sg267
I258
sg116
I107
sg117
I108
sg162
I153
sg65
I56
sg125
I116
sg144
I135
sg124
I115
sg183
I174
sg10
I1
sg197
I188
sg265
I256
sg262
I253
sg210
I201
sg66
I57
sg55
I46
sg90
I81
sg160
I151
sg67
I58
sg242
I233
sg24
I15
sg9
I0
sg120
I111
sg134
I125
sg245
I236
sg149
I140
sg244
I235
sg61
I52
sg253
I244
sg196
I187
sg193
I184
sg98
I89
sg152
I143
sg21
I12
sg74
I65
sg87
I78
sg182
I173
sg77
I68
sg159
I150
sg93
I84
sg168
I159
sg246
I237
sg122
I113
sg140
I131
sg139
I130
sg43
I34
sg268
I259
sg153
I144
sg64
I55
sg44
I35
sg239
I230
sg54
I45
sg75
I66
sg23
I14
sg155
I146
sg94
I85
sg199
I190
sg19
I10
sg156
I147
sg100
I91
sg33
I24
sg216
I207
sg18
I9
sg180
I171
sg58
I49
sg95
I86
sg261
I252
sg254
I245
sg207
I198
sg190
I181
sg201
I192
sg208
I199
sg73
I64
sg109
I100
sg200
I191
sg20
I11
sg163
I154
sg99
I90
sg63
I54
sg143
I134
sg108
I99
ssS'separator'
p275
S'='
sS'sparse'
p276
I01
sb.