ccopy_reg
_reconstructor
p1
(csklearn.feature_extraction.dict_vectorizer
DictVectorizer
p2
c__builtin__
object
p3
NtRp4
(dp5
S'sort'
p6
I01
sS'feature_names_'
p7
(lp8
S'advmod=socially'
p9
aS'aux=be'
p10
aS'aux=can'
p11
aS'auxpass=be'
p12
aS'cc=and'
p13
aS'cc=or'
p14
aS'conj=find'
p15
aS'conj=stigmatize'
p16
aS'dobj=#PRP#'
p17
aS'dobj=that'
p18
aS'mark=because'
p19
aS'nsubj=student'
p20
aS'nsubjpass=#PRP#'
p21
aS'nsubjpass=India'
p22
aS'nsubjpass=anyone'
p23
aS'nsubjpass=those'
p24
aS'prep=by'
p25
aS'prep=for'
p26
aS'w+1=,'
p27
aS'w+1=.'
p28
aS'w+1=by'
p29
aS'w+1=or'
p30
aS'w+1=they'
p31
aS"w+2=''"
p32
aS'w+2=.'
p33
aS'w+2=family'
p34
aS'w+2=stigmatize'
p35
aS'w+2=the'
p36
aS'w-1=,'
p37
aS'w-1=be'
p38
aS'w-1=socially'
p39
aS'w-1=teacher'
p40
aS'w-2=India'
p41
aS'w-2=be'
p42
aS'w-2=can'
p43
aS'w-2=community'
p44
aS'w-2=even'
p45
asS'dtype'
p46
cnumpy
float64
p47
sS'vocabulary_'
p48
(dp49
g24
I15
sg35
I26
sg40
I31
sg32
I23
sg39
I30
sg44
I35
sg36
I27
sg22
I13
sg12
I3
sg11
I2
sg14
I5
sg34
I25
sg27
I18
sg28
I19
sg38
I29
sg33
I24
sg43
I34
sg37
I28
sg13
I4
sg20
I11
sg41
I32
sg29
I20
sg31
I22
sg16
I7
sg19
I10
sg25
I16
sg42
I33
sg21
I12
sg17
I8
sg10
I1
sg26
I17
sg30
I21
sg18
I9
sg15
I6
sg23
I14
sg9
I0
sg45
I36
ssS'separator'
p50
S'='
sS'sparse'
p51
I01
sb.