ccopy_reg
_reconstructor
p1
(csklearn.feature_extraction.dict_vectorizer
DictVectorizer
p2
c__builtin__
object
p3
NtRp4
(dp5
S'vocabulary_'
p6
(dp7
S'w+1=Guinea'
p8
I578
sS'ccomp=exaggerate'
p9
I85
sS'w-2=Pennsylvania'
p10
I1183
sS'advmod=certainly'
p11
I22
sS'w-1=resolution'
p12
I1119
sS'dobj=front'
p13
I269
sS'nsubjpass=grid'
p14
I517
sS'w+2=initiative'
p15
I842
sS'dobj=flow'
p16
I264
sS'w+1=addiction'
p17
I587
sS'dobj=collection'
p18
I235
sS'nsubj=OPEC'
p19
I439
sS'dobj=cohesion'
p20
I234
sS'nsubj=team'
p21
I507
sS'w-1=nation'
p22
I1098
sS'w-2=police'
p23
I1329
sS'w-2=proxy'
p24
I1337
sS'w-2=need'
p25
I1312
sS'w-2=position'
p26
I1331
sS'w-2=policy'
p27
I1330
sS'w-1=Pyongyang'
p28
I1037
sS'w+2=nation'
p29
I875
sS'dobj=culture'
p30
I242
sS'dobj=doctrine'
p31
I251
sS'w+2=weapon'
p32
I989
sS'w-1=will'
p33
I1140
sS'dobj=grip'
p34
I274
sS'w+1=normal'
p35
I649
sS'w-1=staff'
p36
I1127
sS'w-1=well'
p37
I1137
sS'w+2=environmental'
p38
I792
sS'w-1=Iran'
p39
I1019
sS'w+1=she'
p40
I674
sS'w-2=where'
p41
I1396
sS'xcomp=conduct'
p42
I1406
sS'ccomp=shoot'
p43
I126
sS'w-2=who'
p44
I1400
sS'w+2=nuclear'
p45
I885
sS'w-2=infrastructure'
p46
I1279
sS'conj=strengthen'
p47
I189
sS'ccomp=carry'
p48
I80
sS'w+1=or'
p49
I655
sS'w+2=delicate'
p50
I777
sS'ccomp=say'
p51
I122
sS'ccomp=prove'
p52
I112
sS'ccomp=ribbing'
p53
I119
sS'w+2=anyone'
p54
I732
sS'w+2=eight'
p55
I788
sS'w-2=install'
p56
I1280
sS'dobj=position'
p57
I322
sS'w-2=all'
p58
I1201
sS'w-2=trend'
p59
I1378
sS'ccomp=have'
p60
I92
sS'w+2=you'
p61
I1000
sS'nsubjpass=adequacy'
p62
I513
sS'dobj=quo'
p63
I333
sS'w-1=you'
p64
I1143
sS'w+2=popularity'
p65
I913
sS'w-2=that'
p66
I1371
sS'w+1=the'
p67
I688
sS'w+1=good'
p68
I620
sS'ccomp=moderate'
p69
I103
sS'dobj=weight'
p70
I382
sS'dep=create'
p71
I198
sS'dep=jail'
p72
I201
sS'w-2=reason'
p73
I1338
sS'w-2=citizen'
p74
I1222
sS'nsubj=Lebanon'
p75
I429
sS'w-2=paper'
p76
I1322
sS'w+2=status'
p77
I947
sS'nsubj=U.N.'
p78
I459
sS'advmod=ahead'
p79
I17
sS'w-2=Party'
p80
I1182
sS'w-1=side'
p81
I1125
sS'w+2=carbon'
p82
I752
sS'w-2=cooperation'
p83
I1231
sS'w-2=orbit'
p84
I1318
sS'w-2=order'
p85
I1319
sS'dobj=work'
p86
I385
sS'conj=expect'
p87
I158
sS'w-1=should'
p88
I1124
sS'xcomp=deter'
p89
I1408
sS'nsubj=that'
p90
I508
sS'advmod=here'
p91
I34
sS'nsubj=fine'
p92
I479
sS'ccomp=send'
p93
I123
sS'nsubj=Gonzalez'
p94
I416
sS'w-2=unlikely'
p95
I1384
sS'w-2=Somalia'
p96
I1187
sS'nsubj=Sakhuja'
p97
I452
sS'partmod=regard'
p98
I532
sS'advmod=where'
p99
I53
sS'ccomp=good'
p100
I91
sS'w+2=space'
p101
I943
sS'w+2=calm'
p102
I750
sS'xcomp=stop'
p103
I1417
sS'nsubj=U.S.'
p104
I460
sS'w-1=Pfizer'
p105
I1036
sS'w-2=community'
p106
I1227
sS'advcl=evolve'
p107
I6
sS'dobj=mission'
p108
I306
sS'advcl=promote'
p109
I14
sS'w+2=outlook'
p110
I899
sS'xcomp=resist'
p111
I1415
sS'w+2=however'
p112
I836
sS'w-1=to'
p113
I1135
sS'advmod=especially'
p114
I27
sS'dobj=#PRP#'
p115
I210
sS'w+2=strengthen'
p116
I950
sS'w-2=do'
p117
I1243
sS'w-2=clothes'
p118
I1224
sS'nsubj=report'
p119
I500
sS'dep=give'
p120
I200
sS'w+2=solar'
p121
I942
sS'dobj=defens'
p122
I247
sS'w+2=while'
p123
I993
sS'conj=adjust'
p124
I148
sS'nsubj=defendant'
p125
I474
sS'w+1=he'
p126
I623
sS'w+2=anti-democratic'
p127
I730
sS'w+2=traditionally'
p128
I975
sS'w-2=Russia'
p129
I1185
sS'w-2=Karimov'
p130
I1171
sS'advmod=rigorously'
p131
I45
sS'nsubj=Republicans'
p132
I449
sS'w+1=production'
p133
I663
sS'advcl=near'
p134
I12
sS'dobj=authority'
p135
I218
sS'w+2=percent'
p136
I907
sS'dobj=net'
p137
I309
sS'dobj=tradition'
p138
I372
sS'w+1=tie'
p139
I695
sS'w-1=force'
p140
I1074
sS'dep=continue'
p141
I197
sS'prep=despite'
p142
I545
sS'w-2=restraint'
p143
I1343
sS'w+1=progress'
p144
I664
sS'w-2=commit'
p145
I1226
sS'ccomp=open'
p146
I107
sS'nsubj=Canada'
p147
I408
sS'nsubj=president'
p148
I499
sS'nsubj=Korea'
p149
I427
sS'advcl=constrain'
p150
I4
sS'conj=toss'
p151
I192
sS'w-2=fight'
p152
I1259
sS'w-2=camp'
p153
I1217
sS'w-2=United'
p154
I1192
sS'dobj=interest'
p155
I289
sS'w+2=decades-old'
p156
I775
sS'w-2=Iraqis'
p157
I1166
sS'conj=refuse'
p158
I180
sS'w+2=public'
p159
I922
sS'dobj=vehicle'
p160
I376
sS'dobj=access'
p161
I213
sS'ccomp=operate'
p162
I108
sS'dobj=stability'
p163
I353
sS'nsubj=commission'
p164
I471
sS'conj=feed'
p165
I160
sS'nsubjpass=skill'
p166
I523
sS'dobj=Conte'
p167
I211
sS'w+1=smoke-free'
p168
I675
sS'w-1=Iraq'
p169
I1020
sS'ccomp=relate'
p170
I113
sS'w+2=area'
p171
I734
sS'w-2=attempt'
p172
I1207
sS'nsubj=military'
p173
I489
sS'advmod=far'
p174
I29
sS'w+1=stability'
p175
I679
sS'w-1=Britain'
p176
I1009
sS'w+1=80'
p177
I573
sS'w+2=integrity'
p178
I845
sS'w-2=crucial'
p179
I1235
sS'w-1=president'
p180
I1114
sS'dobj=occupation'
p181
I311
sS'w+1=nature'
p182
I645
sS'nsubj=package'
p183
I493
sS'prep=depend'
p184
I544
sS'w-2=mission'
p185
I1304
sS'w-2=would'
p186
I1403
sS'dobj=use'
p187
I375
sS'w+2=this'
p188
I963
sS'w+2=ability'
p189
I724
sS'w+2=cease-fire'
p190
I754
sS'nsubj=spokesman'
p191
I504
sS'w-1=other'
p192
I1108
sS'dobj=coalition'
p193
I233
sS'w-2=motivation'
p194
I1308
sS'w-2=expect'
p195
I1253
sS'mark=while'
p196
I395
sS'dep=so'
p197
I205
sS'dobj=first'
p198
I263
sS'w-2=with'
p199
I1402
sS'w-2=also'
p200
I1202
sS'w+2=friendship'
p201
I810
sS'w+2=Christmas'
p202
I714
sS'dobj=place'
p203
I318
sS'w+2=net'
p204
I880
sS'w+2=new'
p205
I882
sS'w-1=Swift'
p206
I1046
sS'w+1=sufficient'
p207
I683
sS'cc=or'
p208
I68
sS'w+2=once'
p209
I891
sS'w+2=military'
p210
I867
sS'w+1=well'
p211
I703
sS'w-2=still'
p212
I1359
sS'w+2=client'
p213
I759
sS'nsubj=peacekeeper'
p214
I496
sS'w-1=poorly'
p215
I1113
sS'nsubj=family'
p216
I477
sS'conj=publish'
p217
I177
sS'w-2=strength'
p218
I1360
sS'advcl=move'
p219
I11
sS'w-1=Democrats'
p220
I1011
sS'dobj=basis'
p221
I221
sS'w+2=moderate'
p222
I871
sS'w+1=permanent'
p223
I660
sS'w+2=tariff'
p224
I956
sS'w-1=States'
p225
I1045
sS'ccomp=tribal'
p226
I134
sS'w-1=administration'
p227
I1053
sS'dobj=competitiveness'
p228
I237
sS'w+2=toward'
p229
I971
sS'w+2=flow'
p230
I805
sS'advmod=also'
p231
I18
sS'w+2=vigorous'
p232
I985
sS'w-1=Garth'
p233
I1015
sS'dobj=life'
p234
I298
sS'w-2=States'
p235
I1188
sS'w+2=poll'
p236
I912
sS'ccomp=uncooperative'
p237
I136
sS'w-2=have'
p238
I1268
sS'w+2=grass'
p239
I819
sS'dobj=headquarters'
p240
I277
sS'w+2=current'
p241
I772
sS'ccomp=tie'
p242
I132
sS'w-1=they'
p243
I1133
sS'w-1=people'
p244
I1111
sS'nsubj=structure'
p245
I506
sS'w+1=in'
p246
I627
sS'w+1=it'
p247
I631
sS'nsubj=#PRP#'
p248
I397
sS'w+1=about'
p249
I586
sS'dobj=principle'
p250
I327
sS'w+2=traditional'
p251
I974
sS'w-2=important'
p252
I1276
sS'dobj=#NUMBER#'
p253
I209
sS'w-1=court'
p254
I1067
sS'w+2=cut'
p255
I773
sS'ccomp=infect'
p256
I95
sS'conj=provide'
p257
I176
sS'w+2=uneasy'
p258
I976
sS'dobj=capability'
p259
I228
sS'dobj=popularity'
p260
I320
sS'dobj=calm'
p261
I227
sS'w+2=28,000'
p262
I713
sS'w+2=militant'
p263
I866
sS'w-1=month'
p264
I1096
sS'w-1=do'
p265
I1070
sS'nsubj=Dow'
p266
I413
sS'w+2=great'
p267
I820
sS'dobj=kilometer'
p268
I291
sS'w+1=close'
p269
I599
sS'conj=support'
p270
I190
sS'w-2=rotation'
p271
I1346
sS'w-2=-lrb-'
p272
I1148
sS'w-2=to'
p273
I1375
sS'w-2=and'
p274
I1203
sS'w-2=easy'
p275
I1247
sS'dobj=aircraft'
p276
I214
sS'w-2=he'
p277
I1269
sS'prep=since'
p278
I555
sS'w+2=raise'
p279
I923
sS'dobj=economy'
p280
I252
sS'w+2=would'
p281
I999
sS'w+2=he'
p282
I825
sS'w+1=what'
p283
I704
sS'nsubjpass=alliance'
p284
I514
sS'nsubjpass=calm'
p285
I516
sS'dobj=timetable'
p286
I369
sS'w-1=NIST'
p287
I1029
sS'w+2=blockade'
p288
I745
sS'aux=should'
p289
I61
sS'prep=although'
p290
I539
sS'w-2=presence'
p291
I1335
sS'w+2=government'
p292
I818
sS'w-1=Israel'
p293
I1021
sS'w-1=high'
p294
I1080
sS'nsubj=Belgrade'
p295
I402
sS'w-2=Jordan'
p296
I1169
sS'w+1=barrier'
p297
I594
sS'w-2=stability'
p298
I1356
sS'w+1=relation'
p299
I668
sS'w+2=household'
p300
I835
sS'ccomp=spontaneous'
p301
I127
sS'w-2=issue'
p302
I1289
sS'ccomp=trail'
p303
I133
sS'dobj=lifestyle'
p304
I299
sS'w+1=Ching'
p305
I577
sS'w-1=Department'
p306
I1012
sS'w-1=scientist'
p307
I1122
sS'w+2=stability'
p308
I945
sS'dobj=policy'
p309
I319
sS'w-2=ACP'
p310
I1152
sS'w-2=unit'
p311
I1383
sS'prep=against'
p312
I538
sS'w+1=Peru'
p313
I583
sS'dobj=foothold'
p314
I265
sS'w-2=you'
p315
I1404
sS'w-2=should'
p316
I1353
sS'w+1=support'
p317
I684
sS'advcl=go'
p318
I9
sS'w-2=America'
p319
I1153
sS'w+2=vigilance'
p320
I984
sS'w+1=new'
p321
I648
sS'w-2=can'
p322
I1218
sS'w+1=free-ranging'
p323
I616
sS'neg=not'
p324
I396
sS'w-2=dheere'
p325
I1241
sS'dobj=operation'
p326
I312
sS'w-2=Union'
p327
I1191
sS'w+2=life'
p328
I859
sS'w+1=Mr.'
p329
I582
sS'w-1=solely'
p330
I1126
sS'w+1=hundred'
p331
I626
sS'nsubj=Service'
p332
I453
sS'w+2=business'
p333
I748
sS'conj=deny'
p334
I155
sS'w-2=necessary'
p335
I1311
sS'w+1=power'
p336
I662
sS'dep=whether'
p337
I207
sS'w+1=kurdish'
p338
I633
sS'w+2=armed'
p339
I736
sS'w+1=they'
p340
I691
sS'nsubj=crew'
p341
I473
sS'ccomp=withdraw'
p342
I141
sS'w-2=we'
p343
I1393
sS'nsubj=Paulson'
p344
I444
sS'dobj=superiority'
p345
I361
sS'dobj=sort'
p346
I350
sS'dobj=much'
p347
I308
sS'w+1=consistent'
p348
I602
sS'w+2=Speaker'
p349
I720
sS'w-2=broker'
p350
I1213
sS'w-2=supplies'
p351
I1365
sS'dobj=pressure'
p352
I325
sS'ccomp=fire'
p353
I86
sS'nsubj=al-Qaida'
p354
I466
sS'w-1=Russians'
p355
I1040
sS'ccomp=return'
p356
I118
sS'prep=within'
p357
I563
sS'w+2=british'
p358
I747
sS'w+1=that'
p359
I687
sS'dobj=peace'
p360
I317
sS'dobj=cut'
p361
I243
sS'advmod=forever'
p362
I32
sS'w-1=Martic'
p363
I1026
sS'w+1=than'
p364
I686
sS'w+2=militia'
p365
I868
sS'w+2=levee'
p366
I856
sS'w+2=level'
p367
I857
sS'w+2=movement'
p368
I873
sS'w-1=gam'
p369
I1075
sS'w+2=peace'
p370
I904
sS'advcl=arrive'
p371
I1
sS'aux=may'
p372
I59
sS'nsubj=China'
p373
I409
sS'w+2=hopeful'
p374
I833
sS'w-2=the'
p375
I1372
sS'nsubj=leader'
p376
I485
sS'w-2=succeed'
p377
I1364
sS'xcomp=discriminate'
p378
I1409
sS'w-1=Khalil'
p379
I1022
sS'xcomp=inhibit'
p380
I1413
sS'mark=unless'
p381
I394
sS'w-2=many'
p382
I1298
sS'w+2=first'
p383
I804
sS'w+2=land'
p384
I851
sS'w+1=irrigation'
p385
I630
sS'conj=loyal'
p386
I170
sS'w+2=if'
p387
I838
sS'w+2=in'
p388
I839
sS'w-2=week'
p389
I1394
sS'w+2=withthe'
p390
I997
sS'w+2=it'
p391
I848
sS'ccomp=remain'
p392
I114
sS'prep=about'
p393
I535
sS'aux=can'
p394
I56
sS'w-2=Israel'
p395
I1167
sS'w-2=image'
p396
I1275
sS'w-1=government'
p397
I1076
sS'w+2=position'
p398
I915
sS'w-2=capacity'
p399
I1219
sS'w+2=population'
p400
I914
sS'dobj=diversity'
p401
I250
sS'dobj=military'
p402
I304
sS'ccomp=besiege'
p403
I76
sS'prep=to'
p404
I560
sS'dobj=program'
p405
I330
sS'w+2=viability'
p406
I983
sS'conj=make'
p407
I171
sS'w-1=still'
p408
I1128
sS'w+2=even'
p409
I793
sS'nsubj=Nairobi'
p410
I437
sS'w-2=electoral'
p411
I1249
sS'nsubj=Bakiyev'
p412
I401
sS'nsubj=NIST'
p413
I436
sS'w-2=sense'
p414
I1351
sS'w+2=for'
p415
I807
sS'dep=clear'
p416
I196
sS'w-1=firmly'
p417
I1072
sS'w+2=trade'
p418
I972
sS'nsubj=Corps'
p419
I410
sS'w-2=unable'
p420
I1382
sS'w-1=laboratory'
p421
I1084
sS'dobj=which'
p422
I383
sS'w+2=we'
p423
I988
sS'ccomp=prolong'
p424
I111
sS'dobj=clock'
p425
I232
sS'dobj=decline'
p426
I245
sS'w-2=seek'
p427
I1350
sS'w-2=every'
p428
I1252
sS'dobj=weapon'
p429
I381
sS'w+2=competitiveness'
p430
I764
sS'dobj=ceasefire'
p431
I230
sS'w-2=practice'
p432
I1333
sS'w-2=design'
p433
I1239
sS'w-2=cause'
p434
I1220
sS'nsubj=Britain'
p435
I404
sS'w-2=costly'
p436
I1232
sS'w+2=national'
p437
I876
sS'w+1=very'
p438
I699
sS'w-2=business'
p439
I1215
sS'ccomp=lead'
p440
I99
sS'w+2=site'
p441
I939
sS'w+2=through'
p442
I965
sS'w+2=progress'
p443
I921
sS'dobj=support'
p444
I363
sS'ccomp=rig'
p445
I120
sS'dobj=progress'
p446
I331
sS'dobj=funding'
p447
I270
sS'advmod=meanwhile'
p448
I40
sS'w+2=balance'
p449
I742
sS'w-1=paper'
p450
I1109
sS'w-2=possible'
p451
I1332
sS'dobj=presence'
p452
I324
sS'dobj=panel'
p453
I315
sS'w+2=gun'
p454
I822
sS'nsubj=Party'
p455
I443
sS'w+1=calm'
p456
I598
sS'w-2=take'
p457
I1368
sS'prep=over'
p458
I554
sS'nsubj=Russia'
p459
I450
sS'w-1=Government'
p460
I1016
sS'w+2=pressure'
p461
I918
sS'conj=experience'
p462
I159
sS'nsubjpass=that'
p463
I526
sS'w-2=whether'
p464
I1397
sS'w-2=able'
p465
I1197
sS'ccomp=be'
p466
I74
sS'w+2=expeditionary'
p467
I797
sS'w-2=intensive'
p468
I1285
sS'w-1=with'
p469
I1141
sS'w-2=continue'
p470
I1229
sS'dobj=tariff'
p471
I366
sS'w+2=own'
p472
I901
sS'w+2=tax'
p473
I957
sS'w+1=authority'
p474
I593
sS'w-2=she'
p475
I1352
sS'dobj=household'
p476
I279
sS'w-2=bar'
p477
I1209
sS'w+1=commercial'
p478
I601
sS'w-1=Korea'
p479
I1024
sS'w+2=throughout'
p480
I966
sS'w+2=state'
p481
I946
sS'w-1=long'
p482
I1086
sS'acomp=calm'
p483
I0
sS'w-1=commission'
p484
I1065
sS'w-1=Service'
p485
I1042
sS'nsubjpass=assistance'
p486
I515
sS'dobj=initiative'
p487
I286
sS'w-2=780'
p488
I1151
sS'w+1=strategic'
p489
I681
sS'conj=step'
p490
I187
sS'w+2=mission'
p491
I870
sS'w-2=over'
p492
I1320
sS'w+2=good'
p493
I816
sS'w+2=safety'
p494
I931
sS'ccomp=lack'
p495
I98
sS'nsubj=manager'
p496
I486
sS'w+1=operation'
p497
I654
sS'dep=capable'
p498
I195
sS'w+2=credible'
p499
I770
sS'w-2=resistance'
p500
I1341
sS'dobj=appearance'
p501
I216
sS'w-2=charge'
p502
I1221
sS'nsubj=unit'
p503
I509
sS'w+2=clean'
p504
I758
sS'xcomp=block'
p505
I1405
sS'w-2=keen'
p506
I1293
sS'nsubj=McMurtry'
p507
I432
sS'w-1=Wilsbacher'
p508
I1050
sS'w-2=White'
p509
I1194
sS'w-2=keep'
p510
I1294
sS'w+2=close'
p511
I760
sS'w-1=and'
p512
I1057
sS'w-2=struggle'
p513
I1362
sS'nsubj=staff'
p514
I505
sS'ccomp=sufficient'
p515
I128
sS'advmod=first'
p516
I31
sS'w-2=interest'
p517
I1286
sS'w+2=unique'
p518
I977
sS'dobj=gun'
p519
I276
sS'w+1=generally'
p520
I618
sS'ccomp=innocent'
p521
I96
sS'w+2=very'
p522
I981
sS'dobj=integrity'
p523
I288
sS'nsubj=Snow'
p524
I455
sS'w-1=Nairobi'
p525
I1030
sS'conj=play'
p526
I174
sS'w-2=build'
p527
I1214
sS'w+2=nothing'
p528
I884
sS'advmod=close'
p529
I23
sS'dobj=alliance'
p530
I215
sS'w-1=Sakhuja'
p531
I1041
sS'nsubj=Karimov'
p532
I424
sS'w+2=regular'
p533
I927
sS'w+1=peace'
p534
I659
sS'nsubj=Turkey'
p535
I458
sS'dobj=troops'
p536
I373
sS'advmod=there'
p537
I50
sS'w-2=Engineers'
p538
I1161
sS'w-1=always'
p539
I1055
sS'conj=complain'
p540
I153
sS'dobj=home'
p541
I278
sS'w+2=over'
p542
I900
sS'w-2=Dr.'
p543
I1160
sS'nsubj=States'
p544
I456
sS'dobj=relation'
p545
I337
sS'w+2=its'
p546
I849
sS'w-1=Paulson'
p547
I1034
sS'w-2=day'
p548
I1236
sS'conj=address'
p549
I147
sS'w-2=vital'
p550
I1387
sS'w+2=fuel'
p551
I812
sS'ccomp=try'
p552
I135
sS'w+2=foothold'
p553
I806
sS'w+1=adequate'
p554
I588
sS'nsubj=al-shabab'
p555
I467
sS'advcl=aware'
p556
I2
sS'conj=engage'
p557
I157
sS'conj=use'
p558
I193
sS'nsubj=North'
p559
I438
sS'dobj=contact'
p560
I239
sS'dobj=character'
p561
I231
sS'partmod=answer'
p562
I531
sS'w-2=western'
p563
I1395
sS'nsubj=Garth'
p564
I415
sS'dobj=deterrent'
p565
I248
sS'nsubj=Martic'
p566
I431
sS'nsubj=Egypt'
p567
I414
sS'w-1=manager'
p568
I1089
sS'nsubj=Democrats'
p569
I411
sS'w-2=Lugovoi'
p570
I1175
sS'w-1=Vietnam'
p571
I1049
sS'w+1=regional'
p572
I667
sS'nsubj=mdc'
p573
I488
sS'dobj=field'
p574
I262
sS'dobj=fan'
p575
I261
sS'w-2=peace'
p576
I1326
sS'w+2=strong'
p577
I952
sS'parataxis=pray'
p578
I530
sS'w-2=sure'
p579
I1366
sS'cc=but'
p580
I67
sS'w+2=lead'
p581
I854
sS'advcl=finish'
p582
I8
sS'w-1=help'
p583
I1079
sS'rel=on'
p584
I565
sS'nsubj=nation'
p585
I490
sS'dobj=state'
p586
I356
sS'w-1=Pemex'
p587
I1035
sS'w+2=open-ended'
p588
I895
sS'w-2=Gonzalez'
p589
I1162
sS'nsubj=Musharaff'
p590
I435
sS'w+2=Conte'
p591
I715
sS'dobj=face'
p592
I259
sS'dobj=business'
p593
I226
sS'w+2=set'
p594
I937
sS'w+2=holy'
p595
I831
sS'w-2=structure'
p596
I1361
sS'nsubj=which'
p597
I510
sS'dobj=influence'
p598
I284
sS'dobj=leverage'
p599
I297
sS'w+1=throughout'
p600
I694
sS'w+1=force'
p601
I615
sS'w+1=warm'
p602
I701
sS'w-2=hard'
p603
I1267
sS'w-2=Sleiman'
p604
I1186
sS'w-1=who'
p605
I1139
sS'w+1=life-saving'
p606
I636
sS'w-2=vote'
p607
I1388
sS'prep=across'
p608
I536
sS'w-2=try'
p609
I1381
sS'dobj=embargo'
p610
I253
sS'ccomp=responsibility'
p611
I117
sS'dobj=level'
p612
I296
sS'dobj=levee'
p613
I295
sS'w+1=momentum'
p614
I642
sS'ccomp=detect'
p615
I83
sS'w-2=farmer'
p616
I1258
sS'w-2=.'
p617
I1149
sS'nsubj=lawyer'
p618
I484
sS"w-2='"
p619
I1144
sS'dobj=number'
p620
I310
sS'aux=have'
p621
I58
sS'w+2=web'
p622
I990
sS'conj=serve'
p623
I183
sS'w+2=carefully'
p624
I753
sS'dobj=balance'
p625
I219
sS'w-2=I'
p626
I1164
sS'w+2=United'
p627
I722
sS'w+1=Japan'
p628
I580
sS'w-2=how'
p629
I1272
sS'w-2=face'
p630
I1255
sS'w+2=control'
p631
I767
sS'w+2=1987'
p632
I711
sS'xcomp=counter'
p633
I1407
sS'w+2=policy'
p634
I910
sS'w-2=Communist'
p635
I1159
sS'dobj=trade'
p636
I371
sS'w-2=a'
p637
I1195
sS'w-2=job'
p638
I1291
sS'w+2=program'
p639
I920
sS'w-1=he'
p640
I1078
sS'w+1=many'
p641
I640
sS'dobj=embassy'
p642
I254
sS'w-2=member'
p643
I1301
sS'w-2=society'
p644
I1355
sS'dobj=exemption'
p645
I257
sS'dobj=commitment'
p646
I236
sS'w+1=enough'
p647
I611
sS'w-2=Park'
p648
I1181
sS'w+2=enrichment'
p649
I791
sS'w+1=Lansana'
p650
I581
sS'w+2=detention'
p651
I780
sS'w+2=healthy'
p652
I827
sS'conj=release'
p653
I181
sS'w+2=U.S.'
p654
I721
sS'prep=from'
p655
I550
sS'prep=down'
p656
I546
sS'w+1=constant'
p657
I603
sS'w+2=charge'
p658
I757
sS'w-2=security'
p659
I1349
sS'w+1=390'
p660
I572
sS'w+2=Mr.'
p661
I717
sS'w-1=church'
p662
I1064
sS'w+1=,'
p663
I568
sS'w+1=.'
p664
I570
sS'advmod=currently'
p665
I25
sS'w+2=home'
p666
I832
sS'w+2=western'
p667
I992
sS'w-2=al-shabab'
p668
I1200
sS'w+2=operate'
p669
I896
sS'w+2=optimistic'
p670
I898
sS'w+2=support'
p671
I954
sS'w+1=a'
p672
I585
sS'w+2=demand'
p673
I778
sS'w+2=force'
p674
I808
sS'w+1=exist'
p675
I612
sS'w-1=that'
p676
I1131
sS'w-2=georgian'
p677
I1261
sS'w+2=minimum'
p678
I869
sS'w-2=reflect'
p679
I1339
sS'dobj=law'
p680
I293
sS'dobj=border'
p681
I224
sS'dobj=steerage'
p682
I358
sS'preconj=both'
p683
I534
sS'w-1=rigorously'
p684
I1120
sS'w-2=militarily'
p685
I1302
sS'w-2=placebo'
p686
I1327
sS'w-2=administration'
p687
I1198
sS'advmod=consistently'
p688
I24
sS'w+2=among'
p689
I728
sS'advmod=generally'
p690
I33
sS'nsubj=Kollek'
p691
I426
sS'w-2=cooking'
p692
I1230
sS'nsubj=Bulletin'
p693
I405
sS'w+2=gain'
p694
I814
sS'nsubj=Azzam'
p695
I400
sS'w+1=contact'
p696
I604
sS'w-1=would'
p697
I1142
sS'w-1=can'
p698
I1062
sS'nsubj=official'
p699
I491
sS'w-1=team'
p700
I1129
sS'w-2=bilingual'
p701
I1211
sS'w+1=these'
p702
I690
sS'w+1=only'
p703
I653
sS'w+2=occupation'
p704
I887
sS'w-2=intend'
p705
I1284
sS'w-2=Justice'
p706
I1170
sS'w-1=mean'
p707
I1092
sS'w-2=task'
p708
I1369
sS'w+2=none'
p709
I883
sS'w-2=appropriate'
p710
I1205
sS'w+2=high'
p711
I828
sS'dobj=order'
p712
I313
sS'w+2=one-party'
p713
I892
sS'conj=kidnap'
p714
I169
sS'advmod=poorly'
p715
I43
sS'dobj=partnership'
p716
I316
sS'dobj=cease-fire'
p717
I229
sS'w+2=identification'
p718
I837
sS'w+2=funding'
p719
I813
sS'w-2=Viktor'
p720
I1193
sS'dobj=course'
p721
I241
sS'ccomp=linkage'
p722
I101
sS'w+2=patient'
p723
I903
sS'w-1=Dow'
p724
I1013
sS'conj=need'
p725
I172
sS'w+2=collection'
p726
I762
sS'w+1=onboard'
p727
I651
sS'complm=that'
p728
I143
sS'nsubj=scientist'
p729
I502
sS'w+2=legal'
p730
I855
sS'w+1=low'
p731
I639
sS'w+2=will'
p732
I994
sS'dep=while'
p733
I208
sS'dep=order'
p734
I203
sS'w+2=President'
p735
I718
sS'w-2=operate'
p736
I1317
sS'w-1=Snow'
p737
I1043
sS'advcl=condition'
p738
I3
sS'w+2=long'
p739
I861
sS'xcomp=do'
p740
I1410
sS'w+2=dialogue'
p741
I781
sS'w-1=militia'
p742
I1095
sS'nsubj=Israel'
p743
I422
sS'w+1=those'
p744
I693
sS'dobj=record'
p745
I335
sS'conj=reduce'
p746
I179
sS'prep=in'
p747
I551
sS'w+2=appearance'
p748
I733
sS'w-1=about'
p749
I1052
sS'advmod=yet'
p750
I54
sS'dobj=gain'
p751
I271
sS'w+2=until'
p752
I979
sS'dobj=threat'
p753
I367
sS'w+2=political'
p754
I911
sS'w-2=growth'
p755
I1266
sS'w+2=naval'
p756
I877
sS'nsubj=all'
p757
I468
sS'w+2=water'
p758
I987
sS'w+1=other'
p759
I657
sS'w-1=Musharaff'
p760
I1028
sS'w-1=it'
p761
I1083
sS'w-2=government'
p762
I1263
sS'nsubj=Authorities'
p763
I399
sS'w+2=sanction'
p764
I933
sS'w-1=peacekeeper'
p765
I1110
sS'advmod=until'
p766
I51
sS'w-1=in'
p767
I1082
sS'w+2=species'
p768
I944
sS'ccomp=work'
p769
I142
sS'mark=if'
p770
I390
sS'dobj=role'
p771
I339
sS'mark=in'
p772
I391
sS'dobj=suppress'
p773
I364
sS'w+2=low'
p774
I862
sS'w-1=Party'
p775
I1033
sS'ccomp=Mubarak'
p776
I70
sS'w-2=instrumental'
p777
I1282
sS'dobj=village'
p778
I380
sS'nsubjpass=supplies'
p779
I525
sS'ccomp=imply'
p780
I94
sS'w+2=higher'
p781
I830
sS'ccomp=move'
p782
I105
sS'w+2=job'
p783
I850
sS'dobj=supply'
p784
I362
sS'w-2=nato-led'
p785
I1310
sS'dobj=power'
p786
I323
sS'nsubj=who'
p787
I511
sS'w+1=muscle'
p788
I644
sS'w+2=region'
p789
I926
sS'w-2=country'
p790
I1233
sS'w-2=deploy'
p791
I1238
sS'nsubj=party'
p792
I495
sS'nsubjpass=site'
p793
I522
sS'nsubj=Jordan'
p794
I423
sS'w-2=ability'
p795
I1196
sS'ccomp=verify'
p796
I139
sS'advmod=however'
p797
I36
sS'advmod=back'
p798
I20
sS'w+2=earth'
p799
I786
sS'dobj=momentum'
p800
I307
sS'w-2=Belgrade'
p801
I1154
sS'dobj=vigilance'
p802
I378
sS'nsubj=House'
p803
I418
sS'w-2=army'
p804
I1206
sS'w-1=currently'
p805
I1068
sS'w+1=Israel'
p806
I579
sS'w+2=so'
p807
I940
sS'w-2=staff'
p808
I1357
sS'w+2=experience'
p809
I798
sS'dobj=independence'
p810
I283
sS'dobj=stance'
p811
I354
sS'w-2=official'
p812
I1316
sS'csubj=nyong'
p813
I194
sS'w-1=say'
p814
I1121
sS'dobj=militia'
p815
I305
sS'w-2=JBS'
p816
I1168
sS'w+1=we'
p817
I702
sS'w-2=attract'
p818
I1208
sS'w-1=Landis'
p819
I1025
sS'w+2=Dr.'
p820
I716
sS'w-2=eager'
p821
I1245
sS'auxpass=be'
p822
I65
sS'w-1=longer'
p823
I1087
sS'w+2=after'
p824
I726
sS'w-2=last'
p825
I1296
sS'advmod=merely'
p826
I41
sS'advmod=still'
p827
I47
sS'w+2=neighborly'
p828
I879
sS'w-2=Cairo'
p829
I1156
sS'w+1=there'
p830
I689
sS'w-2=must'
p831
I1309
sS'w+2=pkk'
p832
I909
sS'dobj=lead'
p833
I294
sS'w-1=Authorities'
p834
I1005
sS'w+2=strategy'
p835
I948
sS'w+1=its'
p836
I632
sS'ccomp=pose'
p837
I110
sS'w+2=extremist'
p838
I799
sS'ccomp=agree'
p839
I72
sS'w-1=House'
p840
I1017
sS'w+1=quality'
p841
I665
sS"w-1=''"
p842
I1001
sS'w-2=Nelson'
p843
I1177
sS'nsubj=fan'
p844
I478
sS'dobj=barrier'
p845
I220
sS'dobj=outlook'
p846
I314
sS'w+2=ceasefire'
p847
I755
sS'w-1=no'
p848
I1099
sS'w+2=island'
p849
I847
sS"w-2=''"
p850
I1145
sS'advmod=reportedly'
p851
I44
sS'w-1=Remme'
p852
I1038
sS'dobj=government'
p853
I273
sS'w-2=Odinga'
p854
I1179
sS'w+2=make'
p855
I864
sS'w-1=though'
p856
I1134
sS'conj=have'
p857
I163
sS'dobj=constitution'
p858
I238
sS'dobj=identity'
p859
I281
sS'dobj=engagement'
p860
I256
sS'conj=identify'
p861
I165
sS'w-2=critical'
p862
I1234
sS'dobj=friendship'
p863
I268
sS'ccomp=settle'
p864
I125
sS'w+2=american'
p865
I727
sS'w+1=gain'
p866
I617
sS'nsubj=Pemex'
p867
I445
sS"w-2='s"
p868
I1146
sS'dobj=will'
p869
I384
sS'nsubj=Sleiman'
p870
I454
sS'ccomp=peaceful'
p871
I109
sS'ccomp=legal'
p872
I100
sS'w-1=by'
p873
I1061
sS'w-2=no'
p874
I1313
sS'w+1=international'
p875
I629
sS'dobj=seat'
p876
I342
sS'ccomp=bring'
p877
I78
sS'w-1=Nigeria'
p878
I1031
sS'mark=though'
p879
I393
sS'w+2=send'
p880
I936
sS'w-2=embryo'
p881
I1250
sS'conj=speak'
p882
I186
sS'ccomp=respond'
p883
I116
sS'w-1=official'
p884
I1104
sS'w-2=legal'
p885
I1297
sS'w+2=domestic'
p886
I785
sS'ccomp=involve'
p887
I97
sS'prep=throughout'
p888
I559
sS'dobj=job'
p889
I290
sS'dobj=ground'
p890
I275
sS'w-1=opposition'
p891
I1106
sS'xcomp=protect'
p892
I1414
sS'w-2=interested'
p893
I1287
sS'nsubj=Wilsbacher'
p894
I463
sS'aux=will'
p895
I63
sS'w+2=interest'
p896
I846
sS'conj=increase'
p897
I167
sS'w+2=culture'
p898
I771
sS'ccomp=remove'
p899
I115
sS'prep=with'
p900
I562
sS'w+1=sobriety'
p901
I677
sS'nsubj=agency'
p902
I465
sS'dobj=force'
p903
I266
sS'nsubj=Pyongyang'
p904
I447
sS'w+2=peacekeep'
p905
I905
sS'w-1=Milosevic'
p906
I1027
sS'parataxis=open'
p907
I529
sS'w-1=reportedly'
p908
I1118
sS'w+2=tight'
p909
I968
sS'w+1=America'
p910
I575
sS'w+2=consistent'
p911
I765
sS'w+2=mainly-civilian'
p912
I863
sS'dobj=viability'
p913
I377
sS'conj=design'
p914
I156
sS'w-2=pragmatic'
p915
I1334
sS'w+1=sanction'
p916
I671
sS'w+1=global'
p917
I619
sS'w+2=showcase'
p918
I938
sS'advcl=postpone'
p919
I13
sS'cc=and'
p920
I66
sS'w-2=40'
p921
I1150
sS'w+1=by'
p922
I597
sS'w+1=be'
p923
I596
sS'w+1=financial'
p924
I613
sS'w-2=team'
p925
I1370
sS'w-2=war'
p926
I1391
sS'nsubj=Cairo'
p927
I407
sS'advmod=solely'
p928
I46
sS'conj=say'
p929
I182
sS'tmod=year'
p930
I567
sS'nsubj=republican'
p931
I501
sS'w+2=family'
p932
I801
sS'w-2=promise'
p933
I1336
sS'w-1=Kollek'
p934
I1023
sS'w-2=role'
p935
I1345
sS'w+1=voter'
p936
I700
sS'w-1=merely'
p937
I1093
sS'w-2=party'
p938
I1325
sS'w-2=expensive'
p939
I1254
sS'w-2=President'
p940
I1184
sS'w+1=-rrb-'
p941
I569
sS'w-1=Yanukovych'
p942
I1051
sS'conj=blunt'
p943
I151
sS'w+1=law'
p944
I635
sS'advmod=either'
p945
I26
sS'ccomp=unlikely'
p946
I137
sS'w+2=time'
p947
I969
sS'w+2=so-called'
p948
I941
sS'nsubj=defender'
p949
I475
sS'w-1=have'
p950
I1077
sS'prep=on'
p951
I553
sS'dobj=strength'
p952
I360
sS'w+2=system'
p953
I955
sS'w-1=carefully'
p954
I1063
sS'dobj=security'
p955
I344
sS'w-2=closely'
p956
I1223
sS'w+2=evidence'
p957
I794
sS'w+2=than'
p958
I958
sS'w+2=same'
p959
I932
sS'w+2=that'
p960
I959
sS'dobj=species'
p961
I351
sS'w-1=or'
p962
I1107
sS'nsubj=administration'
p963
I464
sS'nsubj=Swift'
p964
I457
sS'w-2=system'
p965
I1367
sS'advcl=say'
p966
I15
sS'w-1=of'
p967
I1103
sS'nsubj=police'
p968
I498
sS'w-2=more'
p969
I1307
sS'w-2=pledge'
p970
I1328
sS'w-1=on'
p971
I1105
sS'w+2=field'
p972
I803
sS'w+1=this'
p973
I692
sS'xcomp=host'
p974
I1412
sS'conj=able'
p975
I145
sS'advmod=now'
p976
I42
sS'w-2=will'
p977
I1401
sS'w+2=controversial'
p978
I768
sS'dobj=sanction'
p979
I340
sS'w-2=anxious'
p980
I1204
sS'dobj=rate'
p981
I334
sS'w-2=iranian'
p982
I1288
sS'w-1=household'
p983
I1081
sS'partmod=say'
p984
I533
sS'w-2=not'
p985
I1314
sS'w-2=now'
p986
I1315
sS'w-2=while'
p987
I1399
sS'dobj=infrastructure'
p988
I285
sS'w-2=train'
p989
I1377
sS'w-1=also'
p990
I1054
sS'nsubj=side'
p991
I503
sS'w+2=presence'
p992
I917
sS'w+2=large'
p993
I852
sS'w+1=steerage'
p994
I680
sS'w-2=may'
p995
I1299
sS'w+2=influence'
p996
I841
sS'dobj=site'
p997
I347
sS'w-2=sign'
p998
I1354
sS'dobj=sobriety'
p999
I349
sS'w+2=tradition'
p1000
I973
sS'w-1=either'
p1001
I1071
sS'nsubj=Khalil'
p1002
I425
sS'dobj=link'
p1003
I301
sS'dobj=line'
p1004
I300
sS'w-2=Bush'
p1005
I1155
sS'w+2=assure'
p1006
I739
sS'w-2=include'
p1007
I1278
sS'w+2=there'
p1008
I961
sS'ccomp=motivate'
p1009
I104
sS'nsubj=economy'
p1010
I476
sS'w+2=strength'
p1011
I949
sS'w+1=near-total'
p1012
I646
sS'nsubj=Department'
p1013
I412
sS'complm=whether'
p1014
I144
sS'w+2=far'
p1015
I802
sS'nsubj=Lugovoi'
p1016
I430
sS'w-1=must'
p1017
I1097
sS'w+2=have'
p1018
I824
sS'w+2=relation'
p1019
I928
sS'dobj=stand'
p1020
I355
sS'w-2=sub-region'
p1021
I1363
sS'w+2=philosophical'
p1022
I908
sS'w+2=within'
p1023
I996
sS'w+2=weight'
p1024
I991
sS'nsubj=paper'
p1025
I494
sS'aux=to'
p1026
I62
sS'nsubj=Bhutto'
p1027
I403
sS'w+1=tight'
p1028
I696
sS'w+2=hostile'
p1029
I834
sS'w+2=energy'
p1030
I790
sS'w-1=for'
p1031
I1073
sS'dobj=relationship'
p1032
I338
sS'w-2=region'
p1033
I1340
sS'w-2=way'
p1034
I1392
sS'w-1=lawyer'
p1035
I1085
sS'conj=push'
p1036
I178
sS'w+1=aircraft'
p1037
I589
sS'w-2=,'
p1038
I1147
sS'prep=during'
p1039
I547
sS'w+1=routine'
p1040
I670
sS'w+1=cohesion'
p1041
I600
sS'w-2=dollar'
p1042
I1244
sS'ccomp=hurt'
p1043
I93
sS'w+1=higher'
p1044
I625
sS'dobj=status'
p1045
I357
sS'w-1=now'
p1046
I1101
sS'w-1=not'
p1047
I1100
sS'w-2=difficult'
p1048
I1242
sS'w-2=force'
p1049
I1260
sS'aux=be'
p1050
I55
sS'w-1=there'
p1051
I1132
sS'w+2=precarious'
p1052
I916
sS'w+2=timetable'
p1053
I970
sS'w+2=headquarters'
p1054
I826
sS'w+2=operation'
p1055
I897
sS'nsubj=Government'
p1056
I417
sS'w+2=Sarkozy'
p1057
I719
sS'ccomp=call'
p1058
I79
sS'prep=after'
p1059
I537
sS'w+1=positive'
p1060
I661
sS'w-1=U.N.'
p1061
I1048
sS'w+2=number'
p1062
I886
sS'advmod=well'
p1063
I52
sS'prep=that'
p1064
I557
sS'w+1=diplomatic'
p1065
I607
sS'w-2=just'
p1066
I1292
sS'w-1=Republicans'
p1067
I1039
sS'w-2=faction'
p1068
I1256
sS'w-2=they'
p1069
I1373
sS'prep=than'
p1070
I556
sS'advcl=elect'
p1071
I5
sS'prep=by'
p1072
I543
sS'w-2=Colonel'
p1073
I1158
sS'w+2=larger'
p1074
I853
sS'conj=build'
p1075
I152
sS'dobj=spirit'
p1076
I352
sS'nsubj=government'
p1077
I482
sS'w-2=institute'
p1078
I1281
sS'w+2=change'
p1079
I756
sS'w+2=forest'
p1080
I809
sS'w-2=North'
p1081
I1178
sS'w+2=across'
p1082
I725
sS'w-2=vow'
p1083
I1389
sS'w-2=kick'
p1084
I1295
sS'prep=follow'
p1085
I548
sS'w+1=for'
p1086
I614
sS'nsubj=UK'
p1087
I461
sS'ccomp=frame'
p1088
I88
sS'w+2=bilateral'
p1089
I744
sS'nsubjpass=quo'
p1090
I521
sS'conj=stop'
p1091
I188
sS'w-1=mdc'
p1092
I1091
sS'w-1=be'
p1093
I1059
sS'w+1=liquidity'
p1094
I638
sS'w+2=argument'
p1095
I735
sS'prep=behind'
p1096
I542
sS'w-1=Bush'
p1097
I1010
sS'dep=extend'
p1098
I199
sS'mark=because'
p1099
I388
sS'dobj=price'
p1100
I326
sS'ccomp=meet'
p1101
I102
sS'w-2=decision'
p1102
I1237
sS'nsubj=Milosevic'
p1103
I434
sS'w-2=Canada'
p1104
I1157
sS'nsubj=Iraqis'
p1105
I421
sS'w+2=must'
p1106
I874
sS'w+2=high-tech'
p1107
I829
sS'advcl=fill'
p1108
I7
sS'w-2=Lebanon'
p1109
I1174
sS'xcomp=see'
p1110
I1416
sS'w+1=nuclear'
p1111
I650
sS'w+2=exemption'
p1112
I795
sS'conj=keep'
p1113
I168
sS'ccomp=aim'
p1114
I73
sS'dobj=innocence'
p1115
I287
sS'nsubjpass=peace'
p1116
I520
sS'conj=avoid'
p1117
I149
sS'w+2=1,600-man'
p1118
I710
sS'w+2=by'
p1119
I749
sS'w-1=pkk'
p1120
I1112
sS'nsubj=amount'
p1121
I469
sS'w+2=be'
p1122
I743
sS'conj=prove'
p1123
I175
sS'w-2=group'
p1124
I1265
sS'nsubj=pkk'
p1125
I497
sS'dobj=break'
p1126
I225
sS'dobj=argument'
p1127
I217
sS'nsubjpass=#PRP#'
p1128
I512
sS'dobj=ability'
p1129
I212
sS'aux=would'
p1130
I64
sS'advmod=the'
p1131
I49
sS'w-1=Egypt'
p1132
I1014
sS'w-2=Korea'
p1133
I1173
sS'w+2=relationship'
p1134
I929
sS'w+1=and'
p1135
I591
sS'w+1=secularism'
p1136
I672
sS'dobj=track'
p1137
I370
sS'dep=month'
p1138
I202
sS'w+1=any'
p1139
I592
sS'w+2=these'
p1140
I962
sS'w+2=capability'
p1141
I751
sS'w+2=neutral'
p1142
I881
sS'dobj=vigorous'
p1143
I379
sS'w-1=Turkey'
p1144
I1047
sS'w+1=high'
p1145
I624
sS'w+2=bomb'
p1146
I746
sS'w-2=intelligence'
p1147
I1283
sS'w+1=order'
p1148
I656
sS'w+2=diversity'
p1149
I783
sS'nsubj=Pakistan'
p1150
I442
sS'w+2=database'
p1151
I774
sS'w-2=which'
p1152
I1398
sS'w+1=have'
p1153
I622
sS'ccomp=sack'
p1154
I121
sS'w-2=use'
p1155
I1385
sS'dobj=goodwill'
p1156
I272
sS'w+2=2006'
p1157
I712
sS'w+2=vital'
p1158
I986
sS'w+2=old'
p1159
I889
sS'advmod=even'
p1160
I28
sS'w-2=trust'
p1161
I1380
sS'dobj=quality'
p1162
I332
sS'w+2=veto'
p1163
I982
sS'nsubj=Vietnam'
p1164
I462
sS'conj=accuse'
p1165
I146
sS'w+2=growth'
p1166
I821
sS'dobj=facility'
p1167
I260
sS'w+2=independence'
p1168
I840
sS'w+1=great'
p1169
I621
sS'ccomp=breach'
p1170
I77
sS'ccomp=give'
p1171
I90
sS'dobj=skill'
p1172
I348
sS'w+2=open'
p1173
I894
sS'w-2=military'
p1174
I1303
sS'w+2=momentum'
p1175
I872
sS'dobj=many'
p1176
I303
sS'w+2=reduce'
p1177
I925
sS'w-2=package'
p1178
I1321
sS'tmod=today'
p1179
I566
sS'w-2=aim'
p1180
I1199
sS'prep=for'
p1181
I549
sS'dep=that'
p1182
I206
sS'nsubj=force'
p1183
I480
sS'w-2=ground'
p1184
I1264
sS'nsubj=Bush'
p1185
I406
sS'w+2=at'
p1186
I740
sS'w+2=hasidic'
p1187
I823
sS'w+2=as'
p1188
I737
sS'w-2=U.S.'
p1189
I1189
sS'w+1=would'
p1190
I705
sS'w-2=victory'
p1191
I1386
sS'w-1=consistently'
p1192
I1066
sS'dobj=blockade'
p1193
I222
sS'w+2=democratically-elected'
p1194
I779
sS'advmod=long'
p1195
I37
sS'advmod=always'
p1196
I19
sS'w+2=innocence'
p1197
I843
sS'w+2=seat'
p1198
I934
sS'conj=improve'
p1199
I166
sS'w+2=peacekeeping'
p1200
I906
sS'w+2=unite'
p1201
I978
sS'ccomp=fuel'
p1202
I89
sS'w+2=really'
p1203
I924
sS'w-1=Bhutto'
p1204
I1008
sS'advmod=carefully'
p1205
I21
sS'w+2=with'
p1206
I995
sS'w+1=much'
p1207
I643
sS'w-1=Bakiyev'
p1208
I1007
sS'ccomp=drop'
p1209
I84
sS'w-1=Azzam'
p1210
I1006
sS'w+2=role'
p1211
I930
sS'advcl=short'
p1212
I16
sS'ccomp=use'
p1213
I138
sS'conj=showcase'
p1214
I185
sS'w-1=Pakistan'
p1215
I1032
sS'w-2=month'
p1216
I1306
sS'w+2=discredit'
p1217
I782
sS'nsubjpass=stability'
p1218
I524
sS'w+2=coalition'
p1219
I761
sS'w+2=of'
p1220
I888
sS'w+2=on'
p1221
I890
sS'conj=believe'
p1222
I150
sS'w+1=Australia'
p1223
I576
sS'advmod=firmly'
p1224
I30
sS'nsubjpass=trend'
p1225
I527
sS'w+2=facility'
p1226
I800
sS'w+1=so'
p1227
I676
sS'prep=into'
p1228
I552
sS'w-2=UK'
p1229
I1190
sS'ccomp=change'
p1230
I81
sS'w-1=while'
p1231
I1138
sS'prep=without'
p1232
I564
sS'w+1=28,000'
p1233
I571
sS'w-1=report'
p1234
I1117
sS'dobj=profile'
p1235
I329
sS'dobj=production'
p1236
I328
sS'w-1=she'
p1237
I1123
sS'conj=not'
p1238
I173
sS'w-2=mean'
p1239
I1300
sS'w+2=from'
p1240
I811
sS'nsubj=Remme'
p1241
I448
sS'nsubj=gam'
p1242
I481
sS'w-2=troops'
p1243
I1379
sS'w+2=may'
p1244
I865
sS'w-2=emphasis'
p1245
I1251
sS'w-2=fail'
p1246
I1257
sS'w-2=partner'
p1247
I1324
sS'w+1=negotiation'
p1248
I647
sS'ccomp=need'
p1249
I106
sS'dobj=identification'
p1250
I280
sS'w+1=over'
p1251
I658
sS"conj=d'affaire"
p1252
I154
sS'nsubjpass=law'
p1253
I518
sS'w+2=supply'
p1254
I953
sS'ccomp=support'
p1255
I129
sS'dep=separate'
p1256
I204
sS'dobj=tie'
p1257
I368
sS'w-2=Iraq'
p1258
I1165
sS'conj=fuel'
p1259
I162
sS'dobj=bloodline'
p1260
I223
sS'aux=do'
p1261
I57
sS'w-2=if'
p1262
I1274
sS'w+1=dump'
p1263
I608
sS'w-2=right'
p1264
I1344
sS'dobj=population'
p1265
I321
sS'w+1=Tehran'
p1266
I584
sS'w-2=in'
p1267
I1277
sS'w+1=link'
p1268
I637
sS'ccomp=flow'
p1269
I87
sS'w-2=though'
p1270
I1374
sS'advmod=longer'
p1271
I38
sS'w+2=tie'
p1272
I967
sS'ccomp=serious'
p1273
I124
sS'w+2=asset'
p1274
I738
sS'w-2=it'
p1275
I1290
sS'w+1=one'
p1276
I652
sS'w-2=determine'
p1277
I1240
sS'w+2=professional'
p1278
I919
sS"w+2=''"
p1279
I706
sS'nsubj=country'
p1280
I472
sS'w+2=do'
p1281
I784
sS'w+2=strict'
p1282
I951
sS'dobj=extremist'
p1283
I258
sS'dobj=strategy'
p1284
I359
sS'nsubj=Landis'
p1285
I428
sS'w-2=participate'
p1286
I1323
sS'w+2=threat'
p1287
I964
sS'w+2=need'
p1288
I878
sS'w+2=exercise'
p1289
I796
sS'w+1=de-facto'
p1290
I606
sS'w+1=tariff'
p1291
I685
sS'prep=under'
p1292
I561
sS'nsubj=Pfizer'
p1293
I446
sS'nsubj=infant'
p1294
I483
sS'w-2=Ms.'
p1295
I1176
sS'w-1=but'
p1296
I1060
sS"w+2='s"
p1297
I707
sS'conj=hold'
p1298
I164
sS'w-2=however'
p1299
I1273
sS'w+2=panel'
p1300
I902
sS'ccomp=adventurer'
p1301
I71
sS'w+2=leverage'
p1302
I858
sS'advcl=kill'
p1303
I10
sS'w-2=responsibility'
p1304
I1342
sS'nsubj=coalition'
p1305
I470
sS'w+1=mental'
p1306
I641
sS'w-1=defender'
p1307
I1069
sS'dobj=image'
p1308
I282
sS'dobj=dialogue'
p1309
I249
sS'w+1=troops'
p1310
I697
sS'mark=before'
p1311
I389
sS'w-2=money'
p1312
I1305
sS'aux=must'
p1313
I60
sS'dobj=database'
p1314
I244
sS'nsubj=Omar'
p1315
I441
sS'nsubj=market'
p1316
I487
sS'w-2=be'
p1317
I1210
sS'w+2=global'
p1318
I815
sS'nsubj=Odinga'
p1319
I440
sS'w+2=embassy'
p1320
I789
sS'w+2=uranium'
p1321
I980
sS'dobj=schedule'
p1322
I341
sS'parataxis=launch'
p1323
I528
sS'w-2=goods'
p1324
I1262
sS'ccomp=begin'
p1325
I75
sS'w+1=all'
p1326
I590
sS'dobj=system'
p1327
I365
sS'w+2=conventional'
p1328
I769
sS'dobj=emission'
p1329
I255
sS'w+2=goodwill'
p1330
I817
sS'w-2=economy'
p1331
I1248
sS'w+1=some'
p1332
I678
sS'w-2=want'
p1333
I1390
sS'w+2=any'
p1334
I731
sS'nsubj=Iraq'
p1335
I420
sS'w+1=large'
p1336
I634
sS'w+2=inside'
p1337
I844
sS'w-2=coalition'
p1338
I1225
sS'w+2=effective'
p1339
I787
sS'conj=set'
p1340
I184
sS'w+1=rigid'
p1341
I669
sS'w+2=and'
p1342
I729
sS'w-2=stick'
p1343
I1358
sS'w+2=only'
p1344
I893
sS'ccomp=take'
p1345
I130
sS'w-1=recommend'
p1346
I1116
sS'ccomp=terminate'
p1347
I131
sS'w-2=scientist'
p1348
I1348
sS'w-1=military'
p1349
I1094
sS'nsubj=America'
p1350
I398
sS'w-2=easier'
p1351
I1246
sS'w-2=say'
p1352
I1347
sS'ccomp=#NUMBER#'
p1353
I69
sS'w+2=the'
p1354
I960
sS'prep=at'
p1355
I541
sS'w-1=probably'
p1356
I1115
sS'prep=as'
p1357
I540
sS'w-1=:'
p1358
I1004
sS'w-2=Omar'
p1359
I1180
sS'w-2=but'
p1360
I1216
sS'w-1=.'
p1361
I1003
sS'w+1=unity'
p1362
I698
sS'w-1=,'
p1363
I1002
sS'dobj=share'
p1364
I345
sS'w-1=amount'
p1365
I1056
sS'dobj=regime'
p1366
I336
sS'prep=through'
p1367
I558
sS'w+1=security'
p1368
I673
sS'w-1=I'
p1369
I1018
sS'ccomp=win'
p1370
I140
sS'dobj=forest'
p1371
I267
sS'w-1=o'
p1372
I1102
sS'w+2=work'
p1373
I998
sS'mark=as'
p1374
I387
sS'w+2=security'
p1375
I935
sS'w-2=congress'
p1376
I1228
sS'dobj=land'
p1377
I292
sS'w+1=economic'
p1378
I609
sS'advmod=that'
p1379
I48
sS'w-2=Greg'
p1380
I1163
sS'nsubj=opposition'
p1381
I492
sS'conj=fight'
p1382
I161
sS'dobj=control'
p1383
I240
sS'w-2=Kids'
p1384
I1172
sS'dobj=silence'
p1385
I346
sS'dobj=unity'
p1386
I374
sS'w-1=South'
p1387
I1044
sS'w-2=both'
p1388
I1212
sS'w-2=trade'
p1389
I1376
sS'nsubj=Russians'
p1390
I451
sS'advmod=how'
p1391
I35
sS'xcomp=guard'
p1392
I1411
sS'dobj=dedication'
p1393
I246
sS'w+1=AFRICOM'
p1394
I574
sS'w+2=authority'
p1395
I741
sS'w-2=help'
p1396
I1271
sS'w-1=than'
p1397
I1130
sS'w-1=we'
p1398
I1136
sS'conj=sustain'
p1399
I191
sS'w+1=such'
p1400
I682
sS'w+1=basis'
p1401
I595
sS'advmod=matter'
p1402
I39
sS'dobj=liquidity'
p1403
I302
sS'w+1=control'
p1404
I605
sS'nsubj=Iran'
p1405
I419
sS'w+2=.'
p1406
I709
sS'w+1=election'
p1407
I610
sS'w+2=,'
p1408
I708
sS'w+2=constitution'
p1409
I766
sS'w-2=helicopter'
p1410
I1270
sS'mark=so'
p1411
I392
sS'nsubj=Megrahi'
p1412
I433
sS'nsubjpass=message'
p1413
I519
sS'mark=although'
p1414
I386
sS'w+1=record'
p1415
I666
sS'ccomp=come'
p1416
I82
sS'w+2=dedication'
p1417
I776
sS'w+2=limited'
p1418
I860
sS'w-1=may'
p1419
I1090
sS'w-1=at'
p1420
I1058
sS'w+2=commitment'
p1421
I763
sS'dobj=secularism'
p1422
I343
sS'w+2=a'
p1423
I723
sS'w+1=influence'
p1424
I628
sS'w-1=man'
p1425
I1088
ssS'dtype'
p1426
cnumpy
float64
p1427
sS'feature_names_'
p1428
(lp1429
g483
ag371
ag556
ag738
ag150
ag1071
ag107
ag1108
ag582
ag318
ag1303
ag219
ag134
ag919
ag109
ag966
ag1212
ag79
ag231
ag1196
ag798
ag1205
ag11
ag529
ag688
ag665
ag945
ag114
ag1160
ag174
ag1224
ag516
ag362
ag690
ag91
ag1391
ag797
ag1195
ag1271
ag1402
ag448
ag826
ag976
ag715
ag851
ag131
ag928
ag827
ag1379
ag1131
ag537
ag766
ag1063
ag99
ag750
ag1050
ag394
ag1261
ag621
ag372
ag1313
ag289
ag1026
ag895
ag1130
ag822
ag920
ag580
ag208
ag1353
ag776
ag1301
ag839
ag1114
ag466
ag1325
ag403
ag1170
ag877
ag1058
ag48
ag1230
ag1416
ag615
ag1209
ag9
ag353
ag1269
ag1088
ag1202
ag1171
ag100
ag60
ag1043
ag780
ag256
ag521
ag887
ag495
ag440
ag872
ag722
ag1101
ag69
ag1009
ag782
ag1249
ag146
ag162
ag871
ag837
ag424
ag52
ag170
ag392
ag899
ag883
ag611
ag356
ag53
ag445
ag1154
ag51
ag93
ag1273
ag864
ag43
ag301
ag515
ag1255
ag1345
ag1347
ag242
ag303
ag226
ag552
ag237
ag946
ag1213
ag796
ag1370
ag342
ag769
ag728
ag1014
ag975
ag1165
ag549
ag124
ag1117
ag1222
ag943
ag1075
ag540
ag1252
ag334
ag914
ag557
ag87
ag462
ag165
ag1382
ag1259
ag857
ag1298
ag861
ag1199
ag897
ag1113
ag714
ag386
ag407
ag725
ag1238
ag526
ag1123
ag257
ag217
ag1036
ag746
ag158
ag653
ag929
ag623
ag1340
ag1214
ag882
ag490
ag1091
ag47
ag270
ag1399
ag151
ag558
ag813
ag498
ag416
ag141
ag71
ag1098
ag120
ag72
ag1138
ag734
ag1256
ag197
ag1182
ag337
ag733
ag253
ag115
ag167
ag1129
ag161
ag276
ag530
ag501
ag1127
ag135
ag625
ag845
ag221
ag1193
ag1260
ag681
ag1126
ag593
ag261
ag259
ag717
ag431
ag561
ag425
ag193
ag20
ag18
ag646
ag228
ag858
ag560
ag1383
ag721
ag30
ag361
ag1314
ag426
ag1393
ag122
ag565
ag1309
ag401
ag31
ag280
ag610
ag642
ag1329
ag860
ag645
ag1283
ag592
ag1167
ag575
ag574
ag198
ag16
ag314
ag903
ag1371
ag863
ag13
ag447
ag751
ag1156
ag853
ag34
ag890
ag519
ag240
ag541
ag476
ag1250
ag859
ag1308
ag810
ag598
ag988
ag487
ag1115
ag523
ag155
ag889
ag268
ag1377
ag680
ag833
ag613
ag612
ag599
ag234
ag304
ag1004
ag1003
ag1403
ag1176
ag402
ag815
ag108
ag800
ag347
ag137
ag620
ag181
ag326
ag712
ag846
ag453
ag716
ag360
ag203
ag309
ag260
ag1265
ag57
ag786
ag452
ag352
ag1100
ag250
ag1236
ag1235
ag405
ag446
ag1162
ag63
ag981
ag745
ag1366
ag545
ag1032
ag771
ag979
ag1322
ag876
ag1422
ag955
ag1364
ag1385
ag997
ag1172
ag999
ag346
ag961
ag1076
ag163
ag811
ag1020
ag586
ag1045
ag682
ag1284
ag952
ag345
ag784
ag444
ag773
ag1327
ag471
ag753
ag1257
ag286
ag1137
ag636
ag138
ag536
ag1386
ag187
ag160
ag913
ag802
ag1143
ag778
ag429
ag70
ag422
ag869
ag86
ag1414
ag1374
ag1099
ag1311
ag770
ag772
ag1411
ag879
ag381
ag196
ag324
ag248
ag1350
ag763
ag695
ag412
ag295
ag1027
ag435
ag693
ag1185
ag927
ag147
ag373
ag419
ag569
ag1013
ag266
ag567
ag564
ag94
ag1056
ag803
ag1405
ag1335
ag1105
ag743
ag794
ag532
ag1002
ag691
ag149
ag1285
ag75
ag1016
ag566
ag507
ag1412
ag1103
ag590
ag413
ag410
ag559
ag19
ag1319
ag1315
ag1150
ag455
ag344
ag867
ag1293
ag904
ag1241
ag132
ag459
ag1390
ag97
ag332
ag870
ag524
ag544
ag964
ag535
ag78
ag104
ag1087
ag1164
ag894
ag963
ag902
ag354
ag555
ag757
ag1121
ag1305
ag164
ag1280
ag341
ag125
ag949
ag1010
ag216
ag844
ag92
ag1183
ag1242
ag1077
ag1294
ag618
ag376
ag496
ag1316
ag573
ag173
ag585
ag699
ag1381
ag183
ag1025
ag792
ag214
ag1125
ag968
ag148
ag119
ag931
ag729
ag991
ag191
ag514
ag245
ag21
ag90
ag503
ag597
ag787
ag1128
ag62
ag284
ag486
ag285
ag14
ag1253
ag1413
ag1116
ag1090
ag793
ag166
ag1218
ag779
ag463
ag1225
ag1323
ag907
ag578
ag562
ag98
ag984
ag683
ag393
ag608
ag1059
ag312
ag290
ag1357
ag1355
ag1096
ag1072
ag184
ag142
ag656
ag1039
ag1085
ag1181
ag655
ag747
ag1228
ag951
ag458
ag278
ag1070
ag1064
ag1367
ag888
ag404
ag1292
ag900
ag357
ag1232
ag584
ag1179
ag930
ag663
ag941
ag664
ag1233
ag660
ag177
ag1394
ag910
ag1223
ag305
ag8
ag806
ag628
ag650
ag329
ag313
ag1266
ag672
ag249
ag17
ag554
ag1037
ag1326
ag1135
ag1139
ag474
ag297
ag1401
ag923
ag922
ag456
ag269
ag1041
ag478
ag348
ag657
ag696
ag1404
ag1290
ag1065
ag1263
ag1378
ag1407
ag647
ag675
ag924
ag1086
ag601
ag323
ag866
ag520
ag917
ag68
ag1169
ag1153
ag126
ag1145
ag1044
ag331
ag246
ag1424
ag875
ag385
ag247
ag836
ag338
ag1336
ag944
ag606
ag1268
ag1094
ag731
ag641
ag1306
ag614
ag1207
ag788
ag182
ag1012
ag1248
ag321
ag35
ag1111
ag727
ag1276
ag703
ag497
ag49
ag1148
ag759
ag1251
ag534
ag223
ag1060
ag336
ag133
ag144
ag841
ag1415
ag572
ag299
ag1341
ag1040
ag916
ag1136
ag1368
ag40
ag168
ag1227
ag901
ag1332
ag175
ag994
ag489
ag1400
ag207
ag317
ag1291
ag364
ag359
ag67
ag830
ag702
ag340
ag973
ag744
ag600
ag139
ag1028
ag1310
ag1362
ag438
ag936
ag602
ag817
ag211
ag283
ag1190
ag1279
ag1297
ag1408
ag1406
ag1118
ag632
ag1157
ag262
ag202
ag591
ag820
ag661
ag735
ag1057
ag349
ag654
ag627
ag1423
ag189
ag1082
ag824
ag865
ag689
ag1342
ag127
ag1334
ag54
ag748
ag171
ag1095
ag339
ag1188
ag1274
ag1006
ag1186
ag1395
ag449
ag1122
ag1089
ag288
ag1146
ag358
ag333
ag1119
ag102
ag1141
ag82
ag624
ag190
ag847
ag1079
ag658
ag504
ag213
ag511
ag1219
ag726
ag1421
ag430
ag911
ag1409
ag631
ag978
ag1328
ag499
ag898
ag241
ag255
ag1151
ag156
ag1417
ag50
ag673
ag1194
ag651
ag741
ag1217
ag1149
ag1281
ag886
ag799
ag1339
ag55
ag1320
ag1030
ag649
ag38
ag409
ag957
ag1112
ag1289
ag467
ag809
ag838
ag1226
ag932
ag1015
ag972
ag383
ag230
ag553
ag415
ag674
ag1080
ag201
ag1240
ag551
ag719
ag694
ag1318
ag493
ag1330
ag292
ag239
ag267
ag1166
ag454
ag1187
ag1018
ag282
ag1054
ag652
ag711
ag1107
ag781
ag595
ag666
ag374
ag1029
ag300
ag112
ag718
ag387
ag388
ag1168
ag996
ag15
ag1197
ag1337
ag178
ag896
ag849
ag391
ag546
ag783
ag384
ag993
ag1074
ag581
ag730
ag366
ag367
ag1302
ag328
ag1418
ag739
ag774
ag912
ag855
ag1244
ag263
ag210
ag365
ag678
ag491
ag222
ag1175
ag368
ag1106
ag29
ag437
ag756
ag1288
ag828
ag204
ag1142
ag205
ag709
ag528
ag45
ag1062
ag704
ag1220
ag1159
ag1221
ag209
ag713
ag1344
ag1173
ag588
ag669
ag1055
ag670
ag110
ag542
ag472
ag1300
ag723
ag370
ag905
ag1200
ag136
ag1022
ag832
ag634
ag754
ag236
ag65
ag400
ag398
ag1052
ag992
ag461
ag1278
ag639
ag443
ag159
ag279
ag1203
ag1177
ag789
ag533
ag1019
ag1134
ag1211
ag494
ag959
ag764
ag1198
ag1375
ag880
ag594
ag918
ag441
ag807
ag948
ag121
ag101
ag768
ag308
ag481
ag77
ag835
ag1011
ag116
ag1282
ag577
ag1254
ag671
ag953
ag224
ag473
ag958
ag960
ag1354
ag1008
ag1140
ag188
ag1287
ag442
ag480
ag1272
ag909
ag947
ag1053
ag229
ag418
ag1000
ag251
ag128
ag258
ag518
ag1201
ag752
ag1321
ag522
ag1163
ag406
ag320
ag232
ag1158
ag758
ag423
ag32
ag622
ag1024
ag667
ag123
ag732
ag1206
ag1023
ag390
ag1373
ag281
ag61
ag842
ag1363
ag1361
ag1358
ag834
ag1210
ag1208
ag1204
ag176
ag1097
ag220
ag306
ag724
ag1132
ag233
ag460
ag840
ag1369
ag39
ag169
ag293
ag379
ag934
ag479
ag819
ag363
ag906
ag760
ag287
ag525
ag878
ag1215
ag775
ag547
ag587
ag105
ag28
ag852
ag1067
ag355
ag531
ag485
ag737
ag1387
ag225
ag206
ag1144
ag1061
ag571
ag508
ag942
ag749
ag227
ag990
ag539
ag1365
ag512
ag1420
ag1093
ag1296
ag873
ag698
ag954
ag662
ag484
ag1192
ag254
ag805
ag1307
ag265
ag1001
ag417
ag1031
ag140
ag369
ag397
ag950
ag640
ag583
ag294
ag983
ag767
ag761
ag421
ag1035
ag482
ag823
ag1425
ag568
ag1419
ag1092
ag707
ag937
ag1349
ag742
ag264
ag1017
ag22
ag848
ag1047
ag1046
ag1372
ag967
ag884
ag971
ag891
ag962
ag192
ag450
ag765
ag244
ag1120
ag215
ag180
ag1356
ag1346
ag1234
ag908
ag12
ag684
ag814
ag307
ag1237
ag88
ag81
ag330
ag36
ag408
ag700
ag1397
ag676
ag1051
ag243
ag856
ag113
ag1398
ag37
ag1231
ag605
ag33
ag469
ag697
ag64
ag619
ag850
ag868
ag1038
ag272
ag617
ag921
ag488
ag310
ag319
ag801
ag1005
ag829
ag1104
ag1073
ag635
ag543
ag538
ag589
ag1380
ag626
ag1258
ag157
ag395
ag816
ag296
ag706
ag130
ag1384
ag1133
ag1109
ag570
ag1295
ag843
ag1081
ag854
ag1359
ag648
ag80
ag10
ag940
ag129
ag604
ag96
ag235
ag1189
ag1229
ag327
ag154
ag720
ag509
ag637
ag795
ag465
ag687
ag1180
ag668
ag58
ag200
ag274
ag980
ag710
ag804
ag172
ag818
ag477
ag1317
ag701
ag1388
ag350
ag527
ag439
ag1360
ag153
ag322
ag399
ag434
ag502
ag74
ag956
ag118
ag1338
ag145
ag106
ag1376
ag470
ag692
ag83
ag436
ag790
ag862
ag179
ag548
ag1102
ag791
ag433
ag1277
ag325
ag1048
ag117
ag1042
ag821
ag1351
ag275
ag1331
ag411
ag881
ag1245
ag428
ag195
ag939
ag630
ag1068
ag1246
ag616
ag152
ag1049
ag677
ag1324
ag762
ag1184
ag1124
ag755
ag603
ag238
ag277
ag1410
ag1396
ag629
ag1299
ag1262
ag396
ag252
ag1267
ag1007
ag46
ag56
ag1078
ag777
ag1147
ag705
ag468
ag517
ag893
ag982
ag302
ag1275
ag638
ag1066
ag506
ag510
ag1084
ag825
ag885
ag382
ag995
ag1239
ag643
ag685
ag1174
ag185
ag1312
ag1216
ag969
ag194
ag831
ag785
ag335
ag25
ag874
ag985
ag986
ag812
ag736
ag84
ag85
ag492
ag1178
ag76
ag1286
ag1247
ag938
ag576
ag686
ag970
ag23
ag27
ag26
ag451
ag432
ag915
ag291
ag933
ag24
ag73
ag679
ag1033
ag500
ag1304
ag143
ag1264
ag935
ag271
ag1352
ag1348
ag659
ag427
ag414
ag475
ag316
ag998
ag644
ag298
ag808
ag1343
ag212
ag218
ag596
ag513
ag1021
ag377
ag351
ag579
ag965
ag457
ag708
ag925
ag66
ag375
ag1069
ag1270
ag273
ag1389
ag989
ag59
ag1243
ag1161
ag609
ag420
ag311
ag95
ag1155
ag1191
ag550
ag607
ag1083
ag1333
ag926
ag1034
ag343
ag389
ag563
ag41
ag464
ag1152
ag987
ag44
ag977
ag199
ag186
ag315
ag505
ag42
ag633
ag89
ag378
ag740
ag1392
ag974
ag380
ag892
ag111
ag1110
ag103
asS'separator'
p1430
S'='
sS'sparse'
p1431
I01
sb.