ccopy_reg
_reconstructor
p1
(csklearn.feature_extraction.dict_vectorizer
DictVectorizer
p2
c__builtin__
object
p3
NtRp4
(dp5
S'sort'
p6
I01
sS'feature_names_'
p7
(lp8
S'advcl=discuss'
p9
aS'advcl=say'
p10
aS'advcl=step'
p11
aS'advmod=also'
p12
aS'advmod=always'
p13
aS'advmod=enough'
p14
aS'advmod=first'
p15
aS'advmod=home'
p16
aS'advmod=partly'
p17
aS'advmod=personally'
p18
aS'advmod=tremendously'
p19
aS'aux=can'
p20
aS'aux=do'
p21
aS'aux=have'
p22
aS'aux=to'
p23
aS'aux=will'
p24
aS'aux=would'
p25
aS'auxpass=be'
p26
aS'cc=and'
p27
aS'cc=but'
p28
aS'ccomp=see'
p29
aS'complm=that'
p30
aS'conj=admiral'
p31
aS'conj=do'
p32
aS'conj=welcome'
p33
aS'dep=because'
p34
aS'dobj=Chairman'
p35
aS'dobj=Johns'
p36
aS'dobj=Morris'
p37
aS'dobj=Nunez'
p38
aS'dobj=Sokolski'
p39
aS'dobj=coach'
p40
aS'dobj=farmer'
p41
aS'dobj=folk'
p42
aS'dobj=manager'
p43
aS'dobj=need'
p44
aS'neg=not'
p45
aS'nsubj=#PRP#'
p46
aS'nsubj=appeal'
p47
aS'nsubj=improvement'
p48
aS'nsubj=jungle'
p49
aS'nsubj=statement'
p50
aS'nsubj=statistics'
p51
aS'nsubjpass=#PRP#'
p52
aS'nsubjpass=Aragon'
p53
aS'nsubjpass=Sharp'
p54
aS'nsubjpass=Zomahoun-Ekouedjin'
p55
aS'nsubjpass=everyone'
p56
aS'nsubjpass=observer'
p57
aS'nsubjpass=president'
p58
aS'prep=at'
p59
aS'prep=by'
p60
aS'prep=in'
p61
aS'prep=to'
p62
aS'prep=upon'
p63
aS'prep=with'
p64
aS'tmod=night'
p65
aS'tmod=year'
p66
aS'w+1=.'
p67
aS'w+1=Buenos'
p68
aS'w+1=Sheila'
p69
aS'w+1=by'
p70
aS'w+1=coach'
p71
aS'w+1=in'
p72
aS'w+1=last'
p73
aS'w+1=proliferation'
p74
aS'w+1=retired'
p75
aS'w+1=the'
p76
aS'w+1=upon'
p77
aS'w+1=with'
p78
aS'w+2=,'
p79
aS'w+2=2000'
p80
aS'w+2=Aires'
p81
aS'w+2=Chairman'
p82
aS'w+2=Morris'
p83
aS'w+2=Obama'
p84
aS'w+2=Rooster'
p85
aS'w+2=U.S.'
p86
aS'w+2=Vietnam'
p87
aS'w+2=any'
p88
aS'w+2=enough'
p89
aS'w+2=expert'
p90
aS'w+2=farmer'
p91
aS'w+2=folk'
p92
aS'w+2=how'
p93
aS'w+2=night'
p94
aS'w+2=potential'
p95
aS'w+2=she'
p96
aS'w+2=some'
p97
aS'w+2=the'
p98
aS'w+2=they'
p99
aS'w+2=what'
p100
aS'w-1=.'
p101
aS'w-1=be'
p102
aS'w-1=can'
p103
aS'w-1=he'
p104
aS'w-1=not'
p105
aS'w-1=to'
p106
aS'w-1=tremendously'
p107
aS'w-1=very'
p108
aS'w-1=will'
p109
aS'w-2=,'
p110
aS'w-2=I'
p111
aS'w-2=also'
p112
aS'w-2=always'
p113
aS'w-2=and'
p114
aS'w-2=be'
p115
aS'w-2=but'
p116
aS'w-2=do'
p117
aS'w-2=everyone'
p118
aS'w-2=fail'
p119
aS'w-2=have'
p120
aS'w-2=he'
p121
aS'w-2=life'
p122
aS'w-2=need'
p123
aS'w-2=observer'
p124
aS'w-2=personally'
p125
aS'w-2=seem'
p126
aS'w-2=she'
p127
aS'w-2=they'
p128
aS'w-2=time'
p129
aS'w-2=try'
p130
aS'w-2=when'
p131
aS'w-2=will'
p132
aS'xcomp=abort'
p133
asS'dtype'
p134
cnumpy
float64
p135
sS'vocabulary_'
p136
(dp137
g83
I74
sg119
I110
sg37
I28
sg33
I24
sg122
I113
sg72
I63
sg87
I78
sg110
I101
sg88
I79
sg55
I46
sg80
I71
sg16
I7
sg123
I114
sg10
I1
sg128
I119
sg106
I97
sg60
I51
sg114
I105
sg31
I22
sg51
I42
sg85
I76
sg117
I108
sg130
I121
sg57
I48
sg77
I68
sg62
I53
sg56
I47
sg121
I112
sg86
I77
sg49
I40
sg112
I103
sg24
I15
sg78
I69
sg18
I9
sg58
I49
sg63
I54
sg40
I31
sg98
I89
sg59
I50
sg132
I123
sg109
I100
sg48
I39
sg64
I55
sg94
I85
sg69
I60
sg22
I13
sg116
I107
sg102
I93
sg101
I92
sg103
I94
sg111
I102
sg129
I120
sg53
I44
sg82
I73
sg127
I118
sg21
I12
sg54
I45
sg9
I0
sg125
I116
sg95
I86
sg104
I95
sg41
I32
sg100
I91
sg84
I75
sg92
I83
sg12
I3
sg42
I33
sg118
I109
sg35
I26
sg74
I65
sg91
I82
sg26
I17
sg20
I11
sg30
I21
sg68
I59
sg99
I90
sg13
I4
sg124
I115
sg120
I111
sg27
I18
sg75
I66
sg76
I67
sg133
I124
sg70
I61
sg113
I104
sg73
I64
sg28
I19
sg81
I72
sg47
I38
sg89
I80
sg108
I99
sg131
I122
sg52
I43
sg96
I87
sg61
I52
sg97
I88
sg25
I16
sg66
I57
sg115
I106
sg11
I2
sg46
I37
sg50
I41
sg17
I8
sg19
I10
sg23
I14
sg65
I56
sg32
I23
sg107
I98
sg34
I25
sg93
I84
sg67
I58
sg79
I70
sg45
I36
sg14
I5
sg44
I35
sg36
I27
sg39
I30
sg105
I96
sg15
I6
sg126
I117
sg71
I62
sg29
I20
sg43
I34
sg38
I29
sg90
I81
ssS'separator'
p138
S'='
sS'sparse'
p139
I01
sb.