ccopy_reg
_reconstructor
p1
(csklearn.feature_extraction.dict_vectorizer
DictVectorizer
p2
c__builtin__
object
p3
NtRp4
(dp5
S'vocabulary_'
p6
(dp7
S'nsubj=part'
p8
I443
sS'w-1=rock'
p9
I1201
sS'w-1=Asia'
p10
I1008
sS'w+1=add'
p11
I612
sS'advmod=more'
p12
I84
sS'w-1=resolution'
p13
I1199
sS'w+2=few'
p14
I873
sS'nsubj=poll'
p15
I450
sS'w-2=surround'
p16
I1578
sS'dobj=percent'
p17
I256
sS'nsubj=Mugabe'
p18
I324
sS'advmod=steadily'
p19
I106
sS'w+2=estate'
p20
I864
sS'nsubj=spending'
p21
I486
sS'w-2=level'
p22
I1469
sS'w+2=but'
p23
I843
sS'dobj=water'
p24
I273
sS'w+2=6.5'
p25
I785
sS'w+2=hard'
p26
I887
sS'nsubj=motor'
p27
I434
sS'w-1=like'
p28
I1154
sS'w-2=Seng'
p29
I1311
sS'w-2=kind'
p30
I1464
sS'w-2=Mugabe'
p31
I1297
sS'w-2=catch'
p32
I1364
sS'w-1=attack'
p33
I1068
sS'w+2=behind'
p34
I838
sS'nsubj=Abbas'
p35
I300
sS'ccomp=feel'
p36
I150
sS'w-1=initially'
p37
I1144
sS'w-2=jump'
p38
I1460
sS'w+1=budget'
p39
I635
sS'w-2=winter'
p40
I1614
sS'w+1=Tche'
p41
I607
sS'nsubj=number'
p42
I438
sS'conj=lead'
p43
I189
sS'nsubj=delegate'
p44
I385
sS'nsubj=Indonesia'
p45
I316
sS'tmod=today'
p46
I582
sS'w-1=Iran'
p47
I1024
sS'dobj=that'
p48
I268
sS'w-2=before'
p49
I1349
sS'w-2=where'
p50
I1610
sS'nsubj=#PRP#'
p51
I298
sS'w+1=crop'
p52
I641
sS'w-1=steadily'
p53
I1221
sS'w-2=who'
p54
I1612
sS'w-2=three-point'
p55
I1590
sS'w+1=of'
p56
I691
sS'w+1=on'
p57
I694
sS'nn=percent'
p58
I295
sS'w+2=last'
p59
I902
sS'w-2=foreclosure'
p60
I1419
sS'w+1=or'
p61
I696
sS'w+2=share'
p62
I958
sS'w-2=seat'
p63
I1556
sS'ccomp=say'
p64
I161
sS'w-2=measles'
p65
I1479
sS'nsubj=yield'
p66
I517
sS'w+1=victim'
p67
I745
sS'w-2=all'
p68
I1331
sS'ccomp=have'
p69
I151
sS'w-1=could'
p70
I1099
sS'w+2=you'
p71
I997
sS'w-2=piece'
p72
I1517
sS'w-2=japanese'
p73
I1458
sS'w+1=food'
p74
I659
sS'nsubj=Kandahar'
p75
I318
sS'w-1=you'
p76
I1254
sS'w+1=into'
p77
I677
sS'w-2=orphan'
p78
I1509
sS'nsubj=KOSPI'
p79
I317
sS'advcl=be'
p80
I11
sS'w-2=report'
p81
I1543
sS'mark=as'
p82
I281
sS'w+2=-rrb-'
p83
I760
sS'amod=ultimate'
p84
I130
sS'w-1=rain'
p85
I1193
sS'w-2=elimination'
p86
I1404
sS'w-1=already'
p87
I1060
sS'w+2=grace'
p88
I884
sS'mark=about'
p89
I278
sS'w+1=ill'
p90
I673
sS'w-2=once-grand'
p91
I1504
sS'dobj=dollar'
p92
I245
sS'advmod=over'
p93
I90
sS'w-2=Party'
p94
I1308
sS'w-2=each'
p95
I1397
sS'nsubj=house'
p96
I415
sS'w+1=within'
p97
I754
sS'nsubj=missile'
p98
I430
sS'advcl=fail'
p99
I23
sS'dep=ill'
p100
I222
sS'amod=meteoric'
p101
I127
sS'advcl=receive'
p102
I38
sS'nsubj=Mutharika'
p103
I326
sS'nsubj=that'
p104
I498
sS'advmod=further'
p105
I71
sS'conj=hang'
p106
I183
sS'advmod=here'
p107
I75
sS'nsubj=Tabaski'
p108
I340
sS'nsubj=supporter'
p109
I493
sS'w+2=Gordon'
p110
I799
sS'nsubj=growth'
p111
I411
sS'nsubj=group'
p112
I410
sS'conj=be'
p113
I168
sS'w-1=Senate'
p114
I1043
sS'w+2=finally'
p115
I875
sS'w-2=find'
p116
I1414
sS'w+2=expert'
p117
I867
sS'advmod=where'
p118
I119
sS'w-2=rule'
p119
I1550
sS'w-1=breathtaking'
p120
I1077
sS'w-1=section'
p121
I1209
sS'conj=draw'
p122
I177
sS'w+2=when'
p123
I989
sS'w+1=debris'
p124
I642
sS'prep=out'
p125
I558
sS'w-2=communist'
p126
I1376
sS'w-2=rating'
p127
I1540
sS'nsubj=Stream'
p128
I337
sS'nsubj=rating'
p129
I465
sS'w+2=30'
p130
I779
sS'conj=fall'
p131
I180
sS'w-2=Francois'
p132
I1282
sS'w-1=to'
p133
I1237
sS'w-2=contract'
p134
I1380
sS'xcomp=#NUMBER#'
p135
I1622
sS'w-1=Japan'
p136
I1025
sS'dobj=#PRP#'
p137
I238
sS'w-2=do'
p138
I1393
sS'nsubj=husband'
p139
I416
sS'nsubj=Musharraf'
p140
I325
sS'w-2=cross-border'
p141
I1385
sS'w+2=3-1'
p142
I778
sS'dobj=short'
p143
I264
sS'partmod=throw'
p144
I524
sS'w+2=effort'
p145
I862
sS'nsubj=company'
p146
I372
sS'w-2=two'
p147
I1596
sS'w-1=would'
p148
I1252
sS'nsubj=election'
p149
I398
sS'w+1=through'
p150
I733
sS'w+2=because'
p151
I836
sS'nsubj=promise'
p152
I461
sS'w-2=amount'
p153
I1335
sS'ccomp=limit'
p154
I154
sS'w+1=kite'
p155
I679
sS'w+1=production'
p156
I706
sS'advcl=king'
p157
I33
sS'w+2=factory'
p158
I871
sS'w+2=percent'
p159
I937
sS'w-1=Nepal'
p160
I1035
sS'w+2=Mohamed'
p161
I806
sS'w-1=force'
p162
I1124
sS'w+2=where'
p163
I990
sS'partmod=result'
p164
I523
sS'w-1=Lonseny'
p165
I1029
sS'prep=despite'
p166
I547
sS'w+1=progress'
p167
I707
sS'conj=roll'
p168
I201
sS'w+2=amid'
p169
I830
sS'w+1=housing'
p170
I672
sS'w+1=Wednesday'
p171
I609
sS'w+2=Russia'
p172
I811
sS'w-2=tuberculosis'
p173
I1594
sS'advmod=behind'
p174
I57
sS'w+2=love'
p175
I910
sS'w-2=Thailand'
p176
I1315
sS'w-2=infection'
p177
I1453
sS'conj=stabilize'
p178
I204
sS'nsubj=Abubakar'
p179
I301
sS'nsubj=level'
p180
I424
sS'w+2=980'
p181
I793
sS'w+1=near'
p182
I687
sS'nsubj=Gimpel'
p183
I311
sS'w+2=decline'
p184
I852
sS'w-2=martyr'
p185
I1475
sS'w+2=show'
p186
I962
sS'advcl=attack'
p187
I10
sS'w-2=satellite'
p188
I1552
sS'w-2=those'
p189
I1588
sS'advcl=absorb'
p190
I6
sS'w+2=Israel'
p191
I802
sS'w-2=impact'
p192
I1445
sS'conj=part'
p193
I195
sS'w-2=stock'
p194
I1572
sS'w+1=shortly'
p195
I718
sS'xcomp=leave'
p196
I1629
sS'w-1=will'
p197
I1247
sS'nsubj=year'
p198
I516
sS'w+1=probably'
p199
I705
sS'dep=as'
p200
I213
sS'w-1=27'
p201
I1004
sS'w+2=least'
p202
I904
sS'w-2=welcome'
p203
I1608
sS'w+2=disrepair'
p204
I855
sS'nsubj=confidence'
p205
I373
sS'w-2=rain'
p206
I1537
sS'advmod=far'
p207
I68
sS'w+1=political'
p208
I700
sS'w-1=n-o-t'
p209
I1166
sS'w-2=bury'
p210
I1357
sS'nsubj=Nigeria'
p211
I327
sS'w-2=nationwide'
p212
I1494
sS'w-2=sub-saharan'
p213
I1575
sS'nsubj=satellite'
p214
I479
sS'w-1=plan'
p215
I1184
sS'conj=plummet'
p216
I197
sS'w+1=show'
p217
I719
sS'w+2=Treasurer'
p218
I817
sS'nsubj=state'
p219
I488
sS'nsubj=stock'
p220
I489
sS'acomp=flat'
p221
I1
sS'w-2=would'
p222
I1618
sS'w+2=break'
p223
I840
sS'w-2=star'
p224
I1570
sS'advmod=thus'
p225
I112
sS'xcomp=cause'
p226
I1625
sS'w-1=index'
p227
I1142
sS'w+1=between'
p228
I632
sS'xcomp=offer'
p229
I1632
sS'w-2=polio'
p230
I1521
sS'w+2=20'
p231
I771
sS'ccomp=include'
p232
I152
sS'w-2=expect'
p233
I1406
sS'mark=while'
p234
I286
sS'dep=so'
p235
I231
sS'nsubj=index'
p236
I419
sS'w-2=with'
p237
I1615
sS'w+2=response'
p238
I949
sS'advcl=hit'
p239
I32
sS'nsubj=Lalibela'
p240
I321
sS'nsubj=depart'
p241
I389
sS'w+2=new'
p242
I922
sS'w-1=so-called'
p243
I1216
sS'w-2=Industrial'
p244
I1287
sS'w-2=area'
p245
I1338
sS'prep=outside'
p246
I559
sS'w-1=against'
p247
I1056
sS'cc=or'
p248
I147
sS'w+2=once'
p249
I928
sS'w+1=well'
p250
I750
sS'w+1=silent'
p251
I721
sS'w-2=if'
p252
I1443
sS'nsubj=family'
p253
I404
sS'conj=fail'
p254
I179
sS'w-2=economist'
p255
I1399
sS'w-2=in'
p256
I1447
sS'w-1=sanctuary'
p257
I1205
sS'w-1=Democrats'
p258
I1017
sS'amod=public'
p259
I129
sS'w-2=it'
p260
I1456
sS'w+1=market'
p261
I684
sS'nsubj=demonstration'
p262
I388
sS'w+2=1.6'
p263
I763
sS'w-1=States'
p264
I1046
sS'w+1=far'
p265
I656
sS'w+2=nearly'
p266
I920
sS'advmod=down'
p267
I61
sS'w+2=fire'
p268
I876
sS'w-1=Gyanendra'
p269
I1020
sS'nsubj=task'
p270
I497
sS'acomp=asleep'
p271
I0
sS'nn=Moustapha'
p272
I293
sS'w+1=rest'
p273
I711
sS'nsubj=cover'
p274
I377
sS'w-2=cell'
p275
I1368
sS'advmod=also'
p276
I51
sS'advcl=lock'
p277
I34
sS'mark=although'
p278
I280
sS'ccomp=report'
p279
I160
sS'amod=worst'
p280
I131
sS'nsubj=region'
p281
I466
sS'w-1=Saddam'
p282
I1042
sS'w-2=States'
p283
I1313
sS'w-1=Bulldogs'
p284
I1014
sS'w-1=Cho'
p285
I1016
sS'advmod=why'
p286
I120
sS'w-2=have'
p287
I1429
sS'w-1=soon'
p288
I1218
sS'w+1=away'
p289
I625
sS'w-1=just'
p290
I1147
sS'w-1=sudden'
p291
I1225
sS'w-1=centimeter'
p292
I1085
sS'w-1=person'
p293
I1182
sS'w+2=early'
p294
I861
sS'w-2=some'
p295
I1566
sS'w-2=let'
p296
I1468
sS'w+1=in'
p297
I674
sS'dobj=show'
p298
I265
sS'w+1=real'
p299
I710
sS'w-1=facility'
p300
I1120
sS'w+1=about'
p301
I611
sS'w-1=from'
p302
I1125
sS'w+2=little'
p303
I909
sS'poss=#PRP#'
p304
I526
sS'dobj=#NUMBER#'
p305
I237
sS'w-2=increase'
p306
I1450
sS'w-1=without'
p307
I1249
sS'w+1=backwards'
p308
I627
sS"possessive='s"
p309
I531
sS'advmod=all'
p310
I50
sS'advcl=do'
p311
I19
sS'w-2=rocket'
p312
I1548
sS'w+2=Saigon'
p313
I813
sS'nsubj=Cho'
p314
I307
sS'w-1=group'
p315
I1129
sS'w-1=cholera'
p316
I1087
sS'w-2=Africa'
p317
I1266
sS'advmod=illegally'
p318
I78
sS'mark=after'
p319
I279
sS'w-1=economy'
p320
I1114
sS'amod=one-day'
p321
I128
sS'w-1=Mogadishu'
p322
I1031
sS'advcl=say'
p323
I42
sS'nsubj=rivalry'
p324
I473
sS'w-1=do'
p325
I1110
sS'w-1=constantly'
p326
I1094
sS'w-1=eventually'
p327
I1118
sS'nsubj=responsibility'
p328
I471
sS'w+1=water'
p329
I747
sS'dobj=kilometer'
p330
I250
sS'nsubj=dependent'
p331
I390
sS'nsubj=most'
p332
I433
sS'w-1=Rassmussen'
p333
I1039
sS'w+1=18'
p334
I596
sS'w+2=on'
p335
I927
sS'nsubj=plea'
p336
I448
sS'w+2=out'
p337
I933
sS'w-2=to'
p338
I1592
sS'w+1=19'
p339
I597
sS'w-2=and'
p340
I1336
sS'w+1=Marine'
p341
I606
sS'w+1=10'
p342
I594
sS'w+1=13'
p343
I595
sS'w+2=price'
p344
I944
sS'dobj=whistle'
p345
I275
sS'w-1=Seng'
p346
I1044
sS'w-2=he'
p347
I1430
sS'nn=Lonseny'
p348
I291
sS'prep=since'
p349
I561
sS'w-2=Treasury'
p350
I1318
sS'nsubj=Swat'
p351
I339
sS'w+2=Whitson'
p352
I822
sS'w+2=Saddam'
p353
I812
sS'advmod=under'
p354
I114
sS'w-1=keep'
p355
I1148
sS'w+1=way'
p356
I748
sS'advcl=feel'
p357
I25
sS'w-1=proposal'
p358
I1190
sS'w+2=he'
p359
I889
sS'nsubj=First'
p360
I309
sS'dobj=demand'
p361
I243
sS'w+2=10'
p362
I764
sS'w-2=yield'
p363
I1620
sS'w-2=New'
p364
I1299
sS'w-1=Tabaski'
p365
I1049
sS'w-2=one'
p366
I1505
sS'advmod=soon'
p367
I105
sS'w-2=finance'
p368
I1413
sS'w+2=foreign'
p369
I879
sS'w-2=other'
p370
I1510
sS'w-1=indicator'
p371
I1143
sS'xcomp=reflect'
p372
I1635
sS'amod=last'
p373
I125
sS'nsubj=harvest'
p374
I414
sS'w+1=down'
p375
I647
sS'w-1=agreement'
p376
I1057
sS'w-1=they'
p377
I1235
sS'w+1=price'
p378
I704
sS'w-1=high'
p379
I1134
sS'xcomp=suggest'
p380
I1639
sS'w-1=motor'
p381
I1163
sS'w-1=-lrb-'
p382
I1002
sS'conj=decline'
p383
I173
sS'w-2=american'
p384
I1334
sS'nsubj=pound'
p385
I454
sS'w-1=Dhabi'
p386
I1018
sS'w-2=very'
p387
I1602
sS'w+2=household'
p388
I892
sS'w-1=rapidly'
p389
I1194
sS'w-2=OAS'
p390
I1305
sS'prep=after'
p391
I533
sS'nsubj=death'
p392
I383
sS'prep=against'
p393
I534
sS'nsubj=case'
p394
I364
sS'w+2=will'
p395
I991
sS'w-2=although'
p396
I1333
sS'advmod=unfairly'
p397
I116
sS'w-1=all'
p398
I1059
sS'w-2=head'
p399
I1431
sS'w+2=other'
p400
I932
sS'advcl=escape'
p401
I21
sS'w-2=you'
p402
I1621
sS'w-1=incident'
p403
I1141
sS'w+1=support'
p404
I728
sS'dobj=horse'
p405
I249
sS'w-2=method'
p406
I1482
sS'w-2=America'
p407
I1268
sS'conj=appeal'
p408
I166
sS'w-1=election'
p409
I1116
sS'w-1=Bajwa'
p410
I1010
sS'nsubj=negotiation'
p411
I437
sS'w+2=somali'
p412
I965
sS'w+2=tier'
p413
I979
sS'w+1=out'
p414
I697
sS'w-2=that'
p415
I1581
sS'w-2=can'
p416
I1361
sS'w-2=Gimpel'
p417
I1283
sS'ccomp=perish'
p418
I157
sS'neg=not'
p419
I288
sS'w-1=arrangement'
p420
I1065
sS'w+2=campaign'
p421
I844
sS'w-2=popularity'
p422
I1524
sS'w-1=sale'
p423
I1204
sS'w-1=girl'
p424
I1127
sS'w-1=Kenya'
p425
I1027
sS'nsubj=construction'
p426
I374
sS'nsubj=brother'
p427
I362
sS'dobj=bit'
p428
I241
sS'advmod=then'
p429
I109
sS'w-2=death'
p430
I1389
sS'w-2=dehydration'
p431
I1390
sS'advcl=forge'
p432
I27
sS'w-2=we'
p433
I1607
sS'w+2=meter'
p434
I915
sS'w-2=motivate'
p435
I1491
sS'w-1=city'
p436
I1089
sS'w+2=overseas'
p437
I935
sS'nsubj=attack'
p438
I356
sS'nsubj=supply'
p439
I491
sS'w-2=cancer'
p440
I1362
sS'w+2=european'
p441
I865
sS'prep=within'
p442
I569
sS'w+1=house'
p443
I671
sS'xcomp=seek'
p444
I1638
sS'w-1=aide'
p445
I1058
sS'w-2=militant'
p446
I1483
sS'w-1=say'
p447
I1206
sS'w+2=deficit'
p448
I853
sS'nsubj=pipe'
p449
I446
sS'w+2=gold'
p450
I883
sS'w-2=plunge'
p451
I1520
sS'w+1=object'
p452
I690
sS'w+2=level'
p453
I907
sS'w+1=20'
p454
I599
sS'advmod=just'
p455
I81
sS'w+2=although'
p456
I829
sS'w-2=chase'
p457
I1370
sS'aux=may'
p458
I139
sS'w+1=commodity'
p459
I640
sS'nsubj=earlier'
p460
I396
sS'w-2=the'
p461
I1582
sS'w+2=satellite'
p462
I954
sS'w+2=build'
p463
I841
sS'nsubj=table'
p464
I496
sS'w+1=just'
p465
I678
sS'w-1=concern'
p466
I1093
sS'w-2=regional'
p467
I1542
sS'nsubj=more'
p468
I431
sS'conj=graduate'
p469
I182
sS'w-2=match'
p470
I1476
sS'w-1=region'
p471
I1198
sS'w-2=Foundation'
p472
I1281
sS'w-1=have'
p473
I1132
sS'w+2=-lrb-'
p474
I759
sS'nsubj=incident'
p475
I418
sS'w+2=Derby'
p476
I798
sS'w+2=in'
p477
I894
sS'nsubj=drummer'
p478
I395
sS'nsubj=toll'
p479
I502
sS'w+2=it'
p480
I898
sS'w+1=3.2'
p481
I601
sS'nn=Francois'
p482
I290
sS'prep=about'
p483
I532
sS'aux=can'
p484
I135
sS'dobj=area'
p485
I240
sS'advmod=at'
p486
I53
sS'w-1=public'
p487
I1191
sS'w-2=225'
p488
I1264
sS'w-1=government'
p489
I1128
sS'w+2=thousand'
p490
I978
sS'w+2=position'
p491
I941
sS'nsubj=Bulldogs'
p492
I306
sS'w+2=take'
p493
I969
sS'advmod=drastically'
p494
I63
sS'nsubj=request'
p495
I468
sS'xcomp=rest'
p496
I1637
sS'w+1=overboard'
p497
I699
sS'w+1=member'
p498
I685
sS'w-1=then'
p499
I1233
sS'w+1=for'
p500
I660
sS'w-2=Stream'
p501
I1314
sS'advmod=partly'
p502
I92
sS'w+1=quickly'
p503
I708
sS'advmod=largely'
p504
I82
sS'prep=to'
p505
I564
sS'nsubj=fund'
p506
I406
sS'w-2=Jeremy'
p507
I1290
sS'conj=make'
p508
I192
sS'w-1=still'
p509
I1222
sS'dep=fall'
p510
I219
sS'w-2=until'
p511
I1598
sS'w-2=project'
p512
I1534
sS'nsubj=attempt'
p513
I357
sS'acomp=sick'
p514
I4
sS'w+1=sick'
p515
I720
sS'w+2=for'
p516
I878
sS'w+1=bridge'
p517
I633
sS'nsubj=gun'
p518
I412
sS'nn=percentage'
p519
I296
sS'w-2=unemployment'
p520
I1597
sS'w-1=April'
p521
I1007
sS'w+2=we'
p522
I987
sS'w-2=indian'
p523
I1451
sS'acomp=short'
p524
I3
sS'nsubj=cattle'
p525
I366
sS'advmod=apart'
p526
I52
sS'w-2=-rrb-'
p527
I1260
sS'w-2=schoolwork'
p528
I1554
sS'w+1=seven'
p529
I715
sS'w-2=change'
p530
I1369
sS'w-2=horse'
p531
I1439
sS'nsubj=value'
p532
I505
sS'advmod=though'
p533
I111
sS'prep=onto'
p534
I557
sS'w-2=cause'
p535
I1365
sS'w-1=balloon'
p536
I1069
sS'advmod=constantly'
p537
I58
sS'w-2=Mutharika'
p538
I1298
sS'w-2=claim'
p539
I1373
sS'nsubj=Nikkei'
p540
I329
sS'advcl=assume'
p541
I9
sS'det=the'
p542
I235
sS'w+1=soldier'
p543
I725
sS'w-1=citizen'
p544
I1088
sS'w+2=figure'
p545
I874
sS'w+1=behind'
p546
I630
sS'w+1=precipitously'
p547
I702
sS'w-2=hit'
p548
I1434
sS'nsubj=pledge'
p549
I449
sS'w+1=upon'
p550
I744
sS'w+2=usually'
p551
I984
sS'w-1=meteoric'
p552
I1159
sS'w-1=pound'
p553
I1187
sS'w+1=short'
p554
I717
sS'nsubj=Party'
p555
I330
sS'w+2=month'
p556
I916
sS'prep=over'
p557
I560
sS'nsubj=Russia'
p558
I331
sS'advmod=geographically'
p559
I73
sS'advmod=backwards'
p560
I56
sS'conj=stand'
p561
I205
sS'nsubj=Moldova'
p562
I323
sS'w-1=pipe'
p563
I1183
sS'w+2=reveal'
p564
I950
sS'w+1=inside'
p565
I676
sS'w+2=NATO'
p566
I807
sS'w-2=able'
p567
I1324
sS'w-1=worst'
p568
I1251
sS'w+1=30'
p569
I602
sS'w-2=continue'
p570
I1379
sS'nsubj=rain'
p571
I463
sS'xcomp=hit'
p572
I1626
sS'w-1=vote'
p573
I1242
sS'nsubj=draft'
p574
I394
sS'nsubj=centimeter'
p575
I367
sS'w-1=leave'
p576
I1153
sS'w+2=drive'
p577
I859
sS'w-2=she'
p578
I1558
sS'w+2=shortly'
p579
I961
sS'w-1=until'
p580
I1240
sS'advcl=get'
p581
I28
sS'w-2=turn'
p582
I1595
sS'w-1=Average'
p583
I1009
sS'w-2=its'
p584
I1457
sS'w-1=part'
p585
I1179
sS'w-2=leather'
p586
I1466
sS'parataxis=say'
p587
I519
sS'w-1=KOSPI'
p588
I1026
sS'w+1=head'
p589
I668
sS'w-2=Thierno'
p590
I1316
sS'w-2=United'
p591
I1319
sS'w-1=case'
p592
I1084
sS'advcl=answer'
p593
I8
sS'w+2=Thursday'
p594
I816
sS'w+2=say'
p595
I955
sS'nsubj=effort'
p596
I397
sS'nsubj=murder'
p597
I436
sS'w-2=bomb'
p598
I1354
sS'w-2=corn'
p599
I1382
sS'nsubj=aid'
p600
I350
sS'w+2=insurgent'
p601
I895
sS'nsubj=agreement'
p602
I349
sS'w+1=under'
p603
I741
sS'w-2=deal'
p604
I1388
sS'w-2=spring'
p605
I1569
sS'dep=before'
p606
I217
sS'xcomp=repossess'
p607
I1636
sS'w+2=onto'
p608
I930
sS'w+2=year'
p609
I996
sS'dobj=log'
p610
I251
sS'w+1=indiscriminately'
p611
I675
sS'w-2=allow'
p612
I1332
sS'nsubj=seat'
p613
I482
sS'w-2=sometime'
p614
I1567
sS'w-2=Europe'
p615
I1279
sS'w-2=after'
p616
I1327
sS'w+1=to'
p617
I735
sS'advcl=displace'
p618
I18
sS'w-1=and'
p619
I1064
sS'w-2=holder'
p620
I1435
sS'w-2=struggle'
p621
I1574
sS'w+2=somebody'
p622
I966
sS'w+2=power'
p623
I942
sS'w-1=round'
p624
I1203
sS'w-1=line'
p625
I1155
sS'nsubj=popularity'
p626
I451
sS'w-1=rating'
p627
I1196
sS'w+2=fortune'
p628
I881
sS'w+1=prey'
p629
I703
sS'w-2=first'
p630
I1415
sS'w+2=tour'
p631
I981
sS'w-2=daughter'
p632
I1387
sS'advmod=shortly'
p633
I101
sS'nsubj=suspicion'
p634
I494
sS'w+2=9.6'
p635
I790
sS'dobj=fortune'
p636
I248
sS'ccomp=sway'
p637
I163
sS'w+1=say'
p638
I713
sS'w+2=those'
p639
I977
sS'dobj=these'
p640
I269
sS'w-2=potential'
p641
I1526
sS'tmod=day'
p642
I577
sS'w+1=since'
p643
I722
sS'w-1=house'
p644
I1138
sS'advmod=there'
p645
I110
sS'w-2=Nigeria'
p646
I1300
sS'nsubj=impact'
p647
I417
sS'w+2=over'
p648
I934
sS'w+2=a'
p649
I823
sS'w-1=bolt'
p650
I1076
sS'w+2=many'
p651
I912
sS'nsubj=movie'
p652
I435
sS'nsubj=decision'
p653
I384
sS'nsubj=States'
p654
I336
sS'w+1=whistle'
p655
I752
sS'nsubj=wages'
p656
I510
sS'w-2=six'
p657
I1562
sS'w-2=property'
p658
I1535
sS'w+2=its'
p659
I899
sS'w+1=angel'
p660
I620
sS'w-2=Broadway'
p661
I1272
sS'w+1=oil'
p662
I693
sS'w+2=dollar'
p663
I857
sS'w-1=last'
p664
I1150
sS'w+1=slightly'
p665
I724
sS'prep=because'
p666
I541
sS'advmod=away'
p667
I54
sS'w+1=export'
p668
I655
sS'prep=toward'
p669
I565
sS'w+2=Lucifer'
p670
I805
sS'ccomp=divide'
p671
I149
sS'w-2=export'
p672
I1407
sS'nsubj=Hockenstein'
p673
I314
sS'nsubj=sale'
p674
I477
sS'w-2=conflict'
p675
I1378
sS'w-2=asylum'
p676
I1343
sS'w-1=Suharto'
p677
I1047
sS'w+2=North'
p678
I808
sS'xcomp=reduce'
p679
I1634
sS'w-2=mining'
p680
I1485
sS'w-2=delegate'
p681
I1391
sS'w-2=bipartisan'
p682
I1352
sS'advmod=currently'
p683
I59
sS'nsubj=Democrats'
p684
I308
sS'w-1=slowly'
p685
I1214
sS'w-2=Indonesia'
p686
I1286
sS'w+1=hero'
p687
I669
sS'w-2=Abu'
p688
I1265
sS'xcomp=to'
p689
I1640
sS'w+2=short'
p690
I960
sS'dep=get'
p691
I220
sS'nsubj=official'
p692
I441
sS'advmod=early'
p693
I64
sS'w+2=al-Qaida'
p694
I827
sS'cc=but'
p695
I146
sS'w+2=lead'
p696
I903
sS'dep=be'
p697
I215
sS'w+1=further'
p698
I665
sS'w-1=brother'
p699
I1078
sS'advcl=follow'
p700
I26
sS'nsubj=Grande'
p701
I312
sS'w-1=bill'
p702
I1074
sS'w-2=Hang'
p703
I1284
sS'w+1=along'
p704
I617
sS'w-2=begin'
p705
I1350
sS'w+1=dramatically'
p706
I648
sS'advcl=win'
p707
I47
sS'w-2=housing'
p708
I1441
sS'partmod=end'
p709
I520
sS'conj=wipe'
p710
I210
sS'w-1=year'
p711
I1253
sS'w+2=250'
p712
I777
sS'w-1=largely'
p713
I1149
sS'nsubj=man'
p714
I427
sS'w+2=hold'
p715
I891
sS'conj=loose'
p716
I191
sS'conj=take'
p717
I207
sS'advcl=surge'
p718
I45
sS'w-2=Macedonia'
p719
I1294
sS'nsubj=export'
p720
I401
sS'w+1=popularity'
p721
I701
sS'conj=turn'
p722
I208
sS'w+2=probably'
p723
I945
sS'advmod=ill'
p724
I77
sS'w+2=less'
p725
I905
sS'w-2=due'
p726
I1395
sS'w-1=who'
p727
I1246
sS'nn=Bocar'
p728
I289
sS'w-2=could'
p729
I1383
sS'nsubj=system'
p730
I495
sS'nsubj=section'
p731
I483
sS'w-1=start'
p732
I1220
sS'w-2=legislative'
p733
I1467
sS'w-2=Amalia'
p734
I1267
sS'w-2=vote'
p735
I1605
sS'w-2=Woodburn'
p736
I1321
sS'nn=Mamadou'
p737
I292
sS'w+1=more'
p738
I686
sS'w+1=foam'
p739
I658
sS'w+1=with'
p740
I753
sS'w-2=halt'
p741
I1427
sS'w-2=Pentagon'
p742
I1309
sS'partmod=fall'
p743
I521
sS'w-1=biggest'
p744
I1073
sS'w-2=,'
p745
I1258
sS'w-2=.'
p746
I1261
sS"w-2='"
p747
I1255
sS'aux=have'
p748
I138
sS'w-2=think'
p749
I1586
sS'w+2=Iran'
p750
I801
sS'w-2=thing'
p751
I1585
sS'w-2=South'
p752
I1312
sS'w-2=I'
p753
I1285
sS'w-2=Olmert'
p754
I1306
sS'w-1=consumer'
p755
I1096
sS'w+2=Wednesday'
p756
I820
sS'appos=#NUMBER#'
p757
I132
sS'w-2=face'
p758
I1408
sS'w-2=a'
p759
I1323
sS'w+1=subsidy'
p760
I727
sS'w-2=job'
p761
I1459
sS'w+2=police'
p762
I939
sS'w+1=flat'
p763
I657
sS'nsubj=bridge'
p764
I361
sS'poss=Olmert'
p765
I529
sS'w-1=he'
p766
I1133
sS'w-2=member'
p767
I1480
sS'w+1=try'
p768
I739
sS'w-2=version'
p769
I1601
sS'w+1=from'
p770
I663
sS'xcomp=lose'
p771
I1630
sS'nsubj=plan'
p772
I447
sS'dep=base'
p773
I214
sS'nsubj=production'
p774
I459
sS'w-2=cite'
p775
I1372
sS'w-2=Cambodia'
p776
I1273
sS'nsubj=kinetics'
p777
I422
sS'w-2=during'
p778
I1396
sS'w-2=likely'
p779
I1470
sS'dep=no'
p780
I227
sS'mark=since'
p781
I284
sS'nsubj=prevention'
p782
I457
sS'w-1=ever'
p783
I1119
sS'w+2=U.S.'
p784
I819
sS'nsubj=line'
p785
I426
sS'dobj=point'
p786
I258
sS'prep=from'
p787
I550
sS'w+1=when'
p788
I751
sS'advmod=however'
p789
I76
sS'nsubj=which'
p790
I513
sS'advmod=slowly'
p791
I103
sS'w+1=$'
p792
I586
sS'w-1=equipment'
p793
I1117
sS'w+1=-'
p794
I589
sS'w+1=,'
p795
I588
sS'w-1=suspicion'
p796
I1228
sS'w-1=factor'
p797
I1121
sS'nsubj=catch'
p798
I365
sS'w+1=;'
p799
I604
sS'dobj=demonstration'
p800
I244
sS'w-1=quickly'
p801
I1192
sS'mark=with'
p802
I287
sS'nsubj=Williams'
p803
I345
sS'w+1=a'
p804
I610
sS'w-1=later'
p805
I1152
sS'w+2=demand'
p806
I854
sS'dep=night'
p807
I226
sS'w-1=than'
p808
I1230
sS'w-2=because'
p809
I1348
sS'w-1=that'
p810
I1231
sS'advcl=sell'
p811
I43
sS'nsubj=girl'
p812
I408
sS'w+1=energy'
p813
I651
sS'w-2=investigation'
p814
I1454
sS'w-2=mortality'
p815
I1488
sS'w-2=people'
p816
I1516
sS'advmod=lower'
p817
I83
sS'advmod=generally'
p818
I72
sS'w+2=during'
p819
I860
sS'nsubj=child'
p820
I368
sS'w-2=when'
p821
I1609
sS'dep=indicator'
p822
I224
sS'w-1=customer'
p823
I1102
sS'w-2=site'
p824
I1561
sS'w-2=electricity'
p825
I1403
sS'nsubj=percentage'
p826
I445
sS'w+2=entirely'
p827
I863
sS'prep=below'
p828
I544
sS'w-1=market'
p829
I1157
sS'w+2=child'
p830
I846
sS'w-2=heavy'
p831
I1432
sS'advcl=grip'
p832
I29
sS'w-2=sound'
p833
I1568
sS'w-2=from'
p834
I1420
sS'w+1=too'
p835
I736
sS'w-2=price'
p836
I1530
sS'nsubj=proposal'
p837
I462
sS'w-1=somehow'
p838
I1217
sS'partmod=reflect'
p839
I522
sS'w-2=family'
p840
I1411
sS'nsubj=black'
p841
I359
sS'w-2=22'
p842
I1263
sS'w-2=20'
p843
I1262
sS'poss=ECOWAS'
p844
I527
sS'advcl=take'
p845
I46
sS'w+2=Broadway'
p846
I796
sS'tmod=morning'
p847
I579
sS'w+2=to'
p848
I980
sS'w-2=market'
p849
I1474
sS'w-2=home'
p850
I1436
sS'w-1=its'
p851
I1146
sS'w-2=income'
p852
I1449
sS'nsubj=rocket'
p853
I474
sS'nsubj=darkness'
p854
I380
sS'conj=need'
p855
I193
sS'ccomp=recall'
p856
I159
sS'nsubj=price'
p857
I458
sS'nsubj=Suharto'
p858
I338
sS'w-2=memory'
p859
I1481
sS'advmod=short'
p860
I100
sS'w+2=criminal'
p861
I848
sS'complm=that'
p862
I165
sS'w+2=iraqi'
p863
I897
sS'w-1=really'
p864
I1197
sS'tmod=month'
p865
I578
sS'w+2=vote'
p866
I986
sS'w+2=world'
p867
I994
sS'dep=on'
p868
I228
sS'w+1=asleep'
p869
I623
sS'w+2=President'
p870
I810
sS'w-2=for'
p871
I1418
sS'w+1=they'
p872
I730
sS'w-2=paralyze'
p873
I1513
sS'w-2=stop'
p874
I1573
sS'advmod=somehow'
p875
I104
sS'advmod=quickly'
p876
I96
sS'w+1=violently'
p877
I746
sS'prep=in'
p878
I551
sS'w-1=see'
p879
I1210
sS'w+2=worry'
p880
I995
sS'w+1=legislative'
p881
I682
sS'w-1=percent'
p882
I1180
sS'w+2=bury'
p883
I842
sS'w+2=favor'
p884
I872
sS'nsubj=giant'
p885
I407
sS'prep=amid'
p886
I537
sS'w-1=honor'
p887
I1137
sS'amod=eighth'
p888
I124
sS'w+1=5.7'
p889
I603
sS'w+2=until'
p890
I983
sS'w+1=unfairly'
p891
I743
sS'w-2=villager'
p892
I1603
sS'advmod=unexpectedly'
p893
I115
sS'advcl=plummet'
p894
I36
sS'xcomp=keep'
p895
I1628
sS'nsubj=all'
p896
I351
sS'w+2=start'
p897
I968
sS'w-1=it'
p898
I1145
sS'w-2=King'
p899
I1292
sS'advcl=resolve'
p900
I39
sS'w-2=government'
p901
I1424
sS'w-2=ban'
p902
I1346
sS'w-1=burden'
p903
I1079
sS'w-2=black'
p904
I1353
sS'w-2=idea'
p905
I1442
sS'det=this'
p906
I236
sS'w-1=night'
p907
I1168
sS'w-1=in'
p908
I1140
sS'w+1=like'
p909
I683
sS'w-1=the'
p910
I1232
sS'nsubj=violence'
p911
I506
sS'w-2=objection'
p912
I1499
sS'mark=if'
p913
I283
sS'advcl=rise'
p914
I41
sS'w-2=word'
p915
I1616
sS'nsubj=light'
p916
I425
sS'w+2=day'
p917
I850
sS'w-1=although'
p918
I1062
sS'w+1=among'
p919
I618
sS'w-2=reclaim'
p920
I1541
sS'w-2=since'
p921
I1560
sS'w+2=explode'
p922
I868
sS'w-2=player'
p923
I1519
sS'w-2=believe'
p924
I1351
sS'nsubj=argument'
p925
I352
sS'w-2=through'
p926
I1591
sS'nsubj=truce'
p927
I503
sS'prep=along'
p928
I535
sS'nsubj=who'
p929
I514
sS'w+2=larger'
p930
I901
sS'w-2=of'
p931
I1500
sS'w-2=on'
p932
I1502
sS'w+1=session'
p933
I714
sS'w-2=deploy'
p934
I1392
sS'w-2=own'
p935
I1512
sS'w+2=Somalia'
p936
I814
sS'w+1=domestic'
p937
I646
sS'w+1=below'
p938
I631
sS'w-1=Moldova'
p939
I1032
sS'w-2=attack'
p940
I1345
sS'w-2=protect'
p941
I1536
sS'w+2=can'
p942
I845
sS'aux=must'
p943
I141
sS'w+1=as'
p944
I622
sS'w+1=at'
p945
I624
sS'w-2=Council'
p946
I1276
sS'w-1=structure'
p947
I1224
sS'w-2=army'
p948
I1339
sS'w-1=own'
p949
I1178
sS'nsubj=arrangement'
p950
I353
sS'w+2=so'
p951
I964
sS'w-2=mortar'
p952
I1489
sS'w-1=Nations'
p953
I1034
sS'w-1=can'
p954
I1083
sS'w-2=approval'
p955
I1337
sS'w-1=darkness'
p956
I1103
sS'w-1=risk'
p957
I1200
sS'w-2=peace'
p958
I1515
sS'advmod=when'
p959
I118
sS'w-1=demonstration'
p960
I1108
sS'xcomp=able'
p961
I1623
sS'ccomp=love'
p962
I155
sS'nsubj=schedule'
p963
I481
sS'w-2=nothing'
p964
I1497
sS'w-2=polling'
p965
I1523
sS'w+2=deaf'
p966
I851
sS'w+1=we'
p967
I749
sS'w-2=soldier'
p968
I1565
sS'w-1=late'
p969
I1151
sS'dobj=edge'
p970
I246
sS'w-1=Francois'
p971
I1019
sS'w+2=sniper'
p972
I963
sS'w-2=hamper'
p973
I1428
sS'nsubj=mortality'
p974
I432
sS"w-1='s"
p975
I999
sS'w-1=York'
p976
I1053
sS'nsubj=bill'
p977
I358
sS'w+2=after'
p978
I825
sS'w-1=dependent'
p979
I1109
sS'w-2=last'
p980
I1465
sS'w+1=colleague'
p981
I639
sS'w-1=Index'
p982
I1023
sS'w-1=himself'
p983
I1135
sS'advmod=still'
p984
I107
sS'w-2=must'
p985
I1492
sS'w-2=german'
p986
I1422
sS'nsubj=#NUMBER#'
p987
I297
sS'w-2=nuclear'
p988
I1498
sS'nsubj=burden'
p989
I363
sS'w+1=dollar'
p990
I645
sS'w+2=extremist'
p991
I870
sS'w-2=prevention'
p992
I1529
sS"w-1=''"
p993
I998
sS'w-2=main'
p994
I1471
sS'tmod=night'
p995
I580
sS'w-1=Moustapha'
p996
I1033
sS'xcomp=indicate'
p997
I1627
sS'w-2=Pakistan'
p998
I1307
sS'w+1=tree'
p999
I738
sS"w-2=''"
p1000
I1256
sS'nsubj=this'
p1001
I500
sS'w+1=four'
p1002
I662
sS'nsubj=potential'
p1003
I453
sS'w+2=everyone'
p1004
I866
sS'w+2=make'
p1005
I911
sS'conj=have'
p1006
I184
sS'advmod=precipitously'
p1007
I94
sS'w-1=show'
p1008
I1213
sS'w+2=grow'
p1009
I885
sS'ccomp=raise'
p1010
I158
sS'w-1=snow'
p1011
I1215
sS'w-2=roof'
p1012
I1549
sS'nsubj=activity'
p1013
I347
sS"w-2='s"
p1014
I1257
sS'nsubj=Timmy'
p1015
I343
sS'advcl=have'
p1016
I31
sS'ccomp=cancellation'
p1017
I148
sS'advcl=collapse'
p1018
I14
sS'w-2=Zimbabwe'
p1019
I1322
sS'w-2=no'
p1020
I1495
sS'w+2=15th-seeded'
p1021
I767
sS'dep=to'
p1022
I233
sS'w-2=homeowner'
p1023
I1437
sS'nsubj=comment'
p1024
I371
sS'dobj=seat'
p1025
I263
sS'nsubj=support'
p1026
I492
sS'w-1=stock'
p1027
I1223
sS'w-2=precipitation'
p1028
I1528
sS'w+2=much'
p1029
I919
sS'w+2=96'
p1030
I792
sS'w+2=90'
p1031
I791
sS'w-1=schedule'
p1032
I1208
sS'nsubj=Night'
p1033
I328
sS'w+2=135'
p1034
I765
sS'nsubj=half'
p1035
I413
sS'w-2=which'
p1036
I1611
sS'w-1=official'
p1037
I1173
sS'w-2=rate'
p1038
I1538
sS'advmod=even'
p1039
I65
sS'w-2=Nissei'
p1040
I1302
sS'prep=throughout'
p1041
I563
sS'w-2=caregiving'
p1042
I1363
sS'w-1=Saakashvili'
p1043
I1041
sS'advmod=ever'
p1044
I67
sS'conj=untreated'
p1045
I209
sS'aux=will'
p1046
I143
sS'w-1=value'
p1047
I1241
sS'w-1=Bhutto'
p1048
I1012
sS'w+1=2.7'
p1049
I598
sS'w-2=manufacture'
p1050
I1473
sS'nsubj=word'
p1051
I515
sS'prep=with'
p1052
I568
sS'w-1=bitter'
p1053
I1075
sS'w-2=killing'
p1054
I1463
sS'w-2=suppose'
p1055
I1577
sS'w+1=quite'
p1056
I709
sS'advcl=evacuate'
p1057
I22
sS'w+2=873,000'
p1058
I789
sS'w+2=800,000'
p1059
I788
sS'dobj=meter'
p1060
I254
sS'w-2=rice'
p1061
I1545
sS'w+2=revenue'
p1062
I951
sS'w-1=after'
p1063
I1055
sS'w+2=place'
p1064
I938
sS'w-1=Africa'
p1065
I1006
sS'w+2=value'
p1066
I985
sS'dobj=victim'
p1067
I271
sS'conj=die'
p1068
I176
sS'w-2=rise'
p1069
I1546
sS'advcl=defeat'
p1070
I16
sS'nsubj=Taliban'
p1071
I341
sS'w-2=economy'
p1072
I1400
sS'w-1=daughter'
p1073
I1104
sS'w-1=Ousmane'
p1074
I1038
sS'nsubj=delivery'
p1075
I386
sS'cc=and'
p1076
I145
sS'conj=people'
p1077
I196
sS'w-2=against'
p1078
I1328
sS'conj=kick'
p1079
I186
sS'w+1=by'
p1080
I636
sS'w+1=be'
p1081
I628
sS'w-2=british'
p1082
I1356
sS'w-1=Mamadou'
p1083
I1030
sS'w-2=overall'
p1084
I1511
sS'w-2=war'
p1085
I1606
sS'w-1=home'
p1086
I1136
sS'conj=say'
p1087
I203
sS'nsubj=Secretary-General'
p1088
I334
sS'advmod=way'
p1089
I117
sS'tmod=year'
p1090
I585
sS'w+1=-lrb-'
p1091
I590
sS'w-2=see'
p1092
I1557
sS'w-2=sea'
p1093
I1555
sS'w-1=spending'
p1094
I1219
sS'w+1=star'
p1095
I726
sS'w-2=calendar'
p1096
I1360
sS'w+1=toward'
p1097
I737
sS'w-2=communication'
p1098
I1375
sS'aux=could'
p1099
I136
sS'w-1=company'
p1100
I1092
sS'w-2=fairly'
p1101
I1410
sS'w+2=Israeli'
p1102
I803
sS'w-1=ultimate'
p1103
I1239
sS'w-1=missile'
p1104
I1161
sS'w-1=Baye'
p1105
I1011
sS'dep=if'
p1106
I221
sS'dep=in'
p1107
I223
sS'w-2=gear'
p1108
I1421
sS'prep=of'
p1109
I555
sS'w+2=non-muslim'
p1110
I923
sS'w+1=2010'
p1111
I600
sS'prep=on'
p1112
I556
sS'advmod=overboard'
p1113
I91
sS'dobj=tree'
p1114
I270
sS'amod=late'
p1115
I126
sS'w-2=company'
p1116
I1377
sS'w-2=damage'
p1117
I1386
sS'advmod=nationwide'
p1118
I85
sS'nsubj=everyone'
p1119
I400
sS'nsubj=investigation'
p1120
I421
sS'w+2=than'
p1121
I970
sS'ccomp=show'
p1122
I162
sS'w+1=without'
p1123
I755
sS'nsubj=Saddam'
p1124
I333
sS'w-1=November'
p1125
I1037
sS'partmod=trigger'
p1126
I525
sS'w+2=that'
p1127
I971
sS'w+2=also'
p1128
I828
sS'w-1=child'
p1129
I1086
sS'w-1=or'
p1130
I1177
sS'w-2=system'
p1131
I1579
sS'w-1=month'
p1132
I1162
sS'w-1=of'
p1133
I1172
sS'w-2=more'
p1134
I1487
sS'w-2=oil'
p1135
I1501
sS'conj=go'
p1136
I181
sS'w-1=dollar'
p1137
I1112
sS'conj=delay'
p1138
I174
sS'w-2=mosquito'
p1139
I1490
sS'w+1=this'
p1140
I731
sS'w+2=older'
p1141
I926
sS'advmod=now'
p1142
I86
sS'w+2=into'
p1143
I896
sS'nsubj=those'
p1144
I501
sS'w-2=will'
p1145
I1613
sS'xcomp=manifest'
p1146
I1631
sS'conj=other'
p1147
I194
sS'w-1=household'
p1148
I1139
sS'prep=among'
p1149
I538
sS'w-2=not'
p1150
I1496
sS'dobj=fellow'
p1151
I247
sS'amod=classic'
p1152
I122
sS'nsubj=resolution'
p1153
I470
sS'w-2=Nixon'
p1154
I1303
sS'w-2=at'
p1155
I1344
sS'w-2=as'
p1156
I1341
sS'w-2=man'
p1157
I1472
sS'w-1=also'
p1158
I1061
sS'w-2=economic'
p1159
I1398
sS'w-2=Congo'
p1160
I1275
sS'w-2=may'
p1161
I1478
sS'advmod=slightly'
p1162
I102
sS'w-1=system'
p1163
I1229
sS'w+2=OPEC'
p1164
I809
sS'w+1=sharply'
p1165
I716
sS'w-2=sign'
p1166
I1559
sS'w-1=oil'
p1167
I1175
sS'advcl=shed'
p1168
I44
sS'det=a'
p1169
I234
sS'w-2=plane'
p1170
I1518
sS'nsubj=oil'
p1171
I442
sS'nsubj=arsenal'
p1172
I355
sS'w+2=communism'
p1173
I847
sS'w-2=include'
p1174
I1448
sS'w-1=before'
p1175
I1071
sS'w-1=harvest'
p1176
I1131
sS'w-2=tend'
p1177
I1580
sS'nsubj=dockyard'
p1178
I392
sS'nn=Ousmane'
p1179
I294
sS'w-2=November'
p1180
I1304
sS'w-1=must'
p1181
I1165
sS'w+1=explain'
p1182
I654
sS'w+2=have'
p1183
I888
sS'w-2=opposition'
p1184
I1508
sS'w-2=world'
p1185
I1617
sS'w+2=stabilize'
p1186
I967
sS'w-1=come'
p1187
I1090
sS'w-1=Wellington'
p1188
I1052
sS'csubj=shift'
p1189
I211
sS'w+1=eight'
p1190
I650
sS'nsubj=infection'
p1191
I420
sS'w-2=Mesqel'
p1192
I1295
sS'w+2=Tuesday'
p1193
I818
sS'w+2=within'
p1194
I993
sS'w-2=activity'
p1195
I1325
sS'aux=to'
p1196
I142
sS'nsubj=Bhutto'
p1197
I305
sS'nsubj=Seng'
p1198
I335
sS'w+1=leader'
p1199
I681
sS'dobj=part'
p1200
I255
sS'advmod=twice'
p1201
I113
sS'dobj=market'
p1202
I253
sS'nsubj=daughter'
p1203
I381
sS'w-2=Baghdad'
p1204
I1271
sS'w-1=for'
p1205
I1123
sS'w-2=infant'
p1206
I1452
sS'w+2=Love'
p1207
I804
sS'advmod=perhaps'
p1208
I93
sS'w+2=most'
p1209
I918
sS'conj=push'
p1210
I199
sS'w+2=about'
p1211
I824
sS'w-1=comment'
p1212
I1091
sS'prep=during'
p1213
I548
sS'w-2=Fogh'
p1214
I1280
sS'dep=progress'
p1215
I229
sS'w-2=dollar'
p1216
I1394
sS'w+2=lesser-developed'
p1217
I906
sS'w-1=September'
p1218
I1045
sS'w-2=improve'
p1219
I1446
sS'nsubj=adult'
p1220
I348
sS'tmod=winter'
p1221
I584
sS'w-1=now'
p1222
I1170
sS'w-1=not'
p1223
I1169
sS'w-1=begin'
p1224
I1072
sS'w-2=honor'
p1225
I1438
sS'advcl=resonate'
p1226
I40
sS'aux=be'
p1227
I134
sS'w-1=there'
p1228
I1234
sS'conj=predict'
p1229
I198
sS'prep=before'
p1230
I542
sS'w-1=effort'
p1231
I1115
sS'advmod=dramatically'
p1232
I62
sS'w-2=but'
p1233
I1358
sS'nsubj=Average'
p1234
I303
sS'w-2=house'
p1235
I1440
sS'w+2=number'
p1236
I924
sS'nsubj=visitor'
p1237
I508
sS'w-2=election'
p1238
I1402
sS'nsubj=roof'
p1239
I475
sS'w-2=one-day'
p1240
I1506
sS'w-1=Taliban'
p1241
I1050
sS'w-2=just'
p1242
I1461
sS'w-2=then'
p1243
I1583
sS'advmod=forward'
p1244
I70
sS'w+2=Democrats'
p1245
I797
sS'w+1=unexpectedly'
p1246
I742
sS'w-2=they'
p1247
I1584
sS'advcl=elect'
p1248
I20
sS'nsubj=unemployment'
p1249
I504
sS'prep=by'
p1250
I546
sS'prep=between'
p1251
I545
sS'w-2=country'
p1252
I1384
sS'nsubj=dollar'
p1253
I393
sS'nsubj=government'
p1254
I409
sS'w+2=forest'
p1255
I880
sS'w-2=food'
p1256
I1417
sS'w-1=Russia'
p1257
I1040
sS'advmod=really'
p1258
I98
sS'nsubj=release'
p1259
I467
sS'nsubj=vote'
p1260
I509
sS'advmod=sharply'
p1261
I99
sS'rcmod=break'
p1262
I575
sS'w-1=by'
p1263
I1081
sS'w+2=never'
p1264
I921
sS'nsubj=Wellington'
p1265
I344
sS'w-1=be'
p1266
I1070
sS'advmod=eventually'
p1267
I66
sS'w-1=Night'
p1268
I1036
sS'w-1=day'
p1269
I1105
sS'w-1=price'
p1270
I1188
sS"nsubj='s"
p1271
I299
sS'poss=dollar'
p1272
I530
sS'prep=behind'
p1273
I543
sS'nsubj=visit'
p1274
I507
sS'w+2=Texas'
p1275
I815
sS'w+2=71'
p1276
I787
sS'advcl=dismiss'
p1277
I17
sS'w-2=risk'
p1278
I1547
sS'w+2=recession'
p1279
I948
sS'w-1=truce'
p1280
I1238
sS'mark=because'
p1281
I282
sS'aux=might'
p1282
I140
sS'infmod=take'
p1283
I276
sS'dobj=price'
p1284
I261
sS'w-1=Bocar'
p1285
I1013
sS'nsubj=Mogadishu'
p1286
I322
sS'w-1=with'
p1287
I1248
sS'dobj=mandate'
p1288
I252
sS'w+1=because'
p1289
I629
sS'w-2=follow'
p1290
I1416
sS'dep=though'
p1291
I232
sS'iobj=oil'
p1292
I277
sS'w+2=200'
p1293
I772
sS'conj=cut'
p1294
I171
sS'conj=land'
p1295
I188
sS'advmod=once'
p1296
I88
sS'w-1=which'
p1297
I1245
sS'w-2=Nikkei'
p1298
I1301
sS'nsubj=demand'
p1299
I387
sS'advmod=disproportionately'
p1300
I60
sS'nsubj=customer'
p1301
I379
sS'w+2=reverse'
p1302
I952
sS'w+2=be'
p1303
I835
sS'w-1=death'
p1304
I1106
sS'nsubj=bomb'
p1305
I360
sS'aux=would'
p1306
I144
sS'advmod=heavily'
p1307
I74
sS'w-2=poll'
p1308
I1522
sS'nsubj=Agreement'
p1309
I302
sS'nsubj=supplies'
p1310
I490
sS'w-1=movie'
p1311
I1164
sS'advmod=ago'
p1312
I49
sS'nsubj=objection'
p1313
I439
sS'w+1=and'
p1314
I619
sS'w+2=West'
p1315
I821
sS'dobj=precipice'
p1316
I259
sS'w-1=percentage'
p1317
I1181
sS'w+2=this'
p1318
I976
sS'appos=campaign'
p1319
I133
sS'nsubj=Kenya'
p1320
I319
sS'w+2=these'
p1321
I974
sS'w+1=forward'
p1322
I661
sS'acomp=ill'
p1323
I2
sS'nsubj=prevalence'
p1324
I456
sS'w+2=disuse'
p1325
I856
sS'nsubj=resistance'
p1326
I469
sS'nsubj=sanctuary'
p1327
I478
sS'w+1=have'
p1328
I667
sS'conj=balloon'
p1329
I167
sS'w-2=use'
p1330
I1599
sS'advmod=probably'
p1331
I95
sS'w-1=drummer'
p1332
I1113
sS'w+2=2007'
p1333
I775
sS'w+2=2006'
p1334
I774
sS'w-1=world'
p1335
I1250
sS'w+2=2003'
p1336
I773
sS'w+2=2009'
p1337
I776
sS'nsubj=precipitation'
p1338
I455
sS'w+2=more'
p1339
I917
sS'w-2=threaten'
p1340
I1589
sS'w-1=scenery'
p1341
I1207
sS'nsubj=facility'
p1342
I403
sS'w-2=S.S.'
p1343
I1310
sS'nsubj=site'
p1344
I484
sS'advcl=check'
p1345
I13
sS'nsubj=crop'
p1346
I378
sS'dobj=skill'
p1347
I266
sS'dep=because'
p1348
I216
sS'nsubj=Gyanendra'
p1349
I313
sS'nsubj=project'
p1350
I460
sS'w+2=against'
p1351
I826
sS'nsubj=Index'
p1352
I315
sS'w+1=nearly'
p1353
I688
sS'prt=out'
p1354
I573
sS'w-1=weapon'
p1355
I1244
sS'w+2=ill'
p1356
I893
sS'w-1=construction'
p1357
I1095
sS'w-2=air'
p1358
I1330
sS'w-1=call'
p1359
I1082
sS'prep=while'
p1360
I567
sS'dobj=day'
p1361
I242
sS'w-2=aid'
p1362
I1329
sS'nsubj=Saakashvili'
p1363
I332
sS'w+2=6,500'
p1364
I784
sS'w+1=two'
p1365
I740
sS'w+1=almost'
p1366
I616
sS'w-2=illegally'
p1367
I1444
sS'advcl=react'
p1368
I37
sS'prep=for'
p1369
I549
sS'w-2=Assembly'
p1370
I1270
sS'nsubj=occupancy'
p1371
I440
sS'nsubj=force'
p1372
I405
sS'w-2=together'
p1373
I1593
sS'w-2=ground'
p1374
I1425
sS'advmod=supposedly'
p1375
I108
sS'w+2=at'
p1376
I834
sS'w+2=line'
p1377
I908
sS'w+2=60'
p1378
I786
sS'w+2=as'
p1379
I833
sS'w-2=Asia'
p1380
I1269
sS'dep=make'
p1381
I225
sS'w-2=Mr.'
p1382
I1296
sS'w-1=once'
p1383
I1176
sS'w-1=plea'
p1384
I1185
sS'w-1=Timmy'
p1385
I1051
sS'w-1=generally'
p1386
I1126
sS'w-2=Though'
p1387
I1317
sS'w+2=India'
p1388
I800
sS'nsubj=round'
p1389
I476
sS'w-1=Cactus'
p1390
I1015
sS'w+2=2.56'
p1391
I770
sS'dobj=place'
p1392
I257
sS'w-2=cd'
p1393
I1366
sS'w+2=she'
p1394
I959
sS'w+1=back'
p1395
I626
sS'w-1=contractor'
p1396
I1098
sS'w+2=with'
p1397
I992
sS'nsubj=Thailand'
p1398
I342
sS'w-1=Abubakar'
p1399
I1005
sS'dobj=vote'
p1400
I272
sS'w-1=rocket'
p1401
I1202
sS'advcl=continue'
p1402
I15
sS'w+2=roll'
p1403
I953
sS'ccomp=use'
p1404
I164
sS'w-2=violence'
p1405
I1604
sS'w+2=or'
p1406
I931
sS'w-2=Wednesday'
p1407
I1320
sS'w+1=off'
p1408
I692
sS'w+2=of'
p1409
I925
sS'w+2=market'
p1410
I913
sS'w-2=-lrb-'
p1411
I1259
sS'prep=into'
p1412
I553
sS'w-2=usher'
p1413
I1600
sS'w-1=gun'
p1414
I1130
sS'w+1=...'
p1415
I592
sS'nsubj=population'
p1416
I452
sS'w+2=just'
p1417
I900
sS'w+1=number'
p1418
I689
sS'w+2=part'
p1419
I936
sS'advmod=finally'
p1420
I69
sS'w-2=kill'
p1421
I1462
sS'prt=over'
p1422
I574
sS'prep=without'
p1423
I570
sS'nsubj=riches'
p1424
I472
sS'w-1=finally'
p1425
I1122
sS'prep=inside'
p1426
I552
sS'w+2=five'
p1427
I877
sS'nsubj=face'
p1428
I402
sS'w-1=she'
p1429
I1212
sS'w+1=.'
p1430
I591
sS'w+2=from'
p1431
I882
sS'w+2=two'
p1432
I982
sS'w-1=supplies'
p1433
I1226
sS'w-2=Japan'
p1434
I1289
sS'w+2=half'
p1435
I886
sS'w+2=142nd'
p1436
I766
sS'nsubj=Kenyans'
p1437
I320
sS'nsubj=divide'
p1438
I391
sS'w+2=may'
p1439
I914
sS'advmod=often'
p1440
I87
sS'ccomp=need'
p1441
I156
sS'w+1=disproportionately'
p1442
I644
sS'w+1=over'
p1443
I698
sS'w-2=fair'
p1444
I1409
sS'w-2=December'
p1445
I1277
sS'w-2=here'
p1446
I1433
sS'w-2=Iraq'
p1447
I1288
sS'nsubj=star'
p1448
I487
sS'w-2=child'
p1449
I1371
sS'w-2=this'
p1450
I1587
sS'conj=rise'
p1451
I200
sS'aux=do'
p1452
I137
sS'w-2=problem'
p1453
I1531
sS'w-1=supposedly'
p1454
I1227
sS'w-2=Lecter'
p1455
I1293
sS'w-2=guard'
p1456
I1426
sS'w+2=another'
p1457
I832
sS'nsubj=people'
p1458
I444
sS'w-1=number'
p1459
I1171
sS'advmod=inside'
p1460
I80
sS'w-1=count'
p1461
I1100
sS'w-2=iraqi'
p1462
I1455
sS'w-2=cd4'
p1463
I1367
sS'w-2=nation'
p1464
I1493
sS'nsubj=language'
p1465
I423
sS'nsubj=deal'
p1466
I382
sS'w-1=Lalibela'
p1467
I1028
sS'w+1=one'
p1468
I695
sS'w+2=week'
p1469
I988
sS'w+2=production'
p1470
I946
sS'w+1=despite'
p1471
I643
sS'conj=hurt'
p1472
I185
sS'num=#NUMBER#'
p1473
I518
sS'advcl=open'
p1474
I35
sS"w+2=''"
p1475
I757
sS'nsubj=country'
p1476
I376
sS'w-2=asian'
p1477
I1342
sS'w-1=this'
p1478
I1236
sS'dobj=prey'
p1479
I260
sS'w-2=exist'
p1480
I1405
sS'amod=come'
p1481
I123
sS'prt=off'
p1482
I572
sS'w+1=0.8'
p1483
I593
sS'w-2=program'
p1484
I1533
sS'w+1=ever'
p1485
I653
sS'w-1=asset'
p1486
I1067
sS'w-2=power-sharing'
p1487
I1527
sS'w-1=poll'
p1488
I1186
sS'w+1=tariff'
p1489
I729
sS'w+2=175'
p1490
I769
sS'prep=under'
p1491
I566
sS'tmod=no'
p1492
I581
sS'w+2=50'
p1493
I783
sS'w-2=supply'
p1494
I1576
sS'conj=damage'
p1495
I172
sS'acomp=silent'
p1496
I5
sS'w-1=but'
p1497
I1080
sS'w-2=bridge'
p1498
I1355
sS'w-1=dockyard'
p1499
I1111
sS'w-2=mineral'
p1500
I1484
sS'w+1=home'
p1501
I670
sS'nsubj=scenery'
p1502
I480
sS'mark=until'
p1503
I285
sS'w+1=geographically'
p1504
I666
sS'nsubj=Georg'
p1505
I310
sS'nsubj=Bajwa'
p1506
I304
sS'conj=descend'
p1507
I175
sS'nsubj=claim'
p1508
I370
sS'advcl=fear'
p1509
I24
sS'w-1=production'
p1510
I1189
sS'w+1=classic'
p1511
I638
sS'w-2=material'
p1512
I1477
sS'w+1=against'
p1513
I615
sS'w-2=responsibility'
p1514
I1544
sS'w+2=before'
p1515
I837
sS'w+1=drastically'
p1516
I649
sS'w+2=populated'
p1517
I940
sS'w-2=sale'
p1518
I1551
sS'nsubj=wall'
p1519
I511
sS'w-1=share'
p1520
I1211
sS'advmod=again'
p1521
I48
sS'nsubj=thing'
p1522
I499
sS'advmod=back'
p1523
I55
sS'w-2=field'
p1524
I1412
sS'w-2=contraction'
p1525
I1381
sS'w-1=might'
p1526
I1160
sS'nsubj=market'
p1527
I429
sS"w+1='s"
p1528
I587
sS'w-2=be'
p1529
I1347
sS'w-2=missile'
p1530
I1486
sS'conj=know'
p1531
I187
sS'w-2=collapse'
p1532
I1374
sS'w+1=three'
p1533
I732
sS'nsubj=arrival'
p1534
I354
sS'dobj=rain'
p1535
I262
sS'w-2=by'
p1536
I1359
sS'advcl=begin'
p1537
I12
sS'tmod=week'
p1538
I583
sS'w+1=Tuesday'
p1539
I608
sS'w-1=Swat'
p1540
I1048
sS'conj=likely'
p1541
I190
sS'w+2=presidential'
p1542
I943
sS'w-1=cover'
p1543
I1101
sS'amod=breathtaking'
p1544
I121
sS'dobj=$'
p1545
I239
sS'w+1=six'
p1546
I723
sS'w+2=damage'
p1547
I849
sS'w-2=eighth'
p1548
I1401
sS'w+1=satellite'
p1549
I712
sS'w-2=added'
p1550
I1326
sS'dep=after'
p1551
I212
sS'w+2=rain'
p1552
I947
sS'nsubj=mango'
p1553
I428
sS'xcomp=recover'
p1554
I1633
sS'dobj=street'
p1555
I267
sS'w+2=below'
p1556
I839
sS'w+2=and'
p1557
I831
sS'tmod=#DATE#'
p1558
I576
sS'w+1=casualty'
p1559
I637
sS'w+2=dramatically'
p1560
I858
sS'w-2=six-month'
p1561
I1563
sS'w+1=Classic'
p1562
I605
sS'nsubj=snow'
p1563
I485
sS'conj=consider'
p1564
I170
sS'w-2=operational'
p1565
I1507
sS'advcl=announce'
p1566
I7
sS'conj=succeed'
p1567
I206
sS'w-2=say'
p1568
I1553
sS'w+2=the'
p1569
I972
sS'prep=at'
p1570
I540
sS'prep=as'
p1571
I539
sS'w-1=continue'
p1572
I1097
sS'w-2=ECOWAS'
p1573
I1278
sS'w+2=1621'
p1574
I768
sS'w-1=Hockenstein'
p1575
I1021
sS'w+2=explosion'
p1576
I869
sS'w-2=girl'
p1577
I1423
sS'xcomp=bird'
p1578
I1624
sS'w+2=heavily'
p1579
I890
sS'w-1=.'
p1580
I1003
sS'w-1=-'
p1581
I1001
sS'w-1=,'
p1582
I1000
sS'conj=explode'
p1583
I178
sS'w-2=production'
p1584
I1532
sS'w-1=rate'
p1585
I1195
sS'prep=through'
p1586
I562
sS'w-2=Chechnya'
p1587
I1274
sS'w+2=one'
p1588
I929
sS'w+2=Baghdad'
p1589
I795
sS'w-1=I'
p1590
I1022
sS'advcl=grow'
p1591
I30
sS'w-1=a'
p1592
I1054
sS'dep=settle'
p1593
I230
sS'conj=run'
p1594
I202
sS'w-2=so'
p1595
I1564
sS'nsubj=city'
p1596
I369
sS'nsubj=rate'
p1597
I464
sS'poss=Nixon'
p1598
I528
sS'w+1=event'
p1599
I652
sS'w+1=again'
p1600
I614
sS'w+2=they'
p1601
I975
sS'ccomp=leave'
p1602
I153
sS'w-1=amid'
p1603
I1063
sS'w+2=then'
p1604
I973
sS'w-2=year'
p1605
I1619
sS'nsubj=count'
p1606
I375
sS'w+1=furniture'
p1607
I664
sS'w-2=once'
p1608
I1503
sS'w-2=arsenal'
p1609
I1340
sS'w+1=last'
p1610
I680
sS'dep=but'
p1611
I218
sS'conj=bottle'
p1612
I169
sS'w-2=rather'
p1613
I1539
sS'advmod=indiscriminately'
p1614
I79
sS'w+1=apart'
p1615
I621
sS'nsubj=weapon'
p1616
I512
sS'advmod=out'
p1617
I89
sS'w-2=start'
p1618
I1571
sS'w+1=after'
p1619
I613
sS'nsubj=employee'
p1620
I399
sS'w+2=session'
p1621
I957
sS'w-1=we'
p1622
I1243
sS'nsubj=Zimbabwe'
p1623
I346
sS'w+2=Africa'
p1624
I794
sS'w-1=negotiation'
p1625
I1167
sS'w-2=population'
p1626
I1525
sS'w+2=5'
p1627
I782
sS'w-1=delivery'
p1628
I1107
sS'w+2=.'
p1629
I761
sS'w+2=,'
p1630
I758
sS'w-1=often'
p1631
I1174
sS'w+1=briefly'
p1632
I634
sS'w-2=past'
p1633
I1514
sS'prep=near'
p1634
I554
sS'w+2=$'
p1635
I756
sS'dobj=way'
p1636
I274
sS'advmod=rapidly'
p1637
I97
sS'w+2=sectarian'
p1638
I956
sS'prt=down'
p1639
I571
sS'w+2=1,200'
p1640
I762
sS'w-1=may'
p1641
I1158
sS'w+1=throughout'
p1642
I734
sS'w-1=as'
p1643
I1066
sS'w+2=46'
p1644
I781
sS'w+2=40'
p1645
I780
sS'prep=alongside'
p1646
I536
sS'w-2=Kandahar'
p1647
I1291
sS'w-1=man'
p1648
I1156
ssS'dtype'
p1649
cnumpy
float64
p1650
sS'feature_names_'
p1651
(lp1652
g271
ag221
ag1323
ag524
ag514
ag1496
ag190
ag1566
ag593
ag541
ag187
ag80
ag1537
ag1345
ag1018
ag1402
ag1070
ag1277
ag618
ag311
ag1248
ag401
ag1057
ag99
ag1509
ag357
ag700
ag432
ag581
ag832
ag1591
ag1016
ag239
ag157
ag277
ag1474
ag894
ag1368
ag102
ag900
ag1226
ag914
ag323
ag811
ag1168
ag718
ag845
ag707
ag1521
ag1312
ag310
ag276
ag526
ag486
ag667
ag1523
ag560
ag174
ag537
ag683
ag1300
ag267
ag1232
ag494
ag693
ag1039
ag1267
ag1044
ag207
ag1420
ag1244
ag105
ag818
ag559
ag1307
ag107
ag789
ag724
ag318
ag1614
ag1460
ag455
ag504
ag817
ag12
ag1118
ag1142
ag1440
ag1296
ag1617
ag93
ag1113
ag502
ag1208
ag1007
ag1331
ag876
ag1637
ag1258
ag1261
ag860
ag633
ag1162
ag791
ag875
ag367
ag19
ag984
ag1375
ag429
ag645
ag533
ag225
ag1201
ag354
ag893
ag397
ag1089
ag959
ag118
ag286
ag1544
ag1152
ag1481
ag888
ag373
ag1115
ag101
ag321
ag259
ag84
ag280
ag757
ag1319
ag1227
ag484
ag1099
ag1452
ag748
ag458
ag1282
ag943
ag1196
ag1046
ag1306
ag1076
ag695
ag248
ag1017
ag671
ag36
ag69
ag232
ag1602
ag154
ag962
ag1441
ag418
ag1010
ag856
ag279
ag64
ag1122
ag637
ag1404
ag862
ag408
ag1329
ag113
ag1612
ag1564
ag1294
ag1495
ag383
ag1138
ag1507
ag1068
ag122
ag1583
ag254
ag131
ag1136
ag469
ag106
ag1006
ag1472
ag1079
ag1531
ag1295
ag43
ag1541
ag716
ag508
ag855
ag1147
ag193
ag1077
ag216
ag1229
ag1210
ag1451
ag168
ag1594
ag1087
ag178
ag561
ag1567
ag717
ag722
ag1045
ag710
ag1189
ag1551
ag200
ag773
ag697
ag1348
ag606
ag1611
ag510
ag691
ag1106
ag100
ag1107
ag822
ag1381
ag807
ag780
ag868
ag1215
ag1593
ag235
ag1291
ag1022
ag1169
ag542
ag906
ag305
ag137
ag1545
ag485
ag428
ag1361
ag361
ag800
ag92
ag970
ag1151
ag636
ag405
ag330
ag610
ag1288
ag1202
ag1060
ag1200
ag17
ag1392
ag786
ag1316
ag1479
ag1284
ag1535
ag1025
ag143
ag298
ag1347
ag1555
ag48
ag640
ag1114
ag1067
ag1400
ag24
ag1636
ag345
ag1283
ag1292
ag89
ag319
ag278
ag82
ag1281
ag913
ag781
ag1503
ag234
ag802
ag419
ag728
ag482
ag348
ag737
ag272
ag1179
ag58
ag519
ag987
ag51
ag1271
ag35
ag179
ag1309
ag1234
ag1506
ag1197
ag492
ag314
ag684
ag360
ag1505
ag183
ag701
ag1349
ag673
ag1352
ag45
ag79
ag75
ag1320
ag1437
ag240
ag1286
ag562
ag18
ag140
ag103
ag211
ag1033
ag540
ag555
ag558
ag1363
ag1124
ag1088
ag1198
ag654
ag128
ag858
ag351
ag108
ag1071
ag1398
ag1015
ag1265
ag803
ag1623
ag1013
ag1220
ag602
ag600
ag896
ag925
ag950
ag1534
ag1172
ag438
ag513
ag977
ag841
ag1305
ag764
ag427
ag989
ag394
ag798
ag525
ag575
ag820
ag1596
ag1508
ag1024
ag146
ag205
ag426
ag1606
ag1476
ag274
ag1346
ag1301
ag854
ag1203
ag1466
ag392
ag653
ag44
ag1075
ag1299
ag262
ag241
ag331
ag1438
ag1178
ag1253
ag574
ag478
ag460
ag596
ag149
ag1620
ag1119
ag720
ag1428
ag1342
ag253
ag1372
ag506
ag885
ag812
ag1254
ag112
ag111
ag518
ag1035
ag374
ag96
ag139
ag647
ag475
ag236
ag1191
ag1120
ag777
ag1465
ag180
ag916
ag785
ag714
ag1553
ag1527
ag98
ag468
ag974
ag332
ag27
ag652
ag597
ag411
ag42
ag1313
ag1371
ag692
ag1171
ag8
ag1458
ag826
ag449
ag772
ag336
ag549
ag15
ag626
ag1416
ag1003
ag385
ag1338
ag1324
ag782
ag857
ag774
ag1350
ag152
ag837
ag571
ag1597
ag129
ag281
ag1259
ag495
ag1326
ag1153
ag328
ag1424
ag324
ag853
ag1239
ag1389
ag674
ag1327
ag214
ag1502
ag963
ag613
ag731
ag1344
ag1563
ag21
ag1448
ag219
ag220
ag1310
ag439
ag1026
ag109
ag634
ag730
ag464
ag270
ag104
ag1522
ag1001
ag1144
ag479
ag927
ag1249
ag532
ag911
ag1274
ag1237
ag1260
ag656
ag1519
ag1616
ag790
ag929
ag1051
ag198
ag66
ag1473
ag587
ag709
ag743
ag839
ag164
ag144
ag1126
ag304
ag844
ag1598
ag765
ag1272
ag309
ag483
ag391
ag393
ag928
ag1646
ag886
ag1149
ag1571
ag1570
ag666
ag1230
ag1273
ag828
ag1251
ag1250
ag166
ag1213
ag1369
ag787
ag878
ag1426
ag1412
ag1634
ag1109
ag1112
ag534
ag125
ag246
ag557
ag349
ag1586
ag1041
ag505
ag669
ag1491
ag1360
ag1052
ag442
ag1423
ag1639
ag1482
ag1354
ag1422
ag1262
ag1558
ag642
ag865
ag847
ag995
ag1492
ag46
ag1538
ag1221
ag1090
ag792
ag1528
ag795
ag794
ag1091
ag1430
ag1415
ag1483
ag342
ag343
ag334
ag339
ag1049
ag454
ag1111
ag481
ag569
ag889
ag799
ag1562
ag341
ag41
ag1539
ag171
ag804
ag301
ag11
ag1619
ag1600
ag1513
ag1366
ag704
ag919
ag1314
ag660
ag1615
ag944
ag869
ag945
ag289
ag1395
ag308
ag1081
ag1289
ag546
ag938
ag228
ag517
ag1632
ag39
ag1080
ag1559
ag1511
ag981
ag459
ag52
ag124
ag1471
ag1442
ag990
ag937
ag375
ag706
ag1516
ag1190
ag813
ag1599
ag1485
ag1182
ag668
ag265
ag763
ag739
ag74
ag500
ag1322
ag1002
ag770
ag1607
ag698
ag1504
ag1328
ag589
ag687
ag1501
ag443
ag170
ag90
ag297
ag611
ag565
ag77
ag465
ag155
ag1610
ag1199
ag881
ag909
ag261
ag498
ag738
ag182
ag1353
ag1418
ag452
ag56
ag1408
ag662
ag57
ag1468
ag61
ag414
ag1443
ag497
ag208
ag721
ag547
ag629
ag378
ag199
ag156
ag167
ag503
ag1056
ag299
ag273
ag1549
ag638
ag933
ag529
ag1165
ag554
ag195
ag217
ag515
ag251
ag643
ag1546
ag665
ag543
ag1095
ag760
ag404
ag1489
ag872
ag1140
ag1533
ag150
ag1642
ag617
ag835
ag1097
ag999
ag768
ag1365
ag603
ag1246
ag891
ag550
ag67
ag877
ag329
ag356
ag967
ag250
ag788
ag655
ag740
ag97
ag1123
ag1635
ag1475
ag1630
ag474
ag83
ag1629
ag1640
ag263
ag362
ag1034
ag1436
ag1021
ag1574
ag1490
ag1391
ag231
ag1293
ag1336
ag1334
ag1333
ag1337
ag712
ag142
ag130
ag1645
ag1644
ag1627
ag1493
ag1364
ag25
ag1378
ag1276
ag1059
ag1058
ag635
ag1031
ag1030
ag181
ag1624
ag1589
ag846
ag1245
ag476
ag110
ag1388
ag750
ag191
ag1102
ag1207
ag670
ag161
ag566
ag678
ag1164
ag870
ag172
ag353
ag313
ag936
ag1275
ag594
ag218
ag1193
ag784
ag756
ag1315
ag352
ag649
ag1211
ag978
ag1351
ag694
ag1128
ag456
ag169
ag1557
ag1457
ag1379
ag1376
ag1303
ag151
ag1515
ag34
ag1556
ag223
ag463
ag883
ag23
ag421
ag942
ag830
ag1173
ag861
ag1547
ag917
ag966
ag184
ag448
ag806
ag204
ag1325
ag663
ag1560
ag577
ag819
ag294
ag145
ag827
ag20
ag441
ag1004
ag117
ag922
ag1576
ag991
ag158
ag884
ag14
ag545
ag115
ag268
ag1427
ag516
ag369
ag1255
ag628
ag1431
ag450
ag88
ag1009
ag1435
ag26
ag1183
ag359
ag1579
ag715
ag388
ag1356
ag477
ag601
ag1143
ag863
ag480
ag659
ag1417
ag930
ag59
ag696
ag202
ag725
ag1217
ag453
ag1377
ag303
ag175
ag1005
ag651
ag1410
ag1439
ag434
ag556
ag1339
ag1209
ag1029
ag266
ag1264
ag242
ag1110
ag1236
ag1409
ag1141
ag335
ag249
ag1588
ag608
ag1406
ag400
ag337
ag648
ag437
ag1419
ag159
ag1064
ag762
ag1517
ag491
ag623
ag1542
ag344
ag723
ag1470
ag1552
ag1279
ag238
ag564
ag1062
ag1302
ag1403
ag462
ag595
ag1638
ag1621
ag62
ag1394
ag690
ag579
ag186
ag972
ag951
ag412
ag622
ag1186
ag897
ag493
ag1121
ag1127
ag1569
ag1604
ag1321
ag1601
ag1318
ag639
ag490
ag413
ag848
ag631
ag1432
ag890
ag551
ag1066
ag866
ag522
ag1469
ag123
ag163
ag395
ag1397
ag1194
ag867
ag880
ag609
ag71
ag993
ag975
ag1582
ag1581
ag382
ag1580
ag201
ag1399
ag1065
ag521
ag10
ag583
ag410
ag1105
ag1048
ag1285
ag284
ag1390
ag285
ag258
ag386
ag971
ag269
ag1575
ag1590
ag982
ag47
ag136
ag588
ag425
ag1467
ag165
ag1083
ag322
ag939
ag996
ag953
ag160
ag1268
ag1125
ag1074
ag333
ag1257
ag1043
ag282
ag114
ag346
ag1218
ag264
ag677
ag1540
ag365
ag1241
ag1385
ag1188
ag976
ag1592
ag1063
ag247
ag376
ag445
ag398
ag87
ag1158
ag918
ag1603
ag619
ag420
ag1643
ag1486
ag33
ag536
ag1266
ag1175
ag1224
ag744
ag702
ag1053
ag650
ag120
ag699
ag903
ag1497
ag1263
ag1359
ag954
ag592
ag292
ag1129
ag316
ag544
ag436
ag1187
ag1212
ag1100
ag466
ag326
ag1357
ag755
ag1572
ag1396
ag70
ag1461
ag1543
ag823
ag956
ag1073
ag1269
ag1304
ag1628
ag960
ag979
ag325
ag1499
ag1137
ag1332
ag320
ag1231
ag409
ag793
ag327
ag783
ag300
ag797
ag1425
ag1205
ag162
ag302
ag1386
ag424
ag489
ag315
ag1414
ag1176
ag473
ag766
ag379
ag983
ag1086
ag887
ag644
ag1148
ag908
ag403
ag227
ag371
ag37
ag898
ag851
ag290
ag355
ag713
ag664
ag969
ag805
ag576
ag28
ag625
ag1648
ag829
ag1641
ag552
ag1526
ag1104
ag1132
ag381
ag1311
ag1181
ag209
ag1625
ag907
ag1223
ag1222
ag1459
ag1133
ag1037
ag1631
ag1167
ag1383
ag1130
ag949
ag585
ag882
ag1317
ag293
ag563
ag215
ag1384
ag1488
ag553
ag1270
ag1510
ag358
ag487
ag801
ag85
ag389
ag1585
ag627
ag864
ag471
ag13
ag957
ag9
ag1401
ag624
ag423
ag257
ag447
ag1341
ag1032
ag121
ag879
ag1520
ag1429
ag1008
ag685
ag1011
ag243
ag838
ag288
ag1094
ag732
ag53
ag509
ag1027
ag947
ag291
ag1433
ag1454
ag796
ag1163
ag808
ag810
ag910
ag499
ag1228
ag377
ag1478
ag133
ag1280
ag1103
ag580
ag1047
ag573
ag1622
ag1355
ag1297
ag727
ag197
ag1287
ag307
ag1335
ag568
ag148
ag711
ag76
ag747
ag1000
ag1014
ag745
ag1411
ag527
ag746
ag843
ag842
ag488
ag688
ag317
ag734
ag407
ag1380
ag1370
ag1204
ag661
ag776
ag1587
ag1160
ag946
ag1445
ag1573
ag615
ag1214
ag472
ag132
ag417
ag703
ag753
ag686
ag244
ag1447
ag1434
ag507
ag1647
ag899
ag1455
ag719
ag1192
ag1382
ag31
ag538
ag364
ag646
ag1298
ag1040
ag1154
ag1180
ag390
ag754
ag998
ag94
ag742
ag1343
ag29
ag752
ag283
ag501
ag176
ag590
ag1387
ag350
ag591
ag1407
ag736
ag1019
ag759
ag567
ag1195
ag1550
ag616
ag1078
ag1362
ag1358
ag68
ag612
ag396
ag384
ag153
ag340
ag955
ag245
ag948
ag1609
ag1156
ag1477
ag676
ag1155
ag940
ag902
ag1529
ag809
ag49
ag705
ag924
ag682
ag904
ag598
ag1498
ag1082
ag210
ag1233
ag1536
ag1096
ag416
ag440
ag1042
ag32
ag535
ag1393
ag1463
ag275
ag530
ag457
ag1449
ag775
ag539
ag1532
ag1098
ag126
ag1116
ag675
ag570
ag134
ag1525
ag599
ag729
ag1252
ag141
ag1117
ag632
ag604
ag430
ag431
ag681
ag934
ag138
ag1216
ag726
ag778
ag95
ag1159
ag255
ag1072
ag1548
ag1238
ag825
ag86
ag1480
ag233
ag672
ag758
ag1444
ag1101
ag840
ag1524
ag368
ag116
ag630
ag1290
ag1256
ag871
ag60
ag834
ag1108
ag986
ag1577
ag901
ag1374
ag1456
ag741
ag973
ag287
ag347
ag399
ag831
ag1446
ag548
ag620
ag850
ag1023
ag1225
ag531
ag1235
ag708
ag905
ag252
ag1367
ag192
ag1219
ag256
ag1174
ag852
ag306
ag523
ag1206
ag177
ag814
ag1462
ag260
ag584
ag73
ag761
ag38
ag1242
ag1421
ag1054
ag30
ag980
ag586
ag733
ag296
ag22
ag779
ag994
ag1157
ag1050
ag849
ag185
ag470
ag1512
ag1161
ag65
ag767
ag859
ag406
ag446
ag1500
ag680
ag1530
ag1134
ag815
ag952
ag1139
ag435
ag985
ag1464
ag212
ag1020
ag1150
ag964
ag988
ag912
ag931
ag1135
ag932
ag1608
ag91
ag366
ag1240
ag1565
ag1184
ag78
ag370
ag1084
ag935
ag873
ag1633
ag958
ag816
ag72
ag1170
ag923
ag451
ag230
ag1308
ag965
ag422
ag1626
ag641
ag1487
ag1028
ag992
ag836
ag1453
ag1584
ag1484
ag512
ag658
ag941
ag206
ag1038
ag1613
ag127
ag920
ag467
ag81
ag1514
ag1061
ag1069
ag1278
ag312
ag1012
ag119
ag1518
ag188
ag1568
ag528
ag1093
ag63
ag1092
ag578
ag1166
ag921
ag824
ag657
ag1561
ag1595
ag968
ag295
ag614
ag833
ag605
ag224
ag1618
ag194
ag874
ag621
ag213
ag1494
ag1055
ag16
ag1131
ag1177
ag415
ag461
ag1243
ag1247
ag751
ag749
ag1450
ag189
ag1340
ag55
ag926
ag338
ag1373
ag173
ag582
ag147
ag520
ag511
ag1330
ag1413
ag769
ag387
ag892
ag1405
ag735
ag1085
ag433
ag203
ag821
ag50
ag1036
ag54
ag1145
ag40
ag237
ag915
ag1185
ag222
ag1605
ag363
ag402
ag135
ag961
ag1578
ag226
ag572
ag997
ag895
ag196
ag771
ag1146
ag229
ag1554
ag679
ag372
ag607
ag496
ag444
ag380
ag689
asS'separator'
p1653
S'='
sS'sparse'
p1654
I01
sb.