ccopy_reg
_reconstructor
p1
(csklearn.feature_extraction.dict_vectorizer
DictVectorizer
p2
c__builtin__
object
p3
NtRp4
(dp5
S'sort'
p6
I01
sS'feature_names_'
p7
(lp8
S'advmod=already'
p9
aS'advmod=also'
p10
aS'advmod=certainly'
p11
aS'advmod=even'
p12
aS'advmod=eventually'
p13
aS'advmod=instead'
p14
aS'advmod=much'
p15
aS'advmod=now'
p16
aS'advmod=often'
p17
aS'advmod=where'
p18
aS'amod=american'
p19
aS'amod=biblical'
p20
aS'amod=constant'
p21
aS'amod=enormous'
p22
aS'amod=further'
p23
aS'amod=hard'
p24
aS'amod=heroic'
p25
aS'amod=incredible'
p26
aS'amod=lot'
p27
aS'amod=more'
p28
aS'amod=painful'
p29
aS'amod=personal'
p30
aS'amod=senegal'
p31
aS'amod=terrible'
p32
aS'amod=tough'
p33
aS'amod=ultimate'
p34
aS'aux=be'
p35
aS'aux=can'
p36
aS'aux=have'
p37
aS'aux=to'
p38
aS'aux=will'
p39
aS'auxpass=be'
p40
aS'cc=and'
p41
aS'cc=but'
p42
aS'cc=or'
p43
aS'ccomp=operation'
p44
aS'ccomp=say'
p45
aS'complm=that'
p46
aS'conj=confront'
p47
aS'conj=depend'
p48
aS'conj=part'
p49
aS'conj=perseverance'
p50
aS'conj=prayer'
p51
aS'conj=sacrifice'
p52
aS'conj=those'
p53
aS'cop=be'
p54
aS'dep=at'
p55
aS'dep=both'
p56
aS'dep=kill'
p57
aS'det=a'
p58
aS'det=some'
p59
aS'det=the'
p60
aS'det=this'
p61
aS'dobj=#PRP#'
p62
aS'dobj=animal'
p63
aS'dobj=blood'
p64
aS'dobj=competitiveness'
p65
aS'dobj=content'
p66
aS'dobj=deal'
p67
aS'dobj=ease'
p68
aS'dobj=growth'
p69
aS'dobj=health'
p70
aS'dobj=job'
p71
aS'dobj=lamb'
p72
aS'dobj=life'
p73
aS'dobj=lot'
p74
aS'dobj=much'
p75
aS'dobj=pride'
p76
aS'dobj=problem'
p77
aS'dobj=security'
p78
aS'dobj=son'
p79
aS'dobj=speech'
p80
aS'dobj=stability'
p81
aS'dobj=tradition'
p82
aS'dobj=well-being'
p83
aS'dobj=what'
p84
aS'expl=there'
p85
aS'mark=because'
p86
aS'mark=like'
p87
aS'neg=never'
p88
aS'neg=not'
p89
aS'nn=sheep'
p90
aS'nsubj=#NUMBER#'
p91
aS'nsubj=#PRP#'
p92
aS'nsubj=Abraham'
p93
aS'nsubj=Americans'
p94
aS'nsubj=Muslims'
p95
aS'nsubj=child'
p96
aS'nsubj=people'
p97
aS'nsubj=that'
p98
aS'nsubj=thing'
p99
aS'nsubj=troops'
p100
aS'nsubj=who'
p101
aS'nsubjpass=that'
p102
aS'partmod=lead'
p103
aS'partmod=need'
p104
aS'poss=#PRP#'
p105
aS'poss=army'
p106
aS'poss=son'
p107
aS'poss=whose'
p108
aS'preconj=either'
p109
aS'prep=about'
p110
aS'prep=at'
p111
aS'prep=for'
p112
aS'prep=from'
p113
aS'prep=in'
p114
aS'prep=of'
p115
aS'prep=on'
p116
aS'purpcl=kill'
p117
aS'rcmod=entail'
p118
aS'rcmod=have'
p119
aS'rcmod=make'
p120
aS'rcmod=need'
p121
aS'rcmod=prepare'
p122
aS'rcmod=require'
p123
aS'rcmod=take'
p124
aS'rel=during'
p125
aS'rel=for'
p126
aS"w+1=''"
p127
aS'w+1=,'
p128
aS'w+1=.'
p129
aS'w+1=;'
p130
aS'w+1=Europe'
p131
aS'w+1=United'
p132
aS'w+1=a'
p133
aS'w+1=and'
p134
aS'w+1=as'
p135
aS'w+1=at'
p136
aS'w+1=be'
p137
aS'w+1=big'
p138
aS'w+1=by'
p139
aS'w+1=do'
p140
aS'w+1=ease'
p141
aS'w+1=even'
p142
aS'w+1=for'
p143
aS'w+1=free'
p144
aS'w+1=from'
p145
aS'w+1=global'
p146
aS'w+1=growth'
p147
aS'w+1=he'
p148
aS'w+1=himself'
p149
aS'w+1=instead'
p150
aS'w+1=it'
p151
aS'w+1=job'
p152
aS'w+1=just'
p153
aS'w+1=lead'
p154
aS'w+1=lie'
p155
aS'w+1=make'
p156
aS'w+1=more'
p157
aS'w+1=mount'
p158
aS'w+1=must'
p159
aS'w+1=my'
p160
aS'w+1=necessary'
p161
aS'w+1=of'
p162
aS'w+1=on'
p163
aS'w+1=other'
p164
aS'w+1=principle'
p165
aS'w+1=protect'
p166
aS'w+1=so'
p167
aS'w+1=than'
p168
aS'w+1=that'
p169
aS'w+1=the'
p170
aS'w+1=themselves'
p171
aS'w+1=they'
p172
aS'w+1=to'
p173
aS'w+1=too'
p174
aS'w+1=we'
p175
aS'w+1=will'
p176
aS"w+2=''"
p177
aS"w+2='s"
p178
aS'w+2=,'
p179
aS'w+2=.'
p180
aS'w+2=Afghanistan'
p181
aS'w+2=Iraq'
p182
aS'w+2=Nations'
p183
aS'w+2=U.S.'
p184
aS'w+2=ahead'
p185
aS'w+2=all'
p186
aS'w+2=and'
p187
aS'w+2=animal'
p188
aS'w+2=appease'
p189
aS'w+2=as'
p190
aS'w+2=be'
p191
aS'w+2=blood'
p192
aS'w+2=bring'
p193
aS'w+2=british'
p194
aS'w+2=but'
p195
aS'w+2=content'
p196
aS'w+2=country'
p197
aS'w+2=economic'
p198
aS'w+2=entail'
p199
aS'w+2=essential'
p200
aS'w+2=for'
p201
aS'w+2=great'
p202
aS'w+2=he'
p203
aS'w+2=health'
p204
aS'w+2=justice'
p205
aS'w+2=kill'
p206
aS'w+2=lamb'
p207
aS'w+2=lay'
p208
aS'w+2=life'
p209
aS'w+2=lot'
p210
aS'w+2=make'
p211
aS'w+2=much'
p212
aS'w+2=my'
p213
aS'w+2=necessary'
p214
aS'w+2=need'
p215
aS'w+2=not'
p216
aS'w+2=now'
p217
aS'w+2=of'
p218
aS'w+2=on'
p219
aS'w+2=other'
p220
aS'w+2=perseverance'
p221
aS'w+2=pilgrimage'
p222
aS'w+2=play'
p223
aS'w+2=prayer'
p224
aS'w+2=present'
p225
aS'w+2=pride'
p226
aS'w+2=problem'
p227
aS'w+2=protect'
p228
aS'w+2=sheep'
p229
aS'w+2=short-term'
p230
aS'w+2=some'
p231
aS'w+2=son'
p232
aS'w+2=speech'
p233
aS'w+2=stability'
p234
aS'w+2=that'
p235
aS'w+2=the'
p236
aS'w+2=they'
p237
aS'w+2=those'
p238
aS'w+2=to'
p239
aS'w+2=try'
p240
aS'w+2=we'
p241
aS'w+2=well-being'
p242
aS'w+2=white'
p243
aS'w+2=who'
p244
aS'w+2=will'
p245
aS'w+2=yet'
p246
aS'w+2=you'
p247
aS"w-1='s"
p248
aS'w-1=,'
p249
aS'w-1=.'
p250
aS'w-1=I'
p251
aS'w-1=a'
p252
aS'w-1=already'
p253
aS'w-1=also'
p254
aS'w-1=american'
p255
aS'w-1=and'
p256
aS'w-1=be'
p257
aS'w-1=constant'
p258
aS'w-1=enormous'
p259
aS'w-1=eventually'
p260
aS'w-1=for'
p261
aS'w-1=further'
p262
aS'w-1=hard'
p263
aS'w-1=have'
p264
aS'w-1=he'
p265
aS'w-1=heroic'
p266
aS'w-1=incredible'
p267
aS'w-1=into'
p268
aS'w-1=less'
p269
aS'w-1=mean'
p270
aS'w-1=more'
p271
aS'w-1=never'
p272
aS'w-1=not'
p273
aS'w-1=offer'
p274
aS'w-1=often'
p275
aS'w-1=painful'
p276
aS'w-1=personal'
p277
aS'w-1=senegal'
p278
aS'w-1=sheep'
p279
aS'w-1=some'
p280
aS'w-1=terrible'
p281
aS'w-1=that'
p282
aS'w-1=the'
p283
aS'w-1=they'
p284
aS'w-1=throw'
p285
aS'w-1=to'
p286
aS'w-1=tough'
p287
aS'w-1=ultimate'
p288
aS'w-1=we'
p289
aS'w-1=where'
p290
aS'w-1=who'
p291
aS'w-1=whose'
p292
aS'w-1=will'
p293
aS'w-1=without'
p294
aS"w-2=''"
p295
aS'w-2=,'
p296
aS'w-2=Abraham'
p297
aS'w-2=I'
p298
aS'w-2=Iraqis'
p299
aS'w-2=Museum'
p300
aS'w-2=Muslims'
p301
aS'w-2=about'
p302
aS'w-2=and'
p303
aS'w-2=appreciate'
p304
aS'w-2=army'
p305
aS'w-2=as'
p306
aS'w-2=at'
p307
aS'w-2=avoid'
p308
aS'w-2=be'
p309
aS'w-2=biblical'
p310
aS'w-2=can'
p311
aS'w-2=coerce'
p312
aS'w-2=continue'
p313
aS'w-2=courage'
p314
aS'w-2=dependence'
p315
aS'w-2=do'
p316
aS'w-2=either'
p317
aS'w-2=entail'
p318
aS'w-2=fasting'
p319
aS'w-2=for'
p320
aS'w-2=forget'
p321
aS'w-2=from'
p322
aS'w-2=functionality'
p323
aS'w-2=hard'
p324
aS'w-2=have'
p325
aS'w-2=heroism'
p326
aS'w-2=himself'
p327
aS'w-2=honor'
p328
aS'w-2=impose'
p329
aS'w-2=in'
p330
aS'w-2=investment'
p331
aS'w-2=invoke'
p332
aS'w-2=like'
p333
aS'w-2=loss'
p334
aS'w-2=lot'
p335
aS'w-2=make'
p336
aS'w-2=mean'
p337
aS'w-2=merit'
p338
aS'w-2=need'
p339
aS'w-2=of'
p340
aS'w-2=or'
p341
aS'w-2=prayer'
p342
aS'w-2=prefer'
p343
aS'w-2=ram'
p344
aS'w-2=ready'
p345
aS'w-2=recognize'
p346
aS'w-2=risk'
p347
aS'w-2=riverbank'
p348
aS'w-2=say'
p349
aS'w-2=seek'
p350
aS'w-2=service'
p351
aS'w-2=sheep'
p352
aS'w-2=son'
p353
aS'w-2=suffer'
p354
aS'w-2=that'
p355
aS'w-2=the'
p356
aS'w-2=they'
p357
aS'w-2=this'
p358
aS'w-2=those'
p359
aS'w-2=to'
p360
aS'w-2=troops'
p361
aS'w-2=unselfishness'
p362
aS'w-2=we'
p363
aS'w-2=what'
p364
aS'w-2=will'
p365
aS'w-2=willing'
p366
aS'w-2=woman'
p367
aS'w-2=work'
p368
aS'w-2=would'
p369
aS'w-2=you'
p370
aS'xcomp=achieve'
p371
aS'xcomp=appease'
p372
aS'xcomp=avoid'
p373
aS'xcomp=celebrate'
p374
aS'xcomp=prop'
p375
aS'xcomp=protect'
p376
aS'xcomp=put'
p377
asS'dtype'
p378
cnumpy
float64
p379
sS'vocabulary_'
p380
(dp381
g315
I306
sg11
I2
sg227
I218
sg301
I292
sg204
I195
sg75
I66
sg96
I87
sg119
I110
sg87
I78
sg195
I186
sg258
I249
sg199
I190
sg31
I22
sg339
I330
sg357
I348
sg194
I185
sg169
I160
sg50
I41
sg168
I159
sg95
I86
sg322
I313
sg174
I165
sg363
I354
sg270
I261
sg293
I284
sg222
I213
sg106
I97
sg232
I223
sg257
I248
sg13
I4
sg312
I303
sg233
I224
sg331
I322
sg356
I347
sg152
I143
sg347
I338
sg153
I144
sg86
I77
sg197
I188
sg162
I153
sg239
I230
sg163
I154
sg280
I271
sg213
I204
sg264
I255
sg200
I191
sg352
I343
sg314
I305
sg132
I123
sg319
I310
sg244
I235
sg344
I335
sg183
I174
sg278
I269
sg110
I101
sg36
I27
sg83
I74
sg64
I55
sg107
I98
sg245
I236
sg371
I362
sg292
I283
sg66
I57
sg355
I346
sg290
I281
sg338
I329
sg33
I24
sg320
I311
sg34
I25
sg373
I364
sg172
I163
sg253
I244
sg188
I179
sg114
I105
sg230
I221
sg143
I134
sg310
I301
sg348
I339
sg32
I23
sg134
I125
sg29
I20
sg321
I312
sg255
I246
sg72
I63
sg221
I212
sg201
I192
sg164
I155
sg302
I293
sg98
I89
sg366
I357
sg243
I234
sg61
I52
sg241
I232
sg193
I184
sg229
I220
sg283
I274
sg26
I17
sg350
I341
sg263
I254
sg103
I94
sg277
I268
sg368
I359
sg216
I207
sg69
I60
sg18
I9
sg210
I201
sg19
I10
sg181
I172
sg131
I122
sg297
I288
sg52
I43
sg323
I314
sg60
I51
sg100
I91
sg126
I117
sg206
I197
sg341
I332
sg101
I92
sg340
I331
sg286
I277
sg14
I5
sg62
I53
sg316
I307
sg300
I291
sg377
I368
sg135
I126
sg136
I127
sg44
I35
sg148
I139
sg305
I296
sg186
I177
sg171
I162
sg362
I353
sg269
I260
sg102
I93
sg156
I147
sg51
I42
sg59
I50
sg313
I304
sg271
I262
sg345
I336
sg124
I115
sg285
I276
sg112
I103
sg175
I166
sg82
I73
sg30
I21
sg79
I70
sg190
I181
sg40
I31
sg267
I258
sg268
I259
sg248
I239
sg90
I81
sg21
I12
sg67
I58
sg15
I6
sg91
I82
sg158
I149
sg115
I106
sg262
I253
sg47
I38
sg223
I214
sg84
I75
sg359
I350
sg160
I151
sg299
I290
sg74
I65
sg49
I40
sg327
I318
sg259
I250
sg295
I286
sg109
I100
sg218
I209
sg246
I237
sg219
I210
sg173
I164
sg372
I363
sg256
I247
sg211
I202
sg167
I158
sg55
I46
sg155
I146
sg375
I366
sg234
I225
sg266
I257
sg141
I132
sg279
I270
sg93
I84
sg272
I263
sg337
I328
sg80
I71
sg214
I205
sg217
I208
sg318
I309
sg17
I8
sg369
I360
sg212
I203
sg118
I109
sg238
I229
sg198
I189
sg242
I233
sg57
I48
sg185
I176
sg228
I219
sg12
I3
sg71
I62
sg376
I367
sg39
I30
sg9
I0
sg85
I76
sg97
I88
sg43
I34
sg361
I352
sg138
I129
sg260
I251
sg330
I321
sg317
I308
sg77
I68
sg351
I342
sg192
I183
sg274
I265
sg65
I56
sg276
I267
sg346
I337
sg177
I168
sg22
I13
sg146
I137
sg10
I1
sg326
I317
sg332
I323
sg367
I358
sg73
I64
sg142
I133
sg215
I206
sg325
I316
sg41
I32
sg196
I187
sg53
I44
sg139
I130
sg123
I114
sg137
I128
sg23
I14
sg364
I355
sg178
I169
sg144
I135
sg231
I222
sg151
I142
sg92
I83
sg127
I118
sg42
I33
sg105
I96
sg288
I279
sg354
I345
sg294
I285
sg99
I90
sg333
I324
sg108
I99
sg154
I145
sg122
I113
sg309
I300
sg121
I112
sg240
I231
sg342
I333
sg116
I107
sg45
I36
sg56
I47
sg81
I72
sg78
I69
sg205
I196
sg202
I193
sg308
I299
sg226
I217
sg328
I319
sg125
I116
sg324
I315
sg235
I226
sg28
I19
sg27
I18
sg180
I171
sg187
I178
sg291
I282
sg104
I95
sg48
I39
sg360
I351
sg94
I85
sg303
I294
sg89
I80
sg120
I111
sg161
I152
sg54
I45
sg166
I157
sg157
I148
sg16
I7
sg349
I340
sg208
I199
sg236
I227
sg111
I102
sg365
I356
sg296
I287
sg203
I194
sg182
I173
sg37
I28
sg165
I156
sg225
I216
sg250
I241
sg249
I240
sg298
I289
sg117
I108
sg307
I298
sg189
I180
sg306
I297
sg149
I140
sg343
I334
sg251
I242
sg46
I37
sg24
I15
sg304
I295
sg70
I61
sg284
I275
sg335
I326
sg58
I49
sg252
I243
sg374
I365
sg336
I327
sg265
I256
sg147
I138
sg145
I136
sg88
I79
sg68
I59
sg353
I344
sg237
I228
sg159
I150
sg76
I67
sg273
I264
sg25
I16
sg247
I238
sg358
I349
sg254
I245
sg184
I175
sg113
I104
sg63
I54
sg220
I211
sg329
I320
sg289
I280
sg38
I29
sg370
I361
sg287
I278
sg261
I252
sg128
I119
sg129
I120
sg281
I272
sg311
I302
sg179
I170
sg275
I266
sg130
I121
sg170
I161
sg140
I131
sg209
I200
sg20
I11
sg224
I215
sg207
I198
sg133
I124
sg176
I167
sg334
I325
sg282
I273
sg35
I26
sg150
I141
sg191
I182
ssS'separator'
p382
S'='
sS'sparse'
p383
I01
sb.