ccopy_reg
_reconstructor
p1
(csklearn.feature_extraction.dict_vectorizer
DictVectorizer
p2
c__builtin__
object
p3
NtRp4
(dp5
S'sort'
p6
I01
sS'feature_names_'
p7
(lp8
S'acomp=less'
p9
aS'acomp=more'
p10
aS'advcl=consume'
p11
aS'advmod=absolutely'
p12
aS'advmod=also'
p13
aS'advmod=anymore'
p14
aS'advmod=close'
p15
aS'advmod=directly'
p16
aS'advmod=frequently'
p17
aS'advmod=here'
p18
aS'advmod=how'
p19
aS'advmod=locally'
p20
aS'advmod=more'
p21
aS'advmod=now'
p22
aS'advmod=often'
p23
aS'advmod=only'
p24
aS'advmod=so'
p25
aS'advmod=when'
p26
aS'aux=be'
p27
aS'aux=can'
p28
aS'aux=do'
p29
aS'aux=have'
p30
aS'aux=might'
p31
aS'aux=to'
p32
aS'aux=will'
p33
aS'aux=would'
p34
aS'auxpass=be'
p35
aS'cc=and'
p36
aS'cc=but'
p37
aS'ccomp=produce'
p38
aS'ccomp=producer'
p39
aS'complm=that'
p40
aS'conj=consume'
p41
aS'conj=sell'
p42
aS'conj=store'
p43
aS'conj=try'
p44
aS'conj=unable'
p45
aS'dep=consume'
p46
aS'dep=project'
p47
aS'dep=say'
p48
aS'dep=that'
p49
aS'dobj=amount'
p50
aS'dobj=bottle'
p51
aS'dobj=crab'
p52
aS'dobj=day'
p53
aS'dobj=energy'
p54
aS'dobj=fuel'
p55
aS'dobj=gram'
p56
aS'dobj=life'
p57
aS'dobj=meat'
p58
aS'dobj=money'
p59
aS'dobj=much'
p60
aS'dobj=oil'
p61
aS'dobj=percent'
p62
aS'dobj=process'
p63
aS'dobj=product'
p64
aS'dobj=quality'
p65
aS'dobj=rice'
p66
aS'dobj=seafood'
p67
aS'dobj=seed'
p68
aS'dobj=sub-continent'
p69
aS'dobj=turmeric'
p70
aS'dobj=water'
p71
aS'dobj=way'
p72
aS'dobj=who'
p73
aS'mark=because'
p74
aS'mark=before'
p75
aS'mark=if'
p76
aS'mark=than'
p77
aS'mark=whereas'
p78
aS'neg=not'
p79
aS'nsubj=#NUMBER#'
p80
aS'nsubj=#PRP#'
p81
aS'nsubj=Americans'
p82
aS'nsubj=Asians'
p83
aS'nsubj=China'
p84
aS'nsubj=States'
p85
aS'nsubj=Trees'
p86
aS'nsubj=animal'
p87
aS'nsubj=country'
p88
aS'nsubj=diving'
p89
aS'nsubj=people'
p90
aS'nsubj=percent'
p91
aS'nsubj=program'
p92
aS'nsubj=speaker'
p93
aS'nsubj=that'
p94
aS'nsubj=those'
p95
aS'nsubj=which'
p96
aS'nsubj=who'
p97
aS'nsubj=world'
p98
aS'nsubjpass=#NUMBER#'
p99
aS'nsubjpass=#PRP#'
p100
aS'nsubjpass=Iraq'
p101
aS'nsubjpass=coffee'
p102
aS'nsubjpass=everybody'
p103
aS'nsubjpass=most'
p104
aS'nsubjpass=percent'
p105
aS'nsubjpass=some'
p106
aS'nsubjpass=which'
p107
aS'partmod=lead'
p108
aS'prep=about'
p109
aS'prep=as'
p110
aS'prep=by'
p111
aS'prep=despite'
p112
aS'prep=during'
p113
aS'prep=for'
p114
aS'prep=from'
p115
aS'prep=in'
p116
aS'prep=not'
p117
aS'prep=of'
p118
aS'prep=than'
p119
aS'prep=to'
p120
aS'prep=with'
p121
aS'tmod=#DATE#'
p122
aS'tmod=day'
p123
aS'tmod=today'
p124
aS'tmod=year'
p125
aS'w+1=,'
p126
aS'w+1=.'
p127
aS'w+1=3'
p128
aS'w+1=50'
p129
aS'w+1=62'
p130
aS'w+1=a'
p131
aS'w+1=about'
p132
aS'w+1=and'
p133
aS'w+1=be'
p134
aS'w+1=by'
p135
aS'w+1=close'
p136
aS'w+1=considerably'
p137
aS'w+1=each'
p138
aS'w+1=every'
p139
aS'w+1=food'
p140
aS'w+1=go'
p141
aS'w+1=here'
p142
aS'w+1=huge'
p143
aS'w+1=in'
p144
aS'w+1=large'
p145
aS'w+1=locally'
p146
aS'w+1=more'
p147
aS'w+1=much'
p148
aS'w+1=only'
p149
aS'w+1=product'
p150
aS'w+1=red'
p151
aS'w+1=rice'
p152
aS'w+1=she'
p153
aS'w+1=some'
p154
aS'w+1=tainted'
p155
aS'w+1=the'
p156
aS'w+1=they'
p157
aS'w+1=today'
p158
aS'w+1=turmeric'
p159
aS'w+1=vastly'
p160
aS'w+1=water'
p161
aS'w+1=with'
p162
aS"w+2=''"
p163
aS'w+2=.'
p164
aS'w+2=10'
p165
aS'w+2=12'
p166
aS'w+2=500'
p167
aS'w+2=80'
p168
aS'w+2=Europe'
p169
aS'w+2=Japan'
p170
aS'w+2=a'
p171
aS'w+2=amount'
p172
aS'w+2=be'
p173
aS'w+2=but'
p174
aS'w+2=by'
p175
aS'w+2=contaminate'
p176
aS'w+2=crab'
p177
aS'w+2=daily'
p178
aS'w+2=day'
p179
aS'w+2=develop'
p180
aS'w+2=every'
p181
aS'w+2=everything'
p182
aS'w+2=finding'
p183
aS'w+2=fossil'
p184
aS'w+2=grow'
p185
aS'w+2=in'
p186
aS'w+2=less'
p187
aS'w+2=life'
p188
aS'w+2=light'
p189
aS'w+2=lighting'
p190
aS'w+2=make'
p191
aS'w+2=may'
p192
aS'w+2=meat'
p193
aS'w+2=meet'
p194
aS'w+2=much'
p195
aS'w+2=not'
p196
aS'w+2=of'
p197
aS'w+2=or'
p198
aS'w+2=own'
p199
aS'w+2=percent'
p200
aS'w+2=political'
p201
aS'w+2=product'
p202
aS'w+2=seafood'
p203
aS'w+2=smaller'
p204
aS'w+2=store'
p205
aS'w+2=sub-continent'
p206
aS'w+2=such'
p207
aS'w+2=taxpayer'
p208
aS'w+2=than'
p209
aS'w+2=the'
p210
aS'w+2=then'
p211
aS'w+2=through'
p212
aS'w+2=to'
p213
aS'w+2=violence'
p214
aS'w+2=war'
p215
aS'w+2=way'
p216
aS'w+2=year'
p217
aS'w-1=,'
p218
aS'w-1=;'
p219
aS'w-1=Americans'
p220
aS'w-1=Iraq'
p221
aS'w-1=States'
p222
aS'w-1=Trees'
p223
aS'w-1=absolutely'
p224
aS'w-1=also'
p225
aS'w-1=and'
p226
aS'w-1=be'
p227
aS'w-1=bottle'
p228
aS'w-1=by'
p229
aS'w-1=can'
p230
aS'w-1=car'
p231
aS'w-1=cocaine'
p232
aS'w-1=country'
p233
aS'w-1=diet'
p234
aS'w-1=directly'
p235
aS'w-1=everything'
p236
aS'w-1=food'
p237
aS'w-1=frequently'
p238
aS'w-1=gasoline'
p239
aS'w-1=have'
p240
aS'w-1=it'
p241
aS'w-1=land'
p242
aS'w-1=medicine'
p243
aS'w-1=meet'
p244
aS'w-1=might'
p245
aS'w-1=not'
p246
aS'w-1=people'
p247
aS'w-1=pramlintide'
p248
aS'w-1=rice'
p249
aS'w-1=seafood'
p250
aS'w-1=so'
p251
aS'w-1=that'
p252
aS'w-1=they'
p253
aS'w-1=to'
p254
aS'w-1=we'
p255
aS'w-1=which'
p256
aS'w-1=who'
p257
aS'w-1=will'
p258
aS'w-1=world'
p259
aS'w-1=would'
p260
aS'w-2=,'
p261
aS'w-2=.'
p262
aS'w-2=1980'
p263
aS'w-2=Asians'
p264
aS'w-2=China'
p265
aS'w-2=Mediterranean'
p266
aS'w-2=United'
p267
aS'w-2=a'
p268
aS'w-2=also'
p269
aS'w-2=and'
p270
aS'w-2=at'
p271
aS'w-2=be'
p272
aS'w-2=because'
p273
aS'w-2=become'
p274
aS'w-2=bloodshed'
p275
aS'w-2=but'
p276
aS'w-2=continue'
p277
aS'w-2=deputy'
p278
aS'w-2=diet'
p279
aS'w-2=disease'
p280
aS'w-2=do'
p281
aS'w-2=drink'
p282
aS'w-2=efficient'
p283
aS'w-2=electricity'
p284
aS'w-2=end'
p285
aS'w-2=everybody'
p286
aS'w-2=gas'
p287
aS'w-2=have'
p288
aS'w-2=healthy'
p289
aS'w-2=human'
p290
aS'w-2=if'
p291
aS'w-2=importer'
p292
aS'w-2=it'
p293
aS'w-2=knowledge'
p294
aS'w-2=lifetime'
p295
aS'w-2=million'
p296
aS'w-2=of'
p297
aS'w-2=on'
p298
aS'w-2=person'
p299
aS'w-2=rebuild'
p300
aS'w-2=seed'
p301
aS'w-2=sell'
p302
aS'w-2=strategy'
p303
aS'w-2=that'
p304
aS'w-2=the'
p305
aS'w-2=they'
p306
aS'w-2=today'
p307
aS'w-2=traditionally'
p308
aS'w-2=way'
p309
aS'w-2=we'
p310
aS'w-2=when'
p311
aS'w-2=which'
p312
aS'w-2=will'
p313
aS'w-2=work'
p314
aS'w-2=world'
p315
aS'w-2=you'
p316
asS'dtype'
p317
cnumpy
float64
p318
sS'vocabulary_'
p319
(dp320
g141
I132
sg96
I87
sg314
I305
sg178
I169
sg16
I7
sg204
I195
sg232
I223
sg21
I12
sg192
I183
sg299
I290
sg310
I301
sg82
I73
sg229
I220
sg298
I289
sg225
I216
sg150
I141
sg86
I77
sg48
I39
sg62
I53
sg38
I29
sg279
I270
sg161
I152
sg169
I160
sg60
I51
sg196
I187
sg77
I68
sg274
I265
sg181
I172
sg248
I239
sg136
I127
sg233
I224
sg174
I165
sg212
I203
sg164
I155
sg295
I286
sg71
I62
sg257
I248
sg195
I186
sg15
I6
sg259
I250
sg102
I93
sg270
I261
sg97
I88
sg123
I114
sg283
I274
sg242
I233
sg224
I215
sg101
I92
sg67
I58
sg269
I260
sg87
I78
sg306
I297
sg119
I110
sg254
I245
sg137
I128
sg111
I102
sg63
I54
sg122
I113
sg55
I46
sg267
I258
sg109
I100
sg65
I56
sg281
I272
sg312
I303
sg116
I107
sg296
I287
sg260
I251
sg75
I66
sg121
I112
sg47
I38
sg186
I177
sg230
I221
sg103
I94
sg29
I20
sg223
I214
sg34
I25
sg249
I240
sg147
I138
sg289
I280
sg251
I242
sg33
I24
sg315
I306
sg94
I85
sg22
I13
sg25
I16
sg11
I2
sg64
I55
sg264
I255
sg99
I90
sg210
I201
sg144
I135
sg85
I76
sg258
I249
sg153
I144
sg261
I252
sg221
I212
sg90
I81
sg231
I222
sg56
I47
sg14
I5
sg203
I194
sg219
I210
sg30
I21
sg276
I267
sg227
I218
sg23
I14
sg151
I142
sg17
I8
sg284
I275
sg218
I209
sg165
I156
sg124
I115
sg166
I157
sg305
I296
sg291
I282
sg18
I9
sg155
I146
sg265
I256
sg98
I89
sg39
I30
sg194
I185
sg271
I262
sg201
I192
sg308
I299
sg12
I3
sg293
I284
sg57
I48
sg277
I268
sg237
I228
sg236
I227
sg28
I19
sg244
I235
sg31
I22
sg222
I213
sg307
I298
sg294
I285
sg26
I17
sg290
I281
sg46
I37
sg286
I277
sg213
I204
sg180
I171
sg91
I82
sg292
I283
sg268
I259
sg184
I175
sg253
I244
sg209
I200
sg54
I45
sg92
I83
sg200
I191
sg243
I234
sg240
I231
sg117
I108
sg107
I98
sg207
I198
sg163
I154
sg88
I79
sg266
I257
sg53
I44
sg138
I129
sg112
I103
sg168
I159
sg13
I4
sg275
I266
sg280
I271
sg59
I50
sg285
I276
sg44
I35
sg35
I26
sg256
I247
sg40
I31
sg160
I151
sg199
I190
sg140
I131
sg68
I59
sg303
I294
sg287
I278
sg10
I1
sg170
I161
sg105
I96
sg288
I279
sg125
I116
sg69
I60
sg36
I27
sg202
I193
sg206
I197
sg41
I32
sg182
I173
sg282
I273
sg175
I166
sg162
I153
sg156
I147
sg148
I139
sg61
I52
sg135
I126
sg134
I125
sg238
I229
sg173
I164
sg37
I28
sg157
I148
sg83
I74
sg167
I158
sg80
I71
sg311
I302
sg110
I101
sg45
I36
sg100
I91
sg129
I120
sg183
I174
sg235
I226
sg211
I202
sg19
I10
sg152
I143
sg20
I11
sg149
I140
sg309
I300
sg43
I34
sg272
I263
sg220
I211
sg177
I168
sg78
I69
sg81
I72
sg132
I123
sg115
I106
sg58
I49
sg42
I33
sg179
I170
sg278
I269
sg214
I205
sg302
I293
sg73
I64
sg120
I111
sg146
I137
sg255
I246
sg32
I23
sg316
I307
sg247
I238
sg50
I41
sg74
I65
sg273
I264
sg217
I208
sg95
I86
sg263
I254
sg189
I180
sg300
I291
sg9
I0
sg159
I150
sg133
I124
sg234
I225
sg130
I121
sg313
I304
sg198
I189
sg239
I230
sg252
I243
sg228
I219
sg104
I95
sg262
I253
sg126
I117
sg127
I118
sg197
I188
sg304
I295
sg128
I119
sg114
I105
sg154
I145
sg216
I207
sg208
I199
sg89
I80
sg106
I97
sg79
I70
sg215
I206
sg205
I196
sg113
I104
sg241
I232
sg131
I122
sg226
I217
sg191
I182
sg142
I133
sg72
I63
sg49
I40
sg84
I75
sg158
I149
sg188
I179
sg172
I163
sg193
I184
sg176
I167
sg245
I236
sg66
I57
sg187
I178
sg185
I176
sg190
I181
sg301
I292
sg246
I237
sg250
I241
sg118
I109
sg52
I43
sg297
I288
sg70
I61
sg51
I42
sg143
I134
sg27
I18
sg24
I15
sg108
I99
sg76
I67
sg171
I162
sg139
I130
sg145
I136
sg93
I84
ssS'separator'
p321
S'='
sS'sparse'
p322
I01
sb.