ccopy_reg
_reconstructor
p1
(csklearn.feature_extraction.dict_vectorizer
DictVectorizer
p2
c__builtin__
object
p3
NtRp4
(dp5
S'sort'
p6
I01
sS'feature_names_'
p7
(lp8
S'advcl=able'
p9
aS'advcl=decline'
p10
aS'advcl=feel'
p11
aS'advmod=abruptly'
p12
aS'advmod=actually'
p13
aS'advmod=all'
p14
aS'advmod=also'
p15
aS'advmod=even'
p16
aS'advmod=ever'
p17
aS'advmod=far'
p18
aS'advmod=how'
p19
aS'advmod=meanwhile'
p20
aS'advmod=now'
p21
aS'advmod=originally'
p22
aS'advmod=really'
p23
aS'advmod=traditionally'
p24
aS'advmod=where'
p25
aS'aux=be'
p26
aS'auxpass=be'
p27
aS'cc=and'
p28
aS'cc=but'
p29
aS'ccomp=account'
p30
aS'ccomp=be'
p31
aS'ccomp=curse'
p32
aS'ccomp=fear'
p33
aS'ccomp=possible'
p34
aS'ccomp=report'
p35
aS'ccomp=use'
p36
aS'complm=that'
p37
aS'conj=anticipate'
p38
aS'conj=be'
p39
aS'conj=call'
p40
aS'conj=criticize'
p41
aS'conj=decide'
p42
aS'conj=delay'
p43
aS'conj=deploy'
p44
aS'conj=disappear'
p45
aS'conj=do'
p46
aS'conj=emerge'
p47
aS'conj=end'
p48
aS'conj=extend'
p49
aS'conj=have'
p50
aS'conj=hire'
p51
aS'conj=integrate'
p52
aS'conj=mean'
p53
aS'conj=postpone'
p54
aS'conj=say'
p55
aS'conj=stall'
p56
aS'conj=use'
p57
aS'dep=delay'
p58
aS'dep=salvation'
p59
aS'dep=though'
p60
aS'dep=who'
p61
aS'dobj=benefit'
p62
aS'dobj=way'
p63
aS'dobj=what'
p64
aS'dobj=which'
p65
aS'dobj=who'
p66
aS'mark=although'
p67
aS'mark=as'
p68
aS'mark=because'
p69
aS'mark=like'
p70
aS'mark=while'
p71
aS'neg=not'
p72
aS'nsubj=#PRP#'
p73
aS'nsubj=that'
p74
aS'nsubjpass=#NUMBER#'
p75
aS'nsubjpass=#PRP#'
p76
aS'nsubjpass=ASEAN'
p77
aS'nsubjpass=Christ'
p78
aS'nsubjpass=Conference'
p79
aS'nsubjpass=Copenhagen'
p80
aS'nsubjpass=Forum'
p81
aS'nsubjpass=Hitimana'
p82
aS'nsubjpass=Iraq'
p83
aS'nsubjpass=Korea'
p84
aS'nsubjpass=Muslims'
p85
aS'nsubjpass=Pakistan'
p86
aS'nsubjpass=Pyongyang'
p87
aS'nsubjpass=Union'
p88
aS'nsubjpass=accord'
p89
aS'nsubjpass=agency'
p90
aS'nsubjpass=attorney'
p91
aS'nsubjpass=band'
p92
aS'nsubjpass=boat'
p93
aS'nsubjpass=candidate'
p94
aS'nsubjpass=class'
p95
aS'nsubjpass=country'
p96
aS'nsubjpass=deal'
p97
aS'nsubjpass=democracy'
p98
aS'nsubjpass=diplomat'
p99
aS'nsubjpass=driver'
p100
aS'nsubjpass=election'
p101
aS'nsubjpass=exercise'
p102
aS'nsubjpass=experiment'
p103
aS'nsubjpass=force'
p104
aS'nsubjpass=government'
p105
aS'nsubjpass=hand'
p106
aS'nsubjpass=hill'
p107
aS'nsubjpass=hiring'
p108
aS'nsubjpass=jazz'
p109
aS'nsubjpass=job'
p110
aS'nsubjpass=journalist'
p111
aS'nsubjpass=light'
p112
aS'nsubjpass=mandate'
p113
aS'nsubjpass=many'
p114
aS'nsubjpass=meeting'
p115
aS'nsubjpass=military'
p116
aS'nsubjpass=of'
p117
aS'nsubjpass=ouster'
p118
aS'nsubjpass=people'
p119
aS'nsubjpass=plan'
p120
aS'nsubjpass=police'
p121
aS'nsubjpass=president'
p122
aS'nsubjpass=process'
p123
aS'nsubjpass=property'
p124
aS'nsubjpass=register'
p125
aS'nsubjpass=rest'
p126
aS'nsubjpass=side'
p127
aS'nsubjpass=soldier'
p128
aS'nsubjpass=some'
p129
aS'nsubjpass=talk'
p130
aS'nsubjpass=that'
p131
aS'nsubjpass=this'
p132
aS'nsubjpass=trial'
p133
aS'nsubjpass=troops'
p134
aS'nsubjpass=village'
p135
aS'nsubjpass=weapon'
p136
aS'nsubjpass=what'
p137
aS'nsubjpass=which'
p138
aS'nsubjpass=who'
p139
aS'nsubjpass=woman'
p140
aS'prep=by'
p141
aS'prep=in'
p142
aS'prep=not'
p143
aS'prep=to'
p144
aS'prep=under'
p145
aS'rel=during'
p146
aS'rel=in'
p147
aS'tmod=month'
p148
aS'tmod=today'
p149
aS'w+1=,'
p150
aS'w+1=I'
p151
aS'w+1=it'
p152
aS'w+1=not'
p153
aS'w+1=open'
p154
aS'w+1=role'
p155
aS'w+1=save'
p156
aS'w+1=the'
p157
aS'w+1=there'
p158
aS'w+1=to'
p159
aS'w+1=weapon'
p160
aS'w+2=,'
p161
aS'w+2=-'
p162
aS'w+2=.'
p163
aS'w+2=I'
p164
aS'w+2=account'
p165
aS'w+2=act'
p166
aS'w+2=address'
p167
aS'w+2=appear'
p168
aS'w+2=assist'
p169
aS'w+2=avail'
p170
aS'w+2=avoid'
p171
aS'w+2=be'
p172
aS'w+2=begin'
p173
aS'w+2=borrow'
p174
aS'w+2=bring'
p175
aS'w+2=by'
p176
aS'w+2=celebrate'
p177
aS'w+2=change'
p178
aS'w+2=come'
p179
aS'w+2=compete'
p180
aS'w+2=continue'
p181
aS'w+2=deal'
p182
aS'w+2=deploy'
p183
aS'w+2=do'
p184
aS'w+2=end'
p185
aS'w+2=establish'
p186
aS'w+2=expire'
p187
aS'w+2=fall'
p188
aS'w+2=focus'
p189
aS'w+2=follow'
p190
aS'w+2=for'
p191
aS'w+2=forbid'
p192
aS'w+2=generate'
p193
aS'w+2=get'
p194
aS'w+2=give'
p195
aS'w+2=go'
p196
aS'w+2=have'
p197
aS'w+2=help'
p198
aS'w+2=in'
p199
aS'w+2=insure'
p200
aS'w+2=kick'
p201
aS'w+2=last'
p202
aS'w+2=launch'
p203
aS'w+2=lead'
p204
aS'w+2=leave'
p205
aS'w+2=lessen'
p206
aS'w+2=limit'
p207
aS'w+2=look'
p208
aS'w+2=make'
p209
aS'w+2=money'
p210
aS'w+2=namely'
p211
aS'w+2=number'
p212
aS'w+2=of'
p213
aS'w+2=open'
p214
aS'w+2=perform'
p215
aS'w+2=play'
p216
aS'w+2=political'
p217
aS'w+2=promise'
p218
aS'w+2=protect'
p219
aS'w+2=provide'
p220
aS'w+2=reinforce'
p221
aS'w+2=relinquish'
p222
aS'w+2=report'
p223
aS'w+2=represent'
p224
aS'w+2=result'
p225
aS'w+2=ride'
p226
aS'w+2=rise'
p227
aS'w+2=serve'
p228
aS'w+2=show'
p229
aS'w+2=sit'
p230
aS'w+2=spend'
p231
aS'w+2=start'
p232
aS'w+2=strengthen'
p233
aS'w+2=supervise'
p234
aS'w+2=take'
p235
aS'w+2=talk'
p236
aS'w+2=tell'
p237
aS'w+2=to'
p238
aS'w+2=travel'
p239
aS'w+2=use'
p240
aS'w+2=vote'
p241
aS'w+2=way'
p242
aS'w+2=whether'
p243
aS"w-1=''"
p244
aS"w-1='s"
p245
aS'w-1=I'
p246
aS'w-1=all'
p247
aS'w-1=also'
p248
aS'w-1=be'
p249
aS'w-1=he'
p250
aS'w-1=military'
p251
aS'w-1=not'
p252
aS'w-1=originally'
p253
aS'w-1=really'
p254
aS'w-1=this'
p255
aS'w-1=we'
p256
aS"w-2=''"
p257
aS'w-2=,'
p258
aS'w-2=-rrb-'
p259
aS'w-2=.'
p260
aS'w-2=300'
p261
aS'w-2=ASEAN'
p262
aS'w-2=Christ'
p263
aS'w-2=Copenhagen'
p264
aS'w-2=Forum'
p265
aS'w-2=Hitimana'
p266
aS'w-2=I'
p267
aS'w-2=Iraq'
p268
aS'w-2=January'
p269
aS'w-2=Korea'
p270
aS'w-2=Maoists'
p271
aS'w-2=November'
p272
aS'w-2=Pakistan'
p273
aS'w-2=Province'
p274
aS'w-2=Pyongyang'
p275
aS'w-2=UN'
p276
aS'w-2=Uganda'
p277
aS'w-2=Union'
p278
aS'w-2=a380'
p279
aS'w-2=agency'
p280
aS'w-2=and'
p281
aS'w-2=attorney'
p282
aS'w-2=band'
p283
aS'w-2=be'
p284
aS'w-2=boat'
p285
aS'w-2=candidate'
p286
aS'w-2=class'
p287
aS'w-2=country'
p288
aS'w-2=deal'
p289
aS'w-2=driver'
p290
aS'w-2=election'
p291
aS'w-2=experiment'
p292
aS'w-2=for'
p293
aS'w-2=force'
p294
aS'w-2=government'
p295
aS'w-2=hand'
p296
aS'w-2=he'
p297
aS'w-2=hill'
p298
aS'w-2=it'
p299
aS'w-2=jazz'
p300
aS'w-2=job'
p301
aS'w-2=journalist'
p302
aS'w-2=mandate'
p303
aS'w-2=meeting'
p304
aS'w-2=not'
p305
aS'w-2=now'
p306
aS'w-2=of'
p307
aS'w-2=people'
p308
aS'w-2=plan'
p309
aS'w-2=police'
p310
aS'w-2=president'
p311
aS'w-2=property'
p312
aS'w-2=prosecutor'
p313
aS'w-2=regime'
p314
aS'w-2=register'
p315
aS'w-2=rights'
p316
aS'w-2=she'
p317
aS'w-2=side'
p318
aS'w-2=talk'
p319
aS'w-2=that'
p320
aS'w-2=the'
p321
aS'w-2=they'
p322
aS'w-2=this'
p323
aS'w-2=trial'
p324
aS'w-2=troops'
p325
aS'w-2=we'
p326
aS'w-2=what'
p327
aS'w-2=which'
p328
aS'w-2=who'
p329
aS'w-2=woman'
p330
aS'w-2=you'
p331
aS'xcomp=act'
p332
aS'xcomp=address'
p333
aS'xcomp=appear'
p334
aS'xcomp=assist'
p335
aS'xcomp=avoid'
p336
aS'xcomp=be'
p337
aS'xcomp=begin'
p338
aS'xcomp=borrow'
p339
aS'xcomp=bring'
p340
aS'xcomp=burn'
p341
aS'xcomp=celebrate'
p342
aS'xcomp=change'
p343
aS'xcomp=close'
p344
aS'xcomp=come'
p345
aS'xcomp=compete'
p346
aS'xcomp=complete'
p347
aS'xcomp=comprise'
p348
aS'xcomp=compromise'
p349
aS'xcomp=confirm'
p350
aS'xcomp=continue'
p351
aS'xcomp=cornerstone'
p352
aS'xcomp=day'
p353
aS'xcomp=deal'
p354
aS'xcomp=deploy'
p355
aS'xcomp=display'
p356
aS'xcomp=do'
p357
aS'xcomp=drag'
p358
aS'xcomp=enact'
p359
aS'xcomp=end'
p360
aS'xcomp=establish'
p361
aS'xcomp=experience'
p362
aS'xcomp=expire'
p363
aS'xcomp=expose'
p364
aS'xcomp=fall'
p365
aS'xcomp=focus'
p366
aS'xcomp=follow'
p367
aS'xcomp=forbid'
p368
aS'xcomp=free'
p369
aS'xcomp=generate'
p370
aS'xcomp=get'
p371
aS'xcomp=give'
p372
aS'xcomp=go'
p373
aS'xcomp=happy'
p374
aS'xcomp=have'
p375
aS'xcomp=help'
p376
aS'xcomp=hold'
p377
aS'xcomp=housewife'
p378
aS'xcomp=implement'
p379
aS'xcomp=insure'
p380
aS'xcomp=kick'
p381
aS'xcomp=know'
p382
aS'xcomp=launch'
p383
aS'xcomp=lead'
p384
aS'xcomp=leave'
p385
aS'xcomp=legitimacy'
p386
aS'xcomp=lessen'
p387
aS'xcomp=limit'
p388
aS'xcomp=lock'
p389
aS'xcomp=look'
p390
aS'xcomp=make'
p391
aS'xcomp=meeting'
p392
aS'xcomp=music'
p393
aS'xcomp=open'
p394
aS'xcomp=opening'
p395
aS'xcomp=organization'
p396
aS'xcomp=organize'
p397
aS'xcomp=oversee'
p398
aS'xcomp=partnership'
p399
aS'xcomp=perform'
p400
aS'xcomp=phase'
p401
aS'xcomp=play'
p402
aS'xcomp=police'
p403
aS'xcomp=politics'
p404
aS'xcomp=post'
p405
aS'xcomp=prepare'
p406
aS'xcomp=protect'
p407
aS'xcomp=provide'
p408
aS'xcomp=refuge'
p409
aS'xcomp=reinforce'
p410
aS'xcomp=relinquish'
p411
aS'xcomp=represent'
p412
aS'xcomp=result'
p413
aS'xcomp=ride'
p414
aS'xcomp=rise'
p415
aS'xcomp=save'
p416
aS'xcomp=servant'
p417
aS'xcomp=serve'
p418
aS'xcomp=set'
p419
aS'xcomp=short-lived'
p420
aS'xcomp=show'
p421
aS'xcomp=sign'
p422
aS'xcomp=sit'
p423
aS'xcomp=solution'
p424
aS'xcomp=spend'
p425
aS'xcomp=start'
p426
aS'xcomp=strengthen'
p427
aS'xcomp=supervise'
p428
aS'xcomp=take'
p429
aS'xcomp=talk'
p430
aS'xcomp=tell'
p431
aS'xcomp=that'
p432
aS'xcomp=to'
p433
aS'xcomp=travel'
p434
aS'xcomp=troops'
p435
aS'xcomp=use'
p436
aS'xcomp=victory'
p437
aS'xcomp=voice'
p438
aS'xcomp=vote'
p439
aS'xcomp=week'
p440
aS'xcomp=zone'
p441
asS'dtype'
p442
cnumpy
float64
p443
sS'vocabulary_'
p444
(dp445
g114
I105
sg423
I414
sg434
I425
sg85
I76
sg326
I317
sg308
I299
sg119
I110
sg107
I98
sg370
I361
sg212
I203
sg382
I373
sg109
I100
sg70
I61
sg291
I282
sg436
I427
sg240
I231
sg310
I301
sg403
I394
sg47
I38
sg76
I67
sg322
I313
sg125
I116
sg141
I132
sg288
I279
sg381
I372
sg360
I351
sg178
I169
sg413
I404
sg135
I126
sg155
I146
sg196
I187
sg122
I113
sg23
I14
sg22
I13
sg117
I108
sg394
I385
sg121
I112
sg186
I177
sg239
I230
sg207
I198
sg173
I164
sg249
I240
sg95
I86
sg415
I406
sg321
I312
sg372
I363
sg130
I121
sg69
I60
sg329
I320
sg402
I393
sg238
I229
sg202
I193
sg89
I80
sg221
I212
sg168
I159
sg399
I390
sg87
I78
sg60
I51
sg435
I426
sg199
I190
sg170
I161
sg134
I125
sg215
I206
sg388
I379
sg280
I271
sg248
I239
sg37
I28
sg254
I245
sg148
I139
sg52
I43
sg241
I232
sg153
I144
sg438
I429
sg320
I311
sg157
I148
sg235
I226
sg266
I257
sg103
I94
sg357
I348
sg293
I284
sg172
I163
sg336
I327
sg364
I355
sg428
I419
sg84
I75
sg142
I133
sg285
I276
sg424
I415
sg48
I39
sg417
I408
sg400
I391
sg411
I402
sg277
I268
sg144
I135
sg349
I340
sg82
I73
sg361
I352
sg270
I261
sg217
I208
sg354
I345
sg263
I254
sg304
I295
sg179
I170
sg197
I188
sg44
I35
sg401
I392
sg391
I382
sg94
I85
sg345
I336
sg191
I182
sg74
I65
sg295
I286
sg65
I56
sg39
I30
sg409
I400
sg378
I369
sg342
I333
sg166
I157
sg387
I378
sg180
I171
sg25
I16
sg414
I405
sg86
I77
sg340
I331
sg292
I283
sg374
I365
sg275
I266
sg429
I420
sg177
I168
sg143
I134
sg147
I138
sg219
I210
sg20
I11
sg307
I298
sg233
I224
sg41
I32
sg40
I31
sg49
I40
sg245
I236
sg214
I205
sg355
I346
sg131
I122
sg200
I191
sg120
I111
sg375
I366
sg181
I172
sg42
I33
sg243
I234
sg149
I140
sg31
I22
sg366
I357
sg17
I8
sg206
I197
sg160
I151
sg316
I307
sg359
I350
sg12
I3
sg317
I308
sg182
I173
sg175
I166
sg126
I117
sg208
I199
sg236
I227
sg282
I273
sg418
I409
sg314
I305
sg389
I380
sg27
I18
sg237
I228
sg358
I349
sg195
I186
sg171
I162
sg187
I178
sg351
I342
sg386
I377
sg231
I222
sg128
I119
sg158
I149
sg296
I287
sg190
I181
sg32
I23
sg228
I219
sg440
I431
sg264
I255
sg289
I280
sg421
I412
sg216
I207
sg64
I55
sg259
I250
sg244
I235
sg97
I88
sg77
I68
sg75
I66
sg108
I99
sg287
I278
sg156
I147
sg36
I27
sg46
I37
sg273
I264
sg257
I248
sg385
I376
sg213
I204
sg116
I107
sg140
I131
sg159
I150
sg209
I200
sg352
I343
sg50
I41
sg276
I267
sg437
I428
sg81
I72
sg222
I213
sg220
I211
sg104
I95
sg376
I367
sg61
I52
sg210
I201
sg124
I115
sg425
I416
sg312
I303
sg395
I386
sg313
I304
sg383
I374
sg203
I194
sg365
I356
sg344
I335
sg318
I309
sg93
I84
sg332
I323
sg83
I74
sg101
I92
sg328
I319
sg268
I259
sg223
I214
sg16
I7
sg24
I15
sg71
I62
sg430
I421
sg407
I398
sg283
I274
sg192
I183
sg350
I341
sg132
I123
sg265
I256
sg113
I104
sg88
I79
sg325
I316
sg123
I114
sg379
I370
sg302
I293
sg205
I196
sg58
I49
sg426
I417
sg309
I300
sg118
I109
sg286
I277
sg311
I302
sg299
I290
sg184
I175
sg406
I397
sg274
I265
sg105
I96
sg62
I53
sg167
I158
sg169
I160
sg198
I189
sg368
I359
sg165
I156
sg255
I246
sg420
I411
sg15
I6
sg54
I45
sg224
I215
sg67
I58
sg110
I101
sg35
I26
sg330
I321
sg96
I87
sg112
I103
sg230
I221
sg78
I69
sg139
I130
sg371
I362
sg28
I19
sg145
I136
sg269
I260
sg256
I247
sg80
I71
sg92
I83
sg324
I315
sg433
I424
sg55
I46
sg279
I270
sg152
I143
sg73
I64
sg392
I383
sg106
I97
sg127
I118
sg154
I145
sg29
I20
sg204
I195
sg194
I185
sg53
I44
sg232
I223
sg341
I332
sg59
I50
sg242
I233
sg377
I368
sg57
I48
sg348
I339
sg14
I5
sg34
I25
sg303
I294
sg337
I328
sg137
I128
sg398
I389
sg284
I275
sg189
I180
sg99
I90
sg129
I120
sg218
I209
sg390
I381
sg384
I375
sg419
I410
sg111
I102
sg319
I310
sg234
I225
sg146
I137
sg290
I281
sg327
I318
sg161
I152
sg380
I371
sg56
I47
sg281
I272
sg185
I176
sg13
I4
sg43
I34
sg297
I288
sg251
I242
sg362
I353
sg21
I12
sg253
I244
sg373
I364
sg11
I2
sg136
I127
sg258
I249
sg396
I387
sg260
I251
sg271
I262
sg431
I422
sg188
I179
sg100
I91
sg63
I54
sg79
I70
sg305
I296
sg306
I297
sg441
I432
sg267
I258
sg369
I360
sg300
I291
sg201
I192
sg246
I237
sg338
I329
sg102
I93
sg226
I217
sg51
I42
sg410
I401
sg301
I292
sg339
I330
sg138
I129
sg262
I253
sg356
I347
sg211
I202
sg227
I218
sg68
I59
sg408
I399
sg250
I241
sg335
I326
sg45
I36
sg347
I338
sg193
I184
sg422
I413
sg397
I388
sg272
I263
sg405
I396
sg334
I325
sg333
I324
sg229
I220
sg90
I81
sg439
I430
sg343
I334
sg363
I354
sg9
I0
sg346
I337
sg323
I314
sg19
I10
sg261
I252
sg91
I82
sg247
I238
sg404
I395
sg66
I57
sg30
I21
sg174
I165
sg331
I322
sg133
I124
sg33
I24
sg183
I174
sg115
I106
sg416
I407
sg412
I403
sg150
I141
sg427
I418
sg176
I167
sg298
I289
sg18
I9
sg163
I154
sg353
I344
sg98
I89
sg162
I153
sg38
I29
sg72
I63
sg432
I423
sg151
I142
sg278
I269
sg367
I358
sg164
I155
sg315
I306
sg252
I243
sg225
I216
sg294
I285
sg26
I17
sg393
I384
sg10
I1
ssS'separator'
p446
S'='
sS'sparse'
p447
I01
sb.