ccopy_reg
_reconstructor
p1
(csklearn.feature_extraction.dict_vectorizer
DictVectorizer
p2
c__builtin__
object
p3
NtRp4
(dp5
S'vocabulary_'
p6
(dp7
S'w-2=sunshine'
p8
I305
sS'w+1=cleaner'
p9
I96
sS'nsubj=spring'
p10
I73
sS'w+2=sample'
p11
I178
sS'advmod=though'
p12
I10
sS'advmod=up'
p13
I12
sS'w+2=from'
p14
I163
sS'w+2=rainy'
p15
I174
sS'w-2=work'
p16
I322
sS'w-2=project'
p17
I294
sS'w+2=may'
p18
I168
sS'advcl=melt'
p19
I2
sS'prt=out'
p20
I84
sS'w-2=least'
p21
I284
sS'nsubj=revenue'
p22
I71
sS'w+2=unless'
p23
I189
sS'advmod=next'
p24
I6
sS'w+1=out'
p25
I123
sS'w+2=particularly'
p26
I173
sS'w-2=Laundry'
p27
I247
sS'w-1=normally'
p28
I218
sS'w-2=wash'
p29
I317
sS'dep=say'
p30
I39
sS'nsubj=laundry'
p31
I65
sS'nsubj=credit'
p32
I61
sS'w-2=pepper'
p33
I292
sS'dobj=conflict'
p34
I43
sS'w+1=water'
p35
I136
sS'w-2=believe'
p36
I256
sS'nsubj=Funding'
p37
I57
sS'w+2=right'
p38
I177
sS'w-2=business'
p39
I259
sS'w+2=next'
p40
I171
sS'w-1=be'
p41
I198
sS'w+1=condition'
p42
I99
sS'w-1=money'
p43
I216
sS'w-2=into'
p44
I282
sS'w-2=get'
p45
I274
sS'w+2=remote'
p46
I176
sS'w-2=we'
p47
I319
sS'w-2=bundle'
p48
I258
sS'w-2=like'
p49
I286
sS'nsubj=Laundry'
p50
I58
sS'w+2=,'
p51
I142
sS'dobj=towel'
p52
I53
sS'w-1=tax'
p53
I230
sS'w-2=just'
p54
I283
sS'conj=realistic'
p55
I33
sS'w-2=between'
p56
I257
sS'w+2=on'
p57
I172
sS'prep=up'
p58
I82
sS'w-2=need'
p59
I290
sS'w-2=day'
p60
I266
sS'w-2=have'
p61
I277
sS'w-2=damage'
p62
I265
sS'w-1=of'
p63
I221
sS'w-2=that'
p64
I309
sS'w-2=they'
p65
I311
sS'w-2=effect'
p66
I269
sS'w-1=to'
p67
I234
sS'w-2=supply'
p68
I306
sS'w-2=to'
p69
I313
sS'w+2=and'
p70
I149
sS'w-2=fishing'
p71
I273
sS'dobj=sample'
p72
I51
sS'nsubj=much'
p73
I68
sS'w-1=,'
p74
I194
sS'w+1=up'
p75
I135
sS'w+2=airless'
p76
I148
sS'w+2=where'
p77
I190
sS'prep=in'
p78
I79
sS'dobj=flower'
p79
I45
sS'w+1=earlier'
p80
I104
sS'w+2=drier'
p81
I160
sS'w+1=period'
p82
I125
sS'w-1=go'
p83
I206
sS'w-2=Australia'
p84
I245
sS'w-2=cut'
p85
I263
sS'w-2=suit'
p86
I304
sS'cop=be'
p87
I36
sS'dobj=pepper'
p88
I50
sS'w-2=time'
p89
I312
sS'nsubj=farmer'
p90
I62
sS'w+2=bed'
p91
I155
sS'w-2=he'
p92
I278
sS'w-2=scramble'
p93
I296
sS'w+2=straw'
p94
I182
sS'conj=rely'
p95
I34
sS'w-2=make'
p96
I288
sS'aux=will'
p97
I20
sS'w+1=grain'
p98
I111
sS'advmod=now'
p99
I8
sS'w-1=or'
p100
I223
sS'nsubj=line'
p101
I66
sS'w-2=indicate'
p102
I281
sS'w-2=application'
p103
I253
sS'w-1=-rrb-'
p104
I195
sS'w+2=the'
p105
I185
sS'prep=as'
p106
I77
sS'w-1=will'
p107
I239
sS'w-2=,'
p108
I241
sS'w-2=.'
p109
I243
sS'prep=with'
p110
I83
sS'cc=or'
p111
I23
sS'w-1=blood'
p112
I199
sS'w+2=technology'
p113
I183
sS'nsubj=source'
p114
I72
sS'w+2=skull'
p115
I180
sS'w-2=leave'
p116
I285
sS'aux=have'
p117
I18
sS'dobj=demand'
p118
I44
sS'w-2=property'
p119
I295
sS'w-2=cold'
p120
I261
sS'conj=dry'
p121
I30
sS'w+1=mango'
p122
I119
sS'w+2=Iran'
p123
I145
sS'w-2=:'
p124
I244
sS'w-2=previously'
p125
I293
sS'w-2=Dakar'
p126
I246
sS'w+1=spring'
p127
I132
sS'xcomp=study'
p128
I324
sS'w+1=area'
p129
I92
sS'w-2=grass'
p130
I276
sS'dep=drier'
p131
I38
sS'advmod=fairly'
p132
I5
sS'w+2=red'
p133
I175
sS'w-2=cycle'
p134
I264
sS'w-2=in'
p135
I280
sS'w+2=sell'
p136
I179
sS'w+2=arable'
p137
I150
sS'ccomp=be'
p138
I24
sS'w-2=as'
p139
I254
sS'w-1=laundry'
p140
I214
sS'advmod=extremely'
p141
I4
sS'w-1=very'
p142
I238
sS'dobj=foot'
p143
I46
sS'w-1=with'
p144
I240
sS'w+1=corn'
p145
I101
sS'w+2=that'
p146
I184
sS'w+2=large'
p147
I167
sS'w+1=island'
p148
I115
sS'w+1=river'
p149
I127
sS'advcl=stop'
p150
I3
sS'w-2=soon'
p151
I301
sS'w-1=fairly'
p152
I204
sS'cc=also'
p153
I21
sS'w-2=out'
p154
I291
sS'w+2=to'
p155
I188
sS'w+1=on'
p156
I121
sS'w+1=fruit'
p157
I109
sS'w-2=temperature'
p158
I307
sS'w-2=a'
p159
I249
sS'w-1=turn'
p160
I236
sS'w+1=climate'
p161
I97
sS'w+1=or'
p162
I122
sS'nsubj=paint'
p163
I69
sS'dep=that'
p164
I40
sS'w-2=tendency'
p165
I308
sS'w-1=have'
p166
I209
sS'w+1=creek'
p167
I102
sS'w-1=six-month'
p168
I229
sS'w+2=effect'
p169
I161
sS'advmod=normally'
p170
I7
sS'w+2=windy'
p171
I192
sS'w+2=at'
p172
I153
sS"w+2=''"
p173
I140
sS'w+2=in'
p174
I165
sS'nsubj=Tourism'
p175
I59
sS'w-2=and'
p176
I252
sS'w-1=this'
p177
I233
sS'w+2=as'
p178
I152
sS'w+2=it'
p179
I166
sS'dobj=land'
p180
I48
sS'w-1=bone'
p181
I200
sS'w+1=spell'
p182
I131
sS'w-2=may'
p183
I289
sS'w+2=who'
p184
I191
sS'w+1=earth'
p185
I105
sS'w-1=long'
p186
I215
sS'w-2=very'
p187
I316
sS'w-1=could'
p188
I202
sS'w+1=may'
p189
I120
sS'w-2=woman'
p190
I321
sS'aux=can'
p191
I16
sS'complm=that'
p192
I27
sS'w-2=aid'
p193
I250
sS'w-1=one'
p194
I222
sS"w-1='s"
p195
I193
sS'w-1=harsh'
p196
I208
sS'w+1=sage'
p197
I129
sS'w+2=could'
p198
I158
sS'w-1=need'
p199
I217
sS'ccomp=leave'
p200
I25
sS'w+1=food'
p201
I108
sS'conj=keep'
p202
I31
sS'conj=barren'
p203
I29
sS'w-1=paint'
p204
I224
sS'w+2=around'
p205
I151
sS'w+2=need'
p206
I170
sS'w+1=heat'
p207
I113
sS'w+2=then'
p208
I186
sS'w+2=nearby'
p209
I169
sS'w+1=areasit'
p210
I93
sS'cc=and'
p211
I22
sS'nsubj=program'
p212
I70
sS'w+1=weather'
p213
I137
sS'advcl=be'
p214
I0
sS'w-2=Tourism'
p215
I248
sS'nsubj=industry'
p216
I64
sS'mark=as'
p217
I54
sS'w+1=with'
p218
I139
sS'w+1=the'
p219
I134
sS'w-2=use'
p220
I315
sS'w-2=celsius'
p221
I260
sS'w-2=during'
p222
I267
sS'dobj=stream'
p223
I52
sS'w+1=autumn'
p224
I94
sS'w+1=be'
p225
I95
sS'w+2=stable'
p226
I181
sS'w+1=grass'
p227
I112
sS'w+2=be'
p228
I154
sS'w-2=line'
p229
I287
sS'nsubj=money'
p230
I67
sS"w+2='s"
p231
I141
sS'w-1=extremely'
p232
I203
sS'appos=grill'
p233
I14
sS'ccomp=sell'
p234
I26
sS'advmod=too'
p235
I11
sS'w-2=some'
p236
I300
sS'conj=say'
p237
I35
sS'nsubj=temperature'
p238
I75
sS'w+1=rice'
p239
I126
sS'w+1=run'
p240
I128
sS'w-2=shrink'
p241
I298
sS'w-1=it'
p242
I213
sS'w+1=in'
p243
I114
sS'w+1=-lrb-'
p244
I88
sS'nsubj=blood'
p245
I60
sS'w-2=try'
p246
I314
sS'nsubj=#PRP#'
p247
I56
sS'w+1=season'
p248
I130
sS'prep=from'
p249
I78
sS'advmod=out'
p250
I9
sS'w-2=-rrb-'
p251
I242
sS'w-1=produce'
p252
I225
sS'w-2=source'
p253
I302
sS'w-2=expect'
p254
I270
sS'w-1=that'
p255
I231
sS"w+1=''"
p256
I86
sS'prep=to'
p257
I81
sS'w-1=immediate'
p258
I210
sS'aux=to'
p259
I19
sS'w-2=grape'
p260
I275
sS'conj=assess'
p261
I28
sS'w+1=land'
p262
I116
sS'nsubj=fund'
p263
I63
sS'w+2=though'
p264
I187
sS'w+1=summer'
p265
I133
sS'w+1=crocodile'
p266
I103
sS'w+2=have'
p267
I164
sS'w-1=sell'
p268
I228
sS'w-2=watch'
p269
I318
sS'w+1=and'
p270
I91
sS'dobj=access'
p271
I41
sS'w+2=before'
p272
I156
sS'w-2=already'
p273
I251
sS'aux=could'
p274
I17
sS'w-1=for'
p275
I205
sS'w+1=,'
p276
I87
sS'w-2=hot'
p277
I279
sS'w+1=.'
p278
I89
sS'w-2=far'
p279
I272
sS'w+2=.'
p280
I144
sS'w+1=election'
p281
I106
sS'w+1=conflict'
p282
I100
sS'w+2=-'
p283
I143
sS'dobj=fruit'
p284
I47
sS'w-2=ecosystem'
p285
I268
sS'w+1=Australia'
p286
I90
sS'mark=so'
p287
I55
sS'dobj=need'
p288
I49
sS'nsubj=that'
p289
I76
sS'w+2=Sudan'
p290
I146
sS'w-1=a'
p291
I196
sS'w-1=and'
p292
I197
sS'w-2=well'
p293
I320
sS'advcl=do'
p294
I1
sS'prt=up'
p295
I85
sS'w-2=experience'
p296
I271
sS'w+1=leaf'
p297
I117
sS'advmod=very'
p298
I13
sS'w-2=credit'
p299
I262
sS'w+1=flower'
p300
I107
sS'w+2=foot'
p301
I162
sS'w-1=run'
p302
I227
sS'w+1=wine'
p303
I138
sS'w-2=severe'
p304
I297
sS'w-1=in'
p305
I211
sS'w+1=gel'
p306
I110
sS'w-2=the'
p307
I310
sS'w-1=river'
p308
I226
sS'w-1=obtain'
p309
I220
sS'conj=rainy'
p310
I32
sS'w-1=now'
p311
I219
sS'w-2=be'
p312
I255
sS'w-2=space'
p313
I303
sS'w+1=like'
p314
I118
sS'w+2=demand'
p315
I159
sS'w+2=bit'
p316
I157
sS'w+1=pepper'
p317
I124
sS'w-1=industry'
p318
I212
sS'w-1=the'
p319
I232
sS'nsubj=supply'
p320
I74
sS'prep=on'
p321
I80
sS'w-2=skirt'
p322
I299
sS'w-1=use'
p323
I237
sS'w-1=hard'
p324
I207
sS'aux=be'
p325
I15
sS'dep=build'
p326
I37
sS'xcomp=make'
p327
I323
sS'w+1=clothes'
p328
I98
sS'w+2=a'
p329
I147
sS'w-1=too'
p330
I235
sS'dobj=bit'
p331
I42
sS'w-1=can'
p332
I201
ssS'dtype'
p333
cnumpy
float64
p334
sS'feature_names_'
p335
(lp336
g214
ag294
ag19
ag150
ag141
ag132
ag24
ag170
ag99
ag250
ag12
ag235
ag13
ag298
ag233
ag325
ag191
ag274
ag117
ag259
ag97
ag153
ag211
ag111
ag138
ag200
ag234
ag192
ag261
ag203
ag121
ag202
ag310
ag55
ag95
ag237
ag87
ag326
ag131
ag30
ag164
ag271
ag331
ag34
ag118
ag79
ag143
ag284
ag180
ag288
ag88
ag72
ag223
ag52
ag217
ag287
ag247
ag37
ag50
ag175
ag245
ag32
ag90
ag263
ag216
ag31
ag101
ag230
ag73
ag163
ag212
ag22
ag114
ag10
ag320
ag238
ag289
ag106
ag249
ag78
ag321
ag257
ag58
ag110
ag20
ag295
ag256
ag276
ag244
ag278
ag286
ag270
ag129
ag210
ag224
ag225
ag9
ag161
ag328
ag42
ag282
ag145
ag167
ag266
ag80
ag185
ag281
ag300
ag201
ag157
ag306
ag98
ag227
ag207
ag243
ag148
ag262
ag297
ag314
ag122
ag189
ag156
ag162
ag25
ag317
ag82
ag239
ag149
ag240
ag197
ag248
ag182
ag127
ag265
ag219
ag75
ag35
ag213
ag303
ag218
ag173
ag231
ag51
ag283
ag280
ag123
ag290
ag329
ag76
ag70
ag137
ag205
ag178
ag172
ag228
ag91
ag272
ag316
ag198
ag315
ag81
ag169
ag301
ag14
ag267
ag174
ag179
ag147
ag18
ag209
ag206
ag40
ag57
ag26
ag15
ag133
ag46
ag38
ag11
ag136
ag115
ag226
ag94
ag113
ag146
ag105
ag208
ag264
ag155
ag23
ag77
ag184
ag171
ag195
ag74
ag104
ag291
ag292
ag41
ag112
ag181
ag332
ag188
ag232
ag152
ag275
ag83
ag324
ag196
ag166
ag258
ag305
ag318
ag242
ag140
ag186
ag43
ag199
ag28
ag311
ag309
ag63
ag194
ag100
ag204
ag252
ag308
ag302
ag268
ag168
ag53
ag255
ag319
ag177
ag67
ag330
ag160
ag323
ag142
ag107
ag144
ag108
ag251
ag109
ag124
ag84
ag126
ag27
ag215
ag159
ag193
ag273
ag176
ag103
ag139
ag312
ag36
ag56
ag48
ag39
ag221
ag120
ag299
ag85
ag134
ag62
ag60
ag222
ag285
ag66
ag254
ag296
ag279
ag71
ag45
ag260
ag130
ag61
ag92
ag277
ag135
ag102
ag44
ag54
ag21
ag116
ag49
ag229
ag96
ag183
ag59
ag154
ag33
ag125
ag17
ag119
ag93
ag304
ag241
ag322
ag236
ag151
ag253
ag313
ag86
ag8
ag68
ag158
ag165
ag64
ag307
ag65
ag89
ag69
ag246
ag220
ag187
ag29
ag269
ag47
ag293
ag190
ag16
ag327
ag128
asS'separator'
p337
S'='
sS'sparse'
p338
I01
sb.