ccopy_reg
_reconstructor
p1
(csklearn.feature_extraction.dict_vectorizer
DictVectorizer
p2
c__builtin__
object
p3
NtRp4
(dp5
S'vocabulary_'
p6
(dp7
S'xcomp=beat'
p8
I242
sS'w-2=death'
p9
I208
sS'w-1=she'
p10
I176
sS'prep=before'
p11
I65
sS'w+2=failure'
p12
I131
sS'w+2=athlete'
p13
I125
sS'advmod=up'
p14
I8
sS'w+1=news'
p15
I96
sS'amod=supportive'
p16
I10
sS'w-1=of'
p17
I172
sS'w-2=rain-soaked'
p18
I225
sS'nsubj=everyone'
p19
I53
sS'w+1=earlier'
p20
I89
sS'dobj=crowd'
p21
I34
sS'w-2=shout'
p22
I230
sS'w-2=Canaveral'
p23
I189
sS'dobj=news'
p24
I40
sS'dep=do'
p25
I24
sS'dobj=family'
p26
I37
sS'aux=be'
p27
I11
sS'nn=school'
p28
I49
sS'w+2=ruling'
p29
I143
sS'w+1=audience'
p30
I84
sS'det=the'
p31
I29
sS'dobj=Ugandans'
p32
I31
sS'w+1=break'
p33
I85
sS'w+2=that'
p34
I148
sS'w-1=supporter'
p35
I178
sS'w+2=Open'
p36
I117
sS'w-1=tell'
p37
I180
sS'w-2=into'
p38
I219
sS'w-2=crowd'
p39
I207
sS'w-2=debate'
p40
I209
sS'w+2=Olympic'
p41
I116
sS'w-2=young'
p42
I241
sS'advcl=serve'
p43
I4
sS'w-1=India'
p44
I155
sS'w-1=he'
p45
I167
sS'w-1=family'
p46
I165
sS'w-2=of'
p47
I221
sS'w+2=end'
p48
I130
sS'w-2=Lahore'
p49
I191
sS'w+1=victim'
p50
I107
sS'w+1=to'
p51
I105
sS'w-2=they'
p52
I235
sS'w-1=to'
p53
I182
sS'w+2=out'
p54
I141
sS'w-2=to'
p55
I237
sS'w+2=and'
p56
I121
sS'nsubj=many'
p57
I57
sS'w+2=it'
p58
I135
sS'dobj=decision'
p59
I35
sS'w+1=up'
p60
I106
sS'w+1=that'
p61
I102
sS'w-2=Mugabe'
p62
I193
sS'dobj=#PRP#'
p63
I30
sS'mark=while'
p64
I47
sS'w+1=you'
p65
I109
sS'w-2=return'
p66
I228
sS'w-2=clap'
p67
I205
sS'w-2=banner'
p68
I199
sS'w+2=news'
p69
I138
sS"w-2='s"
p70
I187
sS'advcl=clear'
p71
I0
sS'aux=will'
p72
I14
sS'w+2=candidate'
p73
I127
sS'w+2=many'
p74
I136
sS'w-2=everyone'
p75
I211
sS'w-2=whoop'
p76
I239
sS'w-1=address'
p77
I157
sS'w+2=the'
p78
I149
sS'prep=at'
p79
I64
sS'w+1=at'
p80
I83
sS'w-1=will'
p81
I185
sS'w-2=,'
p82
I188
sS'nsubj=people'
p83
I59
sS'w+1=young'
p84
I110
sS'w+1=crowd'
p85
I87
sS'w-2=good'
p86
I214
sS'w+2=decision'
p87
I129
sS'aux=have'
p88
I12
sS'w-1=by'
p89
I162
sS'w+2=supporter'
p90
I146
sS'w-1=be'
p91
I159
sS'w-2=Tokyo'
p92
I195
sS'w-1=still'
p93
I177
sS'w-1=,'
p94
I154
sS'w-1=where'
p95
I184
sS'w+1=family'
p96
I91
sS'w-2=the'
p97
I234
sS'w-2=thousand'
p98
I236
sS'w+2=team'
p99
I147
sS'nsubj=family'
p100
I54
sS'w-2=stand'
p101
I232
sS'w-2=forward'
p102
I213
sS'w+1=stock'
p103
I100
sS'w-2=in'
p104
I218
sS'w-2=president'
p105
I224
sS'advcl=come'
p106
I1
sS'w-2=man'
p107
I220
sS'advmod=soon'
p108
I6
sS'w-1=with'
p109
I186
sS'w-1=crowd'
p110
I164
sS'w+2=Wednesday'
p111
I119
sS'w+2=beat'
p112
I126
sS'w-2=rally'
p113
I226
sS'w+1=erupt'
p114
I90
sS'dobj=candidate'
p115
I33
sS'w+1=during'
p116
I88
sS'w+1=on'
p117
I98
sS'w+2=applause'
p118
I122
sS'w-2=a'
p119
I197
sS'w-2=she'
p120
I229
sS'prep=for'
p121
I67
sS'dobj=ruling'
p122
I41
sS'dobj=athlete'
p123
I32
sS'w-1=a'
p124
I156
sS'w-1=news'
p125
I171
sS'w+1=fan'
p126
I92
sS'w+2=Kevin'
p127
I114
sS'dobj=schoolchildren'
p128
I42
sS'w-2=something'
p129
I231
sS'advmod=about'
p130
I5
sS'w+2=Saturday'
p131
I118
sS'w+2=at'
p132
I124
sS"w+2=''"
p133
I111
sS'w+2=in'
p134
I134
sS'conj=applause'
p135
I21
sS'ccomp=go'
p136
I17
sS'dep=recognition'
p137
I26
sS'w+2=as'
p138
I123
sS'w+2=Obama'
p139
I115
sS'rcmod=echo'
p140
I71
sS'w-1=before'
p141
I160
sS'w+2=who'
p142
I152
sS'w+1=from'
p143
I94
sS'dobj=victim'
p144
I45
sS'w+2=shout'
p145
I144
sS'w-2=hug'
p146
I217
sS'w-2=Mars'
p147
I192
sS'complm=that'
p148
I20
sS'w-1=bring'
p149
I161
sS'w+1=Barack'
p150
I75
sS'w+2=they'
p151
I150
sS'nsubj=Somalis'
p152
I51
sS'w+2=volunteer'
p153
I151
sS'w-1=coordinate'
p154
I163
sS'nsubj=crowd'
p155
I52
sS'dobj=end'
p156
I36
sS'w-2=have'
p157
I216
sS'nsubj=likelihood'
p158
I56
sS'cc=and'
p159
I15
sS'w+2=have'
p160
I133
sS'advmod=still'
p161
I7
sS'nsubj=president'
p162
I60
sS'w+1=of'
p163
I97
sS'w+1=the'
p164
I103
sS'w+1=by'
p165
I86
sS'w-2=explode'
p166
I212
sS'w-1=protester'
p167
I174
sS'cc=but'
p168
I16
sS'w+1=they'
p169
I104
sS'w-1=villager'
p170
I183
sS'amod=coordinate'
p171
I9
sS'dobj=fan'
p172
I38
sS'dep=sway'
p173
I27
sS'prep=of'
p174
I69
sS'w-2=place'
p175
I222
sS'prep=in'
p176
I68
sS'w-2=reason'
p177
I227
sS'w+1=for'
p178
I93
sS'ccomp=pack'
p179
I18
sS'nsubj=#PRP#'
p180
I50
sS'w+1=about'
p181
I80
sS"w-1=''"
p182
I153
sS'w-1=and'
p183
I158
sS'w+1=when'
p184
I108
sS'w+1=greet'
p185
I95
sS'dobj=supporter'
p186
I43
sS'aux=to'
p187
I13
sS'w-1=people'
p188
I173
sS'dobj=victory'
p189
I46
sS'nsubj=villager'
p190
I63
sS'dobj=the'
p191
I44
sS'advcl=pass'
p192
I2
sS'w-1=school'
p193
I175
sS'w-2=plenty'
p194
I223
sS'w+1=as'
p195
I82
sS'w-2=break'
p196
I202
sS'w-1=help'
p197
I168
sS'w+1=and'
p198
I81
sS'w-2=erupt'
p199
I210
sS'nsubj=news'
p200
I58
sS'advcl=play'
p201
I3
sS'w-2=chant'
p202
I204
sS'w-2=tell'
p203
I233
sS'w+1=-'
p204
I73
sS'w+1=,'
p205
I72
sS'w+2=chant'
p206
I128
sS'w+1=.'
p207
I74
sS'w+2=of'
p208
I139
sS'nsubj=protester'
p209
I61
sS'w+2=market'
p210
I137
sS'w+1=supporter'
p211
I101
sS'w+2=,'
p212
I112
sS'w+2=on'
p213
I140
sS'det=a'
p214
I28
sS'w-2=greet'
p215
I215
sS'neg=not'
p216
I48
sS'w+2=:'
p217
I113
sS'prep=during'
p218
I66
sS'w-2=bless'
p219
I201
sS'dep=greet'
p220
I25
sS'w-2=watch'
p221
I238
sS'conj=hand'
p222
I23
sS'w-2=come'
p223
I206
sS'w-2=Thursday'
p224
I194
sS'nsubj=supporter'
p225
I62
sS'w+1=schoolchildren'
p226
I99
sS'w+2=sing'
p227
I145
sS'w+2=pack'
p228
I142
sS'ccomp=turn'
p229
I19
sS'w-1=in'
p230
I169
sS'w-1=into'
p231
I170
sS'w+1=Ugandans'
p232
I78
sS'w-2=be'
p233
I200
sS'w-2=Washington'
p234
I196
sS'w+1=US'
p235
I77
sS'conj=chant'
p236
I22
sS'w-1=have'
p237
I166
sS'w+1=U.S.'
p238
I76
sS'dobj=market'
p239
I39
sS'w-1=the'
p240
I181
sS'prep=on'
p241
I70
sS'w-2=Court'
p242
I190
sS'w-1=supportive'
p243
I179
sS'w+1=Wednesday'
p244
I79
sS'w+2=from'
p245
I132
sS'w-2=arena'
p246
I198
sS'w+2=a'
p247
I120
sS'w-2=with'
p248
I240
sS'w-2=by'
p249
I203
sS'nsubj=girl'
p250
I55
ssS'dtype'
p251
cnumpy
float64
p252
sS'feature_names_'
p253
(lp254
g71
ag106
ag192
ag201
ag43
ag130
ag108
ag161
ag14
ag171
ag16
ag27
ag88
ag187
ag72
ag159
ag168
ag136
ag179
ag229
ag148
ag135
ag236
ag222
ag25
ag220
ag137
ag173
ag214
ag31
ag63
ag32
ag123
ag115
ag21
ag59
ag156
ag26
ag172
ag239
ag24
ag122
ag128
ag186
ag191
ag144
ag189
ag64
ag216
ag28
ag180
ag152
ag155
ag19
ag100
ag250
ag158
ag57
ag200
ag83
ag162
ag209
ag225
ag190
ag79
ag11
ag218
ag121
ag176
ag174
ag241
ag140
ag205
ag204
ag207
ag150
ag238
ag235
ag232
ag244
ag181
ag198
ag195
ag80
ag30
ag33
ag165
ag85
ag116
ag20
ag114
ag96
ag126
ag178
ag143
ag185
ag15
ag163
ag117
ag226
ag103
ag211
ag61
ag164
ag169
ag51
ag60
ag50
ag184
ag65
ag84
ag133
ag212
ag217
ag127
ag139
ag41
ag36
ag131
ag111
ag247
ag56
ag118
ag138
ag132
ag13
ag112
ag73
ag206
ag87
ag48
ag12
ag245
ag160
ag134
ag58
ag74
ag210
ag69
ag208
ag213
ag54
ag228
ag29
ag145
ag227
ag90
ag99
ag34
ag78
ag151
ag153
ag142
ag182
ag94
ag44
ag124
ag77
ag183
ag91
ag141
ag149
ag89
ag154
ag110
ag46
ag237
ag45
ag197
ag230
ag231
ag125
ag17
ag188
ag167
ag193
ag10
ag93
ag35
ag243
ag37
ag240
ag53
ag170
ag95
ag81
ag109
ag70
ag82
ag23
ag242
ag49
ag147
ag62
ag224
ag92
ag234
ag119
ag246
ag68
ag233
ag219
ag196
ag249
ag202
ag67
ag223
ag39
ag9
ag40
ag199
ag75
ag166
ag102
ag86
ag215
ag157
ag146
ag104
ag38
ag107
ag47
ag175
ag194
ag105
ag18
ag113
ag177
ag66
ag120
ag22
ag129
ag101
ag203
ag97
ag52
ag98
ag55
ag221
ag76
ag248
ag42
ag8
asS'separator'
p255
S'='
sS'sparse'
p256
I01
sb.