ccopy_reg
_reconstructor
p1
(csklearn.feature_extraction.dict_vectorizer
DictVectorizer
p2
c__builtin__
object
p3
NtRp4
(dp5
S'sort'
p6
I01
sS'feature_names_'
p7
(lp8
S'advcl=overlight'
p9
aS'advmod=actually'
p10
aS'advmod=together'
p11
aS'advmod=when'
p12
aS'amod=ancient'
p13
aS'amod=dispute'
p14
aS'amod=hidden'
p15
aS'amod=historic'
p16
aS'amod=incan'
p17
aS'amod=mayan'
p18
aS'amod=nearby'
p19
aS'aux=be'
p20
aS'aux=can'
p21
aS'aux=could'
p22
aS'aux=have'
p23
aS'aux=to'
p24
aS'aux=will'
p25
aS'auxpass=be'
p26
aS'cc=and'
p27
aS'cc=or'
p28
aS'ccomp=leave'
p29
aS'conj=agency'
p30
aS'conj=destroy'
p31
aS'conj=imprison'
p32
aS'conj=memory'
p33
aS'conj=rebuild'
p34
aS'dep=visitor'
p35
aS'det=the'
p36
aS'dobj=adaptation'
p37
aS'dobj=crop'
p38
aS'dobj=culture'
p39
aS'dobj=delta'
p40
aS'dobj=farmland'
p41
aS'dobj=honor'
p42
aS'dobj=island'
p43
aS'dobj=life'
p44
aS'dobj=soil'
p45
aS'dobj=time'
p46
aS'dobj=ton'
p47
aS'mark=after'
p48
aS'mark=because'
p49
aS'nn=Yuan'
p50
aS'nn=marble'
p51
aS'nsubj=#PRP#'
p52
aS'nsubj=climate'
p53
aS'nsubj=country'
p54
aS'nsubj=deforestation'
p55
aS'nsubj=development'
p56
aS'nsubj=disease'
p57
aS'nsubj=economic'
p58
aS'nsubj=flu'
p59
aS'nsubj=the'
p60
aS'nsubj=which'
p61
aS'nsubjpass=#PRP#'
p62
aS'nsubjpass=business'
p63
aS'nsubjpass=economy'
p64
aS'nsubjpass=life'
p65
aS'nsubjpass=lot'
p66
aS'nsubjpass=supplies'
p67
aS'partmod=raise'
p68
aS'poss=#PRP#'
p69
aS'prep=by'
p70
aS'prep=for'
p71
aS'prep=in'
p72
aS'prep=of'
p73
aS'rcmod=demolish'
p74
aS'rcmod=early'
p75
aS'w+1=,'
p76
aS'w+1=.'
p77
aS'w+1=?'
p78
aS'w+1=President'
p79
aS'w+1=a'
p80
aS'w+1=and'
p81
aS'w+1=as'
p82
aS'w+1=be'
p83
aS'w+1=before'
p84
aS'w+1=by'
p85
aS'w+1=can'
p86
aS'w+1=crop'
p87
aS'w+1=date'
p88
aS'w+1=equipment'
p89
aS'w+1=farmland'
p90
aS'w+1=for'
p91
aS'w+1=hold'
p92
aS'w+1=in'
p93
aS'w+1=indian'
p94
aS'w+1=it'
p95
aS'w+1=mangrove'
p96
aS'w+1=of'
p97
aS'w+1=or'
p98
aS'w+1=several'
p99
aS'w+1=she'
p100
aS'w+1=soil'
p101
aS'w+1=the'
p102
aS'w+1=these'
p103
aS'w+1=time'
p104
aS'w+2=,'
p105
aS'w+2=.'
p106
aS'w+2=Machu'
p107
aS'w+2=Preah'
p108
aS'w+2=Robert'
p109
aS'w+2=Zimbabwe'
p110
aS'w+2=a'
p111
aS'w+2=and'
p112
aS'w+2=culture'
p113
aS'w+2=delta'
p114
aS'w+2=eye'
p115
aS'w+2=family'
p116
aS'w+2=human'
p117
aS'w+2=island'
p118
aS'w+2=life'
p119
aS'w+2=live'
p120
aS'w+2=make'
p121
aS'w+2=may'
p122
aS'w+2=memory'
p123
aS'w+2=million'
p124
aS'w+2=rebuild'
p125
aS'w+2=reminder'
p126
aS'w+2=some'
p127
aS'w+2=the'
p128
aS'w+2=they'
p129
aS'w+2=to'
p130
aS'w+2=together'
p131
aS'w+2=troops'
p132
aS'w+2=visitor'
p133
aS'w-1=--'
p134
aS'w-1=Yuan'
p135
aS'w-1=actually'
p136
aS'w-1=ancient'
p137
aS'w-1=and'
p138
aS'w-1=be'
p139
aS'w-1=can'
p140
aS'w-1=could'
p141
aS'w-1=dispute'
p142
aS'w-1=economic'
p143
aS'w-1=have'
p144
aS'w-1=hidden'
p145
aS'w-1=historic'
p146
aS'w-1=in'
p147
aS'w-1=incan'
p148
aS'w-1=marble'
p149
aS'w-1=mayan'
p150
aS'w-1=nearby'
p151
aS'w-1=other'
p152
aS'w-1=the'
p153
aS'w-1=to'
p154
aS'w-1=which'
p155
aS'w-1=will'
p156
aS'w-2=,'
p157
aS'w-2=--'
p158
aS'w-2=Fidel'
p159
aS'w-2=Yuanming'
p160
aS'w-2=amid'
p161
aS'w-2=and'
p162
aS'w-2=be'
p163
aS'w-2=bring'
p164
aS'w-2=business'
p165
aS'w-2=could'
p166
aS'w-2=country'
p167
aS'w-2=deforestation'
p168
aS'w-2=development'
p169
aS'w-2=disease'
p170
aS'w-2=economy'
p171
aS'w-2=expectation'
p172
aS'w-2=flu'
p173
aS'w-2=from'
p174
aS'w-2=have'
p175
aS'w-2=home'
p176
aS'w-2=in'
p177
aS'w-2=infrastructure'
p178
aS'w-2=it'
p179
aS'w-2=its'
p180
aS'w-2=lay'
p181
aS'w-2=lead'
p182
aS'w-2=least'
p183
aS'w-2=leave'
p184
aS'w-2=life'
p185
aS'w-2=like'
p186
aS'w-2=many'
p187
aS'w-2=now'
p188
aS'w-2=of'
p189
aS'w-2=over'
p190
aS'w-2=people'
p191
aS'w-2=property'
p192
aS'w-2=put'
p193
aS'w-2=see'
p194
aS'w-2=the'
p195
aS'w-2=tour'
p196
asS'dtype'
p197
cnumpy
float64
p198
sS'vocabulary_'
p199
(dp200
g61
I52
sg117
I108
sg32
I23
sg75
I66
sg64
I55
sg183
I174
sg122
I113
sg191
I182
sg53
I44
sg67
I58
sg99
I90
sg36
I27
sg43
I34
sg171
I162
sg90
I81
sg16
I7
sg9
I0
sg131
I122
sg182
I173
sg189
I180
sg181
I172
sg86
I77
sg166
I157
sg167
I158
sg154
I145
sg70
I61
sg112
I103
sg162
I153
sg56
I47
sg145
I136
sg115
I106
sg186
I177
sg152
I143
sg10
I1
sg45
I36
sg34
I25
sg39
I30
sg108
I99
sg195
I186
sg132
I123
sg101
I92
sg137
I128
sg25
I16
sg59
I50
sg103
I94
sg173
I164
sg174
I165
sg91
I82
sg113
I104
sg74
I65
sg128
I119
sg82
I73
sg31
I22
sg136
I127
sg156
I147
sg157
I148
sg14
I5
sg114
I105
sg28
I19
sg55
I46
sg23
I14
sg192
I183
sg33
I24
sg66
I57
sg139
I130
sg148
I139
sg168
I159
sg188
I179
sg140
I131
sg18
I9
sg172
I163
sg100
I91
sg158
I149
sg177
I168
sg30
I21
sg196
I187
sg125
I116
sg179
I170
sg44
I35
sg87
I78
sg155
I146
sg17
I8
sg49
I40
sg146
I137
sg97
I88
sg63
I54
sg89
I80
sg130
I121
sg187
I178
sg178
I169
sg46
I37
sg123
I114
sg15
I6
sg98
I89
sg176
I167
sg151
I142
sg12
I3
sg144
I135
sg104
I95
sg96
I87
sg129
I120
sg134
I125
sg180
I171
sg54
I45
sg40
I31
sg133
I124
sg20
I11
sg13
I4
sg165
I156
sg170
I161
sg65
I56
sg160
I151
sg120
I111
sg141
I132
sg26
I17
sg21
I12
sg185
I176
sg50
I41
sg92
I83
sg58
I49
sg29
I20
sg79
I70
sg124
I115
sg175
I166
sg27
I18
sg190
I181
sg57
I48
sg109
I100
sg102
I93
sg169
I160
sg19
I10
sg83
I74
sg62
I53
sg38
I29
sg72
I63
sg127
I118
sg51
I42
sg142
I133
sg161
I152
sg93
I84
sg135
I126
sg159
I150
sg95
I86
sg52
I43
sg194
I185
sg119
I110
sg116
I107
sg37
I28
sg24
I15
sg84
I75
sg94
I85
sg42
I33
sg68
I59
sg60
I51
sg69
I60
sg81
I72
sg35
I26
sg41
I32
sg126
I117
sg22
I13
sg47
I38
sg76
I67
sg77
I68
sg71
I62
sg106
I97
sg105
I96
sg149
I140
sg78
I69
sg118
I109
sg138
I129
sg121
I112
sg88
I79
sg184
I175
sg85
I76
sg164
I155
sg150
I141
sg110
I101
sg147
I138
sg80
I71
sg163
I154
sg11
I2
sg73
I64
sg143
I134
sg193
I184
sg153
I144
sg48
I39
sg107
I98
sg111
I102
ssS'separator'
p201
S'='
sS'sparse'
p202
I01
sb.