ccopy_reg
_reconstructor
p1
(csklearn.feature_extraction.dict_vectorizer
DictVectorizer
p2
c__builtin__
object
p3
NtRp4
(dp5
S'sort'
p6
I01
sS'feature_names_'
p7
(lp8
S'advcl=exploit'
p9
aS'advcl=take'
p10
aS'advmod=allegedly'
p11
aS'advmod=also'
p12
aS'advmod=finally'
p13
aS'advmod=just'
p14
aS'advmod=long'
p15
aS'advmod=mostly'
p16
aS'advmod=often'
p17
aS'advmod=totally'
p18
aS'amod=chronic'
p19
aS'amod=criminal'
p20
aS'amod=economic'
p21
aS'amod=persistent'
p22
aS'amod=political'
p23
aS'amod=relative'
p24
aS'amod=terrible'
p25
aS'appos=abuse'
p26
aS'aux=be'
p27
aS'aux=have'
p28
aS'aux=to'
p29
aS'auxpass=be'
p30
aS'cc=and'
p31
aS'cc=or'
p32
aS'ccomp=take'
p33
aS'complm=that'
p34
aS'conj=abuse'
p35
aS'conj=conflict'
p36
aS'conj=corruption'
p37
aS'conj=in'
p38
aS'conj=incompetence'
p39
aS'conj=ineffective'
p40
aS'conj=isolation'
p41
aS'conj=lonely'
p42
aS'conj=marginalization'
p43
aS'conj=marginalize'
p44
aS'conj=offend'
p45
aS'conj=poverty'
p46
aS'conj=remove'
p47
aS'conj=treatment'
p48
aS'cop=be'
p49
aS'dep=Initiative'
p50
aS'dep=in'
p51
aS'dep=life'
p52
aS'dep=veteran'
p53
aS'det=that'
p54
aS'det=the'
p55
aS'dobj=Afghanistan'
p56
aS'dobj=area'
p57
aS'dobj=candidate'
p58
aS'dobj=community'
p59
aS'dobj=control'
p60
aS'dobj=disease'
p61
aS'dobj=hydrocarbon'
p62
aS'dobj=region'
p63
aS'dobj=social'
p64
aS'dobj=victim'
p65
aS'dobj=weight'
p66
aS'mark=as'
p67
aS'neg=not'
p68
aS'nn=government'
p69
aS'nn=wealth'
p70
aS'nsubj=#NUMBER#'
p71
aS'nsubj=#PRP#'
p72
aS'nsubj=homeless'
p73
aS'nsubj=population'
p74
aS'nsubj=ruler'
p75
aS'nsubj=that'
p76
aS'nsubjpass=#PRP#'
p77
aS'nsubjpass=Darfur'
p78
aS'nsubjpass=farmer'
p79
aS'nsubjpass=investment'
p80
aS'nsubjpass=part'
p81
aS'nsubjpass=region'
p82
aS'nsubjpass=school'
p83
aS'nsubjpass=survivor'
p84
aS'nsubjpass=which'
p85
aS'poss=Delhi'
p86
aS'prep=after'
p87
aS'prep=at'
p88
aS'prep=behind'
p89
aS'prep=beyond'
p90
aS'prep=by'
p91
aS'prep=during'
p92
aS'prep=for'
p93
aS'prep=in'
p94
aS'prep=of'
p95
aS'prep=under'
p96
aS'prep=without'
p97
aS'w+1=,'
p98
aS'w+1=.'
p99
aS'w+1=Afghanistan'
p100
aS'w+1=and'
p101
aS'w+1=arm'
p102
aS'w+1=be'
p103
aS'w+1=behind'
p104
aS'w+1=by'
p105
aS'w+1=disease'
p106
aS'w+1=domestic'
p107
aS'w+1=during'
p108
aS'w+1=for'
p109
aS'w+1=have'
p110
aS'w+1=hydrocarbon'
p111
aS'w+1=in'
p112
aS'w+1=of'
p113
aS'w+1=on'
p114
aS'w+1=or'
p115
aS'w+1=population'
p116
aS'w+1=site'
p117
aS'w+1=some'
p118
aS'w+1=stadium'
p119
aS'w+1=the'
p120
aS'w+1=tropical'
p121
aS'w+1=under'
p122
aS'w+1=unless'
p123
aS'w+1=until'
p124
aS'w+1=we'
p125
aS'w+1=weight'
p126
aS'w+1=will'
p127
aS"w+2=''"
p128
aS'w+2=,'
p129
aS'w+2=-'
p130
aS'w+2=.'
p131
aS'w+2=Africa'
p132
aS'w+2=Initiative'
p133
aS'w+2=Saddam'
p134
aS'w+2=Sudan'
p135
aS'w+2=a'
p136
aS'w+2=abuse'
p137
aS'w+2=affect'
p138
aS'w+2=after'
p139
aS'w+2=agriculture'
p140
aS'w+2=and'
p141
aS'w+2=area'
p142
aS'w+2=candidate'
p143
aS'w+2=conflict'
p144
aS'w+2=control'
p145
aS'w+2=corruption'
p146
aS'w+2=create'
p147
aS'w+2=demand'
p148
aS'w+2=disease'
p149
aS'w+2=everywhere'
p150
aS'w+2=far'
p151
aS'w+2=high'
p152
aS'w+2=in'
p153
aS'w+2=incompetence'
p154
aS'w+2=ineffective'
p155
aS'w+2=infectious'
p156
aS'w+2=inside'
p157
aS'w+2=isolation'
p158
aS'w+2=lonely'
p159
aS'w+2=many'
p160
aS'w+2=marginalize'
p161
aS'w+2=not'
p162
aS'w+2=offend'
p163
aS'w+2=oil-revenue'
p164
aS'w+2=other'
p165
aS'w+2=out'
p166
aS'w+2=political'
p167
aS'w+2=poor'
p168
aS'w+2=poverty'
p169
aS'w+2=rebel'
p170
aS'w+2=remote'
p171
aS'w+2=social'
p172
aS'w+2=storm'
p173
aS'w+2=such'
p174
aS'w+2=the'
p175
aS'w+2=they'
p176
aS'w+2=to'
p177
aS'w+2=veteran'
p178
aS'w+2=violence'
p179
aS'w+2=what'
p180
aS'w+2=wild'
p181
aS"w-1=''"
p182
aS"w-1='s"
p183
aS'w-1=,'
p184
aS'w-1=States'
p185
aS'w-1=about'
p186
aS'w-1=allegedly'
p187
aS'w-1=and'
p188
aS'w-1=as'
p189
aS'w-1=be'
p190
aS'w-1=call'
p191
aS'w-1=chronic'
p192
aS'w-1=criminal'
p193
aS'w-1=economic'
p194
aS'w-1=for'
p195
aS'w-1=government'
p196
aS'w-1=have'
p197
aS'w-1=in'
p198
aS'w-1=include'
p199
aS'w-1=just'
p200
aS'w-1=mostly'
p201
aS'w-1=not'
p202
aS'w-1=of'
p203
aS'w-1=often'
p204
aS'w-1=or'
p205
aS'w-1=over'
p206
aS'w-1=persistent'
p207
aS'w-1=population'
p208
aS'w-1=protest'
p209
aS'w-1=relative'
p210
aS'w-1=stand'
p211
aS'w-1=terrible'
p212
aS'w-1=that'
p213
aS'w-1=the'
p214
aS'w-1=three'
p215
aS'w-1=to'
p216
aS'w-1=totally'
p217
aS'w-1=we'
p218
aS'w-1=with'
p219
aS"w-2=''"
p220
aS'w-2=,'
p221
aS'w-2=-'
p222
aS'w-2=--'
p223
aS'w-2=Darfur'
p224
aS'w-2=Delhi'
p225
aS'w-2=United'
p226
aS'w-2=abuse'
p227
aS'w-2=abused'
p228
aS'w-2=also'
p229
aS'w-2=and'
p230
aS'w-2=as'
p231
aS'w-2=at'
p232
aS'w-2=be'
p233
aS'w-2=charge'
p234
aS'w-2=corruption'
p235
aS'w-2=decade'
p236
aS'w-2=design'
p237
aS'w-2=drug'
p238
aS'w-2=due'
p239
aS'w-2=elite'
p240
aS'w-2=era'
p241
aS'w-2=feel'
p242
aS'w-2=finally'
p243
aS'w-2=for'
p244
aS'w-2=government'
p245
aS'w-2=group'
p246
aS'w-2=guilty'
p247
aS'w-2=have'
p248
aS'w-2=he'
p249
aS'w-2=hiv'
p250
aS'w-2=income'
p251
aS'w-2=incorrectly'
p252
aS'w-2=long'
p253
aS'w-2=marginalize'
p254
aS'w-2=military'
p255
aS'w-2=need'
p256
aS'w-2=of'
p257
aS'w-2=on'
p258
aS'w-2=period'
p259
aS'w-2=policy'
p260
aS'w-2=regime'
p261
aS'w-2=say'
p262
aS'w-2=see'
p263
aS'w-2=sign'
p264
aS'w-2=specialist'
p265
aS'w-2=suffer'
p266
aS'w-2=talk'
p267
aS'w-2=that'
p268
aS'w-2=they'
p269
aS'w-2=to'
p270
aS'w-2=treatment'
p271
aS'w-2=villa'
p272
aS'w-2=vulnerable'
p273
aS'w-2=war'
p274
aS'w-2=well'
p275
aS'w-2=which'
p276
aS'w-2=year'
p277
aS'xcomp=Initiative'
p278
asS'dtype'
p279
cnumpy
float64
p280
sS'vocabulary_'
p281
(dp282
g220
I211
sg162
I153
sg259
I250
sg237
I228
sg11
I2
sg235
I226
sg86
I77
sg17
I8
sg260
I251
sg253
I244
sg110
I101
sg267
I258
sg227
I218
sg55
I46
sg121
I112
sg242
I233
sg155
I146
sg270
I261
sg36
I27
sg118
I109
sg146
I137
sg212
I203
sg104
I95
sg205
I196
sg124
I115
sg111
I102
sg230
I221
sg160
I151
sg135
I126
sg50
I41
sg157
I148
sg194
I185
sg257
I248
sg256
I247
sg203
I194
sg39
I30
sg269
I260
sg258
I249
sg216
I207
sg166
I157
sg117
I108
sg91
I82
sg141
I132
sg239
I230
sg37
I28
sg236
I227
sg274
I265
sg158
I149
sg68
I59
sg178
I169
sg22
I13
sg276
I267
sg49
I40
sg42
I33
sg249
I240
sg45
I36
sg140
I131
sg229
I220
sg143
I134
sg138
I129
sg262
I253
sg47
I38
sg78
I69
sg46
I37
sg164
I155
sg175
I166
sg88
I79
sg112
I103
sg119
I110
sg221
I212
sg222
I213
sg225
I216
sg254
I245
sg32
I23
sg23
I14
sg152
I143
sg211
I202
sg28
I19
sg43
I34
sg206
I197
sg190
I181
sg82
I73
sg171
I162
sg278
I269
sg107
I98
sg255
I246
sg184
I175
sg70
I61
sg38
I29
sg224
I215
sg134
I125
sg89
I80
sg149
I140
sg241
I232
sg92
I83
sg223
I214
sg232
I223
sg231
I222
sg16
I7
sg69
I60
sg219
I210
sg18
I9
sg73
I64
sg100
I91
sg145
I136
sg156
I147
sg80
I71
sg185
I176
sg192
I183
sg137
I128
sg113
I104
sg163
I154
sg177
I168
sg114
I105
sg150
I141
sg265
I256
sg174
I165
sg93
I84
sg123
I114
sg115
I106
sg48
I39
sg125
I116
sg197
I188
sg85
I76
sg187
I178
sg84
I75
sg176
I167
sg128
I119
sg153
I144
sg67
I58
sg180
I171
sg12
I3
sg108
I99
sg33
I24
sg9
I0
sg65
I56
sg261
I252
sg24
I15
sg217
I208
sg30
I21
sg34
I25
sg193
I184
sg142
I133
sg10
I1
sg183
I174
sg151
I142
sg64
I55
sg57
I48
sg169
I160
sg181
I172
sg87
I78
sg15
I6
sg133
I124
sg59
I50
sg139
I130
sg210
I201
sg226
I217
sg248
I239
sg75
I66
sg31
I22
sg202
I193
sg63
I54
sg96
I87
sg228
I219
sg268
I259
sg62
I53
sg120
I111
sg105
I96
sg83
I74
sg116
I107
sg127
I118
sg238
I229
sg244
I235
sg273
I264
sg240
I231
sg246
I237
sg250
I241
sg159
I150
sg71
I62
sg209
I200
sg168
I159
sg21
I12
sg77
I68
sg201
I192
sg148
I139
sg66
I57
sg94
I85
sg109
I100
sg196
I187
sg186
I177
sg167
I158
sg161
I152
sg72
I63
sg20
I11
sg154
I145
sg272
I263
sg102
I93
sg182
I173
sg165
I156
sg277
I268
sg179
I170
sg263
I254
sg56
I47
sg191
I182
sg189
I180
sg61
I52
sg14
I5
sg218
I209
sg234
I225
sg29
I20
sg26
I17
sg208
I199
sg144
I135
sg35
I26
sg19
I10
sg25
I16
sg132
I123
sg215
I206
sg101
I92
sg264
I255
sg58
I49
sg13
I4
sg41
I32
sg195
I186
sg98
I89
sg99
I90
sg147
I138
sg207
I198
sg131
I122
sg129
I120
sg130
I121
sg252
I243
sg54
I45
sg266
I257
sg40
I31
sg51
I42
sg76
I67
sg81
I72
sg53
I44
sg188
I179
sg243
I234
sg245
I236
sg173
I164
sg79
I70
sg90
I81
sg52
I43
sg204
I195
sg126
I117
sg198
I189
sg74
I65
sg106
I97
sg170
I161
sg60
I51
sg44
I35
sg200
I191
sg233
I224
sg95
I86
sg103
I94
sg271
I262
sg251
I242
sg97
I88
sg214
I205
sg199
I190
sg172
I163
sg213
I204
sg27
I18
sg275
I266
sg136
I127
sg122
I113
sg247
I238
ssS'separator'
p283
S'='
sS'sparse'
p284
I01
sb.