ccopy_reg
_reconstructor
p1
(csklearn.feature_extraction.dict_vectorizer
DictVectorizer
p2
c__builtin__
object
p3
NtRp4
(dp5
S'sort'
p6
I01
sS'feature_names_'
p7
(lp8
S'advcl=find'
p9
aS'advcl=learn'
p10
aS'advmod=always'
p11
aS'advmod=how'
p12
aS'advmod=more'
p13
aS'advmod=really'
p14
aS'aux=can'
p15
aS'aux=have'
p16
aS'aux=to'
p17
aS'cc=and'
p18
aS'cc=but'
p19
aS'ccomp=feel'
p20
aS'ccomp=have'
p21
aS'ccomp=speak'
p22
aS'complm=that'
p23
aS'conj=build'
p24
aS'conj=fruitful'
p25
aS'conj=have'
p26
aS'conj=learn'
p27
aS'conj=make'
p28
aS'conj=perform'
p29
aS'conj=run'
p30
aS'conj=say'
p31
aS'dep=that'
p32
aS'dobj=another'
p33
aS'dobj=one-on-one'
p34
aS'dobj=the'
p35
aS'nsubj=#PRP#'
p36
aS'nsubj=Federation'
p37
aS'nsubj=factor'
p38
aS'nsubj=government'
p39
aS'nsubj=kid'
p40
aS'nsubj=people'
p41
aS'nsubj=science'
p42
aS'nsubj=student'
p43
aS'nsubj=that'
p44
aS'nsubj=virus'
p45
aS'nsubj=visitor'
p46
aS'nsubj=which'
p47
aS'prep=about'
p48
aS'prep=at'
p49
aS'prep=from'
p50
aS'prep=in'
p51
aS'prep=through'
p52
aS'prep=with'
p53
aS'rel=in'
p54
aS'w+1=.'
p55
aS'w+1=about'
p56
aS'w+1=and'
p57
aS'w+1=at'
p58
aS'w+1=in'
p59
aS'w+1=one-on-one'
p60
aS'w+1=that'
p61
aS'w+1=to'
p62
aS'w+1=with'
p63
aS'w+2=a'
p64
aS'w+2=and'
p65
aS'w+2=any'
p66
aS'w+2=both'
p67
aS'w+2=can'
p68
aS'w+2=cause'
p69
aS'w+2=citizen'
p70
aS'w+2=each'
p71
aS'w+2=fan'
p72
aS'w+2=girl'
p73
aS'w+2=he'
p74
aS'w+2=issue'
p75
aS'w+2=local'
p76
aS'w+2=make'
p77
aS'w+2=member'
p78
aS'w+2=other'
p79
aS'w+2=patient'
p80
aS'w+2=people'
p81
aS'w+2=some'
p82
aS'w+2=the'
p83
aS'w+2=they'
p84
aS'w+2=what'
p85
aS'w+2=with'
p86
aS'w-1=,'
p87
aS'w-1=Federation'
p88
aS'w-1=I'
p89
aS'w-1=always'
p90
aS'w-1=and'
p91
aS'w-1=can'
p92
aS'w-1=factor'
p93
aS'w-1=government'
p94
aS'w-1=kid'
p95
aS'w-1=miss'
p96
aS'w-1=or'
p97
aS'w-1=people'
p98
aS'w-1=that'
p99
aS'w-1=they'
p100
aS'w-1=to'
p101
aS'w-1=virus'
p102
aS'w-1=which'
p103
aS"w-2=''"
p104
aS"w-2='ll"
p105
aS'w-2=,'
p106
aS'w-2=.'
p107
aS'w-2=City'
p108
aS'w-2=able'
p109
aS'w-2=and'
p110
aS'w-2=apprentice'
p111
aS'w-2=chance'
p112
aS'w-2=democratic'
p113
aS'w-2=directly'
p114
aS'w-2=field'
p115
aS'w-2=get'
p116
aS'w-2=government'
p117
aS'w-2=have'
p118
aS'w-2=people'
p119
aS'w-2=relate'
p120
aS'w-2=robot'
p121
aS'w-2=see'
p122
aS'w-2=serve'
p123
aS'w-2=student'
p124
aS'w-2=that'
p125
aS'w-2=the'
p126
aS'w-2=these'
p127
aS'w-2=they'
p128
aS'w-2=those'
p129
aS'w-2=time'
p130
aS'w-2=tool'
p131
aS'w-2=visitor'
p132
aS'w-2=want'
p133
aS'w-2=watch'
p134
aS'w-2=which'
p135
aS'xcomp=cause'
p136
aS'xcomp=form'
p137
aS'xcomp=get'
p138
aS'xcomp=make'
p139
asS'dtype'
p140
cnumpy
float64
p141
sS'vocabulary_'
p142
(dp143
g93
I84
sg47
I38
sg13
I4
sg67
I58
sg40
I31
sg119
I110
sg101
I92
sg95
I86
sg137
I128
sg46
I37
sg73
I64
sg116
I107
sg133
I124
sg66
I57
sg97
I88
sg54
I45
sg71
I62
sg88
I79
sg124
I115
sg136
I127
sg128
I119
sg135
I126
sg65
I56
sg110
I101
sg24
I15
sg78
I69
sg61
I52
sg39
I30
sg90
I81
sg31
I22
sg22
I13
sg92
I83
sg123
I114
sg108
I99
sg76
I67
sg70
I61
sg63
I54
sg20
I11
sg14
I5
sg96
I87
sg83
I74
sg49
I40
sg59
I50
sg58
I49
sg106
I97
sg107
I98
sg53
I44
sg74
I65
sg16
I7
sg117
I108
sg81
I72
sg114
I105
sg87
I78
sg27
I18
sg126
I117
sg25
I16
sg130
I121
sg109
I100
sg112
I103
sg37
I28
sg52
I43
sg15
I6
sg89
I80
sg26
I17
sg69
I60
sg100
I91
sg80
I71
sg32
I23
sg29
I20
sg79
I70
sg30
I21
sg33
I24
sg34
I25
sg85
I76
sg129
I120
sg21
I12
sg48
I39
sg103
I94
sg23
I14
sg84
I75
sg132
I123
sg11
I2
sg72
I63
sg113
I104
sg102
I93
sg118
I109
sg138
I129
sg18
I9
sg43
I34
sg125
I116
sg19
I10
sg105
I96
sg131
I122
sg51
I42
sg82
I73
sg12
I3
sg94
I85
sg86
I77
sg36
I27
sg56
I47
sg50
I41
sg9
I0
sg122
I113
sg68
I59
sg45
I36
sg17
I8
sg98
I89
sg111
I102
sg35
I26
sg28
I19
sg139
I130
sg134
I125
sg57
I48
sg121
I112
sg104
I95
sg55
I46
sg62
I53
sg60
I51
sg127
I118
sg44
I35
sg91
I82
sg77
I68
sg115
I106
sg41
I32
sg10
I1
sg38
I29
sg42
I33
sg99
I90
sg75
I66
sg120
I111
sg64
I55
ssS'separator'
p144
S'='
sS'sparse'
p145
I01
sb.