ccopy_reg
_reconstructor
p1
(csklearn.feature_extraction.dict_vectorizer
DictVectorizer
p2
c__builtin__
object
p3
NtRp4
(dp5
S'vocabulary_'
p6
(dp7
S'dobj=killing'
p8
I334
sS'dobj=terrorism'
p9
I456
sS'w-2=abililty'
p10
I1479
sS'advmod=more'
p11
I33
sS'dobj=terrorist'
p12
I457
sS'w+1=trans-border'
p13
I934
sS'nsubj=violence'
p14
I608
sS'dobj=blindness'
p15
I202
sS'w-1=possibly'
p16
I1404
sS'w+2=but'
p17
I1025
sS'dobj=action'
p18
I181
sS'dobj=water'
p19
I485
sS'w+2=target'
p20
I1281
sS'w+2=international'
p21
I1152
sS'w+2=Mumbai'
p22
I971
sS'dobj=condition'
p23
I228
sS'w-2=police'
p24
I1710
sS'w+2=shutdown'
p25
I1260
sS'w-2=need'
p26
I1679
sS'w+2=helicopter'
p27
I1131
sS'w+2=canvassing'
p28
I1028
sS'xcomp=develop'
p29
I1857
sS'w-2=policy'
p30
I1711
sS'conj=investigate'
p31
I107
sS'w+2=harm'
p32
I1128
sS'xcomp=priority'
p33
I1863
sS'w+2=nation'
p34
I1183
sS'w+2=virus'
p35
I1322
sS'w-2=israeli'
p36
I1640
sS'nsubj=limit'
p37
I558
sS'w+2=tribunal'
p38
I1306
sS'dobj=Commission'
p39
I148
sS'csubj=interview'
p40
I125
sS'w+2=vast'
p41
I1317
sS'dobj=immigrant'
p42
I317
sS'w-2=anesthesia'
p43
I1496
sS'w-2=focus'
p44
I1596
sS'w-2=modern'
p45
I1671
sS'dobj=slavery'
p46
I429
sS'w-2=way'
p47
I1840
sS'advmod=better'
p48
I23
sS'w-1=will'
p49
I1435
sS'nsubjpass=news'
p50
I631
sS'w-2=Congress'
p51
I1450
sS'w+2=party'
p52
I1206
sS'nsubj=regime'
p53
I579
sS'w+2=run'
p54
I1251
sS'dep=polarize'
p55
I136
sS'nsubj=Jerusalem'
p56
I507
sS'w+1=she'
p57
I899
sS'w-2=time'
p58
I1815
sS'nsubj=Violence'
p59
I514
sS'w-2=where'
p60
I1845
sS'nsubj=#PRP#'
p61
I500
sS'w-2=poor'
p62
I1713
sS'w-2=disposal'
p63
I1568
sS'w-2=who'
p64
I1847
sS'w+2=happen'
p65
I1127
sS'w+2=cow'
p66
I1053
sS'dobj=material'
p67
I345
sS'dep=reduce'
p68
I138
sS'w-2=important'
p69
I1623
sS'w-2=southerner'
p70
I1780
sS'w+2=abortion'
p71
I986
sS'w+1=or'
p72
I863
sS'w+2=young'
p73
I1333
sS'w+2=unpalatable'
p74
I1312
sS'w-2=Africa'
p75
I1444
sS'w-2=seat'
p76
I1761
sS'ccomp=say'
p77
I83
sS'conj=track'
p78
I121
sS'dobj=Habre'
p79
I155
sS'ccomp=outweigh'
p80
I80
sS'dobj=clot'
p81
I224
sS'nsubj=restriction'
p82
I584
sS'dobj=release'
p83
I408
sS'dobj=renewal'
p84
I409
sS'w-2=only'
p85
I1692
sS'w-1=technology'
p86
I1419
sS'w+2=fair'
p87
I1104
sS'dobj=formulation'
p88
I302
sS'w-2=want'
p89
I1835
sS'w-2=sea'
p90
I1760
sS'w+1=food'
p91
I790
sS'w+2=occurrence'
p92
I1191
sS'w+2=participation'
p93
I1205
sS'w-1=you'
p94
I1438
sS'w+2=Yanukovych'
p95
I983
sS'w-2=fluoride'
p96
I1595
sS'nsubjpass=percent'
p97
I635
sS'dobj=demolition'
p98
I249
sS'advcl=be'
p99
I4
sS'w+1=tragedy'
p100
I933
sS'w-2=that'
p101
I1807
sS'nsubj=overcrowding'
p102
I567
sS'w-2=than'
p103
I1806
sS'dobj=participation'
p104
I377
sS'w+2=soldier'
p105
I1265
sS'w-2=road'
p106
I1752
sS'w+2=tetanus'
p107
I1287
sS'nsubj=these'
p108
I602
sS'dobj=death'
p109
I242
sS'w+1=problem'
p110
I878
sS'w-2=reason'
p111
I1739
sS'dobj=repetition'
p112
I411
sS'w-2=unrest'
p113
I1827
sS'w+2=further'
p114
I1122
sS'w+1=something'
p115
I908
sS'nsubjpass=Hasina'
p116
I617
sS'w+2=future'
p117
I1123
sS'dobj=disease'
p118
I265
sS'dobj=warming'
p119
I484
sS'w+2=blast'
p120
I1013
sS'dobj=flooding'
p121
I295
sS'dobj=diversion'
p122
I270
sS'w-2=Moscow'
p123
I1464
sS'w-2=order'
p124
I1696
sS'nsubj=interference'
p125
I555
sS'dobj=work'
p126
I489
sS'nsubjpass=Kabbah'
p127
I618
sS'w+1=Dulaimi'
p128
I686
sS'dep=whose'
p129
I142
sS'nsubj=education'
p130
I541
sS'w+1=child'
p131
I748
sS'w+2=encroach'
p132
I1093
sS'w+1=Foreign'
p133
I687
sS'nsubj=that'
p134
I601
sS'advmod=further'
p135
I28
sS'nsubjpass=takeover'
p136
I638
sS'w-2=scandal'
p137
I1757
sS'w+2=Ahmad'
p138
I961
sS'dobj=logger'
p139
I337
sS'w+2=practice'
p140
I1215
sS'w-2=together'
p141
I1817
sS'w-1=position'
p142
I1403
sS'w-2=find'
p143
I1592
sS'nsubj=loan'
p144
I559
sS'dobj=recurrence'
p145
I405
sS'advmod=where'
p146
I55
sS'w+2=whaler'
p147
I1326
sS'w-2=agree'
p148
I1489
sS'w+2=former'
p149
I1119
sS'w+2=consequence'
p150
I1047
sS'w-2=Center'
p151
I1449
sS'nsubj=U.S.'
p152
I513
sS'w+1=formulation'
p153
I794
sS'w-2=its'
p154
I1643
sS'w-2=community'
p155
I1538
sS'w+2=institution'
p156
I1149
sS'dobj=plant'
p157
I385
sS'w+2=host'
p158
I1133
sS'conj=create'
p159
I95
sS'w+1=both'
p160
I739
sS'w-2=inability'
p161
I1625
sS'dobj=Yanukovych'
p162
I174
sS'dobj=North'
p163
I166
sS'acomp=al-shabab'
p164
I0
sS'w-1=to'
p165
I1427
sS'nsubj=lack'
p166
I557
sS'advcl=remain'
p167
I11
sS'dobj=#PRP#'
p168
I144
sS'w-2=do'
p169
I1570
sS'dobj=opposition'
p170
I369
sS'conj=provide'
p171
I113
sS'w-2=logistical'
p172
I1654
sS'w-2=daily'
p173
I1551
sS'advmod=simply'
p174
I46
sS'w+2=force'
p175
I1117
sS'advcl=do'
p176
I7
sS'nsubj=tablet'
p177
I596
sS'conj=open'
p178
I111
sS'w+1=through'
p179
I929
sS'dobj=influenza'
p180
I325
sS'w-2=scene'
p181
I1758
sS'w+1=North'
p182
I702
sS'advmod=most'
p183
I34
sS'w+1=rebel'
p184
I886
sS'nsubj=snag'
p185
I589
sS'w+1=terror'
p186
I918
sS'w+1=ukrainian'
p187
I937
sS'dobj=majority'
p188
I339
sS'w-1=successfully'
p189
I1417
sS'w+1=Friday'
p190
I688
sS'w+2=expect'
p191
I1100
sS'w-2=commitment'
p192
I1537
sS'dobj=army'
p193
I193
sS'w-2=commit'
p194
I1536
sS'w-1=condition'
p195
I1359
sS'w+1=sea'
p196
I893
sS'w+1=tooth'
p197
I932
sS'dobj=decay'
p198
I243
sS'advmod=otherwise'
p199
I38
sS'w-2=manage'
p200
I1657
sS'nsubj=safeguard'
p201
I586
sS'w+1=epidemic'
p202
I778
sS'w-2=desire'
p203
I1560
sS'w+2=revisionism'
p204
I1246
sS'dobj=region'
p205
I407
sS'dobj=deadlock'
p206
I241
sS'w-2=overcrowding'
p207
I1700
sS'w+1=these'
p208
I923
sS'w-2=supplement'
p209
I1795
sS'dobj=something'
p210
I434
sS'dobj=ruler'
p211
I417
sS'nsubj=Hussein'
p212
I505
sS'w+2=demolition'
p213
I1072
sS'w-2=up'
p214
I1828
sS'dep=awareness'
p215
I126
sS'dobj=McCain'
p216
I163
sS'w+2=swiss'
p217
I1276
sS'w+2=public'
p218
I1220
sS'dobj=vehicle'
p219
I477
sS'dobj=body'
p220
I206
sS'dobj=Taleban'
p221
I173
sS'w-2=stock'
p222
I1787
sS'dobj=return'
p223
I415
sS'dobj=Nepal'
p224
I165
sS'ccomp=priority'
p225
I81
sS'w-2=collectively'
p226
I1535
sS'w-2=bid'
p227
I1515
sS'w+2=displace'
p228
I1086
sS'w+1=disease'
p229
I773
sS'w+2=area'
p230
I1003
sS'w+2=Congress'
p231
I963
sS'nsubj=another'
p232
I520
sS'w-2=raid'
p233
I1736
sS'w-2=prevent'
p234
I1723
sS'w-2=attempt'
p235
I1501
sS'w+2=Georgians'
p236
I965
sS'nsubj=military'
p237
I563
sS'w+1=political'
p238
I874
sS'w-2=harass'
p239
I1608
sS'dobj=transportation'
p240
I470
sS'dobj=gazan'
p241
I305
sS'w+1=Nepal'
p242
I700
sS'w+2=money'
p243
I1178
sS'dobj=meltdown'
p244
I346
sS'w+2=respond'
p245
I1243
sS'nsubjpass=ranger'
p246
I636
sS'w+2=travel'
p247
I1304
sS'w+2=person'
p248
I1208
sS'nsubj=state'
p249
I591
sS'w-2=legal'
p250
I1651
sS'w-1=constitutionally'
p251
I1361
sS'dobj=homosexual'
p252
I314
sS'dobj=delay'
p253
I247
sS'w+1=heat-related'
p254
I807
sS'dobj=use'
p255
I474
sS'w+2=break'
p256
I1021
sS'w+2=Afghan'
p257
I960
sS'advmod=particularly'
p258
I39
sS'w+2=report'
p259
I1239
sS'w+1=continue'
p260
I758
sS'xcomp=attend'
p261
I1855
sS'w+1=unnecessary'
p262
I939
sS'nsubj=street'
p263
I593
sS'advcl=start'
p264
I15
sS'w+2=new'
p265
I1186
sS'nsubj=agreement'
p266
I518
sS'w-1=Swift'
p267
I1343
sS'w-2=area'
p268
I1498
sS'cc=or'
p269
I73
sS'dobj=detainee'
p270
I256
sS'w-2=Police'
p271
I1467
sS'w-2=power'
p272
I1715
sS'w-2=still'
p273
I1785
sS'w+2=contain'
p274
I1048
sS'dep=vote'
p275
I141
sS'w+2=suicide'
p276
I1273
sS'w-2=in'
p277
I1624
sS'w+2=clot'
p278
I1041
sS'w-2=it'
p279
I1642
sS'w+2=abuse'
p280
I987
sS'w+1=al-qaida'
p281
I719
sS'w+1=future'
p282
I799
sS'w+2=fire'
p283
I1111
sS'w+1=diversion'
p284
I775
sS'dobj=farmer'
p285
I288
sS'w+2=flow'
p286
I1115
sS'conj=change'
p287
I92
sS'dobj=ballot'
p288
I198
sS'dobj=Iraq'
p289
I157
sS'w-2=States'
p290
I1472
sS'advmod=why'
p291
I56
sS'w-2=quota'
p292
I1735
sS'w-2=have'
p293
I1610
sS'w-2=January'
p294
I1461
sS'w+1=Zuma'
p295
I713
sS'nsubjpass=transmission'
p296
I640
sS'w-2=2003'
p297
I1442
sS'w-1=just'
p298
I1382
sS'w+2=develop'
p299
I1078
sS'dobj=cycle'
p300
I237
sS'dobj=flow'
p301
I296
sS'w+2=Korea'
p302
I967
sS'w+1=if'
p303
I814
sS'w+1=humanitarian'
p304
I812
sS'w-2=bad'
p305
I1505
sS'w+1=aid'
p306
I718
sS'w+1=it'
p307
I830
sS'dobj=that'
p308
I459
sS'w+1=real'
p309
I885
sS'w-2=hostage'
p310
I1617
sS'w+1=New'
p311
I701
sS'dobj=supporter'
p312
I448
sS'w+1=outbreak'
p313
I865
sS'w-2=operation'
p314
I1693
sS'nsubj=repression'
p315
I580
sS'w+2=critical'
p316
I1057
sS'dobj=#NUMBER#'
p317
I143
sS'w+1=development'
p318
I769
sS'advcl=detect'
p319
I6
sS'w+1=supporter'
p320
I915
sS'w+2=pregnancy'
p321
I1216
sS'w+2=illness'
p322
I1139
sS'w-1=acid'
p323
I1345
sS'w+1=alzheimer'
p324
I722
sS'w+2=war'
p325
I1324
sS'nsubj=return'
p326
I585
sS'prep=give'
p327
I658
sS'w-2=violence'
p328
I1832
sS'w+2=raw'
p329
I1226
sS'dobj=confrontation'
p330
I230
sS'dobj=tribunal'
p331
I471
sS'dobj=danger'
p332
I240
sS'w+1=media'
p333
I841
sS'w-2=reduce'
p334
I1742
sS'w-2=import'
p335
I1621
sS'w-2=deadline'
p336
I1553
sS'w-2=system'
p337
I1798
sS'dobj=sunni'
p338
I447
sS'mark=after'
p339
I491
sS'w+2=militant'
p340
I1175
sS'w+2=range'
p341
I1225
sS'nsubjpass=most'
p342
I630
sS'w-2=street'
p343
I1788
sS'w+2=bomber'
p344
I1017
sS'w+1=parasite'
p345
I868
sS'w+1=seasonal'
p346
I894
sS'w+2=Somali'
p347
I978
sS'w-1=do'
p348
I1366
sS'w-2=secure'
p349
I1763
sS'w+2=democratic'
p350
I1070
sS'w+2=interference'
p351
I1151
sS'nsubjpass=journalist'
p352
I626
sS'dobj=citizen'
p353
I222
sS'w-2=best'
p354
I1514
sS'dobj=conflict'
p355
I229
sS'w+1=water'
p356
I948
sS'w+2=postpone'
p357
I1214
sS'w+2=North'
p358
I974
sS'w+1=tamper'
p359
I916
sS'w+2=sun'
p360
I1274
sS'w-1=on'
p361
I1395
sS'w+1=blood'
p362
I737
sS'w+1=vaccinator'
p363
I946
sS'w+2=flashpoint'
p364
I1112
sS'w+1=clash'
p365
I753
sS'w+2=vaccine'
p366
I1316
sS'dobj=form'
p367
I300
sS'w+2=agency'
p368
I995
sS'w-2=to'
p369
I1816
sS'w-2=and'
p370
I1495
sS'w+2=recipient'
p371
I1229
sS'w-2=easy'
p372
I1573
sS'w-2=one'
p373
I1691
sS'w-2=he'
p374
I1611
sS'w+1=cheating'
p375
I747
sS'w+1=crisis'
p376
I763
sS'w+1=what'
p377
I951
sS'dobj=implementation'
p378
I319
sS'nsubj=cut'
p379
I538
sS'w+1=opposition'
p380
I862
sS'w-2=mask'
p381
I1660
sS'w-1=could'
p382
I1363
sS'w-1=put'
p383
I1407
sS'w-2=amendment'
p384
I1494
sS'w+1=industry'
p385
I820
sS'w-2=Mosul'
p386
I1465
sS'w-2=Yeltsin'
p387
I1477
sS'aux=should'
p388
I65
sS'w-2=presence'
p389
I1718
sS'w+2=government'
p390
I1126
sS'dobj=assessment'
p391
I195
sS'w+2=demonstrator'
p392
I1074
sS'w-1=they'
p393
I1425
sS'dobj=eventuality'
p394
I282
sS'w+2=collision'
p395
I1043
sS'dobj=bloodshed'
p396
I204
sS'w-1=-lrb-'
p397
I1336
sS'w+1=cervical'
p398
I744
sS'w-2=involve'
p399
I1639
sS'w-2=stability'
p400
I1781
sS'dobj=whaler'
p401
I487
sS'dobj=interference'
p402
I331
sS'prep=after'
p403
I650
sS'w-2=stride'
p404
I1789
sS'w+2=cervical'
p405
I1033
sS'prep=against'
p406
I651
sS'dobj=escalation'
p407
I280
sS'advcl=able'
p408
I1
sS'w-2=low-interest'
p409
I1655
sS'nsubj=charge'
p410
I531
sS'w+2=massive'
p411
I1170
sS'w-2=resolution'
p412
I1747
sS'dobj=mosquito'
p413
I355
sS'w+2=immigration'
p414
I1141
sS'w-1=obstacle'
p415
I1392
sS'conj=control'
p416
I94
sS'w+1=incriminate'
p417
I819
sS'w+1=public'
p418
I881
sS'w-2=you'
p419
I1853
sS'w-2=should'
p420
I1773
sS'dobj=al-qaida'
p421
I186
sS'w+1=sickness'
p422
I900
sS'w-1=election'
p423
I1370
sS'w+1=new'
p424
I855
sS'conj=lessen'
p425
I108
sS'nsubj=negotiation'
p426
I565
sS'w+2=boycott'
p427
I1020
sS'w-2=car'
p428
I1527
sS'w+1=radical'
p429
I883
sS'dobj=party'
p430
I378
sS'w-2=can'
p431
I1525
sS'w-2=importance'
p432
I1622
sS'w+2=generation'
p433
I1124
sS'w+1=the'
p434
I922
sS'w-2=Union'
p435
I1475
sS'w+1=Mr.'
p436
I698
sS'dobj=child'
p437
I220
sS'w+1=early'
p438
I777
sS'w+1=infection'
p439
I821
sS'w+2=murderer'
p440
I1182
sS'w+2=dialogue'
p441
I1079
sS'dobj=illness'
p442
I316
sS'w+2=spreading'
p443
I1268
sS'ccomp=investigate'
p444
I79
sS'w+2=Obama-Clinton'
p445
I976
sS'w+2=altogether'
p446
I999
sS'dobj=migrant'
p447
I349
sS'w-2=eye'
p448
I1585
sS'dobj=information'
p449
I326
sS'w-2=bill'
p450
I1516
sS'w-2=we'
p451
I1841
sS'w+1=insurgent'
p452
I825
sS'w+1=serious'
p453
I897
sS'w-2=future'
p454
I1601
sS'w-2=representation'
p455
I1746
sS'dobj=Delhi'
p456
I150
sS'w+2=protest'
p457
I1219
sS'w-2=supplies'
p458
I1796
sS'w-1=bombardment'
p459
I1354
sS'w+2=worker'
p460
I1330
sS'dobj=fallout'
p461
I285
sS'w+2=instability'
p462
I1148
sS'w-2=organize'
p463
I1697
sS'prep=within'
p464
I669
sS'w+1=that'
p465
I921
sS'dobj=peace'
p466
I379
sS'dobj=pain'
p467
I373
sS'w-2=unite'
p468
I1826
sS'dobj=Iran'
p469
I156
sS'w-2=pro-business'
p470
I1724
sS'w-1=say'
p471
I1412
sS'w+1=soil'
p472
I906
sS'dobj=industry'
p473
I322
sS'w-1=violence'
p474
I1430
sS'w+2=broadcasting'
p475
I1023
sS'w+2=go'
p476
I1125
sS'advmod=so'
p477
I47
sS'advmod=just'
p478
I31
sS'advmod=se'
p479
I44
sS'w+2=torture'
p480
I1299
sS'w+1=clandestine'
p481
I752
sS'dobj=move'
p482
I356
sS'aux=may'
p483
I62
sS'w-2=purpose'
p484
I1733
sS'w-2=embankment'
p485
I1579
sS'w+1=Taliban'
p486
I709
sS'w-2=watcher'
p487
I1838
sS'nsubj=Congress'
p488
I501
sS'w-1=loan'
p489
I1385
sS'w+2=quick'
p490
I1221
sS'nsubj=camera'
p491
I529
sS'w-2=treasure'
p492
I1820
sS'w-2=anything'
p493
I1497
sS'w+1=factional'
p494
I783
sS'w-2=alive'
p495
I1492
sS'w-2=succeed'
p496
I1791
sS'nsubj=unrest'
p497
I606
sS'dobj=desire'
p498
I255
sS'w-1=perhaps'
p499
I1400
sS'nsubj=what'
p500
I611
sS'w-2=mean'
p501
I1663
sS'w-1=concern'
p502
I1358
sS'w+1=spread'
p503
I910
sS'w+2=appeal'
p504
I1002
sS'w-2=many'
p505
I1658
sS'w+2=slow'
p506
I1263
sS'w-1=have'
p507
I1376
sS'w-2=Party'
p508
I1466
sS'w+2=employee'
p509
I1092
sS'w+2=in'
p510
I1143
sS'w-2=week'
p511
I1843
sS'dobj=team'
p512
I453
sS'w+2=it'
p513
I1154
sS'w-2=hope'
p514
I1616
sS'dobj=failure'
p515
I284
sS'dobj=demonstrator'
p516
I251
sS'w-2=other'
p517
I1698
sS'w+2=Bush'
p518
I962
sS'prep=about'
p519
I648
sS'aux=can'
p520
I58
sS'dobj=area'
p521
I191
sS'w+1=Habre'
p522
I689
sS'w+2=deployment'
p523
I1075
sS'w+1=gun'
p524
I804
sS'w+1=government'
p525
I803
sS'w+2=take'
p526
I1279
sS'advmod=only'
p527
I37
sS'nsubjpass=lawyer'
p528
I627
sS'w+2=animal'
p529
I1001
sS'w+1=member'
p530
I842
sS'w-2=gathering'
p531
I1603
sS'conj=end'
p532
I99
sS'xcomp=report'
p533
I1866
sS'dobj=worker'
p534
I490
sS'advmod=largely'
p535
I32
sS'prep=to'
p536
I667
sS'dobj=victory'
p537
I478
sS'dobj=signing'
p538
I426
sS'dobj=foreclosure'
p539
I299
sS'conj=make'
p540
I110
sS'dobj=takeover'
p541
I451
sS'w-2=menopause'
p542
I1668
sS'w+2=hot'
p543
I1134
sS'advmod=strictly'
p544
I49
sS'nsubj=attempt'
p545
I522
sS'w-2=consumer'
p546
I1541
sS'w+2=possible'
p547
I1213
sS'dobj=spike'
p548
I436
sS'w+2=trade'
p549
I1301
sS'dobj=attack'
p550
I197
sS'w-2=unable'
p551
I1825
sS'w-2=press'
p552
I1721
sS'w-2=district'
p553
I1569
sS'advmod=temporarily'
p554
I51
sS'dobj=all'
p555
I187
sS'xcomp=recover'
p556
I1865
sS'w-2=several'
p557
I1770
sS'dobj=election'
p558
I272
sS'w+2=urinary'
p559
I1313
sS'w-2=seek'
p560
I1766
sS'w+2=official'
p561
I1194
sS'w-2=vaccine'
p562
I1830
sS'dobj=crime'
p563
I234
sS'w+2=act'
p564
I991
sS'nsubj=Police'
p565
I510
sS'w+1=legislation'
p566
I834
sS'w+1=counterfeiting'
p567
I761
sS'w+2=abduction'
p568
I985
sS'w-2=design'
p569
I1558
sS'w-2=folic'
p570
I1597
sS'w-2=available'
p571
I1503
sS'nsubj=overseas'
p572
I568
sS'w+1=AIDS'
p573
I681
sS'w-2=court'
p574
I1546
sS'w+2=race-based'
p575
I1222
sS'dobj=deportation'
p576
I254
sS'w-1=experience'
p577
I1372
sS'w-2=benefit'
p578
I1513
sS'dobj=people'
p579
I380
sS'w+2=through'
p580
I1297
sS'w+1=atrocity'
p581
I729
sS'nsubj=achievement'
p582
I515
sS'w-2=progress'
p583
I1728
sS'dobj=activity'
p584
I182
sS'w+1=perception'
p585
I872
sS'nsubjpass=watcher'
p586
I641
sS'w-2=term'
p587
I1804
sS'w-2=possible'
p588
I1714
sS'dobj=cheating'
p589
I219
sS'w+1=diabetes'
p590
I770
sS'dobj=Georgians'
p591
I153
sS'w-2=serious'
p592
I1767
sS'w-2=friend'
p593
I1600
sS'w+2=rights'
p594
I1247
sS'w+1=woman'
p595
I954
sS'w+2=access'
p596
I988
sS'w-2=take'
p597
I1801
sS'w-2=rebel'
p598
I1740
sS'prep=over'
p599
I665
sS'advmod=immediately'
p600
I30
sS'dobj=official'
p601
I366
sS'dobj=tb'
p602
I452
sS'dobj=riot'
p603
I416
sS'xcomp=pass'
p604
I1861
sS'advmod=possibly'
p605
I41
sS'dobj=operative'
p606
I368
sS'w+1=protest'
p607
I880
sS'nsubjpass=that'
p608
I639
sS'w+2=NATO'
p609
I973
sS'w+1=renew'
p610
I891
sS'w-2=able'
p611
I1481
sS'ccomp=be'
p612
I75
sS'dobj=mortality'
p613
I354
sS'w+2=danger'
p614
I1061
sS'dobj=boat'
p615
I205
sS'w-1=with'
p616
I1436
sS'w-1=previously'
p617
I1405
sS'nsubj=raid'
p618
I578
sS'w-2=health'
p619
I1612
sS'conj=implement'
p620
I105
sS'xcomp=present'
p621
I1862
sS'w-2=she'
p622
I1771
sS'nsubj=technology'
p623
I599
sS'conj=treat'
p624
I122
sS'conj=prevent'
p625
I112
sS'nsubjpass=one-third'
p626
I632
sS'w+1=civil'
p627
I750
sS'w+1=homosexual'
p628
I810
sS'w-2=issue'
p629
I1641
sS'parataxis=say'
p630
I645
sS'w+2=violation'
p631
I1320
sS'w+2=imminent'
p632
I1142
sS'w+2=state'
p633
I1269
sS'conj=ally'
p634
I89
sS'w-2=public'
p635
I1731
sS'w-1=one'
p636
I1396
sS'w-2=may'
p637
I1662
sS'w+2=Thaksin'
p638
I980
sS'w+1=cataract'
p639
I742
sS'advcl=can'
p640
I5
sS'w+2=million'
p641
I1176
sS'w+2=strike'
p642
I1270
sS'w-2=over'
p643
I1699
sS'w-2=airport'
p644
I1491
sS'w+2=say'
p645
I1252
sS'nsubj=effort'
p646
I543
sS'dobj=virus'
p647
I481
sS'w+2=communist'
p648
I1044
sS'w-2=pressure'
p649
I1722
sS'w+2=sunni'
p650
I1275
sS'w+2=insurgent'
p651
I1150
sS'dobj=chaos'
p652
I218
sS'dobj=epidemic'
p653
I277
sS'w+2=crime'
p654
I1054
sS'dobj=occurrence'
p655
I365
sS'dobj=allegation'
p656
I188
sS'w-2=stimulus'
p657
I1786
sS'w+2=clean'
p658
I1039
sS'nsubj=bombardment'
p659
I528
sS'dobj=success'
p660
I446
sS'w+2=mineral'
p661
I1177
sS'w+2=shooting'
p662
I1257
sS'w-2=Europe'
p663
I1453
sS'w+1=tb'
p664
I917
sS'w-2=keep'
p665
I1645
sS'w+1=unproven'
p666
I941
sS'w-1=and'
p667
I1348
sS'w+2=epidemic'
p668
I1096
sS'dobj=atrocity'
p669
I196
sS'nsubj=event'
p670
I544
sS'w-2=struggle'
p671
I1790
sS'nsubj=means'
p672
I560
sS'w-2=wealth'
p673
I1842
sS'w-2=device'
p674
I1565
sS'w+2=tourism'
p675
I1300
sS'w+1=involuntary'
p676
I827
sS'w+1=influenza'
p677
I822
sS'w-2=credit'
p678
I1547
sS'dobj=case'
p679
I214
sS'w+2=syndrome'
p680
I1278
sS'w+1=contract'
p681
I759
sS'ccomp=torture'
p682
I84
sS'w+2=budget'
p683
I1024
sS'dobj=those'
p684
I464
sS'w-2=tactic'
p685
I1800
sS'dobj=Korea'
p686
I162
sS'w-2=would'
p687
I1851
sS'w+2=vaccination'
p688
I1315
sS'dobj=Ravalomana'
p689
I170
sS'w+1=famine'
p690
I785
sS'w+1=slavery'
p691
I902
sS'w-2=build'
p692
I1520
sS'w-1=people'
p693
I1399
sS'dobj=disruption'
p694
I267
sS'nsubjpass=corruption'
p695
I624
sS'dobj=shooting'
p696
I421
sS'w+1=peace'
p697
I870
sS'w-2=back'
p698
I1504
sS'advmod=there'
p699
I52
sS'w-1=always'
p700
I1347
sS'w+2=technology'
p701
I1282
sS'w-2=dedicate'
p702
I1555
sS'w-2=healthy'
p703
I1613
sS'w+2=many'
p704
I1167
sS'dep=happen'
p705
I133
sS'w+2=Nour'
p706
I975
sS'nsubj=decision'
p707
I539
sS'nsubj=States'
p708
I511
sS'w+2=react'
p709
I1227
sS'w+1=violence'
p710
I947
sS'nsubj=effect'
p711
I542
sS'dobj=rally'
p712
I398
sS'w+2=operative'
p713
I1200
sS'w-1=regulation'
p714
I1409
sS'dobj=repeat'
p715
I410
sS'w+1=democrat'
p716
I766
sS'dobj=change'
p717
I217
sS'dobj=sea'
p718
I419
sS'w-2=plan'
p719
I1709
sS'w-2=day'
p720
I1552
sS'w+2=direct'
p721
I1081
sS'conj=put'
p722
I114
sS'dobj=re-election'
p723
I399
sS'dobj=member'
p724
I347
sS'dobj=problem'
p725
I390
sS'w+2=shortfall'
p726
I1259
sS'w+2=catastrophic'
p727
I1032
sS'w+2=transportation'
p728
I1303
sS'w-2=service'
p729
I1768
sS'cc=also'
p730
I70
sS'w+1=islamist'
p731
I829
sS'nsubj=militant'
p732
I562
sS'dobj=pirate'
p733
I384
sS'w+2=accident'
p734
I989
sS'w-2=injury'
p735
I1630
sS'nsubj=antibiotic'
p736
I521
sS'w+2=one-third'
p737
I1197
sS'dobj=practice'
p738
I387
sS'w+1=Sudan'
p739
I708
sS'w-2=desirable'
p740
I1559
sS'w-2=forest'
p741
I1599
sS'w-2=interference'
p742
I1636
sS'dobj=recession'
p743
I401
sS'w+1=mad'
p744
I836
sS'w-2=Sharif'
p745
I1471
sS'w+1=hiv'
p746
I808
sS'w+1=Kenya'
p747
I696
sS'nsubj=check'
p748
I532
sS'nsubjpass=who'
p749
I643
sS'w+1=incident'
p750
I817
sS'w-2=condom'
p751
I1540
sS'dobj=immigration'
p752
I318
sS'w-2=presentation'
p753
I1719
sS'w+1=student'
p754
I911
sS'w+1=smuggling'
p755
I904
sS'xcomp=incriminate'
p756
I1860
sS'w+1=boat'
p757
I738
sS'w-2=border'
p758
I1518
sS'nsubj=official'
p759
I566
sS'dobj=step'
p760
I442
sS'w-1=regime'
p761
I1408
sS'dobj=instability'
p762
I328
sS'dobj=disorder'
p763
I266
sS'dobj=history'
p764
I311
sS'w+2=transmission'
p765
I1302
sS'dobj=recipient'
p766
I402
sS'cc=but'
p767
I72
sS'w+2=file'
p768
I1109
sS'w+1=further'
p769
I798
sS'w+2=thrashing'
p770
I1295
sS'w-1=who'
p771
I1434
sS'w-1=help'
p772
I1377
sS'w+2=fighting'
p773
I1108
sS'w+2=breastfeed'
p774
I1022
sS'dobj=state'
p775
I441
sS'conj=generate'
p776
I103
sS'w+1=farmer'
p777
I786
sS'w-1=limit'
p778
I1384
sS'w-2=crisis'
p779
I1548
sS'tmod=march'
p780
I671
sS'w+2=incident'
p781
I1144
sS'w+1=today'
p782
I931
sS'w+1=erosion'
p783
I780
sS'w-1=better'
p784
I1353
sS'w+2=competition'
p785
I1045
sS'conj=ensure'
p786
I100
sS'w+2=smuggling'
p787
I1264
sS'w+2=wire'
p788
I1327
sS'dobj=discrimination'
p789
I264
sS'w-1=largely'
p790
I1383
sS'dobj=dengue'
p791
I252
sS'nsubj=which'
p792
I612
sS'dobj=injury'
p793
I327
sS'w-2=Campaign'
p794
I1448
sS'w-2=Girodolle'
p795
I1454
sS'dep=come'
p796
I128
sS'w+2=hiv'
p797
I1132
sS'w-2=corruption'
p798
I1543
sS'w-1=time'
p799
I1426
sS'w+2=voting'
p800
I1323
sS'csubj=be'
p801
I123
sS'dobj=Gul'
p802
I154
sS'dobj=battle'
p803
I200
sS'w-2=hold'
p804
I1615
sS'dobj=disagreement'
p805
I262
sS'dobj=defect'
p806
I245
sS'w-2=traffic'
p807
I1819
sS'w+2=9\\/11'
p808
I959
sS'dobj=campaign'
p809
I211
sS'w+2=housing'
p810
I1135
sS'w+1=Islam'
p811
I695
sS'nsubjpass=member'
p812
I629
sS'w-2=law'
p813
I1649
sS'nsubj=system'
p814
I595
sS'w+2=deterioration'
p815
I1077
sS'w+1=abuse'
p816
I715
sS'w+1=transnational'
p817
I936
sS'prep=across'
p818
I649
sS'neg=not'
p819
I498
sS'w-2=try'
p820
I1823
sS'w+1=instability'
p821
I824
sS'advmod=previously'
p822
I42
sS'nsubj=Court'
p823
I502
sS'conj=deterrent'
p824
I98
sS'dobj=recognition'
p825
I403
sS'xcomp=go'
p826
I1859
sS'dobj=shortage'
p827
I422
sS'w-2=,'
p828
I1439
sS'w-2=-'
p829
I1440
sS'w-2=.'
p830
I1441
sS'dobj=mineral'
p831
I352
sS'w+1=weaponry'
p832
I950
sS'dobj=number'
p833
I363
sS'aux=have'
p834
I61
sS'w+2=worse'
p835
I1332
sS'w+1=cancer'
p836
I741
sS'dobj=bank'
p837
I199
sS'nsubj=clause'
p838
I533
sS'w+2=flea'
p839
I1113
sS'w+1=journalist'
p840
I832
sS'w+2=disease'
p841
I1084
sS'csubj=give'
p842
I124
sS'w-2=invoke'
p843
I1638
sS'nsubj=trick'
p844
I605
sS'w-2=how'
p845
I1619
sS'w+2=attend'
p846
I1008
sS'w+2=control'
p847
I1049
sS'dobj=Romney'
p848
I171
sS'w+2=policy'
p849
I1211
sS'nsubj=warning'
p850
I609
sS'nsubj=action'
p851
I517
sS'nsubj=ban'
p852
I524
sS'w-2=material'
p853
I1661
sS'w-2=step'
p854
I1784
sS'dobj=canvassing'
p855
I213
sS'dobj=deployment'
p856
I253
sS'w+1=piracy'
p857
I873
sS'dobj=Bush'
p858
I147
sS'w-2=make'
p859
I1656
sS'nsubj=best'
p860
I525
sS'w+1=many'
p861
I838
sS'w+1=similar'
p862
I901
sS'w+1=from'
p863
I796
sS'nsubj=plan'
p864
I571
sS'w-2=city'
p865
I1531
sS'w+1=Somalia'
p866
I707
sS'w+2=warming'
p867
I1325
sS'dobj=distribution'
p868
I269
sS'w-2=Afghanistan'
p869
I1443
sS'dobj=fighter'
p870
I289
sS'w-2=tablet'
p871
I1799
sS'dobj=vote'
p872
I482
sS'nsubj=safetyprocedure'
p873
I587
sS'w-2=delay'
p874
I1556
sS'w-2=garden'
p875
I1602
sS'w-2=purchaser'
p876
I1732
sS'w+2=infection'
p877
I1145
sS'w+1=discrimination'
p878
I772
sS'w-2=attack'
p879
I1500
sS'w+2=U.S.'
p880
I981
sS'w-1=Hussein'
p881
I1339
sS'w-1=even'
p882
I1371
sS'w+1=mother-to-child'
p883
I850
sS'w-2=lawyer'
p884
I1650
sS'prep=from'
p885
I657
sS'w-1=snag'
p886
I1414
sS'w+2=injury'
p887
I1147
sS'w+2=term'
p888
I1284
sS'w+1=when'
p889
I952
sS'dobj=shift'
p890
I420
sS'w-2=security'
p891
I1764
sS'w+1=Congress'
p892
I684
sS'dobj=malnutrition'
p893
I341
sS'w+2=signing'
p894
I1261
sS'w+2=opposition'
p895
I1201
sS'w+2=accurate'
p896
I990
sS'w+1=,'
p897
I675
sS'w+1=.'
p898
I678
sS'w+1=cholera'
p899
I749
sS'w+1=5'
p900
I679
sS'w+1=birth'
p901
I735
sS'w-2=factor'
p902
I1586
sS'w+1=?'
p903
I680
sS'dobj=demonstration'
p904
I250
sS'dobj=appeal'
p905
I190
sS'w+1=I'
p906
I691
sS'w+1=fraud'
p907
I795
sS'dobj=tragedy'
p908
I468
sS'dobj=energy'
p909
I276
sS'mark=with'
p910
I497
sS'dobj=nation'
p911
I360
sS'w+1=a'
p912
I714
sS'w+1=disruption'
p913
I774
sS'nsubjpass=Serbia'
p914
I620
sS'w+1=U.S.'
p915
I711
sS'w+2=allegation'
p916
I997
sS'w-1=include'
p917
I1379
sS'w-2=because'
p918
I1512
sS'w-1=that'
p919
I1423
sS'nsubjpass=many'
p920
I628
sS'w+2=vehicle'
p921
I1318
sS'conj=suffer'
p922
I120
sS'w-2=stage'
p923
I1782
sS'w-2=people'
p924
I1707
sS'nsubjpass=people'
p925
I634
sS'dobj=soldier'
p926
I433
sS'nsubj=Gbagbo'
p927
I504
sS'nsubjpass=access'
p928
I622
sS'xcomp=use'
p929
I1869
sS'dobj=Pyongyang'
p930
I169
sS'w-2=use'
p931
I1829
sS'w+2=clinical'
p932
I1040
sS'w-1=effectively'
p933
I1368
sS'w-2=Rafael'
p934
I1469
sS'dobj=group'
p935
I309
sS'dobj=loss'
p936
I338
sS'w-2=condition'
p937
I1539
sS'w-1=would'
p938
I1437
sS'w-2=practical'
p939
I1716
sS'w+2=child'
p940
I1035
sS'w+2=meltdown'
p941
I1172
sS'w+1=polyp'
p942
I875
sS'w+1=mass'
p943
I839
sS'nsubj=Muslims'
p944
I508
sS'w-2=intend'
p945
I1633
sS'w+2=severe'
p946
I1255
sS'w-2=recommend'
p947
I1741
sS'nsubjpass=cancer'
p948
I623
sS'w-2=obviously'
p949
I1688
sS'dobj=pregnancy'
p950
I388
sS'w+1=family'
p951
I784
sS'w+1=illegal'
p952
I815
sS'dobj=trip'
p953
I472
sS'w-2=farm'
p954
I1589
sS'w+2=recount'
p955
I1231
sS'w-2=chance'
p956
I1529
sS'w-2=mother'
p957
I1675
sS'w+2=emergence'
p958
I1091
sS'advcl=take'
p959
I16
sS'w+2=country'
p960
I1051
sS'w+2=flu'
p961
I1116
sS'w+2=to'
p962
I1298
sS'dobj=aid'
p963
I185
sS'w-2=market'
p964
I1659
sS'w+2=infiltration'
p965
I1146
sS'dobj=thrashing'
p966
I465
sS'advcl=find'
p967
I9
sS'nsubj=change'
p968
I530
sS'w+1=money'
p969
I846
sS'w-2=roadblock'
p970
I1753
sS'w+2=attack'
p971
I1007
sS'w+2=criminal'
p972
I1055
sS'w+2=between'
p973
I1012
sS'w-2=act'
p974
I1484
sS'dobj=collapse'
p975
I225
sS'complm=that'
p976
I88
sS'w-2=cloth'
p977
I1532
sS'advmod=successfully'
p978
I50
sS'w+2=legal'
p979
I1162
sS'w+2=flood'
p980
I1114
sS'w-2=success'
p981
I1792
sS'w+2=world'
p982
I1331
sS'dobj=host'
p983
I315
sS'dep=order'
p984
I134
sS'w+1=not'
p985
I857
sS'w+1=smuggled'
p986
I903
sS'w-2=election'
p987
I1578
sS'dep=describe'
p988
I131
sS'w+1=most'
p989
I849
sS'w+2=north'
p990
I1188
sS'w+2=failed'
p991
I1102
sS'w+1=they'
p992
I924
sS'ccomp=withdraw'
p993
I86
sS'dobj=pandemic'
p994
I374
sS'w+2=law-and-order'
p995
I1159
sS'w+1=those'
p996
I927
sS'conj=reduce'
p997
I116
sS'prep=in'
p998
I659
sS'w-2=bureaucratic'
p999
I1521
sS'w-1=about'
p1000
I1344
sS'w+1=attack'
p1001
I730
sS'w+2=outbreak'
p1002
I1203
sS'w-2=slow'
p1003
I1775
sS'w+1=fundamentalist'
p1004
I797
sS'dobj=parasite'
p1005
I375
sS'w+2=political'
p1006
I1212
sS'dobj=dam'
p1007
I238
sS'dobj=result'
p1008
I414
sS'w+2=establishment'
p1009
I1099
sS'dobj=infection'
p1010
I323
sS'w+1=Pyongyang'
p1011
I705
sS'w-2=currency'
p1012
I1550
sS'w+1=other'
p1013
I864
sS'w-2=bag'
p1014
I1506
sS'nsubj=Firestone'
p1015
I503
sS'dobj=Odinga'
p1016
I167
sS'w-2=acid'
p1017
I1483
sS'w-2=government'
p1018
I1604
sS'w+1=ongoing'
p1019
I861
sS'w-2=opportunity'
p1020
I1694
sS'dobj=helicopter'
p1021
I310
sS'w-1=in'
p1022
I1378
sS'w+1=thousand'
p1023
I928
sS'w+2=army'
p1024
I1005
sS'nsubj=experience'
p1025
I545
sS'w+2=disagreement'
p1026
I1082
sS'w+2=distribution'
p1027
I1088
sS'mark=if'
p1028
I494
sS'w+2=fighter'
p1029
I1107
sS'dobj=Palestinians'
p1030
I168
sS'mark=in'
p1031
I495
sS'w-2=work'
p1032
I1849
sS'conj=contain'
p1033
I93
sS'w-2=state'
p1034
I1783
sS'dobj=violation'
p1035
I479
sS'w+1=islamic'
p1036
I828
sS'w-2=sector'
p1037
I1762
sS'dobj=shortfall'
p1038
I423
sS'w-2=needle'
p1039
I1680
sS'w+2=dam'
p1040
I1059
sS'nsubj=stance'
p1041
I590
sS'dep=say'
p1042
I139
sS'nsubj=terrain'
p1043
I600
sS'w-2=beach'
p1044
I1511
sS'dobj=Iraqis'
p1045
I158
sS'nsubj=issue'
p1046
I556
sS'dobj=hiv\\/aids'
p1047
I313
sS'w+2=tension'
p1048
I1283
sS'nsubj=who'
p1049
I613
sS'dobj=deterioration'
p1050
I257
sS'nsubj=fluoride'
p1051
I548
sS'w-2=of'
p1052
I1689
sS'w+2=region'
p1053
I1234
sS'xcomp=tamper'
p1054
I1868
sS'w-2=deploy'
p1055
I1557
sS'w-2=diamond'
p1056
I1566
sS'w+2=release'
p1057
I1235
sS'dobj=blast'
p1058
I201
sS'nsubj=party'
p1059
I569
sS'nsubj=authority'
p1060
I523
sS'w-2=prepare'
p1061
I1717
sS'w+1=malaria'
p1062
I837
sS'dobj=negotiation'
p1063
I361
sS'dobj=Kabbah'
p1064
I161
sS'w-2=ability'
p1065
I1480
sS'dobj=Congress'
p1066
I149
sS'dobj=this'
p1067
I463
sS'w+2=allow'
p1068
I998
sS'w+1=militia'
p1069
I844
sS'w-2=political'
p1070
I1712
sS'aux=must'
p1071
I64
sS'w+1=as'
p1072
I728
sS'w-2=code'
p1073
I1534
sS'w+2=like'
p1074
I1163
sS'w-2=gypsum'
p1075
I1606
sS'w-2=itself'
p1076
I1644
sS'w+2=financial'
p1077
I1110
sS'w-1=can'
p1078
I1357
sS'w-2=official'
p1079
I1690
sS'w-2=treat'
p1080
I1821
sS'w+2=case'
p1081
I1030
sS'dobj=murderer'
p1082
I359
sS'w+2=takeover'
p1083
I1280
sS'advmod=easily'
p1084
I25
sS'advmod=when'
p1085
I54
sS'xcomp=able'
p1086
I1854
sS'dobj=Australia'
p1087
I146
sS'dobj=membership'
p1088
I348
sS'w-2=nothing'
p1089
I1685
sS'w-2=JBS'
p1090
I1460
sS'w-2=key'
p1091
I1646
sS'w+1=we'
p1092
I949
sS'w-2=intervene'
p1093
I1637
sS'w-2=Borges'
p1094
I1447
sS'w+1=eradication'
p1095
I779
sS'w-2=eager'
p1096
I1572
sS'nsubj=vaccine'
p1097
I607
sS'w+2=success'
p1098
I1272
sS'auxpass=be'
p1099
I69
sS'w+1=negative'
p1100
I851
sS'w-2=balance'
p1101
I1507
sS'nsubj=bill'
p1102
I526
sS'dobj=transmission'
p1103
I469
sS'w+1=dengue'
p1104
I768
sS'w+2=recurrence'
p1105
I1232
sS'w+1=sudden'
p1106
I913
sS'w-2=hand'
p1107
I1607
sS'dobj=spreading'
p1108
I439
sS'w+1=southerner'
p1109
I909
sS'nsubj=#NUMBER#'
p1110
I499
sS'nsubj=step'
p1111
I592
sS'w+2=thing'
p1112
I1294
sS'w+2=free'
p1113
I1120
sS'w+2=terrorist'
p1114
I1285
sS'w+1=its'
p1115
I831
sS'w+2=terrorize'
p1116
I1286
sS'w+2=extremist'
p1117
I1101
sS'w+1=quality'
p1118
I882
sS'w-2=local'
p1119
I1653
sS"w-1=''"
p1120
I1334
sS'nsubj=factor'
p1121
I546
sS'nsubjpass=#NUMBER#'
p1122
I614
sS'w-2=place'
p1123
I1708
sS'w-2=sometimes'
p1124
I1779
sS'w+2=erosion'
p1125
I1097
sS'advmod=still'
p1126
I48
sS'w+2=disclosure'
p1127
I1083
sS'w-2=worldwide'
p1128
I1850
sS'nsubj=airport'
p1129
I519
sS'w+1=collision'
p1130
I754
sS'w-2=insufficient'
p1131
I1632
sS'dobj=sister'
p1132
I427
sS'nsubj=this'
p1133
I604
sS'dobj=government'
p1134
I308
sS'dobj=flu'
p1135
I297
sS'w+1=incitement'
p1136
I818
sS'w+1=sexual'
p1137
I898
sS'w+1=hunger'
p1138
I813
sS'w-2=establish'
p1139
I1584
sS'dobj=slump'
p1140
I431
sS'dobj=disclosure'
p1141
I263
sS'w-2=there'
p1142
I1810
sS'w-2=root'
p1143
I1754
sS'dobj=tension'
p1144
I455
sS'w-2=necessary'
p1145
I1678
sS'w+1=recurrent'
p1146
I888
sS'dobj=polyp'
p1147
I386
sS'w-2=no'
p1148
I1683
sS'w+1=international'
p1149
I826
sS'dobj=court'
p1150
I233
sS'w-2=harsh'
p1151
I1609
sS'w-2=essential'
p1152
I1583
sS'dobj=report'
p1153
I412
sS'w+1=tiny'
p1154
I930
sS'dobj=race'
p1155
I396
sS'w+2=revenge'
p1156
I1245
sS'w-2=which'
p1157
I1846
sS'w-1=official'
p1158
I1394
sS'w-2=rate'
p1159
I1737
sS'dobj=decision'
p1160
I244
sS'advmod=even'
p1161
I27
sS'w-2=education'
p1162
I1575
sS'w+2=reconciliation'
p1163
I1230
sS'w-2=medical'
p1164
I1667
sS'w-2=means'
p1165
I1664
sS'w-2=the'
p1166
I1808
sS'w+2=structure'
p1167
I1271
sS'w+2=Taleban'
p1168
I979
sS'w-2=interested'
p1169
I1634
sS'dobj=slide'
p1170
I430
sS'aux=will'
p1171
I67
sS'w-2=Darfur'
p1172
I1452
sS'dobj=abuse'
p1173
I178
sS'conj=increase'
p1174
I106
sS'w-1=role'
p1175
I1411
sS'prep=with'
p1176
I668
sS'w+2=debt'
p1177
I1066
sS'w+2=arm'
p1178
I1004
sS'dobj=establishment'
p1179
I281
sS'w+2=spike'
p1180
I1266
sS'w-2=session'
p1181
I1769
sS'advcl=act'
p1182
I3
sS'dobj=force'
p1183
I298
sS'dobj=strike'
p1184
I443
sS'w+1=bird'
p1185
I734
sS'w-2=Tbilisi'
p1186
I1474
sS'nsubj=intensity'
p1187
I554
sS'ccomp=tragedy'
p1188
I85
sS'w-2=such'
p1189
I1794
sS'w+2=do'
p1190
I1089
sS'w-2=nevirapine'
p1191
I1682
sS'w+2=Kremlin'
p1192
I968
sS'dobj=trafficking'
p1193
I467
sS'w-2=umbrella'
p1194
I1824
sS'w+1=lung'
p1195
I835
sS'w+1=neo-natal'
p1196
I853
sS'dobj=collision'
p1197
I226
sS'conj=curable'
p1198
I96
sS'w+1=global'
p1199
I802
sS'w+1=hiv\\/aids'
p1200
I809
sS'advmod=constitutionally'
p1201
I24
sS'w+2=deepen'
p1202
I1068
sS'dobj=flight'
p1203
I293
sS'partmod=make'
p1204
I647
sS'w-2=economy'
p1205
I1574
sS'cc=and'
p1206
I71
sS'w+1=genocide'
p1207
I801
sS'w-2=Atlantic'
p1208
I1446
sS'w+1=by'
p1209
I740
sS'dobj=clash'
p1210
I223
sS'nsubj=money'
p1211
I564
sS'w+1=financial'
p1212
I788
sS'w-2=overseas'
p1213
I1701
sS'w-2=ineffective'
p1214
I1626
sS'w+1=Iraq'
p1215
I693
sS'w-2=war'
p1216
I1836
sS'w-2=tool'
p1217
I1818
sS'w-2=solution'
p1218
I1777
sS'tmod=year'
p1219
I673
sS'w+1=-lrb-'
p1220
I676
sS'w+1=gazan'
p1221
I800
sS'w+1=Iran'
p1222
I692
sS'w-1=cooperation'
p1223
I1362
sS'w+2=violence'
p1224
I1321
sS'w-2=see'
p1225
I1765
sS'w-2=payment'
p1226
I1706
sS'w+2=family'
p1227
I1105
sS'dobj=southerner'
p1228
I435
sS'w+2=conflict'
p1229
I1046
sS'w-2=quickly'
p1230
I1734
sS'w+1=social'
p1231
I905
sS'advmod=severely'
p1232
I45
sS'nsubj=condition'
p1233
I536
sS'w-1=Police'
p1234
I1342
sS'nsubj=presence'
p1235
I575
sS'w-2=party'
p1236
I1704
sS'w-2=schedule'
p1237
I1759
sS'w+1=demonstrator'
p1238
I767
sS'aux=could'
p1239
I59
sS'prep=like'
p1240
I662
sS'w-2=President'
p1241
I1468
sS'w+1=-rrb-'
p1242
I677
sS'w+1=conflict'
p1243
I756
sS'w-2=inflation'
p1244
I1627
sS'dobj=infiltration'
p1245
I324
sS'w+1=McCain'
p1246
I697
sS'dobj=outbreak'
p1247
I371
sS'w+2=cancer'
p1248
I1027
sS'w+2=investigate'
p1249
I1153
sS'prep=of'
p1250
I663
sS'w+2=try'
p1251
I1309
sS'prep=on'
p1252
I664
sS'xcomp=fight'
p1253
I1858
sS'w+2=failure'
p1254
I1103
sS'w-2=could'
p1255
I1544
sS'conj=fortify'
p1256
I102
sS'nsubj=response'
p1257
I583
sS'w+2=mortality'
p1258
I1180
sS'dobj=fighting'
p1259
I290
sS'w+2=offensive'
p1260
I1193
sS'w+2=election'
p1261
I1090
sS'w-2=failure'
p1262
I1588
sS'w+2=than'
p1263
I1288
sS'w-2=talk'
p1264
I1802
sS'dobj=investment'
p1265
I332
sS'w+1=Hamas'
p1266
I690
sS'dobj=militant'
p1267
I351
sS'w+2=that'
p1268
I1289
sS'dep=except'
p1269
I132
sS'advmod=effectively'
p1270
I26
sS'w-2=Michigan'
p1271
I1463
sS'dobj=president'
p1272
I389
sS'w-1=or'
p1273
I1398
sS'nsubj=policy'
p1274
I573
sS'nsubj=Swift'
p1275
I512
sS'dobj=situation'
p1276
I428
sS'w+2=diamond'
p1277
I1080
sS'advcl=say'
p1278
I13
sS'w+1=foreclosure'
p1279
I791
sS'w-1=of'
p1280
I1393
sS'nsubj=police'
p1281
I572
sS'w-2=more'
p1282
I1674
sS'dobj=newborn'
p1283
I362
sS'w+2=end'
p1284
I1094
sS'advmod=actually'
p1285
I17
sS'w-1=troops'
p1286
I1428
sS'w+1=this'
p1287
I926
sS'w-2=enough'
p1288
I1582
sS'advmod=obviously'
p1289
I36
sS'w-2=limit'
p1290
I1652
sS'dobj=corruption'
p1291
I231
sS'w-1=so'
p1292
I1415
sS'w+2=join'
p1293
I1155
sS'w-2=national'
p1294
I1677
sS'advmod=now'
p1295
I35
sS'w+1=doping'
p1296
I776
sS'w+2=blindness'
p1297
I1014
sS'w+1=avoidable'
p1298
I731
sS'w-2=will'
p1299
I1848
sS'w+2=leader'
p1300
I1160
sS'w-2=technology'
p1301
I1803
sS'w+2=newborn'
p1302
I1187
sS'w+1=he'
p1303
I805
sS'w-2=warming'
p1304
I1837
sS'w+2=White'
p1305
I982
sS'w+2=victory'
p1306
I1319
sS'dobj=kind'
p1307
I335
sS'w-2=not'
p1308
I1684
sS'w-2=now'
p1309
I1686
sS'w+2=bloodshed'
p1310
I1015
sS'w-2=as'
p1311
I1499
sS'nsubjpass=party'
p1312
I633
sS'w-1=also'
p1313
I1346
sS'w+2=large'
p1314
I1157
sS'dobj=Islam'
p1315
I159
sS'w+1=meaningful'
p1316
I840
sS'w+1=heart'
p1317
I806
sS'w-1=system'
p1318
I1418
sS'ccomp=consider'
p1319
I78
sS'dobj=Somalia'
p1320
I172
sS'w-1=temporarily'
p1321
I1420
sS'w-2=Court'
p1322
I1451
sS'w-1=either'
p1323
I1369
sS'dobj=sickness'
p1324
I425
sS'w+2=death'
p1325
I1065
sS'conj=fly'
p1326
I101
sS'dobj=tetanus'
p1327
I458
sS'w+2=there'
p1328
I1292
sS'w+2=defect'
p1329
I1069
sS'dobj=money'
p1330
I353
sS'w+1=chaos'
p1331
I746
sS'dobj=bombing'
p1332
I208
sS'w-2=resort'
p1333
I1748
sS'dobj=migration'
p1334
I350
sS'dep=critical'
p1335
I130
sS'w+1=more'
p1336
I847
sS'dobj=fraud'
p1337
I303
sS'w-1=police'
p1338
I1402
sS'w-1=must'
p1339
I1389
sS'w+1=militant'
p1340
I843
sS'w+2=have'
p1341
I1130
sS'w-2=opposition'
p1342
I1695
sS'w-1=intransigence'
p1343
I1380
sS'w+2=ruler'
p1344
I1250
sS'w+1=mosquito'
p1345
I848
sS'w+1=Mugabe'
p1346
I699
sS'w-2=enforcement'
p1347
I1581
sS'w-2=protest'
p1348
I1730
sS'w+1=complete'
p1349
I755
sS'w-2=interfere'
p1350
I1635
sS'w-1=government'
p1351
I1375
sS'dobj=boycott'
p1352
I209
sS'w-1=barrier'
p1353
I1351
sS'conj=slow'
p1354
I118
sS'w-2=activity'
p1355
I1487
sS'w+2=republican'
p1356
I1242
sS'aux=to'
p1357
I66
sS'w-2=measure'
p1358
I1665
sS'w+1=official'
p1359
I860
sS'w-2=soapbox'
p1360
I1776
sS'w-1=verifiably'
p1361
I1429
sS'dobj=part'
p1362
I376
sS'w+1=million'
p1363
I845
sS'w+2=type'
p1364
I1311
sS'dobj=market'
p1365
I344
sS'w-1=for'
p1366
I1373
sS'w-2=region'
p1367
I1744
sS'advmod=perhaps'
p1368
I40
sS'nsubj=Nadal'
p1369
I509
sS'w+1=human'
p1370
I811
sS'dobj=crossing'
p1371
I236
sS'w-2=farmer'
p1372
I1590
sS'prep=during'
p1373
I655
sS'dobj=democrat'
p1374
I248
sS'w+1=action'
p1375
I717
sS'xcomp=re-sell'
p1376
I1864
sS'w+1=north-south'
p1377
I856
sS'w-1=now'
p1378
I1391
sS'w-1=not'
p1379
I1390
sS'w-2=difficult'
p1380
I1567
sS'w+2=disorder'
p1381
I1085
sS'w-2=force'
p1382
I1598
sS'aux=be'
p1383
I57
sS'nsubj=difference'
p1384
I540
sS'w+1=possible'
p1385
I876
sS'w-2=protective'
p1386
I1729
sS'dobj=Dulaimi'
p1387
I151
sS'dobj=recount'
p1388
I404
sS'w+1=flooding'
p1389
I789
sS'advcl=erupt'
p1390
I8
sS'nsubj=shot'
p1391
I588
sS'ccomp=call'
p1392
I76
sS'advmod=altogether'
p1393
I20
sS'w-2=but'
p1394
I1523
sS'dobj=thing'
p1395
I461
sS'dobj=perception'
p1396
I381
sS'w+1=crime'
p1397
I762
sS'w-2=house'
p1398
I1618
sS'w+2=number'
p1399
I1189
sS'advmod=well'
p1400
I53
sS'dobj=manufacturer'
p1401
I342
sS'w+2=use'
p1402
I1314
sS'w-2=thing'
p1403
I1812
sS'nsubjpass=#PRP#'
p1404
I615
sS'w+2=murder'
p1405
I1181
sS'w-2=fleet'
p1406
I1594
sS'w-2=they'
p1407
I1811
sS'dobj=syndrome'
p1408
I450
sS'prep=by'
p1409
I654
sS'w+1=undocumented'
p1410
I938
sS'w-2=country'
p1411
I1545
sS'w+1=fighting'
p1412
I787
sS'w-2=refuse'
p1413
I1743
sS'nsubj=government'
p1414
I551
sS'nsubj=concern'
p1415
I535
sS'w+2=change'
p1416
I1034
sS'w+2=treat'
p1417
I1305
sS'w+2=renewal'
p1418
I1236
sS'w-2=vow'
p1419
I1834
sS'w+1=Romney'
p1420
I706
sS'w+2=enter'
p1421
I1095
sS'w+2=large-scale'
p1422
I1158
sS'w+2=dissolution'
p1423
I1087
sS'w-2=crucial'
p1424
I1549
sS'w-1=plan'
p1425
I1401
sS'w-2=safeguard'
p1426
I1755
sS'dobj=other'
p1427
I370
sS'w-2=campaign'
p1428
I1524
sS'dobj=damage'
p1429
I239
sS'nsubj=protest'
p1430
I577
sS'conj=stop'
p1431
I119
sS'w-1=by'
p1432
I1356
sS'w-1=be'
p1433
I1352
sS'w+1=pain'
p1434
I866
sS'w+2=Islamists'
p1435
I966
sS'dobj=erosion'
p1436
I279
sS'w+2=activity'
p1437
I992
sS'dobj=hiv'
p1438
I312
sS'w-2=final'
p1439
I1591
sS'w+2=recession'
p1440
I1228
sS'w-1=Bush'
p1441
I1338
sS'dep=concern'
p1442
I129
sS'dobj=prosecution'
p1443
I393
sS'mark=because'
p1444
I493
sS'aux=might'
p1445
I63
sS'w+1=thing'
p1446
I925
sS'dobj=incident'
p1447
I320
sS'dobj=obesity'
p1448
I364
sS'dobj=casualty'
p1449
I215
sS'w-2=flee'
p1450
I1593
sS'w+2=native'
p1451
I1184
sS'prep=through'
p1452
I666
sS'w-2=mechanism'
p1453
I1666
sS'nsubj=flame'
p1454
I547
sS'w+1=neurological'
p1455
I854
sS'conj=help'
p1456
I104
sS'nsubj=weather'
p1457
I610
sS'dobj=vacuum'
p1458
I476
sS'w+2=deportation'
p1459
I1076
sS'dobj=movement'
p1460
I357
sS'w-2=agency'
p1461
I1488
sS'dobj=proposal'
p1462
I392
sS'w-1=which'
p1463
I1433
sS'w+1=people'
p1464
I871
sS'w+1=nuclear'
p1465
I858
sS'w+1=suicide'
p1466
I914
sS'w-2=Huckabee'
p1467
I1456
sS'dobj=famine'
p1468
I287
sS'w-1=from'
p1469
I1374
sS'w-2=effort'
p1470
I1577
sS'w-1=only'
p1471
I1397
sS'w+2=by'
p1472
I1026
sS'w+2=manufacturer'
p1473
I1166
sS'w+2=be'
p1474
I1010
sS'dobj=eradication'
p1475
I278
sS'w-2=group'
p1476
I1605
sS'dobj=dissolution'
p1477
I268
sS'w+2=president'
p1478
I1217
sS'w-1=problem'
p1479
I1406
sS'w+1=terrorist'
p1480
I920
sS'aux=would'
p1481
I68
sS'w-1=it'
p1482
I1381
sS'w+2=critically-important'
p1483
I1058
sS'w-2=neighborhood'
p1484
I1681
sS'w+1=terrorism'
p1485
I919
sS'w-1=there'
p1486
I1424
sS'w+1=arm'
p1487
I726
sS'w+2=switching'
p1488
I1277
sS'w-1=Nadal'
p1489
I1340
sS'w+1=immediately'
p1490
I816
sS'dobj=trade'
p1491
I466
sS'w-2=a'
p1492
I1478
sS'w+1=proper'
p1493
I879
sS'w+2=rally'
p1494
I1224
sS'dobj=the'
p1495
I460
sS'w-2=immediately'
p1496
I1620
sS'dobj=cataract'
p1497
I216
sS'w+1=and'
p1498
I723
sS'w-2=presidential'
p1499
I1720
sS'dobj=diamond'
p1500
I261
sS'dobj=third'
p1501
I462
sS'w-2=detect'
p1502
I1561
sS'advmod=probably'
p1503
I43
sS'w+1=any'
p1504
I725
sS'conj=break'
p1505
I90
sS'w+1=Ayman'
p1506
I683
sS'w-2=capital'
p1507
I1526
sS'dobj=journalist'
p1508
I333
sS'dobj=onset'
p1509
I367
sS'w-2=successful'
p1510
I1793
sS'dobj=budget'
p1511
I210
sS'w-2=obligation'
p1512
I1687
sS'w-2=emphasis'
p1513
I1580
sS'w+2=formation'
p1514
I1118
sS'advcl=lose'
p1515
I10
sS'nsubj=strife'
p1516
I594
sS'nsubj=talk'
p1517
I598
sS'nsubj=resistance'
p1518
I582
sS'w+1=chadian'
p1519
I745
sS'w+1=innocent'
p1520
I823
sS'dobj=scenario'
p1521
I418
sS'tmod=offensive'
p1522
I672
sS'w+1=obesity'
p1523
I859
sS'w-2=virus'
p1524
I1833
sS'w+1=transmission'
p1525
I935
sS'mark=than'
p1526
I496
sS'w-2=decisive'
p1527
I1554
sS'w+2=crisis'
p1528
I1056
sS'w+2=similar'
p1529
I1262
sS'w+2=protect'
p1530
I1218
sS'w+1=unsafe'
p1531
I942
sS'w+2=riot'
p1532
I1248
sS'w-2=tetanus'
p1533
I1805
sS'w+2=rocket'
p1534
I1249
sS'w+2=more'
p1535
I1179
sS'dobj=quality'
p1536
I395
sS'w+2=harvest'
p1537
I1129
sS'dobj=vaccinator'
p1538
I475
sS'dobj=gathering'
p1539
I304
sS'w+1=unwanted'
p1540
I943
sS'w-1=easily'
p1541
I1367
sS'w+2=citizen'
p1542
I1036
sS'dobj=flood'
p1543
I294
sS'w+1=remote'
p1544
I890
sS'dobj=incitement'
p1545
I321
sS'dobj=repression'
p1546
I413
sS'w+2=against'
p1547
I994
sS'dobj=proliferation'
p1548
I391
sS'w-2=situation'
p1549
I1774
sS'w-2=Hungary'
p1550
I1457
sS'ccomp=worse'
p1551
I87
sS'w-1=country'
p1552
I1364
sS'w-2=military'
p1553
I1670
sS'dobj=many'
p1554
I343
sS'w+2=reduce'
p1555
I1233
sS'xcomp=spread'
p1556
I1867
sS'conj=broadcast'
p1557
I91
sS'w-2=aim'
p1558
I1490
sS'w+1=bad'
p1559
I733
sS'nsubjpass=Roh'
p1560
I619
sS'w-2=initiative'
p1561
I1628
sS'w-2=ready'
p1562
I1738
sS'w-2=thoroughly'
p1563
I1814
sS'dobj=star'
p1564
I440
sS'prep=for'
p1565
I656
sS'dep=that'
p1566
I140
sS'dobj=student'
p1567
I445
sS'nsubj=force'
p1568
I549
sS'dobj=spot'
p1569
I437
sS'w+2=escalation'
p1570
I1098
sS'dobj=leader'
p1571
I336
sS'w-1=weather'
p1572
I1432
sS'ccomp=ratify'
p1573
I82
sS'w+1=al-shabab'
p1574
I720
sS'w+2=return'
p1575
I1244
sS'dobj=outcome'
p1576
I372
sS'w+2=bombing'
p1577
I1018
sS'nsubj=insecurity'
p1578
I553
sS'w+1=cross-border'
p1579
I764
sS'w+2=could'
p1580
I1050
sS'conj=react'
p1581
I115
sS'w-2=control'
p1582
I1542
sS'advmod=always'
p1583
I21
sS'w+2=withdraw'
p1584
I1328
sS'w-2=also'
p1585
I1493
sS'w-2=some'
p1586
I1778
sS'w-2=therapy'
p1587
I1809
sS'w+2=Delhi'
p1588
I964
sS'dobj=generation'
p1589
I306
sS'dobj=murder'
p1590
I358
sS'w+1=accident'
p1591
I716
sS'w+2=casualty'
p1592
I1031
sS'nsubj=acid'
p1593
I516
sS'w+2=plan'
p1594
I1210
sS'w+2=humanitarian'
p1595
I1136
sS'w-2=procedure'
p1596
I1726
sS'w+2=she'
p1597
I1256
sS'w+2=deadly'
p1598
I1064
sS'w+1=urgently'
p1599
I945
sS'dobj=development'
p1600
I258
sS'w+1=re-sell'
p1601
I884
sS'w-2=downturn'
p1602
I1571
sS'w-2=patient'
p1603
I1705
sS'w-2=restriction'
p1604
I1750
sS'dobj=emergency'
p1605
I274
sS'dobj=emergence'
p1606
I273
sS'w+2=aid'
p1607
I996
sS'w-1=Pakistan'
p1608
I1341
sS'advcl=accept'
p1609
I2
sS'w-2=month'
p1610
I1673
sS'w+2=or'
p1611
I1202
sS'dobj=flea'
p1612
I292
sS'w-2=Wednesday'
p1613
I1476
sS'w+2=of'
p1614
I1192
sS'w+2=market'
p1615
I1169
sS'w+2=on'
p1616
I1195
sS'dobj=accident'
p1617
I179
sS'w+1=Australia'
p1618
I682
sS'w+2=repetition'
p1619
I1238
sS'prep=into'
p1620
I661
sS'ccomp=change'
p1621
I77
sS'nsubj=collapse'
p1622
I534
sS'w+1=Zimbabwe'
p1623
I712
sS'w+2=once'
p1624
I1196
sS'w-2=kill'
p1625
I1647
sS'w-2=chaos'
p1626
I1530
sS'prep=without'
p1627
I670
sS'prep=inside'
p1628
I660
sS'ccomp=Sudarjam'
p1629
I74
sS'w+2=loss'
p1630
I1165
sS'w+2=from'
p1631
I1121
sS'w+2=two'
p1632
I1310
sS'w-2=troops'
p1633
I1822
sS'parataxis=accuse'
p1634
I644
sS'w-2=swiftly'
p1635
I1797
sS'w-2=fail'
p1636
I1587
sS'dobj=flashpoint'
p1637
I291
sS'w+1=pregnancy'
p1638
I877
sS'w+1=negotiation'
p1639
I852
sS'dobj=shutdown'
p1640
I424
sS'w-2=remain'
p1641
I1745
sS'w+1=diamond'
p1642
I771
sS'dobj=arm'
p1643
I192
sS'w-2=Iran'
p1644
I1458
sS'dobj=defection'
p1645
I246
sS'dobj=Mugabe'
p1646
I164
sS'nsubj=takeover'
p1647
I597
sS'w+1=death'
p1648
I765
sS'w-2=Iraq'
p1649
I1459
sS'w-2=this'
p1650
I1813
sS'xcomp=contract'
p1651
I1856
sS'conj=risk'
p1652
I117
sS'w-2=panel'
p1653
I1702
sS'dobj=bomber'
p1654
I207
sS'aux=do'
p1655
I60
sS'w+2=famine'
p1656
I1106
sS'w-2=problem'
p1657
I1725
sS'w+2=Mugabe'
p1658
I970
sS'w+1=blindness'
p1659
I736
sS'dobj=spread'
p1660
I438
sS'w-2=right'
p1661
I1751
sS'w+1=recognition'
p1662
I887
sS'dobj=competition'
p1663
I227
sS'nsubj=people'
p1664
I570
sS'w+2=bank'
p1665
I1009
sS'nsubjpass=Union'
p1666
I621
sS'w+1=catastrophic'
p1667
I743
sS'w+2=people'
p1668
I1207
sS'w+2=leave'
p1669
I1161
sS'dobj=malaria'
p1670
I340
sS'dobj=diabetes'
p1671
I259
sS'w+1=former'
p1672
I793
sS'w-2=nation'
p1673
I1676
sS'dobj=AIDS'
p1674
I145
sS'w+1=foreign'
p1675
I792
sS'dobj=cancer'
p1676
I212
sS'w-1=terrain'
p1677
I1421
sS'w-2=determine'
p1678
I1563
sS'w+1=unplanned'
p1679
I940
sS'w+1=civilian'
p1680
I751
sS'w+2=repression'
p1681
I1240
sS'w+2=decay'
p1682
I1067
sS"w+2=''"
p1683
I955
sS'w+1=widespread'
p1684
I953
sS'nsubj=blockage'
p1685
I527
sS'dobj=Zuma'
p1686
I175
sS'dobj=genocide'
p1687
I307
sS'w+1=palestinian'
p1688
I867
sS'dobj=extremist'
p1689
I283
sS'w+1=baby'
p1690
I732
sS'w-2=insecure'
p1691
I1631
sS'dobj=institution'
p1692
I329
sS'w-2=business'
p1693
I1522
sS'w+1=even'
p1694
I781
sS'w-2=program'
p1695
I1727
sS'w+2=threat'
p1696
I1296
sS'dobj=employee'
p1697
I275
sS'w+2=board'
p1698
I1016
sS'w+1=secondary'
p1699
I895
sS'w+2=need'
p1700
I1185
sS'dobj=weaponry'
p1701
I486
sS'w+2=deadlock'
p1702
I1063
sS'w-2=Arbour'
p1703
I1445
sS'w-1=we'
p1704
I1431
sS'advcl=severe'
p1705
I14
sS'w-2=vehicle'
p1706
I1831
sS'dobj=insurgent'
p1707
I330
sS'w+2=shortage'
p1708
I1258
sS'w-1=but'
p1709
I1355
sS"w+2='s"
p1710
I956
sS'w-2=bridge'
p1711
I1519
sS'w-2=when'
p1712
I1844
sS'w+2=spread'
p1713
I1267
sS'dobj=piracy'
p1714
I383
sS'w-1=simply'
p1715
I1413
sS'w-1=constitution'
p1716
I1360
sS'dobj=type'
p1717
I473
sS'w+2=liver'
p1718
I1164
sS'dobj=doping'
p1719
I271
sS"w+1=''"
p1720
I674
sS'dobj=abduction'
p1721
I176
sS'w-2=responsibility'
p1722
I1749
sS'w+2=before'
p1723
I1011
sS'w+2=additional'
p1724
I993
sS'w+2=trip'
p1725
I1307
sS'dobj=family'
p1726
I286
sS'nsubjpass=farmer'
p1727
I625
sS'w+2=clash'
p1728
I1038
sS'dobj=dialogue'
p1729
I260
sS'partmod=avoid'
p1730
I646
sS'advmod=again'
p1731
I18
sS'w+2=kind'
p1732
I1156
sS'w-2=money'
p1733
I1672
sS'nsubj=thing'
p1734
I603
sS'w+2=Musharraf'
p1735
I972
sS'advmod=back'
p1736
I22
sS'dobj=bloc'
p1737
I203
sS'w-2=activist'
p1738
I1486
sS'w-1=make'
p1739
I1386
sS'w-1=difficulty'
p1740
I1365
sS'w-2=authority'
p1741
I1502
sS'w-2=be'
p1742
I1510
sS'w+2=civil'
p1743
I1037
sS'w+1=report'
p1744
I892
sS'w+2=seven'
p1745
I1254
sS'w-2=part'
p1746
I1703
sS'dobj=raid'
p1747
I397
sS'dobj=smuggling'
p1748
I432
sS'w+2=migration'
p1749
I1174
sS'w+2=onset'
p1750
I1199
sS'conj=likely'
p1751
I109
sS'w-2=might'
p1752
I1669
sS'w-2=action'
p1753
I1485
sS'nsubj=hurricane'
p1754
I552
sS'w+2=troop'
p1755
I1308
sS'w+2=damage'
p1756
I1060
sS'w+1=all'
p1757
I721
sS'w+2=reprisal'
p1758
I1241
sS'advcl=remove'
p1759
I12
sS'w+1=December'
p1760
I685
sS'w+2=atrocity'
p1761
I1006
sS'w+2=cardiac'
p1762
I1029
sS'w+2=Palestinians'
p1763
I977
sS'w-2=coast'
p1764
I1533
sS'w-2=battle'
p1765
I1509
sS'w-2=blockage'
p1766
I1517
sS'w+2=.'
p1767
I958
sS'w+2=demonstration'
p1768
I1073
sS'w+2=outcome'
p1769
I1204
sS'w+2=raid'
p1770
I1223
sS'w+1=Iraqis'
p1771
I694
sS'nsubj=Iraq'
p1772
I506
sS'dobj=switching'
p1773
I449
sS'nsubj=resignation'
p1774
I581
sS'dobj=abortion'
p1775
I177
sS'dobj=woman'
p1776
I488
sS'w-2=determination'
p1777
I1562
sS'w+2=and'
p1778
I1000
sS'w+2=pirate'
p1779
I1209
sS'w+2=member'
p1780
I1173
sS'dep=cancer'
p1781
I127
sS'dobj=act'
p1782
I180
sS'w+2=dangerous'
p1783
I1062
sS'nsubj=problem'
p1784
I576
sS'w+2=only'
p1785
I1198
sS'w+1=pass'
p1786
I869
sS'advmod=also'
p1787
I19
sS'w-2=injunction'
p1788
I1629
sS'dobj=protest'
p1789
I394
sS'w-1=military'
p1790
I1388
sS'w-2=effective'
p1791
I1576
sS'dobj=formation'
p1792
I301
sS'w+2=boom'
p1793
I1019
sS'w+2=illegal'
p1794
I1138
sS'w-2=say'
p1795
I1756
sS'w+2=the'
p1796
I1290
sS'prep=at'
p1797
I653
sS'nsubj=friend'
p1798
I550
sS'prep=as'
p1799
I652
sS'w-2=Kabbah'
p1800
I1462
sS'w-2=Hasina'
p1801
I1455
sS'dobj=counterfeiting'
p1802
I232
sS'w-1=.'
p1803
I1337
sS'dobj=agency'
p1804
I184
sS'w-1=,'
p1805
I1335
sS'dobj=structure'
p1806
I444
sS'w+2=material'
p1807
I1171
sS'w+2=repeat'
p1808
I1237
sS'dobj=technology'
p1809
I454
sS'dobj=regime'
p1810
I406
sS'dobj=violence'
p1811
I480
sS'w+2=march'
p1812
I1168
sS'w+1=confrontation'
p1813
I757
sS'dobj=advance'
p1814
I183
sS'w+1=security'
p1815
I896
sS'w+1=another'
p1816
I724
sS'w-2=case'
p1817
I1528
sS'w+2=Minister'
p1818
I969
sS'w+1=arson'
p1819
I727
sS'w-1=restriction'
p1820
I1410
sS'nsubj=constitution'
p1821
I537
sS'w-2=late'
p1822
I1648
sS'dobj=crisis'
p1823
I235
sS'nsubjpass=which'
p1824
I642
sS'w+2=work'
p1825
I1329
sS'mark=as'
p1826
I492
sS'w+2=security'
p1827
I1253
sS'w-2=Saddam'
p1828
I1470
sS'w+1=Oxfam'
p1829
I703
sS'nsubj=measure'
p1830
I561
sS'dobj=arson'
p1831
I194
sS'w+2=they'
p1832
I1293
sS'w+1=President'
p1833
I704
sS'dep=protect'
p1834
I137
sS'w-2=shear'
p1835
I1772
sS'w+2=then'
p1836
I1291
sS'w+1=large-scale'
p1837
I833
sS'w-2=year'
p1838
I1852
sS'nsubj=position'
p1839
I574
sS'w-2=development'
p1840
I1564
sS'dobj=Islamists'
p1841
I160
sS'nsubjpass=southerner'
p1842
I637
sS'w+2=court'
p1843
I1052
sS'conj=cure'
p1844
I97
sS'advmod=how'
p1845
I29
sS'w+1=U.N.'
p1846
I710
sS'dobj=rebel'
p1847
I400
sS'w+2=observe'
p1848
I1190
sS'dobj=animal'
p1849
I189
sS'w+1=urban'
p1850
I944
sS'w-2=help'
p1851
I1614
sS'w-1=than'
p1852
I1422
sS'dobj=cholera'
p1853
I221
sS'w+1=extremist'
p1854
I782
sS'dobj=Erdogan'
p1855
I152
sS'w+1=corruption'
p1856
I760
sS'w+1=such'
p1857
I912
sS'dep=outcome'
p1858
I135
sS'dobj=person'
p1859
I382
sS'w+2=democratically'
p1860
I1071
sS'w-2=Taylor'
p1861
I1473
sS'w+1=some'
p1862
I907
sS'w+2=,'
p1863
I957
sS'dobj=war'
p1864
I483
sS'w-2=access'
p1865
I1482
sS'w+1=religious'
p1866
I889
sS'w+2=collapse'
p1867
I1042
sS'w-1=strictly'
p1868
I1416
sS'w+2=hurricane'
p1869
I1137
sS'nsubjpass=Arbour'
p1870
I616
sS'w-2=water'
p1871
I1839
sS'w-1=may'
p1872
I1387
sS'w-1=at'
p1873
I1350
sS'w-1=as'
p1874
I1349
sS'w-2=barrier'
p1875
I1508
sS'w+2=a'
p1876
I984
sS'w+2=immigrant'
p1877
I1140
ssS'dtype'
p1878
cnumpy
float64
p1879
sS'feature_names_'
p1880
(lp1881
g164
ag408
ag1609
ag1182
ag99
ag640
ag319
ag176
ag1390
ag967
ag1515
ag167
ag1759
ag1278
ag1705
ag264
ag959
ag1285
ag1731
ag1787
ag1393
ag1583
ag1736
ag48
ag1201
ag1084
ag1270
ag1161
ag135
ag1845
ag600
ag478
ag535
ag11
ag183
ag1295
ag1289
ag527
ag199
ag258
ag1368
ag605
ag822
ag1503
ag479
ag1232
ag174
ag477
ag1126
ag544
ag978
ag554
ag699
ag1400
ag1085
ag146
ag291
ag1383
ag520
ag1239
ag1655
ag834
ag483
ag1445
ag1071
ag388
ag1357
ag1171
ag1481
ag1099
ag730
ag1206
ag767
ag269
ag1629
ag612
ag1392
ag1621
ag1319
ag444
ag80
ag225
ag1573
ag77
ag682
ag1188
ag993
ag1551
ag976
ag634
ag1505
ag1557
ag287
ag1033
ag416
ag159
ag1198
ag1844
ag824
ag532
ag786
ag1326
ag1256
ag776
ag1456
ag620
ag1174
ag31
ag425
ag1751
ag540
ag178
ag625
ag171
ag722
ag1581
ag997
ag1652
ag1354
ag1431
ag922
ag78
ag624
ag801
ag842
ag40
ag215
ag1781
ag796
ag1442
ag1335
ag988
ag1269
ag705
ag984
ag1858
ag55
ag1834
ag68
ag1042
ag1566
ag275
ag129
ag317
ag168
ag1674
ag1087
ag858
ag39
ag1066
ag456
ag1387
ag1855
ag591
ag802
ag79
ag469
ag289
ag1045
ag1315
ag1841
ag1064
ag686
ag216
ag1646
ag224
ag163
ag1016
ag1030
ag930
ag689
ag848
ag1320
ag221
ag162
ag1686
ag1721
ag1775
ag1173
ag1617
ag1782
ag18
ag584
ag1814
ag1804
ag963
ag421
ag555
ag656
ag1849
ag905
ag521
ag1643
ag193
ag1831
ag391
ag669
ag550
ag288
ag837
ag803
ag1058
ag15
ag1737
ag396
ag615
ag220
ag1654
ag1332
ag1352
ag1511
ag809
ag1676
ag855
ag679
ag1449
ag1497
ag717
ag652
ag589
ag437
ag1853
ag353
ag1210
ag81
ag975
ag1197
ag1663
ag23
ag355
ag330
ag1291
ag1802
ag1150
ag563
ag1823
ag1371
ag300
ag1007
ag1429
ag332
ag206
ag109
ag198
ag1160
ag806
ag1645
ag253
ag1374
ag98
ag904
ag516
ag791
ag856
ag576
ag498
ag270
ag1050
ag1600
ag1671
ag1729
ag1500
ag805
ag1141
ag789
ag118
ag763
ag694
ag1477
ag868
ag122
ag1719
ag558
ag1606
ag1605
ag1697
ag909
ag653
ag1475
ag1436
ag407
ag1179
ag394
ag1689
ag515
ag461
ag1726
ag1468
ag285
ag870
ag1259
ag1637
ag1612
ag1203
ag1543
ag121
ag301
ag1135
ag1183
ag539
ag367
ag1792
ag88
ag1337
ag1539
ag241
ag1589
ag1687
ag1134
ag935
ag1021
ag764
ag1438
ag1047
ag252
ag983
ag442
ag42
ag752
ag378
ag1447
ag1545
ag473
ag1010
ag1245
ag180
ag449
ag793
ag762
ag1692
ag1707
ag402
ag1265
ag1508
ag8
ag1307
ag1571
ag139
ag936
ag188
ag1670
ag893
ag1401
ag1554
ag1365
ag67
ag244
ag724
ag1088
ag447
ag1334
ag1267
ag831
ag1330
ag613
ag413
ag482
ag1460
ag1590
ag1082
ag911
ag1063
ag1283
ag833
ag1448
ag655
ag601
ag1509
ag606
ag170
ag1427
ag1247
ag1576
ag467
ag994
ag1005
ag1362
ag104
ag430
ag466
ag579
ag1396
ag1859
ag1714
ag733
ag157
ag1147
ag738
ag950
ag1272
ag725
ag1548
ag1462
ag1443
ag1789
ag1536
ag1155
ag1747
ag712
ag723
ag1847
ag743
ag766
ag825
ag1388
ag145
ag1810
ag205
ag83
ag84
ag715
ag112
ag1153
ag1546
ag1008
ag223
ag603
ag211
ag1521
ag718
ag890
ag696
ag827
ag1038
ag1640
ag1324
ag538
ag1132
ag1276
ag46
ag1170
ag1140
ag1748
ag926
ag210
ag1228
ag548
ag1569
ag1660
ag1108
ag1564
ag775
ag760
ag1184
ag1806
ag1567
ag660
ag338
ag312
ag1773
ag1408
ag541
ag602
ag512
ag1809
ag1144
ag9
ag12
ag1327
ag308
ag1495
ag1395
ag1501
ag1067
ag684
ag966
ag1491
ag1193
ag908
ag1103
ag240
ag331
ag953
ag1717
ag255
ag1538
ag1458
ag219
ag537
ag1035
ag1811
ag647
ag872
ag1864
ag119
ag19
ag1701
ag401
ag1776
ag126
ag534
ag339
ag1826
ag1444
ag1028
ag1031
ag1526
ag910
ag819
ag1110
ag61
ag488
ag823
ag1015
ag927
ag212
ag1772
ag56
ag944
ag1369
ag565
ag708
ag1275
ag152
ag59
ag582
ag1593
ag851
ag266
ag1129
ag232
ag736
ag545
ag1060
ag852
ag860
ag1102
ag1685
ag659
ag491
ag968
ag410
ag748
ag838
ag1622
ag1415
ag1233
ag1821
ag379
ag707
ag1384
ag130
ag711
ag646
ag670
ag1025
ag1121
ag1454
ag1051
ag1568
ag1798
ag1414
ag1754
ag1578
ag1187
ag125
ag1046
ag166
ag37
ag144
ag672
ag1830
ag732
ag237
ag1211
ag426
ag759
ag102
ag572
ag1059
ag1664
ag864
ag1281
ag1274
ag1839
ag1235
ag1784
ag1430
ag618
ag53
ag315
ag1774
ag1518
ag1257
ag82
ag326
ag201
ag873
ag1391
ag185
ag1041
ag249
ag1111
ag263
ag1516
ag814
ag177
ag1647
ag1517
ag623
ag1043
ag134
ag108
ag1734
ag1133
ag844
ag497
ag1097
ag14
ag850
ag1457
ag500
ag792
ag1049
ag1122
ag1404
ag1870
ag116
ag127
ag1560
ag914
ag1666
ag928
ag948
ag695
ag1727
ag352
ag528
ag920
ag812
ag342
ag50
ag626
ag1312
ag925
ag97
ag246
ag1842
ag136
ag608
ag296
ag586
ag1824
ag749
ag1634
ag630
ag1730
ag1204
ag519
ag818
ag403
ag406
ag1799
ag1797
ag1409
ag1373
ag1565
ag885
ag327
ag998
ag1628
ag1620
ag1240
ag1250
ag1252
ag599
ag1452
ag536
ag1176
ag464
ag1627
ag780
ag1522
ag1219
ag1720
ag897
ag1220
ag1242
ag898
ag900
ag903
ag573
ag1618
ag1506
ag892
ag1760
ag128
ag133
ag190
ag522
ag1266
ag906
ag1222
ag1215
ag1771
ag811
ag747
ag1246
ag436
ag1346
ag242
ag311
ag182
ag1829
ag1833
ag1011
ag1420
ag866
ag739
ag486
ag1846
ag915
ag1623
ag295
ag912
ag816
ag1591
ag1375
ag306
ag281
ag1574
ag1757
ag324
ag1498
ag1816
ag1504
ag1487
ag1819
ag1072
ag581
ag1001
ag1298
ag1690
ag1559
ag1185
ag901
ag1659
ag362
ag757
ag160
ag1209
ag836
ag639
ag1667
ag398
ag1519
ag1331
ag375
ag131
ag899
ag627
ag1680
ag481
ag365
ag1130
ag1349
ag1243
ag1813
ag260
ag681
ag1856
ag567
ag1397
ag376
ag1579
ag1648
ag716
ag1238
ag1104
ag318
ag590
ag1642
ag878
ag229
ag913
ag284
ag1296
ag438
ag202
ag1095
ag783
ag1694
ag1854
ag494
ag951
ag690
ag777
ag1412
ag1212
ag1389
ag91
ag1279
ag1675
ag1672
ag153
ag907
ag863
ag1004
ag769
ag282
ag1221
ag1207
ag1199
ag525
ag524
ag1303
ag1317
ag254
ag746
ag1200
ag628
ag1370
ag304
ag1138
ag303
ag952
ag1490
ag750
ag1136
ag417
ag385
ag439
ag677
ag1520
ag821
ag452
ag1149
ag676
ag1036
ag731
ag307
ag1115
ag840
ag1837
ag566
ag1195
ag744
ag1062
ag861
ag943
ag1316
ag333
ag530
ag1340
ag1069
ag1363
ag969
ag1336
ag1345
ag989
ag883
ag1100
ag1639
ag1196
ag1455
ag424
ag1377
ag985
ag1465
ag1523
ag1359
ag1019
ag380
ag72
ag1013
ag313
ag1434
ag1688
ag345
ag1786
ag697
ag1464
ag585
ag857
ag238
ag942
ag1385
ag1638
ag110
ag1493
ag607
ag418
ag1118
ag429
ag1601
ag309
ag184
ag1662
ag1146
ag1866
ag1544
ag610
ag1744
ag196
ag346
ag1699
ag1815
ag453
ag1137
ag57
ag422
ag862
ag691
ag986
ag755
ag1231
ag472
ag1862
ag115
ag1109
ag503
ag754
ag1857
ag1106
ag1466
ag320
ag359
ag664
ag186
ag1485
ag1480
ag465
ag434
ag208
ag992
ag1446
ag1287
ag996
ag1023
ag179
ag1154
ag782
ag197
ag100
ag13
ag1525
ag817
ag187
ag1410
ag262
ag1679
ag666
ag1531
ag1540
ag1850
ag1599
ag363
ag710
ag356
ag1092
ag832
ag377
ag889
ag1684
ag595
ag1683
ag1710
ag1863
ag1767
ag808
ag257
ag138
ag518
ag231
ag1588
ag236
ag1435
ag302
ag1192
ag1818
ag1658
ag22
ag1735
ag609
ag358
ag706
ag445
ag1763
ag347
ag1168
ag638
ag880
ag1305
ag95
ag1876
ag568
ag71
ag280
ag596
ag734
ag896
ag564
ag1437
ag1724
ag1547
ag368
ag1607
ag916
ag1068
ag446
ag1778
ag529
ag504
ag230
ag1178
ag1024
ag1761
ag971
ag846
ag1665
ag1474
ag1723
ag973
ag120
ag1297
ag1310
ag1698
ag344
ag1577
ag1793
ag427
ag256
ag774
ag475
ag683
ag17
ag1472
ag1248
ag28
ag1762
ag1081
ag1592
ag727
ag405
ag1416
ag940
ag1542
ag1743
ag1728
ag658
ag932
ag278
ag1867
ag395
ag648
ag785
ag1229
ag150
ag274
ag847
ag1580
ag960
ag1843
ag66
ag654
ag972
ag1528
ag316
ag1483
ag1040
ag1756
ag614
ag1783
ag1702
ag1598
ag1325
ag1177
ag1682
ag1202
ag1329
ag350
ag1860
ag213
ag1768
ag392
ag523
ag1459
ag815
ag299
ag441
ag1277
ag721
ag1026
ag1127
ag841
ag1381
ag228
ag1423
ag1027
ag1190
ag1261
ag958
ag509
ag132
ag1284
ag1421
ag668
ag1125
ag1570
ag1009
ag191
ag1117
ag991
ag1254
ag87
ag1227
ag1656
ag1029
ag773
ag768
ag1077
ag283
ag364
ag839
ag980
ag286
ag961
ag175
ag1514
ag149
ag1113
ag1631
ag114
ag117
ag433
ag476
ag390
ag65
ag32
ag1537
ag1341
ag27
ag797
ag158
ag543
ag810
ag1595
ag1869
ag1794
ag322
ag1877
ag414
ag632
ag510
ag781
ag877
ag965
ag887
ag462
ag156
ag651
ag351
ag21
ag1249
ag513
ag1293
ag1732
ag1314
ag1422
ag995
ag1300
ag1669
ag979
ag1074
ag1718
ag1630
ag1473
ag704
ag1812
ag1615
ag411
ag1807
ag941
ag1780
ag1749
ag340
ag641
ag661
ag243
ag1535
ag1258
ag1405
ag440
ag34
ag1451
ag1700
ag265
ag1302
ag990
ag1399
ag1848
ag92
ag1614
ag1260
ag561
ag1616
ag1624
ag737
ag1785
ag1750
ag713
ag895
ag1611
ag1002
ag1769
ag93
ag52
ag1668
ag248
ag1779
ag1594
ag849
ag1006
ag547
ag357
ag140
ag321
ag1478
ag1530
ag457
ag218
ag490
ag575
ag1770
ag1494
ag341
ag329
ag709
ag1440
ag371
ag1163
ag955
ag1105
ag1555
ag1053
ag1057
ag1418
ag1808
ag1619
ag259
ag1681
ag1758
ag1356
ag245
ag1575
ag1156
ag204
ag594
ag1532
ag1534
ag1344
ag54
ag645
ag1827
ag1745
ag946
ag1597
ag662
ag1708
ag726
ag25
ag894
ag1529
ag506
ag787
ag105
ag1180
ag1713
ag443
ag633
ag642
ag1167
ag1098
ag276
ag360
ag650
ag217
ag1488
ag680
ag526
ag1083
ag20
ag701
ag1048
ag888
ag1114
ag1116
ag107
ag1263
ag1268
ag1796
ag1836
ag1328
ag1832
ag1112
ag770
ag1696
ag580
ag962
ag480
ag675
ag549
ag765
ag728
ag247
ag1417
ag38
ag1725
ag1755
ag1251
ag1632
ag1364
ag74
ag559
ag1402
ag688
ag366
ag41
ag921
ag1306
ag631
ag1224
ag35
ag800
ag325
ag867
ag147
ag788
ag1584
ag1825
ag460
ag982
ag835
ag73
ag1120
ag1805
ag397
ag1803
ag1441
ag881
ag1489
ag1608
ag1234
ag267
ag1000
ag323
ag1313
ag700
ag667
ag1874
ag1873
ag1353
ag1433
ag784
ag459
ag1709
ag1432
ag1078
ag502
ag195
ag1716
ag251
ag1223
ag382
ag1552
ag1740
ag348
ag1541
ag933
ag1323
ag423
ag882
ag577
ag1366
ag1469
ag1351
ag507
ag772
ag1022
ag917
ag1343
ag1482
ag298
ag790
ag778
ag489
ag1739
ag1872
ag1790
ag1339
ag1379
ag1378
ag415
ag1280
ag1158
ag361
ag636
ag1471
ag1273
ag693
ag499
ag1425
ag1338
ag142
ag16
ag617
ag1479
ag383
ag761
ag714
ag1820
ag1175
ag471
ag1715
ag886
ag1292
ag1868
ag189
ag1318
ag86
ag1321
ag1677
ag1852
ag919
ag1486
ag393
ag799
ag165
ag1286
ag1361
ag474
ag1704
ag1572
ag1463
ag771
ag49
ag616
ag938
ag94
ag828
ag829
ag830
ag297
ag869
ag75
ag1703
ag1208
ag1094
ag794
ag151
ag51
ag1322
ag1172
ag663
ag795
ag1801
ag1467
ag1550
ag1644
ag1649
ag1090
ag294
ag1800
ag1271
ag123
ag386
ag508
ag271
ag1241
ag934
ag1828
ag745
ag290
ag1861
ag1186
ag435
ag1613
ag387
ag1492
ag10
ag1065
ag611
ag1865
ag1017
ag974
ag1753
ag1738
ag1355
ag1461
ag148
ag1558
ag644
ag495
ag1585
ag384
ag370
ag43
ag493
ag268
ag1311
ag879
ag235
ag1741
ag571
ag698
ag305
ag1014
ag1101
ag1875
ag1765
ag1742
ag1044
ag918
ag578
ag354
ag227
ag450
ag1766
ag758
ag1711
ag692
ag999
ag1693
ag1394
ag1428
ag431
ag1507
ag428
ag1817
ag956
ag1626
ag865
ag977
ag1764
ag1073
ag226
ag194
ag192
ag155
ag937
ag751
ag546
ag1582
ag798
ag1255
ag1411
ag574
ag678
ag779
ag1424
ag1012
ag173
ag720
ag336
ag1527
ag702
ag874
ag1055
ag569
ag740
ag203
ag1502
ag1777
ag1678
ag1840
ag674
ag1056
ag1380
ag63
ag553
ag169
ag1602
ag1096
ag372
ag1205
ag1162
ag1791
ag1470
ag987
ag485
ag1513
ag1347
ag1288
ag1152
ag1139
ag448
ag902
ag1636
ag1262
ag954
ag1372
ag1439
ag143
ag1450
ag1406
ag96
ag44
ag570
ag1382
ag741
ag593
ag454
ag875
ag531
ag1018
ag1476
ag1075
ag1107
ag239
ag1151
ag293
ag374
ag619
ag703
ag1851
ag804
ag514
ag310
ag1398
ag845
ag1496
ag335
ag432
ag69
ag277
ag161
ag1214
ag1244
ag1561
ag1788
ag735
ag1691
ag1131
ag945
ag1169
ag1350
ag742
ag1093
ag843
ag399
ag36
ag629
ag279
ag154
ag1076
ag665
ag1091
ag1625
ag1822
ag813
ag884
ag250
ag1290
ag1119
ag172
ag409
ag859
ag200
ag505
ag964
ag381
ag853
ag637
ag501
ag1165
ag1358
ag1453
ag1164
ag542
ag1752
ag1553
ag45
ag1733
ag1610
ag1282
ag957
ag1673
ag1294
ag1145
ag26
ag1039
ag1484
ag1191
ag1148
ag1308
ag1089
ag1309
ag1512
ag949
ag1052
ag1079
ag373
ag85
ag314
ag1020
ag1342
ag124
ag463
ag517
ag643
ag207
ag1213
ag1653
ag1746
ag1236
ag1603
ag1226
ag924
ag1123
ag719
ag24
ag30
ag1070
ag62
ag588
ag272
ag939
ag1061
ag389
ag753
ag1499
ag552
ag649
ag234
ag470
ag1657
ag1596
ag1695
ag583
ag1386
ag1348
ag635
ag876
ag484
ag1230
ag292
ag233
ag1159
ag1562
ag111
ag598
ag947
ag334
ag1413
ag1367
ag1641
ag455
ag412
ag1333
ag1722
ag1604
ag1661
ag106
ag970
ag1143
ag1426
ag1795
ag137
ag181
ag1237
ag90
ag76
ag1037
ag349
ag891
ag1225
ag560
ag592
ag729
ag1181
ag557
ag622
ag1835
ag420
ag1549
ag1003
ag1360
ag1218
ag1586
ag1124
ag70
ag400
ag923
ag1034
ag854
ag273
ag657
ag222
ag343
ag404
ag671
ag496
ag981
ag1510
ag1189
ag209
ag458
ag1635
ag337
ag871
ag685
ag597
ag1264
ag1301
ag587
ag1533
ag103
ag101
ag1166
ag1587
ag1142
ag1407
ag1403
ag1650
ag1563
ag58
ag369
ag141
ag1217
ag807
ag492
ag1080
ag1633
ag820
ag1194
ag551
ag468
ag113
ag214
ag931
ag562
ag1706
ag328
ag1524
ag1419
ag89
ag1216
ag1304
ag487
ag1871
ag47
ag451
ag673
ag511
ag1712
ag60
ag1157
ag64
ag1299
ag1032
ag1128
ag687
ag1838
ag419
ag1086
ag261
ag1651
ag29
ag1253
ag826
ag756
ag604
ag621
ag33
ag1376
ag556
ag533
ag1556
ag1054
ag929
asS'separator'
p1882
S'='
sS'sparse'
p1883
I01
sb.