ccopy_reg
_reconstructor
p1
(csklearn.feature_extraction.dict_vectorizer
DictVectorizer
p2
c__builtin__
object
p3
NtRp4
(dp5
S'sort'
p6
I01
sS'feature_names_'
p7
(lp8
S'advcl=care'
p9
aS'advcl=get'
p10
aS'advcl=say'
p11
aS'advcl=someone'
p12
aS'advmod=about'
p13
aS'advmod=actually'
p14
aS'advmod=all'
p15
aS'advmod=also'
p16
aS'advmod=entirely'
p17
aS'advmod=here'
p18
aS'advmod=incorrectly'
p19
aS'advmod=initially'
p20
aS'advmod=instead'
p21
aS'advmod=just'
p22
aS'advmod=mainly'
p23
aS'advmod=more'
p24
aS'advmod=mostly'
p25
aS'advmod=normally'
p26
aS'advmod=now'
p27
aS'advmod=really'
p28
aS'advmod=so'
p29
aS'advmod=then'
p30
aS'advmod=where'
p31
aS'amod=lead'
p32
aS'appos=operation'
p33
aS'aux=be'
p34
aS'aux=can'
p35
aS'aux=do'
p36
aS'aux=have'
p37
aS'aux=must'
p38
aS'aux=should'
p39
aS'aux=to'
p40
aS'aux=will'
p41
aS'auxpass=be'
p42
aS'cc=and'
p43
aS'cc=but'
p44
aS'cc=or'
p45
aS'ccomp=belong'
p46
aS'ccomp=consider'
p47
aS'ccomp=need'
p48
aS'ccomp=say'
p49
aS'complm=that'
p50
aS'conj=be'
p51
aS'conj=fail'
p52
aS'conj=get'
p53
aS'conj=have'
p54
aS'conj=hit'
p55
aS'conj=look'
p56
aS'conj=make'
p57
aS'conj=restrict'
p58
aS'conj=split'
p59
aS'conj=sterilize'
p60
aS'conj=sustain'
p61
aS'conj=typical'
p62
aS'csubj=do'
p63
aS'dep=more'
p64
aS'dep=order'
p65
aS'dobj=agent'
p66
aS'dobj=attention'
p67
aS'dobj=dose'
p68
aS'dobj=effort'
p69
aS'dobj=energy'
p70
aS'dobj=heat'
p71
aS'dobj=number'
p72
aS'dobj=ownership'
p73
aS'dobj=power'
p74
aS'dobj=resource'
p75
aS'dobj=sugar'
p76
aS'dobj=that'
p77
aS'mark=because'
p78
aS'mark=if'
p79
aS'mark=in'
p80
aS'mark=while'
p81
aS'mark=with'
p82
aS'neg=not'
p83
aS'nsubj=#PRP#'
p84
aS'nsubj=Bertone'
p85
aS'nsubj=Biden'
p86
aS'nsubj=Cross'
p87
aS'nsubj=Organization'
p88
aS'nsubj=President'
p89
aS'nsubj=U.S.'
p90
aS'nsubj=city'
p91
aS'nsubj=effort'
p92
aS'nsubj=exam'
p93
aS'nsubj=governor'
p94
aS'nsubj=heat'
p95
aS'nsubj=kidnapper'
p96
aS'nsubj=majority'
p97
aS'nsubj=minister'
p98
aS'nsubj=minority'
p99
aS'nsubj=mirror'
p100
aS'nsubj=people'
p101
aS'nsubj=resistance'
p102
aS'nsubj=search'
p103
aS'nsubj=soldier'
p104
aS'nsubj=work'
p105
aS'nsubjpass=#PRP#'
p106
aS'nsubjpass=activity'
p107
aS'nsubjpass=benefit'
p108
aS'nsubjpass=case'
p109
aS'nsubjpass=generation'
p110
aS'nsubjpass=half'
p111
aS'nsubjpass=holding'
p112
aS'nsubjpass=list'
p113
aS'nsubjpass=minority'
p114
aS'nsubjpass=money'
p115
aS'nsubjpass=most'
p116
aS'nsubjpass=much'
p117
aS'nsubjpass=outbreak'
p118
aS'nsubjpass=patrol'
p119
aS'nsubjpass=population'
p120
aS'nsubjpass=power'
p121
aS'nsubjpass=problem'
p122
aS'nsubjpass=resource'
p123
aS'nsubjpass=species'
p124
aS'nsubjpass=support'
p125
aS'nsubjpass=term'
p126
aS'nsubjpass=trade'
p127
aS'nsubjpass=wealth'
p128
aS'parataxis=get'
p129
aS'partmod=heat'
p130
aS'prep=across'
p131
aS'prep=along'
p132
aS'prep=among'
p133
aS'prep=as'
p134
aS'prep=at'
p135
aS'prep=by'
p136
aS'prep=for'
p137
aS'prep=in'
p138
aS'prep=into'
p139
aS'prep=near'
p140
aS'prep=of'
p141
aS'prep=on'
p142
aS'prep=than'
p143
aS'prep=under'
p144
aS'prep=with'
p145
aS'w+1=,'
p146
aS'w+1=.'
p147
aS'w+1=?'
p148
aS'w+1=U.S.'
p149
aS'w+1=a'
p150
aS'w+1=about'
p151
aS'w+1=along'
p152
aS'w+1=among'
p153
aS'w+1=anti-terrorist'
p154
aS'w+1=at'
p155
aS'w+1=for'
p156
aS'w+1=in'
p157
aS'w+1=into'
p158
aS'w+1=it'
p159
aS'w+1=its'
p160
aS'w+1=just'
p161
aS'w+1=more'
p162
aS'w+1=on'
p163
aS'w+1=or'
p164
aS'w+1=ownership'
p165
aS'w+1=power'
p166
aS'w+1=really'
p167
aS'w+1=resource'
p168
aS'w+1=sugar'
p169
aS'w+1=that'
p170
aS'w+1=the'
p171
aS'w+1=they'
p172
aS'w+2=$'
p173
aS"w+2=''"
p174
aS'w+2=,'
p175
aS'w+2=.'
p176
aS'w+2=22'
p177
aS'w+2=Baghdad'
p178
aS'w+2=Central'
p179
aS'w+2=Hungary'
p180
aS'w+2=Mr.'
p181
aS'w+2=Naivasha'
p182
aS'w+2=Nyanza'
p183
aS'w+2=Queens'
p184
aS'w+2=Somalia'
p185
aS'w+2=Texas'
p186
aS'w+2=a'
p187
aS'w+2=and'
p188
aS'w+2=be'
p189
aS'w+2=blood'
p190
aS'w+2=build'
p191
aS'w+2=city'
p192
aS'w+2=committee'
p193
aS'w+2=defend'
p194
aS'w+2=develop'
p195
aS'w+2=dose'
p196
aS'w+2=during'
p197
aS'w+2=eastern'
p198
aS'w+2=effort'
p199
aS'w+2=energy'
p200
aS'w+2=ensure'
p201
aS'w+2=feel'
p202
aS'w+2=go'
p203
aS'w+2=halt'
p204
aS'w+2=he'
p205
aS'w+2=heat'
p206
aS'w+2=help'
p207
aS'w+2=human'
p208
aS'w+2=improve'
p209
aS'w+2=in'
p210
aS'w+2=increase'
p211
aS'w+2=international'
p212
aS'w+2=lifestyle'
p213
aS'w+2=linger'
p214
aS'w+2=make'
p215
aS'w+2=malnutrition'
p216
aS'w+2=northern'
p217
aS'w+2=of'
p218
aS'w+2=on'
p219
aS'w+2=one'
p220
aS'w+2=prevention'
p221
aS'w+2=provide'
p222
aS'w+2=rebuilding'
p223
aS'w+2=recent'
p224
aS'w+2=rich'
p225
aS'w+2=rural'
p226
aS'w+2=school'
p227
aS'w+2=sector'
p228
aS'w+2=several'
p229
aS'w+2=sub-saharan'
p230
aS'w+2=sun'
p231
aS'w+2=sustain'
p232
aS'w+2=the'
p233
aS'w+2=they'
p234
aS'w+2=this'
p235
aS'w+2=train'
p236
aS'w+2=upcome'
p237
aS'w+2=what'
p238
aS'w+2=why'
p239
aS'w-1=,'
p240
aS'w-1=Biden'
p241
aS'w-1=about'
p242
aS'w-1=actually'
p243
aS'w-1=all'
p244
aS'w-1=also'
p245
aS'w-1=and'
p246
aS'w-1=be'
p247
aS'w-1=better'
p248
aS'w-1=by'
p249
aS'w-1=can'
p250
aS'w-1=case'
p251
aS'w-1=difficulty'
p252
aS'w-1=entirely'
p253
aS'w-1=he'
p254
aS'w-1=heat'
p255
aS'w-1=immigrant'
p256
aS'w-1=incorrectly'
p257
aS'w-1=initially'
p258
aS'w-1=it'
p259
aS'w-1=just'
p260
aS'w-1=kidnapper'
p261
aS'w-1=lead'
p262
aS'w-1=mainly'
p263
aS'w-1=minority'
p264
aS'w-1=mirror'
p265
aS'w-1=mostly'
p266
aS'w-1=not'
p267
aS'w-1=now'
p268
aS'w-1=of'
p269
aS'w-1=often'
p270
aS'w-1=or'
p271
aS'w-1=really'
p272
aS'w-1=she'
p273
aS'w-1=should'
p274
aS'w-1=that'
p275
aS'w-1=then'
p276
aS'w-1=they'
p277
aS'w-1=to'
p278
aS'w-1=trouble'
p279
aS'w-1=we'
p280
aS'w-1=will'
p281
aS'w-1=work'
p282
aS"w-2=''"
p283
aS"w-2='s"
p284
aS'w-2=,'
p285
aS'w-2=Beijing'
p286
aS'w-2=I'
p287
aS'w-2=Iraq'
p288
aS'w-2=President'
p289
aS'w-2=U.S.'
p290
aS'w-2=able'
p291
aS'w-2=activity'
p292
aS'w-2=almost'
p293
aS'w-2=and'
p294
aS'w-2=animal'
p295
aS'w-2=be'
p296
aS'w-2=case'
p297
aS'w-2=community'
p298
aS'w-2=crime'
p299
aS'w-2=curved'
p300
aS'w-2=direct'
p301
aS'w-2=do'
p302
aS'w-2=exam'
p303
aS'w-2=fighting'
p304
aS'w-2=fine'
p305
aS'w-2=first'
p306
aS'w-2=force'
p307
aS'w-2=get'
p308
aS'w-2=governor'
p309
aS'w-2=have'
p310
aS'w-2=he'
p311
aS'w-2=health'
p312
aS'w-2=holding'
p313
aS'w-2=instead'
p314
aS'w-2=issue'
p315
aS'w-2=it'
p316
aS'w-2=its'
p317
aS'w-2=let'
p318
aS'w-2=mainly'
p319
aS'w-2=minister'
p320
aS'w-2=minority'
p321
aS'w-2=mirror'
p322
aS'w-2=more'
p323
aS'w-2=much'
p324
aS'w-2=must'
p325
aS'w-2=need'
p326
aS'w-2=now'
p327
aS'w-2=order'
p328
aS'w-2=people'
p329
aS'w-2=population'
p330
aS'w-2=power'
p331
aS'w-2=religious'
p332
aS'w-2=resource'
p333
aS'w-2=response'
p334
aS'w-2=search'
p335
aS'w-2=sleep'
p336
aS'w-2=state'
p337
aS'w-2=support'
p338
aS'w-2=tend'
p339
aS'w-2=they'
p340
aS'w-2=those'
p341
aS'w-2=to'
p342
aS'w-2=unable'
p343
aS'w-2=undemocratic'
p344
aS'w-2=we'
p345
aS'w-2=will'
p346
aS'w-2=wonder'
p347
aS'w-2=work'
p348
aS'xcomp=improve'
p349
asS'dtype'
p350
cnumpy
float64
p351
sS'vocabulary_'
p352
(dp353
g30
I21
sg305
I296
sg348
I339
sg77
I68
sg306
I297
sg337
I328
sg19
I10
sg330
I321
sg53
I44
sg31
I22
sg221
I212
sg265
I256
sg24
I15
sg154
I145
sg153
I144
sg273
I264
sg314
I305
sg105
I96
sg262
I253
sg345
I336
sg204
I195
sg143
I134
sg63
I54
sg46
I37
sg264
I255
sg76
I67
sg258
I249
sg256
I247
sg197
I188
sg288
I279
sg120
I111
sg71
I62
sg127
I118
sg102
I93
sg336
I327
sg91
I82
sg298
I289
sg136
I127
sg129
I120
sg231
I222
sg212
I203
sg279
I270
sg180
I171
sg271
I262
sg74
I65
sg263
I254
sg132
I123
sg293
I284
sg33
I24
sg201
I192
sg86
I77
sg62
I53
sg130
I121
sg326
I317
sg11
I2
sg269
I260
sg198
I189
sg340
I331
sg303
I294
sg278
I269
sg323
I314
sg73
I64
sg342
I333
sg188
I179
sg93
I84
sg294
I285
sg21
I12
sg94
I85
sg89
I80
sg170
I161
sg126
I117
sg131
I122
sg140
I131
sg113
I104
sg184
I175
sg299
I290
sg117
I108
sg173
I164
sg145
I136
sg81
I72
sg277
I268
sg237
I228
sg98
I89
sg36
I27
sg95
I86
sg311
I302
sg226
I217
sg85
I76
sg162
I153
sg334
I325
sg41
I32
sg208
I199
sg224
I215
sg160
I151
sg27
I18
sg29
I20
sg28
I19
sg216
I207
sg115
I106
sg179
I170
sg324
I315
sg233
I224
sg121
I112
sg90
I81
sg155
I146
sg281
I272
sg15
I6
sg285
I276
sg297
I288
sg183
I174
sg194
I185
sg236
I227
sg69
I60
sg103
I94
sg329
I320
sg167
I158
sg72
I63
sg37
I28
sg252
I243
sg249
I240
sg99
I90
sg128
I119
sg165
I156
sg247
I238
sg246
I237
sg65
I56
sg309
I300
sg133
I124
sg260
I251
sg240
I231
sg335
I326
sg327
I318
sg250
I241
sg344
I335
sg287
I278
sg52
I43
sg331
I322
sg291
I282
sg315
I306
sg186
I177
sg191
I182
sg333
I324
sg67
I58
sg114
I105
sg316
I307
sg245
I236
sg161
I152
sg220
I211
sg178
I169
sg229
I220
sg25
I16
sg78
I69
sg319
I310
sg241
I232
sg39
I30
sg60
I51
sg312
I303
sg346
I337
sg68
I59
sg276
I267
sg163
I154
sg321
I312
sg124
I115
sg108
I99
sg338
I329
sg88
I79
sg137
I128
sg243
I234
sg164
I155
sg189
I180
sg10
I1
sg217
I208
sg255
I246
sg49
I40
sg13
I4
sg26
I17
sg83
I74
sg193
I184
sg317
I308
sg174
I165
sg210
I201
sg230
I221
sg254
I245
sg239
I230
sg238
I229
sg290
I281
sg16
I7
sg196
I187
sg109
I100
sg20
I11
sg42
I33
sg339
I330
sg50
I41
sg320
I311
sg48
I39
sg272
I263
sg234
I225
sg253
I244
sg261
I252
sg213
I204
sg185
I176
sg282
I273
sg300
I291
sg64
I55
sg12
I3
sg206
I197
sg310
I301
sg308
I299
sg43
I34
sg251
I242
sg304
I295
sg144
I135
sg118
I109
sg209
I200
sg171
I162
sg347
I338
sg267
I258
sg139
I130
sg125
I116
sg195
I186
sg110
I101
sg44
I35
sg172
I163
sg169
I160
sg322
I313
sg332
I323
sg9
I0
sg225
I216
sg92
I83
sg182
I173
sg232
I223
sg134
I125
sg228
I219
sg106
I97
sg266
I257
sg141
I132
sg138
I129
sg79
I70
sg111
I102
sg318
I309
sg156
I147
sg157
I148
sg242
I233
sg87
I78
sg107
I98
sg244
I235
sg159
I150
sg100
I91
sg257
I248
sg84
I75
sg151
I142
sg313
I304
sg17
I8
sg58
I49
sg203
I194
sg341
I332
sg292
I283
sg66
I57
sg55
I46
sg202
I193
sg158
I149
sg22
I13
sg280
I271
sg286
I277
sg40
I31
sg14
I5
sg192
I183
sg61
I52
sg214
I205
sg35
I26
sg199
I190
sg96
I87
sg59
I50
sg57
I48
sg135
I126
sg349
I340
sg328
I319
sg47
I38
sg200
I191
sg181
I172
sg122
I113
sg275
I266
sg190
I181
sg211
I202
sg283
I274
sg289
I280
sg146
I137
sg112
I103
sg147
I138
sg218
I209
sg177
I168
sg301
I292
sg227
I218
sg176
I167
sg175
I166
sg270
I261
sg219
I210
sg152
I143
sg274
I265
sg148
I139
sg123
I114
sg259
I250
sg38
I29
sg75
I66
sg205
I196
sg215
I206
sg295
I286
sg18
I9
sg343
I334
sg101
I92
sg235
I226
sg54
I45
sg104
I95
sg70
I61
sg248
I239
sg119
I110
sg82
I73
sg45
I36
sg150
I141
sg268
I259
sg296
I287
sg23
I14
sg32
I23
sg51
I42
sg207
I198
sg149
I140
sg56
I47
sg142
I133
sg307
I298
sg34
I25
sg222
I213
sg168
I159
sg166
I157
sg116
I107
sg223
I214
sg325
I316
sg187
I178
sg97
I88
sg302
I293
sg80
I71
sg284
I275
ssS'separator'
p354
S'='
sS'sparse'
p355
I01
sb.