ccopy_reg
_reconstructor
p1
(csklearn.feature_extraction.dict_vectorizer
DictVectorizer
p2
c__builtin__
object
p3
NtRp4
(dp5
S'sort'
p6
I01
sS'feature_names_'
p7
(lp8
S'acomp=smart'
p9
aS'advcl=advance'
p10
aS'advcl=afraid'
p11
aS'advcl=approach'
p12
aS'advcl=be'
p13
aS'advcl=bring'
p14
aS'advcl=come'
p15
aS'advcl=decide'
p16
aS'advcl=educate'
p17
aS'advcl=end'
p18
aS'advcl=fly'
p19
aS'advcl=lift'
p20
aS'advcl=member'
p21
aS'advcl=route'
p22
aS'advcl=start'
p23
aS'advcl=stringent'
p24
aS'advcl=try'
p25
aS'advcl=win'
p26
aS'advcl=withdraw'
p27
aS'advmod=altogether'
p28
aS'advmod=certainly'
p29
aS'advmod=completely'
p30
aS'advmod=easily'
p31
aS'advmod=even'
p32
aS'advmod=eventually'
p33
aS'advmod=formally'
p34
aS'advmod=fully'
p35
aS'advmod=hastily'
p36
aS'advmod=here'
p37
aS'advmod=largely'
p38
aS'advmod=mostly'
p39
aS'advmod=now'
p40
aS'advmod=only'
p41
aS'advmod=shortly'
p42
aS'advmod=simply'
p43
aS'advmod=soon'
p44
aS'advmod=there'
p45
aS'advmod=totally'
p46
aS'advmod=when'
p47
aS'aux=be'
p48
aS'aux=can'
p49
aS'aux=could'
p50
aS'aux=do'
p51
aS'aux=have'
p52
aS'aux=may'
p53
aS'aux=should'
p54
aS'aux=to'
p55
aS'aux=will'
p56
aS'aux=would'
p57
aS'auxpass=appear'
p58
aS'auxpass=be'
p59
aS'cc=and'
p60
aS'cc=but'
p61
aS'cc=or'
p62
aS'ccomp=arrest'
p63
aS'ccomp=brave'
p64
aS'ccomp=bring'
p65
aS'ccomp=call'
p66
aS'ccomp=have'
p67
aS'ccomp=rise'
p68
aS'complm=that'
p69
aS'conj=abused'
p70
aS'conj=adopt'
p71
aS'conj=allow'
p72
aS'conj=continue'
p73
aS'conj=curtail'
p74
aS'conj=derelict'
p75
aS'conj=engage'
p76
aS'conj=focus'
p77
aS'conj=go'
p78
aS'conj=have'
p79
aS'conj=help'
p80
aS'conj=join'
p81
aS'conj=leave'
p82
aS'conj=not'
p83
aS'conj=opt'
p84
aS'conj=president'
p85
aS'conj=replace'
p86
aS'conj=restart'
p87
aS'conj=return'
p88
aS'conj=say'
p89
aS'conj=seek'
p90
aS'conj=stop'
p91
aS'conj=throw'
p92
aS'conj=use'
p93
aS'dep=although'
p94
aS'dep=choose'
p95
aS'dep=cure'
p96
aS'dep=either'
p97
aS'dep=need-to-share'
p98
aS'dep=not'
p99
aS'dep=raid'
p100
aS'dep=say'
p101
aS'dep=start'
p102
aS'dep=that'
p103
aS'dobj=#NUMBER#'
p104
aS'dobj=#PRP#'
p105
aS'dobj=Africa'
p106
aS'dobj=Iraq'
p107
aS'dobj=Kurds'
p108
aS'dobj=Mogadishu'
p109
aS'dobj=Russia'
p110
aS'dobj=Treaty'
p111
aS'dobj=activity'
p112
aS'dobj=affiliation'
p113
aS'dobj=all'
p114
aS'dobj=ambition'
p115
aS'dobj=approach'
p116
aS'dobj=area'
p117
aS'dobj=arrangement'
p118
aS'dobj=attempt'
p119
aS'dobj=baby'
p120
aS'dobj=basis'
p121
aS'dobj=belief'
p122
aS'dobj=bid'
p123
aS'dobj=campaign'
p124
aS'dobj=campaigning'
p125
aS'dobj=canoe'
p126
aS'dobj=capital'
p127
aS'dobj=case'
p128
aS'dobj=cause'
p129
aS'dobj=character'
p130
aS'dobj=child'
p131
aS'dobj=city'
p132
aS'dobj=coercion'
p133
aS'dobj=country'
p134
aS'dobj=custom'
p135
aS'dobj=debate'
p136
aS'dobj=democracy'
p137
aS'dobj=destination'
p138
aS'dobj=dialogue'
p139
aS'dobj=effort'
p140
aS'dobj=employee'
p141
aS'dobj=engagement'
p142
aS'dobj=facility'
p143
aS'dobj=fight'
p144
aS'dobj=flock'
p145
aS'dobj=goal'
p146
aS'dobj=government'
p147
aS'dobj=home'
p148
aS'dobj=hope'
p149
aS'dobj=insurgency'
p150
aS'dobj=interest'
p151
aS'dobj=intimidation'
p152
aS'dobj=judgment'
p153
aS'dobj=language'
p154
aS'dobj=lesson'
p155
aS'dobj=livelihood'
p156
aS'dobj=mission'
p157
aS'dobj=monopoly'
p158
aS'dobj=negotiation'
p159
aS'dobj=occupation'
p160
aS'dobj=offer'
p161
aS'dobj=operation'
p162
aS'dobj=plan'
p163
aS'dobj=policy'
p164
aS'dobj=post'
p165
aS'dobj=practice'
p166
aS'dobj=principle'
p167
aS'dobj=program'
p168
aS'dobj=project'
p169
aS'dobj=pursuit'
p170
aS'dobj=race'
p171
aS'dobj=rebellion'
p172
aS'dobj=relative'
p173
aS'dobj=role'
p174
aS'dobj=root'
p175
aS'dobj=sanction'
p176
aS'dobj=search'
p177
aS'dobj=seat'
p178
aS'dobj=some'
p179
aS'dobj=strike'
p180
aS'dobj=system'
p181
aS'dobj=team'
p182
aS'dobj=the'
p183
aS'dobj=treatment'
p184
aS'dobj=treaty'
p185
aS'dobj=trial'
p186
aS'dobj=truce'
p187
aS'dobj=uniform'
p188
aS'dobj=veil'
p189
aS'dobj=vessel'
p190
aS'dobj=violence'
p191
aS'dobj=weapon'
p192
aS'dobj=wife'
p193
aS'mark=after'
p194
aS'mark=as'
p195
aS'mark=if'
p196
aS'mark=like'
p197
aS'mark=since'
p198
aS'mark=while'
p199
aS'neg=never'
p200
aS'neg=not'
p201
aS'nsubj=#PRP#'
p202
aS'nsubj=Bush'
p203
aS'nsubj=Chaudhry'
p204
aS'nsubj=Clinton'
p205
aS'nsubj=Commonwealth'
p206
aS'nsubj=Democrats'
p207
aS'nsubj=Erdogan'
p208
aS'nsubj=France-KLM'
p209
aS'nsubj=Institute'
p210
aS'nsubj=Iran'
p211
aS'nsubj=Islamists'
p212
aS'nsubj=Korea'
p213
aS'nsubj=Maoists'
p214
aS'nsubj=Musharaff'
p215
aS'nsubj=Pyongyang'
p216
aS'nsubj=Senate'
p217
aS'nsubj=Tehran'
p218
aS'nsubj=Thaksin'
p219
aS'nsubj=U.S.'
p220
aS'nsubj=Union'
p221
aS'nsubj=Washington'
p222
aS'nsubj=country'
p223
aS'nsubj=court'
p224
aS'nsubj=family'
p225
aS'nsubj=figure'
p226
aS'nsubj=government'
p227
aS'nsubj=haste'
p228
aS'nsubj=leader'
p229
aS'nsubj=many'
p230
aS'nsubj=member'
p231
aS'nsubj=most'
p232
aS'nsubj=parent'
p233
aS'nsubj=party'
p234
aS'nsubj=president'
p235
aS'nsubj=protester'
p236
aS'nsubj=resident'
p237
aS'nsubj=side'
p238
aS'nsubj=some'
p239
aS'nsubj=that'
p240
aS'nsubj=troops'
p241
aS'nsubj=union'
p242
aS'nsubj=who'
p243
aS'nsubjpass=#NUMBER#'
p244
aS'nsubjpass=#PRP#'
p245
aS'nsubjpass=Mercedes'
p246
aS'nsubjpass=Tisha'
p247
aS'nsubjpass=area'
p248
aS'nsubjpass=baby'
p249
aS'nsubjpass=dollar'
p250
aS'nsubjpass=hunt'
p251
aS'nsubjpass=mansion'
p252
aS'nsubjpass=most'
p253
aS'nsubjpass=plan'
p254
aS'nsubjpass=project'
p255
aS'nsubjpass=some'
p256
aS'nsubjpass=station'
p257
aS'nsubjpass=that'
p258
aS'nsubjpass=village'
p259
aS'nsubjpass=who'
p260
aS'prep=about'
p261
aS'prep=across'
p262
aS'prep=after'
p263
aS'prep=as'
p264
aS'prep=at'
p265
aS'prep=base'
p266
aS'prep=before'
p267
aS'prep=by'
p268
aS'prep=during'
p269
aS'prep=for'
p270
aS'prep=from'
p271
aS'prep=in'
p272
aS'prep=over'
p273
aS'prep=to'
p274
aS'prep=with'
p275
aS'tmod=month'
p276
aS'tmod=night'
p277
aS'tmod=week'
p278
aS'tmod=year'
p279
aS'w+1=$'
p280
aS'w+1=,'
p281
aS'w+1=.'
p282
aS'w+1=Africa'
p283
aS'w+1=Iraq'
p284
aS'w+1=Kurds'
p285
aS'w+1=Mogadishu'
p286
aS'w+1=Russia'
p287
aS'w+1=a'
p288
aS'w+1=all'
p289
aS'w+1=altogether'
p290
aS'w+1=and'
p291
aS'w+1=any'
p292
aS'w+1=apartment'
p293
aS'w+1=area'
p294
aS'w+1=at'
p295
aS'w+1=baby'
p296
aS'w+1=before'
p297
aS'w+1=bride'
p298
aS'w+1=building'
p299
aS'w+1=by'
p300
aS'w+1=campaigning'
p301
aS'w+1=car'
p302
aS'w+1=city'
p303
aS'w+1=coercion'
p304
aS'w+1=construction'
p305
aS'w+1=desert'
p306
aS'w+1=destination'
p307
aS'w+1=effort'
p308
aS'w+1=engagement'
p309
aS'w+1=for'
p310
aS'w+1=good'
p311
aS'w+1=guard'
p312
aS'w+1=he'
p313
aS'w+1=hope'
p314
aS'w+1=hut'
p315
aS'w+1=in'
p316
aS'w+1=intimidation'
p317
aS'w+1=iraqi'
p318
aS'w+1=its'
p319
aS'w+1=key'
p320
aS'w+1=lighthouse'
p321
aS'w+1=mine'
p322
aS'w+1=nuclear'
p323
aS'w+1=paper'
p324
aS'w+1=plan'
p325
aS'w+1=pursuit'
p326
aS'w+1=sanction'
p327
aS'w+1=school'
p328
aS'w+1=she'
p329
aS'w+1=shopping'
p330
aS'w+1=shortly'
p331
aS'w+1=so-called'
p332
aS'w+1=some'
p333
aS'w+1=the'
p334
aS'w+1=there'
p335
aS'w+1=they'
p336
aS'w+1=this'
p337
aS'w+1=treatment'
p338
aS'w+1=trial'
p339
aS'w+1=uranium'
p340
aS'w+1=violence'
p341
aS'w+1=waste'
p342
aS'w+1=we'
p343
aS'w+1=what'
p344
aS'w+1=you'
p345
aS'w+2=$'
p346
aS"w+2=''"
p347
aS'w+2=,'
p348
aS'w+2=.'
p349
aS'w+2=10-year-long'
p350
aS'w+2=20'
p351
aS'w+2=ABM'
p352
aS'w+2=Albany'
p353
aS'w+2=Czech'
p354
aS'w+2=Democratic'
p355
aS'w+2=Intermediate-Range'
p356
aS'w+2=Iraqis'
p357
aS'w+2=Jesus'
p358
aS'w+2=Morocco'
p359
aS'w+2=Sunnis'
p360
aS'w+2=U.S.'
p361
aS'w+2=White'
p362
aS'w+2=after'
p363
aS'w+2=and'
p364
aS'w+2=armed'
p365
aS'w+2=as'
p366
aS'w+2=at'
p367
aS'w+2=baby'
p368
aS'w+2=basis'
p369
aS'w+2=before'
p370
aS'w+2=birth'
p371
aS'w+2=brave'
p372
aS'w+2=building'
p373
aS'w+2=bus'
p374
aS'w+2=by'
p375
aS'w+2=campaign'
p376
aS'w+2=capital'
p377
aS'w+2=case'
p378
aS'w+2=cause'
p379
aS'w+2=center'
p380
aS'w+2=child'
p381
aS'w+2=city'
p382
aS'w+2=coalition'
p383
aS'w+2=conciliatory'
p384
aS'w+2=controversial'
p385
aS'w+2=country'
p386
aS'w+2=current'
p387
aS'w+2=custom'
p388
aS'w+2=debate'
p389
aS'w+2=decade-long'
p390
aS'w+2=derelict'
p391
aS'w+2=dialogue'
p392
aS'w+2=effort'
p393
aS'w+2=employee'
p394
aS'w+2=even'
p395
aS'w+2=facility'
p396
aS'w+2=fight'
p397
aS'w+2=find'
p398
aS'w+2=flock'
p399
aS'w+2=for'
p400
aS'w+2=fundamental'
p401
aS'w+2=goal'
p402
aS'w+2=home'
p403
aS'w+2=homegrown'
p404
aS'w+2=homeslast'
p405
aS'w+2=hospital'
p406
aS'w+2=if'
p407
aS'w+2=in'
p408
aS'w+2=ingrain'
p409
aS'w+2=interest'
p410
aS'w+2=it'
p411
aS'w+2=its'
p412
aS'w+2=judgment'
p413
aS'w+2=key'
p414
aS'w+2=landing'
p415
aS'w+2=language'
p416
aS'w+2=lesson'
p417
aS'w+2=live'
p418
aS'w+2=long-held'
p419
aS'w+2=military'
p420
aS'w+2=mine'
p421
aS'w+2=mission'
p422
aS'w+2=monopoly'
p423
aS'w+2=more'
p424
aS'w+2=negotiation'
p425
aS'w+2=nuclear'
p426
aS'w+2=nuclear-weapons'
p427
aS'w+2=occupation'
p428
aS'w+2=of'
p429
aS'w+2=offer'
p430
aS'w+2=on'
p431
aS'w+2=operation'
p432
aS'w+2=or'
p433
aS'w+2=plan'
p434
aS'w+2=policy'
p435
aS'w+2=post'
p436
aS'w+2=practice'
p437
aS'w+2=principle'
p438
aS'w+2=project'
p439
aS'w+2=pursuit'
p440
aS'w+2=race'
p441
aS'w+2=replace'
p442
aS'w+2=role'
p443
aS'w+2=search'
p444
aS'w+2=seat'
p445
aS'w+2=sick'
p446
aS'w+2=sink'
p447
aS'w+2=site'
p448
aS'w+2=smart'
p449
aS'w+2=so-called'
p450
aS'w+2=strike'
p451
aS'w+2=such'
p452
aS'w+2=system'
p453
aS'w+2=tattered'
p454
aS'w+2=team'
p455
aS'w+2=tfg'
p456
aS'w+2=that'
p457
aS'w+2=the'
p458
aS'w+2=they'
p459
aS'w+2=think'
p460
aS'w+2=to'
p461
aS'w+2=tower'
p462
aS'w+2=traditional'
p463
aS'w+2=troop'
p464
aS'w+2=uniform'
p465
aS'w+2=unwed'
p466
aS'w+2=veil'
p467
aS'w+2=weapon'
p468
aS'w+2=where'
p469
aS'w+2=with'
p470
aS'w+2=wooden'
p471
aS'w+2=young'
p472
aS'w-1=,'
p473
aS'w-1=Erdogan'
p474
aS'w-1=France-KLM'
p475
aS'w-1=Islamists'
p476
aS'w-1=Korea'
p477
aS'w-1=Libya'
p478
aS'w-1=Maoists'
p479
aS'w-1=Rudd'
p480
aS'w-1=U.S.'
p481
aS'w-1=a'
p482
aS'w-1=after'
p483
aS'w-1=and'
p484
aS'w-1=appear'
p485
aS'w-1=be'
p486
aS'w-1=but'
p487
aS'w-1=by'
p488
aS'w-1=can'
p489
aS'w-1=coalition'
p490
aS'w-1=completely'
p491
aS'w-1=could'
p492
aS'w-1=courtroom'
p493
aS'w-1=disease'
p494
aS'w-1=easily'
p495
aS'w-1=either'
p496
aS'w-1=feel'
p497
aS'w-1=figure'
p498
aS'w-1=find'
p499
aS'w-1=for'
p500
aS'w-1=formally'
p501
aS'w-1=friend'
p502
aS'w-1=fully'
p503
aS'w-1=government'
p504
aS'w-1=haste'
p505
aS'w-1=hastily'
p506
aS'w-1=have'
p507
aS'w-1=in'
p508
aS'w-1=it'
p509
aS'w-1=largely'
p510
aS'w-1=leader'
p511
aS'w-1=like'
p512
aS'w-1=many'
p513
aS'w-1=may'
p514
aS'w-1=mean'
p515
aS'w-1=member'
p516
aS'w-1=mostly'
p517
aS'w-1=never'
p518
aS'w-1=not'
p519
aS'w-1=now'
p520
aS'w-1=of'
p521
aS'w-1=only'
p522
aS'w-1=or'
p523
aS'w-1=protester'
p524
aS'w-1=relative'
p525
aS'w-1=restore'
p526
aS'w-1=sell'
p527
aS'w-1=should'
p528
aS'w-1=simply'
p529
aS'w-1=soon'
p530
aS'w-1=such'
p531
aS'w-1=that'
p532
aS'w-1=the'
p533
aS'w-1=they'
p534
aS'w-1=to'
p535
aS'w-1=totally'
p536
aS'w-1=toward'
p537
aS'w-1=two'
p538
aS'w-1=up'
p539
aS'w-1=who'
p540
aS'w-1=will'
p541
aS'w-1=with'
p542
aS'w-1=without'
p543
aS'w-1=would'
p544
aS'w-2=,'
p545
aS'w-2=.'
p546
aS'w-2=Air'
p547
aS'w-2=Bush'
p548
aS'w-2=Chaudhry'
p549
aS'w-2=Clinton'
p550
aS'w-2=Democrats'
p551
aS'w-2=Iran'
p552
aS'w-2=Iranians'
p553
aS'w-2=Islamists'
p554
aS'w-2=Kevin'
p555
aS'w-2=Kingdom'
p556
aS'w-2=Korea'
p557
aS'w-2=Maoists'
p558
aS'w-2=Mercedes'
p559
aS'w-2=Minister'
p560
aS'w-2=Musharaff'
p561
aS'w-2=North'
p562
aS'w-2=Pyongyang'
p563
aS'w-2=States'
p564
aS'w-2=Tehran'
p565
aS'w-2=Thaksin'
p566
aS'w-2=Tisha'
p567
aS'w-2=Union'
p568
aS'w-2=Washington'
p569
aS'w-2=abused'
p570
aS'w-2=agree'
p571
aS'w-2=and'
p572
aS'w-2=anti-government'
p573
aS'w-2=appear'
p574
aS'w-2=artist'
p575
aS'w-2=as'
p576
aS'w-2=at'
p577
aS'w-2=baby'
p578
aS'w-2=be'
p579
aS'w-2=by'
p580
aS'w-2=can'
p581
aS'w-2=certain'
p582
aS'w-2=city'
p583
aS'w-2=commit'
p584
aS'w-2=could'
p585
aS'w-2=country'
p586
aS'w-2=courage'
p587
aS'w-2=decide'
p588
aS'w-2=decision'
p589
aS'w-2=do'
p590
aS'w-2=dollar'
p591
aS'w-2=down'
p592
aS'w-2=end'
p593
aS'w-2=exchange'
p594
aS'w-2=family'
p595
aS'w-2=find'
p596
aS'w-2=force'
p597
aS'w-2=from'
p598
aS'w-2=gain'
p599
aS'w-2=go'
p600
aS'w-2=government'
p601
aS'w-2=have'
p602
aS'w-2=he'
p603
aS'w-2=heap'
p604
aS'w-2=hit'
p605
aS'w-2=home'
p606
aS'w-2=homeless'
p607
aS'w-2=in'
p608
aS'w-2=include'
p609
aS'w-2=infectious'
p610
aS'w-2=international'
p611
aS'w-2=islamist'
p612
aS'w-2=it'
p613
aS'w-2=leader'
p614
aS'w-2=let'
p615
aS'w-2=likely'
p616
aS'w-2=look'
p617
aS'w-2=make'
p618
aS'w-2=many'
p619
aS'w-2=may'
p620
aS'w-2=month'
p621
aS'w-2=most'
p622
aS'w-2=mother'
p623
aS'w-2=need'
p624
aS'w-2=not'
p625
aS'w-2=number'
p626
aS'w-2=of'
p627
aS'w-2=old'
p628
aS'w-2=other'
p629
aS'w-2=parent'
p630
aS'w-2=party'
p631
aS'w-2=people'
p632
aS'w-2=plan'
p633
aS'w-2=pledge'
p634
aS'w-2=president'
p635
aS'w-2=pressure'
p636
aS'w-2=project'
p637
aS'w-2=promise'
p638
aS'w-2=public'
p639
aS'w-2=re-enter'
p640
aS'w-2=refuse'
p641
aS'w-2=resident'
p642
aS'w-2=sanction'
p643
aS'w-2=say'
p644
aS'w-2=should'
p645
aS'w-2=side'
p646
aS'w-2=some'
p647
aS'w-2=soon'
p648
aS'w-2=step'
p649
aS'w-2=that'
p650
aS'w-2=the'
p651
aS'w-2=there'
p652
aS'w-2=they'
p653
aS'w-2=threaten'
p654
aS'w-2=to'
p655
aS'w-2=toward'
p656
aS'w-2=troops'
p657
aS'w-2=union'
p658
aS'w-2=unlikely'
p659
aS'w-2=village'
p660
aS'w-2=want'
p661
aS'w-2=warning'
p662
aS'w-2=we'
p663
aS'w-2=when'
p664
aS'w-2=will'
p665
aS'w-2=woman'
p666
aS'w-2=world'
p667
aS'w-2=would'
p668
aS'xcomp=Independent'
p669
aS'xcomp=address'
p670
aS'xcomp=butcher'
p671
aS'xcomp=link'
p672
aS'xcomp=offload'
p673
aS'xcomp=persuade'
p674
aS'xcomp=seek'
p675
aS'xcomp=stage'
p676
asS'dtype'
p677
cnumpy
float64
p678
sS'vocabulary_'
p679
(dp680
g365
I356
sg267
I258
sg371
I362
sg432
I423
sg446
I437
sg99
I90
sg29
I20
sg663
I654
sg28
I19
sg226
I217
sg632
I623
sg399
I390
sg206
I197
sg476
I467
sg442
I433
sg374
I365
sg197
I188
sg314
I305
sg498
I489
sg352
I343
sg624
I615
sg11
I2
sg372
I363
sg653
I644
sg512
I503
sg134
I125
sg230
I221
sg586
I577
sg322
I313
sg165
I156
sg303
I294
sg641
I632
sg227
I218
sg506
I497
sg675
I666
sg417
I408
sg544
I535
sg102
I93
sg499
I490
sg381
I372
sg612
I603
sg66
I57
sg562
I553
sg170
I161
sg287
I278
sg259
I250
sg146
I137
sg299
I290
sg598
I589
sg428
I419
sg244
I235
sg279
I270
sg515
I506
sg541
I532
sg173
I164
sg251
I242
sg140
I131
sg547
I538
sg53
I44
sg610
I601
sg91
I82
sg488
I479
sg478
I469
sg486
I477
sg33
I24
sg595
I586
sg172
I163
sg651
I642
sg455
I446
sg329
I320
sg416
I407
sg229
I220
sg15
I6
sg565
I556
sg623
I614
sg177
I168
sg327
I318
sg656
I647
sg386
I377
sg426
I417
sg461
I452
sg658
I649
sg619
I610
sg379
I370
sg588
I579
sg606
I597
sg450
I441
sg559
I550
sg507
I498
sg249
I240
sg587
I578
sg155
I146
sg246
I237
sg129
I120
sg394
I385
sg408
I399
sg182
I173
sg411
I402
sg398
I389
sg333
I324
sg34
I25
sg599
I590
sg67
I58
sg492
I483
sg536
I527
sg261
I252
sg49
I40
sg69
I60
sg250
I241
sg323
I314
sg276
I267
sg117
I108
sg184
I175
sg494
I485
sg655
I646
sg504
I495
sg290
I281
sg522
I513
sg570
I561
sg375
I366
sg334
I325
sg41
I32
sg110
I101
sg467
I458
sg336
I327
sg501
I492
sg311
I302
sg245
I236
sg517
I508
sg626
I617
sg272
I263
sg57
I48
sg310
I301
sg614
I605
sg283
I274
sg650
I641
sg318
I309
sg660
I651
sg38
I29
sg274
I265
sg168
I159
sg573
I564
sg557
I548
sg357
I348
sg183
I174
sg291
I282
sg452
I443
sg163
I154
sg212
I203
sg637
I628
sg150
I141
sg9
I0
sg578
I569
sg400
I391
sg292
I283
sg430
I421
sg240
I231
sg531
I522
sg395
I386
sg601
I592
sg103
I94
sg370
I361
sg368
I359
sg526
I517
sg257
I248
sg508
I499
sg114
I105
sg419
I410
sg659
I650
sg187
I178
sg186
I177
sg192
I183
sg196
I187
sg174
I165
sg156
I147
sg571
I562
sg456
I447
sg81
I72
sg513
I504
sg132
I123
sg101
I92
sg203
I194
sg136
I127
sg241
I232
sg301
I292
sg563
I554
sg448
I439
sg268
I259
sg25
I16
sg157
I148
sg643
I634
sg243
I234
sg302
I293
sg112
I103
sg17
I8
sg627
I618
sg231
I222
sg535
I526
sg424
I415
sg538
I529
sg654
I645
sg324
I315
sg105
I96
sg605
I596
sg590
I581
sg528
I519
sg30
I21
sg345
I336
sg474
I465
sg143
I134
sg159
I150
sg495
I486
sg43
I34
sg509
I500
sg491
I482
sg273
I264
sg574
I565
sg389
I380
sg551
I542
sg90
I81
sg339
I330
sg158
I149
sg313
I304
sg321
I312
sg293
I284
sg630
I621
sg258
I249
sg175
I166
sg254
I245
sg489
I480
sg37
I28
sg378
I369
sg109
I100
sg542
I533
sg152
I143
sg444
I435
sg31
I22
sg47
I38
sg86
I77
sg388
I379
sg70
I61
sg270
I261
sg106
I97
sg628
I619
sg343
I334
sg115
I106
sg147
I138
sg367
I358
sg21
I12
sg469
I460
sg366
I357
sg126
I117
sg477
I468
sg255
I246
sg584
I575
sg138
I129
sg74
I65
sg418
I409
sg59
I50
sg413
I404
sg363
I354
sg669
I660
sg445
I436
sg451
I442
sg422
I413
sg360
I351
sg219
I210
sg235
I226
sg213
I204
sg304
I295
sg503
I494
sg335
I326
sg308
I299
sg133
I124
sg434
I425
sg285
I276
sg636
I627
sg401
I392
sg460
I451
sg319
I310
sg359
I350
sg151
I142
sg307
I298
sg470
I461
sg421
I412
sg100
I91
sg533
I524
sg252
I243
sg277
I268
sg443
I434
sg622
I613
sg369
I360
sg437
I428
sg621
I612
sg549
I540
sg331
I322
sg253
I244
sg383
I374
sg429
I420
sg431
I422
sg358
I349
sg68
I59
sg96
I87
sg484
I475
sg396
I387
sg79
I70
sg341
I332
sg237
I228
sg447
I438
sg142
I133
sg373
I364
sg652
I643
sg128
I119
sg427
I418
sg305
I296
sg404
I395
sg539
I530
sg518
I509
sg83
I74
sg208
I199
sg88
I79
sg390
I381
sg190
I181
sg642
I633
sg228
I219
sg42
I33
sg75
I66
sg672
I663
sg600
I591
sg160
I151
sg63
I54
sg676
I667
sg178
I169
sg316
I307
sg65
I56
sg668
I659
sg646
I637
sg171
I162
sg552
I543
sg84
I75
sg384
I375
sg218
I209
sg332
I323
sg248
I239
sg125
I116
sg32
I23
sg224
I215
sg45
I36
sg239
I230
sg351
I342
sg611
I602
sg556
I547
sg148
I139
sg199
I190
sg51
I42
sg414
I405
sg415
I406
sg475
I466
sg639
I630
sg23
I14
sg56
I47
sg137
I128
sg406
I397
sg64
I55
sg355
I346
sg127
I118
sg361
I352
sg575
I566
sg275
I266
sg62
I53
sg420
I411
sg309
I300
sg657
I648
sg594
I585
sg340
I331
sg412
I403
sg216
I207
sg633
I624
sg537
I528
sg294
I285
sg180
I171
sg225
I216
sg608
I599
sg121
I112
sg635
I626
sg554
I545
sg613
I604
sg39
I30
sg214
I205
sg409
I400
sg46
I37
sg93
I84
sg188
I179
sg640
I631
sg485
I476
sg76
I67
sg166
I157
sg347
I338
sg223
I214
sg479
I470
sg95
I86
sg73
I64
sg10
I1
sg130
I121
sg593
I584
sg118
I109
sg666
I657
sg490
I481
sg58
I49
sg312
I303
sg502
I493
sg141
I132
sg107
I98
sg564
I555
sg525
I516
sg260
I251
sg377
I368
sg602
I593
sg153
I144
sg60
I51
sg205
I196
sg582
I573
sg338
I329
sg530
I521
sg207
I198
sg387
I378
sg36
I27
sg648
I639
sg454
I445
sg356
I347
sg113
I104
sg664
I655
sg662
I653
sg284
I275
sg317
I308
sg505
I496
sg647
I638
sg89
I80
sg85
I76
sg615
I606
sg468
I459
sg440
I431
sg674
I665
sg529
I520
sg202
I193
sg342
I333
sg167
I158
sg638
I629
sg82
I73
sg463
I454
sg61
I52
sg12
I3
sg436
I427
sg233
I224
sg104
I95
sg631
I622
sg328
I319
sg185
I176
sg50
I41
sg596
I587
sg607
I598
sg425
I416
sg330
I321
sg139
I130
sg543
I534
sg353
I344
sg472
I463
sg26
I17
sg592
I583
sg215
I206
sg403
I394
sg433
I424
sg94
I85
sg280
I271
sg579
I570
sg560
I551
sg18
I9
sg439
I430
sg194
I185
sg510
I501
sg256
I247
sg325
I316
sg402
I393
sg550
I541
sg555
I546
sg161
I152
sg466
I457
sg580
I571
sg453
I444
sg483
I474
sg278
I269
sg585
I576
sg72
I63
sg407
I398
sg326
I317
sg391
I382
sg673
I664
sg464
I455
sg315
I306
sg289
I280
sg567
I558
sg181
I172
sg471
I462
sg457
I448
sg78
I69
sg232
I223
sg581
I572
sg561
I552
sg266
I257
sg540
I531
sg14
I5
sg661
I652
sg523
I514
sg111
I102
sg511
I502
sg149
I140
sg124
I115
sg521
I512
sg397
I388
sg97
I88
sg634
I625
sg364
I355
sg572
I563
sg262
I253
sg306
I297
sg119
I110
sg405
I396
sg337
I328
sg210
I201
sg234
I225
sg603
I594
sg189
I180
sg354
I345
sg449
I440
sg667
I658
sg222
I213
sg27
I18
sg40
I31
sg204
I195
sg35
I26
sg644
I635
sg382
I373
sg458
I449
sg265
I256
sg220
I211
sg264
I255
sg545
I536
sg385
I376
sg546
I537
sg493
I484
sg558
I549
sg116
I107
sg176
I167
sg344
I335
sg52
I43
sg362
I353
sg465
I456
sg473
I464
sg625
I616
sg193
I184
sg296
I287
sg438
I429
sg154
I145
sg577
I568
sg576
I567
sg497
I488
sg44
I35
sg589
I580
sg191
I182
sg16
I7
sg238
I229
sg80
I71
sg620
I611
sg629
I620
sg92
I83
sg54
I45
sg435
I426
sg122
I113
sg410
I401
sg617
I608
sg534
I525
sg482
I473
sg496
I487
sg295
I286
sg616
I607
sg618
I609
sg195
I186
sg548
I539
sg135
I126
sg609
I600
sg221
I212
sg200
I191
sg583
I574
sg217
I208
sg380
I371
sg459
I450
sg71
I62
sg263
I254
sg671
I662
sg670
I661
sg19
I10
sg164
I155
sg87
I78
sg462
I453
sg524
I515
sg604
I595
sg242
I233
sg198
I189
sg144
I135
sg22
I13
sg350
I341
sg271
I262
sg516
I507
sg55
I46
sg297
I288
sg645
I636
sg120
I111
sg393
I384
sg13
I4
sg286
I277
sg480
I471
sg527
I518
sg145
I136
sg665
I656
sg179
I170
sg532
I523
sg211
I202
sg500
I491
sg281
I272
sg282
I273
sg553
I544
sg298
I289
sg236
I227
sg209
I200
sg349
I340
sg348
I339
sg108
I99
sg487
I478
sg649
I640
sg20
I11
sg201
I192
sg346
I337
sg481
I472
sg162
I153
sg269
I260
sg320
I311
sg376
I367
sg568
I559
sg591
I582
sg300
I291
sg24
I15
sg131
I122
sg441
I432
sg288
I279
sg520
I511
sg519
I510
sg569
I560
sg423
I414
sg98
I89
sg514
I505
sg566
I557
sg123
I114
sg247
I238
sg597
I588
sg48
I39
sg392
I383
sg77
I68
sg169
I160
ssS'separator'
p681
S'='
sS'sparse'
p682
I01
sb.