ccopy_reg
_reconstructor
p1
(csklearn.feature_extraction.dict_vectorizer
DictVectorizer
p2
c__builtin__
object
p3
NtRp4
(dp5
S'sort'
p6
I01
sS'feature_names_'
p7
(lp8
S'acomp=that'
p9
aS'advcl=age'
p10
aS'advcl=come'
p11
aS'advcl=have'
p12
aS'advcl=ignore'
p13
aS'advcl=know'
p14
aS'advcl=win'
p15
aS'advmod=directly'
p16
aS'advmod=favorably'
p17
aS'advmod=little'
p18
aS'advmod=of'
p19
aS'advmod=often'
p20
aS'advmod=only'
p21
aS'advmod=so'
p22
aS'advmod=that'
p23
aS'advmod=then'
p24
aS'advmod=when'
p25
aS'aux=be'
p26
aS'aux=can'
p27
aS'aux=have'
p28
aS'aux=to'
p29
aS'aux=would'
p30
aS'auxpass=be'
p31
aS'cc=and'
p32
aS'cc=but'
p33
aS'ccomp=do'
p34
aS'ccomp=get'
p35
aS'ccomp=incarcerate'
p36
aS'ccomp=let'
p37
aS'ccomp=see'
p38
aS'ccomp=take'
p39
aS'complm=that'
p40
aS'conj=actually'
p41
aS'conj=compete'
p42
aS'conj=find'
p43
aS'conj=focus'
p44
aS'conj=highlight'
p45
aS'conj=plan'
p46
aS'conj=shore'
p47
aS'conj=stand'
p48
aS'dep=#PRP#'
p49
aS'dep=Iraq'
p50
aS'dep=Obama'
p51
aS'dep=compromise'
p52
aS'dep=that'
p53
aS'dep=those'
p54
aS'dep=variation'
p55
aS'dobj=#PRP#'
p56
aS'dobj=Cervarix'
p57
aS'dobj=Fitri'
p58
aS'dobj=India'
p59
aS'dobj=Iraq'
p60
aS'dobj=Makoni'
p61
aS'dobj=Obama'
p62
aS'dobj=amount'
p63
aS'dobj=assault'
p64
aS'dobj=attempt'
p65
aS'dobj=boom'
p66
aS'dobj=campaign'
p67
aS'dobj=child'
p68
aS'dobj=colleague'
p69
aS'dobj=crisis'
p70
aS'dobj=death'
p71
aS'dobj=diet'
p72
aS'dobj=effectiveness'
p73
aS'dobj=entry'
p74
aS'dobj=fight'
p75
aS'dobj=funeral'
p76
aS'dobj=genome'
p77
aS'dobj=group'
p78
aS'dobj=horror'
p79
aS'dobj=human'
p80
aS'dobj=hysteria'
p81
aS'dobj=level'
p82
aS'dobj=life'
p83
aS'dobj=need'
p84
aS'dobj=photograph'
p85
aS'dobj=plan'
p86
aS'dobj=pole'
p87
aS'dobj=policy'
p88
aS'dobj=power'
p89
aS'dobj=price'
p90
aS'dobj=progress'
p91
aS'dobj=protein'
p92
aS'dobj=quest'
p93
aS'dobj=ring'
p94
aS'dobj=salary'
p95
aS'dobj=sequence'
p96
aS'dobj=situation'
p97
aS'dobj=this'
p98
aS'dobj=those'
p99
aS'dobj=toll'
p100
aS'dobj=trade'
p101
aS'dobj=trip'
p102
aS'dobj=upheaval'
p103
aS'dobj=war'
p104
aS'dobj=which'
p105
aS'mark=as'
p106
aS'mark=if'
p107
aS'mark=while'
p108
aS'neg=not'
p109
aS'nsubj=#NUMBER#'
p110
aS'nsubj=#PRP#'
p111
aS"nsubj='s"
p112
aS'nsubj=Andrews'
p113
aS'nsubj=Aweis'
p114
aS'nsubj=Braun'
p115
aS'nsubj=Bush'
p116
aS'nsubj=Chris'
p117
aS'nsubj=Clinton'
p118
aS'nsubj=Goethe'
p119
aS'nsubj=Hoyer'
p120
aS'nsubj=Khaindrava'
p121
aS'nsubj=Rally'
p122
aS'nsubj=Researchers'
p123
aS'nsubj=Schultz'
p124
aS'nsubj=Sembene'
p125
aS'nsubj=Wolfowitz'
p126
aS'nsubj=advocate'
p127
aS'nsubj=analyst'
p128
aS'nsubj=basket'
p129
aS'nsubj=commentator'
p130
aS'nsubj=critic'
p131
aS'nsubj=examiner'
p132
aS'nsubj=executive'
p133
aS'nsubj=expert'
p134
aS'nsubj=leader'
p135
aS'nsubj=man'
p136
aS'nsubj=nothing'
p137
aS'nsubj=observer'
p138
aS'nsubj=official'
p139
aS'nsubj=ofrespondent'
p140
aS'nsubj=people'
p141
aS'nsubj=president'
p142
aS'nsubj=question'
p143
aS'nsubj=researcher'
p144
aS'nsubj=scientist'
p145
aS'nsubj=slovenian'
p146
aS'nsubj=study'
p147
aS'nsubj=that'
p148
aS'nsubj=this'
p149
aS'nsubj=who'
p150
aS'nsubjpass=#PRP#'
p151
aS'nsubjpass=drug'
p152
aS'nsubjpass=issue'
p153
aS'pcomp=to'
p154
aS'pcomp=with'
p155
aS'prep=after'
p156
aS'prep=at'
p157
aS'prep=by'
p158
aS'prep=for'
p159
aS'prep=from'
p160
aS'prep=in'
p161
aS'prep=to'
p162
aS'prep=with'
p163
aS'prep=without'
p164
aS'rel=in'
p165
aS'tmod=week'
p166
aS'w+1=,'
p167
aS'w+1=.'
p168
aS'w+1=Cervarix'
p169
aS'w+1=Idul'
p170
aS'w+1=India'
p171
aS'w+1=Iraq'
p172
aS'w+1=Meles'
p173
aS'w+1=Mr.'
p174
aS'w+1=Romney'
p175
aS'w+1=Senator'
p176
aS'w+1=Slobodan'
p177
aS'w+1=UN'
p178
aS'w+1=a'
p179
aS'w+1=and'
p180
aS'w+1=directly'
p181
aS'w+1=favorably'
p182
aS'w+1=he'
p183
aS'w+1=health'
p184
aS'w+1=herself'
p185
aS'w+1=himself'
p186
aS'w+1=in'
p187
aS'w+1=israeli'
p188
aS'w+1=it'
p189
aS'w+1=my'
p190
aS'w+1=pilot'
p191
aS'w+1=poverty'
p192
aS'w+1=progress'
p193
aS'w+1=purchase'
p194
aS'w+1=ring'
p195
aS'w+1=rival'
p196
aS'w+1=salary'
p197
aS'w+1=she'
p198
aS'w+1=that'
p199
aS'w+1=the'
p200
aS'w+1=these'
p201
aS'w+1=they'
p202
aS'w+1=this'
p203
aS'w+1=those'
p204
aS'w+1=to'
p205
aS'w+1=trade'
p206
aS'w+1=traditional'
p207
aS'w+1=troponin'
p208
aS'w+1=variation'
p209
aS'w+1=various'
p210
aS'w+1=what'
p211
aS'w+1=with'
p212
aS'w+1=work'
p213
aS'w+2=$'
p214
aS"w+2=''"
p215
aS"w+2='s"
p216
aS'w+2=,'
p217
aS'w+2=1.4'
p218
aS'w+2=13'
p219
aS'w+2=15,000'
p220
aS'w+2=1990'
p221
aS'w+2=2000'
p222
aS'w+2=2005'
p223
aS'w+2=2006'
p224
aS'w+2=21'
p225
aS'w+2=25'
p226
aS'w+2=26'
p227
aS'w+2=27'
p228
aS'w+2=28'
p229
aS'w+2=30'
p230
aS'w+2=36'
p231
aS'w+2=37'
p232
aS'w+2=40'
p233
aS'w+2=400'
p234
aS'w+2=44'
p235
aS'w+2=47.5'
p236
aS'w+2=56'
p237
aS'w+2=60,000'
p238
aS'w+2=67'
p239
aS'w+2=75'
p240
aS'w+2=9.6'
p241
aS'w+2=Afghan'
p242
aS'w+2=Angela'
p243
aS'w+2=Barack'
p244
aS'w+2=Clinton'
p245
aS'w+2=Fitri'
p246
aS'w+2=Fleetwood'
p247
aS'w+2=Hillary'
p248
aS'w+2=Makoni'
p249
aS'w+2=Milosevic'
p250
aS'w+2=Obama'
p251
aS'w+2=RFK'
p252
aS'w+2=Republican'
p253
aS'w+2=Uncle'
p254
aS'w+2=a'
p255
aS'w+2=about'
p256
aS'w+2=alternative'
p257
aS'w+2=amount'
p258
aS'w+2=and'
p259
aS'w+2=anything'
p260
aS'w+2=around'
p261
aS'w+2=arrive'
p262
aS'w+2=asian'
p263
aS'w+2=assault'
p264
aS'w+2=be'
p265
aS'w+2=before'
p266
aS'w+2=boom'
p267
aS'w+2=bovine'
p268
aS'w+2=care'
p269
aS'w+2=chicken'
p270
aS'w+2=child'
p271
aS'w+2=civilian'
p272
aS'w+2=colleague'
p273
aS'w+2=compete'
p274
aS'w+2=compromise'
p275
aS'w+2=country'
p276
aS'w+2=cow'
p277
aS'w+2=current'
p278
aS'w+2=daily'
p279
aS'w+2=develop'
p280
aS'w+2=developed'
p281
aS'w+2=diet'
p282
aS'w+2=effectiveness'
p283
aS'w+2=entry'
p284
aS'w+2=excitement'
p285
aS'w+2=favorably'
p286
aS'w+2=fewer'
p287
aS'w+2=fight'
p288
aS'w+2=from'
p289
aS'w+2=funeral'
p290
aS'w+2=game'
p291
aS'w+2=half'
p292
aS'w+2=here'
p293
aS'w+2=hiv\\/aids'
p294
aS'w+2=human'
p295
aS'w+2=in'
p296
aS'w+2=its'
p297
aS'w+2=just'
p298
aS'w+2=last'
p299
aS'w+2=less'
p300
aS'w+2=level'
p301
aS'w+2=life'
p302
aS'w+2=many'
p303
aS'w+2=mass'
p304
aS'w+2=maybe'
p305
aS'w+2=money'
p306
aS'w+2=moon'
p307
aS'w+2=more'
p308
aS'w+2=most'
p309
aS'w+2=mouse'
p310
aS'w+2=muslim'
p311
aS'w+2=nearly'
p312
aS'w+2=need'
p313
aS'w+2=negative'
p314
aS'w+2=neighbor'
p315
aS'w+2=nine-point-six'
p316
aS'w+2=none'
p317
aS'w+2=number'
p318
aS'w+2=only'
p319
aS'w+2=other'
p320
aS'w+2=people'
p321
aS'w+2=photograph'
p322
aS'w+2=play'
p323
aS'w+2=policy'
p324
aS'w+2=power'
p325
aS'w+2=pre-industrial'
p326
aS'w+2=previous'
p327
aS'w+2=price'
p328
aS'w+2=progress'
p329
aS'w+2=protein'
p330
aS'w+2=quest'
p331
aS'w+2=recent'
p332
aS'w+2=roughly'
p333
aS'w+2=she'
p334
aS'w+2=similar'
p335
aS'w+2=situation'
p336
aS'w+2=sixteen'
p337
aS'w+2=small'
p338
aS'w+2=social'
p339
aS'w+2=solution'
p340
aS'w+2=some'
p341
aS'w+2=standard'
p342
aS'w+2=testing'
p343
aS'w+2=that'
p344
aS'w+2=the'
p345
aS'w+2=they'
p346
aS'w+2=this'
p347
aS'w+2=those'
p348
aS'w+2=three'
p349
aS'w+2=to'
p350
aS'w+2=tobacco'
p351
aS'w+2=trip'
p352
aS'w+2=two'
p353
aS'w+2=under'
p354
aS'w+2=verifiably'
p355
aS'w+2=war'
p356
aS'w+2=well'
p357
aS'w+2=western'
p358
aS'w+2=what'
p359
aS'w+2=who'
p360
aS'w+2=with'
p361
aS'w+2=woman'
p362
aS'w+2=you'
p363
aS"w-1='"
p364
aS"w-1=''"
p365
aS"w-1='s"
p366
aS'w-1=,'
p367
aS'w-1=-'
p368
aS'w-1=.'
p369
aS'w-1=2012'
p370
aS'w-1=2015'
p371
aS'w-1=Aweis'
p372
aS'w-1=Braun'
p373
aS'w-1=Bush'
p374
aS'w-1=Canada'
p375
aS'w-1=Clinton'
p376
aS'w-1=Europe'
p377
aS'w-1=February'
p378
aS'w-1=Goethe'
p379
aS'w-1=Hoyer'
p380
aS'w-1=Indians'
p381
aS'w-1=Khaindrava'
p382
aS'w-1=Law'
p383
aS'w-1=Obama'
p384
aS'w-1=Researchers'
p385
aS'w-1=Schultz'
p386
aS'w-1=Today'
p387
aS'w-1=advocate'
p388
aS'w-1=amount'
p389
aS'w-1=and'
p390
aS'w-1=another'
p391
aS'w-1=as'
p392
aS'w-1=attractive'
p393
aS'w-1=ballot'
p394
aS'w-1=bargain'
p395
aS'w-1=be'
p396
aS'w-1=boy'
p397
aS'w-1=by'
p398
aS'w-1=can'
p399
aS'w-1=cent'
p400
aS'w-1=comfortable'
p401
aS'w-1=compare'
p402
aS'w-1=day'
p403
aS'w-1=degree'
p404
aS'w-1=disadvantage'
p405
aS'w-1=disease'
p406
aS'w-1=dollar'
p407
aS'w-1=drop'
p408
aS'w-1=early'
p409
aS'w-1=enough'
p410
aS'w-1=especially'
p411
aS'w-1=farm'
p412
aS'w-1=for'
p413
aS'w-1=growth'
p414
aS'w-1=have'
p415
aS'w-1=he'
p416
aS'w-1=help'
p417
aS'w-1=hit'
p418
aS'w-1=improvement'
p419
aS'w-1=in'
p420
aS'w-1=increase'
p421
aS'w-1=insignificant'
p422
aS'w-1=it'
p423
aS'w-1=leader'
p424
aS'w-1=least'
p425
aS'w-1=less'
p426
aS'w-1=life'
p427
aS'w-1=lifetime'
p428
aS'w-1=like'
p429
aS'w-1=limit'
p430
aS'w-1=low'
p431
aS'w-1=meager'
p432
aS'w-1=minimal'
p433
aS'w-1=minor'
p434
aS'w-1=month'
p435
aS'w-1=not'
p436
aS'w-1=nothing'
p437
aS'w-1=of'
p438
aS'w-1=often'
p439
aS'w-1=one'
p440
aS'w-1=only'
p441
aS'w-1=pace'
p442
aS'w-1=paltry'
p443
aS'w-1=people'
p444
aS'w-1=percent'
p445
aS'w-1=polio'
p446
aS'w-1=poverty'
p447
aS'w-1=power'
p448
aS'w-1=president'
p449
aS'w-1=productive'
p450
aS'w-1=protocol'
p451
aS'w-1=publisher'
p452
aS'w-1=rate'
p453
aS'w-1=researcher'
p454
aS'w-1=say'
p455
aS'w-1=scientist'
p456
aS'w-1=she'
p457
aS'w-1=shortchange'
p458
aS'w-1=small'
p459
aS'w-1=smaller'
p460
aS'w-1=so'
p461
aS'w-1=stand'
p462
aS'w-1=study'
p463
aS'w-1=team'
p464
aS'w-1=terrible'
p465
aS'w-1=that'
p466
aS'w-1=they'
p467
aS'w-1=this'
p468
aS'w-1=three'
p469
aS'w-1=time'
p470
aS'w-1=tiny'
p471
aS'w-1=to'
p472
aS'w-1=up'
p473
aS'w-1=vote'
p474
aS'w-1=we'
p475
aS'w-1=weak'
p476
aS'w-1=when'
p477
aS'w-1=who'
p478
aS'w-1=woman'
p479
aS'w-1=write'
p480
aS'w-1=year'
p481
aS'w-1=you'
p482
aS"w-2=''"
p483
aS'w-2=,'
p484
aS'w-2=-rrb-'
p485
aS'w-2=.'
p486
aS'w-2=10'
p487
aS'w-2=1000'
p488
aS'w-2=2005'
p489
aS'w-2=2006'
p490
aS'w-2=2007'
p491
aS'w-2=2009'
p492
aS'w-2=25,000'
p493
aS'w-2=28'
p494
aS'w-2=40'
p495
aS'w-2=60'
p496
aS'w-2=70'
p497
aS'w-2=80'
p498
aS'w-2=Asia'
p499
aS'w-2=Cambodia'
p500
aS'w-2=Clinton'
p501
aS'w-2=Europe'
p502
aS'w-2=Garner'
p503
aS'w-2=Hispanics'
p504
aS'w-2=Iraq'
p505
aS'w-2=Ivlian'
p506
aS'w-2=June'
p507
aS'w-2=Louisiana'
p508
aS'w-2=Mr.'
p509
aS'w-2=October'
p510
aS'w-2=President'
p511
aS'w-2=Rally'
p512
aS'w-2=Raps'
p513
aS'w-2=Sembene'
p514
aS'w-2=States'
p515
aS'w-2=Steny'
p516
aS'w-2=Tuesday'
p517
aS'w-2=USA'
p518
aS'w-2=Wolfson'
p519
aS'w-2=a'
p520
aS'w-2=able'
p521
aS'w-2=almost'
p522
aS'w-2=american'
p523
aS'w-2=analyst'
p524
aS'w-2=and'
p525
aS'w-2=as'
p526
aS'w-2=at'
p527
aS'w-2=attack'
p528
aS'w-2=ballot'
p529
aS'w-2=balloting'
p530
aS'w-2=basis'
p531
aS'w-2=be'
p532
aS'w-2=bean'
p533
aS'w-2=book'
p534
aS'w-2=but'
p535
aS'w-2=by'
p536
aS'w-2=can'
p537
aS'w-2=car'
p538
aS'w-2=care'
p539
aS'w-2=careful'
p540
aS'w-2=case'
p541
aS'w-2=cheaper'
p542
aS'w-2=clear'
p543
aS'w-2=colonoscopy'
p544
aS'w-2=commentator'
p545
aS'w-2=compare'
p546
aS'w-2=country'
p547
aS'w-2=crime'
p548
aS'w-2=critic'
p549
aS'w-2=daudus'
p550
aS'w-2=day'
p551
aS'w-2=difficult'
p552
aS'w-2=dollar'
p553
aS'w-2=economy'
p554
aS'w-2=election'
p555
aS'w-2=enhance'
p556
aS'w-2=especially'
p557
aS'w-2=ethiopian'
p558
aS'w-2=examiner'
p559
aS'w-2=expert'
p560
aS'w-2=fairly'
p561
aS'w-2=feel'
p562
aS'w-2=for'
p563
aS'w-2=force'
p564
aS'w-2=forgive'
p565
aS'w-2=former'
p566
aS'w-2=foundation'
p567
aS'w-2=golfer'
p568
aS'w-2=goods'
p569
aS'w-2=grow'
p570
aS'w-2=growth'
p571
aS'w-2=hard'
p572
aS'w-2=hardest'
p573
aS'w-2=have'
p574
aS'w-2=he'
p575
aS'w-2=heart'
p576
aS'w-2=here'
p577
aS'w-2=high'
p578
aS'w-2=hour'
p579
aS'w-2=if'
p580
aS'w-2=in'
p581
aS'w-2=indonesian'
p582
aS'w-2=institute'
p583
aS'w-2=investment'
p584
aS'w-2=just'
p585
aS'w-2=kilogram'
p586
aS'w-2=kind'
p587
aS'w-2=language'
p588
aS'w-2=last'
p589
aS'w-2=leader'
p590
aS'w-2=let'
p591
aS'w-2=likable'
p592
aS'w-2=literate'
p593
aS'w-2=low'
p594
aS'w-2=measure'
p595
aS'w-2=mild'
p596
aS'w-2=monumental'
p597
aS'w-2=much'
p598
aS'w-2=need'
p599
aS'w-2=nevertheless'
p600
aS'w-2=no'
p601
aS'w-2=not'
p602
aS'w-2=nothing'
p603
aS'w-2=now'
p604
aS'w-2=observer'
p605
aS'w-2=of'
p606
aS'w-2=official'
p607
aS'w-2=on'
p608
aS'w-2=one'
p609
aS'w-2=other'
p610
aS'w-2=pale'
p611
aS'w-2=parent'
p612
aS'w-2=per'
p613
aS'w-2=percent'
p614
aS'w-2=phone'
p615
aS'w-2=poll'
p616
aS'w-2=poor'
p617
aS'w-2=president'
p618
aS'w-2=prospects'
p619
aS'w-2=province'
p620
aS'w-2=reality'
p621
aS'w-2=really'
p622
aS'w-2=reasonable'
p623
aS'w-2=report'
p624
aS'w-2=researcher'
p625
aS'w-2=restitution'
p626
aS'w-2=say'
p627
aS'w-2=seem'
p628
aS'w-2=skull'
p629
aS'w-2=small'
p630
aS'w-2=smaller'
p631
aS'w-2=smoke'
p632
aS'w-2=solution'
p633
aS'w-2=step'
p634
aS'w-2=still'
p635
aS'w-2=study'
p636
aS'w-2=supply'
p637
aS'w-2=tb'
p638
aS'w-2=that'
p639
aS'w-2=the'
p640
aS'w-2=they'
p641
aS'w-2=this'
p642
aS'w-2=three'
p643
aS'w-2=three-drug'
p644
aS'w-2=to'
p645
aS'w-2=too'
p646
aS'w-2=treatment'
p647
aS'w-2=tree'
p648
aS'w-2=two'
p649
aS'w-2=very'
p650
aS'w-2=vote'
p651
aS'w-2=voter'
p652
aS'w-2=want'
p653
aS'w-2=we'
p654
aS'w-2=when'
p655
aS'w-2=which'
p656
aS'w-2=while'
p657
aS'w-2=wide'
p658
aS'w-2=win'
p659
aS'w-2=with'
p660
aS'w-2=world'
p661
aS'w-2=worse'
p662
aS'w-2=would'
p663
aS'w-2=write'
p664
aS'w-2=writer'
p665
aS'w-2=wrong'
p666
aS'w-2=year'
p667
aS'xcomp=$'
p668
aS'xcomp=before'
p669
aS'xcomp=cover'
p670
aS'xcomp=engineer'
p671
aS'xcomp=pilot'
p672
aS'xcomp=rocker'
p673
aS'xcomp=see'
p674
aS'xcomp=to'
p675
aS'xcomp=work'
p676
asS'dtype'
p677
cnumpy
float64
p678
sS'vocabulary_'
p679
(dp680
g24
I15
sg473
I464
sg654
I645
sg49
I40
sg340
I331
sg432
I423
sg318
I309
sg555
I546
sg370
I361
sg566
I557
sg371
I362
sg646
I637
sg585
I576
sg599
I590
sg306
I297
sg641
I632
sg272
I263
sg158
I149
sg191
I182
sg122
I113
sg547
I538
sg587
I578
sg199
I190
sg570
I561
sg463
I454
sg264
I255
sg583
I574
sg209
I200
sg455
I446
sg284
I275
sg219
I210
sg271
I262
sg326
I317
sg62
I53
sg464
I455
sg471
I462
sg332
I323
sg201
I192
sg22
I13
sg357
I348
sg567
I558
sg71
I62
sg146
I137
sg197
I188
sg317
I308
sg408
I399
sg428
I419
sg17
I8
sg384
I375
sg252
I243
sg396
I387
sg403
I394
sg112
I103
sg380
I371
sg584
I575
sg640
I631
sg102
I93
sg198
I189
sg240
I231
sg524
I515
sg11
I2
sg494
I485
sg617
I608
sg374
I365
sg644
I635
sg276
I267
sg277
I268
sg87
I78
sg489
I480
sg491
I482
sg632
I623
sg350
I341
sg299
I290
sg281
I272
sg260
I251
sg43
I34
sg415
I406
sg81
I72
sg573
I564
sg51
I42
sg296
I287
sg359
I350
sg132
I123
sg674
I665
sg171
I162
sg401
I392
sg360
I351
sg664
I655
sg27
I18
sg40
I31
sg145
I136
sg90
I81
sg556
I547
sg482
I473
sg421
I412
sg441
I432
sg80
I71
sg624
I615
sg639
I630
sg200
I191
sg563
I554
sg265
I256
sg202
I193
sg558
I549
sg510
I501
sg636
I627
sg582
I573
sg204
I195
sg140
I131
sg437
I428
sg151
I142
sg592
I583
sg161
I152
sg637
I628
sg30
I21
sg590
I581
sg658
I649
sg206
I197
sg616
I607
sg59
I50
sg9
I0
sg162
I153
sg138
I129
sg450
I441
sg652
I643
sg338
I329
sg571
I562
sg294
I285
sg57
I48
sg180
I171
sg467
I458
sg86
I77
sg159
I150
sg379
I370
sg512
I503
sg417
I408
sg501
I492
sg443
I434
sg84
I75
sg148
I139
sg423
I414
sg496
I487
sg19
I10
sg266
I257
sg258
I249
sg577
I568
sg648
I639
sg105
I96
sg420
I411
sg137
I128
sg647
I638
sg628
I619
sg485
I476
sg395
I386
sg352
I343
sg409
I400
sg254
I245
sg107
I98
sg614
I605
sg593
I584
sg274
I265
sg155
I146
sg16
I7
sg331
I322
sg126
I117
sg21
I12
sg327
I318
sg52
I43
sg487
I478
sg429
I420
sg342
I333
sg230
I221
sg231
I222
sg232
I223
sg335
I326
sg329
I320
sg568
I559
sg224
I215
sg223
I214
sg165
I156
sg222
I213
sg91
I82
sg606
I597
sg213
I204
sg10
I1
sg470
I461
sg608
I599
sg472
I463
sg671
I662
sg275
I266
sg498
I489
sg308
I299
sg373
I364
sg268
I259
sg78
I69
sg56
I47
sg114
I105
sg433
I424
sg376
I367
sg129
I120
sg293
I284
sg446
I437
sg98
I89
sg430
I421
sg517
I508
sg659
I650
sg528
I519
sg41
I32
sg113
I104
sg410
I401
sg546
I537
sg183
I174
sg649
I640
sg48
I39
sg354
I345
sg426
I417
sg50
I41
sg542
I533
sg613
I604
sg399
I390
sg607
I598
sg250
I241
sg579
I570
sg521
I512
sg64
I55
sg666
I657
sg153
I144
sg349
I340
sg229
I220
sg385
I376
sg630
I621
sg474
I465
sg406
I397
sg25
I16
sg130
I121
sg307
I298
sg514
I505
sg603
I594
sg119
I110
sg372
I363
sg53
I44
sg545
I536
sg458
I449
sg631
I622
sg116
I107
sg239
I230
sg499
I490
sg509
I500
sg193
I184
sg123
I114
sg31
I22
sg508
I499
sg210
I201
sg440
I431
sg366
I357
sg565
I556
sg605
I596
sg589
I580
sg154
I145
sg531
I522
sg351
I342
sg142
I133
sg175
I166
sg550
I541
sg305
I296
sg662
I653
sg177
I168
sg518
I509
sg529
I520
sg110
I101
sg303
I294
sg77
I68
sg144
I135
sg334
I325
sg220
I211
sg361
I352
sg323
I314
sg611
I602
sg365
I356
sg147
I138
sg667
I658
sg676
I667
sg190
I181
sg500
I491
sg623
I614
sg673
I664
sg444
I435
sg469
I460
sg483
I474
sg149
I140
sg502
I493
sg387
I378
sg205
I196
sg134
I125
sg539
I530
sg55
I46
sg93
I84
sg530
I521
sg192
I183
sg333
I324
sg173
I164
sg310
I301
sg298
I289
sg488
I479
sg164
I155
sg339
I330
sg586
I577
sg322
I313
sg451
I442
sg195
I186
sg457
I448
sg279
I270
sg12
I3
sg289
I280
sg353
I344
sg99
I90
sg292
I283
sg588
I579
sg398
I389
sg601
I592
sg20
I11
sg449
I440
sg241
I232
sg133
I124
sg540
I531
sg386
I377
sg135
I126
sg663
I654
sg46
I37
sg348
I339
sg625
I616
sg297
I288
sg286
I277
sg92
I83
sg619
I610
sg242
I233
sg290
I281
sg656
I647
sg505
I496
sg73
I64
sg181
I172
sg377
I368
sg238
I229
sg225
I216
sg226
I217
sg96
I87
sg228
I219
sg227
I218
sg108
I99
sg282
I273
sg660
I651
sg269
I260
sg597
I588
sg54
I45
sg35
I26
sg247
I238
sg128
I119
sg643
I634
sg221
I212
sg670
I661
sg127
I118
sg141
I132
sg163
I154
sg343
I334
sg418
I409
sg635
I626
sg393
I384
sg419
I410
sg321
I312
sg72
I63
sg580
I571
sg69
I60
sg581
I572
sg618
I609
sg551
I542
sg479
I470
sg120
I111
sg503
I494
sg18
I9
sg445
I436
sg218
I209
sg312
I303
sg560
I551
sg388
I379
sg404
I395
sg257
I248
sg596
I587
sg131
I122
sg215
I206
sg672
I663
sg468
I459
sg442
I433
sg251
I242
sg182
I173
sg83
I74
sg273
I264
sg412
I403
sg554
I545
sg60
I51
sg515
I506
sg262
I253
sg313
I304
sg315
I306
sg47
I38
sg574
I565
sg283
I274
sg495
I486
sg263
I254
sg118
I109
sg480
I471
sg245
I236
sg497
I488
sg278
I269
sg237
I228
sg244
I235
sg280
I271
sg58
I49
sg194
I185
sg216
I207
sg655
I646
sg675
I666
sg172
I163
sg341
I332
sg139
I130
sg490
I481
sg591
I582
sg187
I178
sg492
I483
sg94
I85
sg189
I180
sg111
I102
sg184
I175
sg316
I307
sg270
I261
sg621
I612
sg383
I374
sg176
I167
sg85
I76
sg33
I24
sg422
I413
sg544
I535
sg243
I234
sg89
I80
sg188
I179
sg507
I498
sg36
I27
sg425
I416
sg561
I552
sg511
I502
sg143
I134
sg248
I239
sg150
I141
sg301
I292
sg562
I553
sg337
I328
sg304
I295
sg356
I347
sg533
I524
sg459
I450
sg15
I6
sg196
I187
sg668
I659
sg400
I391
sg13
I4
sg481
I472
sg249
I240
sg532
I523
sg185
I176
sg330
I321
sg378
I369
sg427
I418
sg136
I127
sg178
I169
sg536
I527
sg295
I286
sg413
I404
sg76
I67
sg569
I560
sg549
I540
sg61
I52
sg325
I316
sg125
I116
sg42
I33
sg629
I620
sg234
I225
sg246
I237
sg287
I278
sg300
I291
sg572
I563
sg405
I396
sg344
I335
sg543
I534
sg476
I467
sg537
I528
sg493
I484
sg478
I469
sg103
I94
sg653
I644
sg217
I208
sg424
I415
sg169
I160
sg522
I513
sg314
I305
sg67
I58
sg97
I88
sg638
I629
sg435
I426
sg438
I429
sg115
I106
sg288
I279
sg645
I636
sg259
I250
sg525
I516
sg79
I70
sg407
I398
sg651
I642
sg208
I199
sg109
I100
sg328
I319
sg548
I539
sg65
I56
sg39
I30
sg214
I205
sg609
I600
sg615
I606
sg152
I143
sg620
I611
sg575
I566
sg452
I443
sg82
I73
sg600
I591
sg461
I452
sg212
I203
sg267
I258
sg95
I86
sg627
I618
sg598
I589
sg345
I336
sg157
I148
sg484
I475
sg486
I477
sg390
I381
sg519
I510
sg462
I453
sg28
I19
sg535
I526
sg364
I355
sg319
I310
sg504
I495
sg369
I360
sg368
I359
sg367
I358
sg602
I593
sg604
I595
sg657
I648
sg389
I380
sg63
I54
sg37
I28
sg453
I444
sg527
I518
sg534
I525
sg526
I517
sg203
I194
sg186
I177
sg448
I439
sg236
I227
sg610
I601
sg291
I282
sg363
I354
sg324
I315
sg541
I532
sg402
I393
sg101
I92
sg520
I511
sg594
I585
sg477
I468
sg669
I660
sg70
I61
sg45
I36
sg121
I112
sg559
I550
sg106
I97
sg416
I407
sg431
I422
sg170
I161
sg411
I402
sg523
I514
sg633
I624
sg650
I641
sg14
I5
sg454
I445
sg23
I14
sg414
I405
sg394
I385
sg346
I337
sg347
I338
sg156
I147
sg261
I252
sg336
I327
sg456
I447
sg34
I25
sg88
I79
sg100
I91
sg665
I656
sg661
I652
sg578
I569
sg355
I346
sg66
I57
sg642
I633
sg75
I66
sg285
I276
sg557
I548
sg160
I151
sg576
I567
sg552
I543
sg320
I311
sg32
I23
sg397
I388
sg362
I353
sg475
I466
sg382
I373
sg29
I20
sg447
I438
sg595
I586
sg612
I603
sg506
I497
sg516
I507
sg74
I65
sg622
I613
sg564
I555
sg538
I529
sg117
I108
sg166
I157
sg167
I158
sg168
I159
sg434
I425
sg465
I456
sg309
I300
sg460
I451
sg375
I366
sg439
I430
sg634
I625
sg358
I349
sg256
I247
sg626
I617
sg207
I198
sg104
I95
sg381
I372
sg311
I302
sg553
I544
sg391
I382
sg302
I293
sg174
I165
sg513
I504
sg68
I59
sg179
I170
sg436
I427
sg44
I35
sg124
I115
sg253
I244
sg392
I383
sg38
I29
sg466
I457
sg26
I17
sg235
I226
sg233
I224
sg255
I246
sg211
I202
ssS'separator'
p681
S'='
sS'sparse'
p682
I01
sb.