ccopy_reg
_reconstructor
p1
(csklearn.feature_extraction.dict_vectorizer
DictVectorizer
p2
c__builtin__
object
p3
NtRp4
(dp5
S'vocabulary_'
p6
(dp7
S'w-1=in'
p8
I154
sS'w+2=not'
p9
I118
sS'amod=decent'
p10
I3
sS'conj=take'
p11
I27
sS'w+2=man'
p12
I115
sS'amod=average'
p13
I2
sS'w+2=space'
p14
I125
sS'amod=previous'
p15
I7
sS'w-2=they'
p16
I204
sS'dobj=bee'
p17
I35
sS'w+1=out'
p18
I85
sS'w-2=people'
p19
I195
sS'w+2=insurance'
p20
I114
sS'w-1=average'
p21
I141
sS'w-2=she'
p22
I200
sS'xcomp=generate'
p23
I207
sS'det=the'
p24
I32
sS'ccomp=need'
p25
I20
sS'w-1=most'
p26
I158
sS'w-2=to'
p27
I205
sS'w+2=buy'
p28
I103
sS'w+2=.'
p29
I96
sS'w+1=over'
p30
I86
sS'w-1=house'
p31
I153
sS'w+2=in'
p32
I113
sS'amod=higher'
p33
I4
sS'w+1=cost'
p34
I74
sS'nsubj=who'
p35
I53
sS'w+2=send'
p36
I123
sS'w+2=this'
p37
I129
sS'w-1=decent'
p38
I147
sS'w-2=of'
p39
I191
sS'w-2=International'
p40
I173
sS'w+2=salon'
p41
I122
sS'w+1=office'
p42
I83
sS'w+2=for'
p43
I108
sS'dobj=salon'
p44
I40
sS'w-2=effect'
p45
I181
sS'w-1=to'
p46
I167
sS'w+2=out'
p47
I120
sS'w-1=local'
p48
I155
sS'prep=by'
p49
I57
sS'w+2=and'
p50
I99
sS'nsubj=many'
p51
I50
sS'w+1=house'
p52
I78
sS'w-1=,'
p53
I136
sS'dobj=version'
p54
I43
sS'w+1=up'
p55
I94
sS'w-2=Hong'
p56
I172
sS'w-1=Kong'
p57
I137
sS'dobj=#PRP#'
p58
I33
sS'w-2=one'
p59
I192
sS'w-2=food'
p60
I184
sS'dobj=home'
p61
I37
sS'w-2=the'
p62
I203
sS'w+1=room'
p63
I87
sS'w-2=he'
p64
I187
sS'w-2=honey'
p65
I188
sS'conj=rely'
p66
I25
sS'w-2=afford'
p67
I175
sS'w+1=movie'
p68
I81
sS'aux=will'
p69
I15
sS'w-1=my'
p70
I159
sS'w+2=month'
p71
I117
sS'advmod=so'
p72
I1
sS'dobj=house'
p73
I38
sS'w-2=say'
p74
I199
sS'w-1=and'
p75
I139
sS'prep=over'
p76
I61
sS'w-1=drive'
p77
I148
sS'w-2=,'
p78
I170
sS'nsubj=people'
p79
I52
sS'w-2=price'
p80
I196
sS'cc=or'
p81
I18
sS'w+1=he'
p82
I76
sS'w+2=high'
p83
I111
sS'aux=have'
p84
I13
sS'nsubj=agency'
p85
I47
sS'w-2=but'
p86
I177
sS'w-2=in'
p87
I189
sS'dep=use'
p88
I30
sS'w-1=be'
p89
I142
sS'w-2=electricity'
p90
I182
sS'conj=build'
p91
I22
sS'w-1=can'
p92
I145
sS'w-2=pay'
p93
I194
sS'w+1=make'
p94
I80
sS'w-2=four'
p95
I185
sS'rcmod=say'
p96
I64
sS'w-2=man'
p97
I190
sS'amod=local'
p98
I5
sS'w+1=this'
p99
I92
sS'dobj=apartment'
p100
I34
sS'amod=yearly'
p101
I8
sS'w-2=other'
p102
I193
sS'advmod=most'
p103
I0
sS'partmod=increase'
p104
I54
sS'w-1=yearly'
p105
I169
sS'w+2=to'
p106
I131
sS'w+2=taxi'
p107
I126
sS'w-2=a'
p108
I174
sS'w-1=they'
p109
I166
sS'prep=for'
p110
I58
sS'det=a'
p111
I31
sS'w+1=or'
p112
I84
sS'w-1=a'
p113
I138
sS'w+2=do'
p114
I105
sS'amod=low'
p115
I6
sS'w-2=eager'
p116
I180
sS'w-1=he'
p117
I151
sS'w-1=low'
p118
I156
sS'dobj=plot'
p119
I39
sS'nn=Kong'
p120
I44
sS'w+2=which'
p121
I133
sS'ccomp=have'
p122
I19
sS'w-1=could'
p123
I146
sS'nsubj=other'
p124
I51
sS'w-2=city'
p125
I178
sS'prep=about'
p126
I56
sS'aux=can'
p127
I11
sS'dobj=gym'
p128
I36
sS'w-2=rise'
p129
I198
sS'tmod=month'
p130
I65
sS'w+1=increase'
p131
I79
sS'conj=work'
p132
I29
sS'w-2=have'
p133
I186
sS'prt=out'
p134
I63
sS'cc=and'
p135
I16
sS'w-1=previous'
p136
I162
sS'appos=insurance'
p137
I9
sS'w+1=next'
p138
I82
sS'w+2=by'
p139
I104
sS'w+2=manager'
p140
I116
sS'w+1=the'
p141
I90
sS'xcomp=return'
p142
I210
sS'w+1=by'
p143
I73
sS'w+1=will'
p144
I95
sS'w+1=be'
p145
I71
sS'xcomp=pollinate'
p146
I209
sS'w+2=be'
p147
I102
sS'cc=but'
p148
I17
sS'w+1=they'
p149
I91
sS'w-2=priciest'
p150
I197
sS'w-1=say'
p151
I163
sS'w-1=but'
p152
I144
sS'w-1=apartment'
p153
I140
sS'w-2=some'
p154
I201
sS'prep=in'
p155
I60
sS'w+1=home'
p156
I77
sS'w+1=for'
p157
I75
sS'tmod=year'
p158
I66
sS'dobj=space'
p159
I41
sS'nsubj=#PRP#'
p160
I46
sS'w+2=shop'
p161
I124
sS'prep=from'
p162
I59
sS"w-1=''"
p163
I135
sS'w+2=executive'
p164
I106
sS'w-2=up'
p165
I206
sS'w-1=pay'
p166
I160
sS'nsubj=house'
p167
I48
sS'prep=to'
p168
I62
sS'xcomp=pay'
p169
I208
sS'aux=to'
p170
I14
sS'w-1=higher'
p171
I152
sS'w-1=people'
p172
I161
sS'w+2=have'
p173
I109
sS'w+2=year'
p174
I134
sS'w+2=the'
p175
I127
sS'w-2=that'
p176
I202
sS'poss=#PRP#'
p177
I55
sS'w-1=who'
p178
I168
sS'w+1=and'
p179
I70
sS'conj=buy'
p180
I23
sS'w-2=allow'
p181
I176
sS'aux=could'
p182
I12
sS'nn=pay'
p183
I45
sS'w-1=for'
p184
I149
sS'w+1=,'
p185
I67
sS'w+1=.'
p186
I68
sS'dobj=taxi'
p187
I42
sS'w+2=anything'
p188
I100
sS'w+1=some'
p189
I88
sS'w+2=on'
p190
I119
sS'w+1=to'
p191
I93
sS'conj=shop'
p192
I26
sS'w+2=about'
p193
I98
sS'ccomp=rise'
p194
I21
sS'w-1=small'
p195
I164
sS'w+2=food'
p196
I107
sS'w+2=he'
p197
I110
sS'w+1=space'
p198
I89
sS'w-2=.'
p199
I171
sS'conj=have'
p200
I24
sS'w+2=apartment'
p201
I101
sS'w-2=executive'
p202
I183
sS'w+2=utility'
p203
I132
sS'w+2=these'
p204
I128
sS'w+2=plot'
p205
I121
sS'conj=utility'
p206
I28
sS'w+1=a'
p207
I69
sS'w-2=displaced'
p208
I179
sS'w-1=begin'
p209
I143
sS'w+2=three-bedroom'
p210
I130
sS'w-1=have'
p211
I150
sS'w+1=bee'
p212
I72
sS'w-1=the'
p213
I165
sS'aux=be'
p214
I10
sS'nsubj=man'
p215
I49
sS'w+2=house'
p216
I112
sS'w+2=a'
p217
I97
sS'w-1=month'
p218
I157
ssS'dtype'
p219
cnumpy
float64
p220
sS'feature_names_'
p221
(lp222
g103
ag72
ag13
ag10
ag33
ag98
ag115
ag15
ag101
ag137
ag214
ag127
ag182
ag84
ag170
ag69
ag135
ag148
ag81
ag122
ag25
ag194
ag91
ag180
ag200
ag66
ag192
ag11
ag206
ag132
ag88
ag111
ag24
ag58
ag100
ag17
ag128
ag61
ag73
ag119
ag44
ag159
ag187
ag54
ag120
ag183
ag160
ag85
ag167
ag215
ag51
ag124
ag79
ag35
ag104
ag177
ag126
ag49
ag110
ag162
ag155
ag76
ag168
ag134
ag96
ag130
ag158
ag185
ag186
ag207
ag179
ag145
ag212
ag143
ag34
ag157
ag82
ag156
ag52
ag131
ag94
ag68
ag138
ag42
ag112
ag18
ag30
ag63
ag189
ag198
ag141
ag149
ag99
ag191
ag55
ag144
ag29
ag217
ag193
ag50
ag188
ag201
ag147
ag28
ag139
ag114
ag164
ag196
ag43
ag173
ag197
ag83
ag216
ag32
ag20
ag12
ag140
ag71
ag9
ag190
ag47
ag205
ag41
ag36
ag161
ag14
ag107
ag175
ag204
ag37
ag210
ag106
ag203
ag121
ag174
ag163
ag53
ag57
ag113
ag75
ag153
ag21
ag89
ag209
ag152
ag92
ag123
ag38
ag77
ag184
ag211
ag117
ag171
ag31
ag8
ag48
ag118
ag218
ag26
ag70
ag166
ag172
ag136
ag151
ag195
ag213
ag109
ag46
ag178
ag105
ag78
ag199
ag56
ag40
ag108
ag67
ag181
ag86
ag125
ag208
ag116
ag45
ag90
ag202
ag60
ag95
ag133
ag64
ag65
ag87
ag97
ag39
ag59
ag102
ag93
ag19
ag80
ag150
ag129
ag74
ag22
ag154
ag176
ag62
ag16
ag27
ag165
ag23
ag169
ag146
ag142
asS'separator'
p223
S'='
sS'sparse'
p224
I01
sb.