ccopy_reg
_reconstructor
p1
(csklearn.feature_extraction.dict_vectorizer
DictVectorizer
p2
c__builtin__
object
p3
NtRp4
(dp5
S'vocabulary_'
p6
(dp7
S'w+1=Maoists'
p8
I200
sS'dobj=Maoists'
p9
I81
sS'nsubj=Hispanics'
p10
I122
sS'w+1=537'
p11
I194
sS'w-2=we'
p12
I532
sS'w-2=people'
p13
I506
sS'nsubjpass=people'
p14
I159
sS'nsubjpass=returnee'
p15
I161
sS'w-1=country'
p16
I384
sS'w+2=but'
p17
I289
sS'w-2=election'
p18
I473
sS'w-2=host'
p19
I485
sS'w+1=around'
p20
I204
sS'w-2=just'
p21
I488
sS'w+2=belong'
p22
I286
sS'w-2=site'
p23
I517
sS'w-2=fleet'
p24
I477
sS'w-2=they'
p25
I524
sS'prep=than'
p26
I180
sS'w+1=property'
p27
I245
sS'prep=by'
p28
I172
sS'w-1=Islamabad'
p29
I367
sS'nsubj=many'
p30
I139
sS'w-2=7'
p31
I441
sS'w-2=country'
p32
I467
sS'w+1=that'
p33
I250
sS'w-2=refuse'
p34
I512
sS'w-1=30,000'
p35
I361
sS'nsubj=government'
p36
I137
sS'conj=say'
p37
I63
sS'w-1=would'
p38
I425
sS'w-2=while'
p39
I537
sS'nsubjpass=everybody'
p40
I156
sS'w+2=bear'
p41
I284
sS'nsubj=station'
p42
I148
sS'w-2=official'
p43
I501
sS'w-1=new'
p44
I400
sS'w+2=two-million'
p45
I347
sS'w-1=voter'
p46
I420
sS'ccomp=feel'
p47
I48
sS'w+1=only'
p48
I239
sS'advmod=just'
p49
I17
sS'w-2=form'
p50
I478
sS'tmod=year'
p51
I187
sS'w-1=will'
p52
I423
sS'w-2=I'
p53
I447
sS'dobj=turnout'
p54
I101
sS'nsubj=number'
p55
I140
sS'w+2=begin'
p56
I285
sS'w+1=somali'
p57
I248
sS'w-1=be'
p58
I378
sS'w-1=920,000'
p59
I364
sS'dobj=complaint'
p60
I86
sS'w-2=family'
p61
I474
sS'w+2=run'
p62
I336
sS'w-2=time'
p63
I527
sS'w-2=territory'
p64
I521
sS'w-2=where'
p65
I535
sS'w-1=newly'
p66
I401
sS'w+1=cast'
p67
I212
sS'w-1=Maoists'
p68
I368
sS'dobj=everything'
p69
I89
sS'mark=because'
p70
I110
sS'advcl=with'
p71
I9
sS'w-2=who'
p72
I538
sS'w+1=of'
p73
I237
sS'w-1=state'
p74
I414
sS'w+2=to'
p75
I344
sS'w+1=on'
p76
I238
sS'advcl=explode'
p77
I3
sS'w+1=or'
p78
I241
sS'w-2=home'
p79
I484
sS'w-2=Africa'
p80
I442
sS'w-1=have'
p81
I391
sS'nsubjpass=voter'
p82
I165
sS'w+2=in'
p83
I312
sS'dep=here'
p84
I68
sS'nsubj=Islamabad'
p85
I124
sS'w+2=find'
p86
I302
sS'w+2=identity'
p87
I311
sS'w+2=who'
p88
I352
sS'w+1=create'
p89
I213
sS'w+1=opposition'
p90
I240
sS'ccomp=have'
p91
I49
sS'w+1=magnetically'
p92
I229
sS'advmod=strongly'
p93
I23
sS'w+2=Jakarta'
p94
I269
sS'prep=about'
p95
I169
sS'aux=can'
p96
I34
sS'complm=that'
p97
I52
sS'w-1=become'
p98
I379
sS'w+1=people'
p99
I243
sS'dep=of'
p100
I72
sS'w+2=either'
p101
I300
sS'w+2=vote'
p102
I350
sS'w-1=from'
p103
I389
sS'w-1=since'
p104
I412
sS'advcl=be'
p105
I1
sS'w-2=that'
p106
I522
sS'w-2=motorbike'
p107
I496
sS'w+2=take'
p108
I339
sS'w+1=vehicle'
p109
I256
sS'w+2=be'
p110
I283
sS'w+1=they'
p111
I251
sS'w+1=400'
p112
I193
sS'w-2=group'
p113
I482
sS'w-1=formally'
p114
I388
sS'w+1=those'
p115
I252
sS'nsubjpass=#PRP#'
p116
I154
sS'prep=in'
p117
I175
sS'w-1=properly'
p118
I410
sS'aux=would'
p119
I40
sS'w+1=for'
p120
I223
sS'w-1=information'
p121
I395
sS'advmod=yet'
p122
I29
sS'prep=to'
p123
I181
sS'w-2=forward'
p124
I479
sS'w-2=voter'
p125
I531
sS'w+2=come'
p126
I292
sS'conj=make'
p127
I61
sS'w+1=and'
p128
I203
sS'nsubjpass=player'
p129
I160
sS'nsubj=all'
p130
I130
sS'w+2=Monday'
p131
I272
sS'w+2=for'
p132
I303
sS'dobj=whom'
p133
I106
sS'nsubj=that'
p134
I149
sS'w-1=it'
p135
I396
sS'w-2=government'
p136
I481
sS'w-2=61'
p137
I440
sS'advmod=here'
p138
I15
sS'dobj=which'
p139
I105
sS'w-1=in'
p140
I394
sS'w+2=birth'
p141
I287
sS'w-2=supporter'
p142
I520
sS'w+1=receive'
p143
I246
sS'w-1=the'
p144
I417
sS'conj=access'
p145
I53
sS'w+1=Democrats'
p146
I198
sS'mark=if'
p147
I111
sS'w+2=fighter'
p148
I301
sS'w-2=percent'
p149
I507
sS'dobj=refugee'
p150
I98
sS'dobj=truck'
p151
I100
sS'advmod=high'
p152
I16
sS'w+2=likely'
p153
I317
sS'dobj=Democrats'
p154
I79
sS'w+2=not'
p155
I323
sS'dobj=growth'
p156
I91
sS'advmod=where'
p157
I27
sS'w-2=18'
p158
I432
sS'w-2=pro-american'
p159
I510
sS'w-2=17'
p160
I431
sS'w-2=12'
p161
I430
sS'w-2=court'
p162
I468
sS'w-1=many'
p163
I397
sS'prep=out'
p164
I178
sS'det=the'
p165
I76
sS'w-2=earthquake'
p166
I470
sS'xcomp=take'
p167
I546
sS'dobj=people'
p168
I95
sS'w-2=through'
p169
I526
sS'w-2=papers'
p170
I503
sS'w+2=draw'
p171
I298
sS'nsubj=who'
p172
I151
sS'w-2=lodge'
p173
I494
sS'w-1=worker'
p174
I424
sS'w-2=of'
p175
I500
sS'w-1=to'
p176
I419
sS'w-2=licens'
p177
I491
sS'w+2=more'
p178
I321
sS'nsubj=percent'
p179
I146
sS'nsubj=party'
p180
I144
sS'dobj=#PRP#'
p181
I78
sS'w-1=identity'
p182
I393
sS'w+2=growth'
p183
I307
sS'w-2=those'
p184
I525
sS'w-2=arrive'
p185
I458
sS'w+1=as'
p186
I205
sS'w+1=at'
p187
I206
sS'w+1=he'
p188
I225
sS'w+1=nearly'
p189
I233
sS'w-2=woman'
p190
I540
sS'nsubjpass=that'
p191
I162
sS'nsubj=voter'
p192
I150
sS'w+2=late'
p193
I315
sS'conj=decide'
p194
I56
sS'w+1=everything'
p195
I221
sS'tmod=today'
p196
I185
sS'ccomp=be'
p197
I47
sS'w-2=chance'
p198
I464
sS'w-2=identify'
p199
I486
sS'w-1=28,000'
p200
I360
sS'w+1=decline'
p201
I214
sS'w+2=cast'
p202
I290
sS'advmod=when'
p203
I26
sS'advmod=magnetically'
p204
I18
sS'prep=for'
p205
I174
sS'advmod=along'
p206
I10
sS'w-2=Americans'
p207
I443
sS'w-1=attack'
p208
I376
sS'w+2=they'
p209
I343
sS'w+2=at'
p210
I281
sS'w+2=formal'
p211
I304
sS'advmod=practically'
p212
I20
sS'w+2=60'
p213
I266
sS'w+2=as'
p214
I279
sS'nsubj=politician'
p215
I147
sS'dobj=claim'
p216
I85
sS'w+2=include'
p217
I313
sS'w+1=Democrat'
p218
I197
sS'auxpass=be'
p219
I41
sS'w+1=negative'
p220
I234
sS'w-2=edge'
p221
I472
sS'w+2=million'
p222
I320
sS'nsubj=couple'
p223
I134
sS'xcomp=decline'
p224
I544
sS'nsubj=#NUMBER#'
p225
I117
sS'w-2=United'
p226
I450
sS'w+1=under'
p227
I255
sS'advcl=step'
p228
I8
sS'w+2=medical'
p229
I319
sS'nsubj=Cambodia'
p230
I120
sS'advcl=attack'
p231
I0
sS'w-1=50'
p232
I362
sS'w-2=Cambodia'
p233
I444
sS'nsubj=compilation'
p234
I132
sS'nsubjpass=#NUMBER#'
p235
I153
sS'w-1=higher'
p236
I392
sS'w-1=remain'
p237
I411
sS'expl=there'
p238
I108
sS'dobj=vehicle'
p239
I102
sS'w-2=polish'
p240
I508
sS'w-2=land'
p241
I489
sS'advcl=disqualify'
p242
I2
sS'w-2=allow'
p243
I453
sS"w-2=''"
p244
I426
sS'w+2=of'
p245
I325
sS'w-2=3.2'
p246
I435
sS'w+2=on'
p247
I326
sS'w+1=to'
p248
I253
sS'w-1=spot'
p249
I413
sS'advmod=appropriately'
p250
I12
sS'w-1=and'
p251
I374
sS'nsubjpass=vehicle'
p252
I164
sS'w+2=Mangudadatu'
p253
I271
sS'w-2=well'
p254
I533
sS'dobj=name'
p255
I93
sS'advmod=barely'
p256
I13
sS'w+2=California'
p257
I268
sS'nn=state'
p258
I115
sS'conj=look'
p259
I59
sS'nn=voter'
p260
I116
sS'w+2=provide'
p261
I332
sS'w+1=political'
p262
I244
sS'nsubj=operator'
p263
I142
sS'w-2=5.7'
p264
I439
sS"w-2='s"
p265
I427
sS'w-2=death'
p266
I469
sS'dobj=temple'
p267
I99
sS'advcl=have'
p268
I5
sS'advmod=up'
p269
I25
sS'nsubjpass=the'
p270
I163
sS'w-2=line'
p271
I492
sS'w-1=by'
p272
I380
sS'w-1=Romney'
p273
I369
sS'advmod=worldwide'
p274
I28
sS'w-2=remain'
p275
I514
sS'w-1=patent'
p276
I406
sS'w+2=people'
p277
I330
sS'tmod=day'
p278
I184
sS'w+2=economic'
p279
I299
sS'auxpass=get'
p280
I42
sS'dobj=concern'
p281
I87
sS'prep=up'
p282
I182
sS'w+2=Britain'
p283
I267
sS'w-2=six'
p284
I518
sS'w+1=Ismael'
p285
I199
sS'advmod=even'
p286
I14
sS'w-1=other'
p287
I405
sS'w-2=million'
p288
I495
sS'mark=while'
p289
I112
sS'w-2=the'
p290
I523
sS'partmod=expand'
p291
I167
sS'w-2=also'
p292
I454
sS'aux=will'
p293
I39
sS'w+2=voter'
p294
I351
sS'w+2=many'
p295
I318
sS'w-1=or'
p296
I404
sS'dep=land'
p297
I70
sS'advcl=indicate'
p298
I6
sS'nsubj=States'
p299
I129
sS'nsubj=people'
p300
I145
sS'prep=with'
p301
I183
sS'cc=or'
p302
I46
sS'dobj=Mangudadatu'
p303
I80
sS'w-2=Ivorians'
p304
I448
sS'w+1=nine'
p305
I236
sS'w-2=200'
p306
I433
sS'w+2=its'
p307
I314
sS'w+1=win'
p308
I258
sS'dep=vote'
p309
I73
sS'w-2=candidate'
p310
I463
sS'w-1=barely'
p311
I377
sS'w-1=Democrats'
p312
I365
sS'w-2=nation'
p313
I497
sS'advmod=since'
p314
I22
sS'w+1=candidate'
p315
I211
sS'w+2=do'
p316
I297
sS'dobj=member'
p317
I92
sS'w-1=States'
p318
I370
sS'conj=unaffiliated'
p319
I65
sS'nsubj=Romney'
p320
I128
sS'w+2=100,000'
p321
I264
sS'nsubj=Maoists'
p322
I126
sS'w-1=for'
p323
I387
sS'amod=national'
p324
I31
sS"w+2=''"
p325
I261
sS'nsubj=country'
p326
I133
sS'amod=precinct'
p327
I32
sS'w-2=fence'
p328
I476
sS'w+2=four'
p329
I305
sS'w-2=indicator'
p330
I487
sS'advmod=also'
p331
I11
sS'nsubjpass=head'
p332
I157
sS'w+1=palestinian'
p333
I242
sS'nsubjpass=car'
p334
I155
sS'w+2=represent'
p335
I335
sS'conj=try'
p336
I64
sS'advmod=newly'
p337
I19
sS'nsubjpass=who'
p338
I166
sS'w-2=have'
p339
I483
sS'cc=and'
p340
I44
sS'w+1=far'
p341
I222
sS'w-2=45'
p342
I437
sS'w-2=49'
p343
I438
sS'w+1=by'
p344
I210
sS'w+1=be'
p345
I207
sS'w-2=you'
p346
I542
sS'w+1=here'
p347
I226
sS'w-2=when'
p348
I534
sS'conj=hold'
p349
I57
sS'w+2=asylum'
p350
I280
sS'w-1=people'
p351
I407
sS'nsubj=Nations'
p352
I127
sS'conj=apparent'
p353
I54
sS'w+1=in'
p354
I228
sS'w+1=-lrb-'
p355
I190
sS'w+2=party'
p356
I329
sS'w+2=suppose'
p357
I338
sS'w+1=miss'
p358
I230
sS'w+2=appropriately'
p359
I278
sS'nsubj=#PRP#'
p360
I118
sS'w+1=about'
p361
I202
sS'w+2=go'
p362
I306
sS'w-2=see'
p363
I515
sS'w+1=better'
p364
I209
sS'w-1=among'
p365
I373
sS'w+2=leverage'
p366
I316
sS'cc=but'
p367
I45
sS'conj=user'
p368
I66
sS'w+1=sustained'
p369
I249
sS'w+1=voter'
p370
I257
sS'w-2=race'
p371
I511
sS'w+2=Switzerland'
p372
I273
sS'dobj=#NUMBER#'
p373
I77
sS'w-2=party'
p374
I505
sS'w+2=class'
p375
I291
sS'aux=could'
p376
I35
sS'w-1=company'
p377
I382
sS'w+2=parliamentary'
p378
I328
sS'w-1=couple'
p379
I385
sS'w-2=around'
p380
I457
sS'poss=voter'
p381
I168
sS'dep=in'
p382
I69
sS'w-2=violence'
p383
I530
sS'aux=must'
p384
I37
sS'w-2=authentic'
p385
I460
sS'dobj=win'
p386
I107
sS'w+2=concern'
p387
I293
sS'w-2=southern'
p388
I519
sS'w+1=today'
p389
I254
sS'w+2=truck'
p390
I345
sS'ccomp=turn'
p391
I51
sS'w-2=convoy'
p392
I466
sS'w+2=brisk'
p393
I288
sS'w-2=be'
p394
I461
sS'w-1=precinct'
p395
I409
sS'prep=of'
p396
I176
sS'prep=on'
p397
I177
sS'nsubj=Ivorians'
p398
I125
sS'nsubj=man'
p399
I138
sS'w+2=hold'
p400
I310
sS'w-2=get'
p401
I480
sS'w-2=company'
p402
I465
sS'tmod=week'
p403
I186
sS'auxpass=remain'
p404
I43
sS'w+1=six'
p405
I247
sS'nsubj=candidate'
p406
I131
sS'w+2=than'
p407
I341
sS'w-2=economy'
p408
I471
sS'w+2=correspondent'
p409
I294
sS'w-2=can'
p410
I462
sS'w-2=25,000'
p411
I434
sS'w-1=who'
p412
I422
sS'amod=higher'
p413
I30
sS'nsubj=form'
p414
I136
sS'w+1=display'
p415
I216
sS'w-2=and'
p416
I455
sS'xcomp=run'
p417
I545
sS'w+2=democrat'
p418
I295
sS'advcl=say'
p419
I7
sS'w-2=Nations'
p420
I449
sS'w-1=of'
p421
I403
sS'w+2=out'
p422
I327
sS'w-2=to'
p423
I528
sS'w+2=and'
p424
I277
sS'conj=maintain'
p425
I60
sS'dobj=birth'
p426
I83
sS'w+1=31,000'
p427
I192
sS'w+2=note'
p428
I324
sS'neg=not'
p429
I113
sS'w+2=temple'
p430
I340
sS'w-2=try'
p431
I529
sS'w-2=one'
p432
I502
sS'w-2=worker'
p433
I541
sS'conj=norm'
p434
I62
sS'prep=since'
p435
I179
sS'dep=difficult'
p436
I67
sS'ccomp=receive'
p437
I50
sS'w+1=with'
p438
I259
sS'w-2=national'
p439
I498
sS'w+2=the'
p440
I342
sS'prep=at'
p441
I171
sS'w-2=will'
p442
I539
sS'prep=as'
p443
I170
sS'w-2=36'
p444
I436
sS'w-2=,'
p445
I428
sS'w-2=.'
p446
I429
sS'dobj=rate'
p447
I97
sS'aux=have'
p448
I36
sS'w+2=voluntary'
p449
I349
sS"w-1='"
p450
I355
sS'w-2=Hispanics'
p451
I446
sS'w+2=display'
p452
I296
sS'det=any'
p453
I75
sS'w-1=-'
p454
I357
sS'w-1=,'
p455
I356
sS'w-2=not'
p456
I499
sS'w+2=rate'
p457
I333
sS'w-1=could'
p458
I383
sS'w+1=every'
p459
I220
sS'w-2=EPRDF'
p460
I445
sS'w-2=as'
p461
I459
sS'conj=lock'
p462
I58
sS'dobj=correspondent'
p463
I88
sS'nsubjpass=party'
p464
I158
sS'w-1=also'
p465
I372
sS'nn=identity'
p466
I114
sS'w-2=fee'
p467
I475
sS'w+2=31,000'
p468
I265
sS'w-1=I'
p469
I366
sS'dobj=candidate'
p470
I84
sS'w+1=during'
p471
I218
sS'xcomp=begin'
p472
I543
sS'dobj=belief'
p473
I82
sS'w-2=any'
p474
I456
sS'w+2=turn'
p475
I346
sS'w-2=a'
p476
I451
sS'w-1=they'
p477
I418
sS'det=a'
p478
I74
sS'w-1=a'
p479
I371
sS'nsubj=oil'
p480
I141
sS'w-1=200,000'
p481
I359
sS'mark=as'
p482
I109
sS'w+2=security'
p483
I337
sS'w+1=economic'
p484
I219
sS'w+1=growth'
p485
I224
sS'nsubj=economy'
p486
I135
sS'w-2=list'
p487
I493
sS'w-2=whether'
p488
I536
sS'w-1=policy'
p489
I408
sS'w+1=more'
p490
I231
sS'nsubj=Howard'
p491
I123
sS'w+2=various'
p492
I348
sS'nsubj=other'
p493
I143
sS'w+1=must'
p494
I232
sS'dobj=fighter'
p495
I90
sS'advmod=than'
p496
I24
sS'w-1=must'
p497
I399
sS'nsubj=EPRDF'
p498
I121
sS'dobj=vote'
p499
I103
sS'w+2=have'
p500
I309
sS'xcomp=vote'
p501
I547
sS'w+2=refugee'
p502
I334
sS'w-1=160,000'
p503
I358
sS'nsubj=Africa'
p504
I119
sS'w+2=youth'
p505
I354
sS'w-1=while'
p506
I421
sS'w+1=Afghan'
p507
I196
sS'w-1=900,000'
p508
I363
sS'w+1=displaced'
p509
I215
sS'dep=new'
p510
I71
sS'w-1=even'
p511
I386
sS'w-2=lawyer'
p512
I490
sS'w+2=authority'
p513
I282
sS'w+2=Tuesday'
p514
I274
sS'w-1=than'
p515
I415
sS'w+2=actual'
p516
I276
sS'aux=to'
p517
I38
sS'w+1=before'
p518
I208
sS'advcl=go'
p519
I4
sS'w-2=parent'
p520
I504
sS'w+2=name'
p521
I322
sS'w-1=get'
p522
I390
sS'dobj=voter'
p523
I104
sS'w+1=new'
p524
I235
sS'nsubj=worker'
p525
I152
sS'w+2=Kashmir'
p526
I270
sS'w+1=-'
p527
I189
sS'w+1=,'
p528
I188
sS'w+1=.'
p529
I191
sS'dobj=party'
p530
I94
sS'w+2=.'
p531
I263
sS'w+2=,'
p532
I262
sS"w+2='"
p533
I260
sS'w+1=?'
p534
I195
sS'w-2=all'
p535
I452
sS'prep=during'
p536
I173
sS'w+2=harare'
p537
I308
sS'w+1=do'
p538
I217
sS'w-1=capital'
p539
I381
sS'w-2=reluctant'
p540
I513
sS'w+2=preparation'
p541
I331
sS'w+1=a'
p542
I201
sS'w-1=not'
p543
I402
sS'w+1=hundred'
p544
I227
sS'w-2=print'
p545
I509
sS'w-2=signature'
p546
I516
sS'dobj=property'
p547
I96
sS'w+2=worldwide'
p548
I353
sS'w-1=as'
p549
I375
sS'w-1=million'
p550
I398
sS'w-1=that'
p551
I416
sS'aux=be'
p552
I33
sS'conj=cast'
p553
I55
sS'w+2=a'
p554
I275
sS'advmod=properly'
p555
I21
ssS'dtype'
p556
cnumpy
float64
p557
sS'feature_names_'
p558
(lp559
g231
ag105
ag242
ag77
ag519
ag268
ag298
ag419
ag228
ag71
ag206
ag331
ag250
ag256
ag286
ag138
ag152
ag49
ag204
ag337
ag212
ag555
ag314
ag93
ag496
ag269
ag203
ag157
ag274
ag122
ag413
ag324
ag327
ag552
ag96
ag376
ag448
ag384
ag517
ag293
ag119
ag219
ag280
ag404
ag340
ag367
ag302
ag197
ag47
ag91
ag437
ag391
ag97
ag145
ag353
ag553
ag194
ag349
ag462
ag259
ag425
ag127
ag434
ag37
ag336
ag319
ag368
ag436
ag84
ag382
ag297
ag510
ag100
ag309
ag478
ag453
ag165
ag373
ag181
ag154
ag303
ag9
ag473
ag426
ag470
ag216
ag60
ag281
ag463
ag69
ag495
ag156
ag317
ag255
ag530
ag168
ag547
ag447
ag150
ag267
ag151
ag54
ag239
ag499
ag523
ag139
ag133
ag386
ag238
ag482
ag70
ag147
ag289
ag429
ag466
ag258
ag260
ag225
ag360
ag504
ag230
ag498
ag10
ag491
ag85
ag398
ag322
ag352
ag320
ag299
ag130
ag406
ag234
ag326
ag223
ag486
ag414
ag36
ag399
ag30
ag55
ag480
ag263
ag493
ag180
ag300
ag179
ag215
ag42
ag134
ag192
ag172
ag525
ag235
ag116
ag334
ag40
ag332
ag464
ag14
ag129
ag15
ag191
ag270
ag252
ag82
ag338
ag291
ag381
ag95
ag443
ag441
ag28
ag536
ag205
ag117
ag396
ag397
ag164
ag435
ag26
ag123
ag282
ag301
ag278
ag196
ag403
ag51
ag528
ag527
ag355
ag529
ag427
ag112
ag11
ag534
ag507
ag218
ag146
ag285
ag8
ag542
ag361
ag128
ag20
ag186
ag187
ag345
ag518
ag364
ag344
ag315
ag67
ag89
ag201
ag509
ag415
ag538
ag471
ag484
ag459
ag195
ag341
ag120
ag485
ag188
ag347
ag544
ag354
ag92
ag358
ag490
ag494
ag189
ag220
ag524
ag305
ag73
ag76
ag48
ag90
ag78
ag333
ag99
ag262
ag27
ag143
ag405
ag57
ag369
ag33
ag111
ag115
ag248
ag389
ag227
ag109
ag370
ag308
ag438
ag533
ag325
ag532
ag531
ag321
ag468
ag213
ag283
ag257
ag94
ag526
ag253
ag131
ag372
ag514
ag554
ag516
ag424
ag359
ag214
ag350
ag210
ag513
ag110
ag41
ag56
ag22
ag141
ag393
ag17
ag202
ag375
ag126
ag387
ag409
ag418
ag452
ag316
ag171
ag279
ag101
ag148
ag86
ag132
ag211
ag329
ag362
ag183
ag537
ag500
ag400
ag87
ag83
ag217
ag307
ag193
ag366
ag153
ag295
ag229
ag222
ag178
ag521
ag155
ag428
ag245
ag247
ag422
ag378
ag356
ag277
ag541
ag261
ag457
ag502
ag335
ag62
ag483
ag357
ag108
ag430
ag407
ag440
ag209
ag75
ag390
ag475
ag45
ag492
ag449
ag102
ag294
ag88
ag548
ag505
ag450
ag455
ag454
ag503
ag481
ag200
ag35
ag232
ag508
ag59
ag312
ag469
ag29
ag68
ag273
ag318
ag479
ag465
ag365
ag251
ag549
ag208
ag311
ag58
ag98
ag272
ag539
ag377
ag458
ag16
ag379
ag511
ag323
ag114
ag103
ag522
ag81
ag236
ag182
ag140
ag121
ag135
ag163
ag550
ag497
ag44
ag66
ag543
ag421
ag296
ag287
ag276
ag351
ag489
ag395
ag118
ag237
ag104
ag249
ag74
ag515
ag551
ag144
ag477
ag176
ag46
ag506
ag412
ag52
ag174
ag38
ag244
ag265
ag445
ag446
ag161
ag160
ag158
ag306
ag411
ag246
ag444
ag342
ag343
ag264
ag137
ag31
ag80
ag207
ag233
ag460
ag451
ag53
ag304
ag420
ag226
ag476
ag535
ag243
ag292
ag416
ag474
ag380
ag185
ag461
ag385
ag394
ag410
ag310
ag198
ag402
ag392
ag32
ag162
ag266
ag166
ag408
ag221
ag18
ag61
ag467
ag328
ag24
ag50
ag124
ag401
ag136
ag113
ag339
ag79
ag19
ag199
ag330
ag21
ag241
ag512
ag177
ag271
ag487
ag173
ag288
ag107
ag313
ag439
ag456
ag175
ag43
ag432
ag170
ag520
ag374
ag13
ag149
ag240
ag545
ag159
ag371
ag34
ag540
ag275
ag363
ag546
ag23
ag284
ag388
ag142
ag64
ag106
ag290
ag25
ag184
ag169
ag63
ag423
ag431
ag383
ag125
ag12
ag254
ag348
ag65
ag488
ag39
ag72
ag442
ag190
ag433
ag346
ag472
ag224
ag417
ag167
ag501
asS'separator'
p560
S'='
sS'sparse'
p561
I01
sb.