ccopy_reg
_reconstructor
p1
(csklearn.feature_extraction.dict_vectorizer
DictVectorizer
p2
c__builtin__
object
p3
NtRp4
(dp5
S'sort'
p6
I01
sS'feature_names_'
p7
(lp8
S'acomp=high'
p9
aS'acomp=low'
p10
aS'acomp=lower'
p11
aS'advcl=add'
p12
aS'advcl=do'
p13
aS'advcl=know'
p14
aS'advcl=lose'
p15
aS'advcl=say'
p16
aS'advcl=take'
p17
aS'advcl=throw'
p18
aS'advmod=also'
p19
aS'advmod=even'
p20
aS'advmod=just'
p21
aS'advmod=more'
p22
aS'advmod=only'
p23
aS'advmod=poorly'
p24
aS'advmod=repeatedly'
p25
aS'advmod=still'
p26
aS'advmod=twice'
p27
aS'advmod=well'
p28
aS'advmod=when'
p29
aS'advmod=where'
p30
aS'amod=#NUMBER#'
p31
aS'amod=dead'
p32
aS'amod=few'
p33
aS'amod=good'
p34
aS'amod=lowest'
p35
aS'amod=many'
p36
aS'amod=musical'
p37
aS'amod=old'
p38
aS'amod=perfect'
p39
aS'amod=political'
p40
aS'amod=settle'
p41
aS'amod=win'
p42
aS'appos=score'
p43
aS'aux=be'
p44
aS'aux=have'
p45
aS'aux=to'
p46
aS'aux=will'
p47
aS'auxpass=be'
p48
aS'cc=and'
p49
aS'cc=but'
p50
aS'ccomp=announce'
p51
aS'ccomp=make'
p52
aS'ccomp=see'
p53
aS'ccomp=win'
p54
aS'complm=that'
p55
aS'conj=bar'
p56
aS'conj=lose'
p57
aS'conj=make'
p58
aS'conj=mollify'
p59
aS'conj=name'
p60
aS'conj=say'
p61
aS'conj=scorer'
p62
aS'conj=speak'
p63
aS'cop=be'
p64
aS'dep=Thompson'
p65
aS'dep=defeat'
p66
aS'dep=if'
p67
aS'dep=order'
p68
aS'dep=oust'
p69
aS'dep=score'
p70
aS'det=a'
p71
aS'det=every'
p72
aS'det=some'
p73
aS'det=that'
p74
aS'det=the'
p75
aS'det=this'
p76
aS'dobj=#NUMBER#'
p77
aS'dobj=#PRP#'
p78
aS'dobj=advance'
p79
aS'dobj=applicant'
p80
aS'dobj=better'
p81
aS'dobj=decision'
p82
aS'dobj=gain'
p83
aS'dobj=goal'
p84
aS'dobj=gold'
p85
aS'dobj=higher'
p86
aS'dobj=highest'
p87
aS'dobj=hit'
p88
aS'dobj=knockout'
p89
aS'dobj=lower'
p90
aS'dobj=majority'
p91
aS'dobj=mark'
p92
aS'dobj=percent'
p93
aS'dobj=point'
p94
aS'dobj=run'
p95
aS'dobj=success'
p96
aS'dobj=upset'
p97
aS'dobj=victory'
p98
aS'dobj=win'
p99
aS'infmod=settle'
p100
aS'mark=after'
p101
aS'mark=in'
p102
aS'mark=though'
p103
aS'mark=while'
p104
aS'neg=not'
p105
aS'nn=U.S.'
p106
aS'nn=abureaucrat'
p107
aS'nn=movie'
p108
aS'nn=point'
p109
aS'nn=production'
p110
aS'nn=psa'
p111
aS'nn=shooting'
p112
aS'nn=test'
p113
aS'nsubj=#NUMBER#'
p114
aS'nsubj=#PRP#'
p115
aS'nsubj=Andrade'
p116
aS'nsubj=Argentina'
p117
aS'nsubj=Australia'
p118
aS'nsubj=Berlusconi'
p119
aS'nsubj=China'
p120
aS'nsubj=Clinton'
p121
aS'nsubj=Cristiane'
p122
aS'nsubj=Dulko'
p123
aS'nsubj=Egypt'
p124
aS'nsubj=Feeding'
p125
aS'nsubj=Francisco'
p126
aS'nsubj=Georgetown'
p127
aS'nsubj=Ghana'
p128
aS'nsubj=Giants'
p129
aS'nsubj=Gingrich'
p130
aS'nsubj=Mauritius'
p131
aS'nsubj=McCain'
p132
aS'nsubj=Obama'
p133
aS'nsubj=Party'
p134
aS'nsubj=Patriots'
p135
aS'nsubj=Prinz'
p136
aS'nsubj=Republicans'
p137
aS'nsubj=Rhodes'
p138
aS'nsubj=Roddick'
p139
aS'nsubj=Sarkozy'
p140
aS'nsubj=Schmidt'
p141
aS'nsubj=Shaughnessy'
p142
aS'nsubj=Sinclair'
p143
aS'nsubj=Thompson'
p144
aS'nsubj=Torres'
p145
aS'nsubj=Tsvangirai'
p146
aS'nsubj=Williams'
p147
aS'nsubj=Xavier'
p148
aS'nsubj=athlete'
p149
aS'nsubj=baby'
p150
aS'nsubj=center'
p151
aS'nsubj=country'
p152
aS'nsubj=faction'
p153
aS'nsubj=government'
p154
aS'nsubj=issue'
p155
aS'nsubj=minister'
p156
aS'nsubj=most'
p157
aS'nsubj=pacman'
p158
aS'nsubj=party'
p159
aS'nsubj=rival'
p160
aS'nsubj=stringduster'
p161
aS'nsubj=supporter'
p162
aS'nsubj=team'
p163
aS'nsubj=teammate'
p164
aS'nsubj=which'
p165
aS'nsubj=who'
p166
aS'nsubjpass=point'
p167
aS'num=#NUMBER#'
p168
aS'partmod=give'
p169
aS'partmod=tie'
p170
aS'poss=#PRP#'
p171
aS'prep=about'
p172
aS'prep=against'
p173
aS'prep=among'
p174
aS'prep=at'
p175
aS'prep=by'
p176
aS'prep=compare'
p177
aS'prep=during'
p178
aS'prep=follow'
p179
aS'prep=from'
p180
aS'prep=in'
p181
aS'prep=include'
p182
aS'prep=of'
p183
aS'prep=on'
p184
aS'prep=over'
p185
aS'prep=than'
p186
aS'prep=to'
p187
aS'prep=with'
p188
aS'rcmod=initiate'
p189
aS'rcmod=refuse'
p190
aS'tmod=#DATE#'
p191
aS'tmod=month'
p192
aS'tmod=point'
p193
aS'tmod=time'
p194
aS'tmod=year'
p195
aS'w+1=,'
p196
aS'w+1=-'
p197
aS'w+1=-rrb-'
p198
aS'w+1=.'
p199
aS'w+1=11'
p200
aS'w+1=136'
p201
aS'w+1=15'
p202
aS'w+1=19'
p203
aS'w+1=22-17'
p204
aS'w+1=50'
p205
aS'w+1=81'
p206
aS'w+1=CardThe'
p207
aS'w+1=Number'
p208
aS'w+1=a'
p209
aS'w+1=about'
p210
aS'w+1=against'
p211
aS'w+1=almost'
p212
aS'w+1=and'
p213
aS'w+1=at'
p214
aS'w+1=be'
p215
aS'w+1=better'
p216
aS'w+1=big'
p217
aS'w+1=by'
p218
aS'w+1=composer'
p219
aS'w+1=election'
p220
aS'w+1=four'
p221
aS'w+1=from'
p222
aS'w+1=give'
p223
aS'w+1=have'
p224
aS'w+1=he'
p225
aS'w+1=high'
p226
aS'w+1=higher'
p227
aS'w+1=highest'
p228
aS'w+1=important'
p229
aS'w+1=in'
p230
aS'w+1=injure'
p231
aS'w+1=just'
p232
aS'w+1=key'
p233
aS'w+1=knockout'
p234
aS'w+1=low'
p235
aS'w+1=lower'
p236
aS'w+1=many'
p237
aS'w+1=more'
p238
aS'w+1=of'
p239
aS'w+1=on'
p240
aS'w+1=ourselves'
p241
aS'w+1=over'
p242
aS'w+1=personalize'
p243
aS'w+1=point'
p244
aS'w+1=political'
p245
aS'w+1=poorly'
p246
aS'w+1=rather'
p247
aS'w+1=record'
p248
aS'w+1=run'
p249
aS'w+1=similar'
p250
aS'w+1=six'
p251
aS'w+1=slowly'
p252
aS'w+1=some'
p253
aS'w+1=spree'
p254
aS'w+1=system'
p255
aS'w+1=the'
p256
aS'w+1=three'
p257
aS'w+1=tie'
p258
aS'w+1=to'
p259
aS'w+1=too'
p260
aS'w+1=twice'
p261
aS'w+1=victory'
p262
aS'w+1=visa'
p263
aS'w+1=we'
p264
aS'w+1=well'
p265
aS'w+1=when'
p266
aS'w+1=win'
p267
aS'w+1=with'
p268
aS"w+2=''"
p269
aS'w+2=,'
p270
aS'w+2=.'
p271
aS'w+2=1-0'
p272
aS'w+2=100'
p273
aS'w+2=11-under-par'
p274
aS'w+2=14-point'
p275
aS'w+2=15'
p276
aS'w+2=2-1'
p277
aS'w+2=22-15'
p278
aS'w+2=26-13'
p279
aS'w+2=30'
p280
aS'w+2=55-percent'
p281
aS'w+2=6-3'
p282
aS'w+2=80'
p283
aS'w+2=85-78'
p284
aS'w+2=Abby'
p285
aS'w+2=Argentina'
p286
aS'w+2=Fatah'
p287
aS'w+2=Monday'
p288
aS'w+2=Pakistanis'
p289
aS'w+2=World'
p290
aS'w+2=a'
p291
aS'w+2=activist'
p292
aS'w+2=african'
p293
aS'w+2=after'
p294
aS'w+2=against'
p295
aS'w+2=aid'
p296
aS'w+2=among'
p297
aS'w+2=and'
p298
aS'w+2=applicant'
p299
aS'w+2=at'
p300
aS'w+2=basis'
p301
aS'w+2=be'
p302
aS'w+2=behind'
p303
aS'w+2=better'
p304
aS'w+2=big'
p305
aS'w+2=by'
p306
aS'w+2=camp'
p307
aS'w+2=campaigner'
p308
aS'w+2=career-high'
p309
aS'w+2=carry'
p310
aS'w+2=carter'
p311
aS'w+2=case'
p312
aS'w+2=catch'
p313
aS'w+2=checkpoint'
p314
aS'w+2=child'
p315
aS'w+2=civil'
p316
aS'w+2=civilian'
p317
aS'w+2=closely'
p318
aS'w+2=colleague'
p319
aS'w+2=commanding'
p320
aS'w+2=convincing'
p321
aS'w+2=country'
p322
aS'w+2=death'
p323
aS'w+2=demonstrator'
p324
aS'w+2=double'
p325
aS'w+2=egyptian'
p326
aS'w+2=family'
p327
aS'w+2=farmer'
p328
aS'w+2=federal'
p329
aS'w+2=for'
p330
aS'w+2=gain'
p331
aS'w+2=goal'
p332
aS'w+2=helicopter'
p333
aS'w+2=huge'
p334
aS'w+2=impressive'
p335
aS'w+2=in'
p336
aS'w+2=indian'
p337
aS'w+2=injure'
p338
aS'w+2=injured'
p339
aS'w+2=iraq-style'
p340
aS'w+2=jazz'
p341
aS'w+2=jewish'
p342
aS'w+2=journalist'
p343
aS'w+2=just'
p344
aS'w+2=kill'
p345
aS'w+2=landslide'
p346
aS'w+2=lebanese'
p347
aS'w+2=less'
p348
aS'w+2=machine'
p349
aS'w+2=major'
p350
aS'w+2=many'
p351
aS'w+2=mark'
p352
aS'w+2=military'
p353
aS'w+2=miss'
p354
aS'w+2=more'
p355
aS'w+2=narrow'
p356
aS'w+2=official'
p357
aS'w+2=on'
p358
aS'w+2=one'
p359
aS'w+2=onlooker'
p360
aS'w+2=only'
p361
aS'w+2=opposition'
p362
aS'w+2=or'
p363
aS'w+2=other'
p364
aS'w+2=out'
p365
aS'w+2=over'
p366
aS'w+2=overall'
p367
aS'w+2=palestinian'
p368
aS'w+2=patient'
p369
aS'w+2=people'
p370
aS'w+2=percent'
p371
aS'w+2=point'
p372
aS'w+2=political'
p373
aS'w+2=privately'
p374
aS'w+2=pro-democracy'
p375
aS'w+2=protest'
p376
aS'w+2=protester'
p377
aS'w+2=quarterback'
p378
aS'w+2=read'
p379
aS'w+2=rebel'
p380
aS'w+2=religious'
p381
aS'w+2=rescue'
p382
aS'w+2=result'
p383
aS'w+2=run'
p384
aS'w+2=school'
p385
aS'w+2=score'
p386
aS'w+2=senior'
p387
aS'w+2=settle'
p388
aS'w+2=seven'
p389
aS'w+2=small'
p390
aS'w+2=southern'
p391
aS'w+2=straight-set'
p392
aS'w+2=strong'
p393
aS'w+2=substantial'
p394
aS'w+2=success'
p395
aS'w+2=supporter'
p396
aS'w+2=surprise'
p397
aS'w+2=suspect'
p398
aS'w+2=term'
p399
aS'w+2=than'
p400
aS'w+2=the'
p401
aS'w+2=they'
p402
aS'w+2=this'
p403
aS'w+2=thousand'
p404
aS'w+2=three-set'
p405
aS'w+2=time'
p406
aS'w+2=to'
p407
aS'w+2=tourist'
p408
aS'w+2=turkish'
p409
aS'w+2=upset'
p410
aS'w+2=vehicle'
p411
aS'w+2=victory'
p412
aS'w+2=we'
p413
aS'w+2=when'
p414
aS'w+2=will'
p415
aS'w+2=win'
p416
aS'w+2=with'
p417
aS'w+2=woman'
p418
aS'w+2=worried'
p419
aS'w+2=wound'
p420
aS'w+2=year'
p421
aS'w-1=,'
p422
aS'w-1=--'
p423
aS'w-1=.'
p424
aS'w-1=37'
p425
aS'w-1=54-hole'
p426
aS'w-1=:'
p427
aS'w-1=Andrade'
p428
aS'w-1=Argentina'
p429
aS'w-1=Australia'
p430
aS'w-1=Berlusconi'
p431
aS'w-1=Business'
p432
aS'w-1=Clinton'
p433
aS'w-1=Coffee'
p434
aS'w-1=Cristiane'
p435
aS'w-1=Egypt'
p436
aS'w-1=Francisco'
p437
aS'w-1=Georgetown'
p438
aS'w-1=Ghana'
p439
aS'w-1=Giants'
p440
aS'w-1=Mauritius'
p441
aS'w-1=McCain'
p442
aS'w-1=Obama'
p443
aS'w-1=Patriots'
p444
aS'w-1=Prinz'
p445
aS'w-1=Republicans'
p446
aS'w-1=Rhodes'
p447
aS'w-1=Roddick'
p448
aS'w-1=Schmidt'
p449
aS'w-1=Sinclair'
p450
aS'w-1=States'
p451
aS'w-1=Torres'
p452
aS'w-1=U.S.'
p453
aS'w-1=Xavier'
p454
aS'w-1=Yen-Hsun'
p455
aS'w-1=a'
p456
aS'w-1=about'
p457
aS'w-1=abureaucrat'
p458
aS'w-1=after'
p459
aS'w-1=all'
p460
aS'w-1=also'
p461
aS'w-1=and'
p462
aS'w-1=arrest'
p463
aS'w-1=baby'
p464
aS'w-1=be'
p465
aS'w-1=by'
p466
aS'w-1=candidate'
p467
aS'w-1=carry'
p468
aS'w-1=center'
p469
aS'w-1=claim'
p470
aS'w-1=dead'
p471
aS'w-1=evict'
p472
aS'w-1=faction'
p473
aS'w-1=ferry'
p474
aS'w-1=few'
p475
aS'w-1=five'
p476
aS'w-1=for'
p477
aS'w-1=from'
p478
aS'w-1=good'
p479
aS'w-1=government'
p480
aS'w-1=have'
p481
aS'w-1=he'
p482
aS'w-1=in'
p483
aS'w-1=injure'
p484
aS'w-1=kill'
p485
aS'w-1=leave'
p486
aS'w-1=like'
p487
aS'w-1=lose'
p488
aS'w-1=lowest'
p489
aS'w-1=many'
p490
aS'w-1=mathematics'
p491
aS'w-1=movie'
p492
aS'w-1=murder'
p493
aS'w-1=musical'
p494
aS'w-1=not'
p495
aS'w-1=obtain'
p496
aS'w-1=of'
p497
aS'w-1=or'
p498
aS'w-1=party'
p499
aS'w-1=perfect'
p500
aS'w-1=player'
p501
aS'w-1=point'
p502
aS'w-1=political'
p503
aS'w-1=poll'
p504
aS'w-1=production'
p505
aS'w-1=psa'
p506
aS'w-1=rally'
p507
aS'w-1=relocate'
p508
aS'w-1=repeatedly'
p509
aS'w-1=say'
p510
aS'w-1=see'
p511
aS'w-1=settle'
p512
aS'w-1=she'
p513
aS'w-1=single-game'
p514
aS'w-1=some'
p515
aS'w-1=stage'
p516
aS'w-1=still'
p517
aS'w-1=supporter'
p518
aS'w-1=team'
p519
aS'w-1=test'
p520
aS'w-1=that'
p521
aS'w-1=the'
p522
aS'w-1=they'
p523
aS'w-1=this'
p524
aS'w-1=to'
p525
aS'w-1=torch'
p526
aS'w-1=up'
p527
aS'w-1=we'
p528
aS'w-1=when'
p529
aS'w-1=where'
p530
aS'w-1=which'
p531
aS'w-1=while'
p532
aS'w-1=who'
p533
aS'w-1=will'
p534
aS'w-1=win'
p535
aS'w-1=wound'
p536
aS'w-1=year'
p537
aS"w-2=''"
p538
aS'w-2=,'
p539
aS'w-2=-lrb-'
p540
aS'w-2=.'
p541
aS'w-2=15'
p542
aS'w-2=ANC'
p543
aS'w-2=Bank'
p544
aS'w-2=Barack'
p545
aS'w-2=Bhopal'
p546
aS'w-2=Birgit'
p547
aS'w-2=Cancun'
p548
aS'w-2=Christine'
p549
aS'w-2=Cup'
p550
aS'w-2=Deby'
p551
aS'w-2=Demetrius'
p552
aS'w-2=Democracy'
p553
aS'w-2=Democrats'
p554
aS'w-2=Dominic'
p555
aS'w-2=Fernando'
p556
aS'w-2=Finland'
p557
aS'w-2=Hunter'
p558
aS'w-2=Iraq'
p559
aS'w-2=John'
p560
aS'w-2=Lu'
p561
aS'w-2=Margolis'
p562
aS'w-2=Mr.'
p563
aS'w-2=Obama'
p564
aS'w-2=Party'
p565
aS'w-2=San'
p566
aS'w-2=Senator'
p567
aS'w-2=Sophie'
p568
aS'w-2=South'
p569
aS'w-2=Tennessee'
p570
aS'w-2=Thompson'
p571
aS'w-2=Thursday'
p572
aS'w-2=Tsvangirai'
p573
aS'w-2=Turkey'
p574
aS'w-2=United'
p575
aS'w-2=University'
p576
aS'w-2=Wiley'
p577
aS'w-2=Williams'
p578
aS'w-2=Zimbabwe'
p579
aS'w-2=a'
p580
aS'w-2=able'
p581
aS'w-2=accident'
p582
aS'w-2=affect'
p583
aS'w-2=after'
p584
aS'w-2=airport'
p585
aS'w-2=aisle'
p586
aS'w-2=al-Bared'
p587
aS'w-2=allow'
p588
aS'w-2=ambulance'
p589
aS'w-2=among'
p590
aS'w-2=and'
p591
aS'w-2=anti-syrian'
p592
aS'w-2=appointment'
p593
aS'w-2=athlete'
p594
aS'w-2=basis'
p595
aS'w-2=be'
p596
aS'w-2=beg'
p597
aS'w-2=bill'
p598
aS'w-2=both'
p599
aS'w-2=care'
p600
aS'w-2=case'
p601
aS'w-2=chance'
p602
aS'w-2=coffee'
p603
aS'w-2=combine'
p604
aS'w-2=country'
p605
aS'w-2=dead'
p606
aS'w-2=detention'
p607
aS'w-2=die'
p608
aS'w-2=do'
p609
aS'w-2=each'
p610
aS'w-2=evening'
p611
aS'w-2=every'
p612
aS'w-2=expect'
p613
aS'w-2=explosion'
p614
aS'w-2=eyewitness'
p615
aS'w-2=fail'
p616
aS'w-2=fire'
p617
aS'w-2=five'
p618
aS'w-2=fling'
p619
aS'w-2=follow'
p620
aS'w-2=four'
p621
aS'w-2=french-tinged'
p622
aS'w-2=government'
p623
aS'w-2=graduate'
p624
aS'w-2=growth'
p625
aS'w-2=have'
p626
aS'w-2=he'
p627
aS'w-2=here'
p628
aS'w-2=hospital'
p629
aS'w-2=include'
p630
aS'w-2=interested'
p631
aS'w-2=issue'
p632
aS'w-2=it'
p633
aS'w-2=kill'
p634
aS'w-2=law'
p635
aS'w-2=learn'
p636
aS'w-2=let'
p637
aS'w-2=licens'
p638
aS'w-2=likely'
p639
aS'w-2=make'
p640
aS'w-2=market'
p641
aS'w-2=minister'
p642
aS'w-2=minute'
p643
aS'w-2=neighbor'
p644
aS'w-2=new'
p645
aS'w-2=of'
p646
aS'w-2=official'
p647
aS'w-2=old'
p648
aS'w-2=on'
p649
aS'w-2=one'
p650
aS'w-2=opponent'
p651
aS'w-2=order'
p652
aS'w-2=original'
p653
aS'w-2=pacman'
p654
aS'w-2=party'
p655
aS'w-2=people'
p656
aS'w-2=pilgrimage'
p657
aS'w-2=point'
p658
aS'w-2=power'
p659
aS'w-2=pressure'
p660
aS'w-2=proposal'
p661
aS'w-2=public'
p662
aS'w-2=receive'
p663
aS'w-2=record'
p664
aS'w-2=responsibility'
p665
aS'w-2=responsible'
p666
aS'w-2=result'
p667
aS'w-2=sake'
p668
aS'w-2=say'
p669
aS'w-2=score'
p670
aS'w-2=settle'
p671
aS'w-2=she'
p672
aS'w-2=shooting'
p673
aS'w-2=shot'
p674
aS'w-2=so'
p675
aS'w-2=song'
p676
aS'w-2=stage'
p677
aS'w-2=statement'
p678
aS'w-2=surgery'
p679
aS'w-2=sympathizer'
p680
aS'w-2=terror'
p681
aS'w-2=that'
p682
aS'w-2=the'
p683
aS'w-2=there'
p684
aS'w-2=they'
p685
aS'w-2=through'
p686
aS'w-2=to'
p687
aS'w-2=trial'
p688
aS'w-2=try'
p689
aS'w-2=turkish'
p690
aS'w-2=two'
p691
aS'w-2=ump'
p692
aS'w-2=up'
p693
aS'w-2=use'
p694
aS'w-2=visa'
p695
aS'w-2=way'
p696
aS'w-2=we'
p697
aS'w-2=when'
p698
aS'w-2=which'
p699
aS'w-2=with'
p700
aS'w-2=worry'
p701
aS'w-2=wound'
p702
aS'w-2=year'
p703
aS'xcomp=beat'
p704
aS'xcomp=better'
p705
aS'xcomp=break'
p706
aS'xcomp=claim'
p707
aS'xcomp=place'
p708
aS'xcomp=push'
p709
aS'xcomp=tighten'
p710
asS'dtype'
p711
cnumpy
float64
p712
sS'vocabulary_'
p713
(dp714
g39
I30
sg411
I402
sg22
I13
sg427
I418
sg677
I668
sg513
I504
sg290
I281
sg598
I589
sg697
I688
sg656
I647
sg297
I288
sg9
I0
sg516
I507
sg376
I367
sg489
I480
sg228
I219
sg28
I19
sg317
I308
sg615
I606
sg163
I154
sg229
I220
sg208
I199
sg645
I636
sg18
I9
sg488
I479
sg467
I458
sg307
I298
sg446
I437
sg95
I86
sg333
I324
sg557
I548
sg276
I267
sg685
I676
sg186
I177
sg487
I478
sg176
I167
sg445
I436
sg236
I227
sg605
I596
sg455
I446
sg352
I343
sg388
I379
sg154
I145
sg167
I158
sg554
I545
sg334
I325
sg510
I501
sg81
I72
sg315
I306
sg695
I686
sg519
I510
sg303
I294
sg84
I75
sg179
I170
sg223
I214
sg70
I61
sg10
I1
sg260
I251
sg21
I12
sg195
I186
sg151
I142
sg534
I525
sg600
I591
sg457
I448
sg443
I434
sg120
I111
sg117
I108
sg545
I536
sg590
I581
sg653
I644
sg550
I541
sg683
I674
sg274
I265
sg567
I558
sg659
I650
sg24
I15
sg88
I79
sg93
I84
sg142
I133
sg476
I467
sg17
I8
sg322
I313
sg73
I64
sg407
I398
sg240
I231
sg553
I544
sg641
I632
sg515
I506
sg481
I472
sg193
I184
sg109
I100
sg79
I70
sg336
I327
sg112
I103
sg139
I130
sg479
I470
sg661
I652
sg610
I601
sg577
I568
sg607
I598
sg461
I452
sg531
I522
sg55
I46
sg397
I388
sg654
I645
sg192
I183
sg72
I63
sg587
I578
sg252
I243
sg235
I226
sg493
I484
sg478
I469
sg657
I648
sg404
I395
sg682
I673
sg256
I247
sg23
I14
sg302
I293
sg25
I16
sg556
I547
sg552
I543
sg181
I172
sg230
I221
sg511
I502
sg373
I364
sg372
I363
sg51
I42
sg436
I427
sg668
I659
sg565
I556
sg664
I655
sg83
I74
sg558
I549
sg65
I56
sg187
I178
sg98
I89
sg574
I565
sg625
I616
sg492
I483
sg234
I225
sg38
I29
sg58
I49
sg517
I508
sg213
I204
sg91
I82
sg356
I347
sg116
I107
sg85
I76
sg308
I299
sg288
I279
sg211
I202
sg275
I266
sg330
I321
sg433
I424
sg652
I643
sg263
I254
sg529
I520
sg92
I83
sg623
I614
sg148
I139
sg162
I153
sg454
I445
sg212
I203
sg354
I345
sg76
I67
sg423
I414
sg573
I564
sg483
I474
sg413
I404
sg448
I439
sg380
I371
sg496
I487
sg438
I429
sg241
I232
sg594
I585
sg522
I513
sg135
I126
sg612
I603
sg357
I348
sg102
I93
sg293
I284
sg671
I662
sg164
I155
sg30
I21
sg15
I6
sg144
I135
sg414
I405
sg542
I533
sg31
I22
sg490
I481
sg326
I317
sg279
I270
sg224
I215
sg75
I66
sg280
I271
sg710
I701
sg694
I685
sg686
I677
sg182
I173
sg345
I336
sg509
I500
sg381
I372
sg125
I116
sg674
I665
sg452
I443
sg335
I326
sg646
I637
sg82
I73
sg161
I152
sg547
I538
sg566
I557
sg649
I640
sg525
I516
sg638
I629
sg69
I60
sg518
I509
sg262
I253
sg355
I346
sg560
I551
sg159
I150
sg398
I389
sg78
I69
sg609
I600
sg471
I462
sg658
I649
sg391
I382
sg289
I280
sg134
I125
sg426
I417
sg43
I34
sg107
I98
sg219
I210
sg185
I176
sg485
I476
sg214
I205
sg295
I286
sg40
I31
sg691
I682
sg11
I2
sg57
I48
sg432
I423
sg663
I654
sg562
I553
sg530
I521
sg647
I638
sg312
I303
sg581
I572
sg597
I588
sg602
I593
sg343
I334
sg470
I461
sg342
I333
sg377
I368
sg126
I117
sg29
I20
sg535
I526
sg137
I128
sg486
I477
sg52
I43
sg672
I663
sg123
I114
sg282
I273
sg371
I362
sg648
I639
sg339
I330
sg571
I562
sg704
I695
sg110
I101
sg514
I505
sg402
I393
sg369
I360
sg300
I291
sg258
I249
sg169
I160
sg563
I554
sg420
I411
sg568
I559
sg48
I39
sg395
I386
sg499
I490
sg294
I285
sg520
I511
sg494
I485
sg392
I383
sg575
I566
sg619
I610
sg89
I80
sg26
I17
sg150
I141
sg585
I576
sg143
I134
sg502
I493
sg118
I109
sg506
I497
sg108
I99
sg62
I53
sg114
I105
sg603
I594
sg660
I651
sg592
I583
sg360
I351
sg138
I129
sg507
I498
sg417
I408
sg389
I380
sg207
I198
sg606
I597
sg692
I683
sg703
I694
sg272
I263
sg543
I534
sg277
I268
sg111
I102
sg136
I127
sg301
I292
sg255
I246
sg421
I412
sg299
I290
sg96
I87
sg296
I287
sg349
I340
sg588
I579
sg363
I354
sg538
I529
sg396
I387
sg221
I212
sg584
I575
sg464
I455
sg358
I349
sg259
I250
sg680
I671
sg74
I65
sg314
I305
sg286
I277
sg462
I453
sg261
I252
sg204
I195
sg643
I634
sg128
I119
sg512
I503
sg416
I407
sg344
I335
sg684
I675
sg532
I523
sg634
I625
sg586
I577
sg245
I236
sg158
I149
sg106
I97
sg536
I527
sg527
I518
sg189
I180
sg564
I555
sg491
I482
sg579
I570
sg309
I300
sg94
I85
sg466
I457
sg599
I590
sg304
I295
sg666
I657
sg616
I607
sg246
I237
sg604
I595
sg465
I456
sg410
I401
sg242
I233
sg66
I57
sg368
I359
sg593
I584
sg678
I669
sg706
I697
sg103
I94
sg12
I3
sg403
I394
sg329
I320
sg582
I573
sg63
I54
sg320
I311
sg699
I690
sg559
I550
sg618
I609
sg20
I11
sg34
I25
sg613
I604
sg104
I95
sg292
I283
sg384
I375
sg366
I357
sg442
I433
sg631
I622
sg662
I653
sg700
I691
sg595
I586
sg47
I38
sg382
I373
sg310
I301
sg351
I342
sg90
I81
sg131
I122
sg188
I179
sg353
I344
sg430
I421
sg265
I256
sg217
I208
sg68
I59
sg370
I361
sg267
I258
sg122
I113
sg501
I492
sg651
I642
sg129
I120
sg636
I627
sg633
I624
sg190
I181
sg451
I442
sg549
I540
sg409
I400
sg313
I304
sg133
I124
sg447
I438
sg708
I699
sg629
I620
sg341
I332
sg316
I307
sg54
I45
sg459
I450
sg168
I159
sg472
I463
sg232
I223
sg33
I24
sg269
I260
sg152
I143
sg325
I316
sg693
I684
sg524
I515
sg508
I499
sg19
I10
sg444
I435
sg475
I466
sg319
I310
sg468
I459
sg278
I269
sg626
I617
sg49
I40
sg504
I495
sg121
I112
sg578
I569
sg239
I230
sg155
I146
sg238
I229
sg218
I209
sg56
I47
sg146
I137
sg46
I37
sg149
I140
sg140
I131
sg688
I679
sg523
I514
sg698
I689
sg284
I275
sg205
I196
sg429
I420
sg141
I132
sg637
I628
sg696
I687
sg709
I700
sg393
I384
sg617
I608
sg115
I106
sg210
I201
sg350
I341
sg458
I449
sg327
I318
sg216
I207
sg130
I121
sg50
I41
sg394
I385
sg505
I496
sg171
I162
sg551
I542
sg77
I68
sg665
I656
sg655
I646
sg450
I441
sg254
I245
sg198
I189
sg166
I157
sg385
I376
sg67
I58
sg86
I77
sg614
I605
sg707
I698
sg99
I90
sg170
I161
sg13
I4
sg406
I397
sg37
I28
sg537
I528
sg555
I546
sg80
I71
sg596
I587
sg183
I174
sg644
I635
sg61
I52
sg257
I248
sg184
I175
sg101
I92
sg281
I272
sg332
I323
sg576
I567
sg435
I426
sg165
I156
sg41
I32
sg206
I197
sg526
I517
sg469
I460
sg477
I468
sg449
I440
sg425
I416
sg374
I365
sg386
I377
sg251
I242
sg177
I168
sg400
I391
sg484
I475
sg348
I339
sg679
I670
sg622
I613
sg157
I148
sg271
I262
sg533
I524
sg346
I337
sg191
I182
sg498
I489
sg500
I491
sg583
I574
sg540
I531
sg16
I7
sg497
I488
sg635
I626
sg701
I692
sg365
I356
sg687
I678
sg298
I289
sg203
I194
sg591
I582
sg87
I78
sg200
I191
sg503
I494
sg202
I193
sg105
I96
sg434
I425
sg689
I680
sg361
I352
sg201
I192
sg650
I641
sg153
I144
sg379
I370
sg64
I55
sg194
I185
sg156
I147
sg627
I618
sg347
I338
sg283
I274
sg546
I537
sg244
I235
sg642
I633
sg268
I259
sg408
I399
sg667
I658
sg669
I660
sg401
I392
sg175
I166
sg539
I530
sg541
I532
sg608
I599
sg45
I36
sg174
I165
sg424
I415
sg412
I403
sg422
I413
sg569
I560
sg705
I696
sg35
I26
sg676
I667
sg243
I234
sg473
I464
sg172
I163
sg620
I611
sg359
I350
sg231
I222
sg589
I580
sg601
I592
sg544
I535
sg324
I315
sg580
I571
sg439
I430
sg285
I276
sg331
I322
sg132
I123
sg71
I62
sg456
I447
sg226
I217
sg463
I454
sg675
I666
sg323
I314
sg640
I631
sg100
I91
sg482
I473
sg247
I238
sg237
I228
sg630
I621
sg250
I241
sg60
I51
sg222
I213
sg440
I431
sg14
I5
sg328
I319
sg59
I50
sg681
I672
sg311
I302
sg632
I623
sg97
I88
sg387
I378
sg570
I561
sg36
I27
sg367
I358
sg437
I428
sg42
I33
sg264
I255
sg173
I164
sg621
I612
sg415
I406
sg113
I104
sg119
I110
sg639
I630
sg338
I329
sg690
I681
sg375
I366
sg249
I240
sg480
I471
sg611
I602
sg460
I451
sg474
I465
sg378
I369
sg180
I171
sg399
I390
sg364
I355
sg673
I664
sg390
I381
sg266
I257
sg528
I519
sg160
I151
sg127
I118
sg548
I539
sg273
I264
sg321
I312
sg405
I396
sg362
I353
sg145
I136
sg27
I18
sg318
I309
sg124
I115
sg197
I188
sg196
I187
sg199
I190
sg306
I297
sg253
I244
sg220
I211
sg270
I261
sg32
I23
sg702
I693
sg441
I432
sg453
I444
sg178
I169
sg431
I422
sg233
I224
sg419
I410
sg572
I563
sg227
I218
sg248
I239
sg670
I661
sg428
I419
sg287
I278
sg147
I138
sg209
I200
sg495
I486
sg215
I206
sg383
I374
sg337
I328
sg225
I216
sg418
I409
sg53
I44
sg628
I619
sg521
I512
sg44
I35
sg624
I615
sg340
I331
sg305
I296
sg291
I282
sg561
I552
ssS'separator'
p715
S'='
sS'sparse'
p716
I01
sb.