ccopy_reg
_reconstructor
p1
(csklearn.feature_extraction.dict_vectorizer
DictVectorizer
p2
c__builtin__
object
p3
NtRp4
(dp5
S'sort'
p6
I01
sS'feature_names_'
p7
(lp8
S'advmod=when'
p9
aS'dobj=throne'
p10
aS'nsubj=#PRP#'
p11
aS'nsubj=Mohammed'
p12
aS'prep=to'
p13
aS'w+1=the'
p14
aS'w+1=to'
p15
aS'w+2=heaven'
p16
aS'w+2=throne'
p17
aS'w-1=Mohammed'
p18
aS'w-1=he'
p19
aS'w-2=prophet'
p20
aS'w-2=when'
p21
asS'dtype'
p22
cnumpy
float64
p23
sS'vocabulary_'
p24
(dp25
g9
I0
sg18
I9
sg12
I3
sg14
I5
sg20
I11
sg19
I10
sg15
I6
sg17
I8
sg11
I2
sg10
I1
sg16
I7
sg13
I4
sg21
I12
ssS'separator'
p26
S'='
sS'sparse'
p27
I01
sb.