ccopy_reg
_reconstructor
p1
(csklearn.feature_extraction.dict_vectorizer
DictVectorizer
p2
c__builtin__
object
p3
NtRp4
(dp5
S'sort'
p6
I01
sS'feature_names_'
p7
(lp8
S'advcl=arrive'
p9
aS'advcl=attend'
p10
aS'advcl=begin'
p11
aS'advcl=get'
p12
aS'advcl=live'
p13
aS'advcl=reach'
p14
aS'advcl=report'
p15
aS'advcl=take'
p16
aS'advcl=touch'
p17
aS'advcl=wrap'
p18
aS'advmod=again'
p19
aS'advmod=initially'
p20
aS'advmod=joyously'
p21
aS'advmod=largely'
p22
aS'advmod=mainly'
p23
aS'advmod=now'
p24
aS'advmod=personally'
p25
aS'advmod=still'
p26
aS'advmod=then'
p27
aS'advmod=too'
p28
aS'advmod=warmly'
p29
aS'advmod=when'
p30
aS'aux=be'
p31
aS'aux=have'
p32
aS'aux=may'
p33
aS'aux=to'
p34
aS'aux=will'
p35
aS'aux=would'
p36
aS'auxpass=be'
p37
aS'cc=and'
p38
aS'cc=but'
p39
aS'ccomp=come'
p40
aS'ccomp=illustrate'
p41
aS'ccomp=line'
p42
aS'ccomp=symbolize'
p43
aS'conj=be'
p44
aS'conj=honor'
p45
aS'conj=shield'
p46
aS'dobj=#PRP#'
p47
aS'dobj=Ban'
p48
aS'dobj=Benedict'
p49
aS'dobj=Bolinger'
p50
aS'dobj=Bush'
p51
aS'dobj=Dae-jung'
p52
aS'dobj=Dung'
p53
aS'dobj=Ghadafi'
p54
aS'dobj=Pope'
p55
aS'dobj=Ramos-Horta'
p56
aS'dobj=Roh'
p57
aS'dobj=Rudd'
p58
aS'dobj=achievement'
p59
aS'dobj=anyone'
p60
aS'dobj=arrival'
p61
aS'dobj=class'
p62
aS'dobj=faithful'
p63
aS'dobj=friend'
p64
aS'dobj=guest'
p65
aS'dobj=head'
p66
aS'dobj=hour'
p67
aS'dobj=launch'
p68
aS'dobj=man'
p69
aS'dobj=moo-hyun'
p70
aS'dobj=news'
p71
aS'dobj=other'
p72
aS'dobj=participant'
p73
aS'dobj=passenger'
p74
aS'dobj=pilgrim'
p75
aS'dobj=presidency'
p76
aS'dobj=president'
p77
aS'dobj=shopper'
p78
aS'dobj=star'
p79
aS'dobj=student'
p80
aS'dobj=supporter'
p81
aS'dobj=torch'
p82
aS'dobj=victory'
p83
aS'dobj=visitor'
p84
aS'dobj=woman'
p85
aS'dobj=worker'
p86
aS'mark=as'
p87
aS'mark=like'
p88
aS'nsubj=#NUMBER#'
p89
aS'nsubj=#PRP#'
p90
aS'nsubj=Bush'
p91
aS'nsubj=Clinton'
p92
aS'nsubj=Compaore'
p93
aS'nsubj=Donovan'
p94
aS'nsubj=Edwards'
p95
aS'nsubj=Il'
p96
aS'nsubj=Indians'
p97
aS'nsubj=Lee'
p98
aS'nsubj=Merkel'
p99
aS'nsubj=Pope'
p100
aS'nsubj=Tolson'
p101
aS'nsubj=XVI'
p102
aS'nsubj=Yanali'
p103
aS'nsubj=counselor'
p104
aS'nsubj=demonstrator'
p105
aS'nsubj=hug'
p106
aS'nsubj=hype'
p107
aS'nsubj=investor'
p108
aS'nsubj=leader'
p109
aS'nsubj=member'
p110
aS'nsubj=mother'
p111
aS'nsubj=musician'
p112
aS'nsubj=neighbor'
p113
aS'nsubj=nun'
p114
aS'nsubj=official'
p115
aS'nsubj=pope'
p116
aS'nsubj=protest'
p117
aS'nsubj=protester'
p118
aS'nsubj=resident'
p119
aS'nsubj=student'
p120
aS'nsubj=that'
p121
aS'nsubj=which'
p122
aS'nsubjpass=#PRP#'
p123
aS'nsubjpass=Ban'
p124
aS'nsubjpass=Sarkozy'
p125
aS'nsubjpass=departure'
p126
aS'nsubjpass=idea'
p127
aS'nsubjpass=minister'
p128
aS'nsubjpass=news'
p129
aS'nsubjpass=pursuit'
p130
aS'nsubjpass=runner'
p131
aS'nsubjpass=theme'
p132
aS'nsubjpass=torch'
p133
aS'nsubjpass=voter'
p134
aS'partmod=celebrate'
p135
aS'partmod=fear'
p136
aS'partmod=speak'
p137
aS'poss=#PRP#'
p138
aS'prep=about'
p139
aS'prep=as'
p140
aS'prep=at'
p141
aS'prep=before'
p142
aS'prep=by'
p143
aS'prep=for'
p144
aS'prep=in'
p145
aS'prep=include'
p146
aS'prep=on'
p147
aS'prep=through'
p148
aS'prep=to'
p149
aS'prep=upon'
p150
aS'prep=with'
p151
aS'tmod=#DATE#'
p152
aS'tmod=night'
p153
aS'w+1=,'
p154
aS'w+1=Barack'
p155
aS'w+1=Kevin'
p156
aS'w+1=MR.'
p157
aS'w+1=Mr.'
p158
aS'w+1=Pope'
p159
aS'w+1=President'
p160
aS'w+1=Steve'
p161
aS'w+1=a'
p162
aS'w+1=about'
p163
aS'w+1=all'
p164
aS'w+1=anyone'
p165
aS'w+1=by'
p166
aS'w+1=card'
p167
aS'w+1=each'
p168
aS'w+1=for'
p169
aS'w+1=from'
p170
aS'w+1=he'
p171
aS'w+1=largely'
p172
aS'w+1=new'
p173
aS'w+1=on'
p174
aS'w+1=other'
p175
aS'w+1=participant'
p176
aS'w+1=passenger'
p177
aS'w+1=pilgrim'
p178
aS'w+1=say'
p179
aS'w+1=she'
p180
aS'w+1=shopper'
p181
aS'w+1=south'
p182
aS'w+1=supporter'
p183
aS'w+1=the'
p184
aS'w+1=then-president'
p185
aS'w+1=they'
p186
aS'w+1=thousand'
p187
aS'w+1=to'
p188
aS'w+1=vietnamese'
p189
aS'w+1=warmly'
p190
aS'w+1=with'
p191
aS'w+1=woman'
p192
aS'w+1=worker'
p193
aS'w+1=you'
p194
aS"w+2=''"
p195
aS'w+2=,'
p196
aS'w+2=.'
p197
aS'w+2=Ban'
p198
aS'w+2=Benedict'
p199
aS'w+2=Bolinger'
p200
aS'w+2=Bush'
p201
aS'w+2=Friday'
p202
aS'w+2=Ghadafi'
p203
aS'w+2=Kenya'
p204
aS'w+2=Kim'
p205
aS'w+2=Obama'
p206
aS'w+2=Pope'
p207
aS'w+2=President'
p208
aS'w+2=Prime'
p209
aS'w+2=Ramos-Horta'
p210
aS'w+2=Roh'
p211
aS'w+2=Rudd'
p212
aS'w+2=U.S.'
p213
aS'w+2=a'
p214
aS'w+2=anti-corruption'
p215
aS'w+2=applause'
p216
aS'w+2=arrival'
p217
aS'w+2=baseball'
p218
aS'w+2=by'
p219
aS'w+2=celebratory'
p220
aS'w+2=cheer'
p221
aS'w+2=come'
p222
aS'w+2=da'
p223
aS'w+2=derision'
p224
aS'w+2=early'
p225
aS'w+2=earth'
p226
aS'w+2=faithful'
p227
aS'w+2=first'
p228
aS'w+2=friend'
p229
aS'w+2=from'
p230
aS'w+2=g-8'
p231
aS'w+2=guest'
p232
aS'w+2=he'
p233
aS'w+2=head'
p234
aS'w+2=hope'
p235
aS'w+2=in'
p236
aS'w+2=korean'
p237
aS'w+2=long-line'
p238
aS'w+2=man'
p239
aS'w+2=more'
p240
aS'w+2=musician'
p241
aS'w+2=new'
p242
aS'w+2=news'
p243
aS'w+2=of'
p244
aS'w+2=other'
p245
aS'w+2=personally'
p246
aS'w+2=peruse'
p247
aS'w+2=police'
p248
aS'w+2=president'
p249
aS'w+2=student'
p250
aS'w+2=supporter'
p251
aS'w+2=supportive'
p252
aS'w+2=ten'
p253
aS'w+2=that'
p254
aS'w+2=the'
p255
aS'w+2=torch'
p256
aS'w+2=visitor'
p257
aS'w+2=wait'
p258
aS'w+2=when'
p259
aS'w+2=where'
p260
aS'w+2=with'
p261
aS'w-1=,'
p262
aS'w-1=Clinton'
p263
aS'w-1=Compaore'
p264
aS'w-1=Edwards'
p265
aS'w-1=Lee'
p266
aS'w-1=Merkel'
p267
aS'w-1=Nairobi'
p268
aS'w-1=Pope'
p269
aS'w-1=Tolson'
p270
aS'w-1=XVI'
p271
aS'w-1=Yanali'
p272
aS'w-1=again'
p273
aS'w-1=and'
p274
aS'w-1=arabic'
p275
aS'w-1=be'
p276
aS'w-1=by'
p277
aS'w-1=cheer'
p278
aS'w-1=counselor'
p279
aS'w-1=demonstrator'
p280
aS'w-1=digital'
p281
aS'w-1=fanfare'
p282
aS'w-1=for'
p283
aS'w-1=formal'
p284
aS'w-1=have'
p285
aS'w-1=he'
p286
aS'w-1=holiday'
p287
aS'w-1=initially'
p288
aS'w-1=joyously'
p289
aS'w-1=leader'
p290
aS'w-1=loyalist'
p291
aS'w-1=mainly'
p292
aS'w-1=may'
p293
aS'w-1=mother'
p294
aS'w-1=music'
p295
aS'w-1=musician'
p296
aS'w-1=of'
p297
aS'w-1=official'
p298
aS'w-1=people'
p299
aS'w-1=personally'
p300
aS'w-1=priest'
p301
aS'w-1=ritual'
p302
aS'w-1=she'
p303
aS'w-1=still'
p304
aS'w-1=that'
p305
aS'w-1=the'
p306
aS'w-1=then'
p307
aS'w-1=to'
p308
aS'w-1=which'
p309
aS'w-1=will'
p310
aS"w-2=''"
p311
aS'w-2=,'
p312
aS'w-2=.'
p313
aS'w-2=Ababa'
p314
aS'w-2=Ban'
p315
aS'w-2=Benedict'
p316
aS'w-2=Bush'
p317
aS'w-2=Donovan'
p318
aS'w-2=Fatah'
p319
aS'w-2=I'
p320
aS'w-2=Il'
p321
aS'w-2=John'
p322
aS'w-2=Mel'
p323
aS'w-2=Mr.'
p324
aS'w-2=Ms.'
p325
aS'w-2=Sarkozy'
p326
aS'w-2=a'
p327
aS'w-2=agreement'
p328
aS'w-2=airport'
p329
aS'w-2=and'
p330
aS'w-2=as'
p331
aS'w-2=audience'
p332
aS'w-2=be'
p333
aS'w-2=carpet'
p334
aS'w-2=choose'
p335
aS'w-2=controversy'
p336
aS'w-2=daughter'
p337
aS'w-2=day'
p338
aS'w-2=emerge'
p339
aS'w-2=euphoria'
p340
aS'w-2=european'
p341
aS'w-2=factory'
p342
aS'w-2=forward'
p343
aS'w-2=gesture'
p344
aS'w-2=have'
p345
aS'w-2=he'
p346
aS'w-2=in'
p347
aS'w-2=investor'
p348
aS'w-2=meet'
p349
aS'w-2=minister'
p350
aS'w-2=neighbor'
p351
aS'w-2=of'
p352
aS'w-2=old'
p353
aS'w-2=people'
p354
aS'w-2=pope'
p355
aS'w-2=professor'
p356
aS'w-2=protest'
p357
aS'w-2=protester'
p358
aS'w-2=relax'
p359
aS'w-2=rush'
p360
aS'w-2=she'
p361
aS'w-2=that'
p362
aS'w-2=the'
p363
aS'w-2=there'
p364
aS'w-2=they'
p365
aS'w-2=to'
p366
aS'w-2=traditional'
p367
aS'w-2=troops'
p368
aS'w-2=up'
p369
aS'w-2=voter'
p370
aS'w-2=when'
p371
aS'w-2=would'
p372
asS'dtype'
p373
cnumpy
float64
p374
sS'vocabulary_'
p375
(dp376
g27
I18
sg142
I133
sg303
I294
sg354
I345
sg360
I351
sg189
I180
sg97
I88
sg178
I169
sg211
I202
sg182
I173
sg52
I43
sg17
I8
sg365
I356
sg143
I134
sg193
I184
sg185
I176
sg278
I269
sg252
I243
sg291
I282
sg288
I279
sg100
I91
sg150
I141
sg310
I301
sg9
I0
sg129
I120
sg72
I63
sg33
I24
sg117
I108
sg220
I211
sg277
I268
sg276
I267
sg63
I54
sg363
I354
sg180
I171
sg109
I100
sg342
I333
sg16
I7
sg174
I165
sg228
I219
sg176
I167
sg42
I33
sg285
I276
sg148
I139
sg236
I227
sg156
I147
sg273
I264
sg318
I309
sg265
I256
sg201
I192
sg139
I130
sg309
I300
sg339
I330
sg88
I79
sg208
I199
sg132
I123
sg362
I353
sg184
I175
sg186
I177
sg355
I346
sg249
I240
sg123
I114
sg28
I19
sg145
I136
sg36
I27
sg370
I361
sg169
I160
sg102
I93
sg22
I13
sg149
I140
sg83
I74
sg86
I77
sg222
I213
sg98
I89
sg281
I272
sg304
I295
sg294
I285
sg110
I101
sg175
I166
sg263
I254
sg121
I112
sg192
I183
sg326
I317
sg348
I339
sg136
I127
sg99
I90
sg271
I262
sg353
I344
sg187
I178
sg107
I98
sg44
I35
sg54
I45
sg251
I242
sg101
I92
sg284
I275
sg94
I85
sg71
I62
sg259
I250
sg358
I349
sg282
I273
sg146
I137
sg66
I57
sg207
I198
sg352
I343
sg308
I299
sg137
I128
sg240
I231
sg133
I124
sg322
I313
sg47
I38
sg103
I94
sg194
I185
sg172
I163
sg210
I201
sg25
I16
sg128
I119
sg226
I217
sg46
I37
sg114
I105
sg171
I162
sg334
I325
sg64
I55
sg340
I331
sg111
I102
sg30
I21
sg361
I352
sg144
I135
sg14
I5
sg12
I3
sg80
I71
sg91
I82
sg260
I251
sg324
I315
sg205
I196
sg60
I51
sg20
I11
sg37
I28
sg82
I73
sg296
I287
sg306
I297
sg26
I17
sg333
I324
sg329
I320
sg89
I80
sg165
I156
sg261
I252
sg49
I40
sg369
I360
sg203
I194
sg153
I144
sg227
I218
sg279
I270
sg238
I229
sg13
I4
sg311
I302
sg244
I235
sg57
I48
sg343
I334
sg253
I244
sg274
I265
sg198
I189
sg269
I260
sg335
I326
sg234
I225
sg323
I314
sg112
I103
sg247
I238
sg75
I66
sg356
I347
sg116
I107
sg267
I258
sg50
I41
sg316
I307
sg230
I221
sg239
I230
sg337
I328
sg268
I259
sg73
I64
sg321
I312
sg48
I39
sg21
I12
sg179
I170
sg372
I363
sg292
I283
sg55
I46
sg224
I215
sg41
I32
sg357
I348
sg106
I97
sg221
I212
sg212
I203
sg298
I289
sg332
I323
sg177
I168
sg125
I116
sg79
I70
sg243
I234
sg35
I26
sg242
I233
sg151
I142
sg368
I359
sg231
I222
sg264
I255
sg347
I338
sg338
I329
sg319
I310
sg223
I214
sg95
I86
sg300
I291
sg10
I1
sg235
I226
sg53
I44
sg127
I118
sg270
I261
sg349
I340
sg195
I186
sg257
I248
sg206
I197
sg328
I319
sg68
I59
sg258
I249
sg70
I61
sg155
I146
sg124
I115
sg29
I20
sg345
I336
sg38
I29
sg120
I111
sg359
I350
sg92
I83
sg131
I122
sg166
I157
sg62
I53
sg59
I50
sg325
I316
sg289
I280
sg250
I241
sg371
I362
sg225
I216
sg299
I290
sg115
I106
sg90
I81
sg163
I154
sg81
I72
sg301
I292
sg39
I30
sg336
I327
sg138
I129
sg183
I174
sg67
I58
sg78
I69
sg19
I10
sg217
I208
sg287
I278
sg74
I65
sg56
I47
sg104
I95
sg23
I14
sg43
I34
sg351
I342
sg232
I223
sg147
I138
sg315
I306
sg119
I110
sg134
I125
sg58
I49
sg209
I200
sg122
I113
sg286
I277
sg11
I2
sg167
I158
sg216
I207
sg96
I87
sg218
I209
sg61
I52
sg164
I155
sg130
I121
sg204
I195
sg118
I109
sg254
I245
sg93
I84
sg77
I68
sg196
I187
sg290
I281
sg85
I76
sg297
I288
sg366
I357
sg152
I143
sg330
I321
sg200
I191
sg346
I337
sg241
I232
sg237
I228
sg350
I341
sg191
I182
sg24
I15
sg255
I246
sg141
I132
sg341
I332
sg140
I131
sg312
I303
sg313
I304
sg233
I224
sg135
I126
sg32
I23
sg199
I190
sg262
I253
sg320
I311
sg331
I322
sg181
I172
sg367
I358
sg202
I193
sg307
I298
sg327
I318
sg65
I56
sg248
I239
sg51
I42
sg87
I78
sg317
I308
sg168
I159
sg161
I152
sg188
I179
sg295
I286
sg105
I96
sg170
I161
sg246
I237
sg84
I75
sg160
I151
sg256
I247
sg162
I153
sg314
I305
sg364
I355
sg45
I36
sg229
I220
sg266
I257
sg344
I335
sg272
I263
sg213
I204
sg190
I181
sg245
I236
sg18
I9
sg34
I25
sg113
I104
sg69
I60
sg173
I164
sg275
I266
sg76
I67
sg15
I6
sg283
I274
sg154
I145
sg219
I210
sg157
I148
sg197
I188
sg159
I150
sg302
I293
sg158
I149
sg40
I31
sg280
I271
sg293
I284
sg305
I296
sg31
I22
sg126
I117
sg214
I205
sg108
I99
sg215
I206
ssS'separator'
p377
S'='
sS'sparse'
p378
I01
sb.