ccopy_reg
_reconstructor
p1
(csklearn.feature_extraction.dict_vectorizer
DictVectorizer
p2
c__builtin__
object
p3
NtRp4
(dp5
S'vocabulary_'
p6
(dp7
S'w-1=major'
p8
I788
sS'w-1=last-ditch'
p9
I782
sS'w-1=10,000'
p10
I699
sS'w+1=require'
p11
I252
sS'det=no'
p12
I82
sS'w+2=World'
p13
I457
sS'w+2=earlier'
p14
I513
sS'w-2=runoff'
p15
I1301
sS'w-2=Friday'
p16
I918
sS'w+2=my'
p17
I591
sS'w+2=Algerian'
p18
I281
sS'w-2=level'
p19
I1191
sS'w+2=but'
p20
I482
sS'w+2=international'
p21
I563
sS'w-2=new'
p22
I1228
sS'w-2=need'
p23
I1223
sS'w+2=Jeff'
p24
I365
sS'w-2=policy'
p25
I1265
sS'w-2=Mugabe'
p26
I945
sS'w-2=grow'
p27
I1141
sS'w+1=happen'
p28
I235
sS'w-1=new'
p29
I795
sS'w+2=Soli'
p30
I434
sS'poss=year'
p31
I160
sS'w+2=recent'
p32
I629
sS'w+2=several'
p33
I646
sS'w-2=winter'
p34
I1405
sS'w-2=card'
p35
I1030
sS'rcmod=ask'
p36
I176
sS'w-2=representative'
p37
I1292
sS'w+2=attention'
p38
I475
sS'w+1=sign'
p39
I256
sS'w+2=mcdonald'
p40
I582
sS'w-2=polio'
p41
I1266
sS'w-2=time'
p42
I1361
sS'w-2=before'
p43
I1012
sS'w-2=Islamists'
p44
I930
sS'w-2=who'
p45
I1401
sS'w+1=of'
p46
I245
sS'w-2=2003'
p47
I879
sS'w+2=lawyer'
p48
I575
sS'w-2=2005'
p49
I880
sS'w-2=2006'
p50
I881
sS'w-2=2009'
p51
I883
sS'w+1=on'
p52
I246
sS'w+2=cause'
p53
I486
sS'w+1=apparently'
p54
I202
sS'w+2=last'
p55
I573
sS'w-2=important'
p56
I1161
sS'w-1=assist'
p57
I727
sS'w+2=rank'
p58
I628
sS'w-2=Africa'
p59
I892
sS'w-1=apportion'
p60
I726
sS'w-2=all'
p61
I987
sS'w-2=trend'
p62
I1371
sS'w-2=fisherman'
p63
I1111
sS'w+2=Saudi'
p64
I427
sS'w-2=model'
p65
I1215
sS'w-2=that'
p66
I1353
sS'w+1=the'
p67
I259
sS'w-2=than'
p68
I1352
sS'w-2=though'
p69
I1359
sS'w+2=Pachauri'
p70
I406
sS'w+2=observer'
p71
I601
sS'dep=act'
p72
I70
sS'w-1=monitoring'
p73
I793
sS'w-2=neurologist'
p74
I1226
sS'w-2=Party'
p75
I951
sS'w+2=future'
p76
I536
sS'w+2=FIFA'
p77
I332
sS'w-2=hiv-positive'
p78
I1149
sS'w+2=Paul'
p79
I410
sS'w-1=disarmament'
p80
I752
sS'w-2=order'
p81
I1245
sS'w-2=accord'
p82
I975
sS'prep=for'
p83
I167
sS'dep=end'
p84
I72
sS'w+2=France'
p85
I335
sS'w-1=capture'
p86
I736
sS'w-1=similar'
p87
I838
sS'w-2=investor'
p88
I1175
sS'w-1=trade'
p89
I853
sS'w-2=treatment'
p90
I1370
sS'w+2=Thomas'
p91
I441
sS'w+2=Thoman'
p92
I440
sS'w-1=position'
p93
I817
sS'w-2=365'
p94
I889
sS'w+2=expert'
p95
I525
sS'w-2=Somalia'
p96
I959
sS'amod=six-party'
p97
I44
sS'w-2=takeoff'
p98
I1347
sS'w+2=Huetter'
p99
I349
sS'w+2=former'
p100
I534
sS'w+2=call'
p101
I484
sS'w+2=Keita'
p102
I369
sS'w-2=smoker'
p103
I1322
sS'w+2=estimate'
p104
I521
sS'w-1=wide-ranging'
p105
I858
sS'w-2=connected'
p106
I1054
sS'w-1=to'
p107
I852
sS'w+2=Antonio'
p108
I286
sS'rcmod=end'
p109
I179
sS'w-2=legislation'
p110
I1190
sS'w-2=do'
p111
I1080
sS'w+2=constitutional'
p112
I493
sS'appos=#NUMBER#'
p113
I51
sS'w-2=inevitable'
p114
I1165
sS'w+2=Jean'
p115
I364
sS'w-2=Tuesday'
p116
I966
sS'w-2=song'
p117
I1325
sS'w-2=die'
p118
I1074
sS'w+2=under'
p119
I670
sS'w-2=electricity'
p120
I1092
sS'w-2=Russia'
p121
I956
sS'w-2=down'
p122
I1084
sS'w-2=hour'
p123
I1154
sS'w+2=themselves'
p124
I661
sS'w+2=journalist'
p125
I572
sS'advmod=most'
p126
I1
sS'w+2=custom'
p127
I500
sS'dobj=authority'
p128
I89
sS'partmod=call'
p129
I138
sS'w+2=bring'
p130
I480
sS'w-2=employ'
p131
I1094
sS'w-2=City'
p132
I907
sS'w+2=Venter'
p133
I453
sS'w-2=duty'
p134
I1086
sS'w-2=commit'
p135
I1049
sS'amod=strategic'
p136
I46
sS'w-1=each'
p137
I755
sS'w-1=party'
p138
I805
sS'w+2=Government'
p139
I341
sS'w+2=Russian'
p140
I423
sS'w-1=Helsinki'
p141
I713
sS'w-2=alike'
p142
I986
sS'w+2=Rosario'
p143
I422
sS'w-2=camp'
p144
I1026
sS'nsubj=tv'
p145
I133
sS'w-2=from'
p146
I1126
sS'w+2=move'
p147
I590
sS'w-2=up'
p148
I1381
sS'nn=climate'
p149
I114
sS'w-2=Iraqis'
p150
I929
sS'w-1=Colombia'
p151
I709
sS'w+2=Ali'
p152
I282
sS'w+2=Israel'
p153
I358
sS'partmod=seal'
p154
I144
sS'w+1=Moscow'
p155
I196
sS'w-2=impact'
p156
I1159
sS'w-2=pack'
p157
I1250
sS'w-2=decline'
p158
I1069
sS'w-2=mutilation'
p159
I1219
sS'w-2=overconfidence'
p160
I1248
sS'det=that'
p161
I83
sS'infmod=form'
p162
I95
sS'det=any'
p163
I81
sS'w+2=head'
p164
I548
sS'w-2=big'
p165
I1015
sS'infmod=cooperate'
p166
I94
sS'w-2=slaughter'
p167
I1320
sS'w-2=world'
p168
I1408
sS'w-1=...'
p169
I698
sS'w-2=rain'
p170
I1281
sS'w-2=civilian'
p171
I1039
sS'w+2=Antiquities'
p172
I285
sS'w-2=cabinet'
p173
I1024
sS'w-2=polygamous'
p174
I1267
sS'w-2=Uzbekistan'
p175
I968
sS'w-1=basis'
p176
I730
sS'w-2=go'
p177
I1132
sS'w+2=researcher'
p178
I634
sS'w-2=budget'
p179
I1019
sS'w-2=terrorism'
p180
I1351
sS'w-2=177'
p181
I870
sS'w-2=mission'
p182
I1213
sS'w-2=divide'
p183
I1079
sS'w-2=California'
p184
I906
sS'w-2=would'
p185
I1411
sS'w+2=this'
p186
I663
sS'w+2=Afghan'
p187
I279
sS'w-2=Sosa'
p188
I960
sS'w+1=between'
p189
I210
sS'w+2=report'
p190
I632
sS'amod=good'
p191
I13
sS'w-2=million'
p192
I1210
sS'w-1=go'
p193
I767
sS'amod=new'
p194
I24
sS'w-2=fuel'
p195
I1127
sS'w-2=protection'
p196
I1278
sS'w-2=with'
p197
I1406
sS'w-2=also'
p198
I991
sS'w+2=new'
p199
I594
sS'w-2=patient'
p200
I1256
sS'w-2=area'
p201
I999
sS'w+2=Damon'
p202
I312
sS'amod=nuclear'
p203
I25
sS'w-2=club'
p204
I1045
sS'w-2=20'
p205
I876
sS'nn=compensation'
p206
I115
sS'w-2=dismiss'
p207
I1078
sS'w-2=if'
p208
I1157
sS'w-2=in'
p209
I1162
sS'w-2=agenda'
p210
I980
sS'w-2=theory'
p211
I1356
sS'w+2=Ouagadougou'
p212
I404
sS'w-2=where'
p213
I1398
sS'partmod=sign'
p214
I145
sS'w-2=it'
p215
I1179
sS'w-2=uncover'
p216
I1377
sS'w-2=Province'
p217
I952
sS'w-2=parliament'
p218
I1251
sS'w-2=Kirkuk'
p219
I935
sS'w-2=diplomat'
p220
I1075
sS'amod=comprehensive'
p221
I4
sS'w-2=cell'
p222
I1032
sS'w-2=agreement'
p223
I982
sS'w-2=revenue'
p224
I1295
sS'w-2=disease'
p225
I1077
sS'w-2=sufficient'
p226
I1342
sS'w-2=Al-Din'
p227
I894
sS'w-2=States'
p228
I961
sS'amod=propose'
p229
I36
sS'w-2=call'
p230
I1025
sS'w+2=poll'
p231
I615
sS'w-1=peace'
p232
I807
sS'w+2=Mogadishu'
p233
I392
sS'w-2=2000'
p234
I878
sS'w+2=Wereley'
p235
I456
sS'w-2=soon'
p236
I1326
sS'w+1=will'
p237
I264
sS'w+2=Murhaf'
p238
I396
sS'w+2=develop'
p239
I505
sS'w-1=person'
p240
I809
sS'w+2=early'
p241
I514
sS'w+1=in'
p242
I238
sS'w+2=aim'
p243
I467
sS'w-2=replace'
p244
I1291
sS'w-2=2008'
p245
I882
sS'w-1=conduct'
p246
I743
sS'w+2=major'
p247
I579
sS'w-2=active'
p248
I977
sS'w+2=US'
p249
I448
sS'w+1=fail'
p250
I231
sS'conj=unlikely'
p251
I66
sS'w+2=get'
p252
I541
sS'w-2=news'
p253
I1229
sS'poss=#PRP#'
p254
I156
sS'w+2=Professor'
p255
I417
sS'w-1=several'
p256
I836
sS'w-1=suspect'
p257
I847
sS'w+2=Pham'
p258
I412
sS'nn=Annapolis'
p259
I101
sS'w+2=Drake'
p260
I322
sS"possessive='s"
p261
I161
sS'w-2=question'
p262
I1279
sS'nn=#DATE#'
p263
I98
sS'w-2=sermon'
p264
I1307
sS'w-1=group'
p265
I771
sS'w-1=themselves'
p266
I850
sS'w+2=underline'
p267
I671
sS'w-2=under'
p268
I1378
sS'w+2=Irfan'
p269
I357
sS'w-2=1975'
p270
I871
sS'w-2=Ghana'
p271
I920
sS'w-2=function'
p272
I1128
sS'w+2=founder'
p273
I535
sS'w-2=passport'
p274
I1254
sS'w-2=honor'
p275
I1151
sS'w+2=John'
p276
I367
sS'w+2=North'
p277
I401
sS'w-2=higher'
p278
I1146
sS'w-2=Trinidad'
p279
I965
sS'w-2=tv'
p280
I1373
sS'w+2=each'
p281
I512
sS'w+1=develop'
p282
I222
sS'w+2=Assistant'
p283
I290
sS'w-2=to'
p284
I1363
sS'w-1=nuclear'
p285
I798
sS'w-2=and'
p286
I994
sS'w-2=east'
p287
I1087
sS'w+2=Bruce'
p288
I300
sS'w-2=ant'
p289
I996
sS'w-2=threat'
p290
I1360
sS'w-2=one'
p291
I1240
sS'w-2=any'
p292
I997
sS'w-2=he'
p293
I1142
sS'w+1=which'
p294
I263
sS'w+2=resolve'
p295
I635
sS'w-1=shave'
p296
I837
sS'w+2=would'
p297
I688
sS'w+2=UNHCR'
p298
I447
sS'w-2=Venezuela'
p299
I969
sS'w+2=he'
p300
I547
sS'nn=framework'
p301
I119
sS'w-1=Zimbabwe'
p302
I720
sS'w+2=Christine'
p303
I307
sS'w+2=foreign'
p304
I532
sS'w-2=March'
p305
I939
sS'w-1=Algiers'
p306
I704
sS'w-2=other'
p307
I1246
sS'w+1=contain'
p308
I219
sS'w+2=Mauritania'
p309
I386
sS'w+2=government'
p310
I543
sS'w+2=Latin'
p311
I377
sS'w+2=eyewitness'
p312
I526
sS'w+2=economist'
p313
I515
sS'w-2=wealth'
p314
I1395
sS'poss=administration'
p315
I158
sS'w-2=mid-2007'
p316
I1207
sS'amod=several'
p317
I41
sS'w-2=issue'
p318
I1178
sS'w+2=various'
p319
I675
sS'rcmod=pay'
p320
I183
sS'w+1=establish'
p321
I228
sS'w-2=Roadmap'
p322
I954
sS'w-2=industry'
p323
I1164
sS'w-2=Shafie'
p324
I958
sS'w-2=head'
p325
I1143
sS'w-1=Abuja'
p326
I703
sS'w+2=conclude'
p327
I492
sS'w-2=ministerial'
p328
I1212
sS'w-2=America'
p329
I895
sS'w-1=election'
p330
I756
sS'w-2=casualty'
p331
I1031
sS'w-2=Ouagadougou'
p332
I948
sS'w-2=far'
p333
I1107
sS'w+2=James'
p334
I361
sS'neg=not'
p335
I97
sS'w-2=Union'
p336
I967
sS'w-2=Oslo'
p337
I947
sS'w-2=weekend'
p338
I1397
sS'w+1=Kosovo'
p339
I195
sS'w-2=affect'
p340
I978
sS'w+2=race'
p341
I627
sS'w-1=last-minute'
p342
I783
sS'w+2=September'
p343
I430
sS'w-2=office'
p344
I1236
sS'w-2=for'
p345
I1117
sS'w-2=necessary'
p346
I1222
sS'w-2=Washington'
p347
I970
sS'w-2=Sudan'
p348
I962
sS'w+2=Nicholas'
p349
I399
sS'w+1=earlier'
p350
I226
sS'w-2=we'
p351
I1394
sS'w-2=great'
p352
I1137
sS'w-1=preliminary'
p353
I822
sS'w+2=Commerce'
p354
I309
sS'w+2=between'
p355
I478
sS'w-2=governance'
p356
I1134
sS'w-2=cow'
p357
I1062
sS'w-2=mental'
p358
I1206
sS'w+2=vietnamese'
p359
I677
sS'w+2=european'
p360
I522
sS'w-2=u.s.-iraq'
p361
I1375
sS'w+2=british'
p362
I481
sS'w+1=that'
p363
I258
sS'w+2=materials-scientist'
p364
I581
sS'conj=withdrawal'
p365
I67
sS'dobj=post'
p366
I90
sS'w-1=say'
p367
I831
sS'w-2=while'
p368
I1400
sS'w+2=approve'
p369
I472
sS'w+2=Manila'
p370
I381
sS'w-1=regional'
p371
I829
sS'w+1=give'
p372
I234
sS'w-1=miss'
p373
I791
sS'w-2=revision'
p374
I1297
sS'w-2=leader'
p375
I1189
sS'w-2=the'
p376
I1354
sS'w-2=territory'
p377
I1350
sS'w+2=form'
p378
I533
sS'w-2=highway'
p379
I1147
sS'w-2=many'
p380
I1201
sS'w+2=timber'
p381
I666
sS'w+2=first'
p382
I529
sS'w-2=slum'
p383
I1321
sS'w-1=distribute'
p384
I754
sS'w+2=if'
p385
I553
sS'w+2=in'
p386
I557
sS'w-2=week'
p387
I1396
sS'w+2=it'
p388
I568
sS'w-1=security'
p389
I835
sS'w+2=Mwangura'
p390
I397
sS'w-1=second'
p391
I833
sS'prep=about'
p392
I163
sS'w-2=village'
p393
I1385
sS'w-2=Israel'
p394
I932
sS'nn=Taef'
p395
I109
sS'partmod=develop'
p396
I141
sS'w+2=Bottome'
p397
I296
sS'w-1=government'
p398
I770
sS'nn=partnership'
p399
I123
sS'w-2=Baghdad'
p400
I901
sS'w+2=take'
p401
I657
sS'w-1=past'
p402
I806
sS'nn=change'
p403
I113
sS'partmod=approve'
p404
I137
sS'partmod=reach'
p405
I142
sS'w+1=define'
p406
I221
sS'w+1=for'
p407
I233
sS'w+2=agree'
p408
I465
sS'w-2=wide'
p409
I1403
sS'w-1=global'
p410
I766
sS'prep=to'
p411
I173
sS'w-2=voter'
p412
I1389
sS'w+2=Kent'
p413
I370
sS'w-1=change'
p414
I738
sS'w+2=wildlife'
p415
I684
sS'w-1=parliament'
p416
I803
sS'w-1=Americans'
p417
I705
sS'w+2=how'
p418
I551
sS'w+2=for'
p419
I531
sS'w+2=michigan-based'
p420
I585
sS'amod=pend'
p421
I29
sS'w-1=--'
p422
I695
sS'w+2=we'
p423
I678
sS'w-2=moment'
p424
I1216
sS'w-2=several'
p425
I1309
sS'w+2=Armitage'
p426
I288
sS'amod=govern'
p427
I14
sS'w-2=seek'
p428
I1305
sS'w+2=official'
p429
I603
sS'w-2=percent'
p430
I1259
sS'w+1=asylum'
p431
I205
sS'dep=require'
p432
I78
sS'w-2=disaster'
p433
I1076
sS'w-2=12'
p434
I868
sS'w-2=court'
p435
I1061
sS'w-2=costly'
p436
I1058
sS'w+2=save'
p437
I641
sS'w+2=Amnesty'
p438
I284
sS'det=the'
p439
I84
sS'w-2=business'
p440
I1021
sS'w+2=figure'
p441
I528
sS'w+2=publish'
p442
I625
sS'dep=which'
p443
I79
sS'w+2=drag'
p444
I510
sS'w+2=EU'
p445
I323
sS'w-2=store'
p446
I1336
sS'w+2=schedule'
p447
I643
sS'w-2=revise'
p448
I1296
sS'w+2=orthodox'
p449
I607
sS'w-2=asset'
p450
I1002
sS'w+2=Carter'
p451
I304
sS'w+2=month'
p452
I587
sS'w-2=bad'
p453
I1008
sS'w+1=call'
p454
I213
sS'w-2=take'
p455
I1346
sS'prep=over'
p456
I172
sS'w-1=11'
p457
I700
sS'amod=political'
p458
I31
sS'w-1=secure'
p459
I834
sS'w-1=race'
p460
I827
sS'w-1=win'
p461
I859
sS'w+1=authority'
p462
I207
sS'w-2=she'
p463
I1310
sS'w-2=shelf'
p464
I1311
sS'w-2=old'
p465
I1238
sS'w+2=Action'
p466
I276
sS'nn=six-party'
p467
I128
sS'dobj=privilege'
p468
I91
sS'w-2=ten'
p469
I1349
sS'dep=#DATE#'
p470
I69
sS'w+2=media'
p471
I583
sS'w+2=destine'
p472
I504
sS'w-2=democratic'
p473
I1071
sS'w-2=finalize'
p474
I1110
sS'nn=disaster'
p475
I118
sS'w+2=Robert'
p476
I420
sS'w-2=emission'
p477
I1093
sS'w+2=Thursday'
p478
I442
sS'w+2=say'
p479
I642
sS'w-1=worldwide'
p480
I860
sS'w+2=Schilling'
p481
I428
sS'w+2=Capitol'
p482
I303
sS'w+1=under'
p483
I262
sS'w+2=staff'
p484
I653
sS'w+2=question'
p485
I626
sS'w+2=Landis'
p486
I375
sS'w-2=dead'
p487
I1066
sS'w-2=spring'
p488
I1331
sS'w+2=basic'
p489
I476
sS'nn=landmark'
p490
I122
sS'w+2=have'
p491
I546
sS'w+2=year'
p492
I690
sS'w+2=emerge'
p493
I516
sS'w+2=Adelphi'
p494
I277
sS'w+2=Google'
p495
I340
sS'w+2=Bryant'
p496
I301
sS'dep=emission'
p497
I71
sS'w+2=total'
p498
I668
sS'w-2=near'
p499
I1221
sS'w+1=to'
p500
I261
sS'w-2=negotiate'
p501
I1224
sS'w-1=constitutional'
p502
I744
sS'w-1=and'
p503
I724
sS'poss=Coast'
p504
I157
sS'pobj=poll'
p505
I153
sS'amod=power-sharing'
p506
I33
sS'w-1=any'
p507
I725
sS'w+1=include'
p508
I239
sS'w-2=surface'
p509
I1343
sS'w-2=governorship'
p510
I1136
sS'amod=wide-ranging'
p511
I50
sS'w+2=International'
p512
I354
sS'w+2=require'
p513
I633
sS'w-2=Islands'
p514
I931
sS'w+1=say'
p515
I254
sS'w+2=those'
p516
I664
sS'w-2=verification'
p517
I1384
sS'w-2=potential'
p518
I1269
sS'w+2=partial'
p519
I609
sS'w-2=comprehensive'
p520
I1051
sS'w+2=ensure'
p521
I520
sS'w+1=since'
p522
I257
sS'w+1=dynamic'
p523
I225
sS'w-2=five'
p524
I1112
sS'conj=term'
p525
I65
sS'w-2=decade'
p526
I1068
sS'w+1=could'
p527
I220
sS'w-2=Nigeria'
p528
I946
sS'w+2=U.N.'
p529
I445
sS'w+2=survey'
p530
I656
sS'w+2=over'
p531
I608
sS'w-2=union'
p532
I1379
sS'w+2=many'
p533
I580
sS'w-2=concession'
p534
I1053
sS'nn=Helsinki'
p535
I105
sS'amod=global'
p536
I12
sS'w-2=six'
p537
I1317
sS'w-1=act'
p538
I723
sS'appos=mediator'
p539
I52
sS'w-2=Minsk'
p540
I941
sS'w+2=its'
p541
I569
sS'partmod=require'
p542
I143
sS'w+2=until'
p543
I673
sS'w-2=candidate'
p544
I1028
sS'w-2=day'
p545
I1065
sS'dobj=attention'
p546
I88
sS'w-2=service'
p547
I1308
sS'w-1=Doha'
p548
I711
sS'w-2=pirate'
p549
I1263
sS'w-1=Oslo'
p550
I716
sS'w-2=injure'
p551
I1167
sS'w-2=injury'
p552
I1168
sS'w-2=environment'
p553
I1097
sS'w-2=come'
p554
I1048
sS'w+2=Evgeni'
p555
I330
sS'w-2=strategic'
p556
I1337
sS'w+2=geneticist'
p557
I538
sS'w-2=parliamentary'
p558
I1252
sS'w-2=concern'
p559
I1052
sS'w-2=clinic'
p560
I1043
sS'w-2=despite'
p561
I1072
sS'w-1=interim'
p562
I779
sS'w+2=Pakistani'
p563
I408
sS'w+2=some'
p564
I652
sS'w-2=peace'
p565
I1257
sS'w-2=York'
p566
I971
sS'w+2=Mandinka'
p567
I380
sS'w+1=isolate'
p568
I240
sS'w+2=lead'
p569
I576
sS'amod=own'
p570
I27
sS'w-2=away'
p571
I1007
sS'w-1=cease-fire'
p572
I737
sS'w-2=youth'
p573
I1413
sS'conj=#DATE#'
p574
I60
sS'w+2=fighting'
p575
I527
sS'w-2=Rouge'
p576
I955
sS'w+2=address'
p577
I462
sS'w+1=come'
p578
I216
sS'w+2=Hugh'
p579
I350
sS'w-2=crisis'
p580
I1064
sS'w+2=incident'
p581
I558
sS'w+2=deadline'
p582
I502
sS'w+2=Michigan'
p583
I390
sS'w-1=Annapolis'
p584
I706
sS'w+2=which'
p585
I681
sS'w-1=year'
p586
I861
sS'nn=trade'
p587
I129
sS'w-2=reaffirm'
p588
I1285
sS'w-2=neighbor'
p589
I1225
sS'w-1=February'
p590
I712
sS'dobj=total'
p591
I93
sS'w+2=Sergeyev'
p592
I432
sS'w-1=extinction'
p593
I760
sS'w-2=period'
p594
I1260
sS'w+2=Burns'
p595
I302
sS'w+2=both'
p596
I479
sS'w-2=corruption'
p597
I1057
sS'w+1=approve'
p598
I203
sS'w-2=turnout'
p599
I1372
sS'w-2=middle'
p600
I1208
sS'w+2=Colombia'
p601
I308
sS'w-2=Hamas'
p602
I921
sS'w+2=opinion'
p603
I606
sS'w-2=traffic'
p604
I1369
sS'w-2=quite'
p605
I1280
sS'w-2=lead'
p606
I1188
sS'w-2=Senegal'
p607
I957
sS'w+2=license'
p608
I577
sS'w-2=law'
p609
I1187
sS'w+1=reach'
p610
I250
sS'w+2=European'
p611
I329
sS'amod=intra-palestinian'
p612
I16
sS'w-1=political'
p613
I813
sS'w-2=vote'
p614
I1388
sS'w-2=crime'
p615
I1063
sS'w-2=freedom'
p616
I1124
sS'amod=latest'
p617
I20
sS'rcmod=respect'
p618
I186
sS'w-2=nevertheless'
p619
I1227
sS'w+1=with'
p620
I265
sS'w-2=goal'
p621
I1133
sS'w+2=Greenland'
p622
I343
sS'w-2=flu'
p623
I1114
sS'amod=six-nation'
p624
I43
sS'w-2=optimistic'
p625
I1243
sS'w-2=,'
p626
I864
sS'w-2=-'
p627
I865
sS'w-2=.'
p628
I866
sS'w-2=Monday'
p629
I943
sS'w+2=Iraq'
p630
I356
sS'w-2=Hieu'
p631
I923
sS'aux=have'
p632
I54
sS'w+1=remain'
p633
I251
sS'w-2=9'
p634
I891
sS'w+1=do'
p635
I223
sS'w-2=6'
p636
I890
sS'w+2=Gulf'
p637
I344
sS'w-2=four'
p638
I1122
sS'w+2=United'
p639
I450
sS'w-2=fact'
p640
I1105
sS'w+2=perhaps'
p641
I611
sS'w-2=follow'
p642
I1115
sS'w-2=human'
p643
I1156
sS'w-2=a'
p644
I972
sS'w-2=capital'
p645
I1029
sS'xcomp=work'
p646
I1415
sS'w-2=forge'
p647
I1121
sS'w+2=program'
p648
I621
sS'w-2=Movement'
p649
I944
sS'w-2=make'
p650
I1197
sS'w-2=society'
p651
I1324
sS'w-2=hotel'
p652
I1153
sS'w-2=list'
p653
I1195
sS'w-2=city'
p654
I1038
sS'w-2=landscape'
p655
I1183
sS'w-1=impact'
p656
I776
sS'w-2=maker'
p657
I1198
sS'w+2=surveillance'
p658
I655
sS'pobj=report'
p659
I155
sS'amod=bilateral'
p660
I2
sS'w-2=management'
p661
I1200
sS'w-2=garden'
p662
I1130
sS'w-2=alongside'
p663
I990
sS'w-1=obese'
p664
I799
sS'w-2=likely'
p665
I1192
sS'w-2=this'
p666
I1358
sS'w-2=Bemba'
p667
I904
sS'w+2=U.S.'
p668
I446
sS'w+2=implicate'
p669
I556
sS'prep=from'
p670
I168
sS'w-2=Havana'
p671
I922
sS'w+2=Eleanor'
p672
I325
sS'amod=regional'
p673
I37
sS'w-2=Kyi'
p674
I936
sS'w-2=size'
p675
I1318
sS'w+2=Mr.'
p676
I395
sS'w+1=,'
p677
I192
sS'w-2=stadium'
p678
I1332
sS'w-2=clear'
p679
I1040
sS'w-2=such'
p680
I1341
sS'w+2=Nina'
p681
I400
sS'w+2=western'
p682
I679
sS'w+1=:'
p683
I194
sS'w-2=Bay'
p684
I903
sS'w-2=high'
p685
I1145
sS'w+2=Shark'
p686
I433
sS'w-2=IAEA'
p687
I925
sS'w+1=a'
p688
I198
sS'w+2=Bloomberg'
p689
I295
sS'w+2=retire'
p690
I636
sS'w+1=U.S.'
p691
I197
sS'w-1=million'
p692
I790
sS'w-2=because'
p693
I1011
sS'w-1=that'
p694
I848
sS'w+2=Auwal'
p695
I292
sS'w-1=base'
p696
I729
sS'w-1=pend'
p697
I808
sS'w-2=people'
p698
I1258
sS'nn=cooperation'
p699
I116
sS'w+2=Darfur'
p700
I314
sS'w-2=Mogadishu'
p701
I942
sS'w-2=run-off'
p702
I1300
sS'w-1=Dayton'
p703
I710
sS'w-2=arrest'
p704
I1000
sS'amod=u.s.-iraq'
p705
I48
sS'nn=freeze'
p706
I120
sS'pcomp=license'
p707
I147
sS'w+2=Elliot'
p708
I326
sS'w+2=PAHO'
p709
I405
sS'w+2=Jay'
p710
I363
sS'pobj=rank'
p711
I154
sS'w+2=only'
p712
I605
sS'nn=Colombia'
p713
I102
sS'w+2=eventually'
p714
I523
sS'w+2=Doug'
p715
I320
sS'w-1=portfolio'
p716
I816
sS'w+2=Howard-Yana'
p717
I348
sS'w-2=star'
p718
I1333
sS'w-2=stay'
p719
I1335
sS'w+2=scientist'
p720
I644
sS'w-2=24'
p721
I887
sS'nn=Doha'
p722
I104
sS'w-2=farm'
p723
I1108
sS'w+2=emergency'
p724
I517
sS'w-1=accord'
p725
I722
sS'w-1=mistake'
p726
I792
sS'w+2=Hill'
p727
I346
sS'w+2=chadian'
p728
I488
sS'w-2=today'
p729
I1364
sS'w-2=mayor'
p730
I1203
sS'w-1=exist'
p731
I759
sS'w+2=to'
p732
I667
sS'w-2=home'
p733
I1150
sS'w-1=heat'
p734
I774
sS'w-2=approve'
p735
I998
sS'w-2=foreigner'
p736
I1120
sS'w+2=who'
p737
I682
sS'w-1=Peace'
p738
I717
sS'pobj=Secretary'
p739
I150
sS'w+2=Elshami'
p740
I327
sS'complm=that'
p741
I59
sS'w+2=iraqi'
p742
I565
sS'w-1=climate'
p743
I739
sS'w-1=really'
p744
I828
sS'w+2=flood'
p745
I530
sS'partmod=destine'
p746
I140
sS'w-2=chinese-sponsored'
p747
I1035
sS'conj=save'
p748
I63
sS'rcmod=lead'
p749
I182
sS'w+2=will'
p750
I685
sS'dep=for'
p751
I74
sS'w+2=President'
p752
I416
sS'w+1=not'
p753
I244
sS'w-2=history'
p754
I1148
sS'w+2=north'
p755
I596
sS'w+1=they'
p756
I260
sS'w-2=future'
p757
I1129
sS'w-1=forward'
p758
I762
sS'w+2=Pyongyang'
p759
I418
sS'prep=in'
p760
I169
sS'w+2=Adolfo'
p761
I278
sS'w-2=kidnapping'
p762
I1180
sS'w+2=McIvor'
p763
I387
sS'w-2=round'
p764
I1299
sS'w-2=skateboarding'
p765
I1319
sS'amod=u.s.-mediated'
p766
I49
sS'w+2=political'
p767
I614
sS'w-2=north'
p768
I1231
sS'w+2=Economic'
p769
I324
sS'w-1=it'
p770
I780
sS'w-2=government'
p771
I1135
sS'w-2=opportunity'
p772
I1241
sS'w-2=black'
p773
I1017
sS'det=this'
p774
I85
sS'w-2=then'
p775
I1355
sS'w-1=in'
p776
I777
sS'w-1=the'
p777
I849
sS'w+2=Jordan'
p778
I368
sS'w-2=implement'
p779
I1160
sS'w+2=Moore'
p780
I393
sS'w-2=sanctuary'
p781
I1302
sS'w+2=not'
p782
I597
sS'w+2=company'
p783
I491
sS'w+2=Lester'
p784
I378
sS'w+2=Motaung'
p785
I394
sS'rcmod=design'
p786
I178
sS'conj=fighting'
p787
I61
sS'w+2=adoption'
p788
I463
sS'rcmod=be'
p789
I177
sS'w-2=donation'
p790
I1081
sS'w-2=believe'
p791
I1013
sS'w-1=March'
p792
I715
sS'xcomp=take'
p793
I1414
sS'w-2=forbid'
p794
I1118
sS'w-2=extinction'
p795
I1104
sS'w+2=regional'
p796
I630
sS'w-2=or'
p797
I1244
sS'w+2=islamic'
p798
I566
sS'w-2=of'
p799
I1235
sS'w+1=can'
p800
I214
sS'w-2=energy'
p801
I1096
sS'w-2=on'
p802
I1239
sS'w+2=Barbara'
p803
I293
sS'w-2=diamond'
p804
I1073
sS'w+2=Somalia'
p805
I435
sS'w-2=follower'
p806
I1116
sS'nsubj=authority'
p807
I132
sS'pobj=number'
p808
I152
sS'w+2=certain'
p809
I487
sS'w-2=attack'
p810
I1005
sS'w-2=productive'
p811
I1275
sS'w+1=as'
p812
I204
sS'w+1=at'
p813
I206
sS'w-1=snuff'
p814
I842
sS'w-2=substance'
p815
I1340
sS'w+2=Grande'
p816
I342
sS'w-1=own'
p817
I802
sS'w+2=so'
p818
I651
sS'w-2=unity'
p819
I1380
sS'w-2=Ankara'
p820
I897
sS'w-2=produce'
p821
I1273
sS'w+2=press'
p822
I620
sS'auxpass=be'
p823
I57
sS'w-1=happen'
p824
I772
sS'w+2=cast'
p825
I485
sS'w+2=Kikuyu'
p826
I371
sS'predet=such'
p827
I162
sS'nn=cease-fire'
p828
I112
sS'w+2=African'
p829
I280
sS'w-2=Taef'
p830
I964
sS'w+2=Austin'
p831
I291
sS'w-2=20,000'
p832
I877
sS'w-2=visit'
p833
I1387
sS'w-2=line-up'
p834
I1194
sS'w-2=even'
p835
I1099
sS'w+2=Dr.'
p836
I321
sS'w-2=survive'
p837
I1344
sS'w-1=emissions-limiting'
p838
I757
sS'w-2=burma'
p839
I1020
sS'w-2=birth'
p840
I1016
sS'w-1=multi-stage'
p841
I794
sS'w+2=preliminary'
p842
I618
sS'nn=Peace'
p843
I108
sS"w-1='s"
p844
I692
sS'w+2=after'
p845
I464
sS'w-2=last'
p846
I1184
sS'w+2=AK'
p847
I274
sS'nsubj=#NUMBER#'
p848
I131
sS'w-2=1997'
p849
I874
sS'w-2=nuclear'
p850
I1234
sS'w-2=1990'
p851
I873
sS'w-2=Syria'
p852
I963
sS'w+1=its'
p853
I241
sS'w-2=1999'
p854
I875
sS"w-1=''"
p855
I691
sS'nn=Oslo'
p856
I107
sS'amod=post-start'
p857
I32
sS'w-1=bilateral'
p858
I733
sS'w-2=most'
p859
I1218
sS'w+1=provide'
p860
I248
sS'w+2=statistics'
p861
I654
sS"w-2=''"
p862
I862
sS'w+2=March'
p863
I382
sS'w-2=reputation'
p864
I1293
sS'w-2=stress'
p865
I1338
sS'w+2=unofficial'
p866
I672
sS'amod=major'
p867
I21
sS'w+1=seal'
p868
I255
sS'w+2=Forbes'
p869
I334
sS'w-2=worse'
p870
I1410
sS'w+2=Rohter'
p871
I421
sS'w+2=Human'
p872
I351
sS'w-2=amend'
p873
I992
sS'w-1=goods'
p874
I768
sS'w-2=England'
p875
I914
sS"w-2='s"
p876
I863
sS'w-2=enemy'
p877
I1095
sS'w+2=replace'
p878
I631
sS'w-2=no'
p879
I1230
sS'w-2=ratify'
p880
I1283
sS'w+1=because'
p881
I209
sS'nn=disarmament'
p882
I117
sS'w-2=essential'
p883
I1098
sS'w+2=South'
p884
I436
sS'w-2=side'
p885
I1315
sS'w-2=accident'
p886
I974
sS'w-2=which'
p887
I1399
sS'w+2=Donald'
p888
I319
sS'amod=israeli-palestinian'
p889
I17
sS'w+2=domestic'
p890
I509
sS'w-2=education'
p891
I1089
sS'w-1=notably'
p892
I797
sS'w-2=Republicans'
p893
I953
sS'w-2=100'
p894
I867
sS'w+2=local'
p895
I578
sS'w-2=closed'
p896
I1044
sS'w-2=Darfur'
p897
I909
sS'w-1=occur'
p898
I800
sS'w+2=culture'
p899
I498
sS'w-2=Forum'
p900
I917
sS'w+2=rough'
p901
I637
sS'prep=with'
p902
I174
sS'amod=previous'
p903
I35
sS'amod=constitutional'
p904
I5
sS'w-2=April'
p905
I898
sS'w+2=Sergei'
p906
I431
sS'w-2=president'
p907
I1271
sS'amod=emissions-limiting'
p908
I8
sS'w+2=de'
p909
I501
sS'w-2=climate'
p910
I1042
sS'w-2=vehicle'
p911
I1383
sS'w+2=turkish'
p912
I669
sS'w+2=Walensky'
p913
I455
sS'w-2=intra-palestinian'
p914
I1174
sS'w+2=Geert'
p915
I336
sS'w-2=living'
p916
I1196
sS'w+2=Milovan'
p917
I391
sS'w-1=50'
p918
I702
sS'w+2=Brima'
p919
I298
sS'amod=current'
p920
I7
sS'w+2=Kiraithe'
p921
I372
sS'w+2=Arab'
p922
I287
sS'w+2=enable'
p923
I518
sS'w-2=Ike'
p924
I926
sS'w-2=permanent'
p925
I1261
sS'w-1=six-nation'
p926
I840
sS'w-2=economy'
p927
I1088
sS'w+2=Phumaphi'
p928
I413
sS'w+2=Japan'
p929
I362
sS'w+2=notably'
p930
I598
sS'cc=and'
p931
I58
sS'w-2=vary'
p932
I1382
sS'w-2=Agip'
p933
I893
sS'w+1=by'
p934
I212
sS'w+1=be'
p935
I208
sS'w-2=answer'
p936
I995
sS'w-2=overseas'
p937
I1249
sS'w-2=war'
p938
I1390
sS'amod=oft-violated'
p939
I26
sS'w-2=way'
p940
I1393
sS'w-2=u.s.-mediated'
p941
I1376
sS'pcomp=aid'
p942
I146
sS'w+2=party'
p943
I610
sS'w+2=public'
p944
I624
sS'w-1=cooperation'
p945
I747
sS'w+2=George'
p946
I337
sS'w-2=spirit'
p947
I1330
sS'nn=Kyoto'
p948
I106
sS'w+2=climate'
p949
I490
sS'w-2=Ethiopia'
p950
I915
sS'w-2=1983'
p951
I872
sS'w-2=ransom'
p952
I1282
sS'w-2=party'
p953
I1253
sS'w+2=geographical'
p954
I539
sS'w-2=communication'
p955
I1050
sS'w-1=least'
p956
I785
sS'w-2=israeli-palestinian'
p957
I1177
sS'w+2=Nadia'
p958
I398
sS'rcmod=give'
p959
I181
sS'w-2=inflation'
p960
I1166
sS'w+2=David'
p961
I316
sS'dep=in'
p962
I75
sS'w+2=Damascus'
p963
I311
sS'nn=Zimbabwe'
p964
I111
sS'w-2=3'
p965
I888
sS'prep=of'
p966
I170
sS'conj=legitimacy'
p967
I62
sS'prep=on'
p968
I171
sS'amod=military'
p969
I22
sS'w+2=implement'
p970
I554
sS'w+2=promise'
p971
I622
sS'w+2=Hirst'
p972
I347
sS'w-2=timeline'
p973
I1362
sS'w+2=Ferrari'
p974
I333
sS'w+2=Georgette'
p975
I338
sS'w+2=later'
p976
I574
sS'w-1=because'
p977
I732
sS'w-2=coup'
p978
I1060
sS'w+2=same'
p979
I640
sS'w+2=that'
p980
I659
sS'w-2=general'
p981
I1131
sS'w-2=system'
p982
I1345
sS'w-2=circumstance'
p983
I1037
sS'w+2=mogadishu-based'
p984
I586
sS'w+2=end'
p985
I519
sS'w-1=contemplated'
p986
I745
sS'w-2=tortured'
p987
I1368
sS'w-2=deficiency'
p988
I1070
sS'w+2=witness'
p989
I687
sS'w-2=limit'
p990
I1193
sS'w-1=plant'
p991
I812
sS'w-1=so'
p992
I843
sS'nn=party'
p993
I124
sS'w+2=Germany'
p994
I339
sS'w-1=plane'
p995
I811
sS'w+2=into'
p996
I564
sS'w-2=will'
p997
I1404
sS'w+2=Larry'
p998
I376
sS'w-2=technology'
p999
I1348
sS'w-2=warming'
p1000
I1391
sS'w-2=island'
p1001
I1176
sS'w+2=Volk'
p1002
I454
sS'w+2=announce'
p1003
I470
sS'w-2=not'
p1004
I1232
sS'w-2=now'
p1005
I1233
sS'amod=exist'
p1006
I9
sS'w-2=at'
p1007
I1004
sS'w-2=as'
p1008
I1001
sS'w-2=man'
p1009
I1199
sS'nn=government'
p1010
I121
sS'amod=interim'
p1011
I15
sS'nn=U.S.-Iraq'
p1012
I110
sS'w-1=power'
p1013
I820
sS'w-2=across'
p1014
I976
sS'w+2=infectious'
p1015
I560
sS'w+1=during'
p1016
I224
sS'w-2=out'
p1017
I1247
sS'amod=revise'
p1018
I38
sS'w-2=Bank'
p1019
I902
sS'w-2=sign'
p1020
I1316
sS'det=a'
p1021
I80
sS'dep=find'
p1022
I73
sS'w-2=plane'
p1023
I1264
sS'w-2=oft-violated'
p1024
I1237
sS'w-2=source'
p1025
I1327
sS'w-2=February'
p1026
I916
sS'w-1=ballot'
p1027
I728
sS'w+2=due'
p1028
I511
sS'w-1=CPA'
p1029
I708
sS'amod=second'
p1030
I39
sS'w-1=stockholder'
p1031
I846
sS'w+2=design'
p1032
I503
sS'w-1=seat'
p1033
I832
sS'w-1=property'
p1034
I824
sS'w+2=Steve'
p1035
I438
sS'w-2=donor'
p1036
I1082
sS'w+2=Senegal'
p1037
I429
sS'aux=to'
p1038
I55
sS'w+2=Bates'
p1039
I294
sS'amod=free'
p1040
I11
sS'w-2=evidence'
p1041
I1101
sS'w-1=sought-after'
p1042
I844
sS'w-2=region'
p1043
I1287
sS'w+2=most'
p1044
I589
sS'w+2=jordanian'
p1045
I571
sS'w+2=exit'
p1046
I524
sS'prep=during'
p1047
I166
sS'w+2=Todd'
p1048
I444
sS'w-2=East'
p1049
I913
sS'rcmod=enshrine'
p1050
I180
sS'w-2=Australia'
p1051
I900
sS'w+2=University'
p1052
I451
sS'amod=last-ditch'
p1053
I18
sS'w-2=whole'
p1054
I1402
sS'rcmod=return'
p1055
I187
sS'w-1=continue'
p1056
I746
sS'w-1=not'
p1057
I796
sS'amod=two-state'
p1058
I47
sS'w-2=force'
p1059
I1119
sS'w+2=document'
p1060
I508
sS'w-2=Dayton'
p1061
I911
sS'w-2=mistake'
p1062
I1214
sS'w+2=State'
p1063
I437
sS'w-2=Darod'
p1064
I910
sS'w+2=Michael'
p1065
I389
sS'w-2=2011'
p1066
I884
sS'amod=multi-stage'
p1067
I23
sS'advmod=doubt'
p1068
I0
sS'w+2=number'
p1069
I599
sS'w+2=SLM'
p1070
I424
sS'w-2=election'
p1071
I1091
sS'w+2=Iran'
p1072
I355
sS'w-1=partnership'
p1073
I804
sS'w-1=establish'
p1074
I758
sS'w-2=shipment'
p1075
I1312
sS'w-2=faction'
p1076
I1106
sS'w-2=they'
p1077
I1357
sS'w+2=Dave'
p1078
I315
sS'w+2=Reuvan'
p1079
I419
sS'prep=between'
p1080
I165
sS'w-2=country'
p1081
I1059
sS'w-2=Americas'
p1082
I896
sS'w+2=doctor'
p1083
I507
sS'w-2=Israelis'
p1084
I933
sS'w+2=Kortunov'
p1085
I373
sS'w-2=release'
p1086
I1289
sS'dobj=Kosovo'
p1087
I86
sS'w-2=campaign'
p1088
I1027
sS'w+2=Jallow'
p1089
I360
sS'w-1=be'
p1090
I731
sS'w-1=day'
p1091
I750
sS'w+2=self'
p1092
I645
sS'w+2=Texas'
p1093
I439
sS'w-2=final'
p1094
I1109
sS'w-1=truce'
p1095
I855
sS'w+2=intense'
p1096
I562
sS'w-1=final'
p1097
I761
sS'w-1=Bilgi'
p1098
I707
sS'w+2=Oliver'
p1099
I403
sS'w+2=what'
p1100
I680
sS'w+1=collapse'
p1101
I215
sS'w-1=which'
p1102
I857
sS'w-2=Britain'
p1103
I905
sS'dep=include'
p1104
I76
sS'w-1=polygamy'
p1105
I814
sS'w-2=effort'
p1106
I1090
sS'w-1=only'
p1107
I801
sS'w+2=by'
p1108
I483
sS'w+2=industrialize'
p1109
I559
sS'w+2=be'
p1110
I477
sS'w-2=group'
p1111
I1140
sS'w+2=president'
p1112
I619
sS'w-2=ton'
p1113
I1366
sS'nsubjpass=#PRP#'
p1114
I134
sS'w+2=russian'
p1115
I639
sS'w-2=Djibouti'
p1116
I912
sS'aux=would'
p1117
I56
sS'w-2=innovator'
p1118
I1169
sS'w+2=historian'
p1119
I550
sS'w+2=analyst'
p1120
I468
sS'w-2=top'
p1121
I1367
sS'w+1=end'
p1122
I227
sS'w+2=Pakistan'
p1123
I407
sS'amod=preliminary'
p1124
I34
sS'w-1=population'
p1125
I815
sS'w+2=Chad'
p1126
I305
sS'w+1=and'
p1127
I201
sS'w+2=german'
p1128
I540
sS'dobj=asylum'
p1129
I87
sS'w+2=numerous'
p1130
I600
sS'w+2=Nyoro'
p1131
I402
sS'w-2=special'
p1132
I1329
sS'w-2=worried'
p1133
I1409
sS'w-2=souvenir'
p1134
I1328
sS'w+2=police'
p1135
I613
sS'w+2=Marina'
p1136
I383
sS'w+2=should'
p1137
I648
sS'w-1=proportionally'
p1138
I825
sS'w-1=legal'
p1139
I786
sS'nn=peace'
p1140
I125
sS'w-2=intelligence'
p1141
I1171
sS'w-2=lady'
p1142
I1182
sS'w+2=Jaber'
p1143
I359
sS'w-2=Kyoto'
p1144
I937
sS'w+2=Brad'
p1145
I297
sS'w+1=have'
p1146
I236
sS'w-2=ago'
p1147
I981
sS'w+2=similar'
p1148
I650
sS'w-2=age'
p1149
I979
sS'w+2=2007'
p1150
I271
sS'w+2=2005'
p1151
I270
sS'w+2=2000'
p1152
I269
sS'w+1=put'
p1153
I249
sS'w+2=Sabiha'
p1154
I425
sS'w+2=2008'
p1155
I272
sS'w+2=Alterman'
p1156
I283
sS'w-2=shoe'
p1157
I1313
sS'amod=past'
p1158
I28
sS'w+2=more'
p1159
I588
sS'w+2=Kurdish'
p1160
I374
sS'w-2=Clinton'
p1161
I908
sS'w-1=dead'
p1162
I751
sS'w-1=sin'
p1163
I839
sS'w+2=Brown'
p1164
I299
sS'w+2=citizen'
p1165
I489
sS'w-1=landmark'
p1166
I781
sS'w+2=Desha'
p1167
I317
sS'nsubjpass=minister'
p1168
I135
sS'w-2=oppose'
p1169
I1242
sS'w-2=phenomenon'
p1170
I1262
sS'w-1=frame'
p1171
I763
sS'w-1=freeze'
p1172
I765
sS'w+2=dispute'
p1173
I506
sS'w-1=U.S.-Iraq'
p1174
I719
sS'w-1=country'
p1175
I748
sS'w-2=military'
p1176
I1209
sS'w-2=challenge'
p1177
I1033
sS'w-2=air'
p1178
I985
sS'w-2=aid'
p1179
I983
sS'w+2=three'
p1180
I665
sS'w-2=aim'
p1181
I984
sS'w+2=jewish'
p1182
I570
sS'w+2=Zo'
p1183
I460
sS'w-2=illegally'
p1184
I1158
sS'rcmod=take'
p1185
I189
sS'w-2=materialize'
p1186
I1202
sS'w-1=unpopular'
p1187
I856
sS'w-2=internet'
p1188
I1173
sS'w-2=together'
p1189
I1365
sS'amod=similar'
p1190
I42
sS'w-2=ground'
p1191
I1139
sS'w+2=at'
p1192
I474
sS'w+2=as'
p1193
I473
sS'w-2=Asia'
p1194
I899
sS'w+1=would'
p1195
I266
sS'w+1=expire'
p1196
I230
sS'w+2=could'
p1197
I496
sS'w+2=India'
p1198
I353
sS'pcomp=to'
p1199
I149
sS'w-1=post'
p1200
I818
sS'w-2=breastfeeding'
p1201
I1018
sS'w-1=inherit'
p1202
I778
sS'w+2=implementation'
p1203
I555
sS'amod=separate'
p1204
I40
sS'w-2=drug'
p1205
I1085
sS'w-2=reform'
p1206
I1286
sS'w-2=Paris'
p1207
I950
sS'w+2=plan'
p1208
I612
sS'w+2=she'
p1209
I647
sS'w+2=with'
p1210
I686
sS'w+2=Christian'
p1211
I306
sS'w-1=compensation'
p1212
I742
sS'amod=contemplated'
p1213
I6
sS'w-2=hospital'
p1214
I1152
sS'w-1=disaster'
p1215
I753
sS'iobj=economy'
p1216
I96
sS'w+2=aid'
p1217
I466
sS'w-2=violence'
p1218
I1386
sS'w-2=month'
p1219
I1217
sS'w+2=provisional'
p1220
I623
sS'w+2=of'
p1221
I602
sS'dep=narrow'
p1222
I77
sS'w+2=Arthur'
p1223
I289
sS'w-2=amendment'
p1224
I993
sS'w-2=change'
p1225
I1034
sS'w-2=strike'
p1226
I1339
sS'w-1=propose'
p1227
I826
sS'w-2=kill'
p1228
I1181
sS'rcmod=aim'
p1229
I175
sS'w+2=ExxonMobil'
p1230
I331
sS'w-2=death'
p1231
I1067
sS'w-1=power-sharing'
p1232
I821
sS'w+2=half'
p1233
I545
sS'w-2=meat'
p1234
I1204
sS'w-2=incursion'
p1235
I1163
sS'w-2=remain'
p1236
I1290
sS'w+1=over'
p1237
I247
sS'w-1=status'
p1238
I845
sS'w-2=Iraq'
p1239
I928
sS'w+2=Crystia'
p1240
I310
sS'w+2=Pentagon'
p1241
I411
sS'aux=do'
p1242
I53
sS'w-2=problem'
p1243
I1272
sS'w+2=news'
p1244
I595
sS'w+2=cope'
p1245
I495
sS'w-2=right'
p1246
I1298
sS'nn=Abuja'
p1247
I99
sS'w+2=another'
p1248
I471
sS'w-2=13'
p1249
I869
sS'w+2=gam'
p1250
I537
sS'w+2=Daniel'
p1251
I313
sS'w+2=routine'
p1252
I638
sS'w+2=Portuguese'
p1253
I415
sS'w-2=reach'
p1254
I1284
sS'w+2=Mark'
p1255
I384
sS'rcmod=say'
p1256
I188
sS'w-2=memorial'
p1257
I1205
sS'w-2=nation'
p1258
I1220
sS'w+2=Mary'
p1259
I385
sS'w-2=constant'
p1260
I1055
sS'w+2=neighbor'
p1261
I593
sS'amod=last-minute'
p1262
I19
sS'w-1=six-party'
p1263
I841
sS'w-2=alone'
p1264
I989
sS'nn=Dayton'
p1265
I103
sS'w-2=restriction'
p1266
I1294
sS'w+2=help'
p1267
I549
sS'w+2=Diallo'
p1268
I318
sS'num=#NUMBER#'
p1269
I136
sS'w-2=accept'
p1270
I973
sS"w+2=''"
p1271
I267
sS'w-2=conviction'
p1272
I1056
sS'w-1=this'
p1273
I851
sS'w-2=exist'
p1274
I1103
sS'w-2=institution'
p1275
I1170
sS'w+1=follow'
p1276
I232
sS'w-2=woman'
p1277
I1407
sS'w-2=bidding'
p1278
I1014
sS'w+2=van'
p1279
I674
sS'w-2=separate'
p1280
I1306
sS'amod=broad'
p1281
I3
sS'w+2=Aceh'
p1282
I275
sS'w-2=Iowa'
p1283
I927
sS'w+1=also'
p1284
I200
sS'w-2=flood'
p1285
I1113
sS'rcmod=require'
p1286
I185
sS'w-2=french'
p1287
I1125
sS'w-1=but'
p1288
I735
sS'nn=security'
p1289
I127
sS'w-2=however'
p1290
I1155
sS'w-1=health'
p1291
I773
sS'w+2=group'
p1292
I544
sS'pobj=account'
p1293
I151
sS"w+1=''"
p1294
I190
sS'w-1=post-start'
p1295
I819
sS'w-2=June'
p1296
I934
sS'w-1=Thursday'
p1297
I718
sS'w-1=commander'
p1298
I741
sS'w-2=assistance'
p1299
I1003
sS'w+2=negotiation'
p1300
I592
sS'w-1=Kyoto'
p1301
I714
sS'w-2=McCain'
p1302
I940
sS'w-1=govern'
p1303
I769
sS'w-2=PKK'
p1304
I949
sS'w-2=authority'
p1305
I1006
sS"w+1='s"
p1306
I191
sS'w-2=be'
p1307
I1010
sS'w+2=global'
p1308
I542
sS'w-2=collapse'
p1309
I1047
sS'w-1=life'
p1310
I787
sS'w+2=Ethiopia'
p1311
I328
sS'w+2=Mendel'
p1312
I388
sS'w+2=Uruguay'
p1313
I452
sS'w-2=by'
p1314
I1023
sS'w+2=human'
p1315
I552
sS'w+2=widely'
p1316
I683
sS'dobj=representation'
p1317
I92
sS'w+1=.'
p1318
I193
sS'nn=response'
p1319
I126
sS'w-2=coast'
p1320
I1046
sS'w-2=battle'
p1321
I1009
sS'w-2=ever'
p1322
I1100
sS'w+2=writer'
p1323
I689
sS'w+2=information'
p1324
I561
sS'w+2=post'
p1325
I617
sS'w-1=place'
p1326
I810
sS'w-1=leader'
p1327
I784
sS'conj=status'
p1328
I64
sS'pcomp=materials-scientist'
p1329
I148
sS'w+2=and'
p1330
I469
sS'w+2=Jim'
p1331
I366
sS'w+2=veteran'
p1332
I676
sS'w+1=necessarily'
p1333
I243
sS'w-2=Gaza'
p1334
I919
sS'cop=be'
p1335
I68
sS'w-2=reject'
p1336
I1288
sS'w-2=prosperity'
p1337
I1277
sS'w-1=military'
p1338
I789
sS'w-2=minister'
p1339
I1211
sS'w-1=treat'
p1340
I854
sS'w-2=say'
p1341
I1303
sS'w+2=the'
p1342
I660
sS'w+2=Poghisio'
p1343
I414
sS'prep=as'
p1344
I164
sS'amod=permanent'
p1345
I30
sS'w+2=Hassan'
p1346
I345
sS'w-2=greatly'
p1347
I1138
sS'w-2=2017'
p1348
I886
sS'w-2=2015'
p1349
I885
sS'w-2=but'
p1350
I1022
sS'w+2=Panasonic'
p1351
I409
sS'w-2=u.s.-indian'
p1352
I1374
sS'w-1=.'
p1353
I697
sS'w-1=-'
p1354
I694
sS'w-1=,'
p1355
I693
sS'w-2=production'
p1356
I1274
sS'w-2=allocate'
p1357
I988
sS'w+2=israeli'
p1358
I567
sS'rcmod=president'
p1359
I184
sS'w-1=collect'
p1360
I740
sS'w+2=one'
p1361
I604
sS'w+1=exceed'
p1362
I229
sS'w-1=1997'
p1363
I701
sS'w-2=free'
p1364
I1123
sS'w-2=Malawi'
p1365
I938
sS'w-2=proportional'
p1366
I1276
sS'w-2=client'
p1367
I1041
sS'w+2=I'
p1368
I352
sS'w-1=a'
p1369
I721
sS'w-2=late'
p1370
I1185
sS'nn=truce'
p1371
I130
sS'w+2=sign'
p1372
I649
sS'w-2=so'
p1373
I1323
sS'w+1=hold'
p1374
I237
sS'w-2=House'
p1375
I924
sS'w+2=portion'
p1376
I616
sS'w-1=-rrb-'
p1377
I696
sS'w-1=response'
p1378
I830
sS'w+2=mediator'
p1379
I584
sS'w+1=again'
p1380
I199
sS'w+2=Sarah'
p1381
I426
sS'w+2=they'
p1382
I662
sS'w+1=must'
p1383
I242
sS'w+2=USAID'
p1384
I449
sS'w-2=year'
p1385
I1412
sS'w-1=previous'
p1386
I823
sS'poss=country'
p1387
I159
sS'w+2=cooperate'
p1388
I494
sS'w+2=taste'
p1389
I658
sS'w-2=choice'
p1390
I1036
sS'partmod=define'
p1391
I139
sS'w-1=current'
p1392
I749
sS'w+2=Xu'
p1393
I458
sS'w+2=court'
p1394
I497
sS'w+1=run'
p1395
I253
sS'w-2=doubt'
p1396
I1083
sS'w+1=consider'
p1397
I218
sS'amod=sought-after'
p1398
I45
sS'w-2=start'
p1399
I1334
sS'w-2=help'
p1400
I1144
sS'w-1=framework'
p1401
I764
sS'amod=final'
p1402
I10
sS'w-1=broad'
p1403
I734
sS'w-2=latest'
p1404
I1186
sS'w-2=secret'
p1405
I1304
sS'w+2=Tiendrebeogo'
p1406
I443
sS'w-2=population'
p1407
I1268
sS'w+2=,'
p1408
I268
sS'nn=Algiers'
p1409
I100
sS'w-2=past'
p1410
I1255
sS'w-2=sick'
p1411
I1314
sS'w+2=current'
p1412
I499
sS'w+2=Lyons'
p1413
I379
sS'w-2=poverty'
p1414
I1270
sS'w+2=Zimbabwe'
p1415
I459
sS'w+1=conclude'
p1416
I217
sS'w+2=ABAC'
p1417
I273
sS'w-2=water'
p1418
I1392
sS'w+1=but'
p1419
I211
sS'w-2=exercise'
p1420
I1102
sS'w-2=interim'
p1421
I1172
sS'w-1=illegal'
p1422
I775
sS'w+2=a'
p1423
I461
ssS'dtype'
p1424
cnumpy
float64
p1425
sS'feature_names_'
p1426
(lp1427
g1068
ag126
ag660
ag1281
ag221
ag904
ag1213
ag920
ag908
ag1006
ag1402
ag1040
ag536
ag191
ag427
ag1011
ag612
ag889
ag1053
ag1262
ag617
ag867
ag969
ag1067
ag194
ag203
ag939
ag570
ag1158
ag421
ag1345
ag458
ag857
ag506
ag1124
ag903
ag229
ag673
ag1018
ag1030
ag1204
ag317
ag1190
ag624
ag97
ag1398
ag136
ag1058
ag705
ag766
ag511
ag113
ag539
ag1242
ag632
ag1038
ag1117
ag823
ag931
ag741
ag574
ag787
ag967
ag748
ag1328
ag525
ag251
ag365
ag1335
ag470
ag72
ag497
ag84
ag1022
ag751
ag962
ag1104
ag1222
ag432
ag443
ag1021
ag163
ag12
ag161
ag439
ag774
ag1087
ag1129
ag546
ag128
ag366
ag468
ag1317
ag591
ag166
ag162
ag1216
ag335
ag263
ag1247
ag1409
ag259
ag713
ag1265
ag722
ag535
ag948
ag856
ag843
ag395
ag1012
ag964
ag828
ag403
ag149
ag206
ag699
ag882
ag475
ag301
ag706
ag1010
ag490
ag399
ag993
ag1140
ag1319
ag1289
ag467
ag587
ag1371
ag848
ag807
ag145
ag1114
ag1168
ag1269
ag404
ag129
ag1391
ag746
ag396
ag405
ag542
ag154
ag214
ag942
ag707
ag1329
ag1199
ag739
ag1293
ag808
ag505
ag711
ag659
ag254
ag504
ag315
ag1387
ag31
ag261
ag827
ag392
ag1344
ag1080
ag1047
ag83
ag670
ag760
ag966
ag968
ag456
ag411
ag902
ag1229
ag36
ag789
ag786
ag109
ag1050
ag959
ag749
ag320
ag1359
ag1286
ag618
ag1055
ag1256
ag1185
ag1294
ag1306
ag677
ag1318
ag683
ag339
ag155
ag691
ag688
ag1380
ag1284
ag1127
ag54
ag598
ag812
ag431
ag813
ag462
ag935
ag881
ag189
ag1419
ag934
ag454
ag800
ag1101
ag578
ag1416
ag1397
ag308
ag527
ag406
ag282
ag635
ag1016
ag523
ag350
ag1122
ag321
ag1362
ag1196
ag250
ag1276
ag407
ag372
ag28
ag1146
ag1374
ag242
ag508
ag568
ag853
ag1383
ag1333
ag753
ag46
ag52
ag1237
ag860
ag1153
ag610
ag633
ag11
ag1395
ag515
ag868
ag39
ag522
ag363
ag67
ag756
ag500
ag483
ag294
ag237
ag620
ag1195
ag1271
ag1408
ag1152
ag1151
ag1150
ag1155
ag1417
ag847
ag1282
ag466
ag494
ag761
ag187
ag829
ag18
ag152
ag1156
ag438
ag172
ag108
ag922
ag426
ag1223
ag283
ag831
ag695
ag803
ag1039
ag689
ag397
ag1145
ag919
ag1164
ag288
ag496
ag595
ag482
ag451
ag1126
ag1211
ag303
ag601
ag354
ag1240
ag963
ag202
ag1251
ag700
ag1078
ag961
ag1167
ag1268
ag888
ag715
ag836
ag260
ag445
ag769
ag672
ag708
ag740
ag1311
ag611
ag555
ag1230
ag77
ag974
ag869
ag85
ag915
ag946
ag975
ag994
ag495
ag139
ag816
ag622
ag637
ag1346
ag727
ag972
ag717
ag99
ag579
ag872
ag1368
ag1198
ag512
ag1072
ag630
ag269
ag153
ag1143
ag1089
ag334
ag929
ag710
ag115
ag24
ag1331
ag276
ag778
ag102
ag413
ag826
ag921
ag1085
ag1160
ag486
ag998
ag311
ag784
ag1413
ag567
ag370
ag863
ag1136
ag1255
ag1259
ag309
ag763
ag1312
ag1065
ag583
ag917
ag233
ag780
ag785
ag676
ag238
ag390
ag958
ag349
ag681
ag277
ag1131
ag1099
ag212
ag709
ag70
ag1123
ag563
ag1351
ag79
ag1241
ag258
ag928
ag1343
ag1253
ag752
ag255
ag759
ag1079
ag476
ag871
ag143
ag140
ag1070
ag1154
ag1381
ag64
ag481
ag1037
ag343
ag906
ag592
ag686
ag30
ag805
ag884
ag1063
ag1035
ag1093
ag92
ag91
ag478
ag1406
ag1048
ag529
ag668
ag298
ag249
ag1384
ag639
ag1052
ag1313
ag133
ag1002
ag913
ag235
ag13
ag1393
ag1415
ag1183
ag1423
ag577
ag788
ag845
ag408
ag1217
ag243
ag1120
ag1330
ag1003
ag1248
ag369
ag1193
ag1192
ag38
ag489
ag1110
ag355
ag596
ag130
ag362
ag20
ag1108
ag101
ag825
ag53
ag809
ag728
ag1165
ag949
ag783
ag327
ag112
ag1388
ag1245
ag1197
ag1394
ag899
ag1412
ag127
ag909
ag582
ag1032
ag472
ag239
ag1173
ag1083
ag1060
ag890
ag444
ag1028
ag281
ag14
ag241
ag313
ag493
ag724
ag923
ag985
ag521
ag104
ag360
ag714
ag1046
ag95
ag312
ag575
ag441
ag382
ag745
ag419
ag304
ag378
ag100
ag273
ag76
ag1250
ag557
ag954
ag1128
ag252
ag1308
ag310
ag1292
ag1233
ag491
ag300
ag164
ag1267
ag1119
ag418
ag1315
ag385
ag970
ag1203
ag669
ag386
ag581
ag1109
ag1015
ag1324
ag1096
ag21
ag996
ag742
ag798
ag1358
ag388
ag541
ag1182
ag1045
ag125
ag55
ag976
ag48
ag569
ag608
ag895
ag247
ag533
ag364
ag40
ag471
ag1379
ag420
ag984
ag452
ag1159
ag1044
ag147
ag17
ag1300
ag1261
ag199
ag1244
ag755
ag782
ag930
ag1069
ag1130
ag71
ag1221
ag429
ag1361
ag712
ag603
ag449
ag531
ag519
ag943
ag641
ag1208
ag1135
ag767
ag231
ag1376
ag1325
ag842
ag1112
ag822
ag648
ag971
ag1220
ag944
ag442
ag485
ag341
ag58
ag32
ag796
ag878
ag190
ag513
ag178
ag295
ag690
ag901
ag1252
ag1115
ag979
ag437
ag479
ag447
ag720
ag1092
ag33
ag1209
ag1137
ag1372
ag1148
ag818
ag564
ag484
ag861
ag658
ag530
ag401
ag1389
ag980
ag1342
ag124
ag1382
ag186
ag516
ag1180
ag381
ag732
ag498
ag912
ag119
ag267
ag866
ag543
ag1279
ag319
ag1332
ag359
ag423
ag682
ag1100
ag585
ag737
ag1316
ag415
ag750
ag1210
ag989
ag297
ag1323
ag492
ag855
ag844
ag1355
ag1354
ag422
ag1377
ag1353
ag169
ag10
ag457
ag1363
ag918
ag326
ag306
ag417
ag584
ag1098
ag1029
ag151
ag703
ag548
ag590
ag141
ag1301
ag792
ag550
ag738
ag1297
ag1174
ag302
ag1369
ag725
ag538
ag503
ag507
ag60
ag57
ag1027
ag696
ag176
ag1090
ag977
ag858
ag1403
ag1288
ag86
ag572
ag414
ag743
ag1360
ag1298
ag1212
ag246
ag502
ag986
ag1056
ag945
ag1175
ag1392
ag1091
ag1162
ag80
ag1215
ag384
ag137
ag330
ag838
ag1074
ag731
ag593
ag1097
ag758
ag1171
ag1401
ag1172
ag410
ag193
ag874
ag1303
ag398
ag265
ag824
ag1291
ag734
ag1422
ag656
ag776
ag1202
ag562
ag770
ag1166
ag9
ag342
ag1327
ag956
ag1139
ag1310
ag8
ag1338
ag692
ag373
ag726
ag73
ag841
ag29
ag1057
ag892
ag285
ag664
ag898
ag1107
ag817
ag416
ag1073
ag138
ag402
ag232
ag697
ag240
ag1326
ag995
ag991
ag613
ag1105
ag1125
ag716
ag93
ag1200
ag1295
ag1013
ag1232
ag353
ag1386
ag1034
ag1138
ag1227
ag460
ag744
ag371
ag1378
ag367
ag1033
ag391
ag459
ag389
ag256
ag296
ag87
ag1163
ag926
ag1263
ag814
ag992
ag1042
ag1238
ag1031
ag257
ag694
ag777
ag266
ag1273
ag107
ag89
ag1340
ag1095
ag1187
ag1102
ag105
ag461
ag480
ag586
ag862
ag876
ag626
ag627
ag628
ag894
ag434
ag1249
ag181
ag270
ag951
ag851
ag849
ag854
ag205
ag832
ag234
ag47
ag49
ag50
ag245
ag51
ag1066
ag1349
ag1348
ag721
ag965
ag94
ag636
ag634
ag59
ag933
ag227
ag329
ag1082
ag820
ag905
ag1194
ag1051
ag400
ag1019
ag684
ag667
ag1103
ag184
ag132
ag1161
ag897
ag1064
ag1061
ag1116
ag1049
ag875
ag950
ag1026
ag900
ag16
ag1334
ag271
ag602
ag671
ag631
ag1375
ag687
ag924
ag1283
ag1239
ag150
ag44
ag514
ag394
ag1084
ag1296
ag219
ag674
ag1144
ag1365
ag305
ag1302
ag540
ag701
ag629
ag649
ag26
ag528
ag337
ag332
ag1304
ag1207
ag75
ag217
ag893
ag322
ag576
ag121
ag607
ag324
ag96
ag188
ag228
ag348
ag852
ag830
ag279
ag116
ag336
ag175
ag299
ag347
ag566
ag644
ag1270
ag886
ag82
ag1014
ag248
ag340
ag1149
ag210
ag1147
ag223
ag1179
ag1181
ag1178
ag142
ag61
ag1357
ag1264
ag663
ag198
ag873
ag1224
ag286
ag936
ag289
ag292
ag735
ag201
ag704
ag1008
ag450
ag1299
ag1007
ag810
ag1305
ag571
ag453
ag1321
ag1307
ag693
ag43
ag791
ag1278
ag165
ag840
ag773
ag1201
ag179
ag839
ag440
ag1350
ag1314
ag173
ag230
ag144
ag1088
ag544
ag645
ag35
ag331
ag222
ag1177
ag1225
ag747
ag1390
ag983
ag654
ag171
ag679
ag1367
ag910
ag560
ag896
ag204
ag1320
ag1309
ag554
ag135
ag955
ag520
ag559
ag534
ag106
ag1260
ag1272
ag597
ag436
ag1081
ag978
ag435
ag357
ag615
ag580
ag545
ag487
ag1231
ag526
ag158
ag988
ag473
ag561
ag804
ag118
ag220
ag433
ag225
ag207
ag183
ag111
ag790
ag1036
ag1396
ag122
ag1205
ag134
ag287
ag927
ag891
ag1106
ag1071
ag120
ag477
ag131
ag877
ag801
ag553
ag883
ag835
ag1322
ag1041
ag1420
ag1274
ag795
ag640
ag1076
ag333
ag723
ag1094
ag474
ag63
ag524
ag1285
ag623
ag642
ag806
ag345
ag794
ag1059
ag736
ag647
ag638
ag1364
ag616
ag1287
ag146
ag195
ag272
ag757
ag662
ag981
ag177
ag621
ag356
ag771
ag510
ag352
ag1347
ag1191
ag1111
ag27
ag293
ag325
ag1400
ag685
ag278
ag379
ag754
ag78
ag733
ag275
ag1214
ag652
ag123
ag1290
ag643
ag208
ag1184
ag156
ag779
ag56
ag209
ag1235
ag323
ag114
ag960
ag551
ag552
ag1118
ag1275
ag1141
ag1421
ag1188
ag914
ag88
ag1001
ag957
ag318
ag215
ag762
ag1228
ag1142
ag655
ag846
ag1370
ag1404
ag609
ag606
ag375
ag110
ag19
ag665
ag990
ag834
ag653
ag916
ag650
ag657
ag1009
ag661
ag380
ag1186
ag730
ag1234
ag1257
ag358
ag316
ag600
ag1176
ag192
ag1339
ag328
ag182
ag1062
ag65
ag424
ag1219
ag859
ag159
ag1258
ag499
ag346
ag23
ag501
ag589
ag74
ag619
ag22
ag253
ag879
ag768
ag1004
ag1005
ag850
ag799
ag344
ag1024
ag465
ag802
ag291
ag772
ag1169
ag625
ag797
ag81
ag307
ag1017
ag160
ag937
ag157
ag218
ag558
ag953
ag274
ag1410
ag200
ag565
ag698
ag430
ag594
ag925
ag1170
ag549
ag1023
ag25
ag41
ag174
ag1407
ag518
ag1414
ag907
ag1243
ag821
ag1356
ag811
ag1366
ag1337
ag196
ag262
ag605
ag170
ag952
ag880
ag1254
ag588
ag1206
ag1043
ag1336
ag1086
ag1236
ag244
ag37
ag864
ag1266
ag224
ag448
ag374
ag1246
ag764
ag702
ag15
ag781
ag1341
ag1405
ag428
ag1280
ag264
ag547
ag425
ag463
ag464
ag1075
ag1157
ag1411
ag885
ag1020
ag537
ag675
ag765
ag167
ag383
ag103
ag1373
ag651
ag117
ag236
ag1025
ag1134
ag1132
ag947
ag488
ag678
ag718
ag1399
ag719
ag446
ag556
ag865
ag1226
ag815
ag680
ag226
ag509
ag837
ag982
ag455
ag98
ag999
ag469
ag377
ag180
ag68
ag66
ag376
ag775
ag211
ag1077
ag666
ag69
ag290
ag42
ag973
ag284
ag729
ag1189
ag1113
ag1121
ag987
ag604
ag90
ag62
ag599
ag280
ag1352
ag361
ag941
ag216
ag268
ag532
ag819
ag148
ag932
ag911
ag517
ag393
ag1218
ag833
ag614
ag412
ag938
ag1000
ag1418
ag940
ag351
ag314
ag387
ag338
ag213
ag887
ag368
ag45
ag1054
ag409
ag997
ag34
ag197
ag1277
ag168
ag1133
ag870
ag185
ag1385
ag573
ag793
ag646
asS'separator'
p1428
S'='
sS'sparse'
p1429
I01
sb.