ccopy_reg
_reconstructor
p1
(csklearn.feature_extraction.dict_vectorizer
DictVectorizer
p2
c__builtin__
object
p3
NtRp4
(dp5
S'sort'
p6
I01
sS'feature_names_'
p7
(lp8
S'advcl=ask'
p9
aS'advcl=bring'
p10
aS'advcl=have'
p11
aS'advmod=nothing'
p12
aS'advmod=quickly'
p13
aS'amod=first'
p14
aS'amod=natural'
p15
aS'amod=positive'
p16
aS'aux=have'
p17
aS'aux=to'
p18
aS'cc=and'
p19
aS'cc=but'
p20
aS'ccomp=#NUMBER#'
p21
aS'ccomp=ask'
p22
aS'ccomp=bail'
p23
aS'ccomp=be'
p24
aS'ccomp=dirtier'
p25
aS'ccomp=do'
p26
aS'ccomp=incalculable'
p27
aS'ccomp=know'
p28
aS'ccomp=lower'
p29
aS'ccomp=play'
p30
aS'ccomp=say'
p31
aS'ccomp=see'
p32
aS'ccomp=seek'
p33
aS'ccomp=talk'
p34
aS'ccomp=task'
p35
aS'ccomp=understand'
p36
aS'ccomp=war'
p37
aS'complm=that'
p38
aS'conj=give'
p39
aS'conj=have'
p40
aS'dep=forget'
p41
aS'dep=man'
p42
aS'det=a'
p43
aS'det=the'
p44
aS'dobj=Khalilzad'
p45
aS'nsubj=#PRP#'
p46
aS'nsubj=Bernanke'
p47
aS'nsubj=Bush'
p48
aS'nsubj=Connaughton'
p49
aS'nsubj=Ethiopia'
p50
aS'nsubj=Gates'
p51
aS'nsubj=Kim'
p52
aS'nsubj=Kyl'
p53
aS'nsubj=Maliki'
p54
aS'nsubj=McCain'
p55
aS'nsubj=McCaskill'
p56
aS'nsubj=McPherson'
p57
aS'nsubj=Putin'
p58
aS'nsubj=Romney'
p59
aS'nsubj=Schaffer'
p60
aS'nsubj=candidate'
p61
aS'nsubj=confidant'
p62
aS'nsubj=friend'
p63
aS'nsubj=general'
p64
aS'nsubj=leader'
p65
aS'parataxis=be'
p66
aS'partmod=ask'
p67
aS'partmod=press'
p68
aS'partmod=speak'
p69
aS'poss=#PRP#'
p70
aS'prep=in'
p71
aS'prep=include'
p72
aS'prep=of'
p73
aS'prep=on'
p74
aS'prep=to'
p75
aS'tmod=Judge'
p76
aS'w+1=,'
p77
aS'w+1=.'
p78
aS'w+1=:'
p79
aS'w+1=Khalilzad'
p80
aS'w+1=back'
p81
aS'w+1=be'
p82
aS'w+1=he'
p83
aS'w+1=in'
p84
aS'w+1=quickly'
p85
aS'w+1=that'
p86
aS'w+1=to'
p87
aS'w+1=with'
p88
aS"w+2=''"
p89
aS'w+2=.'
p90
aS'w+2=Ba'
p91
aS'w+2=Nigeria'
p92
aS'w+2=Sinhala'
p93
aS'w+2=a'
p94
aS'w+2=and'
p95
aS'w+2=criticism'
p96
aS'w+2=from'
p97
aS'w+2=he'
p98
aS'w+2=it'
p99
aS'w+2=its'
p100
aS'w+2=that'
p101
aS'w+2=the'
p102
aS'w+2=those'
p103
aS'w+2=when'
p104
aS'w+2=would'
p105
aS"w-1=''"
p106
aS'w-1=,'
p107
aS'w-1=Bernanke'
p108
aS'w-1=Bush'
p109
aS'w-1=Clinton'
p110
aS'w-1=Ethiopia'
p111
aS'w-1=Gates'
p112
aS'w-1=Kim'
p113
aS'w-1=Kyl'
p114
aS'w-1=McCain'
p115
aS'w-1=McCaskill'
p116
aS'w-1=McPherson'
p117
aS'w-1=Putin'
p118
aS'w-1=Romney'
p119
aS'w-1=Schaffer'
p120
aS'w-1=a'
p121
aS'w-1=also'
p122
aS'w-1=and'
p123
aS'w-1=first'
p124
aS'w-1=friend'
p125
aS'w-1=general'
p126
aS'w-1=have'
p127
aS'w-1=he'
p128
aS'w-1=in'
p129
aS'w-1=its'
p130
aS'w-1=leader'
p131
aS'w-1=ordinary'
p132
aS'w-1=positive'
p133
aS'w-1=she'
p134
aS'w-1=the'
p135
aS'w-1=to'
p136
aS"w-2=''"
p137
aS'w-2=,'
p138
aS'w-2=.'
p139
aS'w-2=Jon'
p140
aS'w-2=Maliki'
p141
aS'w-2=Michuki'
p142
aS'w-2=Mr.'
p143
aS'w-2=President'
p144
aS'w-2=Quality'
p145
aS'w-2=a'
p146
aS'w-2=and'
p147
aS'w-2=get'
p148
aS'w-2=give'
p149
aS'w-2=he'
p150
aS'w-2=hesitate'
p151
aS'w-2=receive'
p152
aS'w-2=she'
p153
aS'w-2=shrug'
p154
aS'w-2=the'
p155
aS'w-2=wait'
p156
aS'w-2=zimbabwean'
p157
asS'dtype'
p158
cnumpy
float64
p159
sS'vocabulary_'
p160
(dp161
g134
I125
sg14
I5
sg11
I2
sg97
I88
sg120
I111
sg39
I30
sg156
I147
sg42
I33
sg104
I95
sg61
I52
sg12
I3
sg67
I58
sg15
I6
sg44
I35
sg101
I92
sg84
I75
sg54
I45
sg72
I63
sg41
I32
sg10
I1
sg103
I94
sg147
I138
sg113
I104
sg131
I122
sg51
I42
sg35
I26
sg136
I127
sg95
I86
sg64
I55
sg69
I60
sg80
I71
sg86
I77
sg142
I133
sg63
I54
sg117
I108
sg28
I19
sg76
I67
sg150
I141
sg115
I106
sg126
I117
sg45
I36
sg88
I79
sg81
I72
sg21
I12
sg102
I93
sg9
I0
sg138
I129
sg139
I130
sg123
I114
sg83
I74
sg60
I51
sg17
I8
sg91
I82
sg152
I143
sg100
I91
sg112
I103
sg107
I98
sg155
I146
sg65
I56
sg37
I28
sg24
I15
sg33
I24
sg109
I100
sg96
I87
sg23
I14
sg38
I29
sg59
I50
sg146
I137
sg153
I144
sg55
I46
sg43
I34
sg121
I112
sg130
I121
sg127
I118
sg114
I105
sg49
I40
sg48
I39
sg89
I80
sg34
I25
sg128
I119
sg99
I90
sg143
I134
sg129
I120
sg141
I132
sg122
I113
sg145
I136
sg93
I84
sg125
I116
sg52
I43
sg19
I10
sg57
I48
sg58
I49
sg82
I73
sg151
I142
sg18
I9
sg119
I110
sg111
I102
sg116
I107
sg132
I123
sg71
I62
sg56
I47
sg118
I109
sg133
I124
sg148
I139
sg124
I115
sg46
I37
sg13
I4
sg157
I148
sg106
I97
sg26
I17
sg85
I76
sg75
I66
sg20
I11
sg30
I21
sg68
I59
sg105
I96
sg50
I41
sg29
I20
sg62
I53
sg70
I61
sg47
I38
sg108
I99
sg137
I128
sg144
I135
sg77
I68
sg78
I69
sg149
I140
sg90
I81
sg87
I78
sg79
I70
sg110
I101
sg98
I89
sg27
I18
sg40
I31
sg154
I145
sg22
I13
sg66
I57
sg140
I131
sg36
I27
sg53
I44
sg73
I64
sg92
I83
sg25
I16
sg135
I126
sg32
I23
sg74
I65
sg31
I22
sg16
I7
sg94
I85
ssS'separator'
p162
S'='
sS'sparse'
p163
I01
sb.