ccopy_reg
_reconstructor
p1
(csklearn.feature_extraction.dict_vectorizer
DictVectorizer
p2
c__builtin__
object
p3
NtRp4
(dp5
S'sort'
p6
I01
sS'feature_names_'
p7
(lp8
S'aux=to'
p9
aS'dobj=word'
p10
aS'nsubj=lot'
p11
aS'w+1=word'
p12
aS'w+2=and'
p13
aS'w-1=to'
p14
aS'w-2=culture'
p15
asS'dtype'
p16
cnumpy
float64
p17
sS'vocabulary_'
p18
(dp19
g15
I6
sg10
I1
sg9
I0
sg11
I2
sg14
I5
sg12
I3
sg13
I4
ssS'separator'
p20
S'='
sS'sparse'
p21
I01
sb.