ccopy_reg
_reconstructor
p1
(csklearn.feature_extraction.dict_vectorizer
DictVectorizer
p2
c__builtin__
object
p3
NtRp4
(dp5
S'sort'
p6
I01
sS'feature_names_'
p7
(lp8
S'acomp=al-qaida'
p9
aS'advcl=be'
p10
aS'advcl=capture'
p11
aS'advcl=fight'
p12
aS'advcl=flee'
p13
aS'advcl=lead'
p14
aS'advcl=lift'
p15
aS'advcl=meet'
p16
aS'advcl=uncontested'
p17
aS'advcl=win'
p18
aS'advmod=abroad'
p19
aS'advmod=ahead'
p20
aS'advmod=along'
p21
aS'advmod=also'
p22
aS'advmod=and'
p23
aS'advmod=back'
p24
aS'advmod=briefly'
p25
aS'advmod=correctly'
p26
aS'advmod=earlier'
p27
aS'advmod=either'
p28
aS'advmod=elsewhere'
p29
aS'advmod=later'
p30
aS'advmod=now'
p31
aS'advmod=really'
p32
aS'advmod=soon'
p33
aS'advmod=south'
p34
aS'advmod=still'
p35
aS'advmod=then'
p36
aS'advmod=up'
p37
aS'advmod=when'
p38
aS'advmod=where'
p39
aS'advmod=yet'
p40
aS'amod=military'
p41
aS'aux=be'
p42
aS'aux=can'
p43
aS'aux=do'
p44
aS'aux=have'
p45
aS'aux=may'
p46
aS'aux=to'
p47
aS'aux=will'
p48
aS'aux=would'
p49
aS'auxpass=be'
p50
aS'cc=and'
p51
aS'cc=but'
p52
aS'cc=or'
p53
aS'ccomp=burwell'
p54
aS'ccomp=expect'
p55
aS'ccomp=face'
p56
aS'ccomp=false'
p57
aS'ccomp=will'
p58
aS'ccomp=win'
p59
aS'complm=that'
p60
aS'complm=whether'
p61
aS'conj=air'
p62
aS'conj=alive'
p63
aS'conj=allege'
p64
aS'conj=allow'
p65
aS'conj=annex'
p66
aS'conj=arrest'
p67
aS'conj=bring'
p68
aS'conj=can'
p69
aS'conj=claim'
p70
aS'conj=consider'
p71
aS'conj=detain'
p72
aS'conj=execute'
p73
aS'conj=find'
p74
aS'conj=fly'
p75
aS'conj=give'
p76
aS'conj=go'
p77
aS'conj=hand'
p78
aS'conj=hold'
p79
aS'conj=issue'
p80
aS'conj=jail'
p81
aS'conj=kill'
p82
aS'conj=lose'
p83
aS'conj=memorable'
p84
aS'conj=necessary'
p85
aS'conj=preserve'
p86
aS'conj=procure'
p87
aS'conj=release'
p88
aS'conj=sentence'
p89
aS'conj=serve'
p90
aS'conj=some'
p91
aS'conj=spend'
p92
aS'conj=spread'
p93
aS'conj=store'
p94
aS'conj=suspect'
p95
aS'conj=take'
p96
aS'conj=transport'
p97
aS'dep=after'
p98
aS'dep=arrest'
p99
aS'dep=consider'
p100
aS'dep=deny'
p101
aS'dep=disgust'
p102
aS'dep=get'
p103
aS'dep=hold'
p104
aS'dep=important'
p105
aS'dep=in'
p106
aS'dep=indication'
p107
aS'dep=realize'
p108
aS'dep=say'
p109
aS'dep=show'
p110
aS'dep=speak'
p111
aS'dep=success'
p112
aS'dep=take'
p113
aS'dep=to'
p114
aS'det=the'
p115
aS'dobj=#DATE#'
p116
aS'dobj=#NUMBER#'
p117
aS'dobj=#PRP#'
p118
aS'dobj=Anod'
p119
aS'dobj=Association'
p120
aS'dobj=Baehaqi'
p121
aS'dobj=Bank'
p122
aS'dobj=Camp'
p123
aS'dobj=Fazlullah'
p124
aS'dobj=Golan'
p125
aS'dobj=Heights'
p126
aS'dobj=Hicks'
p127
aS'dobj=House'
p128
aS'dobj=Iranians'
p129
aS'dobj=Iraqis'
p130
aS'dobj=J.I.'
p131
aS'dobj=Jerusalem'
p132
aS'dobj=Kismayo'
p133
aS'dobj=Koreans'
p134
aS'dobj=Laden'
p135
aS'dobj=Mogadishu'
p136
aS'dobj=Mughniyeh'
p137
aS'dobj=Player'
p138
aS'dobj=Shalit'
p139
aS'dobj=Zarkasih'
p140
aS'dobj=alien'
p141
aS'dobj=animal'
p142
aS'dobj=area'
p143
aS'dobj=attention'
p144
aS'dobj=authenticity'
p145
aS'dobj=bat'
p146
aS'dobj=boat'
p147
aS'dobj=camp'
p148
aS'dobj=capital'
p149
aS'dobj=carbon'
p150
aS'dobj=change'
p151
aS'dobj=checkpoint'
p152
aS'dobj=city'
p153
aS'dobj=commander'
p154
aS'dobj=control'
p155
aS'dobj=criminal'
p156
aS'dobj=crown'
p157
aS'dobj=danger'
p158
aS'dobj=dioxide'
p159
aS'dobj=dozen'
p160
aS'dobj=essence'
p161
aS'dobj=event'
p162
aS'dobj=exchange'
p163
aS'dobj=experience'
p164
aS'dobj=fighter'
p165
aS'dobj=focus'
p166
aS'dobj=foreigner'
p167
aS'dobj=fort'
p168
aS'dobj=fugitive'
p169
aS'dobj=function'
p170
aS'dobj=gold'
p171
aS'dobj=headline'
p172
aS'dobj=headquarters'
p173
aS'dobj=hilltop'
p174
aS'dobj=image'
p175
aS'dobj=imagination'
p176
aS'dobj=input'
p177
aS'dobj=interest'
p178
aS'dobj=journalist'
p179
aS'dobj=jus'
p180
aS'dobj=land'
p181
aS'dobj=last'
p182
aS'dobj=lead'
p183
aS'dobj=leader'
p184
aS'dobj=leadership'
p185
aS'dobj=location'
p186
aS'dobj=loneliness'
p187
aS'dobj=major'
p188
aS'dobj=majority'
p189
aS'dobj=man'
p190
aS'dobj=market'
p191
aS'dobj=medal'
p192
aS'dobj=melting'
p193
aS'dobj=member'
p194
aS'dobj=militant'
p195
aS'dobj=most'
p196
aS'dobj=murderer'
p197
aS'dobj=nomination'
p198
aS'dobj=number'
p199
aS'dobj=official'
p200
aS'dobj=one-half'
p201
aS'dobj=operative'
p202
aS'dobj=other'
p203
aS'dobj=outpost'
p204
aS'dobj=percent'
p205
aS'dobj=post'
p206
aS'dobj=prize'
p207
aS'dobj=progress'
p208
aS'dobj=quality'
p209
aS'dobj=rebel'
p210
aS'dobj=seat'
p211
aS'dobj=several'
p212
aS'dobj=side'
p213
aS'dobj=signal'
p214
aS'dobj=slice'
p215
aS'dobj=soldier'
p216
aS'dobj=something'
p217
aS'dobj=stronghold'
p218
aS'dobj=sunlight'
p219
aS'dobj=surf'
p220
aS'dobj=suspect'
p221
aS'dobj=team'
p222
aS'dobj=territory'
p223
aS'dobj=terrorist'
p224
aS'dobj=the'
p225
aS'dobj=title'
p226
aS'dobj=town'
p227
aS'dobj=trophy'
p228
aS'dobj=village'
p229
aS'dobj=vote'
p230
aS'dobj=wave'
p231
aS'dobj=whale'
p232
aS'dobj=which'
p233
aS'dobj=whom'
p234
aS'dobj=witch'
p235
aS'mark=after'
p236
aS'mark=although'
p237
aS'mark=as'
p238
aS'mark=for'
p239
aS'mark=if'
p240
aS'mark=since'
p241
aS'mark=while'
p242
aS'neg=not'
p243
aS'nsubj=#NUMBER#'
p244
aS'nsubj=#PRP#'
p245
aS"nsubj='s"
p246
aS'nsubj=Austrians'
p247
aS'nsubj=BJP'
p248
aS'nsubj=Bacar'
p249
aS'nsubj=Cobbing'
p250
aS'nsubj=Earle'
p251
aS'nsubj=Israel'
p252
aS'nsubj=Lanka'
p253
aS'nsubj=Mauresmo'
p254
aS'nsubj=Mayweather'
p255
aS'nsubj=Party'
p256
aS'nsubj=Republican'
p257
aS'nsubj=Russia'
p258
aS'nsubj=States'
p259
aS'nsubj=University'
p260
aS'nsubj=Williams'
p261
aS'nsubj=camera'
p262
aS'nsubj=campaign'
p263
aS'nsubj=candidate'
p264
aS'nsubj=country'
p265
aS'nsubj=drone'
p266
aS'nsubj=election'
p267
aS'nsubj=fight'
p268
aS'nsubj=force'
p269
aS'nsubj=government'
p270
aS'nsubj=group'
p271
aS'nsubj=hour'
p272
aS'nsubj=incursion'
p273
aS'nsubj=insurgent'
p274
aS'nsubj=japanese'
p275
aS'nsubj=kidnapping'
p276
aS'nsubj=lineup'
p277
aS'nsubj=medal'
p278
aS'nsubj=militant'
p279
aS'nsubj=none'
p280
aS'nsubj=panel'
p281
aS'nsubj=plant'
p282
aS'nsubj=poetry'
p283
aS'nsubj=prediction'
p284
aS'nsubj=prize'
p285
aS'nsubj=rank'
p286
aS'nsubj=rebel'
p287
aS'nsubj=scan'
p288
aS'nsubj=sculpture'
p289
aS'nsubj=soldier'
p290
aS'nsubj=some'
p291
aS'nsubj=squad'
p292
aS'nsubj=that'
p293
aS'nsubj=troops'
p294
aS'nsubj=way'
p295
aS'nsubj=which'
p296
aS'nsubj=who'
p297
aS'nsubjpass=#NUMBER#'
p298
aS'nsubjpass=#PRP#'
p299
aS'nsubjpass=Afghans'
p300
aS'nsubjpass=Castro'
p301
aS'nsubjpass=Cedric'
p302
aS'nsubjpass=Dujana'
p303
aS'nsubjpass=Ghailani'
p304
aS'nsubjpass=Golan'
p305
aS'nsubjpass=Hicks'
p306
aS'nsubjpass=Laden'
p307
aS'nsubjpass=Mohammad'
p308
aS'nsubjpass=Nkunda'
p309
aS'nsubjpass=Pocahontas'
p310
aS'nsubjpass=Ramadan'
p311
aS'nsubjpass=Saddam'
p312
aS'nsubjpass=bomber'
p313
aS'nsubjpass=colonel'
p314
aS'nsubjpass=exchange'
p315
aS'nsubjpass=fighter'
p316
aS'nsubjpass=gas'
p317
aS'nsubjpass=image'
p318
aS'nsubjpass=leadership'
p319
aS'nsubjpass=member'
p320
aS'nsubjpass=militant'
p321
aS'nsubjpass=most'
p322
aS'nsubjpass=operative'
p323
aS'nsubjpass=outpost'
p324
aS'nsubjpass=person'
p325
aS'nsubjpass=sailor'
p326
aS'nsubjpass=sensibility'
p327
aS'nsubjpass=several'
p328
aS'nsubjpass=soldier'
p329
aS'nsubjpass=suspect'
p330
aS'nsubjpass=tank'
p331
aS'nsubjpass=that'
p332
aS'nsubjpass=toad'
p333
aS'nsubjpass=trainer'
p334
aS'nsubjpass=troops'
p335
aS'nsubjpass=which'
p336
aS'nsubjpass=who'
p337
aS'nsubjpass=worker'
p338
aS'parataxis=necessary'
p339
aS'partmod=enable'
p340
aS'partmod=kill'
p341
aS'partmod=patent'
p342
aS'partmod=use'
p343
aS'poss=#PRP#'
p344
aS'poss=Dadullah'
p345
aS'poss=Mashhadani'
p346
aS'poss=Rahim'
p347
aS'poss=Shalit'
p348
aS'poss=al-Iraqi'
p349
aS'poss=crew'
p350
aS'prep=about'
p351
aS'prep=accord'
p352
aS'prep=across'
p353
aS'prep=after'
p354
aS'prep=around'
p355
aS'prep=as'
p356
aS'prep=at'
p357
aS'prep=before'
p358
aS'prep=between'
p359
aS'prep=by'
p360
aS'prep=during'
p361
aS'prep=for'
p362
aS'prep=from'
p363
aS'prep=in'
p364
aS'prep=include'
p365
aS'prep=near'
p366
aS'prep=of'
p367
aS'prep=on'
p368
aS'prep=over'
p369
aS'prep=since'
p370
aS'prep=than'
p371
aS'prep=while'
p372
aS'prep=with'
p373
aS'prep=within'
p374
aS'prep=without'
p375
aS'purpcl=illustrate'
p376
aS'rcmod=vow'
p377
aS'tmod=#DATE#'
p378
aS'tmod=Athlete'
p379
aS'tmod=month'
p380
aS'tmod=record'
p381
aS'tmod=seat'
p382
aS'tmod=summer'
p383
aS'tmod=time'
p384
aS'tmod=week'
p385
aS'tmod=year'
p386
aS'w+1=,'
p387
aS'w+1=-lrb-'
p388
aS'w+1=.'
p389
aS'w+1=10'
p390
aS'w+1=20'
p391
aS'w+1=31'
p392
aS'w+1=45'
p393
aS'w+1=50'
p394
aS'w+1=73'
p395
aS'w+1=82'
p396
aS'w+1=Arab'
p397
aS'w+1=East'
p398
aS'w+1=Hezbollah'
p399
aS'w+1=Hicks'
p400
aS'w+1=Iranians'
p401
aS'w+1=Kismayo'
p402
aS'w+1=Las'
p403
aS'w+1=March'
p404
aS'w+1=Maulana'
p405
aS'w+1=Mogadishu'
p406
aS'w+1=Mohamad'
p407
aS'w+1=Saturday'
p408
aS'w+1=Shawn'
p409
aS'w+1=a'
p410
aS'w+1=abroad'
p411
aS'w+1=accord'
p412
aS'w+1=almost'
p413
aS'w+1=and'
p414
aS'w+1=another'
p415
aS'w+1=at'
p416
aS'w+1=be'
p417
aS'w+1=bolt'
p418
aS'w+1=both'
p419
aS'w+1=by'
p420
aS'w+1=carbon'
p421
aS'w+1=control'
p422
aS'w+1=correctly'
p423
aS'w+1=criminal'
p424
aS'w+1=do'
p425
aS'w+1=during'
p426
aS'w+1=eight'
p427
aS'w+1=every'
p428
aS'w+1=executive'
p429
aS'w+1=fighter'
p430
aS'w+1=for'
p431
aS'w+1=foreigner'
p432
aS'w+1=four'
p433
aS'w+1=from'
p434
aS'w+1=fugitive'
p435
aS'w+1=have'
p436
aS'w+1=he'
p437
aS'w+1=headline'
p438
aS'w+1=high-resolution'
p439
aS'w+1=hundred'
p440
aS'w+1=illegal'
p441
aS'w+1=image'
p442
aS'w+1=in'
p443
aS'w+1=insurgent'
p444
aS'w+1=interest'
p445
aS'w+1=international'
p446
aS'w+1=iranian'
p447
aS'w+1=israeli'
p448
aS'w+1=it'
p449
aS'w+1=its'
p450
aS'w+1=key'
p451
aS'w+1=last'
p452
aS'w+1=list'
p453
aS'w+1=major'
p454
aS'w+1=many'
p455
aS'w+1=media'
p456
aS'w+1=militant'
p457
aS'w+1=military'
p458
aS'w+1=more'
p459
aS'w+1=most'
p460
aS'w+1=nazi'
p461
aS'w+1=near'
p462
aS'w+1=nearly'
p463
aS'w+1=of'
p464
aS'w+1=on'
p465
aS'w+1=one'
p466
aS'w+1=one-half'
p467
aS'w+1=only'
p468
aS'w+1=or'
p469
aS'w+1=personnel'
p470
aS'w+1=pkk'
p471
aS'w+1=rebel'
p472
aS'w+1=rebel-held'
p473
aS'w+1=resident'
p474
aS'w+1=sailor'
p475
aS'w+1=several'
p476
aS'w+1=significant'
p477
aS'w+1=six'
p478
aS'w+1=smuggling'
p479
aS'w+1=soldier'
p480
aS'w+1=some'
p481
aS'w+1=something'
p482
aS'w+1=sunlight'
p483
aS'w+1=suspect'
p484
aS'w+1=terrorist'
p485
aS'w+1=that'
p486
aS'w+1=the'
p487
aS'w+1=these'
p488
aS'w+1=they'
p489
aS'w+1=this'
p490
aS'w+1=those'
p491
aS'w+1=three'
p492
aS'w+1=two'
p493
aS'w+1=voter'
p494
aS'w+1=we'
p495
aS'w+1=what'
p496
aS'w+1=when'
p497
aS'w+1=witch'
p498
aS'w+1=with'
p499
aS'w+1=you'
p500
aS"w+2='"
p501
aS"w+2=''"
p502
aS'w+2=,'
p503
aS'w+2=-lrb-'
p504
aS'w+2=.'
p505
aS'w+2=1,200'
p506
aS'w+2=100'
p507
aS'w+2=2004'
p508
aS'w+2=23'
p509
aS'w+2=Abu'
p510
aS'w+2=Afghanistan'
p511
aS'w+2=Alfred'
p512
aS'w+2=Anod'
p513
aS'w+2=August'
p514
aS'w+2=Baehaqi'
p515
aS'w+2=Camp'
p516
aS'w+2=Cup'
p517
aS'w+2=Daqduq'
p518
aS'w+2=Davis'
p519
aS'w+2=December'
p520
aS'w+2=Degania'
p521
aS'w+2=East'
p522
aS'w+2=Fazlullah'
p523
aS'w+2=Golan'
p524
aS'w+2=Hezbollah'
p525
aS'w+2=I'
p526
aS'w+2=International'
p527
aS'w+2=Iraq'
p528
aS'w+2=Iraqis'
p529
aS'w+2=Israel'
p530
aS'w+2=Jerusalem'
p531
aS'w+2=June'
p532
aS'w+2=March'
p533
aS'w+2=Mosul'
p534
aS'w+2=Pakistan'
p535
aS'w+2=Player'
p536
aS'w+2=Rwanda'
p537
aS'w+2=Sararogha'
p538
aS'w+2=Syria'
p539
aS'w+2=Taleban'
p540
aS'w+2=Taliban'
p541
aS'w+2=Tamil'
p542
aS'w+2=Tel'
p543
aS'w+2=Tuareg'
p544
aS'w+2=U.S.'
p545
aS'w+2=West'
p546
aS'w+2=White'
p547
aS'w+2=Zarkasih'
p548
aS'w+2=a'
p549
aS'w+2=about'
p550
aS'w+2=after'
p551
aS'w+2=agent'
p552
aS'w+2=al-Iraqi'
p553
aS'w+2=al-Qaida'
p554
aS'w+2=al-qaida'
p555
aS'w+2=alien'
p556
aS'w+2=alleged'
p557
aS'w+2=along'
p558
aS'w+2=also'
p559
aS'w+2=american'
p560
aS'w+2=ancillary'
p561
aS'w+2=and'
p562
aS'w+2=area'
p563
aS'w+2=arrest'
p564
aS'w+2=as'
p565
aS'w+2=at'
p566
aS'w+2=attention'
p567
aS'w+2=authenticity'
p568
aS'w+2=be'
p569
aS'w+2=boat'
p570
aS'w+2=bud'
p571
aS'w+2=but'
p572
aS'w+2=camp'
p573
aS'w+2=capital'
p574
aS'w+2=carbon'
p575
aS'w+2=change'
p576
aS'w+2=cinematographer'
p577
aS'w+2=city'
p578
aS'w+2=co2'
p579
aS'w+2=college'
p580
aS'w+2=confirm'
p581
aS'w+2=congolese'
p582
aS'w+2=danger'
p583
aS'w+2=dark'
p584
aS'w+2=day'
p585
aS'w+2=different'
p586
aS'w+2=dioxide'
p587
aS'w+2=disgust'
p588
aS'w+2=dozen'
p589
aS'w+2=drug'
p590
aS'w+2=early'
p591
aS'w+2=element'
p592
aS'w+2=entire'
p593
aS'w+2=essence'
p594
aS'w+2=event'
p595
aS'w+2=exchange'
p596
aS'w+2=extraordinary'
p597
aS'w+2=extremist'
p598
aS'w+2=film'
p599
aS'w+2=first'
p600
aS'w+2=focus'
p601
aS'w+2=for'
p602
aS'w+2=force'
p603
aS'w+2=four'
p604
aS'w+2=fourth'
p605
aS'w+2=from'
p606
aS'w+2=function'
p607
aS'w+2=gold'
p608
aS'w+2=grainy'
p609
aS'w+2=he'
p610
aS'w+2=headline'
p611
aS'w+2=hilltop'
p612
aS'w+2=hold'
p613
aS'w+2=humpback'
p614
aS'w+2=image'
p615
aS'w+2=imagination'
p616
aS'w+2=in'
p617
aS'w+2=indication'
p618
aS'w+2=insurgent'
p619
aS'w+2=interest'
p620
aS'w+2=iranian'
p621
aS'w+2=israeli'
p622
aS'w+2=italian'
p623
aS'w+2=jail'
p624
aS'w+2=journalist'
p625
aS'w+2=key'
p626
aS'w+2=kill'
p627
aS'w+2=land'
p628
aS'w+2=larger'
p629
aS'w+2=last'
p630
aS'w+2=lead'
p631
aS'w+2=leader'
p632
aS'w+2=least'
p633
aS'w+2=location'
p634
aS'w+2=loneliness'
p635
aS'w+2=long'
p636
aS'w+2=major'
p637
aS'w+2=majority'
p638
aS'w+2=man'
p639
aS'w+2=market'
p640
aS'w+2=mastermind'
p641
aS'w+2=melting'
p642
aS'w+2=militant'
p643
aS'w+2=military'
p644
aS'w+2=more'
p645
aS'w+2=most'
p646
aS'w+2=municipal'
p647
aS'w+2=must'
p648
aS'w+2=nearly'
p649
aS'w+2=north'
p650
aS'w+2=northern'
p651
aS'w+2=not'
p652
aS'w+2=numerous'
p653
aS'w+2=occupy'
p654
aS'w+2=of'
p655
aS'w+2=official'
p656
aS'w+2=operative'
p657
aS'w+2=other'
p658
aS'w+2=overseas'
p659
aS'w+2=party'
p660
aS'w+2=percent'
p661
aS'w+2=polling'
p662
aS'w+2=preserve'
p663
aS'w+2=public'
p664
aS'w+2=rebel'
p665
aS'w+2=remain'
p666
aS'w+2=remote'
p667
aS'w+2=savage'
p668
aS'w+2=screen'
p669
aS'w+2=sea'
p670
aS'w+2=seat'
p671
aS'w+2=second'
p672
aS'w+2=sell'
p673
aS'w+2=send'
p674
aS'w+2=senior'
p675
aS'w+2=short'
p676
aS'w+2=single'
p677
aS'w+2=slew'
p678
aS'w+2=soldier'
p679
aS'w+2=somali'
p680
aS'w+2=some'
p681
aS'w+2=stronghold'
p682
aS'w+2=sunni'
p683
aS'w+2=surf'
p684
aS'w+2=suspect'
p685
aS'w+2=team'
p686
aS'w+2=territory'
p687
aS'w+2=than'
p688
aS'w+2=the'
p689
aS'w+2=therefore'
p690
aS'w+2=these'
p691
aS'w+2=they'
p692
aS'w+2=three'
p693
aS'w+2=title'
p694
aS'w+2=to'
p695
aS'w+2=town'
p696
aS'w+2=transport'
p697
aS'w+2=trophy'
p698
aS'w+2=try'
p699
aS'w+2=twelve'
p700
aS'w+2=twice'
p701
aS'w+2=ugandan'
p702
aS'w+2=vessel'
p703
aS'w+2=video'
p704
aS'w+2=village'
p705
aS'w+2=vote'
p706
aS'w+2=week'
p707
aS'w+2=western'
p708
aS'w+2=where'
p709
aS'w+2=while'
p710
aS'w+2=will'
p711
aS'w+2=win'
p712
aS'w+2=with'
p713
aS'w+2=within'
p714
aS'w+2=woman'
p715
aS'w+2=year'
p716
aS'w+2=young'
p717
aS"w-1='s"
p718
aS'w-1=,'
p719
aS'w-1=-'
p720
aS'w-1=1990'
p721
aS'w-1=20'
p722
aS'w-1=2006'
p723
aS'w-1=230'
p724
aS'w-1=:'
p725
aS'w-1=BJP'
p726
aS'w-1=Canada'
p727
aS'w-1=Cobbing'
p728
aS'w-1=Cubans'
p729
aS'w-1=France'
p730
aS'w-1=Iranians'
p731
aS'w-1=Israel'
p732
aS'w-1=Pakistan'
p733
aS'w-1=Party'
p734
aS'w-1=Qaida'
p735
aS'w-1=Russia'
p736
aS'w-1=States'
p737
aS'w-1=Texas'
p738
aS'w-1=Williams'
p739
aS'w-1=after'
p740
aS'w-1=also'
p741
aS'w-1=and'
p742
aS'w-1=any'
p743
aS'w-1=at'
p744
aS'w-1=attack'
p745
aS'w-1=be'
p746
aS'w-1=begin'
p747
aS'w-1=briefly'
p748
aS'w-1=camera'
p749
aS'w-1=can'
p750
aS'w-1=cloud'
p751
aS'w-1=computer'
p752
aS'w-1=course'
p753
aS'w-1=crew'
p754
aS'w-1=domain'
p755
aS'w-1=drone'
p756
aS'w-1=either'
p757
aS'w-1=elude'
p758
aS'w-1=fighter'
p759
aS'w-1=follower'
p760
aS'w-1=for'
p761
aS'w-1=force'
p762
aS'w-1=free'
p763
aS'w-1=fully'
p764
aS'w-1=gunman'
p765
aS'w-1=have'
p766
aS'w-1=he'
p767
aS'w-1=if'
p768
aS'w-1=in'
p769
aS'w-1=include'
p770
aS'w-1=insurgent'
p771
aS'w-1=interrogate'
p772
aS'w-1=it'
p773
aS'w-1=kidnapping'
p774
aS'w-1=land'
p775
aS'w-1=later'
p776
aS'w-1=manipulate'
p777
aS'w-1=mean'
p778
aS'w-1=militant'
p779
aS'w-1=military'
p780
aS'w-1=never'
p781
aS'w-1=non-citizen'
p782
aS'w-1=not'
p783
aS'w-1=now'
p784
aS'w-1=of'
p785
aS'w-1=one'
p786
aS'w-1=or'
p787
aS'w-1=outpost'
p788
aS'w-1=outright'
p789
aS'w-1=panel'
p790
aS'w-1=people'
p791
aS'w-1=pirate'
p792
aS'w-1=progress'
p793
aS'w-1=really'
p794
aS'w-1=release'
p795
aS'w-1=scientist'
p796
aS'w-1=sculpture'
p797
aS'w-1=send'
p798
aS'w-1=since'
p799
aS'w-1=soldier'
p800
aS'w-1=soon'
p801
aS'w-1=still'
p802
aS'w-1=suspect'
p803
aS'w-1=territory'
p804
aS'w-1=that'
p805
aS'w-1=the'
p806
aS'w-1=they'
p807
aS'w-1=those'
p808
aS'w-1=to'
p809
aS'w-1=troops'
p810
aS'w-1=we'
p811
aS'w-1=when'
p812
aS'w-1=which'
p813
aS'w-1=who'
p814
aS'w-1=will'
p815
aS'w-1=with'
p816
aS'w-1=would'
p817
aS'w-1=year'
p818
aS'w-1=yet'
p819
aS"w-2='"
p820
aS"w-2=''"
p821
aS'w-2=,'
p822
aS'w-2=-'
p823
aS'w-2=--'
p824
aS'w-2=.'
p825
aS'w-2=100'
p826
aS'w-2=1893'
p827
aS'w-2=44'
p828
aS'w-2=88'
p829
aS'w-2=;'
p830
aS'w-2=Austrians'
p831
aS'w-2=Castro'
p832
aS'w-2=Cedric'
p833
aS'w-2=Congress'
p834
aS'w-2=Dadullah'
p835
aS'w-2=Democrat'
p836
aS'w-2=Dujana'
p837
aS'w-2=Earle'
p838
aS'w-2=Ghailani'
p839
aS'w-2=Golan'
p840
aS'w-2=Hamas'
p841
aS'w-2=Heights'
p842
aS'w-2=Hicks'
p843
aS'w-2=JI'
p844
aS'w-2=Janeiro'
p845
aS'w-2=Jenin'
p846
aS'w-2=Lanka'
p847
aS'w-2=London'
p848
aS'w-2=Mashhadani'
p849
aS'w-2=Mayweather'
p850
aS'w-2=Mohammad'
p851
aS'w-2=Nick'
p852
aS'w-2=Penguins'
p853
aS'w-2=Pocahontas'
p854
aS'w-2=Rahim'
p855
aS'w-2=Republican'
p856
aS'w-2=Russia'
p857
aS'w-2=Serena'
p858
aS'w-2=Series'
p859
aS'w-2=Shalit'
p860
aS'w-2=States'
p861
aS'w-2=Toadzilla'
p862
aS'w-2=Tuesday'
p863
aS'w-2=United'
p864
aS'w-2=a'
p865
aS'w-2=able'
p866
aS'w-2=after'
p867
aS'w-2=aim'
p868
aS'w-2=al'
p869
aS'w-2=al-Iraqi'
p870
aS'w-2=all'
p871
aS'w-2=although'
p872
aS'w-2=american'
p873
aS'w-2=and'
p874
aS'w-2=announce'
p875
aS'w-2=attack'
p876
aS'w-2=authorize'
p877
aS'w-2=be'
p878
aS'w-2=before'
p879
aS'w-2=bid'
p880
aS'w-2=board'
p881
aS'w-2=bomber'
p882
aS'w-2=border'
p883
aS'w-2=british'
p884
aS'w-2=but'
p885
aS'w-2=cache'
p886
aS'w-2=campaign'
p887
aS'w-2=candidate'
p888
aS'w-2=capable'
p889
aS'w-2=capsule'
p890
aS'w-2=chance'
p891
aS'w-2=charge'
p892
aS'w-2=close'
p893
aS'w-2=colonel'
p894
aS'w-2=congolese'
p895
aS'w-2=continue'
p896
aS'w-2=country'
p897
aS'w-2=crew'
p898
aS'w-2=criterion'
p899
aS'w-2=do'
p900
aS'w-2=easier'
p901
aS'w-2=effort'
p902
aS'w-2=eradication'
p903
aS'w-2=exchange'
p904
aS'w-2=expect'
p905
aS'w-2=explorer'
p906
aS'w-2=faction'
p907
aS'w-2=fail'
p908
aS'w-2=favorite'
p909
aS'w-2=fighter'
p910
aS'w-2=five'
p911
aS'w-2=follow'
p912
aS'w-2=for'
p913
aS'w-2=force'
p914
aS'w-2=foreign'
p915
aS'w-2=from'
p916
aS'w-2=government'
p917
aS'w-2=group'
p918
aS'w-2=have'
p919
aS'w-2=he'
p920
aS'w-2=himself'
p921
aS'w-2=hope'
p922
aS'w-2=hostage'
p923
aS'w-2=hour'
p924
aS'w-2=hunt'
p925
aS'w-2=illustration'
p926
aS'w-2=image'
p927
aS'w-2=important'
p928
aS'w-2=in'
p929
aS'w-2=incursion'
p930
aS'w-2=islamist'
p931
aS'w-2=israeli'
p932
aS'w-2=issue'
p933
aS'w-2=it'
p934
aS'w-2=its'
p935
aS'w-2=jitters'
p936
aS'w-2=kill'
p937
aS'w-2=killing'
p938
aS'w-2=kind'
p939
aS'w-2=land'
p940
aS'w-2=landslide'
p941
aS'w-2=make'
p942
aS'w-2=malian'
p943
aS'w-2=manage'
p944
aS'w-2=material'
p945
aS'w-2=measure'
p946
aS'w-2=militant'
p947
aS'w-2=military'
p948
aS'w-2=move'
p949
aS'w-2=navy'
p950
aS'w-2=need'
p951
aS'w-2=not'
p952
aS'w-2=of'
p953
aS'w-2=offensive'
p954
aS'w-2=on'
p955
aS'w-2=one'
p956
aS'w-2=operative'
p957
aS'w-2=organization'
p958
aS'w-2=out'
p959
aS'w-2=outpost'
p960
aS'w-2=piracy'
p961
aS'w-2=pirate'
p962
aS'w-2=plan'
p963
aS'w-2=plant'
p964
aS'w-2=plateau'
p965
aS'w-2=poise'
p966
aS'w-2=poll'
p967
aS'w-2=post'
p968
aS'w-2=processing'
p969
aS'w-2=program'
p970
aS'w-2=progress'
p971
aS'w-2=prosecute'
p972
aS'w-2=raid'
p973
aS'w-2=rebel'
p974
aS'w-2=release'
p975
aS'w-2=repeatedly'
p976
aS'w-2=report'
p977
aS'w-2=reporter'
p978
aS'w-2=return'
p979
aS'w-2=rise'
p980
aS'w-2=say'
p981
aS'w-2=scan'
p982
aS'w-2=scene'
p983
aS'w-2=seek'
p984
aS'w-2=sensibility'
p985
aS'w-2=seven'
p986
aS'w-2=she'
p987
aS'w-2=since'
p988
aS'w-2=solar'
p989
aS'w-2=soldier'
p990
aS'w-2=sole'
p991
aS'w-2=some'
p992
aS'w-2=something'
p993
aS'w-2=strength'
p994
aS'w-2=sunrise'
p995
aS'w-2=suspect'
p996
aS'w-2=swap'
p997
aS'w-2=tank'
p998
aS'w-2=television'
p999
aS'w-2=territory'
p1000
aS'w-2=terrorist'
p1001
aS'w-2=that'
p1002
aS'w-2=the'
p1003
aS'w-2=they'
p1004
aS'w-2=this'
p1005
aS'w-2=time'
p1006
aS'w-2=to'
p1007
aS'w-2=tournament'
p1008
aS'w-2=trade'
p1009
aS'w-2=training'
p1010
aS'w-2=troops'
p1011
aS'w-2=try'
p1012
aS'w-2=tuna'
p1013
aS'w-2=use'
p1014
aS'w-2=vision'
p1015
aS'w-2=want'
p1016
aS'w-2=way'
p1017
aS'w-2=we'
p1018
aS'w-2=when'
p1019
aS'w-2=where'
p1020
aS'w-2=which'
p1021
aS'w-2=while'
p1022
aS'w-2=who'
p1023
aS'w-2=whom'
p1024
aS'w-2=will'
p1025
aS'w-2=world'
p1026
aS'w-2=would'
p1027
aS'xcomp=generate'
p1028
aS'xcomp=hold'
p1029
aS'xcomp=infiltrate'
p1030
aS'xcomp=provide'
p1031
aS'xcomp=record'
p1032
aS'xcomp=team'
p1033
aS'xcomp=use'
p1034
asS'dtype'
p1035
cnumpy
float64
p1036
sS'vocabulary_'
p1037
(dp1038
g36
I27
sg25
I16
sg358
I349
sg679
I670
sg129
I120
sg418
I409
sg725
I716
sg224
I215
sg398
I389
sg995
I986
sg29
I20
sg172
I163
sg510
I501
sg112
I103
sg444
I435
sg205
I196
sg571
I562
sg216
I207
sg83
I74
sg467
I458
sg1028
I1019
sg247
I238
sg513
I504
sg978
I969
sg666
I657
sg996
I987
sg696
I687
sg1034
I1025
sg659
I650
sg90
I81
sg997
I988
sg424
I415
sg573
I564
sg485
I476
sg308
I299
sg628
I619
sg907
I898
sg63
I54
sg1004
I995
sg988
I979
sg54
I45
sg720
I711
sg360
I351
sg13
I4
sg374
I365
sg962
I953
sg287
I278
sg429
I420
sg897
I888
sg939
I930
sg852
I843
sg486
I477
sg992
I983
sg16
I7
sg270
I261
sg589
I580
sg947
I938
sg817
I808
sg309
I300
sg520
I511
sg625
I616
sg931
I922
sg303
I294
sg235
I226
sg745
I736
sg730
I721
sg608
I599
sg777
I768
sg736
I727
sg281
I272
sg32
I23
sg916
I907
sg391
I382
sg975
I966
sg1018
I1009
sg882
I873
sg886
I877
sg1017
I1008
sg778
I769
sg815
I806
sg704
I695
sg150
I141
sg579
I570
sg834
I825
sg203
I194
sg887
I878
sg87
I78
sg567
I558
sg552
I543
sg738
I729
sg746
I737
sg527
I518
sg99
I90
sg837
I828
sg246
I237
sg810
I801
sg273
I264
sg154
I145
sg1003
I994
sg441
I432
sg262
I253
sg125
I116
sg1006
I997
sg673
I664
sg614
I605
sg879
I870
sg1020
I1011
sg843
I834
sg197
I188
sg232
I223
sg662
I653
sg126
I117
sg136
I127
sg980
I971
sg832
I823
sg538
I529
sg763
I754
sg464
I455
sg397
I388
sg465
I456
sg890
I881
sg630
I621
sg928
I919
sg637
I628
sg600
I591
sg702
I693
sg635
I626
sg469
I460
sg717
I708
sg74
I65
sg774
I765
sg690
I681
sg766
I757
sg324
I315
sg989
I980
sg993
I984
sg477
I468
sg504
I495
sg617
I608
sg335
I326
sg222
I213
sg661
I652
sg922
I913
sg728
I719
sg871
I862
sg967
I958
sg481
I472
sg302
I293
sg383
I374
sg351
I342
sg813
I804
sg60
I51
sg355
I346
sg794
I785
sg380
I371
sg960
I951
sg143
I134
sg435
I426
sg927
I918
sg706
I697
sg711
I702
sg603
I594
sg111
I102
sg137
I128
sg379
I370
sg799
I790
sg421
I412
sg442
I433
sg902
I893
sg10
I1
sg595
I586
sg977
I968
sg1002
I993
sg487
I478
sg636
I627
sg641
I632
sg460
I451
sg285
I276
sg650
I641
sg569
I560
sg849
I840
sg489
I480
sg252
I243
sg484
I475
sg491
I482
sg472
I463
sg407
I398
sg299
I290
sg615
I606
sg364
I355
sg698
I689
sg49
I40
sg161
I152
sg44
I35
sg81
I72
sg494
I485
sg543
I534
sg431
I422
sg482
I473
sg40
I31
sg575
I566
sg471
I462
sg265
I256
sg535
I526
sg744
I735
sg339
I330
sg529
I520
sg225
I216
sg564
I555
sg92
I83
sg127
I118
sg802
I793
sg414
I405
sg732
I723
sg751
I742
sg171
I162
sg120
I111
sg116
I107
sg11
I2
sg521
I512
sg602
I593
sg82
I73
sg439
I430
sg847
I838
sg557
I548
sg609
I600
sg234
I225
sg34
I25
sg293
I284
sg674
I665
sg629
I620
sg180
I171
sg917
I908
sg78
I69
sg110
I101
sg179
I170
sg413
I404
sg700
I691
sg177
I168
sg461
I452
sg233
I224
sg836
I827
sg691
I682
sg769
I760
sg495
I486
sg665
I656
sg325
I316
sg271
I262
sg771
I762
sg341
I332
sg453
I444
sg998
I989
sg806
I797
sg754
I745
sg388
I379
sg656
I647
sg951
I942
sg432
I423
sg826
I817
sg240
I231
sg249
I240
sg889
I880
sg447
I438
sg838
I829
sg9
I0
sg519
I510
sg652
I643
sg835
I826
sg618
I609
sg39
I30
sg470
I461
sg585
I576
sg328
I319
sg257
I248
sg734
I725
sg906
I897
sg755
I746
sg141
I132
sg371
I362
sg153
I144
sg109
I100
sg476
I467
sg511
I502
sg619
I610
sg295
I286
sg115
I106
sg124
I115
sg294
I285
sg480
I471
sg86
I77
sg1014
I1005
sg365
I356
sg883
I874
sg627
I618
sg508
I499
sg403
I394
sg670
I661
sg23
I14
sg297
I288
sg419
I410
sg971
I962
sg772
I763
sg359
I350
sg767
I758
sg93
I84
sg953
I944
sg911
I902
sg524
I515
sg955
I946
sg809
I800
sg412
I403
sg827
I818
sg669
I660
sg182
I173
sg645
I636
sg455
I446
sg531
I522
sg701
I692
sg685
I676
sg118
I109
sg829
I820
sg900
I891
sg653
I644
sg221
I212
sg739
I730
sg500
I491
sg894
I885
sg932
I923
sg893
I884
sg256
I247
sg556
I547
sg753
I744
sg290
I281
sg961
I952
sg581
I572
sg773
I764
sg343
I334
sg408
I399
sg742
I733
sg369
I360
sg621
I612
sg258
I249
sg416
I407
sg200
I191
sg518
I509
sg95
I86
sg616
I607
sg855
I846
sg463
I454
sg1024
I1015
sg624
I615
sg239
I230
sg332
I323
sg667
I658
sg170
I161
sg948
I939
sg492
I483
sg267
I258
sg395
I386
sg750
I741
sg613
I604
sg857
I848
sg254
I245
sg924
I915
sg866
I857
sg27
I18
sg891
I882
sg566
I557
sg147
I138
sg654
I645
sg816
I807
sg393
I384
sg896
I887
sg693
I684
sg804
I795
sg213
I204
sg493
I484
sg819
I810
sg38
I29
sg305
I296
sg584
I575
sg768
I759
sg131
I122
sg532
I523
sg189
I180
sg323
I314
sg362
I353
sg634
I625
sg21
I12
sg577
I568
sg925
I916
sg497
I488
sg269
I260
sg198
I189
sg990
I981
sg101
I92
sg570
I561
sg935
I926
sg597
I588
sg709
I700
sg184
I175
sg565
I556
sg572
I563
sg798
I789
sg710
I701
sg795
I786
sg340
I331
sg687
I678
sg50
I41
sg786
I777
sg718
I709
sg19
I10
sg76
I67
sg601
I592
sg944
I935
sg107
I98
sg551
I542
sg671
I662
sg548
I539
sg576
I567
sg35
I26
sg844
I835
sg219
I210
sg764
I755
sg677
I668
sg903
I894
sg329
I320
sg250
I241
sg793
I784
sg275
I266
sg223
I214
sg187
I178
sg292
I283
sg244
I235
sg183
I174
sg488
I479
sg165
I156
sg367
I358
sg145
I136
sg864
I855
sg462
I453
sg683
I674
sg314
I305
sg217
I208
sg178
I169
sg80
I71
sg382
I373
sg512
I503
sg713
I704
sg474
I465
sg726
I717
sg515
I506
sg282
I273
sg868
I859
sg280
I271
sg12
I3
sg298
I289
sg892
I883
sg174
I165
sg530
I521
sg703
I694
sg788
I779
sg664
I655
sg423
I414
sg716
I707
sg568
I559
sg921
I912
sg984
I975
sg134
I125
sg940
I931
sg98
I89
sg316
I307
sg858
I849
sg192
I183
sg322
I313
sg821
I812
sg800
I791
sg655
I646
sg533
I524
sg867
I858
sg104
I95
sg215
I206
sg218
I209
sg525
I516
sg610
I601
sg114
I105
sg41
I32
sg558
I549
sg722
I713
sg284
I275
sg633
I624
sg712
I703
sg880
I871
sg411
I402
sg563
I554
sg56
I47
sg457
I448
sg949
I940
sg937
I928
sg582
I573
sg375
I366
sg105
I96
sg318
I309
sg272
I263
sg982
I973
sg193
I184
sg46
I37
sg160
I151
sg1033
I1024
sg663
I654
sg592
I583
sg401
I392
sg781
I772
sg842
I833
sg37
I28
sg606
I597
sg639
I630
sg657
I648
sg319
I310
sg228
I219
sg594
I585
sg468
I459
sg445
I436
sg157
I148
sg904
I895
sg908
I899
sg593
I584
sg446
I437
sg211
I202
sg972
I963
sg1001
I992
sg542
I533
sg66
I57
sg930
I921
sg682
I673
sg1027
I1018
sg100
I91
sg348
I339
sg65
I56
sg204
I195
sg84
I75
sg69
I60
sg274
I265
sg162
I153
sg779
I770
sg122
I113
sg1021
I1012
sg910
I901
sg580
I571
sg196
I187
sg14
I5
sg758
I749
sg291
I282
sg64
I55
sg67
I58
sg905
I896
sg372
I363
sg242
I233
sg979
I970
sg851
I842
sg612
I603
sg926
I917
sg583
I574
sg540
I531
sg312
I303
sg277
I268
sg985
I976
sg220
I211
sg48
I39
sg686
I677
sg450
I441
sg149
I140
sg259
I250
sg373
I364
sg850
I841
sg53
I44
sg158
I149
sg164
I155
sg644
I635
sg938
I929
sg251
I242
sg133
I124
sg1011
I1002
sg338
I329
sg381
I372
sg598
I589
sg638
I629
sg756
I747
sg151
I142
sg963
I954
sg333
I324
sg1000
I991
sg229
I220
sg473
I464
sg950
I941
sg888
I879
sg929
I920
sg266
I257
sg780
I771
sg684
I675
sg144
I135
sg934
I925
sg194
I185
sg623
I614
sg737
I728
sg248
I239
sg999
I990
sg846
I837
sg649
I640
sg342
I333
sg207
I198
sg167
I158
sg697
I688
sg830
I821
sg596
I587
sg466
I457
sg760
I751
sg688
I679
sg537
I528
sg544
I535
sg983
I974
sg707
I698
sg97
I88
sg839
I830
sg57
I48
sg77
I68
sg59
I50
sg740
I731
sg376
I367
sg968
I959
sg514
I505
sg502
I493
sg958
I949
sg498
I489
sg743
I734
sg943
I934
sg604
I595
sg22
I13
sg146
I137
sg752
I743
sg119
I110
sg792
I783
sg237
I228
sg130
I121
sg253
I244
sg648
I639
sg974
I965
sg550
I541
sg877
I868
sg970
I961
sg861
I852
sg1023
I1014
sg260
I251
sg337
I328
sg574
I565
sg919
I910
sg386
I377
sg51
I42
sg808
I799
sg173
I164
sg828
I819
sg824
I815
sg801
I792
sg811
I802
sg762
I753
sg420
I411
sg541
I532
sg55
I46
sg417
I408
sg479
I470
sg366
I357
sg163
I154
sg884
I875
sg331
I322
sg1019
I1010
sg79
I70
sg591
I582
sg676
I667
sg394
I385
sg103
I94
sg681
I672
sg848
I839
sg443
I434
sg94
I85
sg695
I686
sg660
I651
sg694
I685
sg449
I440
sg279
I270
sg245
I236
sg26
I17
sg539
I530
sg501
I492
sg923
I914
sg523
I514
sg862
I853
sg941
I932
sg587
I578
sg509
I500
sg188
I179
sg789
I780
sg554
I545
sg430
I421
sg52
I43
sg1010
I1001
sg631
I622
sg20
I11
sg936
I927
sg344
I335
sg599
I590
sg945
I936
sg117
I108
sg448
I439
sg588
I579
sg483
I474
sg803
I794
sg385
I376
sg212
I203
sg735
I726
sg516
I507
sg175
I166
sg1029
I1020
sg555
I546
sg28
I19
sg106
I97
sg854
I845
sg24
I15
sg72
I63
sg18
I9
sg15
I6
sg536
I527
sg456
I447
sg307
I298
sg856
I847
sg399
I390
sg870
I861
sg818
I809
sg605
I596
sg89
I80
sg878
I869
sg651
I642
sg915
I906
sg699
I690
sg860
I851
sg276
I267
sg208
I199
sg759
I750
sg368
I359
sg586
I577
sg236
I227
sg643
I634
sg534
I525
sg731
I722
sg436
I427
sg313
I304
sg159
I150
sg327
I318
sg895
I886
sg723
I714
sg121
I112
sg396
I387
sg296
I287
sg765
I756
sg352
I343
sg761
I752
sg96
I87
sg152
I143
sg724
I715
sg283
I274
sg626
I617
sg255
I246
sg478
I469
sg831
I822
sg264
I255
sg433
I424
sg409
I400
sg642
I633
sg782
I773
sg195
I186
sg206
I197
sg640
I631
sg559
I550
sg113
I104
sg310
I301
sg705
I696
sg505
I496
sg841
I832
sg306
I297
sg814
I805
sg345
I336
sg1016
I1007
sg787
I778
sg727
I718
sg607
I598
sg326
I317
sg729
I720
sg775
I766
sg168
I159
sg785
I776
sg320
I311
sg668
I659
sg123
I114
sg148
I139
sg1007
I998
sg562
I553
sg378
I369
sg874
I865
sg91
I82
sg286
I277
sg140
I131
sg678
I669
sg390
I381
sg353
I344
sg347
I338
sg1012
I1003
sg956
I947
sg490
I481
sg58
I49
sg384
I375
sg987
I978
sg71
I62
sg920
I911
sg346
I337
sg349
I340
sg370
I361
sg459
I450
sg377
I368
sg191
I182
sg499
I490
sg108
I99
sg901
I892
sg400
I391
sg31
I22
sg981
I972
sg517
I508
sg845
I836
sg315
I306
sg578
I569
sg689
I680
sg357
I348
sg1025
I1016
sg994
I985
sg356
I347
sg822
I813
sg823
I814
sg825
I816
sg632
I623
sg976
I967
sg528
I519
sg820
I811
sg199
I190
sg45
I36
sg885
I876
sg547
I538
sg454
I445
sg304
I295
sg875
I866
sg227
I218
sg475
I466
sg402
I393
sg719
I710
sg268
I259
sg952
I943
sg526
I517
sg1022
I1013
sg957
I948
sg428
I419
sg797
I788
sg986
I977
sg458
I449
sg185
I176
sg622
I613
sg289
I280
sg33
I24
sg869
I860
sg741
I732
sg899
I890
sg912
I903
sg43
I34
sg1030
I1021
sg415
I406
sg791
I782
sg426
I417
sg721
I712
sg73
I64
sg959
I950
sg620
I611
sg964
I955
sg226
I217
sg865
I856
sg807
I798
sg68
I59
sg812
I803
sg156
I147
sg330
I321
sg336
I327
sg757
I748
sg278
I269
sg404
I395
sg647
I638
sg942
I933
sg238
I229
sg1031
I1022
sg1015
I1006
sg75
I66
sg1013
I1004
sg181
I172
sg85
I76
sg873
I864
sg790
I781
sg590
I581
sg434
I425
sg202
I193
sg991
I982
sg300
I291
sg231
I222
sg61
I52
sg692
I683
sg135
I126
sg933
I924
sg405
I396
sg840
I831
sg354
I345
sg881
I872
sg70
I61
sg675
I666
sg796
I787
sg102
I93
sg261
I252
sg1008
I999
sg918
I909
sg317
I308
sg230
I221
sg833
I824
sg954
I945
sg1026
I1017
sg214
I205
sg169
I160
sg209
I200
sg132
I123
sg440
I431
sg452
I443
sg288
I279
sg872
I863
sg863
I854
sg186
I177
sg909
I900
sg321
I312
sg876
I867
sg88
I79
sg1005
I996
sg241
I232
sg301
I292
sg973
I964
sg176
I167
sg545
I536
sg166
I157
sg427
I418
sg201
I192
sg210
I201
sg966
I957
sg363
I354
sg1032
I1023
sg714
I705
sg142
I133
sg658
I649
sg749
I740
sg263
I254
sg733
I724
sg553
I544
sg522
I513
sg853
I844
sg47
I38
sg969
I960
sg611
I602
sg946
I937
sg507
I498
sg190
I181
sg406
I397
sg546
I537
sg859
I850
sg805
I796
sg422
I413
sg965
I956
sg680
I671
sg30
I21
sg387
I378
sg138
I129
sg389
I380
sg748
I739
sg128
I119
sg560
I551
sg646
I637
sg503
I494
sg311
I302
sg17
I8
sg708
I699
sg898
I889
sg243
I234
sg361
I352
sg62
I53
sg451
I442
sg672
I663
sg438
I429
sg425
I416
sg334
I325
sg561
I552
sg350
I341
sg155
I146
sg410
I401
sg784
I775
sg783
I774
sg392
I383
sg747
I738
sg776
I767
sg1009
I1000
sg506
I497
sg437
I428
sg715
I706
sg770
I761
sg914
I905
sg42
I33
sg913
I904
sg139
I130
sg549
I540
sg496
I487
ssS'separator'
p1039
S'='
sS'sparse'
p1040
I01
sb.