ccopy_reg
_reconstructor
p1
(csklearn.feature_extraction.dict_vectorizer
DictVectorizer
p2
c__builtin__
object
p3
NtRp4
(dp5
S'vocabulary_'
p6
(dp7
S'advmod=then'
p8
I18
sS'nsubj=custom'
p9
I178
sS'amod=manifest'
p10
I26
sS'nsubj=someone'
p11
I188
sS'w-1=traditional'
p12
I517
sS'w+2=driver'
p13
I348
sS'det=no'
p14
I85
sS'nsubj=veterinarian'
p15
I193
sS'w-1=regularly'
p16
I501
sS'w-2=people'
p17
I626
sS'w+1=fact'
p18
I257
sS'w+2=bug'
p19
I335
sS'w-2=Friday'
p20
I533
sS'w-1=whatever'
p21
I521
sS'w+2=next'
p22
I382
sS'w+2=but'
p23
I336
sS'conj=check'
p24
I62
sS'nsubj=team'
p25
I190
sS'advmod=quickly'
p26
I14
sS'w-1=border'
p27
I457
sS'w+2=Dogan'
p28
I312
sS'w-2=police'
p29
I628
sS'infmod=make'
p30
I149
sS'w-2=then'
p31
I656
sS'w-1=blank'
p32
I456
sS'w-2=they'
p33
I658
sS'w+2=freedom'
p34
I356
sS'nsubj=business'
p35
I177
sS'w-1=-'
p36
I439
sS'prep=by'
p37
I215
sS'dobj=age'
p38
I92
sS'w-2=727,000'
p39
I531
sS'w+1=house'
p40
I268
sS'w+2=multiple'
p41
I379
sS'nsubj=doctor'
p42
I179
sS'w+1=that'
p43
I289
sS'amod=exhaustive'
p44
I21
sS'dobj=pail'
p45
I122
sS'w-1=would'
p46
I524
sS'w-1=say'
p47
I504
sS'w-1=can'
p48
I461
sS'w+2=child'
p49
I339
sS'w+2=spread'
p50
I416
sS'w-2=more'
p51
I616
sS'prep=follow'
p52
I217
sS'advmod=so'
p53
I16
sS'xcomp=monitor'
p54
I680
sS'w+2=mother'
p55
I378
sS'w-2=we'
p56
I670
sS'w+2=weapon'
p57
I430
sS'w+2=its'
p58
I368
sS'conj=prepare'
p59
I68
sS'w+2=pony'
p60
I398
sS'dobj=damage'
p61
I102
sS'w-2=immigrant'
p62
I592
sS'w-1=by'
p63
I460
sS'w+1=how'
p64
I269
sS'w+2=work'
p65
I434
sS'w-1=be'
p66
I454
sS'w+1=Taliban'
p67
I239
sS'w-1=Palacio'
p68
I443
sS'w+2=approximately'
p69
I327
sS'w+2=pay'
p70
I394
sS'w-2=the'
p71
I655
sS'w-2=time'
p72
I660
sS'w-2=headquarters'
p73
I588
sS'w+2=blood'
p74
I332
sS'w-2=go'
p75
I582
sS'w+1=driver'
p76
I252
sS'w-2=man'
p77
I610
sS'dobj=price'
p78
I128
sS'dobj=material'
p79
I120
sS'w-2=medallion'
p80
I612
sS'w-2=Protection'
p81
I540
sS'mark=unless'
p82
I153
sS'w+1=whether'
p83
I300
sS'w+1=on'
p84
I281
sS'w-1=gastroenterologist'
p85
I472
sS'dobj=violence'
p86
I144
sS'w-1=student'
p87
I508
sS'w-2=accountability'
p88
I545
sS'rcmod=provide'
p89
I232
sS'w+2=patient'
p90
I393
sS'w-2=home'
p91
I590
sS'xcomp=sure'
p92
I682
sS'w-1=have'
p93
I474
sS'w+2=id'
p94
I362
sS'w+2=for'
p95
I354
sS'amod=regular'
p96
I30
sS'appos=file'
p97
I39
sS'w+2=employee'
p98
I350
sS'w+2=in'
p99
I363
sS'dobj=release'
p100
I130
sS'w-1=security'
p101
I505
sS'xcomp=see'
p102
I681
sS'w-2=write'
p103
I673
sS'prep=about'
p104
I208
sS'aux=can'
p105
I41
sS'complm=that'
p106
I59
sS'w+2=legal'
p107
I369
sS'dobj=account'
p108
I90
sS'dobj=card'
p109
I98
sS'w-1=fake'
p110
I467
sS'dep=order'
p111
I82
sS'w-1=more'
p112
I485
sS'w+2=by'
p113
I337
sS'w+1=the'
p114
I290
sS'ccomp=match'
p115
I55
sS'w+1=vehicle'
p116
I297
sS'conj=entangled'
p117
I66
sS'w+2=be'
p118
I331
sS'dobj=scalp'
p119
I133
sS'w+1=they'
p120
I291
sS'prep=if'
p121
I220
sS'nsubjpass=#PRP#'
p122
I195
sS'w-1=agent'
p123
I449
sS'w+2=balanced'
p124
I330
sS'prep=in'
p125
I221
sS'aux=would'
p126
I47
sS'w+1=for'
p127
I260
sS'dobj=inflation'
p128
I116
sS'dobj=website'
p129
I146
sS'nsubj=U.N.'
p130
I173
sS'w-1=honor'
p131
I477
sS'w+2=antibody'
p132
I326
sS'w-2=U.N.'
p133
I541
sS'prep=to'
p134
I226
sS'advcl=call'
p135
I0
sS'nsubj=whatever'
p136
I194
sS'w-2=ambition'
p137
I548
sS'nn=reality'
p138
I163
sS'w-1=inspector'
p139
I481
sS'w-2=impossible'
p140
I593
sS'poss=#PRP#'
p141
I207
sS'dobj=condition'
p142
I101
sS'w+1=and'
p143
I244
sS'w-2=she'
p144
I641
sS'dobj=work'
p145
I147
sS'w-2=interview'
p146
I601
sS'w+1=against'
p147
I241
sS'w+2=scalp'
p148
I407
sS'det=a'
p149
I83
sS'w+1=any'
p150
I245
sS'w-2=photo'
p151
I627
sS'w-2=bag'
p152
I554
sS'w-2=insist'
p153
I599
sS'nsubj=that'
p154
I191
sS'w-1=such'
p155
I509
sS'num=$'
p156
I203
sS'w+2=trade'
p157
I426
sS'prt=up'
p158
I229
sS'w-2=opportunity'
p159
I621
sS'w+1=unislamic'
p160
I295
sS'dobj=weather'
p161
I145
sS'w+2=these'
p162
I423
sS'w-1=in'
p163
I479
sS'w+2=we'
p164
I429
sS'dobj=all'
p165
I93
sS'w-2=thorough'
p166
I659
sS'w-2=strict'
p167
I647
sS'w+1=identity'
p168
I270
sS'w-2=stack'
p169
I645
sS'w-1=the'
p170
I511
sS'w+2=practice'
p171
I400
sS'nsubj=loader'
p172
I183
sS'conj=pay'
p173
I67
sS'mark=in'
p174
I151
sS'w+1=write'
p175
I304
sS'nn=border'
p176
I157
sS'amod=traditional'
p177
I36
sS'amod=medical'
p178
I27
sS'w-2=tomb'
p179
I662
sS'dobj=village'
p180
I143
sS'amod=proper'
p181
I28
sS'w+2=sign'
p182
I412
sS'w-2=virus'
p183
I667
sS'dobj=plane'
p184
I125
sS'partmod=write'
p185
I206
sS'det=the'
p186
I86
sS'w+2=someone'
p187
I415
sS'w-2=business'
p188
I559
sS'advcl=try'
p189
I6
sS'w-2=excite'
p190
I577
sS'w+2=defamation'
p191
I344
sS'ccomp=rig'
p192
I57
sS'prep=along'
p193
I212
sS'conj=stay'
p194
I75
sS'dobj=activity'
p195
I91
sS'w-2=of'
p196
I619
sS'w+1=can'
p197
I249
sS'dobj=cent'
p198
I99
sS'w-1=time'
p199
I515
sS'w-1=to'
p200
I516
sS'w-2=use'
p201
I664
sS'w-2=inflation'
p202
I598
sS'advmod=specifically'
p203
I17
sS'w+2=balance'
p204
I329
sS'w+2=more'
p205
I377
sS'advcl=on'
p206
I4
sS'w-2=do'
p207
I575
sS'w-1=should'
p208
I507
sS'w+2=currently'
p209
I342
sS'w+1=you'
p210
I305
sS'w-1=25,000'
p211
I441
sS'w-2=serious'
p212
I640
sS'w-2=ability'
p213
I544
sS'dobj=driver'
p214
I104
sS'w-1=background'
p215
I453
sS'w-2=Zulima'
p216
I542
sS'w-1=Lufthansa'
p217
I442
sS'w+1=as'
p218
I246
sS'w-2=another'
p219
I550
sS'w+1=at'
p220
I247
sS'conj=pull'
p221
I69
sS'w+1=he'
p222
I265
sS'w+2=all'
p223
I322
sS'w-2=subject'
p224
I649
sS'prt=out'
p225
I228
sS'w-1=passport'
p226
I492
sS'nsubjpass=bag'
p227
I196
sS'w-2=military'
p228
I613
sS'dobj=friend'
p229
I113
sS'ccomp=be'
p230
I51
sS'w-2=scene'
p231
I638
sS'nn=nkusus'
p232
I161
sS'w-1=those'
p233
I513
sS'w+2=mood'
p234
I376
sS'nsubjpass=desk-top'
p235
I200
sS'det=those'
p236
I87
sS'w-2=rake'
p237
I632
sS'xcomp=deal'
p238
I676
sS'nn=passport'
p239
I162
sS'prep=for'
p240
I218
sS'w+2=age'
p241
I320
sS'advcl=swim'
p242
I5
sS'w+1=we'
p243
I298
sS'w-2=internet'
p244
I600
sS'w+2=they'
p245
I424
sS'w+2=at'
p246
I328
sS'w-2=devote'
p247
I572
sS'w-1=identity'
p248
I478
sS'w-2=touch-screen'
p249
I663
sS'w+1=would'
p250
I303
sS'w+2=state'
p251
I417
sS'w-1=accept'
p252
I448
sS'dobj=each'
p253
I105
sS'auxpass=be'
p254
I48
sS'nsubjpass=both'
p255
I197
sS'dobj=face'
p256
I108
sS'w-2=last'
p257
I607
sS'w+1=list'
p258
I277
sS'w-1=safety'
p259
I503
sS'w-1=large'
p260
I483
sS'w-2=EU'
p261
I532
sS'w-2=be'
p262
I555
sS'amod=strict'
p263
I33
sS'w-2=mine'
p264
I614
sS'w+2=safety'
p265
I406
sS'w+1=rise'
p266
I287
sS'nsubj=#NUMBER#'
p267
I168
sS'partmod=traffic'
p268
I205
sS'w+2=garbage'
p269
I358
sS'w+2=she'
p270
I411
sS'w-2=camp'
p271
I563
sS'advmod=maybe'
p272
I12
sS'nn=center'
p273
I158
sS'w+1=its'
p274
I276
sS'w+1=report'
p275
I286
sS'nsubj=Prastiyo'
p276
I172
sS'advmod=carefully'
p277
I8
sS'w+2=with'
p278
I433
sS'w-2=neighbor'
p279
I617
sS'dobj=everyone'
p280
I107
sS"w-1=''"
p281
I437
sS'w-2=brand'
p282
I558
sS'w-1=find'
p283
I469
sS'w-2=routine'
p284
I635
sS'xcomp=find'
p285
I679
sS'w-1=road'
p286
I502
sS'w-2=charge'
p287
I567
sS'w-2=area'
p288
I551
sS'w+2=prospective'
p289
I401
sS'dobj=vehicle'
p290
I142
sS'ccomp=use'
p291
I58
sS'w-1=reality'
p292
I498
sS'w+2=entrance'
p293
I351
sS'w+2=or'
p294
I389
sS'amod=final'
p295
I24
sS"w-2=''"
p296
I527
sS'nsubj=this'
p297
I192
sS'w+2=of'
p298
I385
sS'dobj=taxi'
p299
I140
sS'w+2=on'
p300
I386
sS'w+1=to'
p301
I293
sS'w-2=keep'
p302
I605
sS'w-1=perform'
p303
I493
sS'prep=against'
p304
I211
sS'w+2=he'
p305
I360
sS'w+2=make'
p306
I371
sS'conj=weed'
p307
I77
sS'w-2=screening'
p308
I639
sS'conj=determine'
p309
I65
sS'prep=into'
p310
I222
sS'w-2=vessel'
p311
I665
sS'w+1=traffic'
p312
I294
sS'dobj=library'
p313
I119
sS'conj=carry'
p314
I61
sS'w+2=part'
p315
I391
sS'w-2=there'
p316
I657
sS'w-2=15,000'
p317
I530
sS'w+2=once'
p318
I387
sS'w-2=raid'
p319
I631
sS'advmod=first'
p320
I11
sS'w-2=put'
p321
I630
sS'dobj=rise'
p322
I132
sS'rcmod=hurt'
p323
I231
sS'w+2=american'
p324
I324
sS'w+2=nigerian'
p325
I383
sS'w-2=stricter'
p326
I648
sS'w-2=Keith'
p327
I537
sS'w-1=medical'
p328
I484
sS'w-1=she'
p329
I506
sS'advcl=have'
p330
I3
sS'amod=blank'
p331
I19
sS'conj=return'
p332
I71
sS'w-2=II'
p333
I535
sS'w+2=necessary'
p334
I380
sS'w+2=person'
p335
I396
sS'w-2=both'
p336
I557
sS'w-2=criminal'
p337
I570
sS'w-1=bridge'
p338
I458
sS'amod=fake'
p339
I23
sS'w-2=receive'
p340
I633
sS'det=another'
p341
I84
sS'w-2=mechanism'
p342
I611
sS'w-2=yesterday'
p343
I674
sS'w-2=mission'
p344
I615
sS'dobj=report'
p345
I131
sS'xcomp=define'
p346
I677
sS'w+2=those'
p347
I425
sS'w-1=proper'
p348
I495
sS'dobj=tank'
p349
I139
sS'tmod=day'
p350
I233
sS'w-2=introduce'
p351
I602
sS'w-2=its'
p352
I604
sS'w+2=plane'
p353
I397
sS'w-2=Iraq'
p354
I536
sS'rcmod=grow'
p355
I230
sS'w+2=20'
p356
I310
sS'advmod=continuously'
p357
I9
sS'dobj=box'
p358
I96
sS'advmod=ever'
p359
I10
sS'aux=do'
p360
I42
sS'nsubj=area'
p361
I175
sS'w+2=reach'
p362
I402
sS'dobj=first'
p363
I111
sS'w-2=with'
p364
I672
sS'dobj=spread'
p365
I136
sS'w+2=insurgent'
p366
I366
sS'w+2=new'
p367
I381
sS'partmod=conduct'
p368
I204
sS'w+2=email'
p369
I349
sS'expl=there'
p370
I148
sS'w+2=U.S.'
p371
I316
sS'nsubj=people'
p372
I186
sS'prep=with'
p373
I227
sS'dobj=mood'
p374
I121
sS'cc=or'
p375
I50
sS'dobj=detainee'
p376
I103
sS'w+2=military'
p377
I375
sS'dobj=colon'
p378
I100
sS'w+2=passport'
p379
I392
sS'tmod=minute'
p380
I234
sS'w-1=rebate'
p381
I499
sS'nsubj=Urban'
p382
I174
sS'w-2=individual'
p383
I596
sS'w-2=candidate'
p384
I564
sS'w-2=in'
p385
I594
sS'w-2=it'
p386
I603
sS'w-2=order'
p387
I622
sS'w-2=village'
p388
I666
sS'amod=criminal'
p389
I20
sS'dobj=freedom'
p390
I112
sS'w-2=run'
p391
I636
sS'w-2=suddenly'
p392
I650
sS'w+2=relief'
p393
I404
sS'w-2=reminiscent'
p394
I634
sS'dobj=email'
p395
I106
sS'dobj=tally'
p396
I138
sS'ccomp=place'
p397
I56
sS'w-2=grad'
p398
I585
sS'amod=vital'
p399
I37
sS'conj=cooperation'
p400
I63
sS'w-2=tax'
p401
I652
sS'num=#NUMBER#'
p402
I202
sS'w+1=without'
p403
I302
sS'w+2=account'
p404
I319
sS"w+2=''"
p405
I307
sS'w+2=double'
p406
I346
sS'w+2=four'
p407
I355
sS'advmod=also'
p408
I7
sS'w-2=disease'
p409
I574
sS'w+2=thereafter'
p410
I422
sS'nsubjpass=car'
p411
I198
sS'w+1=follow'
p412
I259
sS'w+2=Social'
p413
I315
sS'appos=check'
p414
I38
sS'dobj=groom'
p415
I114
sS'nsubjpass=passport'
p416
I201
sS'w-1=white'
p417
I522
sS'w-1=criminal'
p418
I465
sS'dobj=income'
p419
I115
sS'w-2=call'
p420
I562
sS'w-1=Security'
p421
I444
sS'nn=rebate'
p422
I164
sS'w-2=have'
p423
I587
sS'cc=and'
p424
I49
sS'nsubj=student'
p425
I189
sS'dobj=any'
p426
I94
sS'w-1=write'
p427
I525
sS'w+1=of'
p428
I280
sS'w-1=we'
p429
I520
sS'w+2=current'
p430
I341
sS'nn=health'
p431
I159
sS'w-1=just'
p432
I482
sS'dobj=insurgent'
p433
I117
sS'nsubj=gastroenterologist'
p434
I180
sS'nsubj=border'
p435
I176
sS'w+1=get'
p436
I263
sS'w+2=al-Mukarama'
p437
I321
sS'nsubj=Airlines'
p438
I170
sS'w-1=random'
p439
I497
sS'w-2=team'
p440
I653
sS'conj=cost'
p441
I64
sS'w+1=inflation'
p442
I273
sS'dobj=pony'
p443
I126
sS'w+1=if'
p444
I271
sS'w+2=some'
p445
I414
sS'nsubj=official'
p446
I185
sS'nn=security'
p447
I167
sS'w-2=let'
p448
I609
sS'w+1=in'
p449
I272
sS'w-1=health'
p450
I476
sS'w+1=it'
p451
I275
sS'dobj=that'
p452
I141
sS'nsubj=#PRP#'
p453
I169
sS'w+2=from'
p454
I357
sS'advcl=find'
p455
I2
sS'w+2=see'
p456
I409
sS"w+1=''"
p457
I235
sS'w+1=into'
p458
I274
sS'dobj=passport'
p459
I123
sS'csubj=sound'
p460
I79
sS'w-1=allow'
p461
I450
sS'w+1=damage'
p462
I251
sS'dobj=#NUMBER#'
p463
I88
sS'w+2=poorer'
p464
I399
sS'w+2=inaccuracy'
p465
I364
sS'prep=like'
p466
I223
sS'w+2=draw'
p467
I347
sS'w-2=background'
p468
I553
sS'w+1=should'
p469
I288
sS'w-2=out'
p470
I623
sS'w+2=manifest'
p471
I372
sS'w-1=final'
p472
I468
sS'dep=if'
p473
I81
sS'w-1=regular'
p474
I500
sS'w+1=along'
p475
I243
sS'w-1=without'
p476
I523
sS'w-2=begin'
p477
I556
sS'aux=must'
p478
I44
sS'dobj=fact'
p479
I109
sS'w-2=allow'
p480
I547
sS'w+2=which'
p481
I432
sS'nsubj=photo'
p482
I187
sS'w-1=continuously'
p483
I464
sS'prep=of'
p484
I224
sS'amod=such'
p485
I35
sS'w+2=seven'
p486
I410
sS'prep=on'
p487
I225
sS'w+2=militant'
p488
I374
sS'nsubj=man'
p489
I184
sS'w-2=street'
p490
I646
sS'w-2=by'
p491
I561
sS'w-1=carefully'
p492
I462
sS'w-1=center'
p493
I463
sS'dobj=practice'
p494
I127
sS'w+2=both'
p495
I334
sS'w-2=goods'
p496
I584
sS'w+1=out'
p497
I282
sS'w+2=damage'
p498
I343
sS'w-2=passport'
p499
I624
sS'w+1=all'
p500
I242
sS'conj=balance'
p501
I60
sS'w+2=than'
p502
I420
sS'w+2=out'
p503
I390
sS'ccomp=levy'
p504
I54
sS'nn=safety'
p505
I166
sS'w-2=allegation'
p506
I546
sS'w+2=also'
p507
I323
sS'w+2=Samak'
p508
I314
sS'w+2=village'
p509
I428
sS'w-1=double'
p510
I466
sS'w-1=folk'
p511
I470
sS'w+2=rehab'
p512
I403
sS'w-2=get'
p513
I581
sS'w-2=want'
p514
I668
sS'w-1=through'
p515
I514
sS'w-1=or'
p516
I491
sS'conj=see'
p517
I72
sS'w-2=system'
p518
I651
sS'w-1=of'
p519
I489
sS'conj=set'
p520
I74
sS'w-2=law'
p521
I608
sS'w+2=fight'
p522
I353
sS'w-2=to'
p523
I661
sS'w+2=and'
p524
I325
sS'w-2=and'
p525
I549
sS'w-2=connect'
p526
I568
sS'w+1=up'
p527
I296
sS'w+2=symbol'
p528
I418
sS'w+2=disabled'
p529
I345
sS'w+2=cent'
p530
I338
sS'w+1=15'
p531
I238
sS'prep=across'
p532
I209
sS'w+2=about'
p533
I318
sS'w-2=one'
p534
I620
sS'w+1=first'
p535
I258
sS'w+1=this'
p536
I292
sS'cop=be'
p537
I78
sS'w-2=enough'
p538
I576
sS'dobj=level'
p539
I118
sS'w+1=more'
p540
I279
sS'dobj=#PRP#'
p541
I89
sS'w+2=fact'
p542
I352
sS'w+1=with'
p543
I301
sS'w-2=goal'
p544
I583
sS'amod=routine'
p545
I31
sS'w-2=say'
p546
I637
sS'w+2=book'
p547
I333
sS'w+2=into'
p548
I367
sS'w+2=the'
p549
I421
sS'prep=at'
p550
I214
sS'w-2=will'
p551
I671
sS'prep=as'
p552
I213
sS'dobj=skin'
p553
I134
sS'w-2=,'
p554
I528
sS'w-2=.'
p555
I529
sS'w-1=and'
p556
I452
sS'w-2=$'
p557
I526
sS'w+1=what'
p558
I299
sS'aux=have'
p559
I43
sS'w-2=but'
p560
I560
sS'w-1=please'
p561
I494
sS'w-2=hopefully'
p562
I591
sS'nn=background'
p563
I156
sS'w-1=.'
p564
I440
sS'dep=begin'
p565
I80
sS'w-1=,'
p566
I438
sS'w-2=not'
p567
I618
sS'w+2=material'
p568
I373
sS'amod=stricter'
p569
I34
sS'w+1=every'
p570
I255
sS'w-2=I'
p571
I534
sS'w-1=Urban'
p572
I445
sS'xcomp=ensure'
p573
I678
sS'w-2=as'
p574
I552
sS'ccomp=burn'
p575
I52
sS'advcl=enforce'
p576
I1
sS'w+1=himself'
p577
I267
sS'nn=identity'
p578
I160
sS'w+1=mark'
p579
I278
sS'w+2=one'
p580
I388
sS'w+2=no'
p581
I384
sS'w+2=you'
p582
I436
sS'aux=should'
p583
I45
sS'w+2=skin'
p584
I413
sS'amod=last'
p585
I25
sS'amod=serious'
p586
I32
sS'w-2=cash'
p587
I566
sS'nsubj=large'
p588
I182
sS'w-2=a'
p589
I543
sS'w-1=they'
p590
I512
sS'w+1=price'
p591
I285
sS'w-2=present'
p592
I629
sS'nsubj=inspector'
p593
I181
sS'w-1=a'
p594
I447
sS'w-1=`'
p595
I446
sS'dobj=pavilion'
p596
I124
sS'w+2=rise'
p597
I405
sS'mark=as'
p598
I150
sS'nn=Security'
p599
I155
sS'w-1=he'
p600
I475
sS'w+1=each'
p601
I253
sS'w-2=include'
p602
I595
sS'w-1=vital'
p603
I519
sS'w-2=hard'
p604
I586
sS'w+1=from'
p605
I262
sS'dobj=pulse'
p606
I129
sS'w-1=nkusus'
p607
I487
sS'w-2=should'
p608
I642
sS'w+2=weather'
p609
I431
sS'advmod=regularly'
p610
I15
sS'prep=after'
p611
I210
sS'conj=punishment'
p612
I70
sS'w+2=Almasfuzito'
p613
I311
sS'w+1=headscarve'
p614
I266
sS'nsubjpass=condition'
p615
I199
sS'w+2=herself'
p616
I361
sS'w-1=must'
p617
I486
sS'w+2=people'
p618
I395
sS'w+1=a'
p619
I240
sS'w+2=have'
p620
I359
sS'w-2=someone'
p621
I644
sS'w-2=patrol'
p622
I625
sS'w+1=everyone'
p623
I256
sS'nn=road'
p624
I165
sS'w-1=not'
p625
I488
sS'dobj=book'
p626
I95
sS'nsubj=Palacio'
p627
I171
sS'amod=random'
p628
I29
sS'w-1=busy'
p629
I459
sS'mark=since'
p630
I152
sS'w-1=also'
p631
I451
sS'w-2=Mert'
p632
I538
sS'dobj=fight'
p633
I110
sS'w-2=industry'
p634
I597
sS'w+1=gun'
p635
I264
sS'w-2=lack'
p636
I606
sS'amod=extensive'
p637
I22
sS'prep=from'
p638
I219
sS'advmod=out'
p639
I13
sS'conj=sell'
p640
I73
sS'w-1=veterinarian'
p641
I518
sS'w+2=tank'
p642
I419
sS'w+1=point'
p643
I284
sS'aux=to'
p644
I46
sS'w-2=hold'
p645
I589
sS'w-2=facility'
p646
I579
sS'ccomp=describe'
p647
I53
sS'w+2=would'
p648
I435
sS'w-1=get'
p649
I473
sS'w-2=since'
p650
I643
sS'dobj=some'
p651
I135
sS'w+2=income'
p652
I365
sS'w+1=conduct'
p653
I250
sS'w-2=car'
p654
I565
sS'w-1=for'
p655
I471
sS'w+1=,'
p656
I236
sS'w+1=.'
p657
I237
sS'w-2=that'
p658
I654
sS'w-2=way'
p659
I669
sS'w+2=.'
p660
I309
sS'w+2=,'
p661
I308
sS'dobj=camp'
p662
I97
sS'w+2=traveler'
p663
I427
sS'neg=not'
p664
I154
sS'w+2=$'
p665
I306
sS'conj=tell'
p666
I76
sS'prep=during'
p667
I216
sS'w-1=quickly'
p668
I496
sS'w+1=fraud'
p669
I261
sS'w+2=life'
p670
I370
sS'dobj=status'
p671
I137
sS'w-2=exhaustive'
p672
I578
sS'w-2=Prastiyo'
p673
I539
sS'w-1=on'
p674
I490
sS'xcomp=#PRP#'
p675
I675
sS'w-2=constitution'
p676
I569
sS'w+1=early'
p677
I254
sS'w+2=scandal'
p678
I408
sS'w-1=begin'
p679
I455
sS'w+1=be'
p680
I248
sS'w-2=difficult'
p681
I573
sS'w-1=include'
p682
I480
sS'w-1=that'
p683
I510
sS'aux=be'
p684
I40
sS'w-2=for'
p685
I580
sS'w+1=pavilion'
p686
I283
sS'w+2=cooperation'
p687
I340
sS'w+2=a'
p688
I317
sS'w+2=Iraq'
p689
I313
sS'w-2=curfew'
p690
I571
ssS'dtype'
p691
cnumpy
float64
p692
sS'feature_names_'
p693
(lp694
g135
ag576
ag455
ag330
ag206
ag242
ag189
ag408
ag277
ag357
ag359
ag320
ag272
ag639
ag26
ag610
ag53
ag203
ag8
ag331
ag389
ag44
ag637
ag339
ag295
ag585
ag10
ag178
ag181
ag628
ag96
ag545
ag586
ag263
ag569
ag485
ag177
ag399
ag414
ag97
ag684
ag105
ag360
ag559
ag478
ag583
ag644
ag126
ag254
ag424
ag375
ag230
ag575
ag647
ag504
ag115
ag397
ag192
ag291
ag106
ag501
ag314
ag24
ag400
ag441
ag309
ag117
ag173
ag59
ag221
ag612
ag332
ag517
ag640
ag520
ag194
ag666
ag307
ag537
ag460
ag565
ag473
ag111
ag149
ag341
ag14
ag186
ag236
ag463
ag541
ag108
ag195
ag38
ag165
ag426
ag626
ag358
ag662
ag109
ag198
ag378
ag142
ag61
ag376
ag214
ag253
ag395
ag280
ag256
ag479
ag633
ag363
ag390
ag229
ag415
ag419
ag128
ag433
ag539
ag313
ag79
ag374
ag45
ag459
ag596
ag184
ag443
ag494
ag78
ag606
ag100
ag345
ag322
ag119
ag553
ag651
ag365
ag671
ag396
ag349
ag299
ag452
ag290
ag180
ag86
ag161
ag129
ag145
ag370
ag30
ag598
ag174
ag630
ag82
ag664
ag599
ag563
ag176
ag273
ag431
ag578
ag232
ag239
ag138
ag422
ag624
ag505
ag447
ag267
ag453
ag438
ag627
ag276
ag130
ag382
ag361
ag435
ag35
ag9
ag42
ag434
ag593
ag588
ag172
ag489
ag446
ag372
ag482
ag11
ag425
ag25
ag154
ag297
ag15
ag136
ag122
ag227
ag255
ag411
ag615
ag235
ag416
ag402
ag156
ag368
ag268
ag185
ag141
ag104
ag532
ag611
ag304
ag193
ag552
ag550
ag37
ag667
ag52
ag240
ag638
ag121
ag125
ag310
ag466
ag484
ag487
ag134
ag373
ag225
ag158
ag355
ag323
ag89
ag350
ag380
ag457
ag656
ag657
ag531
ag67
ag619
ag147
ag500
ag475
ag143
ag150
ag218
ag220
ag680
ag197
ag653
ag462
ag76
ag601
ag677
ag570
ag623
ag18
ag535
ag412
ag127
ag669
ag605
ag436
ag635
ag222
ag614
ag577
ag40
ag64
ag168
ag444
ag449
ag442
ag458
ag451
ag274
ag258
ag579
ag540
ag428
ag84
ag497
ag686
ag643
ag591
ag275
ag266
ag469
ag43
ag114
ag120
ag536
ag301
ag312
ag160
ag527
ag116
ag243
ag558
ag83
ag543
ag403
ag250
ag175
ag210
ag665
ag405
ag661
ag660
ag356
ag613
ag28
ag689
ag508
ag413
ag371
ag688
ag533
ag404
ag241
ag437
ag223
ag507
ag324
ag524
ag132
ag69
ag246
ag204
ag124
ag118
ag74
ag547
ag495
ag19
ag23
ag113
ag530
ag49
ag687
ag430
ag209
ag498
ag191
ag529
ag406
ag467
ag13
ag369
ag98
ag293
ag542
ag522
ag95
ag407
ag34
ag454
ag269
ag620
ag305
ag616
ag94
ag99
ag465
ag652
ag366
ag548
ag58
ag107
ag670
ag306
ag471
ag568
ag488
ag377
ag234
ag205
ag55
ag41
ag334
ag367
ag22
ag325
ag581
ag298
ag300
ag318
ag580
ag294
ag503
ag315
ag379
ag90
ag70
ag618
ag335
ag353
ag60
ag464
ag171
ag289
ag362
ag512
ag393
ag597
ag265
ag148
ag678
ag456
ag486
ag270
ag182
ag584
ag445
ag187
ag50
ag251
ag528
ag642
ag502
ag549
ag410
ag162
ag245
ag347
ag157
ag663
ag509
ag164
ag57
ag609
ag481
ag278
ag65
ag648
ag582
ag281
ag566
ag36
ag564
ag211
ag217
ag68
ag421
ag572
ag595
ag594
ag252
ag123
ag461
ag631
ag556
ag215
ag66
ag679
ag32
ag27
ag338
ag629
ag63
ag48
ag492
ag493
ag483
ag418
ag510
ag110
ag472
ag283
ag511
ag655
ag85
ag649
ag93
ag600
ag450
ag131
ag248
ag163
ag682
ag139
ag432
ag260
ag328
ag112
ag617
ag607
ag625
ag519
ag674
ag516
ag226
ag303
ag561
ag348
ag668
ag439
ag292
ag381
ag474
ag16
ag286
ag259
ag47
ag101
ag329
ag208
ag87
ag155
ag683
ag170
ag590
ag233
ag515
ag199
ag200
ag12
ag641
ag603
ag429
ag21
ag417
ag476
ag46
ag427
ag557
ag296
ag554
ag555
ag317
ag39
ag261
ag20
ag571
ag333
ag354
ag327
ag632
ag673
ag81
ag133
ag216
ag589
ag213
ag88
ag506
ag480
ag137
ag525
ag219
ag288
ag574
ag468
ag152
ag262
ag477
ag336
ag282
ag188
ag560
ag491
ag420
ag271
ag384
ag654
ag587
ag287
ag526
ag676
ag337
ag690
ag247
ag681
ag409
ag207
ag538
ag190
ag672
ag646
ag685
ag513
ag75
ag544
ag496
ag398
ag604
ag423
ag73
ag645
ag91
ag562
ag62
ag140
ag385
ag602
ag383
ag634
ag202
ag153
ag244
ag146
ag351
ag386
ag352
ag302
ag636
ag257
ag521
ag448
ag77
ag342
ag80
ag228
ag264
ag344
ag51
ag279
ag567
ag196
ag534
ag159
ag387
ag470
ag499
ag622
ag17
ag151
ag29
ag592
ag321
ag319
ag237
ag340
ag394
ag284
ag391
ag546
ag231
ag308
ag212
ag144
ag608
ag650
ag621
ag169
ag490
ag167
ag326
ag224
ag392
ag518
ag401
ag440
ag658
ag71
ag31
ag316
ag33
ag166
ag72
ag523
ag179
ag249
ag201
ag311
ag388
ag183
ag514
ag659
ag56
ag551
ag364
ag103
ag343
ag675
ag238
ag346
ag573
ag285
ag54
ag102
ag92
asS'separator'
p695
S'='
sS'sparse'
p696
I01
sb.