ccopy_reg
_reconstructor
p1
(csklearn.feature_extraction.dict_vectorizer
DictVectorizer
p2
c__builtin__
object
p3
NtRp4
(dp5
S'sort'
p6
I01
sS'feature_names_'
p7
(lp8
S'advcl=announce'
p9
aS'advcl=begin'
p10
aS'advcl=demonstrate'
p11
aS'advcl=displaced'
p12
aS'advcl=go'
p13
aS'advcl=pursue'
p14
aS'advcl=sell'
p15
aS'advcl=unfurl'
p16
aS'advcl=work'
p17
aS'advmod=ago'
p18
aS'advmod=also'
p19
aS'advmod=apart'
p20
aS'advmod=away'
p21
aS'advmod=down'
p22
aS'advmod=especially'
p23
aS'advmod=further'
p24
aS'advmod=in'
p25
aS'advmod=now'
p26
aS'advmod=off'
p27
aS'advmod=reportedly'
p28
aS'advmod=still'
p29
aS'advmod=up'
p30
aS'advmod=when'
p31
aS'amod=more'
p32
aS'aux=be'
p33
aS'aux=could'
p34
aS'aux=have'
p35
aS'aux=should'
p36
aS'aux=to'
p37
aS'aux=will'
p38
aS'aux=would'
p39
aS'auxpass=be'
p40
aS'cc=and'
p41
aS'cc=but'
p42
aS'ccomp=enter'
p43
aS'ccomp=fire'
p44
aS'ccomp=make'
p45
aS'ccomp=represent'
p46
aS'complm=that'
p47
aS'conj=beat'
p48
aS'conj=build'
p49
aS'conj=deploy'
p50
aS'conj=destroy'
p51
aS'conj=devastate'
p52
aS'conj=displace'
p53
aS'conj=fire'
p54
aS'conj=increase'
p55
aS'conj=live'
p56
aS'conj=replant'
p57
aS'conj=retirement'
p58
aS'conj=suffering'
p59
aS'conj=threaten'
p60
aS'cop=be'
p61
aS'dep=after'
p62
aS'dep=before'
p63
aS'dep=cite'
p64
aS'dep=force'
p65
aS'dep=memoir'
p66
aS'dep=more'
p67
aS'dep=say'
p68
aS'det=no'
p69
aS'det=that'
p70
aS'det=the'
p71
aS'det=those'
p72
aS'dobj=#PRP#'
p73
aS'dobj=Achilles'
p74
aS'dobj=Valley'
p75
aS'dobj=acl'
p76
aS'dobj=ankle'
p77
aS'dobj=area'
p78
aS'dobj=baton'
p79
aS'dobj=blanket'
p80
aS'dobj=building'
p81
aS'dobj=bullet'
p82
aS'dobj=bunch'
p83
aS'dobj=canister'
p84
aS'dobj=cannon'
p85
aS'dobj=cartridge'
p86
aS'dobj=clothes'
p87
aS'dobj=country'
p88
aS'dobj=gas'
p89
aS'dobj=grenade'
p90
aS'dobj=hamstring'
p91
aS'dobj=highway'
p92
aS'dobj=hut'
p93
aS'dobj=meat'
p94
aS'dobj=mosque'
p95
aS'dobj=nation'
p96
aS'dobj=original'
p97
aS'dobj=region'
p98
aS'dobj=roof'
p99
aS'dobj=school'
p100
aS'dobj=section'
p101
aS'dobj=shell'
p102
aS'dobj=shot'
p103
aS'dobj=society'
p104
aS'dobj=stall'
p105
aS'dobj=stand'
p106
aS'dobj=vessel'
p107
aS'dobj=wall'
p108
aS'mark=after'
p109
aS'mark=as'
p110
aS'mark=because'
p111
aS'mark=if'
p112
aS'mark=in'
p113
aS'nn=Island'
p114
aS'nn=acl'
p115
aS'nn=bulge'
p116
aS'nsubj=#PRP#'
p117
aS'nsubj=Nargis'
p118
aS'nsubj=battleground'
p119
aS'nsubj=blast'
p120
aS'nsubj=bomb'
p121
aS'nsubj=cause'
p122
aS'nsubj=explosion'
p123
aS'nsubj=firing'
p124
aS'nsubj=force'
p125
aS'nsubj=government'
p126
aS'nsubj=large'
p127
aS'nsubj=resident'
p128
aS'nsubj=riot'
p129
aS'nsubj=soldier'
p130
aS'nsubj=some'
p131
aS'nsubj=storm'
p132
aS'nsubj=that'
p133
aS'nsubj=the'
p134
aS'nsubj=violence'
p135
aS'nsubj=wind'
p136
aS'nsubjpass=#PRP#'
p137
aS'nsubjpass=Darfur'
p138
aS'nsubjpass=Wall'
p139
aS'nsubjpass=child'
p140
aS'nsubjpass=country'
p141
aS'nsubjpass=fabric'
p142
aS'nsubjpass=forest'
p143
aS'nsubjpass=hotel'
p144
aS'nsubjpass=party'
p145
aS'nsubjpass=roadblock'
p146
aS'nsubjpass=roof'
p147
aS'nsubjpass=that'
p148
aS'nsubjpass=tree'
p149
aS'nsubjpass=which'
p150
aS'num=#NUMBER#'
p151
aS'parataxis=fight'
p152
aS'partmod=kill'
p153
aS'poss=#PRP#'
p154
aS'prep=across'
p155
aS'prep=after'
p156
aS'prep=amid'
p157
aS'prep=as'
p158
aS'prep=at'
p159
aS'prep=by'
p160
aS'prep=despite'
p161
aS'prep=during'
p162
aS'prep=follow'
p163
aS'prep=from'
p164
aS'prep=in'
p165
aS'prep=into'
p166
aS'prep=of'
p167
aS'prep=off'
p168
aS'prep=on'
p169
aS'prep=since'
p170
aS'prep=through'
p171
aS'prep=to'
p172
aS'prep=with'
p173
aS'prt=apart'
p174
aS'prt=away'
p175
aS'prt=down'
p176
aS'prt=off'
p177
aS'prt=up'
p178
aS'rcmod=say'
p179
aS'tmod=#DATE#'
p180
aS'tmod=week'
p181
aS'tmod=year'
p182
aS"w+1='"
p183
aS'w+1=,'
p184
aS'w+1=.'
p185
aS'w+1=...'
p186
aS'w+1=Rift'
p187
aS'w+1=across'
p188
aS'w+1=amongst'
p189
aS'w+1=and'
p190
aS'w+1=apart'
p191
aS'w+1=area'
p192
aS'w+1=as'
p193
aS'w+1=away'
p194
aS'w+1=because'
p195
aS'w+1=by'
p196
aS'w+1=country'
p197
aS'w+1=down'
p198
aS'w+1=for'
p199
aS'w+1=force'
p200
aS'w+1=from'
p201
aS'w+1=gas'
p202
aS'w+1=have'
p203
aS'w+1=he'
p204
aS'w+1=in'
p205
aS'w+1=into'
p206
aS'w+1=it'
p207
aS'w+1=ligament'
p208
aS'w+1=meat'
p209
aS'w+1=meniscus'
p210
aS'w+1=my'
p211
aS'w+1=of'
p212
aS'w+1=off'
p213
aS'w+1=on'
p214
aS'w+1=open'
p215
aS'w+1=region'
p216
aS'w+1=roof'
p217
aS'w+1=shall'
p218
aS'w+1=she'
p219
aS'w+1=society'
p220
aS'w+1=solar'
p221
aS'w+1=streak'
p222
aS'w+1=the'
p223
aS'w+1=they'
p224
aS'w+1=those'
p225
aS'w+1=through'
p226
aS'w+1=to'
p227
aS'w+1=up'
p228
aS'w+1=we'
p229
aS'w+1=when'
p230
aS"w+2=''"
p231
aS'w+2=,'
p232
aS'w+2=.'
p233
aS'w+2=Achilles'
p234
aS'w+2=France'
p235
aS'w+2=JP'
p236
aS'w+2=Mexico'
p237
aS'w+2=Monday'
p238
aS'w+2=NASA'
p239
aS'w+2=November'
p240
aS'w+2=Valley'
p241
aS'w+2=a'
p242
aS'w+2=acl'
p243
aS'w+2=and'
p244
aS'w+2=apart'
p245
aS'w+2=at'
p246
aS'w+2=away'
p247
aS'w+2=be'
p248
aS'w+2=blanket'
p249
aS'w+2=building'
p250
aS'w+2=but'
p251
aS'w+2=by'
p252
aS'w+2=canister'
p253
aS'w+2=cartridge'
p254
aS'w+2=cite'
p255
aS'w+2=civil'
p256
aS'w+2=conflict'
p257
aS'w+2=could'
p258
aS'w+2=down'
p259
aS'w+2=earlier'
p260
aS'w+2=empty'
p261
aS'w+2=every'
p262
aS'w+2=fear'
p263
aS'w+2=fight'
p264
aS'w+2=fire'
p265
aS'w+2=from'
p266
aS'w+2=hamstring'
p267
aS'w+2=he'
p268
aS'w+2=if'
p269
aS'w+2=in'
p270
aS'w+2=informal'
p271
aS'w+2=into'
p272
aS'w+2=my'
p273
aS'w+2=nation'
p274
aS'w+2=of'
p275
aS'w+2=off'
p276
aS'w+2=one'
p277
aS'w+2=original'
p278
aS'w+2=political'
p279
aS'w+2=population'
p280
aS'w+2=really'
p281
aS'w+2=roadside'
p282
aS'w+2=roof'
p283
aS'w+2=rundown'
p284
aS'w+2=say'
p285
aS'w+2=she'
p286
aS'w+2=shell'
p287
aS'w+2=suffering'
p288
aS'w+2=the'
p289
aS'w+2=there'
p290
aS'w+2=they'
p291
aS'w+2=this'
p292
aS'w+2=to'
p293
aS'w+2=toxic-laden'
p294
aS'w+2=two'
p295
aS'w+2=we'
p296
aS'w+2=wing'
p297
aS'w+2=with'
p298
aS'w-1=,'
p299
aS'w-1=.'
p300
aS'w-1=96'
p301
aS'w-1=I'
p302
aS'w-1=Island'
p303
aS'w-1=Nargis'
p304
aS'w-1=a'
p305
aS'w-1=acl'
p306
aS'w-1=also'
p307
aS'w-1=and'
p308
aS'w-1=back'
p309
aS'w-1=be'
p310
aS'w-1=before'
p311
aS'w-1=blast'
p312
aS'w-1=bomb'
p313
aS'w-1=bring'
p314
aS'w-1=bulge'
p315
aS'w-1=by'
p316
aS'w-1=clothing'
p317
aS'w-1=country'
p318
aS'w-1=empty'
p319
aS'w-1=equipment'
p320
aS'w-1=especially'
p321
aS'w-1=every'
p322
aS'w-1=explosion'
p323
aS'w-1=fire'
p324
aS'w-1=firing'
p325
aS'w-1=for'
p326
aS'w-1=government'
p327
aS'w-1=have'
p328
aS'w-1=in'
p329
aS'w-1=into'
p330
aS'w-1=it'
p331
aS'w-1=large'
p332
aS'w-1=lob'
p333
aS'w-1=mean'
p334
aS'w-1=mob'
p335
aS'w-1=more'
p336
aS'w-1=of'
p337
aS'w-1=peacekeeper'
p338
aS'w-1=region'
p339
aS'w-1=repair'
p340
aS'w-1=reportedly'
p341
aS'w-1=represent'
p342
aS'w-1=riot'
p343
aS'w-1=she'
p344
aS'w-1=some'
p345
aS'w-1=still'
p346
aS'w-1=storm'
p347
aS'w-1=strife'
p348
aS'w-1=that'
p349
aS'w-1=the'
p350
aS'w-1=they'
p351
aS'w-1=those'
p352
aS'w-1=through'
p353
aS'w-1=throw'
p354
aS'w-1=time'
p355
aS'w-1=title'
p356
aS'w-1=to'
p357
aS'w-1=two'
p358
aS'w-1=use'
p359
aS'w-1=violence'
p360
aS'w-1=war'
p361
aS'w-1=we'
p362
aS'w-1=wind'
p363
aS'w-1=wipe'
p364
aS'w-1=with'
p365
aS'w-1=you'
p366
aS"w-2=''"
p367
aS"w-2='s"
p368
aS'w-2=,'
p369
aS'w-2=.'
p370
aS'w-2=Burundi'
p371
aS'w-2=Cyclone'
p372
aS'w-2=Gorbachev'
p373
aS'w-2=Hindu'
p374
aS'w-2=Kaibaivanka'
p375
aS'w-2=Kashmir'
p376
aS'w-2=Parris'
p377
aS'w-2=Police'
p378
aS'w-2=Somalia'
p379
aS'w-2=U.N.'
p380
aS'w-2=a'
p381
aS'w-2=actually'
p382
aS'w-2=age'
p383
aS'w-2=all'
p384
aS'w-2=almost'
p385
aS'w-2=and'
p386
aS'w-2=be'
p387
aS'w-2=both'
p388
aS'w-2=break'
p389
aS'w-2=bring'
p390
aS'w-2=bullet'
p391
aS'w-2=burst'
p392
aS'w-2=choke'
p393
aS'w-2=club'
p394
aS'w-2=coast'
p395
aS'w-2=corroded'
p396
aS'w-2=could'
p397
aS'w-2=country'
p398
aS'w-2=crowd'
p399
aS'w-2=day'
p400
aS'w-2=demonstration'
p401
aS'w-2=down'
p402
aS'w-2=effect'
p403
aS'w-2=enough'
p404
aS'w-2=experience'
p405
aS'w-2=fierce'
p406
aS'w-2=fight'
p407
aS'w-2=fill'
p408
aS'w-2=fire'
p409
aS'w-2=force'
p410
aS'w-2=gear'
p411
aS'w-2=go'
p412
aS'w-2=ground'
p413
aS'w-2=have'
p414
aS'w-2=here'
p415
aS'w-2=history'
p416
aS'w-2=hold'
p417
aS'w-2=if'
p418
aS'w-2=in'
p419
aS'w-2=likely'
p420
aS'w-2=mend'
p421
aS'w-2=methane'
p422
aS'w-2=mid-August'
p423
aS'w-2=move'
p424
aS'w-2=no'
p425
aS'w-2=of'
p426
aS'w-2=office'
p427
aS'w-2=officer'
p428
aS'w-2=on'
p429
aS'w-2=other'
p430
aS'w-2=over'
p431
aS'w-2=plan'
p432
aS'w-2=police'
p433
aS'w-2=possibly'
p434
aS'w-2=powerful'
p435
aS'w-2=protective'
p436
aS'w-2=repair'
p437
aS'w-2=repeatedly'
p438
aS'w-2=respond'
p439
aS'w-2=roof'
p440
aS'w-2=save'
p441
aS'w-2=say'
p442
aS'w-2=season'
p443
aS'w-2=service'
p444
aS'w-2=should'
p445
aS'w-2=soldier'
p446
aS'w-2=some'
p447
aS'w-2=spot'
p448
aS'w-2=stage'
p449
aS'w-2=street'
p450
aS'w-2=suburban'
p451
aS'w-2=that'
p452
aS'w-2=the'
p453
aS'w-2=there'
p454
aS'w-2=they'
p455
aS'w-2=threaten'
p456
aS'w-2=through'
p457
aS'w-2=to'
p458
aS'w-2=trail'
p459
aS'w-2=tree'
p460
aS'w-2=try'
p461
aS'w-2=use'
p462
aS'w-2=watch'
p463
aS'w-2=wear'
p464
aS'w-2=when'
p465
aS'w-2=which'
p466
aS'w-2=who'
p467
aS'w-2=will'
p468
aS'w-2=wipe'
p469
aS'w-2=would'
p470
aS'w-2=year'
p471
aS'w-2=you'
p472
aS'xcomp=acl'
p473
aS'xcomp=break'
p474
aS'xcomp=control'
p475
aS'xcomp=cut'
p476
aS'xcomp=disperse'
p477
aS'xcomp=kill'
p478
aS'xcomp=leave'
p479
aS'xcomp=put'
p480
asS'dtype'
p481
cnumpy
float64
p482
sS'vocabulary_'
p483
(dp484
g449
I440
sg69
I60
sg260
I251
sg278
I269
sg83
I74
sg43
I34
sg273
I264
sg135
I126
sg318
I309
sg251
I242
sg90
I81
sg82
I73
sg433
I424
sg129
I120
sg44
I35
sg455
I446
sg403
I394
sg323
I314
sg88
I79
sg274
I265
sg49
I40
sg398
I389
sg261
I252
sg126
I117
sg360
I351
sg79
I70
sg163
I154
sg335
I326
sg199
I190
sg205
I196
sg334
I325
sg316
I307
sg310
I301
sg453
I444
sg219
I210
sg66
I57
sg144
I135
sg111
I102
sg467
I458
sg212
I203
sg27
I18
sg293
I284
sg214
I205
sg339
I330
sg142
I133
sg345
I336
sg377
I368
sg328
I319
sg269
I260
sg239
I230
sg270
I261
sg147
I138
sg189
I180
sg375
I366
sg384
I375
sg93
I84
sg92
I83
sg75
I66
sg448
I439
sg478
I469
sg47
I38
sg314
I305
sg54
I45
sg78
I69
sg366
I357
sg123
I114
sg175
I166
sg416
I407
sg146
I137
sg31
I22
sg252
I243
sg223
I214
sg436
I427
sg224
I215
sg225
I216
sg137
I128
sg121
I112
sg165
I156
sg247
I238
sg39
I30
sg280
I271
sg421
I412
sg236
I227
sg342
I333
sg157
I148
sg308
I299
sg380
I371
sg172
I163
sg279
I270
sg134
I125
sg18
I9
sg346
I337
sg190
I181
sg324
I315
sg50
I41
sg434
I425
sg235
I226
sg210
I201
sg133
I124
sg331
I322
sg24
I15
sg178
I169
sg364
I355
sg415
I406
sg460
I451
sg338
I329
sg396
I387
sg329
I320
sg296
I287
sg243
I234
sg356
I347
sg153
I144
sg20
I11
sg34
I25
sg350
I341
sg359
I350
sg112
I103
sg113
I104
sg379
I370
sg306
I297
sg464
I455
sg254
I245
sg213
I204
sg68
I59
sg203
I194
sg71
I62
sg60
I51
sg160
I151
sg462
I453
sg457
I448
sg383
I374
sg122
I113
sg234
I225
sg340
I331
sg426
I417
sg355
I346
sg429
I420
sg140
I131
sg23
I14
sg358
I349
sg456
I447
sg73
I64
sg58
I49
sg237
I228
sg136
I127
sg217
I208
sg12
I3
sg480
I471
sg130
I121
sg216
I207
sg382
I373
sg193
I184
sg422
I413
sg99
I90
sg283
I274
sg132
I123
sg148
I139
sg139
I130
sg226
I217
sg143
I134
sg365
I356
sg222
I213
sg313
I304
sg352
I343
sg218
I209
sg336
I327
sg72
I63
sg45
I36
sg354
I345
sg238
I229
sg229
I220
sg125
I116
sg439
I430
sg152
I143
sg446
I437
sg413
I404
sg443
I434
sg246
I237
sg101
I92
sg161
I152
sg208
I199
sg56
I47
sg86
I77
sg40
I31
sg258
I249
sg431
I422
sg98
I89
sg29
I20
sg332
I323
sg149
I140
sg245
I236
sg285
I276
sg286
I277
sg138
I129
sg298
I289
sg118
I109
sg63
I54
sg211
I202
sg124
I115
sg74
I65
sg168
I159
sg115
I106
sg263
I254
sg188
I179
sg271
I262
sg367
I358
sg479
I470
sg399
I390
sg275
I266
sg469
I460
sg114
I105
sg227
I218
sg70
I61
sg322
I313
sg268
I259
sg437
I428
sg166
I157
sg173
I164
sg390
I381
sg105
I96
sg186
I177
sg454
I445
sg440
I431
sg48
I39
sg368
I359
sg344
I335
sg30
I21
sg266
I257
sg295
I286
sg107
I98
sg371
I362
sg363
I354
sg108
I99
sg425
I416
sg51
I42
sg412
I403
sg315
I306
sg195
I186
sg262
I253
sg59
I50
sg470
I461
sg451
I442
sg77
I68
sg474
I465
sg463
I454
sg292
I283
sg392
I383
sg473
I464
sg466
I457
sg281
I272
sg52
I43
sg202
I193
sg131
I122
sg38
I29
sg288
I279
sg55
I46
sg312
I303
sg267
I258
sg394
I385
sg250
I241
sg378
I369
sg179
I170
sg297
I288
sg432
I423
sg192
I183
sg418
I409
sg276
I267
sg419
I410
sg400
I391
sg84
I75
sg341
I332
sg174
I165
sg21
I12
sg259
I250
sg444
I435
sg22
I13
sg26
I17
sg265
I256
sg309
I300
sg475
I466
sg256
I247
sg317
I308
sg151
I142
sg231
I222
sg97
I88
sg240
I231
sg19
I10
sg407
I398
sg87
I78
sg141
I132
sg14
I5
sg65
I56
sg414
I405
sg57
I48
sg41
I32
sg194
I185
sg196
I187
sg319
I310
sg465
I456
sg476
I467
sg447
I438
sg372
I363
sg182
I173
sg207
I198
sg409
I400
sg117
I108
sg94
I85
sg347
I338
sg215
I206
sg287
I278
sg206
I197
sg42
I33
sg401
I392
sg257
I248
sg154
I145
sg343
I334
sg11
I2
sg301
I292
sg46
I37
sg282
I273
sg374
I365
sg402
I393
sg435
I426
sg303
I294
sg330
I321
sg221
I212
sg53
I44
sg387
I378
sg167
I158
sg103
I94
sg441
I432
sg169
I160
sg109
I100
sg477
I468
sg197
I188
sg128
I119
sg253
I244
sg450
I441
sg411
I402
sg120
I111
sg10
I1
sg326
I317
sg337
I328
sg391
I382
sg357
I348
sg200
I191
sg395
I386
sg417
I408
sg17
I8
sg32
I23
sg244
I235
sg249
I240
sg104
I95
sg353
I344
sg385
I376
sg423
I414
sg397
I388
sg376
I367
sg264
I255
sg458
I449
sg361
I352
sg180
I171
sg386
I377
sg228
I219
sg119
I110
sg155
I146
sg76
I67
sg461
I452
sg16
I7
sg61
I52
sg404
I395
sg321
I312
sg255
I246
sg170
I161
sg9
I0
sg294
I285
sg442
I433
sg272
I263
sg289
I280
sg159
I150
sg468
I459
sg158
I149
sg369
I360
sg370
I361
sg438
I429
sg406
I397
sg35
I26
sg300
I291
sg116
I107
sg299
I290
sg95
I86
sg459
I450
sg145
I136
sg307
I298
sg171
I162
sg277
I268
sg408
I399
sg430
I421
sg302
I293
sg36
I27
sg198
I189
sg348
I339
sg127
I118
sg381
I372
sg351
I342
sg305
I296
sg150
I141
sg110
I101
sg428
I419
sg209
I200
sg100
I91
sg290
I281
sg311
I302
sg333
I324
sg201
I192
sg284
I275
sg393
I384
sg291
I282
sg156
I147
sg67
I58
sg471
I462
sg81
I72
sg304
I295
sg424
I415
sg25
I16
sg176
I167
sg106
I97
sg388
I379
sg420
I411
sg191
I182
sg327
I318
sg405
I396
sg164
I155
sg373
I364
sg28
I19
sg230
I221
sg177
I168
sg187
I178
sg362
I353
sg37
I28
sg472
I463
sg445
I436
sg13
I4
sg389
I380
sg85
I76
sg183
I174
sg410
I401
sg102
I93
sg220
I211
sg320
I311
sg181
I172
sg184
I175
sg185
I176
sg452
I443
sg62
I53
sg233
I224
sg232
I223
sg64
I55
sg325
I316
sg162
I153
sg241
I232
sg15
I6
sg96
I87
sg91
I82
sg204
I195
sg427
I418
sg349
I340
sg33
I24
sg89
I80
sg248
I239
sg242
I233
sg80
I71
ssS'separator'
p485
S'='
sS'sparse'
p486
I01
sb.