ccopy_reg
_reconstructor
p1
(csklearn.feature_extraction.dict_vectorizer
DictVectorizer
p2
c__builtin__
object
p3
NtRp4
(dp5
S'sort'
p6
I01
sS'feature_names_'
p7
(lp8
S'advcl=American'
p9
aS'advcl=after'
p10
aS'advcl=announce'
p11
aS'advcl=be'
p12
aS'advcl=bid'
p13
aS'advcl=country'
p14
aS'advcl=die'
p15
aS'advcl=feel'
p16
aS'advcl=lay'
p17
aS'advcl=learn'
p18
aS'advcl=like'
p19
aS'advcl=unbelievable'
p20
aS'advcl=wait'
p21
aS'advcl=want'
p22
aS'advcl=wear'
p23
aS'advmod=about'
p24
aS'advmod=along'
p25
aS'advmod=also'
p26
aS'advmod=always'
p27
aS'advmod=anymore'
p28
aS'advmod=before'
p29
aS'advmod=currently'
p30
aS'advmod=even'
p31
aS'advmod=ever'
p32
aS'advmod=how'
p33
aS'advmod=internationally'
p34
aS'advmod=just'
p35
aS'advmod=louder'
p36
aS'advmod=now'
p37
aS'advmod=once'
p38
aS'advmod=originally'
p39
aS'advmod=professionally'
p40
aS'advmod=softer'
p41
aS'advmod=spontaneously'
p42
aS'advmod=too'
p43
aS'advmod=well'
p44
aS'advmod=when'
p45
aS'advmod=whenever'
p46
aS'aux=be'
p47
aS'aux=can'
p48
aS'aux=could'
p49
aS'aux=have'
p50
aS'aux=to'
p51
aS'aux=will'
p52
aS'aux=would'
p53
aS'auxpass=be'
p54
aS'cc=and'
p55
aS'cc=or'
p56
aS'ccomp=carry'
p57
aS'ccomp=different'
p58
aS'ccomp=do'
p59
aS'ccomp=have'
p60
aS'ccomp=hold'
p61
aS'ccomp=include'
p62
aS'ccomp=praise'
p63
aS'ccomp=provide'
p64
aS'ccomp=shy'
p65
aS'ccomp=stop'
p66
aS'ccomp=time'
p67
aS'ccomp=welcome'
p68
aS'complm=that'
p69
aS'conj=Ritenour'
p70
aS'conj=beg'
p71
aS'conj=colleague'
p72
aS'conj=cope'
p73
aS'conj=dance'
p74
aS'conj=do'
p75
aS'conj=make'
p76
aS'conj=play'
p77
aS'conj=praise'
p78
aS'conj=recount'
p79
aS'conj=star'
p80
aS'conj=wear'
p81
aS'conj=yeah'
p82
aS'dep=Cole'
p83
aS'dep=about'
p84
aS'dep=anthem'
p85
aS'dep=banal'
p86
aS'dep=come'
p87
aS'dep=over'
p88
aS'dep=seat'
p89
aS'dep=sing'
p90
aS'dep=sniper'
p91
aS'dep=so'
p92
aS'dep=songbeing'
p93
aS'dep=that'
p94
aS'dep=version'
p95
aS'dobj=#NUMBER#'
p96
aS'dobj=#PRP#'
p97
aS'dobj=America'
p98
aS'dobj=Ave'
p99
aS'dobj=Mae'
p100
aS'dobj=Monroe'
p101
aS'dobj=anthem'
p102
aS'dobj=any'
p103
aS'dobj=anything'
p104
aS'dobj=best'
p105
aS'dobj=birthday'
p106
aS'dobj=blues'
p107
aS'dobj=classic'
p108
aS'dobj=composition'
p109
aS'dobj=country'
p110
aS'dobj=drum'
p111
aS'dobj=everything'
p112
aS'dobj=favorite'
p113
aS'dobj=feeling'
p114
aS'dobj=gift'
p115
aS'dobj=harmony'
p116
aS'dobj=kind'
p117
aS'dobj=life'
p118
aS'dobj=lot'
p119
aS'dobj=mix'
p120
aS'dobj=morna'
p121
aS'dobj=music'
p122
aS'dobj=praise'
p123
aS'dobj=prayer'
p124
aS'dobj=rap'
p125
aS'dobj=rock'
p126
aS'dobj=song'
p127
aS'dobj=spiritual'
p128
aS'dobj=swing'
p129
aS'dobj=t.k.o'
p130
aS'dobj=version'
p131
aS'dobj=way'
p132
aS'expl=there'
p133
aS'mark=although'
p134
aS'mark=as'
p135
aS'mark=because'
p136
aS'mark=if'
p137
aS'neg=never'
p138
aS'nsubj=#PRP#'
p139
aS'nsubj=Andollo'
p140
aS'nsubj=Bocelli'
p141
aS'nsubj=Catholics'
p142
aS'nsubj=Elvis'
p143
aS'nsubj=Iggy'
p144
aS'nsubj=James'
p145
aS'nsubj=Joel'
p146
aS'nsubj=Jones'
p147
aS'nsubj=Lowen'
p148
aS'nsubj=Miller'
p149
aS'nsubj=Mutuku'
p150
aS'nsubj=Nelson'
p151
aS'nsubj=Plant'
p152
aS'nsubj=Ronnie'
p153
aS'nsubj=Seeger'
p154
aS'nsubj=Theisz'
p155
aS'nsubj=Thompson'
p156
aS'nsubj=Zamajobe'
p157
aS'nsubj=american'
p158
aS'nsubj=band'
p159
aS'nsubj=best'
p160
aS'nsubj=boy'
p161
aS'nsubj=cantor'
p162
aS'nsubj=child'
p163
aS'nsubj=choir'
p164
aS'nsubj=crowd'
p165
aS'nsubj=driver'
p166
aS'nsubj=fan'
p167
aS'nsubj=friend'
p168
aS'nsubj=grandmother'
p169
aS'nsubj=guy'
p170
aS'nsubj=leader'
p171
aS'nsubj=many'
p172
aS'nsubj=member'
p173
aS'nsubj=ofbrother'
p174
aS'nsubj=official'
p175
aS'nsubj=people'
p176
aS'nsubj=reveler'
p177
aS'nsubj=schoolchildren'
p178
aS'nsubj=singer'
p179
aS'nsubj=somebody'
p180
aS'nsubj=supporter'
p181
aS'nsubj=temptation'
p182
aS'nsubj=that'
p183
aS'nsubj=the'
p184
aS'nsubj=this'
p185
aS'nsubj=who'
p186
aS'nsubj=woman'
p187
aS'nsubjpass=#PRP#'
p188
aS'nsubjpass=prayer'
p189
aS'nsubjpass=song'
p190
aS'nsubjpass=which'
p191
aS'partmod=point'
p192
aS'partmod=weep'
p193
aS'prep=about'
p194
aS'prep=across'
p195
aS'prep=after'
p196
aS'prep=as'
p197
aS'prep=at'
p198
aS'prep=before'
p199
aS'prep=by'
p200
aS'prep=during'
p201
aS'prep=for'
p202
aS'prep=from'
p203
aS'prep=in'
p204
aS'prep=like'
p205
aS'prep=of'
p206
aS'prep=on'
p207
aS'prep=since'
p208
aS'prep=to'
p209
aS'prep=with'
p210
aS'tmod=#DATE#'
p211
aS'tmod=jazz'
p212
aS'tmod=overseas'
p213
aS'tmod=second'
p214
aS"w+1=''"
p215
aS'w+1=,'
p216
aS'w+1=.'
p217
aS'w+1=12'
p218
aS'w+1=?'
p219
aS'w+1=Bill'
p220
aS'w+1=English'
p221
aS'w+1=God'
p222
aS'w+1=Mozart'
p223
aS'w+1=Rita'
p224
aS'w+1=`'
p225
aS'w+1=a'
p226
aS'w+1=about'
p227
aS'w+1=all'
p228
aS'w+1=along'
p229
aS'w+1=always'
p230
aS'w+1=and'
p231
aS'w+1=another'
p232
aS'w+1=anti-government'
p233
aS'w+1=any'
p234
aS'w+1=anymore'
p235
aS'w+1=anything'
p236
aS'w+1=as'
p237
aS'w+1=at'
p238
aS'w+1=because'
p239
aS'w+1=by'
p240
aS'w+1=country'
p241
aS'w+1=during'
p242
aS'w+1=ever'
p243
aS'w+1=everything'
p244
aS'w+1=festive'
p245
aS'w+1=for'
p246
aS'w+1=from'
p247
aS'w+1=gospel'
p248
aS'w+1=happy'
p249
aS'w+1=harmony'
p250
aS'w+1=he'
p251
aS'w+1=himself'
p252
aS'w+1=in'
p253
aS'w+1=it'
p254
aS'w+1=like'
p255
aS'w+1=morna'
p256
aS'w+1=mostly'
p257
aS'w+1=on'
p258
aS'w+1=or'
p259
aS'w+1=peace'
p260
aS'w+1=popular'
p261
aS'w+1=professionally'
p262
aS'w+1=reggae'
p263
aS'w+1=rock'
p264
aS'w+1=seat'
p265
aS'w+1=she'
p266
aS'w+1=song'
p267
aS'w+1=that'
p268
aS'w+1=the'
p269
aS'w+1=they'
p270
aS'w+1=to'
p271
aS'w+1=too'
p272
aS'w+1=until'
p273
aS'w+1=war'
p274
aS'w+1=with'
p275
aS'w+1=you'
p276
aS"w+2=''"
p277
aS"w+2='s"
p278
aS'w+2=,'
p279
aS'w+2=.'
p280
aS'w+2=Asians'
p281
aS'w+2=Bless'
p282
aS'w+2=Dinah'
p283
aS'w+2=George'
p284
aS'w+2=Janet'
p285
aS'w+2=Jesse'
p286
aS'w+2=Lee'
p287
aS'w+2=Mae'
p288
aS'w+2=Marvin'
p289
aS'w+2=Monroe'
p290
aS'w+2=Sinatra'
p291
aS'w+2=`'
p292
aS'w+2=a'
p293
aS'w+2=about'
p294
aS'w+2=accompany'
p295
aS'w+2=and'
p296
aS'w+2=another'
p297
aS'w+2=at'
p298
aS'w+2=banal'
p299
aS'w+2=because'
p300
aS'w+2=beg'
p301
aS'w+2=best'
p302
aS'w+2=birthday'
p303
aS'w+2=bit'
p304
aS'w+2=blues'
p305
aS'w+2=can'
p306
aS'w+2=cappellum'
p307
aS'w+2=caretaker'
p308
aS'w+2=carry'
p309
aS'w+2=come'
p310
aS'w+2=dance'
p311
aS'w+2=during'
p312
aS'w+2=ethnic'
p313
aS'w+2=feeling'
p314
aS'w+2=for'
p315
aS'w+2=from'
p316
aS'w+2=fuel'
p317
aS'w+2=hand'
p318
aS'w+2=he'
p319
aS'w+2=hit'
p320
aS'w+2=hold'
p321
aS'w+2=honor'
p322
aS'w+2=how'
p323
aS'w+2=hundred'
p324
aS'w+2=in'
p325
aS'w+2=indonesian'
p326
aS'w+2=just'
p327
aS'w+2=kind'
p328
aS'w+2=lady'
p329
aS'w+2=likewise'
p330
aS'w+2=lot'
p331
aS'w+2=mdc'
p332
aS'w+2=mix'
p333
aS'w+2=mournful'
p334
aS'w+2=music'
p335
aS'w+2=my'
p336
aS'w+2=national'
p337
aS'w+2=of'
p338
aS'w+2=old'
p339
aS'w+2=on'
p340
aS'w+2=other'
p341
aS'w+2=own'
p342
aS'w+2=paint'
p343
aS'w+2=peace'
p344
aS'w+2=play'
p345
aS'w+2=praise'
p346
aS'w+2=rap'
p347
aS'w+2=restaurant'
p348
aS'w+2=since'
p349
aS'w+2=slave'
p350
aS'w+2=slogan'
p351
aS'w+2=song'
p352
aS'w+2=soul'
p353
aS'w+2=spiritual'
p354
aS'w+2=swing'
p355
aS'w+2=the'
p356
aS'w+2=they'
p357
aS'w+2=this'
p358
aS'w+2=too'
p359
aS'w+2=turkish'
p360
aS'w+2=way'
p361
aS'w+2=we'
p362
aS'w+2=welcome'
p363
aS'w+2=whole'
p364
aS'w+2=woman'
p365
aS'w+2=world'
p366
aS'w+2=you'
p367
aS'w-1=,'
p368
aS'w-1=-rrb-'
p369
aS'w-1=Andollo'
p370
aS'w-1=Bocelli'
p371
aS'w-1=Congress'
p372
aS'w-1=Elvis'
p373
aS'w-1=House'
p374
aS'w-1=I'
p375
aS'w-1=Iggy'
p376
aS'w-1=McCoy'
p377
aS'w-1=Mutuku'
p378
aS'w-1=Nelson'
p379
aS'w-1=Shaw'
p380
aS'w-1=Thompson'
p381
aS'w-1=Wade'
p382
aS'w-1=Zamajobe'
p383
aS'w-1=also'
p384
aS'w-1=always'
p385
aS'w-1=and'
p386
aS'w-1=anthem'
p387
aS'w-1=artist'
p388
aS'w-1=band'
p389
aS'w-1=be'
p390
aS'w-1=begin'
p391
aS'w-1=boy'
p392
aS'w-1=but'
p393
aS'w-1=can'
p394
aS'w-1=cantor'
p395
aS'w-1=child'
p396
aS'w-1=choir'
p397
aS'w-1=could'
p398
aS'w-1=country'
p399
aS'w-1=crowd'
p400
aS'w-1=currently'
p401
aS'w-1=even'
p402
aS'w-1=fan'
p403
aS'w-1=friend'
p404
aS'w-1=grandmother'
p405
aS'w-1=have'
p406
aS'w-1=he'
p407
aS'w-1=in'
p408
aS'w-1=internationally'
p409
aS'w-1=it'
p410
aS'w-1=just'
p411
aS'w-1=never'
p412
aS'w-1=ofbrother'
p413
aS'w-1=once'
p414
aS'w-1=or'
p415
aS'w-1=originally'
p416
aS'w-1=other'
p417
aS'w-1=people'
p418
aS'w-1=reveler'
p419
aS'w-1=she'
p420
aS'w-1=singer'
p421
aS'w-1=somebody'
p422
aS'w-1=songbeing'
p423
aS'w-1=spontaneously'
p424
aS'w-1=start'
p425
aS'w-1=stop'
p426
aS'w-1=supporter'
p427
aS'w-1=temptation'
p428
aS'w-1=than'
p429
aS'w-1=that'
p430
aS'w-1=the'
p431
aS'w-1=they'
p432
aS'w-1=to'
p433
aS'w-1=together'
p434
aS'w-1=tune'
p435
aS'w-1=version'
p436
aS'w-1=we'
p437
aS'w-1=when'
p438
aS'w-1=who'
p439
aS'w-1=will'
p440
aS'w-1=world'
p441
aS'w-1=would'
p442
aS'w-1=you'
p443
aS"w-2=''"
p444
aS"w-2='s"
p445
aS'w-2=,'
p446
aS'w-2=.'
p447
aS'w-2=17'
p448
aS'w-2=Andrea'
p449
aS'w-2=Bradley'
p450
aS'w-2=Catholics'
p451
aS'w-2=Darfur'
p452
aS'w-2=Elvis'
p453
aS'w-2=Gio'
p454
aS'w-2=Hanson'
p455
aS'w-2=I'
p456
aS'w-2=James'
p457
aS'w-2=Jane'
p458
aS'w-2=Joel'
p459
aS'w-2=Justus'
p460
aS'w-2=Linda'
p461
aS'w-2=Luther'
p462
aS'w-2=Miller'
p463
aS'w-2=National'
p464
aS'w-2=Navarro'
p465
aS'w-2=Plant'
p466
aS'w-2=President'
p467
aS'w-2=Spector'
p468
aS'w-2=Tabaski'
p469
aS'w-2=Theisz'
p470
aS'w-2=Tibet'
p471
aS'w-2=Victoria'
p472
aS'w-2=White'
p473
aS'w-2=Willie'
p474
aS'w-2=able'
p475
aS'w-2=act'
p476
aS'w-2=agree'
p477
aS'w-2=and'
p478
aS'w-2=another'
p479
aS'w-2=arrive'
p480
aS'w-2=as'
p481
aS'w-2=be'
p482
aS'w-2=bear'
p483
aS'w-2=because'
p484
aS'w-2=boy'
p485
aS'w-2=bucket'
p486
aS'w-2=california-based'
p487
aS'w-2=center'
p488
aS'w-2=cheer'
p489
aS'w-2=classic'
p490
aS'w-2=compose'
p491
aS'w-2=continue'
p492
aS'w-2=diplomat'
p493
aS'w-2=do'
p494
aS'w-2=drive'
p495
aS'w-2=drum'
p496
aS'w-2=dystrophy'
p497
aS'w-2=encourage'
p498
aS'w-2=everything'
p499
aS'w-2=fighter'
p500
aS'w-2=flag'
p501
aS'w-2=girl'
p502
aS'w-2=go'
p503
aS'w-2=grandparent'
p504
aS'w-2=guitar'
p505
aS'w-2=have'
p506
aS'w-2=he'
p507
aS'w-2=how'
p508
aS'w-2=like'
p509
aS'w-2=mark'
p510
aS'w-2=more'
p511
aS'w-2=my'
p512
aS'w-2=national'
p513
aS'w-2=never'
p514
aS'w-2=now'
p515
aS'w-2=of'
p516
aS'w-2=one'
p517
aS'w-2=out'
p518
aS'w-2=piano'
p519
aS'w-2=play'
p520
aS'w-2=reason'
p521
aS'w-2=she'
p522
aS'w-2=shout'
p523
aS'w-2=show'
p524
aS'w-2=singer'
p525
aS'w-2=singing'
p526
aS'w-2=somebody'
p527
aS'w-2=something'
p528
aS'w-2=spiritual'
p529
aS'w-2=studio'
p530
aS'w-2=that'
p531
aS'w-2=the'
p532
aS'w-2=they'
p533
aS'w-2=this'
p534
aS'w-2=time'
p535
aS'w-2=to'
p536
aS'w-2=unknown'
p537
aS'w-2=want'
p538
aS'w-2=we'
p539
aS'w-2=well'
p540
aS'w-2=when'
p541
aS'w-2=whenever'
p542
aS'w-2=will'
p543
aS'w-2=write'
p544
aS'w-2=you'
p545
aS'w-2=young'
p546
aS'xcomp=honor'
p547
aS'xcomp=sway'
p548
asS'dtype'
p549
cnumpy
float64
p550
sS'vocabulary_'
p551
(dp552
g199
I190
sg20
I11
sg539
I530
sg286
I277
sg104
I95
sg312
I303
sg336
I327
sg379
I370
sg493
I484
sg214
I205
sg163
I154
sg44
I35
sg377
I368
sg273
I264
sg533
I524
sg497
I488
sg164
I155
sg200
I191
sg172
I163
sg117
I108
sg268
I259
sg548
I539
sg501
I492
sg442
I433
sg15
I6
sg175
I166
sg451
I442
sg230
I221
sg93
I84
sg318
I309
sg189
I180
sg521
I512
sg39
I30
sg355
I346
sg246
I237
sg35
I26
sg440
I431
sg116
I107
sg28
I19
sg143
I134
sg390
I381
sg370
I361
sg532
I523
sg475
I466
sg266
I257
sg535
I526
sg171
I162
sg287
I278
sg222
I213
sg400
I391
sg112
I103
sg136
I127
sg397
I388
sg476
I467
sg258
I249
sg124
I115
sg57
I48
sg259
I250
sg492
I483
sg460
I451
sg406
I397
sg528
I519
sg372
I363
sg325
I316
sg544
I535
sg60
I51
sg398
I389
sg454
I445
sg38
I29
sg384
I375
sg48
I39
sg367
I358
sg490
I481
sg153
I144
sg485
I476
sg232
I223
sg366
I357
sg443
I434
sg12
I3
sg531
I522
sg299
I290
sg270
I261
sg11
I2
sg188
I179
sg43
I34
sg204
I195
sg53
I44
sg144
I135
sg127
I118
sg264
I255
sg332
I323
sg220
I211
sg462
I453
sg267
I258
sg470
I461
sg354
I345
sg209
I200
sg212
I203
sg310
I301
sg184
I175
sg389
I380
sg76
I67
sg231
I222
sg323
I314
sg89
I80
sg182
I173
sg100
I91
sg96
I87
sg380
I371
sg519
I510
sg315
I306
sg169
I160
sg234
I225
sg474
I465
sg183
I174
sg410
I401
sg468
I459
sg343
I334
sg70
I61
sg181
I172
sg498
I489
sg18
I9
sg170
I161
sg408
I399
sg362
I353
sg435
I426
sg126
I117
sg221
I212
sg349
I340
sg255
I246
sg463
I454
sg431
I422
sg151
I142
sg193
I184
sg137
I128
sg540
I531
sg86
I77
sg155
I146
sg158
I149
sg331
I322
sg147
I138
sg477
I468
sg156
I147
sg61
I52
sg448
I439
sg14
I5
sg335
I326
sg359
I350
sg337
I328
sg235
I226
sg110
I101
sg461
I452
sg307
I298
sg123
I114
sg80
I71
sg160
I151
sg322
I313
sg186
I177
sg486
I477
sg516
I507
sg173
I164
sg192
I183
sg433
I424
sg314
I305
sg427
I418
sg131
I122
sg245
I236
sg97
I88
sg74
I65
sg168
I159
sg161
I152
sg121
I112
sg276
I267
sg328
I319
sg499
I490
sg373
I364
sg179
I170
sg306
I297
sg324
I315
sg237
I228
sg479
I470
sg363
I354
sg238
I229
sg487
I478
sg251
I242
sg150
I141
sg401
I392
sg491
I482
sg399
I390
sg91
I82
sg146
I137
sg394
I385
sg459
I450
sg244
I235
sg466
I457
sg547
I538
sg300
I291
sg79
I70
sg326
I317
sg342
I333
sg45
I36
sg81
I72
sg288
I279
sg114
I105
sg522
I513
sg202
I193
sg25
I16
sg94
I85
sg78
I69
sg83
I74
sg140
I131
sg364
I355
sg298
I289
sg22
I13
sg46
I37
sg505
I496
sg414
I405
sg177
I168
sg125
I116
sg54
I45
sg36
I27
sg27
I18
sg165
I156
sg523
I514
sg9
I0
sg82
I73
sg542
I533
sg525
I516
sg34
I25
sg496
I487
sg371
I362
sg450
I441
sg345
I336
sg344
I335
sg374
I365
sg376
I367
sg272
I263
sg73
I64
sg167
I158
sg418
I409
sg113
I104
sg154
I145
sg75
I66
sg152
I143
sg352
I343
sg13
I4
sg23
I14
sg262
I253
sg67
I58
sg444
I435
sg185
I176
sg338
I329
sg473
I464
sg340
I331
sg271
I262
sg319
I310
sg409
I400
sg327
I318
sg510
I501
sg21
I12
sg265
I256
sg63
I54
sg148
I139
sg250
I241
sg387
I378
sg445
I436
sg17
I8
sg420
I411
sg412
I403
sg316
I307
sg40
I31
sg546
I537
sg520
I511
sg102
I93
sg301
I292
sg503
I494
sg77
I68
sg239
I230
sg248
I239
sg249
I240
sg68
I59
sg128
I119
sg65
I56
sg257
I248
sg395
I386
sg358
I349
sg282
I273
sg260
I251
sg129
I120
sg31
I22
sg417
I408
sg334
I325
sg385
I376
sg62
I53
sg32
I23
sg471
I462
sg115
I106
sg92
I83
sg111
I102
sg130
I121
sg290
I281
sg52
I43
sg452
I443
sg309
I300
sg99
I90
sg133
I124
sg291
I282
sg297
I288
sg176
I167
sg210
I201
sg56
I47
sg166
I157
sg162
I153
sg403
I394
sg263
I254
sg350
I341
sg464
I455
sg421
I412
sg317
I308
sg256
I247
sg149
I140
sg383
I374
sg455
I446
sg42
I33
sg24
I15
sg311
I302
sg277
I268
sg436
I427
sg26
I17
sg348
I339
sg416
I407
sg134
I125
sg118
I109
sg449
I440
sg404
I395
sg243
I234
sg119
I110
sg281
I272
sg66
I57
sg506
I497
sg55
I46
sg103
I94
sg30
I21
sg489
I480
sg240
I231
sg157
I148
sg411
I402
sg360
I351
sg393
I384
sg278
I269
sg541
I532
sg382
I373
sg178
I169
sg253
I244
sg254
I245
sg139
I130
sg227
I218
sg284
I275
sg538
I529
sg215
I206
sg174
I165
sg88
I79
sg85
I76
sg441
I432
sg120
I111
sg529
I520
sg313
I304
sg49
I40
sg205
I196
sg467
I458
sg145
I136
sg524
I515
sg361
I352
sg229
I220
sg537
I528
sg122
I113
sg488
I479
sg347
I338
sg509
I500
sg305
I296
sg71
I62
sg512
I503
sg213
I204
sg483
I474
sg482
I473
sg206
I197
sg207
I198
sg351
I342
sg321
I312
sg333
I324
sg472
I463
sg339
I330
sg58
I49
sg87
I78
sg320
I311
sg217
I208
sg514
I505
sg526
I517
sg228
I219
sg530
I521
sg187
I178
sg159
I150
sg84
I75
sg107
I98
sg64
I55
sg439
I430
sg396
I387
sg415
I406
sg426
I417
sg283
I274
sg109
I100
sg511
I502
sg536
I527
sg296
I287
sg211
I202
sg478
I469
sg41
I32
sg425
I416
sg194
I185
sg218
I209
sg513
I504
sg195
I186
sg294
I285
sg517
I508
sg98
I89
sg507
I498
sg72
I63
sg208
I199
sg19
I10
sg37
I28
sg504
I495
sg494
I485
sg356
I347
sg198
I189
sg543
I534
sg274
I265
sg446
I437
sg90
I81
sg447
I438
sg434
I425
sg386
I377
sg50
I41
sg527
I518
sg502
I493
sg106
I97
sg368
I359
sg515
I506
sg456
I447
sg381
I372
sg481
I472
sg252
I243
sg508
I499
sg329
I320
sg375
I366
sg69
I60
sg261
I252
sg242
I233
sg95
I86
sg518
I509
sg480
I471
sg458
I449
sg432
I423
sg438
I429
sg191
I182
sg135
I126
sg407
I398
sg236
I227
sg369
I360
sg142
I133
sg247
I238
sg138
I129
sg223
I214
sg357
I348
sg423
I414
sg196
I187
sg302
I293
sg59
I50
sg500
I491
sg422
I413
sg233
I224
sg275
I266
sg495
I486
sg303
I294
sg101
I92
sg29
I20
sg534
I525
sg33
I24
sg402
I393
sg378
I369
sg353
I344
sg203
I194
sg469
I460
sg341
I332
sg108
I99
sg392
I383
sg285
I276
sg190
I181
sg437
I428
sg388
I379
sg51
I42
sg545
I536
sg289
I280
sg405
I396
sg16
I7
sg413
I404
sg346
I337
sg330
I321
sg241
I232
sg216
I207
sg197
I188
sg280
I271
sg279
I270
sg10
I1
sg269
I260
sg219
I210
sg428
I419
sg201
I192
sg141
I132
sg132
I123
sg424
I415
sg308
I299
sg453
I444
sg465
I456
sg419
I410
sg226
I217
sg225
I216
sg295
I286
sg391
I382
sg304
I295
sg429
I420
sg365
I356
sg484
I475
sg105
I96
sg430
I421
sg47
I38
sg457
I448
sg224
I215
sg180
I171
sg292
I283
sg293
I284
ssS'separator'
p553
S'='
sS'sparse'
p554
I01
sb.