ccopy_reg
_reconstructor
p1
(csklearn.feature_extraction.dict_vectorizer
DictVectorizer
p2
c__builtin__
object
p3
NtRp4
(dp5
S'vocabulary_'
p6
(dp7
S'w-2=maybe'
p8
I35
sS'mark=as'
p9
I9
sS'aux=to'
p10
I2
sS'w+2=it'
p11
I21
sS'w+2=option'
p12
I22
sS'nsubj=co-chair'
p13
I11
sS'w-2=research'
p14
I36
sS'w-2=.'
p15
I31
sS'dobj=result'
p16
I8
sS'aux=have'
p17
I1
sS'w-2=Committee'
p18
I33
sS'w-2=Baker'
p19
I32
sS'dobj=pride'
p20
I7
sS'w+1=:'
p21
I16
sS'cc=and'
p22
I3
sS'nsubj=student'
p23
I12
sS'w-1=and'
p24
I27
sS'nsubj=Committee'
p25
I10
sS'w+1=the'
p26
I18
sS'w+1=by'
p27
I17
sS'w+2=pride'
p28
I23
sS'w-1=to'
p29
I30
sS'prep=by'
p30
I14
sS'w-1=University'
p31
I26
sS'w-1=,'
p32
I25
sS'dobj=option'
p33
I6
sS'dobj=call'
p34
I5
sS'conj=say'
p35
I4
sS'w-1=have'
p36
I29
sS'advmod=maybe'
p37
I0
sS'w-1=as'
p38
I28
sS'w-2=Methodist'
p39
I34
sS'parataxis=environment'
p40
I13
sS'w+2=result'
p41
I24
sS'prep=for'
p42
I15
sS'w+2=group'
p43
I20
sS'w+2=Hoekstra'
p44
I19
ssS'dtype'
p45
cnumpy
float64
p46
sS'feature_names_'
p47
(lp48
g37
ag17
ag10
ag22
ag35
ag34
ag33
ag20
ag16
ag9
ag25
ag13
ag23
ag40
ag30
ag42
ag21
ag27
ag26
ag44
ag43
ag11
ag12
ag28
ag41
ag32
ag31
ag24
ag38
ag36
ag29
ag15
ag19
ag18
ag39
ag8
ag14
asS'separator'
p49
S'='
sS'sparse'
p50
I01
sb.