ccopy_reg
_reconstructor
p1
(csklearn.feature_extraction.dict_vectorizer
DictVectorizer
p2
c__builtin__
object
p3
NtRp4
(dp5
S'vocabulary_'
p6
(dp7
S'w+1=pressure'
p8
I1205
sS'nsubj=destruction'
p9
I668
sS'partmod=prompt'
p10
I858
sS'w-2=reflect'
p11
I2472
sS'nsubj=conviction'
p12
I653
sS'acomp=emotional'
p13
I17
sS'advmod=more'
p14
I167
sS'w-2=Musharraf'
p15
I2107
sS'prep=more'
p16
I886
sS'advmod=certainly'
p17
I132
sS'w-1=resolution'
p18
I1981
sS'nsubj=kid'
p19
I723
sS'nsubj=relation'
p20
I775
sS'nsubj=park'
p21
I751
sS'dobj=percent'
p22
I490
sS'advcl=return'
p23
I98
sS'w+2=survivor'
p24
I1702
sS'advmod=steadily'
p25
I191
sS'xcomp=generate'
p26
I2639
sS'w-2=level'
p27
I2374
sS'w+2=but'
p28
I1443
sS'w-1=algae'
p29
I1819
sS'xcomp=include'
p30
I2642
sS'w+1=unused'
p31
I1314
sS'w-1=nation'
p32
I1945
sS'nsubjpass=palm'
p33
I841
sS'w+1=around'
p34
I960
sS'advmod=modestly'
p35
I166
sS'nsubj=Ashley'
p36
I564
sS'w+1=evidence'
p37
I1059
sS'w-1=undermine'
p38
I2025
sS'w+2=9,000'
p39
I1365
sS'dobj=kite'
p40
I463
sS'nsubj=business'
p41
I630
sS'w-2=hunger'
p42
I2338
sS'nsubj=much'
p43
I739
sS'w+2=bean'
p44
I1432
sS'w-2=grow'
p45
I2316
sS'w-2=some'
p46
I2520
sS'iobj=percent'
p47
I540
sS'w+2=pollute'
p48
I1636
sS'ccomp=avoid'
p49
I226
sS'ccomp=sensitive'
p50
I257
sS'w-2=clash'
p51
I2213
sS'ccomp=son'
p52
I259
sS'nsubj=Zimbabweans'
p53
I609
sS'w+2=economy'
p54
I1491
sS'w+2=recent'
p55
I1659
sS'w-2=cargo'
p56
I2202
sS'w+2=often'
p57
I1610
sS'w-2=challenge'
p58
I2206
sS'advmod=annually'
p59
I122
sS'w+1=consensus'
p60
I1011
sS'w-1=debt'
p61
I1866
sS'w-1=underline'
p62
I2024
sS'w-1=will'
p63
I2036
sS'acomp=unaware'
p64
I50
sS'w-2=administration'
p65
I2144
sS'acomp=unpopular'
p66
I52
sS'conj=lead'
p67
I318
sS'dep=fastest'
p68
I379
sS'w+1=sign'
p69
I1252
sS'acomp=wary'
p70
I53
sS'dobj=fear'
p71
I448
sS'w-2=among'
p72
I2156
sS'w-1=container'
p73
I1858
sS'w-2=by'
p74
I2196
sS'advcl=should'
p75
I103
sS'w-2=international'
p76
I2353
sS'w+1=accustomed'
p77
I934
sS'advcl=scare'
p78
I101
sS'w-2=time'
p79
I2564
sS'w-2=where'
p80
I2594
sS'advmod=mostly'
p81
I168
sS'w+1=republican'
p82
I1231
sS'w+1=crop'
p83
I1021
sS'nsubj=Diouf'
p84
I573
sS'w-1=pre-cancerous'
p85
I1971
sS'w-1=steadily'
p86
I2001
sS'dobj=acre'
p87
I408
sS'w+1=of'
p88
I1172
sS'dobj=material'
p89
I470
sS'w+1=community'
p90
I1003
sS'w+1=on'
p91
I1176
sS'w+2=convince'
p92
I1462
sS'w+2=cause'
p93
I1448
sS'w+2=last'
p94
I1570
sS'w-2=car'
p95
I2201
sS'w+1=opium'
p96
I1177
sS'advmod=exponentially'
p97
I145
sS'w+2=rank'
p98
I1656
sS'conj=secure'
p99
I344
sS'ccomp=say'
p100
I254
sS'w+2=impatient'
p101
I1540
sS'w+2=three'
p102
I1719
sS'w-2=evolve'
p103
I2276
sS'w+2=eight'
p104
I1493
sS'w+1=unease'
p105
I1311
sS'w+2=corn'
p106
I1464
sS'advcl=mechanize'
p107
I92
sS'w+2=little'
p108
I1577
sS'w+2=disparity'
p109
I1480
sS'w-2=Walla'
p110
I2133
sS'dobj=sign'
p111
I510
sS'ccomp=have'
p112
I240
sS'w-1=could'
p113
I1862
sS'w+2=Goma'
p114
I1379
sS'w+2=you'
p115
I1765
sS'prep=around'
p116
I869
sS'w+1=food'
p117
I1078
sS'w-1=you'
p118
I2042
sS'nsubjpass=percent'
p119
I842
sS'w+2=popularity'
p120
I1638
sS'w-2=heritage'
p121
I2328
sS'w+1=emerge'
p122
I1048
sS'advcl=be'
p123
I59
sS'w-2=report'
p124
I2480
sS'w-2=that'
p125
I2552
sS'w+1=the'
p126
I1285
sS'nsubj=lead'
p127
I727
sS'w-2=health'
p128
I2326
sS'w+2=adult'
p129
I1404
sS'w-1=follow'
p130
I1899
sS'advcl=matter'
p131
I91
sS'nsubj=week'
p132
I828
sS'w-2=number'
p133
I2412
sS'w-1=get'
p134
I1908
sS'w+1=problem'
p135
I1206
sS'w-1=dispute'
p136
I1874
sS'w-2=citizen'
p137
I2211
sS'w-2=leader'
p138
I2370
sS'nsubj=female'
p139
I689
sS'w+2=surfing'
p140
I1700
sS'ccomp=investment'
p141
I243
sS'w+1=iraqi'
p142
I1125
sS'w+2=future'
p143
I1521
sS'w-1=side'
p144
I1993
sS'w-2=shy'
p145
I2509
sS'w-1=garden'
p146
I1906
sS'advcl=call'
p147
I63
sS'xcomp=establish'
p148
I2633
sS'w+2=together'
p149
I1723
sS'advcl=fail'
p150
I76
sS'w-1=now'
p151
I1950
sS'dep=whose'
p152
I403
sS'nsubj=education'
p153
I677
sS'w+1=child'
p154
I992
sS'w-2=patience'
p155
I2429
sS'w+2=ethnic'
p156
I1502
sS'nsubj=fear'
p157
I687
sS'advmod=enough'
p158
I139
sS'w-2=party'
p159
I2428
sS'nsubj=that'
p160
I810
sS'advmod=further'
p161
I150
sS'advmod=here'
p162
I154
sS'w+2=authentically'
p163
I1427
sS'w-2=address'
p164
I2143
sS'conj=grow'
p165
I306
sS'parataxis=be'
p166
I848
sS'nsubj=base'
p167
I624
sS'w-2=thesecond-biggest'
p168
I2556
sS'nsubj=group'
p169
I706
sS'nsubj=mountain'
p170
I736
sS'acomp=severe'
p171
I42
sS'w+1=facial'
p172
I1066
sS'conj=be'
p173
I278
sS'w-1=aggravate'
p174
I1818
sS'w+2=involve'
p175
I1559
sS'w+1=nation'
p176
I1165
sS'w-2=democracy'
p177
I2250
sS'w-1=Zimbabweans'
p178
I1809
sS'w+2=maize'
p179
I1579
sS'nsubj=gulf'
p180
I707
sS'w+2=power'
p181
I1640
sS'advmod=exclusively'
p182
I144
sS'w-2=Somalia'
p183
I2119
sS'advmod=where'
p184
I205
sS'advmod=considerably'
p185
I135
sS'nsubj=breadfruit'
p186
I627
sS'w+2=when'
p187
I1752
sS'nsubj=enrollment'
p188
I680
sS'w+2=awareness'
p189
I1429
sS'w+1=congressional'
p190
I1010
sS'w-2=policy'
p191
I2438
sS'nsubj=cultivation'
p192
I660
sS'nsubj=way'
p193
I827
sS'w+1=anxiety'
p194
I954
sS'w+2=frosty'
p195
I1519
sS'w+2=30'
p196
I1358
sS'w-2=community'
p197
I2225
sS'w+2=34'
p198
I1359
sS'w+1=worldwide'
p199
I1337
sS'dobj=plant'
p200
I491
sS'prep=include'
p201
I884
sS'xcomp=allow'
p202
I2617
sS'w-2=Annapolis'
p203
I2063
sS'conj=create'
p204
I287
sS'w+1=healthful'
p205
I1094
sS'w+2=cover'
p206
I1468
sS'nsubj=rebel'
p207
I773
sS'w+2=however'
p208
I1536
sS'w-1=to'
p209
I2015
sS'nsubj=festival-goer'
p210
I690
sS'w-2=inflation'
p211
I2348
sS'nsubj=Davis'
p212
I571
sS'advmod=especially'
p213
I140
sS'w-1=first'
p214
I1898
sS'w-2=between'
p215
I2186
sS'w-2=U.S.'
p216
I2127
sS'w-2=withdrawal'
p217
I2603
sS'dobj=#PRP#'
p218
I407
sS'w-2=do'
p219
I2259
sS'dobj=opposition'
p220
I482
sS'ccomp=underestimate'
p221
I266
sS'tmod=tomorrow'
p222
I916
sS'w-2=supermarket'
p223
I2539
sS'w+1=you'
p224
I1339
sS'acomp=bitter'
p225
I7
sS'nsubj=farmer'
p226
I684
sS'nsubj=Musharraf'
p227
I597
sS'nsubj=dispute'
p228
I674
sS'nsubj=Mendes'
p229
I593
sS'w+1=isolation'
p230
I1128
sS'nsubj=worth'
p231
I835
sS'w+2=lot'
p232
I1578
sS'w+2=effort'
p233
I1492
sS'advmod=extensively'
p234
I146
sS'w+2=restless'
p235
I1665
sS'w+1=anti-migrant'
p236
I953
sS'w+1=shabby'
p237
I1249
sS'w+1=he'
p238
I1092
sS'w-2=two'
p239
I2573
sS'w+2=all'
p240
I1411
sS'xcomp=create'
p241
I2629
sS'w+1=exponentially'
p242
I1062
sS'w+2=under'
p243
I1735
sS'w-1=over'
p244
I1960
sS'w-1=would'
p245
I2040
sS'w+1=frustrated'
p246
I1084
sS'xcomp=crack'
p247
I2628
sS'w-2=Russia'
p248
I2116
sS'dobj=wider'
p249
I538
sS'w+2=grapple'
p250
I1524
sS'nsubj=voice'
p251
I825
sS'w+2=dismayed'
p252
I1479
sS'w+2=because'
p253
I1434
sS'w+2=criticism'
p254
I1470
sS'w+1=capability'
p255
I988
sS'w-2=likely'
p256
I2377
sS'w+1=rebel'
p257
I1223
sS'ccomp=round'
p258
I253
sS'w-1=chaos'
p259
I1847
sS'w+1=terror'
p260
I1283
sS'ccomp=make'
p261
I246
sS'nsubj=frustration'
p262
I698
sS'w-2=whose'
p263
I2598
sS'w-1=Leonard'
p264
I1796
sS'w+1=call-center'
p265
I987
sS'w+1=biofuel'
p266
I981
sS'xcomp=say'
p267
I2654
sS'advcl=native'
p268
I93
sS'w-1=maybe'
p269
I1936
sS'w+2=something'
p270
I1688
sS'w+1=tie'
p271
I1295
sS'w+2=where'
p272
I1753
sS'w-2=lung'
p273
I2382
sS'w-2=second'
p274
I2492
sS'conj=develop'
p275
I290
sS'parataxis=part'
p276
I854
sS'conj=live'
p277
I321
sS'w-2=treat'
p278
I2569
sS'w+1=steadily'
p279
I1267
sS'conj=reach'
p280
I338
sS'w+2=terrorist'
p281
I1708
sS'w+1=epidemic'
p282
I1054
sS'w+1=use'
p283
I1317
sS'dobj=region'
p284
I501
sS'w-2=fighting'
p285
I2293
sS'dobj=uprising'
p286
I531
sS'w+2=158,000'
p287
I1353
sS'w-1=spark'
p288
I1997
sS'w-2=infection'
p289
I2347
sS'w+1=effort'
p290
I1045
sS'w+2=rice'
p291
I1666
sS'nsubj=cabinet'
p292
I631
sS'w-1=fear'
p293
I1895
sS'w+2=follow'
p294
I1514
sS'w-2=discourage'
p295
I2257
sS'w+2=poor'
p296
I1637
sS'dep=louder'
p297
I385
sS'w-2=supplement'
p298
I2540
sS'nsubj=researcher'
p299
I779
sS'w-2=fight'
p300
I2291
sS'w+2=diversify'
p301
I1483
sS'advmod=maybe'
p302
I164
sS'w-1=wheat'
p303
I2032
sS'dobj=interest'
p304
I461
sS'dobj=tissue'
p305
I524
sS'w-2=hair'
p306
I2319
sS'ccomp=push'
p307
I251
sS'w+1=too'
p308
I1301
sS'conj=supply'
p309
I353
sS'w-2=those'
p310
I2561
sS'w-2=Iraqis'
p311
I2091
sS'w-1=Colombia'
p312
I1784
sS'nsubj=India'
p313
I584
sS'w-2=class'
p314
I2214
sS'w-2=element'
p315
I2266
sS'w+1=scrutiny'
p316
I1242
sS'dobj=body'
p317
I419
sS'w+2=project'
p318
I1646
sS'nsubjpass=plant'
p319
I843
sS'w-2=land'
p320
I2362
sS'w-2=regardless'
p321
I2474
sS'w-1=Delgadillo'
p322
I1787
sS'w-1=Benin'
p323
I1780
sS'w+2=ourselves'
p324
I1620
sS'xcomp=leave'
p325
I2644
sS'dobj=strength'
p326
I515
sS'w-2=tradition'
p327
I2567
sS'w+1=emotional'
p328
I1050
sS'tmod=just'
p329
I912
sS'w+1=produce'
p330
I1207
sS'w-1=Abdul-Malik'
p331
I1774
sS'w+1=tenser'
p332
I1281
sS'nsubj=gang'
p333
I699
sS'dep=hole'
p334
I382
sS'w+2=iodine-rich'
p335
I1560
sS'w+2=10.7'
p336
I1349
sS'dep=as'
p337
I373
sS'conj=send'
p338
I347
sS'acomp=uneducated'
p339
I51
sS'w+1=traffic'
p340
I1304
sS'w+1=expectation'
p341
I1061
sS'w+2=area'
p342
I1421
sS'w+2=heat'
p343
I1529
sS'w-2=world'
p344
I2606
sS'w-2=fish'
p345
I2298
sS'nsubj=confidence'
p346
I651
sS'advcl=sign'
p347
I104
sS'w-2=professor'
p348
I2457
sS'nsubj=number'
p349
I747
sS'w+1=nuisance'
p350
I1170
sS'nsubj=Arnold'
p351
I563
sS'w+1=political'
p352
I1194
sS'w+2=high'
p353
I1532
sS'advmod=enormously'
p354
I138
sS'acomp=less'
p355
I30
sS'w-1=never'
p356
I1947
sS'w-2=cabinet'
p357
I2197
sS'advmod=up'
p358
I201
sS'w-2=young'
p359
I2613
sS'w+2=order'
p360
I1617
sS'dobj=sorghum'
p361
I514
sS'w+1=local'
p362
I1143
sS'w+1=emission'
p363
I1049
sS'w-2=go'
p364
I2313
sS'w-2=budget'
p365
I2192
sS'w+1=poorly'
p366
I1196
sS'w-2=combine'
p367
I2222
sS'w-2=microchip'
p368
I2393
sS'acomp=frustrated'
p369
I21
sS'w+2=seed'
p370
I1675
sS'w+1=trade'
p371
I1303
sS'w-2=researcher'
p372
I2483
sS'w-1=Leach'
p373
I1795
sS'w+2=artist'
p374
I1423
sS'w-2=its'
p375
I2356
sS'nsubj=artist'
p376
I620
sS'w+2=vegetable'
p377
I1741
sS'xcomp=cause'
p378
I2623
sS'w+1=awareness'
p379
I970
sS'nsubj=discontent'
p380
I671
sS'advmod=particularly'
p381
I178
sS'w+1=between'
p382
I977
sS'w+1=considerably'
p383
I1012
sS'dobj=challenge'
p384
I423
sS'w-1=generation'
p385
I1907
sS'w+2=20'
p386
I1354
sS'w-2=million'
p387
I2396
sS'w+2=25'
p388
I1357
sS'w-2=expect'
p389
I2280
sS'mark=while'
p390
I549
sS'dep=so'
p391
I396
sS'conj=expand'
p392
I297
sS'w-2=fuel'
p393
I2308
sS'w+2=richness'
p394
I1667
sS'w-2=with'
p395
I2602
sS'w-2=also'
p396
I2154
sS'ccomp=believe'
p397
I228
sS'parataxis=language'
p398
I852
sS'dep=crowd'
p399
I375
sS'conj=cause'
p400
I282
sS'prep=outside'
p401
I890
sS'w+1=sufficient'
p402
I1273
sS'dep=percent'
p403
I390
sS'cc=or'
p404
I223
sS'w+2=once'
p405
I1612
sS'nsubj=community'
p406
I649
sS'w-2=power'
p407
I2447
sS'w-2=fear'
p408
I2288
sS'w-2=palm'
p409
I2425
sS'w+1=silent'
p410
I1255
sS'acomp=difficult'
p411
I15
sS'w-2=poppy'
p412
I2443
sS'w-2=self-sufficiency'
p413
I2496
sS'w-2=if'
p414
I2339
sS'w-2=Diouf'
p415
I2079
sS'nsubj=family'
p416
I683
sS'w+1=sense'
p417
I1247
sS'w-2=in'
p418
I2342
sS'conj=with'
p419
I362
sS'w-2=resource'
p420
I2485
sS'w-2=it'
p421
I2355
sS'w+2=1.8'
p422
I1347
sS'w+1=market'
p423
I1151
sS'w-2=Revolutionary'
p424
I2112
sS'xcomp=stress'
p425
I2658
sS'nsubj=demonstration'
p426
I666
sS'w-2=al-qaida'
p427
I2153
sS'w+2=1.4'
p428
I1346
sS'w+1=far'
p429
I1068
sS'w+1=al-qaida'
p430
I940
sS'w+2=nearly'
p431
I1597
sS'w+1=affluent'
p432
I937
sS'w+1=maturity'
p433
I1152
sS'w-2=poor'
p434
I2442
sS'advcl=impose'
p435
I83
sS'ccomp=win'
p436
I269
sS'dobj=beard'
p437
I417
sS'w-2=Artemisia'
p438
I2066
sS'nsubj=stature'
p439
I800
sS'nsubj=task'
p440
I807
sS'w+1=anyway'
p441
I956
sS'w-2=worry'
p442
I2608
sS'advmod=also'
p443
I121
sS'nsubj=tradition'
p444
I816
sS'w-2=disease'
p445
I2258
sS'w+2=intensity'
p446
I1553
sS'mark=although'
p447
I541
sS'w-1=read'
p448
I1977
sS'nsubj=disagreement'
p449
I670
sS'w+1=possibility'
p450
I1201
sS'nsubj=region'
p451
I774
sS'w-1=amid'
p452
I1823
sS'w-2=who'
p453
I2597
sS'w-2=call'
p454
I2198
sS'advmod=why'
p455
I206
sS'w-2=have'
p456
I2323
sS'w-2=appetite'
p457
I2165
sS'nsubj=Clinton'
p458
I569
sS'nsubj=proportion'
p459
I770
sS'w+1=religious'
p460
I1229
sS'w-2=soon'
p461
I2521
sS'w-1=just'
p462
I1925
sS'w-1=deflect'
p463
I1867
sS'w-1=person'
p464
I1965
sS'w-1=Arnold'
p465
I1776
sS'w-2=Musharaff'
p466
I2106
sS'w+2=frustrated'
p467
I1520
sS'w-1=people'
p468
I1964
sS'w+1=humanitarian'
p469
I1100
sS'w-2=let'
p470
I2373
sS'w-2=Monrovia'
p471
I2104
sS'w+1=in'
p472
I1107
sS'w-2=Ira'
p473
I2089
sS'w+1=it'
p474
I1131
sS'dobj=that'
p475
I520
sS'nsubj=#PRP#'
p476
I555
sS'w+1=about'
p477
I933
sS'w-1=from'
p478
I1901
sS'dobj=vegetable'
p479
I533
sS'w+2=impatience'
p480
I1539
sS'w+1=alienation'
p481
I942
sS'w-2=live'
p482
I2379
sS'w+1=indian'
p483
I1110
sS'ccomp=rescue'
p484
I252
sS'advmod=ahead'
p485
I118
sS'dobj=#NUMBER#'
p486
I406
sS'advmod=anywhere'
p487
I124
sS'w-2=relation'
p488
I2477
sS'w+2=way'
p489
I1748
sS'w+1=sympathy'
p490
I1277
sS'dobj=cell'
p491
I422
sS'w+2=raw'
p492
I1658
sS'advmod=all'
p493
I119
sS'w-2=like'
p494
I2376
sS'advcl=do'
p495
I73
sS'w+2=well'
p496
I1750
sS'w-2=baseball'
p497
I2176
sS'acomp=angry'
p498
I3
sS'w-1=Petrovic'
p499
I1802
sS'w+1=weight'
p500
I1330
sS'w-2=malaria'
p501
I2384
sS'dobj=anywhere'
p502
I412
sS'xcomp=watch'
p503
I2663
sS'dobj=organism'
p504
I484
sS'w-1=group'
p505
I1913
sS'w-1=poppy'
p506
I1968
sS'csubj=want'
p507
I369
sS'dobj=call'
p508
I421
sS'nsubj=Ray'
p509
I601
sS'w-2=must'
p510
I2405
sS'w-1=economy'
p511
I1879
sS'w-2=street'
p512
I2531
sS'w-1=Guard'
p513
I1791
sS'w+1=wealth'
p514
I1327
sS'w-2=alternative'
p515
I2155
sS'nsubj=garden'
p516
I701
sS'w-2=uneducated'
p517
I2576
sS'w+2=eastern'
p518
I1490
sS'conj=come'
p519
I283
sS'w+1=strong'
p520
I1270
sS'advcl=eat'
p521
I74
sS'w-2=school'
p522
I2491
sS'prep=compare'
p523
I877
sS'w-2=best'
p524
I2185
sS'w+1=body'
p525
I983
sS'w+1=sweet'
p526
I1276
sS'w+2=fewer'
p527
I1509
sS'w+1=love'
p528
I1147
sS'w-2=what'
p529
I2592
sS'w-1=earmark'
p530
I1878
sS'w-2=operation'
p531
I2417
sS'dobj=surfing'
p532
I517
sS'w+1=clash'
p533
I995
sS'w-2=and'
p534
I2157
sS'w-2=zone'
p535
I2614
sS'w+2=each'
p536
I1489
sS'w-2=tie'
p537
I2563
sS'dep=talk'
p538
I399
sS'w+1=corn'
p539
I1016
sS'advcl=english'
p540
I75
sS'w-2=to'
p541
I2565
sS'conj=record'
p542
I340
sS'w-1=acknowledge'
p543
I1813
sS'w-2=field'
p544
I2290
sS'w+1=11'
p545
I924
sS'w+1=10'
p546
I923
sS'w+1=Cold'
p547
I928
sS'w-2=relationship'
p548
I2478
sS'w+1=16'
p549
I925
sS'w+2=price'
p550
I1643
sS'w+2=season'
p551
I1673
sS'nsubj=baseball'
p552
I625
sS'w-2=one'
p553
I2416
sS'w-2=Australia'
p554
I2068
sS'w-2=subject'
p555
I2533
sS'w-2=worker'
p556
I2605
sS'w-2=any'
p557
I2162
sS'w-2=Annabell'
p558
I2062
sS'w-2=he'
p559
I2324
sS'w-2=loan'
p560
I2380
sS'prep=since'
p561
I892
sS'advmod=sustainably'
p562
I194
sS'nsubj=withdrawal'
p563
I832
sS'w+1=crisis'
p564
I1019
sS'w+1=uncharacteristically'
p565
I1309
sS'w-1=keep'
p566
I1926
sS'w+1=way'
p567
I1325
sS'w-2=write'
p568
I2610
sS'dobj=economy'
p569
I438
sS'w+2=would'
p570
I1763
sS'w-2=Venezuela'
p571
I2131
sS'w-1=and'
p572
I1824
sS'w-1=influence'
p573
I1920
sS'w-2=Royal'
p574
I2115
sS'w-2=wield'
p575
I2600
sS'w+1=serious'
p576
I1248
sS'w+2=15'
p577
I1352
sS'w-1=China'
p578
I1782
sS'w+2=10'
p579
I1348
sS'nsubj=advertising'
p580
I612
sS'w-2=threat'
p581
I2562
sS'w-2=need'
p582
I2409
sS'dobj=smaller'
p583
I513
sS'dobj=intolerance'
p584
I462
sS'xcomp=convert'
p585
I2626
sS'w+2=tumor'
p586
I1732
sS'advmod=soon'
p587
I190
sS'w+1=industry'
p588
I1111
sS'advcl=decide'
p589
I68
sS'w-2=other'
p590
I2422
sS'w-1=mouse'
p591
I1942
sS'w+1=investment'
p592
I1121
sS'aux=should'
p593
I216
sS'w+2=Mauritania'
p594
I1383
sS'nsubj=opinion'
p595
I748
sS'w-2=percentage'
p596
I2431
sS'w-2=look'
p597
I2381
sS'w-1=they'
p598
I2013
sS'xcomp=meddle'
p599
I2647
sS'w-1=pressure'
p600
I1972
sS'w-1=best'
p601
I1833
sS'w-2=Cinga'
p602
I2076
sS'nsubj=Mngqibisa'
p603
I594
sS'w+1=local-food'
p604
I1144
sS'w-1=Tuesday'
p605
I1806
sS'nsubj=research'
p606
I778
sS'w+2=rise'
p607
I1669
sS'w-1=outsourcing'
p608
I1959
sS'w-1=appetite'
p609
I1825
sS'w-2=stability'
p610
I2525
sS'dep=fast'
p611
I378
sS'w-1=rapidly'
p612
I1976
sS'w+1=partnership'
p613
I1186
sS'w+2=anxious'
p614
I1418
sS'prep=after'
p615
I864
sS'w+1=China'
p616
I927
sS'w-2=realize'
p617
I2469
sS'w+2=raise'
p618
I1655
sS'csubj=of'
p619
I368
sS'ccomp=plant'
p620
I249
sS'prep=against'
p621
I865
sS'w+1=population'
p622
I1200
sS'w+2=will'
p623
I1756
sS'cc=well'
p624
I224
sS'dobj=bean'
p625
I416
sS'advmod=before'
p626
I131
sS'w+2=discontent'
p627
I1478
sS'w-2=industry'
p628
I2346
sS'acomp=proud'
p629
I36
sS'w-1=all'
p630
I1820
sS'w+1=astronomically'
p631
I963
sS'w-1=reflect'
p632
I1979
sS'acomp=prosperous'
p633
I35
sS'w+2=tougher'
p634
I1727
sS'w+1=public'
p635
I1213
sS'w-2=Brice'
p636
I2072
sS'w+2=other'
p637
I1619
sS'nsubj=campaign'
p638
I634
sS'nsubj=elephant'
p639
I679
sS'w+1=before'
p640
I974
sS'nsubj=homeowner'
p641
I711
sS'w+1=support'
p642
I1274
sS'advcl=go'
p643
I81
sS'w-2=America'
p644
I2060
sS'conj=proud'
p645
I336
sS'dobj=man'
p646
I467
sS'acomp=diverse'
p647
I16
sS'w+1=frustration'
p648
I1085
sS'w+2=boycott'
p649
I1441
sS'w+1=surveillance'
p650
I1275
sS'dobj=turbulence'
p651
I527
sS'w+1=out'
p652
I1182
sS'w-2=give'
p653
I2311
sS'nsubj=fruit'
p654
I697
sS'conj=total'
p655
I359
sS'neg=not'
p656
I552
sS'conj=mate'
p657
I324
sS'csubj=add'
p658
I364
sS'w-2=popularity'
p659
I2444
sS'advmod=today'
p660
I196
sS'prep=beyond'
p661
I875
sS'w+2=tomorrow'
p662
I1725
sS'w-1=locally'
p663
I1933
sS'nsubjpass=poppy'
p664
I844
sS'w-1=sale'
p665
I1984
sS'w-1=girl'
p666
I1909
sS'w-1=actual'
p667
I1814
sS'xcomp=withdraw'
p668
I2665
sS'w+2=especially'
p669
I1501
sS'w+2=zoo'
p670
I1767
sS'w+2=business'
p671
I1442
sS'dobj=gap'
p672
I451
sS'w+1=field'
p673
I1075
sS'w+2=listen'
p674
I1576
sS'w+1=Latino'
p675
I929
sS'w-2=Aleksandar'
p676
I2058
sS'w+1=power'
p677
I1203
sS'w+2=cooperation'
p678
I1463
sS'rel=much'
p679
I908
sS'w+1=strongly'
p680
I1272
sS'w+2=mobile'
p681
I1587
sS'w+1=proportion'
p682
I1208
sS'acomp=tired'
p683
I48
sS'w-2=billion'
p684
I2187
sS'dep=not'
p685
I389
sS'w-1=she'
p686
I1989
sS'w+2=problem'
p687
I1644
sS'nsubj=turnout'
p688
I820
sS'w-1=worry'
p689
I2039
sS'conj=on'
p690
I330
sS'dobj=much'
p691
I477
sS'advmod=healthily'
p692
I153
sS'xcomp=know'
p693
I2643
sS'w+2=next'
p694
I1600
sS'w-2=enrollment'
p695
I2272
sS'advcl=build'
p696
I62
sS'w-2=rely'
p697
I2479
sS'w+2=overseas'
p698
I1624
sS'w+1=until'
p699
I1313
sS'w-2=supplies'
p700
I2542
sS'w+1=dispute'
p701
I1037
sS'nsubj=attack'
p702
I621
sS'dobj=pressure'
p703
I495
sS'w-2=radio'
p704
I2466
sS'w+2=instability'
p705
I1550
sS'dobj=grain'
p706
I454
sS'prep=within'
p707
I899
sS'w+1=that'
p708
I1284
sS'dobj=peace'
p709
I487
sS'w+2=indebtedness'
p710
I1545
sS'w-2=politics'
p711
I2440
sS'w-2=Democrats'
p712
I2078
sS'advmod=gradually'
p713
I151
sS'w+2=12'
p714
I1351
sS'ccomp=know'
p715
I244
sS'w+2=deficit'
p716
I1473
sS'conj=due'
p717
I295
sS'nsubj=Violao'
p718
I606
sS'nsubj=field'
p719
I691
sS'dobj=industry'
p720
I458
sS'w+1=consumer'
p721
I1013
sS'w-1=violence'
p722
I2028
sS'dobj=food'
p723
I449
sS'w+1=disillusionment'
p724
I1035
sS'w-1=gap'
p725
I1905
sS'w+2=movement'
p726
I1591
sS'w-1=class'
p727
I1852
sS'advmod=so'
p728
I188
sS'nsubj=influence'
p729
I716
sS'w-1=clash'
p730
I1851
sS'w-2=course'
p731
I2242
sS'advmod=just'
p732
I158
sS'w-1=see'
p733
I1988
sS'advcl=arrive'
p734
I58
sS'dobj=effort'
p735
I439
sS'aux=may'
p736
I213
sS'nsubj=China'
p737
I568
sS'w+1=virus'
p738
I1322
sS'w+2=rapidly'
p739
I1657
sS'w-2=cost'
p740
I2238
sS'w-2=the'
p741
I2553
sS'xcomp=compare'
p742
I2624
sS'advcl=leave'
p743
I88
sS'nsubj=leader'
p744
I728
sS'ccomp=seek'
p745
I256
sS'w+2=investor'
p746
I1558
sS'w+2=Republicans'
p747
I1388
sS'nsubj=attendance'
p748
I622
sS'nsubj=what'
p749
I829
sS'w+1=just'
p750
I1133
sS'w-2=hardy'
p751
I2322
sS'w-1=concern'
p752
I1856
sS'w-1=shrub'
p753
I1992
sS'w-2=elephant'
p754
I2267
sS'w+1=extensively'
p755
I1064
sS'w-2=plague'
p756
I2436
sS'conj=graduate'
p757
I305
sS'w-2=many'
p758
I2388
sS'w+2=nine'
p759
I1601
sS'nsubj=piracy'
p760
I756
sS'w+2=land'
p761
I1567
sS'advmod=legally'
p762
I160
sS'w-2=economic'
p763
I2262
sS'w+2=complex'
p764
I1457
sS'dobj=fastest'
p765
I447
sS'nsubj=phenomenon'
p766
I755
sS'nsubj=habit'
p767
I708
sS'w+2=in'
p768
I1541
sS'w+2=large'
p769
I1569
sS'w+2=it'
p770
I1562
sS'w-1=good'
p771
I1910
sS'acomp=worse'
p772
I55
sS'w-2=may'
p773
I2390
sS'nsubj=call'
p774
I632
sS'csubj=help'
p775
I367
sS'advmod=strongly'
p776
I193
sS'prep=about'
p777
I861
sS'aux=can'
p778
I209
sS'dobj=rule'
p779
I507
sS'mark=so'
p780
I547
sS'w-1=overfishing'
p781
I1961
sS'advmod=at'
p782
I127
sS'acomp=lax'
p783
I29
sS'dep=see'
p784
I393
sS'parataxis=introduce'
p785
I851
sS'dobj=corn'
p786
I429
sS'w-1=despite'
p787
I1870
sS'w+2=training'
p788
I1729
sS'w-1=Miller'
p789
I1799
sS'w+2=take'
p790
I1704
sS'xcomp=follow'
p791
I2637
sS'nsubj=appetite'
p792
I617
sS'nsubj=organization'
p793
I750
sS'advmod=radically'
p794
I182
sS'advmod=only'
p795
I176
sS'w-2=presence'
p796
I2448
sS'w+1=income'
p797
I1108
sS'nsubj=threat'
p798
I812
sS'w-2=Yuan'
p799
I2134
sS'w+1=for'
p800
I1079
sS'dobj=surroundings'
p801
I518
sS'w+2=acutely'
p802
I1401
sS'w-2=growth'
p803
I2317
sS'w-2=wide'
p804
I2599
sS'nsubj=default'
p805
I664
sS'w-2=security'
p806
I2494
sS'w-2=Donald'
p807
I2080
sS'w-2=adoption'
p808
I2145
sS'w+1=quickly'
p809
I1214
sS'prep=to'
p810
I896
sS'nsubj=tumor'
p811
I819
sS'w-2=wage'
p812
I2583
sS'w-2=voter'
p813
I2582
sS'w-1=fastest'
p814
I1893
sS'w-2=lawmaker'
p815
I2368
sS'conj=make'
p816
I323
sS'w-1=still'
p817
I2002
sS'w+2=wildlife'
p818
I1755
sS'w+2=even'
p819
I1503
sS'w-2=criticism'
p820
I2244
sS'w-2=hero'
p821
I2329
sS'w-2=1928'
p822
I2050
sS'w+2=how'
p823
I1535
sS'w+2=prosper'
p824
I1647
sS'acomp=faster'
p825
I19
sS'conj=bring'
p826
I280
sS'w-2=baby'
p827
I2174
sS'nsubj=debate'
p828
I662
sS'w+2=Iowa'
p829
I1381
sS'w-2=consumer'
p830
I2231
sS'w+2=adapt'
p831
I1403
sS'w-2=about'
p832
I2138
sS'ccomp=violate'
p833
I267
sS'w+2=tribal'
p834
I1731
sS'w+2=trade'
p835
I1728
sS'w-1=suffer'
p836
I2005
sS'advmod=of'
p837
I173
sS'acomp=alarm'
p838
I2
sS'nsubj=job'
p839
I722
sS'nsubj=Gitlin'
p840
I581
sS'dobj=which'
p841
I537
sS'w+2=we'
p842
I1749
sS'w-2=indian'
p843
I2344
sS'w+1=sectarian'
p844
I1244
sS'w+1=strength'
p845
I1269
sS'w-2=atmosphere'
p846
I2169
sS'advmod=apart'
p847
I125
sS'w-2=-rrb-'
p848
I2048
sS'w-2=Facebook'
p849
I2082
sS'xcomp=root'
p850
I2653
sS'w+2=reporter'
p851
I1663
sS'w-2=Tea'
p852
I2125
sS'nsubj=Facebook'
p853
I576
sS'w-1=statement'
p854
I2000
sS'w-2=handle'
p855
I2321
sS'nsubj=Koreans'
p856
I589
sS'w-2=cause'
p857
I2203
sS'w+1=defiance'
p858
I1025
sS'w-2=available'
p859
I2172
sS'ccomp=hold'
p860
I242
sS'nsubj=South'
p861
I604
sS'nsubj=pirate'
p862
I757
sS'w+1=faster'
p863
I1071
sS'conj=adapt'
p864
I273
sS'w+2=too'
p865
I1726
sS'nsubj=GDP'
p866
I579
sS'dobj=debate'
p867
I434
sS'det=the'
p868
I405
sS'w+1=very'
p869
I1319
sS'w-2=business'
p870
I2193
sS'dobj=people'
p871
I489
sS'w-2=Allen'
p872
I2059
sS'w-1=citizen'
p873
I1849
sS'ccomp=help'
p874
I241
sS'w+2=threaten'
p875
I1718
sS'dobj=support'
p876
I516
sS'advmod=meanwhile'
p877
I165
sS'w+2=variety'
p878
I1740
sS'dep=which'
p879
I402
sS'nsubj=list'
p880
I730
sS'ccomp=spread'
p881
I260
sS'w-2=hiv'
p882
I2330
sS'w-2=tumor'
p883
I2572
sS'w+2=rift'
p884
I1668
sS'w+2=here'
p885
I1531
sS'w+1=impatience'
p886
I1104
sS'w+1=short'
p887
I1250
sS'w+1=segment'
p888
I1246
sS'nsubj=Balog'
p889
I565
sS'w-2=incentive'
p890
I2343
sS'w+2=month'
p891
I1588
sS'w+1=call'
p892
I986
sS'w-2=take'
p893
I2545
sS'w+2=quickly'
p894
I1653
sS'prep=over'
p895
I891
sS'dep=allof'
p896
I372
sS'nsubj=town'
p897
I814
sS'nsubj=store'
p898
I802
sS'w+2=pressure'
p899
I1642
sS'w+2=--'
p900
I1343
sS'w+2=force'
p901
I1517
sS'w+1=protest'
p902
I1211
sS'nsubjpass=that'
p903
I846
sS'nsubj=voter'
p904
I826
sS'nsubj=story'
p905
I803
sS'xcomp=have'
p906
I2640
sS'w+2=fast'
p907
I1505
sS'w-1=Maryland'
p908
I1797
sS'w+1=importance'
p909
I1106
sS'ccomp=be'
p910
I227
sS'w+1=wider'
p911
I1332
sS'w-1=with'
p912
I2037
sS'w+1=workload'
p913
I1335
sS'w-2=continue'
p914
I2234
sS'w-2=tend'
p915
I2550
sS'w+2=own'
p916
I1626
sS'w-2=china-the'
p917
I2209
sS'w-1=minister'
p918
I1940
sS'advmod=anyway'
p919
I123
sS'partmod=bear'
p920
I857
sS'conj=replace'
p921
I341
sS'w-2=she'
p922
I2503
sS'advmod=along'
p923
I120
sS'acomp=militarized'
p924
I31
sS'w-1=trade'
p925
I2018
sS'nsubj=shrub'
p926
I793
sS'w-1=fruit'
p927
I1902
sS'w+1=commercial'
p928
I1002
sS'w+1=chorus'
p929
I993
sS'w+1=--'
p930
I921
sS'parataxis=say'
p931
I855
sS'xcomp=supply'
p932
I2659
sS'w-1=park'
p933
I1963
sS'w-2=create'
p934
I2243
sS'w+2=imminent'
p935
I1538
sS'acomp=older'
p936
I33
sS'nsubj=involvement'
p937
I721
sS'w-2=Billy'
p938
I2070
sS'conj=think'
p939
I357
sS'nsubj=something'
p940
I797
sS'w+2=less-polluting'
p941
I1574
sS'w-2=Islam'
p942
I2092
sS'w-2=contain'
p943
I2233
sS'w+1=strategic'
p944
I1268
sS'w+2=around'
p945
I1422
sS'w+1=heat'
p946
I1096
sS'w+1=older'
p947
I1175
sS'nsubj=rhetoric'
p948
I785
sS'w+1=pessimism'
p949
I1189
sS'w-1=large'
p950
I1928
sS'nsubj=relationship'
p951
I776
sS'w-2=muslim'
p952
I2404
sS'xcomp=address'
p953
I2616
sS'nsubj=resentment'
p954
I780
sS'w+1=polarization'
p955
I1193
sS'w-1=Ciara'
p956
I1783
sS'w+2=since'
p957
I1683
sS'w-2=discontent'
p958
I2256
sS'xcomp=speak'
p959
I2656
sS'nsubj=effort'
p960
I678
sS'dobj=virus'
p961
I534
sS'w+1=american'
p962
I947
sS'w-2=corn'
p963
I2237
sS'w-2=pressure'
p964
I2450
sS'w-2=place'
p965
I2435
sS'w+1=stature'
p966
I1266
sS'w+1=cell'
p967
I990
sS'w-2=deal'
p968
I2248
sS'nsubj=Delgadillo'
p969
I572
sS'w-1=tension'
p970
I2010
sS'w-2=Africa'
p971
I2056
sS'w-2=fighter'
p972
I2292
sS'dobj=lot'
p973
I465
sS'dep=self-sufficient'
p974
I394
sS'w+2=462'
p975
I1361
sS'w+2=year'
p976
I1764
sS'w-2=Orleans'
p977
I2109
sS'w+2=tolerance'
p978
I1724
sS'w-2=opinion'
p979
I2418
sS'w-2=sort'
p980
I2522
sS'dobj=unused'
p981
I530
sS'w+2=issue'
p982
I1561
sS'w+1=tb'
p983
I1278
sS'w-2=after'
p984
I2149
sS'dep=shorter'
p985
I395
sS'w+1=to'
p986
I1299
sS'w-2=Kip'
p987
I2096
sS'w-2=keep'
p988
I2359
sS'w+2=close'
p989
I1452
sS'w-2=everywhere'
p990
I2275
sS'w+2=food'
p991
I1515
sS'w+2=he'
p992
I1528
sS'w+1=controversy'
p993
I1015
sS'w+1=twice'
p994
I1308
sS'nsubj=turtle'
p995
I821
sS'w-2=stature'
p996
I2528
sS'w+2=mature'
p997
I1583
sS'w+2=Washington'
p998
I1392
sS'w+1=violence'
p999
I1320
sS'w-1=expose'
p1000
I1886
sS'advmod=barely'
p1001
I130
sS'w-1=citrus'
p1002
I1850
sS'w+2=Coachella'
p1003
I1376
sS'w+2=California'
p1004
I1373
sS'acomp=adamant'
p1005
I1
sS'advmod=first'
p1006
I149
sS'w-1=Gitlin'
p1007
I1790
sS'nsubj=popularity'
p1008
I759
sS'w-2=cocoa'
p1009
I2218
sS'w-2=interest'
p1010
I2352
sS'acomp=scarce'
p1011
I40
sS'nsubj=doodle'
p1012
I675
sS'nsubj=Sunarno'
p1013
I605
sS'ccomp=break'
p1014
I229
sS'ccomp=torture'
p1015
I264
sS'w+1=autocratic'
p1016
I968
sS'w-2=african-american'
p1017
I2148
sS'w-2=tension'
p1018
I2551
sS'w+2=very'
p1019
I1742
sS'advmod=significantly'
p1020
I186
sS'w+1=sale'
p1021
I1240
sS'w-1=coffee'
p1022
I1853
sS'w+2=desperate'
p1023
I1475
sS'w-2=consider'
p1024
I2229
sS'w-2=daughter'
p1025
I2247
sS'w-2=example'
p1026
I2277
sS'w-2=global'
p1027
I2312
sS'nsubj=suspicion'
p1028
I806
sS'xcomp=worth'
p1029
I2667
sS'w-1=turtle'
p1030
I2022
sS'dobj=especially'
p1031
I444
sS'conj=play'
p1032
I332
sS'w-2=state'
p1033
I2527
sS'w-2=Putin'
p1034
I2111
sS'advmod=worldwide'
p1035
I207
sS'dobj=eldest'
p1036
I440
sS'w+2=7.9'
p1037
I1363
sS'parataxis=drive'
p1038
I850
sS'advcl=turn'
p1039
I110
sS'advmod=close'
p1040
I133
sS'nsubj=traffic'
p1041
I817
sS'nsubj=player'
p1042
I758
sS'tmod=day'
p1043
I910
sS'w+2=many'
p1044
I1580
sS'w+2=clump'
p1045
I1453
sS'w-1=gradually'
p1046
I1912
sS'nsubj=Leach'
p1047
I590
sS'conj=gain'
p1048
I300
sS'xcomp=unprepared'
p1049
I2661
sS'w-2=break-out'
p1050
I2190
sS'w+1=since'
p1051
I1256
sS'w+2=anger'
p1052
I1416
sS'advmod=there'
p1053
I195
sS'w-2=strongest'
p1054
I2532
sS'w+1=need'
p1055
I1167
sS'w+2=over'
p1056
I1622
sS'w-2=Middle'
p1057
I2103
sS'w-1=drug'
p1058
I1876
sS'nsubj=Erim'
p1059
I575
sS'w+1=vegetable'
p1060
I1318
sS'w+2=split'
p1061
I1691
sS'w+1=less'
p1062
I1139
sS'w-2=comfort'
p1063
I2224
sS'w-2=urgency'
p1064
I2577
sS'w+1=anger'
p1065
I950
sS'dobj=singing'
p1066
I511
sS'w-2=Motown'
p1067
I2105
sS'dobj=relation'
p1068
I502
sS'w+1=big'
p1069
I979
sS'w+1=technology'
p1070
I1279
sS'w+2=its'
p1071
I1563
sS'w+2=wine'
p1072
I1757
sS'w+1=area'
p1073
I959
sS'w+2=off'
p1074
I1609
sS'w-2=China'
p1075
I2075
sS'nsubj=world'
p1076
I834
sS'w-1=barely'
p1077
I1829
sS'w+2=dream'
p1078
I1487
sS'nsubj=chaos'
p1079
I640
sS'rel=from'
p1080
I906
sS'w+1=oil'
p1081
I1173
sS'w+1=rank'
p1082
I1218
sS'w+1=radicalization'
p1083
I1217
sS'dobj=member'
p1084
I472
sS'w+1=array'
p1085
I961
sS'w+1=slightly'
p1086
I1259
sS'prep=because'
p1087
I872
sS'ccomp=try'
p1088
I265
sS'conj=metastasize'
p1089
I326
sS'w+1=islamist'
p1090
I1126
sS'nsubj=militant'
p1091
I735
sS'w-2=Mexico'
p1092
I2102
sS'w+1=orange'
p1093
I1180
sS'w+2=normal'
p1094
I1603
sS'w+2=sustainable'
p1095
I1703
sS'w-2=environment'
p1096
I2273
sS'w-2=come'
p1097
I2223
sS'w-2=believe'
p1098
I2183
sS'w-2=Sunni'
p1099
I2123
sS'dobj=rank'
p1100
I499
sS'w-2=recognize'
p1101
I2471
sS'w+2=accord'
p1102
I1398
sS'w-2=shatter'
p1103
I2502
sS'w-2=consumption'
p1104
I2232
sS'w-2=steadily'
p1105
I2529
sS'nsubj=sale'
p1106
I788
sS'w-2=conflict'
p1107
I2228
sS'w-2=concern'
p1108
I2227
sS'w+1=clientele'
p1109
I996
sS'w+2=neighbor'
p1110
I1599
sS'xcomp=take'
p1111
I2660
sS'w-1=view'
p1112
I2027
sS'w+2=asian'
p1113
I1425
sS'nsubjpass=Bamboo'
p1114
I837
sS'nsubj=industry'
p1115
I715
sS'w+2=beard'
p1116
I1433
sS'w-2=underscore'
p1117
I2575
sS'w-1=debate'
p1118
I1865
sS'w+1=criticism'
p1119
I1020
sS'w+2=know'
p1120
I1566
sS'w-2=represent'
p1121
I2481
sS'w+1=regional'
p1122
I1226
sS'w-2=feed'
p1123
I2289
sS'w-1=Mngqibisa'
p1124
I1800
sS'w-2=should'
p1125
I2505
sS'w-2=pirate'
p1126
I2434
sS'w+2=some'
p1127
I1687
sS'w+1=percentage'
p1128
I1188
sS'w+2=intolerance'
p1129
I1556
sS'w+1=feeling'
p1130
I1074
sS'dobj=sale'
p1131
I508
sS'w+2=Canada'
p1132
I1374
sS'w+2=bigger'
p1133
I1439
sS'w-1=store'
p1134
I2004
sS'w-1=Shore'
p1135
I1805
sS'w-2=active'
p1136
I2141
sS'w-1=sugarcane'
p1137
I2006
sS'cc=but'
p1138
I222
sS'w-2=share'
p1139
I2500
sS'w+1=division'
p1140
I1038
sS'ccomp=suffer'
p1141
I261
sS'xcomp=make'
p1142
I2646
sS'w-2=sign'
p1143
I2511
sS'xcomp=extend'
p1144
I2635
sS'nsubj=Petrovic'
p1145
I600
sS'advcl=play'
p1146
I95
sS'conj=imminent'
p1147
I313
sS'w+2=fighting'
p1148
I1510
sS'nsubj=callinginterest'
p1149
I633
sS'nsubj=nation'
p1150
I744
sS'w+1=along'
p1151
I944
sS'nsubj=development'
p1152
I669
sS'w-2=begin'
p1153
I2181
sS'w+1=dramatically'
p1154
I1040
sS'advcl=win'
p1155
I113
sS'w+2=difficult'
p1156
I1477
sS'w-2=kid'
p1157
I2360
sS'w+2=crop'
p1158
I1471
sS'w-1=conviction'
p1159
I1860
sS'nsubj=Musharaff'
p1160
I596
sS'w-2=my'
p1161
I2406
sS'nsubj=Hezbollah'
p1162
I583
sS'nsubj=trade'
p1163
I815
sS'w-1=year'
p1164
I2041
sS'dobj=business'
p1165
I420
sS'w-2=demand'
p1166
I2249
sS'conj=ensure'
p1167
I296
sS'w+2=disposal'
p1168
I1481
sS'w-2=of'
p1169
I2413
sS'w-2=extremist'
p1170
I2281
sS'w+2=compare'
p1171
I1456
sS'acomp=impatient'
p1172
I26
sS'parataxis=make'
p1173
I853
sS'nsubj=man'
p1174
I732
sS'nsubj=which'
p1175
I830
sS'conj=affluent'
p1176
I275
sS'conj=take'
p1177
I356
sS'dobj=influence'
p1178
I459
sS'nsubj=export'
p1179
I681
sS'w+1=louder'
p1180
I1146
sS'w+2=both'
p1181
I1440
sS'w+2=key'
p1182
I1565
sS'w-2=energy'
p1183
I2270
sS'w-2=crop'
p1184
I2245
sS'w+1=quiet'
p1185
I1215
sS'w+1=force'
p1186
I1080
sS'w-2=middle'
p1187
I2394
sS'w-2=region'
p1188
I2475
sS'parataxis=die'
p1189
I849
sS'conj=multiply'
p1190
I328
sS'w+2=less'
p1191
I1573
sS'w-1=situation'
p1192
I1994
sS'w-2=can'
p1193
I2200
sS'nsubj=building'
p1194
I629
sS'advcl=unpunished'
p1195
I111
sS'w+1=wary'
p1196
I1323
sS'nsubj=income'
p1197
I714
sS'w-2=traffic'
p1198
I2568
sS'w+2=acre'
p1199
I1399
sS'w+1=modestly'
p1200
I1158
sS'w-2=Vietnam'
p1201
I2132
sS'w-1=continue'
p1202
I1859
sS'w+2=insurgency'
p1203
I1551
sS'w-2=could'
p1204
I2239
sS'dobj=unease'
p1205
I529
sS'w-1=instability'
p1206
I1921
sS'w-2=large'
p1207
I2364
sS'w-1=list'
p1208
I1931
sS'xcomp=express'
p1209
I2634
sS'w+1=electoral'
p1210
I1047
sS'w+1=up'
p1211
I1315
sS'w-1=start'
p1212
I1999
sS'w+1=underclass'
p1213
I1310
sS'nsubj=cane'
p1214
I636
sS'w+2=America'
p1215
I1370
sS'w-2=try'
p1216
I2571
sS'w-2=freedom'
p1217
I2304
sS'nsubj=cancer'
p1218
I635
sS'w+1=instability'
p1219
I1115
sS'w+1=more'
p1220
I1160
sS'w+1=with'
p1221
I1333
sS'w+1=momentum'
p1222
I1159
sS'dobj=shortage'
p1223
I509
sS'acomp=accustomed'
p1224
I0
sS'w-2=,'
p1225
I2046
sS'w+1=dependency'
p1226
I1029
sS'w-2=.'
p1227
I2049
sS"w-2='"
p1228
I2043
sS'dobj=number'
p1229
I479
sS'aux=have'
p1230
I212
sS'w+2=worse'
p1231
I1762
sS'w-1=confidence'
p1232
I1857
sS'w+1=major'
p1233
I1149
sS'nsubj=stability'
p1234
I798
sS'w-2=think'
p1235
I2559
sS'w-2=:'
p1236
I2051
sS'w-2=;'
p1237
I2052
sS'w-2=thing'
p1238
I2558
sS'tmod=season'
p1239
I914
sS'advcl=die'
p1240
I70
sS'w-1=international'
p1241
I1922
sS'w+2=coastal'
p1242
I1454
sS'w+1=availability'
p1243
I969
sS'w-2=lion'
p1244
I2378
sS'w+2=perhaps'
p1245
I1633
sS'w-2=how'
p1246
I2337
sS'conj=help'
p1247
I310
sS'ccomp=target'
p1248
I263
sS'w+2=thrive'
p1249
I1720
sS'w-1=Ray'
p1250
I1803
sS'w-1=some'
p1251
I1996
sS'w+1=shortage'
p1252
I1251
sS'w-2=side'
p1253
I2510
sS'nsubj=action'
p1254
I610
sS'w+2=West'
p1255
I1393
sS'nsubj=movement'
p1256
I738
sS'conj=hire'
p1257
I311
sS'w-2=job'
p1258
I2357
sS'w+1=challenge'
p1259
I991
sS'w+1=piracy'
p1260
I1191
sS'w+2=coffee'
p1261
I1455
sS'w-1=he'
p1262
I1916
sS'w+2=nature'
p1263
I1595
sS'w+1=rather'
p1264
I1221
sS'w+1=anything'
p1265
I955
sS'acomp=insistent'
p1266
I27
sS'dobj=maturity'
p1267
I471
sS'w+1=from'
p1268
I1083
sS'w+1=iraq-style'
p1269
I1124
sS'neg=never'
p1270
I551
sS'w-2=city'
p1271
I2212
sS'nsubj=production'
p1272
I768
sS'conj=diversify'
p1273
I293
sS'xcomp=eat'
p1274
I2631
sS'w-2=Afghanistan'
p1275
I2055
sS'conj=harvest'
p1276
I308
sS'w-2=response'
p1277
I2486
sS'prt=out'
p1278
I901
sS'ccomp=do'
p1279
I236
sS'w+1=enough'
p1280
I1053
sS'w-2=political'
p1281
I2439
sS'nsubj=Motown'
p1282
I595
sS'w-2=chinese'
p1283
I2210
sS'w-2=drive'
p1284
I2261
sS'acomp=hostile'
p1285
I24
sS'nsubj=Africa'
p1286
I559
sS'xcomp=spend'
p1287
I2657
sS'w+2=need'
p1288
I1598
sS'nsubj=Abdul-Malik'
p1289
I557
sS'w+2=sector'
p1290
I1674
sS'w+1=tissue'
p1291
I1298
sS'w-1=largest'
p1292
I1929
sS'w+1=rich'
p1293
I1236
sS'w-2=this'
p1294
I2560
sS'w+1=rice'
p1295
I1235
sS'advmod=locally'
p1296
I161
sS'w-1=ever'
p1297
I1882
sS'nsubj=conflict'
p1298
I652
sS'acomp=complex'
p1299
I8
sS'w+1=muslim'
p1300
I1163
sS'w+2=sentiment'
p1301
I1677
sS'nsubj=situation'
p1302
I795
sS'w+1=culture'
p1303
I1022
sS'nsubj=Dogan'
p1304
I574
sS'w+2=term'
p1305
I1707
sS'w+1=when'
p1306
I1331
sS'w+2=can'
p1307
I1445
sS'nsubj=Walsh'
p1308
I607
sS'advmod=tremendously'
p1309
I200
sS'w-1=artist'
p1310
I1826
sS'w+2=surround'
p1311
I1701
sS'w+1=web'
p1312
I1329
sS'w-2=larva'
p1313
I2365
sS'advmod=slowly'
p1314
I187
sS'w+2=opposition'
p1315
I1615
sS'w-2=size'
p1316
I2515
sS'ccomp=affordable'
p1317
I225
sS'w-2=despite'
p1318
I2253
sS'dobj=division'
p1319
I437
sS'w+1=country'
p1320
I1018
sS'dep=heat'
p1321
I381
sS'w+1=-'
p1322
I920
sS'w+1=,'
p1323
I919
sS'w-2=mountain'
p1324
I2401
sS'w+1=.'
p1325
I922
sS'w+1=2'
p1326
I926
sS'w+2=home'
p1327
I1533
sS'w-2=Ukraine'
p1328
I2129
sS'w-2=such'
p1329
I2534
sS'w-2=factor'
p1330
I2283
sS'w+1=fastest'
p1331
I1072
sS'w-2=necessary'
p1332
I2408
sS'dobj=average'
p1333
I414
sS'w+1=maize'
p1334
I1148
sS'w-2=super-rich'
p1335
I2537
sS'w-2=finally'
p1336
I2296
sS'w-1=quickly'
p1337
I1975
sS'dobj=energy'
p1338
I442
sS'w+2=Arusha'
p1339
I1371
sS'w+1=authoritarianism'
p1340
I967
sS'w+1=bilateral'
p1341
I980
sS'nsubj=tie'
p1342
I813
sS'w+2=support'
p1343
I1699
sS'w+1=a'
p1344
I932
sS'w+2=unpopular'
p1345
I1737
sS'w-2=frustration'
p1346
I2307
sS'w-2=cope'
p1347
I2236
sS'w+2=demand'
p1348
I1474
sS'w+1=U.S.'
p1349
I931
sS'nsubj=poverty'
p1350
I761
sS'w-1=include'
p1351
I1919
sS'w-2=because'
p1352
I2180
sS'dobj=bit'
p1353
I418
sS'w+2=push'
p1354
I1651
sS'conj=harder'
p1355
I307
sS'w-1=suggest'
p1356
I2007
sS'w-1=own'
p1357
I1962
sS'w-1=business'
p1358
I1837
sS'nsubj=girl'
p1359
I703
sS'w-2=major'
p1360
I2383
sS'w-2=learning'
p1361
I2371
sS'w+1=energy'
p1362
I1051
sS'w+2=shortage'
p1363
I1682
sS'w-1=base'
p1364
I1830
sS'w+2=virus'
p1365
I1744
sS'w-1=turnout'
p1366
I2021
sS'nsubj=figure'
p1367
I693
sS'w-2=people'
p1368
I2430
sS'w+2=among'
p1369
I1414
sS'nsubj=cargo'
p1370
I637
sS'mark=for'
p1371
I544
sS'w+2=during'
p1372
I1488
sS'w+1=briskly'
p1373
I984
sS'nsubj=child'
p1374
I641
sS'w-2=sugar'
p1375
I2535
sS'w+1=level'
p1376
I1140
sS'conj=produce'
p1377
I334
sS'w-2=when'
p1378
I2593
sS'w-2=sectarian'
p1379
I2493
sS'w-2=site'
p1380
I2513
sS'w+2=backer'
p1381
I1430
sS'w-2=base'
p1382
I2175
sS'nsubj=percentage'
p1383
I754
sS'acomp=stronger'
p1384
I46
sS'conj=intensify'
p1385
I315
sS'w+1=involvement'
p1386
I1122
sS'acomp=tougher'
p1387
I49
sS'w-1=during'
p1388
I1877
sS'w-1=market'
p1389
I1935
sS'acomp=concerned'
p1390
I9
sS'w+2=prosperity'
p1391
I1648
sS'w-1=discuss'
p1392
I1873
sS'w+2=child'
p1393
I1449
sS'advmod=home'
p1394
I155
sS'w+1=movement'
p1395
I1162
sS'w+1=these'
p1396
I1287
sS'w-2=from'
p1397
I2305
sS'w+1=deeper'
p1398
I1024
sS'w-2=we'
p1399
I2588
sS'nsubj=circulation'
p1400
I643
sS'w+2=severe'
p1401
I1679
sS'w-2=fall'
p1402
I2284
sS'w-1=mean'
p1403
I1937
sS'w+1=degree'
p1404
I1027
sS'w-2=price'
p1405
I2451
sS'w+1=stand-off'
p1406
I1265
sS'w-2=movement'
p1407
I2402
sS'w+2=begin'
p1408
I1436
sS'w+2=Sri'
p1409
I1389
sS'w-2=country'
p1410
I2241
sS'w+2=speak'
p1411
I1690
sS'w+2=insistent'
p1412
I1549
sS'w+2=Nangahar'
p1413
I1386
sS'w-2=farm'
p1414
I2285
sS'dep=substantially'
p1415
I397
sS'advmod=poorly'
p1416
I180
sS'w+2=emergency'
p1417
I1496
sS'w-2=chance'
p1418
I2207
sS'w+1=closer'
p1419
I997
sS'advcl=take'
p1420
I108
sS'w+2=country'
p1421
I1466
sS'w-2=today'
p1422
I2566
sS'w+1=outrage'
p1423
I1183
sS'w+1=larger'
p1424
I1136
sS'w+2=to'
p1425
I1721
sS'w+2=fly'
p1426
I1513
sS'w+2=patient'
p1427
I1629
sS'w+1=garlic'
p1428
I1088
sS'w-2=market'
p1429
I2389
sS'w-2=home'
p1430
I2331
sS'w-1=toy'
p1431
I2017
sS'w-1=its'
p1432
I1924
sS'dobj=pace'
p1433
I485
sS'w-2=approve'
p1434
I2166
sS'conj=need'
p1435
I329
sS'w-1=Darfur'
p1436
I1785
sS'nsubj=price'
p1437
I765
sS'acomp=weary'
p1438
I54
sS'w-2=light'
p1439
I2375
sS'advmod=short'
p1440
I185
sS'w+1=opposition'
p1441
I1179
sS'w+2=between'
p1442
I1438
sS'w-2=gang'
p1443
I2309
sS'w-2=fill'
p1444
I2295
sS'complm=that'
p1445
I271
sS'nsubj=scientist'
p1446
I789
sS'tmod=month'
p1447
I913
sS'advmod=faster'
p1448
I148
sS'w-1=combat'
p1449
I1854
sS"w+1=''"
p1450
I918
sS'w+2=alarm'
p1451
I1410
sS'w+2=become'
p1452
I1435
sS'w+1=stronger'
p1453
I1271
sS'dobj=pomegranate'
p1454
I492
sS'w+2=eight-point-seven'
p1455
I1494
sS'w+1=most'
p1456
I1161
sS'w-2=quest'
p1457
I2464
sS'w-2=for'
p1458
I2300
sS'w+1=they'
p1459
I1288
sS'nsubj=Israel'
p1460
I585
sS'w-2=stop'
p1461
I2530
sS'w+1=those'
p1462
I1291
sS'dobj=garlic'
p1463
I452
sS'advmod=quickly'
p1464
I181
sS'w+2=radically'
p1465
I1654
sS'prep=in'
p1466
I883
sS'conj=win'
p1467
I361
sS'w-1=about'
p1468
I1811
sS'nsubj=insurgency'
p1469
I718
sS'w+1=attack'
p1470
I965
sS'w+2=favor'
p1471
I1507
sS'w-1=community'
p1472
I1855
sS'prep=amid'
p1473
I867
sS'w+2=chinese'
p1474
I1450
sS'w+2=learning'
p1475
I1572
sS'conj=sustainable'
p1476
I354
sS'w-2=States'
p1477
I2121
sS'nsubj=sector'
p1478
I790
sS'nsubj=view'
p1479
I823
sS'w-1=at'
p1480
I1828
sS'w+2=diverse'
p1481
I1482
sS'w+1=further'
p1482
I1086
sS'w+1=racist'
p1483
I1216
sS'w-2=sentiment'
p1484
I2498
sS'w-2=combat'
p1485
I2221
sS'w-2=visit'
p1486
I2581
sS'w-2=airline'
p1487
I2152
sS'w-2=superhero'
p1488
I2538
sS'w-2=benefit'
p1489
I2184
sS'dobj=more'
p1490
I476
sS'w+1=other'
p1491
I1181
sS'w-1=it'
p1492
I1923
sS'w+1=tourism'
p1493
I1302
sS'w-2=government'
p1494
I2314
sS'w+2=percent'
p1495
I1632
sS'nsubj=reputation'
p1496
I777
sS'xcomp=produce'
p1497
I2649
sS'w+1=increasingly'
p1498
I1109
sS'w-1=in'
p1499
I1918
sS'w-2=worth'
p1500
I2609
sS'w-1=survive'
p1501
I2008
sS'w+1=we'
p1502
I1326
sS'w+1=threat'
p1503
I1292
sS'w+1=missile'
p1504
I1155
sS'w-2=Ndrangheta'
p1505
I2108
sS'xcomp=dream'
p1506
I2630
sS'nsubj=adoption'
p1507
I611
sS'w-1=society'
p1508
I1995
sS'w-1=the'
p1509
I2012
sS'w-1=hard'
p1510
I1914
sS'nsubj=violence'
p1511
I824
sS'w-1=larva'
p1512
I1930
sS'mark=if'
p1513
I545
sS'nsubj=move'
p1514
I737
sS'w+2=almost'
p1515
I1412
sS'w+2=now'
p1516
I1605
sS'advcl=rise'
p1517
I99
sS'w+2=not'
p1518
I1604
sS'w+2=Azerbaijan'
p1519
I1372
sS'w-1=orange'
p1520
I1957
sS'w-2=Rocky'
p1521
I2114
sS'w+1=among'
p1522
I948
sS'conj=distribute'
p1523
I292
sS'nsubj=revenue'
p1524
I784
sS'w-2=plant'
p1525
I2437
sS'w-1=many'
p1526
I1934
sS'dep=say'
p1527
I392
sS'w+2=Afghanistan'
p1528
I1368
sS'w-1=father'
p1529
I1894
sS'prep=by'
p1530
I876
sS'acomp=strong'
p1531
I45
sS'w+2=tension'
p1532
I1706
sS'w-2=figure'
p1533
I2294
sS'w-2=or'
p1534
I2419
sS'prep=along'
p1535
I866
sS'nsubj=who'
p1536
I831
sS'acomp=critical'
p1537
I12
sS'w-1=cell'
p1538
I1845
sS'conj=personal'
p1539
I331
sS'w-2=Sydney'
p1540
I2124
sS'w-2=senegalese'
p1541
I2497
sS'w+1=unrest'
p1542
I1312
sS'w-2=on'
p1543
I2415
sS'w-1=detailed'
p1544
I1871
sS'conj=generate'
p1545
I301
sS'acomp=higher'
p1546
I23
sS'w-2=own'
p1547
I2424
sS'nsubj=party'
p1548
I752
sS'w+2=230'
p1549
I1356
sS'prep=despite'
p1550
I878
sS'nsubj=frog'
p1551
I696
sS'w+1=domestic'
p1552
I1039
sS'w+1=danger'
p1553
I1023
sS'ccomp=contribute'
p1554
I234
sS'w-2=center'
p1555
I2204
sS'w-2=attack'
p1556
I2170
sS'advmod=however'
p1557
I157
sS'w+1=intelligence'
p1558
I1117
sS'w+1=as'
p1559
I962
sS'w-2=another'
p1560
I2159
sS'w+2=like'
p1561
I1575
sS'w+1=at'
p1562
I964
sS'dobj=momentum'
p1563
I475
sS'w+2=debate'
p1564
I1472
sS'w+1=flower'
p1565
I1076
sS'w-2=Gonzales'
p1566
I2085
sS'dobj=less'
p1567
I464
sS'w-1=accept'
p1568
I1812
sS'w-2=leave'
p1569
I2372
sS'w+2=so'
p1570
I1686
sS'conj=lose'
p1571
I322
sS'w+2=financial'
p1572
I1511
sS'w-2=dance'
p1573
I2246
sS'w-1=can'
p1574
I1841
sS'advcl=introduce'
p1575
I86
sS'w-2=produce'
p1576
I2454
sS'nsubj=power'
p1577
I762
sS'dobj=frustration'
p1578
I450
sS'w-2=product'
p1579
I2455
sS'advcl=different'
p1580
I71
sS'w+1=trend'
p1581
I1307
sS'w-1=Jacob'
p1582
I1794
sS'advmod=when'
p1583
I204
sS'w-1=demonstration'
p1584
I1869
sS'dobj=militia'
p1585
I474
sS'w-1=voice'
p1586
I2029
sS'w-2=rights'
p1587
I2487
sS'w+2=opium'
p1588
I1614
sS'w-1=demand'
p1589
I1868
sS'dobj=couple'
p1590
I431
sS'w-2=unable'
p1591
I2574
sS'w+1=alarm'
p1592
I941
sS'w+2=believe'
p1593
I1437
sS'nsubj=learning'
p1594
I729
sS'ccomp=depreciate'
p1595
I235
sS'w+2=which'
p1596
I1754
sS'w+1=resentment'
p1597
I1232
sS'auxpass=be'
p1598
I220
sS'w-1=Sarandon'
p1599
I1804
sS'w-1=who'
p1600
I2035
sS'w+1=impatient'
p1601
I1105
sS"w-1='s"
p1602
I1770
sS'w+1=retail'
p1603
I1234
sS'w+2=militarized'
p1604
I1586
sS'w+2=after'
p1605
I1406
sS'w-2=last'
p1606
I2366
sS'w-1=scrub'
p1607
I1986
sS'conj=confident'
p1608
I285
sS'advmod=still'
p1609
I192
sS'ccomp=grow'
p1610
I239
sS'nsubj=need'
p1611
I745
sS'w+1=plant'
p1612
I1192
sS'w+2=apart'
p1613
I1420
sS'w+1=there'
p1614
I1286
sS'advcl=struggle'
p1615
I107
sS'w+1=risk'
p1616
I1238
sS'w-2=expansion'
p1617
I2279
sS'nsubj=#NUMBER#'
p1618
I554
sS'w+2=substantially'
p1619
I1695
sS'w+1=confidence'
p1620
I1008
sS'w+2=thing'
p1621
I1715
sS'xcomp=listen'
p1622
I2645
sS'w+1=its'
p1623
I1132
sS'w-1=fast'
p1624
I1892
sS'advcl=sleep'
p1625
I105
sS'w+1=season'
p1626
I1243
sS'w+1=animosity'
p1627
I952
sS'dobj=what'
p1628
I536
sS"w-1=''"
p1629
I1769
sS'xcomp=work'
p1630
I2666
sS'nsubj=Fulbeck'
p1631
I578
sS'w+1=language'
p1632
I1135
sS'parataxis=warn'
p1633
I856
sS'dobj=republican'
p1634
I504
sS'w+2=enough'
p1635
I1499
sS'nsubj=fat'
p1636
I685
sS'w-2=most'
p1637
I2400
sS'conj=do'
p1638
I294
sS'w-1=tobacco'
p1639
I2016
sS'w-1=no'
p1640
I1948
sS'w+1=tree'
p1641
I1305
sS"w-2=''"
p1642
I2044
sS'nsubj=this'
p1643
I811
sS'nsubj=Korea'
p1644
I588
sS'nsubj=dependence'
p1645
I667
sS'ccomp=maximize'
p1646
I247
sS'nsubjpass=some'
p1647
I845
sS'w+2=ten'
p1648
I1705
sS'w+2=storm'
p1649
I1693
sS'dobj=consensus'
p1650
I428
sS'conj=fell'
p1651
I299
sS'conj=have'
p1652
I309
sS'w+1=poppy'
p1653
I1197
sS'w-2=Security'
p1654
I2118
sS'w+1=skeleton'
p1655
I1257
sS'w-1=phenomenon'
p1656
I1966
sS'w+2=grow'
p1657
I1525
sS'advcl=become'
p1658
I60
sS'w-2=there'
p1659
I2554
sS'nsubj=criticism'
p1660
I658
sS'nsubjpass=food'
p1661
I839
sS'nsubj=chorus'
p1662
I642
sS'dobj=tension'
p1663
I519
sS'w+2=provide'
p1664
I1649
sS'w-2=arena'
p1665
I2167
sS'w-2=malnutrition'
p1666
I2385
sS'w-2=hand'
p1667
I2320
sS'conj=fascinate'
p1668
I298
sS'w+1=desire'
p1669
I1030
sS'advmod=harder'
p1670
I152
sS'acomp=precarious'
p1671
I34
sS'w-1=evidently'
p1672
I1883
sS'w+1=extremely'
p1673
I1065
sS'advcl=have'
p1674
I82
sS'w+2=replace'
p1675
I1662
sS'xcomp=wander'
p1676
I2662
sS'w+1=city'
p1677
I994
sS'w+1=alternative'
p1678
I946
sS'w-2=media'
p1679
I2391
sS'advmod=closer'
p1680
I134
sS'w+2=overcome'
p1681
I1623
sS'w+1=interest'
p1682
I1118
sS'dobj=mango'
p1683
I468
sS'advmod=readily'
p1684
I184
sS'w+1=international'
p1685
I1119
sS'w-2=homeowner'
p1686
I2333
sS'w+1=because'
p1687
I973
sS'nsubj=support'
p1688
I805
sS'nsubj=audience'
p1689
I623
sS'ccomp=bring'
p1690
I230
sS'w+1=tiny'
p1691
I1296
sS'w-2=shoulder'
p1692
I2506
sS'w+2=90'
p1693
I1366
sS'w-1=Helmand'
p1694
I1792
sS'nsubj=network'
p1695
I746
sS'w-2=LifeSharers'
p1696
I2100
sS'w+1=fast'
p1697
I1070
sS'w+2=expand'
p1698
I1504
sS'dobj=concern'
p1699
I427
sS'acomp=hungry'
p1700
I25
sS'xcomp=fuel'
p1701
I2638
sS'conj=speak'
p1702
I349
sS'w-1=network'
p1703
I1946
sS'w+1=Sunni'
p1704
I930
sS'w+2=slowly'
p1705
I1685
sS'dobj=insecurity'
p1706
I460
sS'conj=contribute'
p1707
I286
sS'advmod=even'
p1708
I141
sS'advcl=stay'
p1709
I106
sS'w-2=settlement'
p1710
I2499
sS'w+1=corrupt'
p1711
I1017
sS'w+1=popularity'
p1712
I1199
sS'w+1=lawlessness'
p1713
I1137
sS'w-2=shrink'
p1714
I2508
sS'w-2=Arab-American'
p1715
I2065
sS'xcomp=protect'
p1716
I2650
sS'w+1=labor'
p1717
I1134
sS'w+2=care'
p1718
I1447
sS'aux=will'
p1719
I218
sS'w+2=interest'
p1720
I1554
sS'ccomp=get'
p1721
I238
sS'w-1=or'
p1722
I1956
sS'w+1=belief'
p1723
I975
sS'advcl=describe'
p1724
I69
sS'w-1=cement'
p1725
I1846
sS'conj=anything'
p1726
I276
sS'prep=with'
p1727
I898
sS'dobj=deeper'
p1728
I435
sS'w+2=adamant'
p1729
I1402
sS'w-2=hopeful'
p1730
I2335
sS'advcl=act'
p1731
I56
sS'w-2=India'
p1732
I2088
sS'w-2=demonstrate'
p1733
I2251
sS'w+2=do'
p1734
I1485
sS'w-2=Tehran'
p1735
I2126
sS'nsubj=reservation'
p1736
I781
sS'w+1=demand'
p1737
I1028
sS'conj=study'
p1738
I351
sS'nsubj=Leonard'
p1739
I591
sS'w-2=vehicle'
p1740
I2579
sS'dobj=meter'
p1741
I473
sS'w-2=mangrove'
p1742
I2387
sS'w-2=tap'
p1743
I2547
sS'w+2=stem'
p1744
I1692
sS'w+2=Kenya'
p1745
I1382
sS'w-1=after'
p1746
I1816
sS'nsubj=Burgener'
p1747
I566
sS'dobj=emission'
p1748
I441
sS'w+2=heated'
p1749
I1530
sS'conj=import'
p1750
I314
sS'acomp=intense'
p1751
I28
sS'w+1=coffee'
p1752
I1001
sS'w+1=global'
p1753
I1089
sS'w+2=value'
p1754
I1739
sS'nsubj=generation'
p1755
I702
sS'partmod=sleep'
p1756
I859
sS'nsubj=music'
p1757
I741
sS'dobj=skeleton'
p1758
I512
sS'w-2=way'
p1759
I2587
sS'w+1=drug'
p1760
I1041
sS'w-1=farm'
p1761
I1890
sS'w-2=provide'
p1762
I2461
sS'w+1=discontent'
p1763
I1033
sS'cc=and'
p1764
I221
sS'w-2=certain'
p1765
I2205
sS'w+1=grass-root'
p1766
I1091
sS'w-2=against'
p1767
I2150
sS'w+1=by'
p1768
I985
sS'w+1=economy'
p1769
I1044
sS'advcl=flock'
p1770
I79
sS'w+1=prospect'
p1771
I1209
sS'w-2=exercise'
p1772
I2278
sS'acomp=corrupt'
p1773
I11
sS'w+2=Moscow'
p1774
I1385
sS'dobj=orange'
p1775
I483
sS'w-1=home'
p1776
I1917
sS'conj=say'
p1777
I343
sS'w+1=tremendously'
p1778
I1306
sS'nsubj=pressure'
p1779
I764
sS'tmod=year'
p1780
I917
sS'w-1=female'
p1781
I1896
sS'w-2=immigrant'
p1782
I2340
sS'nsubj=statement'
p1783
I799
sS'w+1=health'
p1784
I1093
sS'dobj=reserve'
p1785
I505
sS'dobj=poppy'
p1786
I494
sS'csubj=fund'
p1787
I366
sS'w+1=into'
p1788
I1120
sS'w-1=traditionally'
p1789
I2019
sS'advcl=approach'
p1790
I57
sS'w-2=impunity'
p1791
I2341
sS'w-2=race'
p1792
I2465
sS'w+1=weary'
p1793
I1328
sS'w-2=child'
p1794
I2208
sS'xcomp=contain'
p1795
I2625
sS'dobj=prosperity'
p1796
I498
sS'w+1=israeli'
p1797
I1129
sS'aux=could'
p1798
I210
sS'w-2=tackle'
p1799
I2544
sS'w-2=find'
p1800
I2297
sS'w+1=anywhere'
p1801
I957
sS'w-2=worldwide'
p1802
I2607
sS'w+1=lax'
p1803
I1138
sS'w+2=War'
p1804
I1391
sS'w+1=conflict'
p1805
I1009
sS'dep=if'
p1806
I383
sS'nsubj=debt'
p1807
I663
sS'w-2=forecast'
p1808
I2302
sS'w-2=these'
p1809
I2555
sS'w+1=source'
p1810
I1264
sS'w+2=China'
p1811
I1375
sS'w+2=concern'
p1812
I1458
sS'nsubj=international'
p1813
I720
sS'xcomp=be'
p1814
I2620
sS'nsubj=program'
p1815
I769
sS'dobj=past'
p1816
I486
sS'w+1=worse'
p1817
I1338
sS'prep=of'
p1818
I888
sS'w-2=lead'
p1819
I2369
sS'w-1=have'
p1820
I1915
sS'prep=on'
p1821
I889
sS'w+1=deficit'
p1822
I1026
sS'w+1=proximity'
p1823
I1212
sS'dobj=tree'
p1824
I526
sS'w-2=head'
p1825
I2325
sS'w+1=impact'
p1826
I1103
sS'w-2=Aquaponic'
p1827
I2064
sS'w-2=persuade'
p1828
I2433
sS'w-2=company'
p1829
I2226
sS'advmod=nationwide'
p1830
I170
sS'nsubj=size'
p1831
I796
sS'w-1=outsmart'
p1832
I1958
sS'w+2=consumption'
p1833
I1461
sS'w-2=supplier'
p1834
I2541
sS'w+2=nationwide'
p1835
I1594
sS'nsubj=citizen'
p1836
I644
sS'xcomp=feed'
p1837
I2636
sS'nsubj=extremist'
p1838
I682
sS'w+2=than'
p1839
I1709
sS'w-2=talk'
p1840
I2546
sS'w+1=without'
p1841
I1334
sS'tmod=home'
p1842
I911
sS'w+2=that'
p1843
I1710
sS'w+1=network'
p1844
I1168
sS'w+1=beard'
p1845
I972
sS'w-2=resentment'
p1846
I2484
sS'w+2=and'
p1847
I1415
sS'dep=revive'
p1848
I391
sS'w-1=child'
p1849
I1848
sS'nsubj=interest'
p1850
I719
sS'w+2=despite'
p1851
I1476
sS'w-1=cane'
p1852
I1843
sS'w-1=stop'
p1853
I2003
sS'w-2=affect'
p1854
I2147
sS'w-1=express'
p1855
I1887
sS'w+2=rivalry'
p1856
I1670
sS'advcl=say'
p1857
I100
sS'w-1=of'
p1858
I1952
sS'w-1=again'
p1859
I1817
sS'w+2=200,000'
p1860
I1355
sS'conj=go'
p1861
I303
sS'w-1=on'
p1862
I1953
sS'dobj=highest'
p1863
I455
sS'w+1=thin'
p1864
I1289
sS'w+1=exclusively'
p1865
I1060
sS'w-2=hope'
p1866
I2334
sS'nsubj=impunity'
p1867
I713
sS'w-2=mosquito'
p1868
I2399
sS'nsubj=share'
p1869
I792
sS'w+1=this'
p1870
I1290
sS'w+1=imbalance'
p1871
I1102
sS'w-1=Burgener'
p1872
I1781
sS'w-2=clear'
p1873
I2215
sS'advmod=obviously'
p1874
I172
sS'acomp=rich'
p1875
I39
sS'w+2=80'
p1876
I1364
sS'w-1=plant'
p1877
I1967
sS'w-1=rice'
p1878
I1983
sS'w-1=Violao'
p1879
I1807
sS'w+1=grain'
p1880
I1090
sS'advmod=now'
p1881
I171
sS'dobj=disparity'
p1882
I436
sS'w+2=investment'
p1883
I1557
sS'prep=across'
p1884
I863
sS'w+2=into'
p1885
I1555
sS'w+2=100'
p1886
I1350
sS'w-2=will'
p1887
I2601
sS'w-2=coincide'
p1888
I2219
sS'w-2=anxious'
p1889
I2161
sS'dobj=rate'
p1890
I500
sS'nsubj=Norton'
p1891
I598
sS'prep=among'
p1892
I868
sS'w-2=not'
p1893
I2410
sS'w-2=now'
p1894
I2411
sS'w-2=while'
p1895
I2596
sS'nsubj=resolution'
p1896
I783
sS'dep=surround'
p1897
I398
sS'w+1=poverty'
p1898
I1202
sS'nsubj=Guard'
p1899
I582
sS'w-2=man'
p1900
I2386
sS'nsubj=#DATE#'
p1901
I553
sS'w-1=also'
p1902
I1822
sS'nsubj=side'
p1903
I794
sS'w+2=uneducated'
p1904
I1736
sS'nsubj=Palestinians'
p1905
I599
sS'w+1=world'
p1906
I1336
sS'w-1=power'
p1907
I1970
sS'nsubj=name'
p1908
I743
sS'acomp=big'
p1909
I6
sS'w+2=no'
p1910
I1602
sS'w+1=insurgency'
p1911
I1116
sS'w+1=popular'
p1912
I1198
sS'w+1=better'
p1913
I976
sS'w-2=witness'
p1914
I2604
sS'conj=add'
p1915
I274
sS'w+2=influence'
p1916
I1547
sS'w+2=much'
p1917
I1592
sS'aux=must'
p1918
I215
sS'dobj=time'
p1919
I523
sS'ccomp=consider'
p1920
I233
sS'nsubj=malnutrition'
p1921
I731
sS'w-2=Israel'
p1922
I2093
sS'nsubj=instability'
p1923
I717
sS'w-2=province'
p1924
I2462
sS'nsubjpass=Tea'
p1925
I838
sS'dep=want'
p1926
I401
sS'w+2=along'
p1927
I1413
sS'w-1=experience'
p1928
I1884
sS'w-2=Bush'
p1929
I2074
sS'w+2=there'
p1930
I1713
sS'nsubj=economy'
p1931
I676
sS'acomp=epidemic'
p1932
I18
sS'w+2=zinc'
p1933
I1766
sS'w+2=strength'
p1934
I1694
sS'dobj=criticism'
p1935
I432
sS'conj=governor'
p1936
I304
sS'nsubj=disparity'
p1937
I673
sS'w+2=singing'
p1938
I1684
sS'nsubj=public'
p1939
I772
sS'complm=whether'
p1940
I272
sS'w+2=couple'
p1941
I1467
sS'w-1=vehicle'
p1942
I2026
sS'w-2=welcome'
p1943
I2591
sS'w+1=wave'
p1944
I1324
sS'w-1=must'
p1945
I1943
sS'w-1=12-year-old'
p1946
I1773
sS'w+1=militant'
p1947
I1154
sS'w-1=tree'
p1948
I2020
sS'w+2=have'
p1949
I1527
sS'w-2=insurgency'
p1950
I2350
sS'w-1=sustainably'
p1951
I2009
sS'w+2=without'
p1952
I1760
sS'w+2=relation'
p1953
I1660
sS'w-1=face'
p1954
I1888
sS'w-2=root'
p1955
I2489
sS'w-2=consume'
p1956
I2230
sS'w-2=Rob'
p1957
I2113
sS'dobj=coffee'
p1958
I426
sS'w-1=government'
p1959
I1911
sS'nsubj=army'
p1960
I618
sS'w+1=eight'
p1961
I1046
sS'w+1=export'
p1962
I1063
sS'conj=concern'
p1963
I284
sS'w+2=within'
p1964
I1759
sS'acomp=heated'
p1965
I22
sS'w-1=boy'
p1966
I1835
sS'w-2=activity'
p1967
I2142
sS'w+2=republican'
p1968
I1664
sS'aux=to'
p1969
I217
sS'ccomp=fear'
p1970
I237
sS'w+1=toll'
p1971
I1300
sS'w+2=hostile'
p1972
I1534
sS'w+2=energy'
p1973
I1498
sS'advcl=increase'
p1974
I84
sS'w+2=income'
p1975
I1543
sS'dobj=market'
p1976
I469
sS'w+2=pessimism'
p1977
I1634
sS'nsubj=daughter'
p1978
I661
sS'w-1=for'
p1979
I1900
sS'w+2=conservative'
p1980
I1460
sS'dobj=relationship'
p1981
I503
sS'nsubj=father'
p1982
I686
sS'advmod=perhaps'
p1983
I179
sS'w+2=most'
p1984
I1590
sS'w+1=human'
p1985
I1099
sS'dobj=impatient'
p1986
I456
sS'w+2=about'
p1987
I1396
sS'w-2=farmer'
p1988
I2286
sS'prep=during'
p1989
I879
sS'w-2=-'
p1990
I2047
sS'w-2=Palestinians'
p1991
I2110
sS'w+2=per'
p1992
I1631
sS'w+1=higher'
p1993
I1097
sS'w-2=father'
p1994
I2287
sS'w+1=ethnic'
p1995
I1055
sS'w+2=produce'
p1996
I1645
sS'w-1=not'
p1997
I1949
sS'w-1=begin'
p1998
I1832
sS'w+1=friendship'
p1999
I1082
sS'w-2=difficult'
p2000
I2255
sS'ccomp=see'
p2001
I255
sS'w-2=counter'
p2002
I2240
sS'w-2=force'
p2003
I2301
sS'aux=be'
p2004
I208
sS'w+2=precarious'
p2005
I1641
sS"w-2='s"
p2006
I2045
sS'ccomp=set'
p2007
I258
sS'w-1=fuel'
p2008
I1904
sS'prep=before'
p2009
I873
sS'nsubj=France'
p2010
I577
sS'w+1=scarce'
p2011
I1241
sS'w-1=effort'
p2012
I1880
sS'nsubj=tree'
p2013
I818
sS'nsubj=risk'
p2014
I787
sS'w+2=industry'
p2015
I1546
sS'acomp=serious'
p2016
I41
sS'w+1=farther'
p2017
I1069
sS'advmod=dramatically'
p2018
I137
sS'w-2=organization'
p2019
I2421
sS'w-2=research'
p2020
I2482
sS'advcl=ready'
p2021
I96
sS'dobj=anything'
p2022
I411
sS'w+2=Europe'
p2023
I1378
sS'w-2=acknowledge'
p2024
I2139
sS'w-2=Hampshire'
p2025
I2086
sS'w-2=house'
p2026
I2336
sS'w+2=number'
p2027
I1606
sS'mark=like'
p2028
I546
sS'advmod=well'
p2029
I203
sS'nsubj=al-qaida'
p2030
I614
sS'w+1=likelihood'
p2031
I1141
sS'w-1=cotton'
p2032
I1861
sS'w+1=diplomatic'
p2033
I1032
sS'w-2=overshadow'
p2034
I2423
sS'w-2=just'
p2035
I2358
sS'dobj=training'
p2036
I525
sS'nsubj=Gates'
p2037
I580
sS'conj=demand'
p2038
I289
sS'w-2=they'
p2039
I2557
sS'prep=than'
p2040
I893
sS'dobj=country'
p2041
I430
sS'w-2=generation'
p2042
I2310
sS'w+2=landscape'
p2043
I1568
sS'prep=between'
p2044
I874
sS'w-1=,'
p2045
I1771
sS'w+1=old'
p2046
I1174
sS'w-2=organism'
p2047
I2420
sS'nsubj=government'
p2048
I704
sS'nsubj=concern'
p2049
I650
sS'w-2=food'
p2050
I2299
sS'nsubj=larva'
p2051
I726
sS'w-1=Fulbeck'
p2052
I1789
sS'conj=stimulate'
p2053
I350
sS'w+2=particularly'
p2054
I1627
sS'nsubj=use'
p2055
I822
sS'dobj=increase'
p2056
I457
sS'w+2=across'
p2057
I1400
sS'nsubj=murderer'
p2058
I740
sS'w+1=realization'
p2059
I1222
sS'w-2=enhance'
p2060
I2271
sS'prep=follow'
p2061
I880
sS'w+1=beyond'
p2062
I978
sS'w+2=population'
p2063
I1639
sS'nsubj=cost'
p2064
I655
sS'w+2=tree'
p2065
I1730
sS'w-2=``'
p2066
I2135
sS'w-2=I'
p2067
I2087
sS'w-1=relationship'
p2068
I1980
sS'w-2=campaign'
p2069
I2199
sS'nsubj=Jacob'
p2070
I586
sS'nsubj=protest'
p2071
I771
sS'w-1=by'
p2072
I1839
sS'w-2=describe'
p2073
I2252
sS'w-1=be'
p2074
I1831
sS'w+1=clout'
p2075
I998
sS"nsubj='s"
p2076
I556
sS'w+1=pain'
p2077
I1185
sS'w-1=readily'
p2078
I1978
sS'advcl=free'
p2079
I80
sS'nsubj=class'
p2080
I648
sS'w-2=era'
p2081
I2274
sS'w+2=sell'
p2082
I1676
sS'advcl=dismiss'
p2083
I72
sS'w+1=hispanic'
p2084
I1098
sS'w-2=risk'
p2085
I2488
sS'nsubj=clash'
p2086
I647
sS'mark=because'
p2087
I543
sS'aux=might'
p2088
I214
sS'conj=shadow'
p2089
I348
sS'dobj=price'
p2090
I496
sS'w-2=anger'
p2091
I2158
sS'conj=want'
p2092
I360
sS'w+2=intense'
p2093
I1552
sS'w-1=Matisyahu'
p2094
I1798
sS'w-2=preserve'
p2095
I2449
sS'nsubj=practice'
p2096
I763
sS'w+2=anywhere'
p2097
I1419
sS'dep=though'
p2098
I400
sS'w+2=what'
p2099
I1751
sS'w+2=agricultural'
p2100
I1408
sS'xcomp=see'
p2101
I2655
sS'w-2=raise'
p2102
I2467
sS'conj=land'
p2103
I317
sS'advmod=once'
p2104
I175
sS'w-1=which'
p2105
I2033
sS'w+1=nuclear'
p2106
I1169
sS'w-2=population'
p2107
I2445
sS'w-2=Britain'
p2108
I2073
sS'w+2=near'
p2109
I1596
sS'w+1=slowly'
p2110
I1260
sS'conj=meager'
p2111
I325
sS'acomp=quiet'
p2112
I37
sS'nsubj=demand'
p2113
I665
sS'w-2=effort'
p2114
I2264
sS'w-1=only'
p2115
I1955
sS'w+2=by'
p2116
I1444
sS'xcomp=#PRP#'
p2117
I2615
sS'nsubj=amount'
p2118
I615
sS'w+2=be'
p2119
I1431
sS'rcmod=valuable'
p2120
I905
sS'w-1=East'
p2121
I1788
sS'nsubjpass=#PRP#'
p2122
I836
sS'w-1=mostly'
p2123
I1941
sS'advmod=too'
p2124
I198
sS'w-1=population'
p2125
I1969
sS'aux=would'
p2126
I219
sS'acomp=old'
p2127
I32
sS'dobj=evidence'
p2128
I445
sS'dobj=thing'
p2129
I521
sS'w-1=nanowire'
p2130
I1944
sS'w-2=poll'
p2131
I2441
sS'nsubj=settlement'
p2132
I791
sS'w+2=relationship'
p2133
I1661
sS'w+2=Pakistan'
p2134
I1387
sS'w-2=a'
p2135
I2136
sS'w-1=problem'
p2136
I1973
sS'nsubj=supplier'
p2137
I804
sS'w-2=Korea'
p2138
I2097
sS'advmod=fast'
p2139
I147
sS'advmod=ago'
p2140
I117
sS'xcomp=improve'
p2141
I2641
sS'w+1=and'
p2142
I949
sS'w+2=upheaval'
p2143
I1738
sS'w-1=Walsh'
p2144
I1808
sS'dep=without'
p2145
I404
sS'w-2=elite'
p2146
I2268
sS'w+2=succeed'
p2147
I1696
sS'w-2=Abbey'
p2148
I2053
sS'w-1=Balog'
p2149
I1779
sS'nsubj=product'
p2150
I767
sS'conj=break'
p2151
I279
sS'w+1=issue'
p2152
I1130
sS'xcomp=wipe'
p2153
I2664
sS'prt=up'
p2154
I902
sS'w+2=down'
p2155
I1486
sS'w+2=this'
p2156
I1716
sS'w-2=tree'
p2157
I2570
sS'w-2=Americans'
p2158
I2061
sS'w+2=capability'
p2159
I1446
sS'w+1=catholic'
p2160
I989
sS'advmod=together'
p2161
I197
sS'w-1=say'
p2162
I1985
sS'w-2=target'
p2163
I2548
sS'acomp=restless'
p2164
I38
sS'parataxis=add'
p2165
I847
sS'dep=involve'
p2166
I384
sS'advcl=lose'
p2167
I90
sS'w-2=project'
p2168
I2460
sS'nsubj=disillusionment'
p2169
I672
sS'advcl=lack'
p2170
I87
sS'nsubj=chance'
p2171
I639
sS'nsubj=resistance'
p2172
I782
sS'w-1=allay'
p2173
I1821
sS'w-2=you'
p2174
I2612
sS'dobj=city'
p2175
I424
sS'nsubj=Aquaponic'
p2176
I562
sS'ccomp=want'
p2177
I268
sS'w-2=particularly'
p2178
I2427
sS'w+1=rift'
p2179
I1237
sS'w-2=so'
p2180
I2518
sS'w+1=mistrust'
p2181
I1156
sS'conj=threaten'
p2182
I358
sS'nsubj=Kony'
p2183
I587
sS'w-2=use'
p2184
I2578
sS'w-2=age'
p2185
I2151
sS'w-2=Salisbury'
p2186
I2117
sS'w+2=organism'
p2187
I1618
sS'w-1=world'
p2188
I2038
sS'w+2=increasingly'
p2189
I1544
sS'w-2=college'
p2190
I2220
sS'w-2=show'
p2191
I2507
sS'w-2=shop'
p2192
I2504
sS'w-1=family'
p2193
I1889
sS'w-1=fighter'
p2194
I1897
sS'w+2=for'
p2195
I1516
sS'nsubj=Daniels'
p2196
I570
sS'w-2=Johari'
p2197
I2094
sS'w-2=elderly'
p2198
I2265
sS'w-2=production'
p2199
I2456
sS'w+2=more'
p2200
I1589
sS'w+2=harvest'
p2201
I1526
sS'w+2=Mexico'
p2202
I1384
sS'nsubj=clamor'
p2203
I646
sS'w-2=which'
p2204
I2595
sS'w-1=meet'
p2205
I1938
sS'nsubj=flow'
p2206
I694
sS'acomp=shabby'
p2207
I43
sS'w+1=presence'
p2208
I1204
sS'nsubj=land'
p2209
I725
sS'w-2=advertising'
p2210
I2146
sS'w+1=region'
p2211
I1225
sS'nsubj=crop'
p2212
I659
sS'w-2=week'
p2213
I2590
sS'dep=estimate'
p2214
I377
sS'dep=because'
p2215
I374
sS'dep=able'
p2216
I370
sS'w-2=develop'
p2217
I2254
sS'prep=throughout'
p2218
I895
sS'nsubj=hunger'
p2219
I712
sS'w+2=against'
p2220
I1407
sS'nsubj=airline'
p2221
I613
sS'w+2=today'
p2222
I1722
sS'dobj=poor'
p2223
I493
sS'ccomp=launch'
p2224
I245
sS'w+1=nearly'
p2225
I1166
sS'dobj=turmoil'
p2226
I528
sS'ccomp=worse'
p2227
I270
sS'w-1=country'
p2228
I1863
sS'w-1=sector'
p2229
I1987
sS'advmod=traditionally'
p2230
I199
sS'w-2=military'
p2231
I2395
sS'w-2=as'
p2232
I2168
sS'w-1=living'
p2233
I1932
sS'w-2=integrate'
p2234
I2351
sS'tmod=today'
p2235
I915
sS'w-1=calm'
p2236
I1840
sS'w-1=building'
p2237
I1836
sS'w-2=Union'
p2238
I2130
sS'acomp=frosty'
p2239
I20
sS'advmod=ever'
p2240
I142
sS'w-2=small'
p2241
I2516
sS'w+2=1,000'
p2242
I1345
sS'w+2=fertilizer'
p2243
I1508
sS'dep=mean'
p2244
I387
sS'w-2=weave'
p2245
I2589
sS'w+1=prosperity'
p2246
I1210
sS'prep=for'
p2247
I881
sS'nsubj=force'
p2248
I695
sS'w+1=iranian'
p2249
I1123
sS'dobj=awareness'
p2250
I415
sS'w-2=smaller'
p2251
I2517
sS'nsubj=Bush'
p2252
I567
sS'w+2=at'
p2253
I1426
sS'conj=life'
p2254
I320
sS'advcl=want'
p2255
I112
sS'nsubj=media'
p2256
I734
sS'w+2=as'
p2257
I1424
sS'w-2=Asia'
p2258
I2067
sS'dep=make'
p2259
I386
sS'w+2=include'
p2260
I1542
sS'w-1=once'
p2261
I1954
sS'w-2=appear'
p2262
I2164
sS'advcl=threaten'
p2263
I109
sS'w-2=profit'
p2264
I2458
sS'w+2=could'
p2265
I1465
sS'dobj=all'
p2266
I410
sS'advmod=louder'
p2267
I163
sS'advmod=long'
p2268
I162
sS'w+2=obstacle'
p2269
I1607
sS'dobj=nastier'
p2270
I478
sS'w+1=list'
p2271
I1142
sS'w-2=basis'
p2272
I2177
sS'advmod=much'
p2273
I169
sS'dobj=generation'
p2274
I453
sS'conj=switch'
p2275
I355
sS'w-2=reform'
p2276
I2473
sS'w+2=Zogby'
p2277
I1394
sS'w-1=farmer'
p2278
I1891
sS'w-2=single'
p2279
I2512
sS'w+2=she'
p2280
I1681
sS'w+1=concerned'
p2281
I1007
sS'w+1=back'
p2282
I971
sS'w+2=Democratic'
p2283
I1377
sS'advmod=evidently'
p2284
I143
sS'w+2=with'
p2285
I1758
sS'w+2=metastasize'
p2286
I1585
sS'w+1=tension'
p2287
I1282
sS'conj=approve'
p2288
I277
sS'w+1=competence'
p2289
I1005
sS'w+1=illicit'
p2290
I1101
sS'w-1=shorter'
p2291
I1990
sS'w+1=locally'
p2292
I1145
sS'advcl=continue'
p2293
I67
sS'w+2=role'
p2294
I1671
sS'xcomp=average'
p2295
I2619
sS'advcl=pass'
p2296
I94
sS'xcomp=restaurant'
p2297
I2652
sS'w-2=soil'
p2298
I2519
sS'w+2=put'
p2299
I1652
sS'w+2=affair'
p2300
I1405
sS'w-2=know'
p2301
I2361
sS'w-2=month'
p2302
I2397
sS'nsubj=Matisyahu'
p2303
I592
sS'w+2=or'
p2304
I1616
sS'acomp=aware'
p2305
I5
sS'w-1=show'
p2306
I1991
sS'xcomp=cover'
p2307
I2627
sS'nsubj=rift'
p2308
I786
sS'w+2=of'
p2309
I1608
sS'w+2=esoteric'
p2310
I1500
sS'w-2=Eastern'
p2311
I2081
sS'w+2=market'
p2312
I1582
sS'advmod=sometimes'
p2313
I189
sS'w+2=outside'
p2314
I1621
sS'w+2=on'
p2315
I1611
sS'w-2=forward'
p2316
I2303
sS'w+2=average'
p2317
I1428
sS'w-2=US'
p2318
I2128
sS'w-2=Koreans'
p2319
I2098
sS'w+1=so'
p2320
I1262
sS'prep=into'
p2321
I885
sS'w-2=control'
p2322
I2235
sS'w+2=turmoil'
p2323
I1733
sS'acomp=conservative'
p2324
I10
sS'nsubj=musician'
p2325
I742
sS'nsubj=population'
p2326
I760
sS'w+2=just'
p2327
I1564
sS'w+1=number'
p2328
I1171
sS'w-1=while'
p2329
I2034
sS'prep=without'
p2330
I900
sS'w+1=attention'
p2331
I966
sS'xcomp=believe'
p2332
I2621
sS'w+2=from'
p2333
I1518
sS'w+2=two'
p2334
I1734
sS'nsubj=gap'
p2335
I700
sS'w+1=pomegranate'
p2336
I1195
sS'w+1=healthily'
p2337
I1095
sS'w-2=language'
p2338
I2363
sS'w-2=regular'
p2339
I2476
sS'advmod=often'
p2340
I174
sS'dobj=variety'
p2341
I532
sS'w-1=kid'
p2342
I1927
sS'w+2=multi-faceted'
p2343
I1593
sS'w+1=angry'
p2344
I951
sS'w+2=concerned'
p2345
I1459
sS'ccomp=need'
p2346
I248
sS'purpcl=offset'
p2347
I903
sS'w-1=cancer'
p2348
I1842
sS'w+1=over'
p2349
I1184
sS'w-2=into'
p2350
I2354
sS'dobj=cloud'
p2351
I425
sS'w+2=leap'
p2352
I1571
sS'w-2=Iran'
p2353
I2090
sS'w+2=plant'
p2354
I1635
sS'w+2=supply'
p2355
I1698
sS'w-2=Joplin'
p2356
I2095
sS'conj=defeat'
p2357
I288
sS'nsubj=grandparent'
p2358
I705
sS'dobj=tie'
p2359
I522
sS'nsubj=challenge'
p2360
I638
sS'w-2=space'
p2361
I2523
sS'w-2=split'
p2362
I2524
sS'w+2=ahead'
p2363
I1409
sS'nsubj=feeling'
p2364
I688
sS'w+2=sometimes'
p2365
I1689
sS'w-2=audience'
p2366
I2171
sS'acomp=thin'
p2367
I47
sS'w+1=gap'
p2368
I1087
sS'dobj=enough'
p2369
I443
sS'conj=risk'
p2370
I342
sS'aux=do'
p2371
I211
sS'w-2=problem'
p2372
I2453
sS'dobj=produce'
p2373
I497
sS'w+1=fame'
p2374
I1067
sS'w-2=public'
p2375
I2463
sS'nsubj=television'
p2376
I808
sS'w+2=voter'
p2377
I1745
sS'advcl=consume'
p2378
I66
sS'w+2=rule'
p2379
I1672
sS'w+2=emotional'
p2380
I1497
sS'expl=there'
p2381
I539
sS'nsubj=hiv'
p2382
I710
sS'w+1=recognition'
p2383
I1224
sS'w+2=another'
p2384
I1417
sS'nsubj=people'
p2385
I753
sS'w+2=gap'
p2386
I1522
sS'w-1=even'
p2387
I1881
sS'w-2=fruit'
p2388
I2306
sS'w-1=number'
p2389
I1951
sS'conj=pollute'
p2390
I333
sS'w+1=mango'
p2391
I1150
sS'advcl=complete'
p2392
I64
sS'w+2=people'
p2393
I1630
sS'w+1=discord'
p2394
I1034
sS'w+2=shallow'
p2395
I1680
sS'w+1=rumor'
p2396
I1239
sS'w-1=split'
p2397
I1998
sS'w-2=nation'
p2398
I2407
sS'w-1=domestic'
p2399
I1875
sS'w-2=personal'
p2400
I2432
sS'w+2=marginal'
p2401
I1581
sS'w+1=foreign'
p2402
I1081
sS'w-2=television'
p2403
I2549
sS'w+1=inequality'
p2404
I1112
sS'w+1=phenomenon'
p2405
I1190
sS'prep=from'
p2406
I882
sS'w+1=significantly'
p2407
I1254
sS'w+2=violence'
p2408
I1743
sS'w-2=sharp'
p2409
I2501
sS'w+1=despite'
p2410
I1031
sS'prep=accord'
p2411
I862
sS'xcomp=army'
p2412
I2618
sS'advcl=young'
p2413
I114
sS"w+2=''"
p2414
I1340
sS'nsubj=country'
p2415
I656
sS'w-1=this'
p2416
I2014
sS'w+1=significance'
p2417
I1253
sS'w-2=Brazil'
p2418
I2071
sS'w-2=end'
p2419
I2269
sS'w+1=tired'
p2420
I1297
sS'w+1=even'
p2421
I1056
sS'nsubj=Sarandon'
p2422
I602
sS'w-2=program'
p2423
I2459
sS'w+2=threat'
p2424
I1717
sS'w-2=Afghan'
p2425
I2054
sS'w+1=ever'
p2426
I1057
sS'w+2=crisis'
p2427
I1469
sS'w+1=islamist-led'
p2428
I1127
sS'w+1=e-waste'
p2429
I1042
sS'w+1=enormously'
p2430
I1052
sS'w+1=company'
p2431
I1004
sS'nsubj=Yuan'
p2432
I608
sS'prep=under'
p2433
I897
sS'w+1=also'
p2434
I945
sS'w-1=bird'
p2435
I1834
sS'w-1=Baghdad'
p2436
I1778
sS'acomp=silent'
p2437
I44
sS'w-2=summit'
p2438
I2536
sS'w-1=but'
p2439
I1838
sS'w-2=bridge'
p2440
I2191
sS'w-2=Mendes'
p2441
I2101
sS'w-2=face'
p2442
I2282
sS'advcl=flee'
p2443
I78
sS'dobj=crop'
p2444
I433
sS'mark=until'
p2445
I548
sS'advmod=down'
p2446
I136
sS'w+2=waste'
p2447
I1746
sS'w-2=latest'
p2448
I2367
sS'w-1=export'
p2449
I1885
sS'partmod=start'
p2450
I860
sS'nsubj=kind'
p2451
I724
sS'advcl=find'
p2452
I77
sS'nsubjpass=movement'
p2453
I840
sS'nsubj=crisis'
p2454
I657
sS'conj=leave'
p2455
I319
sS'conj=prosper'
p2456
I335
sS'w-1=frustration'
p2457
I1903
sS'w+2=past'
p2458
I1628
sS'w+1=against'
p2459
I939
sS'rel=in'
p2460
I907
sS'w+2=class'
p2461
I1451
sS'w-1=Davis'
p2462
I1786
sS'w-2=anticipation'
p2463
I2160
sS'dep=much'
p2464
I388
sS'advmod=aggressively'
p2465
I116
sS'w-2=homeless'
p2466
I2332
sS'w+2=Africa'
p2467
I1369
sS'w-2=oil'
p2468
I2414
sS'w-1=Ashley'
p2469
I1777
sS'w+2=pump'
p2470
I1650
sS'advmod=again'
p2471
I115
sS'w-2=anybody'
p2472
I2163
sS'w+1=fear'
p2473
I1073
sS'advmod=back'
p2474
I129
sS'conj=get'
p2475
I302
sS'w-2=Africans'
p2476
I2057
sS'w+1=skill'
p2477
I1258
sS'w-1=might'
p2478
I1939
sS'w+1=reserve'
p2479
I1233
sS'w-2=aboriginal'
p2480
I2137
sS'nsubj=market'
p2481
I733
sS'w-2=be'
p2482
I2179
sS'w+2=global'
p2483
I1523
sS'conj=know'
p2484
I316
sS'w+1=report'
p2485
I1230
sS'w+2=seven'
p2486
I1678
sS'w-2=awarenessAnnie'
p2487
I2173
sS'w+1=three'
p2488
I1293
sS'nsubj=arrival'
p2489
I619
sS'xcomp=normalize'
p2490
I2648
sS'w+1=opportunity'
p2491
I1178
sS'w-1=Afghanistan'
p2492
I1775
sS'w-2=part'
p2493
I2426
sS'acomp=anxious'
p2494
I4
sS'w-1=development'
p2495
I1872
sS'advcl=begin'
p2496
I61
sS'w-2=Gallery'
p2497
I2083
sS'dep=hear'
p2498
I380
sS'w-2=see'
p2499
I2495
sS'w-2=prime'
p2500
I2452
sS'nsubj=tension'
p2501
I809
sS'w+1=nastier'
p2502
I1164
sS'w-2=action'
p2503
I2140
sS'w-1=under'
p2504
I2023
sS'w+1=rate'
p2505
I1220
sS'xcomp=enter'
p2506
I2632
sS'w+1=all'
p2507
I943
sS'w+2=400'
p2508
I1360
sS'w+1=displacement'
p2509
I1036
sS'w-2=Lesar'
p2510
I2099
sS'conj=raise'
p2511
I337
sS'nsubj=between'
p2512
I626
sS'w-2=economy'
p2513
I2263
sS'w-2=battle'
p2514
I2178
sS'advcl=intensify'
p2515
I85
sS'w+2=.'
p2516
I1344
sS'w+2=division'
p2517
I1484
sS'w-2=want'
p2518
I2584
sS'w+2=illumination'
p2519
I1537
sS'conj=see'
p2520
I345
sS'acomp=desperate'
p2521
I13
sS'w+2=inside'
p2522
I1548
sS'w-2=coalition'
p2523
I2217
sS'w-2=indicate'
p2524
I2345
sS'w-2=Sunai'
p2525
I2122
sS'w-2=influence'
p2526
I2349
sS'dobj=expectation'
p2527
I446
sS'nsubj=Americans'
p2528
I561
sS'tmod=#DATE#'
p2529
I909
sS'w+1=club'
p2530
I999
sS'w+2=member'
p2531
I1584
sS'nsubj=problem'
p2532
I766
sS'ccomp=cause'
p2533
I231
sS'ccomp=take'
p2534
I262
sS'w-2=Gaza'
p2535
I2084
sS'cop=be'
p2536
I363
sS'w+1=relationship'
p2537
I1227
sS'w+2=abundance'
p2538
I1397
sS'w-2=Southwest'
p2539
I2120
sS'dep=difficult'
p2540
I376
sS'nsubj=America'
p2541
I560
sS'dobj=activism'
p2542
I409
sS'conj=succeed'
p2543
I352
sS'w-2=warn'
p2544
I2585
sS'w-2=say'
p2545
I2490
sS'w-2=grandparent'
p2546
I2315
sS'w+2=the'
p2547
I1711
sS'prep=at'
p2548
I871
sS'xcomp=resolve'
p2549
I2651
sS'prep=as'
p2550
I870
sS'w-2=buy'
p2551
I2195
sS'nsubj=Smee'
p2552
I603
sS'w+1=virtually'
p2553
I1321
sS'dobj=older'
p2554
I480
sS'w-2=habit'
p2555
I2318
sS'nsubj=Afghanistan'
p2556
I558
sS'w-2=but'
p2557
I2194
sS"w-1='"
p2558
I1768
sS'w-1=.'
p2559
I1772
sS'w-2=morning'
p2560
I2398
sS'conj=build'
p2561
I281
sS'w+2=overweight'
p2562
I1625
sS'w+1=every'
p2563
I1058
sS'w-2=real'
p2564
I2468
sS'nsubj=budget'
p2565
I628
sS'csubj=concern'
p2566
I365
sS'w+1=tendency'
p2567
I1280
sS'dobj=maize'
p2568
I466
sS'conj=die'
p2569
I291
sS'prep=through'
p2570
I894
sS'w+2=one'
p2571
I1613
sS'w+1=security'
p2572
I1245
sS'w-1=I'
p2573
I1793
sS'w-2=meet'
p2574
I2392
sS'advcl=conducive'
p2575
I65
sS'w-2=multiply'
p2576
I2403
sS'w-2=client'
p2577
I2216
sS'w-2=behind'
p2578
I2182
sS'dep=accept'
p2579
I371
sS'w+2=such'
p2580
I1697
sS'w-1=a'
p2581
I1810
sS'conj=idea'
p2582
I312
sS'advmod=authentically'
p2583
I128
sS'nsubj=fighter'
p2584
I692
sS'acomp=detailed'
p2585
I14
sS'w+2=work'
p2586
I1761
sS'w+1=concern'
p2587
I1006
sS'nsubj=city'
p2588
I645
sS'conj=receive'
p2589
I339
sS'mark=as'
p2590
I542
sS'w+1=economic'
p2591
I1043
sS'xcomp=catch'
p2592
I2622
sS'w-2=situation'
p2593
I2514
sS'dobj=rice'
p2594
I506
sS'w-2=Bamboo'
p2595
I2069
sS'dobj=opium'
p2596
I481
sS'w+2=they'
p2597
I1714
sS'w+1=rapidly'
p2598
I1219
sS'nsubj=status'
p2599
I801
sS'nsubj=anticipation'
p2600
I616
sS'mark=with'
p2601
I550
sS'nsubj=opposition'
p2602
I749
sS'nsubj=hand'
p2603
I709
sS'w-2=breadfruit'
p2604
I2189
sS'w+2=watch'
p2605
I1747
sS'w+2=then'
p2606
I1712
sS'w-2=year'
p2607
I2611
sS'w+1=consumerism'
p2608
I1014
sS'w+2=faster'
p2609
I1506
sS'w+1=peanut'
p2610
I1187
sS'w+1=smaller'
p2611
I1261
sS'w-2=both'
p2612
I2188
sS'w-1=crop'
p2613
I1864
sS'w+1=coalition'
p2614
I1000
sS'w+1=middle'
p2615
I1153
sS'w-1=cause'
p2616
I1844
sS'w+1=bitter'
p2617
I982
sS'conj=move'
p2618
I327
sS'advmod=how'
p2619
I156
sS'w-2=vietnamese'
p2620
I2580
sS'w+1=apple'
p2621
I958
sS'w+1=insecurity'
p2622
I1114
sS'w-2=doubt'
p2623
I2260
sS'advmod=out'
p2624
I177
sS'conj=sell'
p2625
I346
sS'w-2=start'
p2626
I2526
sS'w+1=urban'
p2627
I1316
sS'w-2=help'
p2628
I2327
sS'w+1=after'
p2629
I938
sS'w-1=address'
p2630
I1815
sS'w-1=as'
p2631
I1827
sS'w+2=flipper'
p2632
I1512
sS'w-1=we'
p2633
I2030
sS'w+2=embryonic'
p2634
I1495
sS'ccomp=play'
p2635
I250
sS'w-2=pose'
p2636
I2446
sS'w-2=rebel'
p2637
I2470
sS'w-1=rhetoric'
p2638
I1982
sS'w+1=acknowledgment'
p2639
I935
sS'dobj=apple'
p2640
I413
sS'w-2=survey'
p2641
I2543
sS'nsubj=cordon'
p2642
I654
sS'w+2=?'
p2643
I1367
sS'nsubj=wood'
p2644
I833
sS'w-1=that'
p2645
I2011
sS'advcl=report'
p2646
I97
sS'advmod=later'
p2647
I159
sS'w+1=some'
p2648
I1263
sS'advcl=sheriff'
p2649
I102
sS'w+2=,'
p2650
I1341
sS'w+2=-'
p2651
I1342
sS'advmod=astronomically'
p2652
I126
sS'advcl=lift'
p2653
I89
sS'prep=near'
p2654
I887
sS'dobj=peanut'
p2655
I488
sS'w+2=Turkey'
p2656
I1390
sS'dobj=way'
p2657
I535
sS'advmod=rapidly'
p2658
I183
sS'w+2=I'
p2659
I1380
sS'ccomp=come'
p2660
I232
sS'w-1=provide'
p2661
I1974
sS'advmod=usually'
p2662
I202
sS'purpcl=survive'
p2663
I904
sS'w-1=what'
p2664
I2031
sS'w-2=water'
p2665
I2586
sS'w+1=activism'
p2666
I936
sS'w+1=throughout'
p2667
I1294
sS'w-1=Norton'
p2668
I1801
sS'w+1=focus'
p2669
I1077
sS'w+1=mobile'
p2670
I1157
sS'w+1=religion'
p2671
I1228
sS'w-2=Delta'
p2672
I2077
sS'w+2=a'
p2673
I1395
sS'w+1=influence'
p2674
I1113
sS'w+2=48'
p2675
I1362
ssS'dtype'
p2676
cnumpy
float64
p2677
sS'feature_names_'
p2678
(lp2679
g1224
ag1005
ag838
ag498
ag2494
ag2305
ag1909
ag225
ag1299
ag1390
ag2324
ag1773
ag1537
ag2521
ag2585
ag411
ag647
ag13
ag1932
ag825
ag2239
ag369
ag1965
ag1546
ag1285
ag1700
ag1172
ag1266
ag1751
ag783
ag355
ag924
ag2127
ag936
ag1671
ag633
ag629
ag2112
ag2164
ag1875
ag1011
ag2016
ag171
ag2207
ag2437
ag1531
ag1384
ag2367
ag683
ag1387
ag64
ag339
ag66
ag70
ag1438
ag772
ag1731
ag1790
ag734
ag123
ag1658
ag2496
ag696
ag147
ag2392
ag2575
ag2378
ag2293
ag589
ag1724
ag1240
ag1580
ag2083
ag495
ag521
ag540
ag150
ag2452
ag2443
ag1770
ag2079
ag643
ag1674
ag435
ag1974
ag2515
ag1575
ag2170
ag743
ag2653
ag2167
ag131
ag107
ag268
ag2296
ag1146
ag2021
ag2646
ag23
ag1517
ag1857
ag78
ag2649
ag75
ag347
ag1625
ag1709
ag1615
ag1420
ag2263
ag1039
ag1195
ag2255
ag1155
ag2413
ag2471
ag2465
ag2140
ag485
ag493
ag923
ag443
ag59
ag919
ag487
ag847
ag2652
ag782
ag2583
ag2474
ag1001
ag626
ag17
ag1040
ag1680
ag185
ag2446
ag2018
ag354
ag158
ag213
ag1708
ag2240
ag2284
ag182
ag97
ag234
ag2139
ag1448
ag1006
ag161
ag713
ag1670
ag692
ag162
ag1394
ag2619
ag1557
ag732
ag2647
ag762
ag1296
ag2268
ag2267
ag302
ag877
ag35
ag14
ag81
ag2273
ag1830
ag1881
ag1874
ag837
ag2340
ag2104
ag795
ag2624
ag381
ag1983
ag1416
ag1464
ag794
ag2658
ag1684
ag1440
ag1020
ag1314
ag728
ag2313
ag587
ag25
ag1609
ag776
ag562
ag1053
ag660
ag2161
ag2124
ag2230
ag1309
ag358
ag2662
ag2029
ag1583
ag184
ag455
ag1035
ag2004
ag778
ag1798
ag2371
ag1230
ag736
ag2088
ag1918
ag593
ag1969
ag1719
ag2126
ag1598
ag1764
ag1138
ag404
ag624
ag1317
ag49
ag910
ag397
ag1014
ag1690
ag2533
ag2660
ag1920
ag1554
ag1595
ag1279
ag1970
ag1721
ag1610
ag112
ag874
ag860
ag141
ag715
ag2224
ag261
ag1646
ag2346
ag620
ag2635
ag307
ag484
ag258
ag100
ag2001
ag745
ag50
ag2007
ag52
ag881
ag1141
ag2534
ag1248
ag1015
ag1088
ag221
ag833
ag2177
ag436
ag2227
ag1445
ag1940
ag864
ag1915
ag1176
ag1726
ag2288
ag173
ag2151
ag826
ag2561
ag400
ag519
ag1963
ag1608
ag1707
ag204
ag2357
ag2038
ag275
ag2569
ag1523
ag1273
ag1638
ag717
ag1167
ag392
ag1668
ag1651
ag1048
ag1545
ag2475
ag1861
ag1936
ag757
ag165
ag1355
ag1276
ag1652
ag1247
ag1257
ag2582
ag1147
ag1750
ag1385
ag2484
ag2103
ag67
ag2455
ag2254
ag277
ag1571
ag816
ag657
ag2111
ag1089
ag2618
ag1190
ag1435
ag690
ag1539
ag1032
ag2390
ag1377
ag2456
ag645
ag2511
ag280
ag2589
ag542
ag921
ag2370
ag1777
ag99
ag2520
ag2625
ag338
ag2089
ag1702
ag2053
ag1738
ag2543
ag309
ag1476
ag2275
ag1177
ag939
ag2182
ag655
ag2092
ag1467
ag419
ag2536
ag658
ag2566
ag1787
ag775
ag619
ag507
ag2216
ag2579
ag896
ag337
ag2215
ag399
ag2540
ag2214
ag611
ag68
ag2498
ag1321
ag334
ag1806
ag2166
ag297
ag2259
ag2244
ag2464
ag685
ag403
ag1848
ag1527
ag784
ag974
ag985
ag391
ag1415
ag1897
ag538
ag2098
ag1926
ag879
ag152
ag2145
ag868
ag486
ag218
ag87
ag2542
ag2266
ag2022
ag502
ag2640
ag1333
ag2250
ag625
ag437
ag1353
ag317
ag1165
ag508
ag491
ag384
ag2175
ag2351
ag1958
ag1699
ag1650
ag786
ag2041
ag1590
ag1935
ag2444
ag867
ag1728
ag1882
ag1319
ag569
ag735
ag1036
ag1748
ag1338
ag2369
ag1031
ag2128
ag2527
ag765
ag71
ag723
ag1578
ag672
ag1463
ag2274
ag706
ag1863
ag1986
ag2056
ag720
ag1178
ag1706
ag304
ag584
ag40
ag1567
ag973
ag2568
ag646
ag1683
ag1976
ag89
ag1267
ag1084
ag1741
ag1585
ag1563
ag1490
ag691
ag2270
ag1229
ag2554
ag2596
ag220
ag1775
ag504
ag1433
ag1816
ag709
ag2655
ag871
ag22
ag200
ag1454
ag2223
ag1786
ag703
ag2090
ag2373
ag1796
ag1100
ag1890
ag284
ag1068
ag1981
ag1634
ag1785
ag2594
ag779
ag1131
ag1223
ag111
ag1066
ag1758
ag583
ag361
ag326
ag876
ag532
ag801
ag1663
ag475
ag2129
ag2359
ag1919
ag305
ag2036
ag1824
ag651
ag2226
ag1205
ag981
ag286
ag2341
ag479
ag961
ag2657
ag1628
ag841
ag249
ag2381
ag47
ag447
ag2590
ag2087
ag1371
ag1513
ag2028
ag780
ag2445
ag390
ag2601
ag1270
ag656
ag1901
ag1618
ag476
ag2076
ag1289
ag2556
ag1286
ag2541
ag2528
ag2176
ag351
ag36
ag889
ag1747
ag2252
ag737
ag458
ag2196
ag212
ag969
ag84
ag1304
ag1059
ag853
ag2010
ag1631
ag866
ag2037
ag840
ag1899
ag1162
ag313
ag1460
ag2070
ag2183
ag1644
ag856
ag1047
ag1739
ag2303
ag229
ag603
ag1282
ag1160
ag227
ag1891
ag1905
ag1145
ag509
ag2422
ag2552
ag861
ag1013
ag718
ag1308
ag2432
ag53
ag1254
ag1507
ag580
ag2221
ag2030
ag2118
ag2600
ag792
ag1960
ag2489
ag376
ag702
ag748
ag1689
ag167
ag552
ag2512
ag186
ag2565
ag1194
ag41
ag292
ag774
ag1149
ag638
ag1218
ag1214
ag1370
ag2360
ag2171
ag1079
ag1374
ag1662
ag1400
ag1836
ag2588
ag2203
ag2086
ag2080
ag406
ag2049
ag346
ag1298
ag12
ag2642
ag2064
ag2415
ag2454
ag1660
ag2212
ag192
ag1978
ag828
ag1807
ag805
ag2113
ag426
ag1645
ag9
ag1152
ag449
ag380
ag2169
ag1937
ag228
ag1012
ag1931
ag153
ag960
ag639
ag188
ag1179
ag1838
ag416
ag226
ag1636
ag1982
ag157
ag2364
ag139
ag210
ag719
ag2584
ag1367
ag2206
ag2248
ag1551
ag654
ag262
ag333
ag2335
ag516
ag1755
ag1359
ag2048
ag2358
ag169
ag180
ag767
ag2603
ag2382
ag641
ag2219
ag1867
ag1197
ag1115
ag729
ag1923
ag1469
ag1850
ag1813
ag937
ag839
ag19
ag2451
ag2209
ag2051
ag127
ag744
ag1594
ag880
ag1921
ag1174
ag2481
ag2256
ag1091
ag170
ag1514
ag1256
ag43
ag2058
ag1757
ag2325
ag1908
ag1150
ag1611
ag1695
ag349
ag595
ag2602
ag793
ag21
ag1548
ag2385
ag1383
ag766
ag760
ag862
ag1042
ag1008
ag2326
ag1350
ag1577
ag2096
ag1779
ag1437
ag2532
ag2150
ag1272
ag1815
ag459
ag2071
ag1939
ag207
ag451
ag20
ag951
ag1496
ag606
ag299
ag954
ag1736
ag2172
ag1896
ag1524
ag948
ag2308
ag2014
ag1106
ag1446
ag1478
ag2132
ag1869
ag926
ag1903
ag1302
ag1831
ag940
ag1234
ag1783
ag439
ag2599
ag898
ag905
ag2137
ag1688
ag1028
ag440
ag2376
ag2501
ag160
ag1643
ag798
ag1342
ag897
ag1163
ag444
ag1041
ag2013
ag811
ag688
ag995
ag2055
ag1479
ag1511
ag251
ag904
ag193
ag132
ag749
ag1175
ag1536
ag563
ag2644
ag1076
ag231
ag2122
ag1114
ag1925
ag1661
ag2453
ag33
ag119
ag319
ag664
ag1647
ag903
ag2165
ag166
ag1189
ag1038
ag785
ag398
ag1173
ag276
ag931
ag1633
ag920
ag10
ag1756
ag2450
ag777
ag2411
ag1884
ag615
ag621
ag1535
ag1473
ag1892
ag116
ag2550
ag2548
ag1087
ag2009
ag2044
ag661
ag1530
ag523
ag1550
ag1989
ag2061
ag2247
ag2406
ag1466
ag201
ag2321
ag16
ag2654
ag1818
ag1821
ag401
ag895
ag561
ag2040
ag2570
ag2218
ag810
ag2433
ag1727
ag707
ag2330
ag1278
ag2154
ag2347
ag2663
ag2120
ag1080
ag2460
ag679
ag2529
ag1043
ag1842
ag329
ag1447
ag1239
ag2235
ag222
ag1780
ag1450
ag1323
ag1322
ag930
ag1325
ag546
ag545
ag549
ag1326
ag616
ag547
ag675
ag1704
ag1349
ag1344
ag477
ag77
ag2639
ag2666
ag432
ag2629
ag2459
ag430
ag1592
ag481
ag2507
ag1151
ag2434
ag1678
ag962
ag1522
ag2142
ag1065
ag2344
ag1627
ag236
ag194
ag1265
ag441
ag1801
ag2621
ag1073
ag34
ag1085
ag1559
ag631
ag1562
ag1470
ag2331
ag1340
ag1016
ag1243
ag379
ag2282
ag1845
ag1687
ag640
ag1723
ag1913
ag382
ag2062
ag1069
ag1341
ag266
ag2617
ag525
ag1373
ag1768
ag892
ag265
ag255
ag2160
ag967
ag1259
ag154
ag929
ag1677
ag533
ag1109
ag1419
ag2075
ag2530
ag2614
ag1752
ag928
ag90
ag2431
ag2289
ag2587
ag2281
ag1620
ag1805
ag190
ag60
ag383
ag721
ag2608
ag993
ag539
ag1711
ag1320
ag564
ag1119
ag83
ag1303
ag1553
ag1398
ag858
ag1822
ag1404
ag1737
ag1226
ag1669
ag2410
ag2033
ag1763
ag2394
ag724
ag2509
ag701
ag1140
ag1552
ag1154
ag1760
ag2429
ag2591
ag1769
ag290
ag1961
ag1210
ag122
ag363
ag328
ag1362
ag2430
ag1280
ag282
ag1995
ag2421
ag2426
ag2563
ag37
ag1865
ag341
ag242
ag1962
ag755
ag1673
ag172
ag2374
ag429
ag2017
ag1697
ag863
ag1331
ag2473
ag1130
ag673
ag1565
ag2669
ag117
ag800
ag1186
ag2402
ag1999
ag1268
ag246
ag648
ag1482
ag2368
ag1428
ag1753
ag1880
ag1766
ag238
ag1784
ag205
ag2337
ag946
ag1993
ag2084
ag1985
ag469
ag2290
ag1871
ag1826
ag886
ag1601
ag909
ag472
ag797
ag1498
ag483
ag588
ag2404
ag2674
ag2622
ag1219
ag1911
ag1558
ag1682
ag1685
ag1788
ag592
ag1386
ag2249
ag1269
ag142
ag1090
ag2428
ag230
ag1797
ag2152
ag474
ag1623
ag750
ag1717
ag1632
ag1424
ag1713
ag1803
ag1062
ag1376
ag2031
ag2271
ag362
ag604
ag2292
ag1180
ag528
ag1334
ag1233
ag2391
ag423
ag433
ag2615
ag1947
ag1504
ag2181
ag2670
ag1200
ag1222
ag1220
ag1456
ag1395
ag1300
ag2502
ag176
ag2225
ag1055
ag1844
ag2106
ag350
ag2328
ag88
ag1081
ag2046
ag947
ag91
ag96
ag2491
ag1441
ag1093
ag1491
ag652
ag1423
ag2349
ag2077
ag613
ag2610
ag1128
ag949
ag2405
ag1260
ag1612
ag955
ag352
ag2336
ag366
ag1653
ag1912
ag1712
ag622
ag450
ag1898
ag677
ag2208
ag8
ag135
ag330
ag682
ag1771
ag2246
ag902
ag1823
ag635
ag809
ag1185
ag1483
ag1083
ag1082
ag2598
ag2505
ag1264
ag2059
ag257
ag2383
ag2211
ag1122
ag2537
ag2671
ag460
ag2485
ag82
ag1597
ag2479
ag1603
ag1295
ag1293
ag2179
ag1616
ag2396
ag1021
ag2011
ag316
ag1626
ag844
ag2572
ag888
ag417
ag576
ag237
ag887
ag1252
ag69
ag2417
ag2407
ag410
ag1051
ag1655
ag2477
ag1086
ag2110
ag2611
ag2320
ag2648
ag1810
ag1406
ag966
ag279
ag944
ag845
ag520
ag1453
ag680
ag402
ag642
ag650
ag526
ag490
ag983
ag1070
ag2567
ag332
ag2287
ag260
ag708
ag126
ag1614
ag1396
ag1459
ag1864
ag1870
ag1462
ag1503
ag2488
ag2667
ag271
ag1691
ag2420
ag1291
ag986
ag1971
ag308
ag1493
ag371
ag340
ag1641
ag1778
ag1581
ag994
ag565
ag1213
ag105
ag1542
ag699
ag31
ag1211
ag2627
ag283
ag1060
ag869
ag999
ag2553
ag738
ag1196
ag1944
ag567
ag1502
ag514
ag1793
ag1312
ag500
ag1306
ag911
ag1221
ag1841
ag913
ag1906
ag199
ag1817
ag224
ag2414
ag2650
ag2651
ag900
ag2516
ag2242
ag428
ag422
ag579
ag336
ag1886
ag714
ag577
ag287
ag386
ag1860
ag1549
ag388
ag196
ag198
ag2508
ag975
ag2675
ag1037
ag1876
ag39
ag1693
ag2643
ag1528
ag2467
ag1215
ag1339
ag1519
ag1004
ag1132
ag1811
ag1003
ag2283
ag2023
ag114
ag2659
ag829
ag1745
ag594
ag2202
ag1774
ag1413
ag2134
ag747
ag1409
ag2656
ag1804
ag998
ag1255
ag2277
ag2673
ag1987
ag2538
ag1102
ag1199
ag2057
ag802
ag1729
ag831
ag129
ag2300
ag1605
ag2220
ag2100
ag2363
ag1451
ag240
ag1515
ag1927
ag1369
ag1847
ag1052
ag2384
ag614
ag2097
ag1613
ag342
ag945
ag374
ag2257
ag1113
ag2253
ag163
ag2317
ag189
ag1381
ag2119
ag44
ag1116
ag253
ag1452
ag1408
ag1593
ag1442
ag1133
ag1181
ag649
ag671
ag28
ag2116
ag1307
ag2159
ag1718
ag93
ag1393
ag1474
ag2461
ag989
ag1045
ag1242
ag1261
ag1171
ag764
ag1812
ag2345
ag1980
ag1833
ag92
ag678
ag106
ag2265
ag1421
ag1941
ag206
ag2427
ag254
ag1158
ag1564
ag716
ag1348
ag1023
ag1851
ag1156
ag627
ag252
ag109
ag1168
ag1481
ag301
ag2517
ag1734
ag2155
ag1078
ag1372
ag536
ag518
ag54
ag233
ag104
ag1455
ag2634
ag1417
ag2380
ag1973
ag1635
ag2310
ag669
ag156
ag819
ag1698
ag907
ag2609
ag1471
ag2243
ag527
ag1148
ag1572
ag2632
ag1426
ag294
ag991
ag2195
ag901
ag2333
ag195
ag467
ag143
ag2386
ag2483
ag250
ag1657
ag2201
ag1949
ag992
ag343
ag1749
ag885
ag353
ag1327
ag1972
ag823
ag208
ag2519
ag935
ag480
ag101
ag768
ag2260
ag1975
ag2189
ag710
ag2015
ag1916
ag2522
ag1412
ag705
ag1203
ag2093
ag446
ag1720
ag1885
ag1129
ag1883
ag746
ag175
ag335
ag982
ag770
ag1071
ag2327
ag1182
ag1120
ag761
ag2043
ag769
ag94
ag2352
ag1475
ag1191
ag941
ag1561
ag674
ag108
ag232
ag179
ag1044
ag2401
ag2312
ag997
ag2531
ag2286
ag1604
ag681
ag891
ag2200
ag1984
ag726
ag1917
ag2343
ag1835
ag1263
ag2109
ag431
ag1288
ag1110
ag694
ag759
ag1910
ag1094
ag1518
ag1516
ag2027
ag2269
ag2309
ag1074
ag57
ag2315
ag405
ag2571
ag1588
ag1315
ag2304
ag360
ag2187
ag637
ag324
ag2314
ag1056
ag1681
ag698
ag2562
ag916
ag2054
ag2458
ag1427
ag2393
ag1992
ag1495
ag1245
ag1977
ag2354
ag48
ag296
ag120
ag2063
ag181
ag2005
ag899
ag550
ag687
ag1996
ag318
ag824
ag1391
ag1664
ag2470
ag1354
ag2299
ag894
ag1465
ag618
ag98
ag739
ag492
ag55
ag1953
ag2133
ag1675
ag851
ag1968
ag235
ag291
ag394
ag884
ag607
ag1856
ag2294
ag2379
ag551
ag1290
ag370
ag2082
ag1301
ag2486
ag1401
ag2395
ag2280
ag1363
ag957
ag1938
ag1705
ag1570
ag1127
ag270
ag2365
ag1411
ag1061
ag1744
ag1649
ag1934
ag1619
ag2147
ag2580
ag2355
ag1343
ag140
ag1311
ag24
ag1095
ag790
ag1648
ag1532
ag1305
ag281
ag1839
ag1843
ag2547
ag2606
ag1930
ag2597
ag1621
ag2156
ag2424
ag875
ag102
ag1249
ag1425
ag2222
ag149
ag978
ag662
ag865
ag634
ag835
ag788
ag2065
ag834
ag586
ag2323
ag2334
ag243
ag1904
ag1345
ag2143
ag1754
ag878
ag377
ag1019
ag2408
ag1365
ag2377
ag2447
ag2605
ag489
ag842
ag496
ag2099
ag187
ag272
ag1596
ag818
ag623
ag1072
ag2285
ag1964
ag1952
ag2586
ag1231
ag570
ag976
ag115
ag1933
ag670
ag2558
ag1629
ag1602
ag2045
ag2559
ag1946
ag331
ag2492
ag465
ag2469
ag2436
ag2149
ag323
ag1872
ag578
ag956
ag312
ag1436
ag2462
ag322
ag2121
ag2052
ag1007
ag513
ag1694
ag2573
ag1582
ag373
ag264
ag908
ag2094
ag789
ag1124
ag2668
ag499
ag1250
ag1599
ag1135
ag605
ag1879
ag2144
ag178
ag2581
ag1468
ag1568
ag543
ag667
ag2630
ag1746
ag1859
ag174
ag29
ag630
ag2173
ag1902
ag452
ag572
ag609
ag1310
ag2631
ag1480
ag1077
ag1364
ag2074
ag1998
ag601
ag2435
ag1966
ag2237
ag1358
ag2439
ag2072
ag2236
ag1574
ag2348
ag1852
ag2616
ag1538
ag1725
ag259
ag1849
ag873
ag1002
ag730
ag727
ag1022
ag1449
ag1472
ag752
ag1232
ag73
ag1202
ag1159
ag2032
ag113
ag2228
ag2613
ag1118
ag61
ag463
ag1589
ag1584
ag787
ag1544
ag2495
ag1392
ag136
ag2399
ag1058
ag1388
ag530
ag511
ag2012
ag2387
ag1297
ag1672
ag1928
ag2449
ag1000
ag1855
ag1954
ag2193
ag1761
ag2278
ag1624
ag814
ag1529
ag293
ag1781
ag2194
ag214
ag130
ag1979
ag478
ag927
ag2457
ag2008
ag725
ag146
ag385
ag134
ag666
ag771
ag1959
ag1046
ag505
ag1510
ag1820
ag1262
ag1776
ag1499
ag1351
ag573
ag1206
ag1241
ag1492
ag1432
ag462
ag566
ag2342
ag950
ag1292
ag1512
ag1208
ag2233
ag663
ag1526
ag1389
ag269
ag1403
ag2205
ag2478
ag918
ag2123
ag591
ag1945
ag2130
ag32
ag1703
ag356
ag1640
ag1997
ag151
ag2389
ag1858
ag1862
ag2261
ag2115
ag1722
ag1520
ag1832
ag608
ag244
ag781
ag1357
ag933
ag468
ag464
ag1656
ag1877
ag506
ag2125
ag1907
ag85
ag600
ag2136
ag2661
ag1337
ag612
ag448
ag2078
ag632
ag2068
ag18
ag2638
ag1878
ag665
ag2162
ag1607
ag2229
ag733
ag686
ag2291
ag2306
ag753
ag144
ag1192
ag1508
ag1251
ag288
ag2397
ag1212
ag854
ag86
ag817
ag1853
ag1134
ag836
ag1137
ag1356
ag1501
ag1951
ag970
ag2645
ag1509
ag598
ag2416
ag209
ag1639
ag1431
ag925
ag1789
ag1948
ag1366
ag1030
ag2504
ag62
ag38
ag1942
ag1112
ag722
ag1586
ag2633
ag2664
ag303
ag2105
ag2329
ag1600
ag63
ag912
ag2188
ag689
ag245
ag1164
ag118
ag1228
ag1642
ag2006
ag1225
ag1990
ag848
ag1227
ag822
ag1236
ag1237
ag2148
ag2425
ag1275
ag971
ag2476
ag676
ag872
ag644
ag2158
ag558
ag203
ag1827
ag1715
ag438
ag2258
ag554
ag2595
ag938
ag2418
ag636
ag2108
ag1929
ag1075
ag602
ag2672
ag712
ag415
ag807
ag2311
ag849
ag2497
ag2535
ag1566
ag2025
ag2067
ag1732
ag473
ag2353
ag311
ag942
ag1922
ag2197
ag2356
ag987
ag2138
ag2319
ag2510
ag1696
ag2441
ag1092
ag1057
ag471
ag1067
ag466
ag15
ag1505
ag977
ag1991
ag1034
ag424
ag1957
ag1521
ag574
ag248
ag2186
ag1654
ag183
ag2539
ag1477
ag2525
ag1099
ag1540
ag852
ag1735
ag216
ag2318
ag1328
ag2238
ag571
ag1201
ag110
ag799
ag2066
ag2135
ag2480
ag832
ag2024
ag2503
ag1136
ag1967
ag164
ag65
ag808
ag2210
ag1854
ag1017
ag984
ag1767
ag2185
ag1487
ag427
ag396
ag515
ag72
ag534
ag2091
ag1560
ag2463
ag1889
ag557
ag2472
ag2262
ag457
ag1434
ag1665
ag2232
ag846
ag1556
ag2366
ag859
ag2487
ag827
ag1382
ag497
ag2272
ag2514
ag2482
ag1352
ag1153
ag2578
ag1098
ag1489
ag524
ag215
ag684
ag2612
ag2604
ag1050
ag2440
ag365
ag870
ag2557
ag2551
ag74
ag357
ag454
ag2069
ag1193
ag95
ag56
ag857
ag1555
ag1765
ag58
ag1418
ag1794
ag917
ag1283
ag137
ag1271
ag51
ag314
ag1873
ag2577
ag2523
ag1009
ag1888
ag2190
ag1485
ag367
ag1097
ag1063
ag197
ag1829
ag1108
ag1107
ag1024
ag1956
ag830
ag1104
ag943
ag914
ag2322
ag1347
ag963
ag740
ag1204
ag2002
ag1410
ag731
ag934
ag820
ag1184
ag1573
ag1025
ag968
ag1166
ag177
ag1733
ag2073
ag1318
ag2217
ag2000
ag958
ag295
ag445
ag219
ag2623
ag1284
ag763
ag2513
ag2114
ag2198
ag315
ag754
ag2146
ag2419
ag1183
ag2060
ag695
ag1096
ag2081
ag990
ag103
ag1026
ag1772
ag1617
ag389
ag1170
ag2442
ag1330
ag1402
ag1414
ag1988
ag1994
ag408
ag1123
ag544
ag300
ag972
ag285
ag1533
ag1444
ag1336
ag1800
ag345
ag2050
ag1458
ag2003
ag1808
ag2316
ag1217
ag1397
ag2388
ag1346
ag393
ag1443
ag2042
ag653
ag1027
ag364
ag1494
ag2546
ag45
ag803
ag2555
ag306
ag1667
ag855
ag751
ag456
ag559
ag1825
ag128
ag2628
ag121
ag821
ag882
ag1430
ag2466
ag1686
ag1866
ag1730
ag2026
ag1246
ag42
ag414
ag1782
ag1791
ag418
ag890
ag843
ag2524
ag628
ag289
ag211
ag2526
ag1950
ag2234
ag1010
ag76
ag2350
ag421
ag375
ag1258
ag2035
ag988
ag1157
ag2301
ag320
ag2338
ag1207
ag1313
ag1606
ag2448
ag815
ag1819
ag138
ag1361
ag1569
ag470
ag27
ag1439
ag494
ag256
ag1244
ag482
ag560
ag597
ag273
ag1360
ag501
ag1666
ag1900
ag1742
ag758
ag1429
ag773
ag1679
ag2574
ag368
ag1187
ag2231
ag387
ag2302
ag2560
ag1868
ag1637
ag1324
ag1407
ag2576
ag952
ag510
ag1161
ag2398
ag1332
ag582
ag1893
ag1894
ag133
ag1169
ag2468
ag1543
ag553
ag531
ag979
ag1534
ag2047
ag2019
ag590
ag2034
ag1547
ag409
ag2493
ag2178
ag159
ag155
ag1368
ag596
ag2400
ag1828
ag1126
ag965
ag756
ag1525
ag191
ag1281
ag711
ag2131
ag434
ag412
ag659
ag2107
ag2636
ag407
ag796
ag2095
ag964
ag1405
ag2500
ag2372
ag1576
ag1579
ag2199
ag348
ag2264
ag2423
ag2168
ag1762
ag1924
ag2375
ag1457
ag1792
ag704
ag2102
ag2564
ag617
ag2637
ag1101
ag11
ag2276
ag321
ag1188
ag2339
ag488
ag548
ag697
ag124
ag1121
ag2020
ag372
ag1846
ag420
ag1277
ag1587
ag2085
ag1955
ag2545
ag522
ag274
ag1379
ag806
ag2499
ag413
ag1541
ag1484
ag1710
ag1139
ag2409
ag1103
ag922
ag2192
ag1125
ag1692
ag2191
ag1714
ag145
ag1253
ag1143
ag2279
ag1380
ag2593
ag1316
ag2241
ag2251
ag2180
ag2298
ag46
ag461
ag980
ag2361
ag2362
ag610
ag2626
ag1033
ag996
ag1105
ag1461
ag512
ag1054
ag555
ag1329
ag1375
ag2438
ag1335
ag1488
ag223
ag298
ag1834
ag700
ag2641
ag1799
ag893
ag1840
ag1743
ag2163
ag2403
ag915
ag1018
ag125
ag741
ag1659
ag1809
ag168
ag2039
ag1238
ag1235
ag1294
ag310
ag581
ag537
ag79
ag541
ag1422
ag327
ag1198
ag278
ag2157
ag1216
ag883
ag239
ag1591
ag1117
ag517
ag1064
ag2184
ag1740
ag2620
ag1486
ag813
ag812
ag2518
ag2544
ag2665
ag1759
ag1399
ag2245
ag2213
ag1943
ag529
ag1378
ag80
ag2204
ag1895
ag453
ag263
ag804
ag575
ag1887
ag395
ag217
ag1914
ag556
ag344
ag1802
ag442
ag1500
ag568
ag2607
ag2174
ag359
ag535
ag2117
ag953
ag202
ag2412
ag2295
ag1814
ag2332
ag2592
ag378
ag742
ag1795
ag585
ag2307
ag247
ag241
ag1506
ag1274
ag2506
ag148
ag1209
ag1144
ag1837
ag791
ag1701
ag26
ag906
ag2141
ag30
ag693
ag325
ag1622
ag1142
ag599
ag2490
ag1497
ag1716
ag2549
ag2297
ag850
ag267
ag2101
ag959
ag1287
ag425
ag932
ag1111
ag1049
ag1676
ag503
ag2153
ag668
ag1630
ag1029
asS'separator'
p2680
S'='
sS'sparse'
p2681
I01
sb.