ccopy_reg
_reconstructor
p1
(csklearn.feature_extraction.dict_vectorizer
DictVectorizer
p2
c__builtin__
object
p3
NtRp4
(dp5
S'sort'
p6
I01
sS'feature_names_'
p7
(lp8
S'advcl=break'
p9
aS'advcl=forgive'
p10
aS'advcl=get'
p11
aS'advcl=improve'
p12
aS'advcl=influence'
p13
aS'advcl=know'
p14
aS'advcl=stop'
p15
aS'advmod=also'
p16
aS'advmod=always'
p17
aS'advmod=clearly'
p18
aS'advmod=deeply'
p19
aS'advmod=fully'
p20
aS'advmod=greatly'
p21
aS'advmod=long'
p22
aS'advmod=more'
p23
aS'advmod=much'
p24
aS'advmod=really'
p25
aS'advmod=still'
p26
aS'advmod=that'
p27
aS'advmod=then'
p28
aS'advmod=there'
p29
aS'advmod=too'
p30
aS'advmod=very'
p31
aS'advmod=well'
p32
aS"aux='ll"
p33
aS'aux=be'
p34
aS'aux=can'
p35
aS'aux=do'
p36
aS'aux=have'
p37
aS'aux=should'
p38
aS'aux=to'
p39
aS'aux=will'
p40
aS'aux=would'
p41
aS'auxpass=be'
p42
aS'cc=and'
p43
aS'cc=but'
p44
aS'ccomp=anxious'
p45
aS'ccomp=break'
p46
aS'ccomp=comment'
p47
aS'ccomp=do'
p48
aS'ccomp=elect'
p49
aS'ccomp=frustrate'
p50
aS'ccomp=give'
p51
aS'ccomp=involve'
p52
aS'ccomp=make'
p53
aS'ccomp=part'
p54
aS'ccomp=say'
p55
aS'ccomp=see'
p56
aS'ccomp=take'
p57
aS'ccomp=willing'
p58
aS'ccomp=work'
p59
aS'complm=that'
p60
aS'complm=whether'
p61
aS'conj=appreciate'
p62
aS'conj=be'
p63
aS'conj=confident'
p64
aS'conj=do'
p65
aS'conj=express'
p66
aS'conj=genuine'
p67
aS'conj=give'
p68
aS'conj=know'
p69
aS'conj=let'
p70
aS'conj=look'
p71
aS'conj=make'
p72
aS'conj=participate'
p73
aS'conj=try'
p74
aS'conj=urge'
p75
aS'conj=value'
p76
aS'dep=#PRP#'
p77
aS'dep=as'
p78
aS'dep=do'
p79
aS'dep=have'
p80
aS'dep=in'
p81
aS'dep=music'
p82
aS'dep=say'
p83
aS'dep=sir'
p84
aS'dep=with'
p85
aS'dobj=#PRP#'
p86
aS'dobj=Iran'
p87
aS'dobj=attitude'
p88
aS'dobj=beauty'
p89
aS'dobj=behavior'
p90
aS'dobj=benefit'
p91
aS'dobj=change'
p92
aS'dobj=co-operation'
p93
aS'dobj=commitment'
p94
aS'dobj=concern'
p95
aS'dobj=contribution'
p96
aS'dobj=country'
p97
aS'dobj=courage'
p98
aS'dobj=culture'
p99
aS'dobj=decision'
p100
aS'dobj=determination'
p101
aS'dobj=diversity'
p102
aS'dobj=effort'
p103
aS'dobj=everyone'
p104
aS'dobj=everything'
p105
aS'dobj=extent'
p106
aS'dobj=fact'
p107
aS'dobj=faith'
p108
aS'dobj=foresight'
p109
aS'dobj=hardship'
p110
aS'dobj=history'
p111
aS'dobj=honor'
p112
aS'dobj=hospitality'
p113
aS'dobj=idea'
p114
aS'dobj=importance'
p115
aS'dobj=initiative'
p116
aS'dobj=involvement'
p117
aS'dobj=leadership'
p118
aS'dobj=lesson'
p119
aS'dobj=life'
p120
aS'dobj=month'
p121
aS'dobj=need'
p122
aS'dobj=offer'
p123
aS'dobj=opinion'
p124
aS'dobj=outpouring'
p125
aS'dobj=partnership'
p126
aS'dobj=patience'
p127
aS'dobj=patriotism'
p128
aS'dobj=police'
p129
aS'dobj=problem'
p130
aS'dobj=program'
p131
aS'dobj=quality'
p132
aS'dobj=reception'
p133
aS'dobj=relationship'
p134
aS'dobj=reservation'
p135
aS'dobj=restraint'
p136
aS'dobj=role'
p137
aS'dobj=sacrifice'
p138
aS'dobj=second'
p139
aS'dobj=service'
p140
aS'dobj=situation'
p141
aS'dobj=size'
p142
aS'dobj=spectacle'
p143
aS'dobj=spirit'
p144
aS'dobj=support'
p145
aS'dobj=texture'
p146
aS'dobj=thing'
p147
aS'dobj=this'
p148
aS'dobj=threat'
p149
aS'dobj=time'
p150
aS'dobj=troops'
p151
aS'dobj=view'
p152
aS'dobj=wisdom'
p153
aS'dobj=work'
p154
aS'dobj=year'
p155
aS'mark=because'
p156
aS'mark=than'
p157
aS'mark=while'
p158
aS'neg=not'
p159
aS'nsubj=#PRP#'
p160
aS'nsubj=Britain'
p161
aS'nsubj=China'
p162
aS'nsubj=Gates'
p163
aS'nsubj=Koreans'
p164
aS'nsubj=UNHCR'
p165
aS'nsubj=Vietnam'
p166
aS'nsubj=authority'
p167
aS'nsubj=bay'
p168
aS'nsubj=collection'
p169
aS'nsubj=community'
p170
aS'nsubj=course'
p171
aS'nsubj=currency'
p172
aS'nsubj=diddley'
p173
aS'nsubj=everyone'
p174
aS'nsubj=federation'
p175
aS'nsubj=lawmaker'
p176
aS'nsubj=member'
p177
aS'nsubj=nation'
p178
aS'nsubj=non-muslim'
p179
aS'nsubj=party'
p180
aS'nsubj=people'
p181
aS'nsubj=president'
p182
aS'nsubj=resident'
p183
aS'nsubj=spokesman'
p184
aS'nsubj=troops'
p185
aS'nsubj=veteran'
p186
aS'nsubj=visitor'
p187
aS'nsubj=voter'
p188
aS'nsubj=who'
p189
aS'nsubjpass=#PRP#'
p190
aS'nsubjpass=activity'
p191
aS'nsubjpass=apology'
p192
aS'nsubjpass=gesture'
p193
aS'nsubjpass=support'
p194
aS'nsubjpass=type'
p195
aS'parataxis=able'
p196
aS'parataxis=do'
p197
aS'partmod=say'
p198
aS'partmod=work'
p199
aS'prep=accord'
p200
aS'prep=as'
p201
aS'prep=by'
p202
aS'prep=during'
p203
aS'prep=for'
p204
aS'prep=from'
p205
aS'prep=give'
p206
aS'prep=in'
p207
aS'prep=include'
p208
aS'prep=into'
p209
aS'prep=of'
p210
aS'prep=on'
p211
aS'prep=that'
p212
aS'prep=to'
p213
aS'prep=with'
p214
aS'tmod=no'
p215
aS'tmod=today'
p216
aS'w+1=,'
p217
aS'w+1=-lrb-'
p218
aS'w+1=.'
p219
aS'w+1=Australia'
p220
aS'w+1=Ethiopia'
p221
aS'w+1=Iran'
p222
aS'w+1=Mr.'
p223
aS'w+1=NATO'
p224
aS'w+1=President'
p225
aS'w+1=Sanchez'
p226
aS'w+1=a'
p227
aS'w+1=all'
p228
aS'w+1=and'
p229
aS'w+1=any'
p230
aS'w+1=because'
p231
aS'w+1=by'
p232
aS'w+1=every'
p233
aS'w+1=everyone'
p234
aS'w+1=everything'
p235
aS'w+1=for'
p236
aS'w+1=he'
p237
aS'w+1=if'
p238
aS'w+1=in'
p239
aS'w+1=it'
p240
aS'w+1=life'
p241
aS'w+1=offer'
p242
aS'w+1=or'
p243
aS'w+1=she'
p244
aS'w+1=so'
p245
aS'w+1=that'
p246
aS'w+1=the'
p247
aS'w+1=they'
p248
aS'w+1=this'
p249
aS'w+1=those'
p250
aS'w+1=two'
p251
aS'w+1=very'
p252
aS'w+1=we'
p253
aS'w+1=what'
p254
aS'w+1=you'
p255
aS"w+2='"
p256
aS"w+2=''"
p257
aS"w+2='s"
p258
aS'w+2=,'
p259
aS'w+2=.'
p260
aS'w+2=Ford'
p261
aS'w+2=President'
p262
aS'w+2=Sarkozy'
p263
aS'w+2=Thaksin'
p264
aS'w+2=United'
p265
aS'w+2=a'
p266
aS'w+2=all'
p267
aS'w+2=and'
p268
aS'w+2=as'
p269
aS'w+2=be'
p270
aS'w+2=beauty'
p271
aS'w+2=because'
p272
aS'w+2=behavior'
p273
aS'w+2=benefit'
p274
aS'w+2=british'
p275
aS'w+2=but'
p276
aS'w+2=can'
p277
aS'w+2=carefree'
p278
aS'w+2=change'
p279
aS'w+2=co-operation'
p280
aS'w+2=commitment'
p281
aS'w+2=contribution'
p282
aS'w+2=cooperative'
p283
aS'w+2=country'
p284
aS'w+2=courage'
p285
aS'w+2=current'
p286
aS'w+2=decision'
p287
aS'w+2=determination'
p288
aS'w+2=effort'
p289
aS'w+2=everyone'
p290
aS'w+2=extent'
p291
aS'w+2=fact'
p292
aS'w+2=faith'
p293
aS'w+2=few'
p294
aS'w+2=foreign'
p295
aS'w+2=german'
p296
aS'w+2=hardship'
p297
aS'w+2=have'
p298
aS'w+2=he'
p299
aS'w+2=honor'
p300
aS'w+2=hospitality'
p301
aS'w+2=importance'
p302
aS'w+2=in'
p303
aS'w+2=it'
p304
aS'w+2=its'
p305
aS'w+2=leadership'
p306
aS'w+2=legitimate'
p307
aS'w+2=lesson'
p308
aS'w+2=many'
p309
aS'w+2=message'
p310
aS'w+2=more'
p311
aS'w+2=much'
p312
aS'w+2=need'
p313
aS'w+2=of'
p314
aS'w+2=opinion'
p315
aS'w+2=outpouring'
p316
aS'w+2=participate'
p317
aS'w+2=partnership'
p318
aS'w+2=patience'
p319
aS'w+2=patriotism'
p320
aS'w+2=police'
p321
aS'w+2=polish'
p322
aS'w+2=president'
p323
aS'w+2=problem'
p324
aS'w+2=quality'
p325
aS'w+2=respect'
p326
aS'w+2=restraint'
p327
aS'w+2=rich'
p328
aS'w+2=role'
p329
aS'w+2=sacrifice'
p330
aS'w+2=second'
p331
aS'w+2=service'
p332
aS'w+2=size'
p333
aS'w+2=some'
p334
aS'w+2=spectacle'
p335
aS'w+2=support'
p336
aS'w+2=texture'
p337
aS'w+2=the'
p338
aS'w+2=then'
p339
aS'w+2=these'
p340
aS'w+2=thing'
p341
aS'w+2=threat'
p342
aS'w+2=time'
p343
aS'w+2=too'
p344
aS'w+2=tremendous'
p345
aS'w+2=troops'
p346
aS'w+2=u.s'
p347
aS'w+2=value'
p348
aS'w+2=very'
p349
aS'w+2=view'
p350
aS'w+2=warm'
p351
aS'w+2=we'
p352
aS'w+2=wisdom'
p353
aS'w+2=year'
p354
aS'w+2=you'
p355
aS'w-1=,'
p356
aS'w-1=.'
p357
aS'w-1=Afghanistan'
p358
aS'w-1=Americans'
p359
aS'w-1=Britain'
p360
aS'w-1=China'
p361
aS'w-1=Gates'
p362
aS'w-1=I'
p363
aS'w-1=Israel'
p364
aS'w-1=Koreans'
p365
aS'w-1=Muslims'
p366
aS'w-1=Vietnam'
p367
aS'w-1=also'
p368
aS'w-1=always'
p369
aS'w-1=and'
p370
aS'w-1=audience'
p371
aS'w-1=bay'
p372
aS'w-1=be'
p373
aS'w-1=boat'
p374
aS'w-1=can'
p375
aS'w-1=community'
p376
aS'w-1=deeply'
p377
aS'w-1=diddley'
p378
aS'w-1=do'
p379
aS'w-1=feel'
p380
aS'w-1=fully'
p381
aS'w-1=greatly'
p382
aS'w-1=he'
p383
aS'w-1=lawmaker'
p384
aS'w-1=much'
p385
aS'w-1=non-muslim'
p386
aS'w-1=not'
p387
aS'w-1=president'
p388
aS'w-1=really'
p389
aS'w-1=resident'
p390
aS'w-1=she'
p391
aS'w-1=should'
p392
aS'w-1=start'
p393
aS'w-1=still'
p394
aS'w-1=they'
p395
aS'w-1=to'
p396
aS'w-1=troops'
p397
aS'w-1=veteran'
p398
aS'w-1=we'
p399
aS'w-1=who'
p400
aS'w-1=will'
p401
aS'w-1=would'
p402
aS'w-1=you'
p403
aS"w-2=''"
p404
aS"w-2='ll"
p405
aS'w-2=,'
p406
aS'w-2=-rrb-'
p407
aS'w-2=.'
p408
aS'w-2=Afghanistan'
p409
aS'w-2=Beahm'
p410
aS'w-2=I'
p411
aS'w-2=North'
p412
aS'w-2=Secretary'
p413
aS'w-2=UNHCR'
p414
aS'w-2=and'
p415
aS'w-2=as'
p416
aS'w-2=australian'
p417
aS'w-2=be'
p418
aS'w-2=but'
p419
aS'w-2=chance'
p420
aS'w-2=clearly'
p421
aS'w-2=collection'
p422
aS'w-2=come'
p423
aS'w-2=currency'
p424
aS'w-2=define'
p425
aS'w-2=delicacy'
p426
aS'w-2=do'
p427
aS'w-2=fail'
p428
aS'w-2=family'
p429
aS'w-2=fan'
p430
aS'w-2=federation'
p431
aS'w-2=have'
p432
aS'w-2=he'
p433
aS'w-2=help'
p434
aS'w-2=in'
p435
aS'w-2=judge'
p436
aS'w-2=love'
p437
aS'w-2=make'
p438
aS'w-2=much'
p439
aS'w-2=neighborhood'
p440
aS'w-2=not'
p441
aS'w-2=notice'
p442
aS'w-2=of'
p443
aS'w-2=party'
p444
aS'w-2=people'
p445
aS'w-2=reader'
p446
aS'w-2=say'
p447
aS'w-2=see'
p448
aS'w-2=should'
p449
aS'w-2=simple'
p450
aS'w-2=student'
p451
aS'w-2=that'
p452
aS'w-2=the'
p453
aS'w-2=they'
p454
aS'w-2=to'
p455
aS'w-2=troops'
p456
aS'w-2=understand'
p457
aS'w-2=very'
p458
aS'w-2=voter'
p459
aS'w-2=we'
p460
aS'w-2=while'
p461
aS'w-2=who'
p462
aS'w-2=you'
p463
aS'xcomp=grab'
p464
aS'xcomp=more'
p465
asS'dtype'
p466
cnumpy
float64
p467
sS'vocabulary_'
p468
(dp469
g28
I19
sg23
I14
sg263
I254
sg460
I451
sg294
I285
sg445
I436
sg271
I262
sg172
I163
sg372
I363
sg187
I178
sg276
I267
sg212
I203
sg413
I404
sg101
I92
sg19
I10
sg163
I154
sg357
I348
sg454
I445
sg202
I193
sg144
I135
sg275
I266
sg67
I58
sg246
I237
sg99
I90
sg308
I299
sg402
I393
sg412
I403
sg49
I40
sg90
I81
sg25
I16
sg324
I315
sg333
I324
sg401
I392
sg103
I94
sg162
I153
sg373
I364
sg235
I226
sg397
I388
sg429
I420
sg21
I12
sg453
I444
sg179
I170
sg244
I235
sg440
I431
sg126
I117
sg153
I144
sg425
I416
sg428
I419
sg325
I316
sg50
I41
sg54
I45
sg156
I147
sg194
I185
sg15
I6
sg110
I101
sg112
I103
sg310
I301
sg215
I206
sg243
I234
sg115
I106
sg55
I46
sg422
I413
sg119
I110
sg384
I375
sg303
I294
sg318
I309
sg351
I342
sg304
I295
sg293
I284
sg368
I359
sg195
I186
sg60
I51
sg389
I380
sg121
I112
sg403
I394
sg173
I164
sg262
I253
sg32
I23
sg452
I443
sg247
I238
sg58
I49
sg270
I261
sg248
I239
sg405
I396
sg250
I241
sg190
I181
sg30
I21
sg207
I198
sg41
I32
sg236
I227
sg102
I93
sg359
I350
sg191
I182
sg465
I456
sg147
I138
sg89
I80
sg376
I367
sg213
I204
sg131
I122
sg149
I140
sg459
I450
sg378
I369
sg136
I127
sg72
I63
sg394
I385
sg229
I220
sg395
I386
sg154
I145
sg176
I167
sg421
I412
sg199
I190
sg424
I415
sg392
I383
sg122
I113
sg296
I287
sg340
I331
sg352
I343
sg196
I187
sg59
I50
sg63
I54
sg407
I398
sg366
I357
sg137
I128
sg165
I156
sg135
I126
sg164
I155
sg62
I53
sg161
I152
sg113
I104
sg83
I74
sg98
I89
sg157
I148
sg185
I176
sg97
I88
sg261
I252
sg208
I199
sg145
I136
sg300
I291
sg189
I180
sg297
I288
sg383
I374
sg443
I434
sg184
I175
sg177
I168
sg316
I307
sg396
I387
sg10
I1
sg311
I302
sg180
I171
sg132
I123
sg86
I77
sg427
I418
sg230
I221
sg166
I157
sg167
I158
sg76
I67
sg255
I246
sg133
I124
sg430
I421
sg51
I42
sg277
I268
sg289
I280
sg96
I87
sg322
I313
sg336
I327
sg237
I228
sg267
I258
sg68
I59
sg279
I270
sg70
I61
sg362
I353
sg188
I179
sg375
I366
sg436
I427
sg216
I207
sg420
I411
sg241
I232
sg47
I38
sg272
I263
sg431
I422
sg251
I242
sg280
I271
sg226
I217
sg117
I108
sg53
I44
sg77
I68
sg204
I195
sg11
I2
sg253
I244
sg269
I260
sg385
I376
sg42
I33
sg116
I107
sg22
I13
sg17
I8
sg282
I273
sg450
I441
sg26
I17
sg182
I173
sg381
I372
sg353
I344
sg365
I356
sg328
I319
sg309
I300
sg341
I332
sg339
I330
sg288
I279
sg104
I95
sg301
I292
sg284
I275
sg329
I320
sg64
I55
sg354
I345
sg283
I274
sg65
I56
sg85
I76
sg24
I15
sg193
I184
sg404
I395
sg314
I305
sg390
I381
sg220
I211
sg290
I281
sg370
I361
sg78
I69
sg245
I236
sg209
I200
sg386
I377
sg323
I314
sg306
I297
sg71
I62
sg285
I276
sg186
I177
sg128
I119
sg46
I37
sg360
I351
sg84
I75
sg391
I382
sg349
I340
sg45
I36
sg456
I447
sg242
I233
sg388
I379
sg231
I222
sg175
I166
sg192
I183
sg312
I303
sg139
I130
sg73
I64
sg291
I282
sg95
I86
sg302
I293
sg93
I84
sg100
I91
sg52
I43
sg29
I20
sg369
I360
sg158
I149
sg109
I100
sg36
I27
sg40
I31
sg278
I269
sg398
I389
sg181
I172
sg214
I205
sg170
I161
sg287
I278
sg124
I115
sg79
I70
sg305
I296
sg92
I83
sg127
I118
sg75
I66
sg350
I341
sg435
I426
sg344
I335
sg221
I212
sg114
I105
sg130
I121
sg319
I310
sg91
I82
sg423
I414
sg200
I191
sg257
I248
sg464
I455
sg105
I96
sg16
I7
sg348
I339
sg143
I134
sg451
I442
sg252
I243
sg74
I65
sg120
I111
sg224
I215
sg87
I78
sg342
I333
sg462
I453
sg313
I304
sg432
I423
sg43
I34
sg399
I390
sg286
I277
sg417
I408
sg39
I30
sg258
I249
sg106
I97
sg238
I229
sg307
I298
sg334
I325
sg239
I230
sg218
I209
sg240
I231
sg160
I151
sg222
I213
sg111
I102
sg448
I439
sg44
I35
sg57
I48
sg327
I318
sg444
I435
sg374
I365
sg81
I72
sg206
I197
sg107
I98
sg343
I334
sg332
I323
sg418
I409
sg457
I448
sg210
I201
sg69
I60
sg138
I129
sg211
I202
sg108
I99
sg358
I349
sg183
I174
sg123
I114
sg12
I3
sg320
I311
sg379
I370
sg18
I9
sg437
I428
sg174
I165
sg13
I4
sg80
I71
sg219
I210
sg382
I373
sg274
I265
sg228
I219
sg414
I405
sg273
I264
sg82
I73
sg400
I391
sg315
I306
sg347
I338
sg142
I133
sg141
I132
sg455
I446
sg268
I259
sg415
I406
sg393
I384
sg171
I162
sg159
I150
sg337
I328
sg371
I362
sg249
I240
sg346
I337
sg433
I424
sg292
I283
sg442
I433
sg20
I11
sg447
I438
sg439
I430
sg338
I329
sg426
I417
sg201
I192
sg406
I397
sg408
I399
sg299
I290
sg254
I245
sg37
I28
sg419
I410
sg66
I57
sg361
I352
sg356
I347
sg198
I189
sg441
I432
sg461
I452
sg233
I224
sg411
I402
sg265
I256
sg118
I109
sg416
I407
sg380
I371
sg31
I22
sg295
I286
sg35
I26
sg363
I354
sg355
I346
sg38
I29
sg317
I308
sg150
I141
sg364
I355
sg125
I116
sg168
I159
sg321
I312
sg152
I143
sg438
I429
sg169
I160
sg345
I336
sg140
I131
sg458
I449
sg14
I5
sg197
I188
sg27
I18
sg410
I401
sg61
I52
sg225
I216
sg264
I255
sg148
I139
sg409
I400
sg94
I85
sg48
I39
sg298
I289
sg234
I225
sg151
I142
sg330
I321
sg155
I146
sg129
I120
sg205
I196
sg434
I425
sg33
I24
sg88
I79
sg446
I437
sg326
I317
sg463
I454
sg449
I440
sg377
I368
sg178
I169
sg217
I208
sg134
I125
sg260
I251
sg259
I250
sg335
I326
sg256
I247
sg203
I194
sg331
I322
sg232
I223
sg223
I214
sg9
I0
sg227
I218
sg387
I378
sg146
I137
sg281
I272
sg56
I47
sg34
I25
sg266
I257
sg367
I358
ssS'separator'
p470
S'='
sS'sparse'
p471
I01
sb.