ccopy_reg
_reconstructor
p1
(csklearn.feature_extraction.dict_vectorizer
DictVectorizer
p2
c__builtin__
object
p3
NtRp4
(dp5
S'vocabulary_'
p6
(dp7
S'advmod=then'
p8
I40
sS'w-2=glacier'
p9
I399
sS'advmod=altogether'
p10
I23
sS'w-2=people'
p11
I423
sS'w-1=migrant'
p12
I317
sS'nsubjpass=people'
p13
I153
sS'w+2=Europe'
p14
I227
sS'w-2=culture'
p15
I387
sS'nsubj=child'
p16
I99
sS'w-2=sugar'
p17
I439
sS'w+2=but'
p18
I245
sS'w+2=plus'
p19
I269
sS'w-1=stash'
p20
I339
sS'w+1=90'
p21
I178
sS'w+2=fade'
p22
I252
sS'w-1=randomly'
p23
I329
sS'w-2=just'
p24
I410
sS'w-1=Azizuddin'
p25
I287
sS'w-2=then'
p26
I445
sS'w-2=they'
p27
I446
sS'prep=by'
p28
I158
sS'prep=within'
p29
I169
sS'w-2=kind'
p30
I411
sS'nsubj=migrant'
p31
I122
sS'w-2=refuse'
p32
I428
sS'w-2=some'
p33
I434
sS'w-1=would'
p34
I352
sS'w-1=say'
p35
I334
sS'conj=terrorize'
p36
I70
sS'advcl=muslim'
p37
I10
sS'w-2=habitat'
p38
I400
sS'w+1=landscape'
p39
I201
sS'advmod=just'
p40
I26
sS'w+1=in'
p41
I198
sS'w-1=will'
p42
I351
sS'nsubj=rule'
p43
I135
sS'w-1=be'
p44
I295
sS'w-2=chaotic'
p45
I379
sS'dep=prefix'
p46
I77
sS'w+1=continue'
p47
I191
sS'w-2=the'
p48
I443
sS'advmod=mostly'
p49
I29
sS'w-2=mother'
p50
I418
sS'advmod=totally'
p51
I41
sS'w-1=five'
p52
I305
sS'mark=because'
p53
I83
sS'aux=might'
p54
I47
sS'w-2=who'
p55
I454
sS'w+2=happen'
p56
I254
sS'ccomp=meet'
p57
I55
sS'w+2=to'
p58
I279
sS'conj=want'
p59
I72
sS'w-2=hostage'
p60
I403
sS'w-1=student'
p61
I340
sS'nsubj=piracy'
p62
I130
sS'w+1=or'
p63
I205
sS'w-1=have'
p64
I307
sS'ccomp=say'
p65
I56
sS'w-2=husband'
p66
I404
sS'w+2=in'
p67
I257
sS'advmod=#PRP#'
p68
I18
sS'w-2=all'
p69
I370
sS'w+2=Muslims'
p70
I231
sS'w-1=could'
p71
I302
sS'w-1=totally'
p72
I347
sS'w-1=also'
p73
I292
sS'aux=can'
p74
I43
sS'complm=that'
p75
I58
sS'w-2=emerge'
p76
I393
sS'w-1=from'
p77
I306
sS'w+1=altogether'
p78
I183
sS'nsubj=person'
p79
I129
sS'w+1=now'
p80
I204
sS'advcl=be'
p81
I4
sS'w+1=during'
p82
I193
sS'w-2=that'
p83
I442
sS'w-2=eight'
p84
I392
sS'w+2=Abidjan'
p85
I224
sS'conj=abducted'
p86
I59
sS'w-2=report'
p87
I429
sS'nsubjpass=#PRP#'
p88
I151
sS'w-1=agent'
p89
I290
sS'prep=in'
p90
I161
sS'aux=would'
p91
I50
sS'w+1=for'
p92
I195
sS'nsubj=stall'
p93
I139
sS'advmod=largely'
p94
I27
sS'nsubj=reassertion'
p95
I133
sS'prep=to'
p96
I167
sS'w+1=within'
p97
I216
sS'nsubj=colony'
p98
I101
sS'nsubj=the'
p99
I145
sS'w+2=come'
p100
I246
sS'advmod=ago'
p101
I20
sS'w+1=and'
p102
I184
sS'w+2=even'
p103
I251
sS'w-2=parliamentarian'
p104
I422
sS'w-2=stall'
p105
I437
sS'nsubj=member'
p106
I120
sS'conj=kill'
p107
I65
sS'w+1=any'
p108
I185
sS'nsubj=that'
p109
I144
sS'w-1=it'
p110
I309
sS'advmod=magically'
p111
I28
sS'w+1=habitatanother'
p112
I197
sS'nsubj=cage'
p113
I96
sS'nsubj=imam'
p114
I114
sS'nsubj=job'
p115
I115
sS'w-2=idea'
p116
I405
sS'w+2=we'
p117
I280
sS'w+1=into'
p118
I200
sS'nsubj=group'
p119
I112
sS'conj=be'
p120
I62
sS'w-2=barracks'
p121
I374
sS'aux=could'
p122
I44
sS'w-1=the'
p123
I343
sS'w+2=army'
p124
I238
sS'mark=if'
p125
I85
sS'w+2=attempt'
p126
I241
sS'mark=in'
p127
I86
sS'w-2=word'
p128
I456
sS'nsubj=talk'
p129
I143
sS'w-2=13'
p130
I356
sS'w-2=business'
p131
I376
sS'w-2=ago'
p132
I367
sS'w-1=almost'
p133
I291
sS'w+2=2002'
p134
I222
sS'w+2=2001'
p135
I221
sS'nsubj=who'
p136
I150
sS'w-2=of'
p137
I420
sS'w-1=to'
p138
I346
sS'w+2=Kashmiri'
p139
I229
sS'nsubj=party'
p140
I127
sS'dobj=#PRP#'
p141
I78
sS'w-2=do'
p142
I390
sS'nsubj=cocaine'
p143
I100
sS'w-2=identity'
p144
I406
sS'w+1=completely'
p145
I190
sS'advmod=completely'
p146
I25
sS'conj=accuse'
p147
I60
sS'mark=before'
p148
I84
sS'nsubj=husband'
p149
I113
sS'w-1=polio'
p150
I328
sS'advmod=simply'
p151
I36
sS'w-2=piracy'
p152
I424
sS'w-1=completely'
p153
I301
sS'prep=over'
p154
I165
sS'w+1=as'
p155
I186
sS'w-1=can'
p156
I298
sS'w-2=species'
p157
I436
sS'w-1=building'
p158
I296
sS'w+2=journalist'
p159
I259
sS'w-2=product'
p160
I425
sS'w-2=continue'
p161
I385
sS'advcl=pay'
p162
I11
sS'w-1=until'
p163
I348
sS'dep=continue'
p164
I75
sS'w+2=as'
p165
I240
sS'w+2=include'
p166
I258
sS'advcl=process'
p167
I15
sS'w+2=while'
p168
I281
sS'nsubj=other'
p169
I125
sS'auxpass=be'
p170
I51
sS'w-1=one'
p171
I320
sS'w+2=after'
p172
I234
sS'w-1=case'
p173
I299
sS'w+2=say'
p174
I271
sS'nsubj=#NUMBER#'
p175
I89
sS'nsubj=karadzic'
p176
I117
sS'w-1=paradigm'
p177
I325
sS'nsubj=tv'
p178
I148
sS"w-1=''"
p179
I283
sS'w+2=Nepal'
p180
I232
sS'w-2=those'
p181
I447
sS'w-2=charge'
p182
I380
sS'w-1=remain'
p183
I331
sS'w-1=people'
p184
I326
sS'w-2=sometimes'
p185
I435
sS'w+1=right'
p186
I209
sS'w+2=public'
p187
I270
sS'w-2=unlikely'
p188
I452
sS'w+2=year'
p189
I282
sS'w-2=allow'
p190
I371
sS'w+1=shortly'
p191
I210
sS'w-2=Park'
p192
I363
sS'preconj=either'
p193
I155
sS'w+2=of'
p194
I265
sS'w+2=March'
p195
I230
sS'w-2=after'
p196
I365
sS'w+2=on'
p197
I266
sS'w+2=store'
p198
I273
sS'w-1=and'
p199
I293
sS'w+2=detain'
p200
I247
sS'advcl=choose'
p201
I5
sS'w-2=airliner'
p202
I368
sS'nsubjpass=father'
p203
I152
sS'w+2=barrier'
p204
I242
sS'w+1=include'
p205
I199
sS'conj=unaccounted'
p206
I71
sS'w-2=recent'
p207
I426
sS'prep=without'
p208
I170
sS"w-2='s"
p209
I353
sS'w+2=April'
p210
I225
sS'w-2=first'
p211
I397
sS'w-1=karadzic'
p212
I312
sS'advmod=randomly'
p213
I32
sS'w-2=easy'
p214
I391
sS'nsubj=memory'
p215
I121
sS'w-2=troops'
p216
I449
sS'advmod=shortly'
p217
I35
sS'w-1=Britons'
p218
I288
sS'w+1=sudanese'
p219
I212
sS'w+1=because'
p220
I188
sS'w-2=sister'
p221
I431
sS'w+1=farmland'
p222
I194
sS'w-1=since'
p223
I336
sS'w+1=over'
p224
I207
sS'w+1=trade'
p225
I213
sS'w+1=mostly'
p226
I203
sS'advcl=send'
p227
I16
sS'w-2=themselves'
p228
I444
sS'w+1=since'
p229
I211
sS'w-2=Iraq'
p230
I361
sS'w-1=other'
p231
I323
sS'w-2=child'
p232
I381
sS'nsubj=some'
p233
I137
sS'nsubj=total'
p234
I146
sS'w-2=million'
p235
I415
sS'dobj=daughter'
p236
I80
sS'aux=do'
p237
I45
sS'w-1=opposition'
p238
I321
sS'aux=will'
p239
I49
sS'w-1=magically'
p240
I315
sS'nsubj=people'
p241
I128
sS'prep=with'
p242
I168
sS'cc=or'
p243
I54
sS'w-2=lighthouse'
p244
I412
sS'w-2=still'
p245
I438
sS'w+2=leave'
p246
I261
sS'w-2=agent'
p247
I366
sS'w-2=India'
p248
I359
sS'w-2=candidate'
p249
I378
sS'w-2=in'
p250
I407
sS'w-1=victim'
p251
I349
sS'w-2=it'
p252
I408
sS'advmod=since'
p253
I37
sS'w-1=kayaker'
p254
I313
sS'w-2=minor'
p255
I416
sS'w-2=vehicle'
p256
I453
sS'w+2=die'
p257
I248
sS'w-1=basically'
p258
I294
sS'nsubj=species'
p259
I138
sS'w-2=Tariq'
p260
I364
sS'w-2=Investigation'
p261
I360
sS'w-1=redeployment'
p262
I330
sS'w+2=northern'
p263
I264
sS'w+2=2035'
p264
I223
sS'w-1=pack'
p265
I324
sS"w+2=''"
p266
I218
sS'nsubj=funding'
p267
I109
sS'w-2=exist'
p268
I395
sS'xcomp=mean'
p269
I459
sS'advmod=also'
p270
I22
sS'advcl=arrest'
p271
I3
sS'w-2=woman'
p272
I455
sS'w-2=conflict'
p273
I384
sS'w-2=entire'
p274
I394
sS'conj=short'
p275
I69
sS'advmod=suddenly'
p276
I39
sS'w+2=earthen'
p277
I250
sS'nsubj=culture'
p278
I103
sS'w-2=call'
p279
I377
sS'nsubjpass=who'
p280
I154
sS'w-2=have'
p281
I401
sS'cc=and'
p282
I52
sS'nsubj=student'
p283
I142
sS'w-2=FBI'
p284
I357
sS'w-1=soon'
p285
I337
sS'w+1=also'
p286
I182
sS'advmod=almost'
p287
I21
sS'w-1=just'
p288
I311
sS'w+1=be'
p289
I187
sS'nsubj=place'
p290
I131
sS'w-1=but'
p291
I297
sS'w-1=they'
p292
I345
sS'w-1=person'
p293
I327
sS'dobj=barrier'
p294
I79
sS'conj=say'
p295
I67
sS'w-2=solution'
p296
I433
sS'tmod=year'
p297
I173
sS'nsubj=journalist'
p298
I116
sS'advcl=pound'
p299
I14
sS'nsubj=restriction'
p300
I134
sS'w-1=simply'
p301
I335
sS'nsubj=#PRP#'
p302
I90
sS'w+2=major'
p303
I262
sS'advcl=go'
p304
I8
sS'w-2=see'
p305
I430
sS"w+1=''"
p306
I174
sS'conj=leave'
p307
I66
sS'w-2=danger'
p308
I388
sS'cc=but'
p309
I53
sS'nsubj=victim'
p310
I149
sS'nsubj=agent'
p311
I94
sS'w-2=type-two'
p312
I451
sS'w-1=who'
p313
I350
sS'w+2=before'
p314
I244
sS'advcl=play'
p315
I13
sS'w-2=could'
p316
I386
sS'w-2=commercial'
p317
I383
sS'nsubj=kayaker'
p318
I118
sS'dep=if'
p319
I76
sS'advmod=again'
p320
I19
sS'w-2=money'
p321
I417
sS'advcl=investigate'
p322
I9
sS'advcl=do'
p323
I7
sS'w-2=reconstruction'
p324
I427
sS'w+2=time'
p325
I278
sS'w-1=might'
p326
I316
sS'w+2=or'
p327
I268
sS'w-2=mp'
p328
I419
sS'w-2=be'
p329
I375
sS'prep=of'
p330
I163
sS'conj=fade'
p331
I64
sS'w-2=collapse'
p332
I382
sS'nsubj=tuna'
p333
I147
sS'w-2=Manneh'
p334
I362
sS'prep=on'
p335
I164
sS'mark=after'
p336
I82
sS'w-1=largely'
p337
I314
sS'nsubj=man'
p338
I119
sS'nsubj=fuel'
p339
I108
sS'w+1=-'
p340
I176
sS'advcl=abducted'
p341
I0
sS'advmod=right'
p342
I34
sS'conj=come'
p343
I63
sS'nsubj=polio'
p344
I132
sS'advcl=pick'
p345
I12
sS'w+1=out'
p346
I206
sS'w+2=simply'
p347
I272
sS'w+2=than'
p348
I275
sS'w+1=without'
p349
I217
sS'w-2=to'
p350
I448
sS'nsubj=building'
p351
I95
sS'w+2=any'
p352
I237
sS'w-1=or'
p353
I322
sS'nsubj=Iraq'
p354
I92
sS'conj=see'
p355
I68
sS'w+2=each'
p356
I249
sS'w-1=of'
p357
I319
sS'advcl=work'
p358
I17
sS'w+2=and'
p359
I236
sS'tmod=#DATE#'
p360
I171
sS'w-2=and'
p361
I372
sS'dep=Baluch'
p362
I73
sS'w-1=start'
p363
I338
sS'w+1=while'
p364
I215
sS'nsubj=disk'
p365
I104
sS'w-2=one'
p366
I421
sS'nsubj=score'
p367
I136
sS'w+2=no'
p368
I263
sS'w-2=he'
p369
I402
sS'prep=since'
p370
I166
sS'w+1=more'
p371
I202
sS'nsubj=case'
p372
I98
sS'advmod=now'
p373
I30
sS'w+2=the'
p374
I276
sS'prep=as'
p375
I157
sS'w-2=,'
p376
I354
sS'w-1=colony'
p377
I300
sS'nsubj=equipment'
p378
I105
sS'advcl=activist'
p379
I1
sS'w-2=die'
p380
I389
sS'w+1=what'
p381
I214
sS'aux=have'
p382
I46
sS'w+2=Iran'
p383
I228
sS'w-1=.'
p384
I286
sS'w-1=-'
p385
I285
sS'w-1=,'
p386
I284
sS'w-1=revenue'
p387
I333
sS'w-2=man'
p388
I414
sS'prep=into'
p389
I162
sS'advmod=soon'
p390
I38
sS'w-2=teacher'
p391
I440
sS'w+2=one'
p392
I267
sS'nsubj=fighter'
p393
I106
sS'nsubj=stash'
p394
I141
sS'w+2=government'
p395
I253
sS'w-1=then'
p396
I344
sS'nsubj=Azizuddin'
p397
I91
sS'nsubj=parliamentarian'
p398
I126
sS'dobj=time'
p399
I81
sS'w+2=such'
p400
I274
sS'w-1=restriction'
p401
I332
sS'w-2=snow'
p402
I432
sS'w-2=job'
p403
I409
sS'w-1=either'
p404
I303
sS'w-1=suddenly'
p405
I341
sS'nsubj=Kieffer'
p406
I93
sS'ccomp=youth'
p407
I57
sS'w-2=make'
p408
I413
sS'w-1=he'
p409
I308
sS'w-2=tuna'
p410
I450
sS'w+1=Monday'
p411
I179
sS'w+1=from'
p412
I196
sS'w+1=again'
p413
I181
sS'w-2=tend'
p414
I441
sS'w+2=they'
p415
I277
sS'w+1=rapidly'
p416
I208
sS'w+2=allegedly'
p417
I235
sS'w-1=job'
p418
I310
sS'prep=after'
p419
I156
sS'w+2=around'
p420
I239
sS'w+2=Eritrea'
p421
I226
sS'advcl=contain'
p422
I6
sS'w-2=australian'
p423
I373
sS'w-2=fish'
p424
I398
sS'w-2=year'
p425
I457
sS'w-2=fighter'
p426
I396
sS'nsubj=camp'
p427
I97
sS'w+2=have'
p428
I255
sS'nsubj=fish'
p429
I107
sS'nsubj=glacier'
p430
I111
sS'mark=since'
p431
I87
sS'nsubj=mp'
p432
I123
sS'nsubj=conflict'
p433
I102
sS'prep=from'
p434
I160
sS'advmod=out'
p435
I31
sS'w+1=after'
p436
I180
sS'conj=appear'
p437
I61
sS'aux=to'
p438
I48
sS'w-2=you'
p439
I458
sS'w-1=Kieffer'
p440
I289
sS'w+2=kilometer'
p441
I260
sS'w-1=equipment'
p442
I304
sS'tmod=week'
p443
I172
sS'w+1=,'
p444
I175
sS'w+1=.'
p445
I177
sS'dep=after'
p446
I74
sS'w+2=.'
p447
I220
sS'w+2=,'
p448
I219
sS'advcl=after'
p449
I2
sS'neg=not'
p450
I88
sS'prep=during'
p451
I159
sS'w-2=al-Mahdi'
p452
I369
sS'advmod=rapidly'
p453
I33
sS'w+1=daughter'
p454
I192
sS'w-2=.'
p455
I355
sS'w+1=by'
p456
I189
sS'nsubj=staple'
p457
I140
sS'w-2=Guy-Andre'
p458
I358
sS'w-1=not'
p459
I318
sS'nsubj=option'
p460
I124
sS'w-1=that'
p461
I342
sS'aux=be'
p462
I42
sS'w+2=be'
p463
I243
sS'w+2=a'
p464
I233
sS'w+2=immigrant'
p465
I256
sS'advmod=basically'
p466
I24
sS'nsubj=girl'
p467
I110
ssS'dtype'
p468
cnumpy
float64
p469
sS'feature_names_'
p470
(lp471
g341
ag379
ag449
ag271
ag81
ag201
ag422
ag323
ag304
ag322
ag37
ag162
ag345
ag315
ag299
ag167
ag227
ag358
ag68
ag320
ag101
ag287
ag270
ag10
ag466
ag146
ag40
ag94
ag111
ag49
ag373
ag435
ag213
ag453
ag342
ag217
ag151
ag253
ag390
ag276
ag8
ag51
ag462
ag74
ag122
ag237
ag382
ag54
ag438
ag239
ag91
ag170
ag282
ag309
ag243
ag57
ag65
ag407
ag75
ag86
ag147
ag437
ag120
ag343
ag331
ag107
ag307
ag295
ag355
ag275
ag36
ag206
ag59
ag362
ag446
ag164
ag319
ag46
ag141
ag294
ag236
ag399
ag336
ag53
ag148
ag125
ag127
ag431
ag450
ag175
ag302
ag397
ag354
ag406
ag311
ag351
ag113
ag427
ag372
ag16
ag143
ag98
ag433
ag278
ag365
ag378
ag393
ag429
ag339
ag267
ag467
ag430
ag119
ag149
ag114
ag115
ag298
ag176
ag318
ag338
ag106
ag215
ag31
ag432
ag460
ag169
ag398
ag140
ag241
ag79
ag62
ag290
ag344
ag95
ag300
ag43
ag367
ag233
ag259
ag93
ag457
ag394
ag283
ag129
ag109
ag99
ag234
ag333
ag178
ag310
ag136
ag88
ag203
ag13
ag280
ag193
ag419
ag375
ag28
ag451
ag434
ag90
ag389
ag330
ag335
ag154
ag370
ag96
ag242
ag29
ag208
ag360
ag443
ag297
ag306
ag444
ag340
ag445
ag21
ag411
ag436
ag413
ag286
ag78
ag102
ag108
ag155
ag289
ag220
ag456
ag145
ag47
ag454
ag82
ag222
ag92
ag412
ag112
ag41
ag205
ag118
ag39
ag371
ag226
ag80
ag63
ag346
ag224
ag416
ag186
ag191
ag229
ag219
ag225
ag381
ag364
ag97
ag349
ag266
ag448
ag447
ag135
ag134
ag264
ag85
ag210
ag421
ag14
ag383
ag139
ag195
ag70
ag180
ag464
ag172
ag417
ag359
ag352
ag124
ag420
ag165
ag126
ag204
ag463
ag314
ag18
ag100
ag200
ag257
ag356
ag277
ag103
ag22
ag395
ag56
ag428
ag465
ag67
ag166
ag159
ag441
ag246
ag303
ag368
ag263
ag194
ag197
ag392
ag327
ag19
ag187
ag174
ag347
ag198
ag400
ag348
ag374
ag415
ag325
ag58
ag117
ag168
ag189
ag179
ag386
ag385
ag384
ag25
ag218
ag440
ag89
ag133
ag73
ag199
ag258
ag44
ag158
ag291
ag156
ag173
ag377
ag153
ag71
ag404
ag442
ag52
ag77
ag64
ag409
ag110
ag418
ag288
ag212
ag254
ag337
ag240
ag326
ag12
ag459
ag357
ag171
ag238
ag353
ag231
ag265
ag177
ag184
ag293
ag150
ag23
ag262
ag183
ag401
ag387
ag35
ag301
ag223
ag285
ag363
ag20
ag61
ag405
ag461
ag123
ag396
ag292
ag138
ag72
ag163
ag251
ag313
ag42
ag34
ag209
ag376
ag455
ag130
ag284
ag458
ag248
ag261
ag230
ag334
ag192
ag260
ag196
ag247
ag132
ag202
ag452
ag69
ag190
ag361
ag423
ag121
ag329
ag131
ag279
ag249
ag45
ag182
ag232
ag332
ag317
ag273
ag161
ag316
ag15
ag308
ag380
ag142
ag214
ag84
ag76
ag274
ag268
ag426
ag211
ag424
ag9
ag38
ag281
ag369
ag60
ag66
ag116
ag144
ag250
ag252
ag403
ag24
ag30
ag244
ag408
ag388
ag235
ag255
ag321
ag50
ag328
ag137
ag366
ag104
ag11
ag152
ag160
ag207
ag324
ag32
ag87
ag305
ag221
ag402
ag296
ag33
ag185
ag157
ag105
ag245
ag17
ag391
ag414
ag83
ag48
ag228
ag26
ag27
ag181
ag350
ag216
ag410
ag312
ag188
ag256
ag55
ag272
ag128
ag425
ag439
ag269
asS'separator'
p472
S'='
sS'sparse'
p473
I01
sb.