ccopy_reg
_reconstructor
p1
(csklearn.feature_extraction.dict_vectorizer
DictVectorizer
p2
c__builtin__
object
p3
NtRp4
(dp5
S'sort'
p6
I01
sS'feature_names_'
p7
(lp8
S'advcl=hear'
p9
aS'advcl=reach'
p10
aS'advmod=ashore'
p11
aS'advmod=away'
p12
aS'advmod=completely'
p13
aS'advmod=here'
p14
aS'advmod=much'
p15
aS'advmod=sometimes'
p16
aS'advmod=then'
p17
aS'advmod=when'
p18
aS'aux=be'
p19
aS'aux=can'
p20
aS'aux=do'
p21
aS'aux=have'
p22
aS'aux=to'
p23
aS'aux=will'
p24
aS'auxpass=be'
p25
aS'auxpass=get'
p26
aS'cc=and'
p27
aS'cc=but'
p28
aS'ccomp=say'
p29
aS'complm=that'
p30
aS'conj=cook'
p31
aS'conj=damage'
p32
aS'conj=dry'
p33
aS'conj=iron'
p34
aS'conj=irrigation'
p35
aS'conj=isolate'
p36
aS'conj=keep'
p37
aS'conj=make'
p38
aS'conj=pray'
p39
aS'conj=sort'
p40
aS'conj=try'
p41
aS'conj=water'
p42
aS'dep=knock'
p43
aS'dep=out'
p44
aS'dobj=#PRP#'
p45
aS'dobj=blood'
p46
aS'dobj=body'
p47
aS'dobj=cattle'
p48
aS'dobj=clothes'
p49
aS'dobj=crop'
p50
aS'dobj=evidence'
p51
aS'dobj=face'
p52
aS'dobj=foot'
p53
aS'dobj=glass'
p54
aS'dobj=hand'
p55
aS'dobj=machine'
p56
aS'dobj=money'
p57
aS'dobj=mud'
p58
aS'dobj=road'
p59
aS'dobj=salesman'
p60
aS'dobj=saucepan'
p61
aS'dobj=station'
p62
aS'dobj=those'
p63
aS'dobj=underwear'
p64
aS'dobj=vegetable'
p65
aS'mark=as'
p66
aS'mark=while'
p67
aS'neg=never'
p68
aS'neg=not'
p69
aS'nsubj=#PRP#'
p70
aS'nsubj=Benedict'
p71
aS'nsubj=Yoni'
p72
aS'nsubj=argument'
p73
aS'nsubj=flood'
p74
aS'nsubj=mother'
p75
aS'nsubj=perspiration'
p76
aS'nsubj=rain'
p77
aS'nsubj=school'
p78
aS'nsubj=system'
p79
aS'nsubj=that'
p80
aS'nsubjpass=all'
p81
aS'nsubjpass=area'
p82
aS'nsubjpass=body'
p83
aS'nsubjpass=crop'
p84
aS'nsubjpass=date'
p85
aS'nsubjpass=egyptian'
p86
aS'nsubjpass=fertilizer'
p87
aS'nsubjpass=house'
p88
aS'nsubjpass=household'
p89
aS'nsubjpass=inroad'
p90
aS'nsubjpass=land'
p91
aS'nsubjpass=raid'
p92
aS'nsubjpass=record'
p93
aS'nsubjpass=road'
p94
aS'nsubjpass=school'
p95
aS'nsubjpass=which'
p96
aS'prep=about'
p97
aS'prep=around'
p98
aS'prep=by'
p99
aS'prep=down'
p100
aS'prep=during'
p101
aS'prep=from'
p102
aS'prep=in'
p103
aS'prep=into'
p104
aS'prep=on'
p105
aS'prep=to'
p106
aS'prep=under'
p107
aS'prep=upon'
p108
aS'prep=with'
p109
aS'prt=away'
p110
aS'prt=down'
p111
aS'prt=off'
p112
aS'prt=out'
p113
aS'prt=up'
p114
aS'rcmod=objective'
p115
aS'w+1=.'
p116
aS'w+1=Chikane'
p117
aS'w+1=and'
p118
aS'w+1=ashore'
p119
aS'w+1=away'
p120
aS'w+1=bin'
p121
aS'w+1=can'
p122
aS'w+1=clothes'
p123
aS'w+1=down'
p124
aS'w+1=face'
p125
aS'w+1=from'
p126
aS'w+1=glass'
p127
aS'w+1=hand'
p128
aS'w+1=he'
p129
aS'w+1=into'
p130
aS'w+1=it'
p131
aS'w+1=machine'
p132
aS'w+1=off'
p133
aS'w+1=one'
p134
aS'w+1=out'
p135
aS'w+1=people'
p136
aS'w+1=saucepan'
p137
aS'w+1=station'
p138
aS'w+1=the'
p139
aS'w+1=they'
p140
aS'w+1=those'
p141
aS'w+1=up'
p142
aS'w+1=upon'
p143
aS'w+1=with'
p144
aS"w+2='s"
p145
aS'w+2=,'
p146
aS'w+2=.'
p147
aS'w+2=a'
p148
aS'w+2=about'
p149
aS'w+2=and'
p150
aS'w+2=around'
p151
aS'w+2=blood'
p152
aS'w+2=by'
p153
aS'w+2=cattle'
p154
aS'w+2=clothes'
p155
aS'w+2=cook'
p156
aS'w+2=crop'
p157
aS'w+2=down'
p158
aS'w+2=dry'
p159
aS'w+2=during'
p160
aS'w+2=forensic'
p161
aS'w+2=hand'
p162
aS'w+2=house'
p163
aS'w+2=in'
p164
aS'w+2=iron'
p165
aS'w+2=irrigation'
p166
aS'w+2=limit'
p167
aS'w+2=many'
p168
aS'w+2=money'
p169
aS'w+2=much'
p170
aS'w+2=off'
p171
aS'w+2=on'
p172
aS'w+2=pray'
p173
aS'w+2=road'
p174
aS'w+2=salesman'
p175
aS'w+2=slay'
p176
aS'w+2=stand'
p177
aS'w+2=the'
p178
aS'w+2=then'
p179
aS'w+2=vegetable'
p180
aS'w+2=with'
p181
aS'w-1=,'
p182
aS'w-1=.'
p183
aS'w-1=100'
p184
aS'w-1=Benedict'
p185
aS'w-1=September'
p186
aS'w-1=Yoni'
p187
aS'w-1=a'
p188
aS'w-1=across'
p189
aS'w-1=also'
p190
aS'w-1=and'
p191
aS'w-1=as'
p192
aS'w-1=be'
p193
aS'w-1=before'
p194
aS'w-1=completely'
p195
aS'w-1=for'
p196
aS'w-1=freshly'
p197
aS'w-1=get'
p198
aS'w-1=hand'
p199
aS'w-1=have'
p200
aS'w-1=help'
p201
aS'w-1=import'
p202
aS'w-1=like'
p203
aS'w-1=man'
p204
aS'w-1=mother'
p205
aS'w-1=never'
p206
aS'w-1=not'
p207
aS'w-1=of'
p208
aS'w-1=on'
p209
aS'w-1=or'
p210
aS'w-1=perspiration'
p211
aS'w-1=she'
p212
aS'w-1=simply'
p213
aS'w-1=special'
p214
aS'w-1=the'
p215
aS'w-1=they'
p216
aS'w-1=this'
p217
aS'w-1=to'
p218
aS'w-1=wave'
p219
aS'w-1=we'
p220
aS'w-2=,'
p221
aS'w-2=.'
p222
aS'w-2=Pope'
p223
aS'w-2=about'
p224
aS'w-2=abuse'
p225
aS'w-2=and'
p226
aS'w-2=as'
p227
aS'w-2=at'
p228
aS'w-2=away'
p229
aS'w-2=bank'
p230
aS'w-2=be'
p231
aS'w-2=begin'
p232
aS'w-2=body'
p233
aS'w-2=bridge'
p234
aS'w-2=bury'
p235
aS'w-2=cooking'
p236
aS'w-2=correctly'
p237
aS'w-2=crop'
p238
aS'w-2=date'
p239
aS'w-2=debris'
p240
aS'w-2=do'
p241
aS'w-2=fertilizer'
p242
aS'w-2=flood'
p243
aS'w-2=from'
p244
aS'w-2=government'
p245
aS'w-2=have'
p246
aS'w-2=he'
p247
aS'w-2=in'
p248
aS'w-2=insecurity'
p249
aS'w-2=insist'
p250
aS'w-2=it'
p251
aS'w-2=latest'
p252
aS'w-2=livestock'
p253
aS'w-2=of'
p254
aS'w-2=only'
p255
aS'w-2=perhaps'
p256
aS'w-2=pilgrim'
p257
aS'w-2=refrigerator'
p258
aS'w-2=river'
p259
aS'w-2=road'
p260
aS'w-2=school'
p261
aS'w-2=she'
p262
aS'w-2=soap'
p263
aS'w-2=sometimes'
p264
aS'w-2=such'
p265
aS'w-2=system'
p266
aS'w-2=to'
p267
aS'w-2=travel'
p268
aS'w-2=up'
p269
aS'w-2=use'
p270
aS'w-2=water'
p271
aS'w-2=when'
p272
aS'w-2=while'
p273
aS'w-2=will'
p274
aS'w-2=young'
p275
aS'xcomp=stand'
p276
asS'dtype'
p277
cnumpy
float64
p278
sS'vocabulary_'
p279
(dp280
g17
I8
sg76
I67
sg212
I203
sg58
I49
sg42
I33
sg82
I73
sg275
I266
sg63
I54
sg169
I160
sg125
I116
sg133
I124
sg74
I65
sg238
I229
sg117
I108
sg116
I107
sg261
I252
sg44
I35
sg256
I247
sg203
I194
sg156
I147
sg199
I190
sg160
I151
sg94
I85
sg166
I157
sg39
I30
sg115
I106
sg59
I50
sg234
I225
sg270
I261
sg73
I64
sg16
I7
sg56
I47
sg184
I175
sg90
I81
sg170
I161
sg242
I233
sg210
I201
sg146
I137
sg226
I217
sg9
I0
sg26
I17
sg202
I193
sg254
I245
sg180
I171
sg62
I53
sg122
I113
sg208
I199
sg236
I227
sg218
I209
sg79
I70
sg99
I90
sg150
I141
sg43
I34
sg142
I133
sg36
I27
sg214
I205
sg97
I88
sg45
I36
sg187
I178
sg241
I232
sg128
I119
sg103
I94
sg13
I4
sg143
I134
sg276
I267
sg186
I177
sg219
I210
sg239
I230
sg21
I12
sg247
I238
sg250
I241
sg230
I221
sg162
I153
sg148
I139
sg144
I135
sg80
I71
sg168
I159
sg244
I235
sg258
I249
sg89
I80
sg108
I99
sg195
I186
sg178
I169
sg274
I265
sg221
I212
sg222
I213
sg109
I100
sg48
I39
sg167
I158
sg71
I62
sg22
I13
sg113
I104
sg33
I24
sg193
I184
sg216
I207
sg121
I112
sg223
I214
sg182
I173
sg206
I197
sg137
I128
sg131
I122
sg171
I162
sg267
I258
sg119
I110
sg248
I239
sg228
I219
sg227
I218
sg75
I66
sg260
I251
sg53
I44
sg251
I242
sg190
I181
sg155
I146
sg77
I68
sg12
I3
sg158
I149
sg233
I224
sg35
I26
sg173
I164
sg107
I98
sg127
I118
sg124
I115
sg161
I152
sg136
I127
sg152
I143
sg183
I174
sg134
I125
sg262
I253
sg40
I31
sg188
I179
sg10
I1
sg200
I191
sg29
I20
sg96
I87
sg189
I180
sg85
I76
sg54
I45
sg88
I79
sg83
I74
sg164
I155
sg66
I57
sg217
I208
sg225
I216
sg64
I55
sg87
I78
sg194
I185
sg211
I202
sg255
I246
sg57
I48
sg237
I228
sg126
I117
sg273
I264
sg68
I59
sg49
I40
sg41
I32
sg25
I16
sg20
I11
sg30
I21
sg98
I89
sg174
I165
sg93
I84
sg91
I82
sg46
I37
sg61
I52
sg37
I28
sg249
I240
sg151
I142
sg179
I170
sg246
I237
sg181
I172
sg27
I18
sg11
I2
sg15
I6
sg18
I9
sg153
I144
sg106
I97
sg120
I111
sg32
I23
sg243
I234
sg231
I222
sg95
I86
sg28
I19
sg140
I131
sg177
I168
sg145
I136
sg141
I132
sg272
I263
sg259
I250
sg50
I41
sg132
I123
sg110
I101
sg51
I42
sg213
I204
sg159
I150
sg70
I61
sg176
I167
sg102
I93
sg197
I188
sg55
I46
sg269
I260
sg65
I56
sg112
I103
sg100
I91
sg215
I206
sg130
I121
sg220
I211
sg23
I14
sg264
I255
sg252
I243
sg229
I220
sg154
I145
sg47
I38
sg31
I22
sg38
I29
sg198
I189
sg263
I254
sg201
I192
sg118
I109
sg34
I25
sg78
I69
sg72
I63
sg67
I58
sg266
I257
sg196
I187
sg19
I10
sg185
I176
sg135
I126
sg147
I138
sg205
I196
sg265
I256
sg175
I166
sg172
I163
sg165
I156
sg139
I130
sg69
I60
sg224
I215
sg240
I231
sg257
I248
sg101
I92
sg138
I129
sg191
I182
sg245
I236
sg114
I105
sg14
I5
sg104
I95
sg157
I148
sg232
I223
sg92
I83
sg209
I200
sg52
I43
sg253
I244
sg207
I198
sg111
I102
sg271
I262
sg149
I140
sg129
I120
sg192
I183
sg60
I51
sg105
I96
sg81
I72
sg86
I77
sg24
I15
sg123
I114
sg163
I154
sg235
I226
sg204
I195
sg84
I75
sg268
I259
ssS'separator'
p281
S'='
sS'sparse'
p282
I01
sb.