ccopy_reg
_reconstructor
p1
(csklearn.feature_extraction.dict_vectorizer
DictVectorizer
p2
c__builtin__
object
p3
NtRp4
(dp5
S'sort'
p6
I01
sS'feature_names_'
p7
(lp8
S'advcl=of'
p9
aS'advmod=severely'
p10
aS'aux=have'
p11
aS'dobj=Hezbollah'
p12
aS'dobj=Lalibela'
p13
aS'dobj=delegate'
p14
aS'dobj=parent'
p15
aS'nsubj=Speaker'
p16
aS'nsubj=police'
p17
aS'prep=for'
p18
aS'w+1=Hezbollah'
p19
aS'w+1=King'
p20
aS'w+1=the'
p21
aS'w+2=Hezbollah'
p22
aS'w+2=Lalibela'
p23
aS'w+2=and'
p24
aS'w+2=delegate'
p25
aS'w+2=parent'
p26
aS'w-1=,'
p27
aS'w-1=and'
p28
aS'w-1=police'
p29
aS'w-1=severely'
p30
aS'w-2=coalition'
p31
aS'w-2=have'
p32
aS'w-2=the'
p33
aS'w-2=world'
p34
asS'dtype'
p35
cnumpy
float64
p36
sS'vocabulary_'
p37
(dp38
g25
I16
sg20
I11
sg34
I25
sg10
I1
sg16
I7
sg12
I3
sg11
I2
sg23
I14
sg13
I4
sg29
I20
sg27
I18
sg32
I23
sg33
I24
sg22
I13
sg28
I19
sg21
I12
sg26
I17
sg31
I22
sg30
I21
sg17
I8
sg19
I10
sg24
I15
sg9
I0
sg18
I9
sg15
I6
sg14
I5
ssS'separator'
p39
S'='
sS'sparse'
p40
I01
sb.