ccopy_reg
_reconstructor
p1
(csklearn.feature_extraction.dict_vectorizer
DictVectorizer
p2
c__builtin__
object
p3
NtRp4
(dp5
S'sort'
p6
I01
sS'feature_names_'
p7
(lp8
S'advcl=busy'
p9
aS'advcl=declare'
p10
aS'advcl=resume'
p11
aS'advcl=willing'
p12
aS'advmod=ahead'
p13
aS'advmod=also'
p14
aS'advmod=anxiously'
p15
aS'advmod=currently'
p16
aS'advmod=eagerly'
p17
aS'advmod=mostly'
p18
aS'advmod=now'
p19
aS'advmod=still'
p20
aS'advmod=there'
p21
aS'advmod=where'
p22
aS"aux='ll"
p23
aS'aux=be'
p24
aS'aux=do'
p25
aS'aux=must'
p26
aS'aux=to'
p27
aS'aux=will'
p28
aS'aux=would'
p29
aS'auxpass=be'
p30
aS'cc=and'
p31
aS'cc=but'
p32
aS'complm=that'
p33
aS'conj=hopeful'
p34
aS'dep=say'
p35
aS'dobj=#PRP#'
p36
aS'dobj=Rice'
p37
aS'dobj=action'
p38
aS'dobj=anyone'
p39
aS'dobj=approval'
p40
aS'dobj=aresponse'
p41
aS'dobj=arrangement'
p42
aS'dobj=christian'
p43
aS'dobj=clearance'
p44
aS'dobj=crop'
p45
aS'dobj=death'
p46
aS'dobj=delivery'
p47
aS'dobj=deportation'
p48
aS'dobj=discovery'
p49
aS'dobj=execution'
p50
aS'dobj=finding'
p51
aS'dobj=folk'
p52
aS'dobj=food'
p53
aS'dobj=harvest'
p54
aS'dobj=hearing'
p55
aS'dobj=implementation'
p56
aS'dobj=judgment'
p57
aS'dobj=medic'
p58
aS'dobj=mission'
p59
aS'dobj=move'
p60
aS'dobj=news'
p61
aS'dobj=next'
p62
aS'dobj=order'
p63
aS'dobj=outcome'
p64
aS'dobj=period'
p65
aS'dobj=president'
p66
aS'dobj=prosecution'
p67
aS'dobj=reaction'
p68
aS'dobj=recommendation'
p69
aS'dobj=report'
p70
aS'dobj=rescue'
p71
aS'dobj=resolution'
p72
aS'dobj=response'
p73
aS'dobj=result'
p74
aS'dobj=return'
p75
aS'dobj=ruling'
p76
aS'dobj=sentence'
p77
aS'dobj=signature'
p78
aS'dobj=speech'
p79
aS'dobj=start'
p80
aS'dobj=transfer'
p81
aS'dobj=transplant'
p82
aS'dobj=treatment'
p83
aS'dobj=trial'
p84
aS'dobj=verdict'
p85
aS'dobj=warrant'
p86
aS'mark=as'
p87
aS'mark=because'
p88
aS'mark=in'
p89
aS'mark=while'
p90
aS'nsubj=#PRP#'
p91
aS'nsubj=Bemba'
p92
aS'nsubj=Bossman'
p93
aS'nsubj=Congress'
p94
aS'nsubj=East'
p95
aS'nsubj=Obama'
p96
aS'nsubj=Parvanov'
p97
aS'nsubj=Taylor'
p98
aS'nsubj=Washington'
p99
aS'nsubj=administration'
p100
aS'nsubj=country'
p101
aS'nsubj=embassy'
p102
aS'nsubj=fan'
p103
aS'nsubj=fate'
p104
aS'nsubj=father'
p105
aS'nsubj=glory'
p106
aS'nsubj=leader'
p107
aS'nsubj=love'
p108
aS'nsubj=many'
p109
aS'nsubj=member'
p110
aS'nsubj=membership'
p111
aS'nsubj=other'
p112
aS'nsubj=people'
p113
aS'nsubj=reform'
p114
aS'nsubj=strategy'
p115
aS'nsubj=suspect'
p116
aS'nsubj=that'
p117
aS'nsubj=warm'
p118
aS'nsubj=well-wisher'
p119
aS'nsubj=who'
p120
aS'nsubj=world'
p121
aS'nsubj=worth'
p122
aS'nsubj=zimbabwean'
p123
aS'nsubjpass=#PRP#'
p124
aS'nsubjpass=benefit'
p125
aS'partmod=outline'
p126
aS'prep=across'
p127
aS'prep=before'
p128
aS'prep=by'
p129
aS'prep=for'
p130
aS'prep=from'
p131
aS'prep=if'
p132
aS'prep=in'
p133
aS'prep=include'
p134
aS'prep=on'
p135
aS'prep=to'
p136
aS'prep=with'
p137
aS'tmod=#NUMBER#'
p138
aS'tmod=day'
p139
aS'tmod=night'
p140
aS'w+1=,'
p141
aS'w+1=.'
p142
aS'w+1=Ms.'
p143
aS'w+1=Senate'
p144
aS'w+1=a'
p145
aS'w+1=action'
p146
aS'w+1=anyone'
p147
aS'w+1=aresponse'
p148
aS'w+1=arrangement'
p149
aS'w+1=by'
p150
aS'w+1=clearance'
p151
aS'w+1=death'
p152
aS'w+1=deportation'
p153
aS'w+1=execution'
p154
aS'w+1=food'
p155
aS'w+1=formal'
p156
aS'w+1=harvest'
p157
aS'w+1=he'
p158
aS'w+1=hearing'
p159
aS'w+1=if'
p160
aS'w+1=its'
p161
aS'w+1=kidney'
p162
aS'w+1=medical'
p163
aS'w+1=news'
p164
aS'w+1=order'
p165
aS'w+1=prosecution'
p166
aS'w+1=quiet'
p167
aS'w+1=reaction'
p168
aS'w+1=recommendation'
p169
aS'w+1=report'
p170
aS'w+1=rescue'
p171
aS'w+1=revolution'
p172
aS'w+1=speech'
p173
aS'w+1=the'
p174
aS'w+1=they'
p175
aS'w+1=to'
p176
aS'w+1=transfer'
p177
aS'w+1=transplant'
p178
aS'w+1=trial'
p179
aS'w+1=two'
p180
aS'w+1=we'
p181
aS"w+2=''"
p182
aS'w+2=,'
p183
aS'w+2=.'
p184
aS'w+2=Rice'
p185
aS'w+2=Turkey'
p186
aS'w+2=across'
p187
aS'w+2=action'
p188
aS'w+2=and'
p189
aS'w+2=appeal'
p190
aS'w+2=approval'
p191
aS'w+2=be'
p192
aS'w+2=between'
p193
aS'w+2=book'
p194
aS'w+2=busy'
p195
aS'w+2=but'
p196
aS'w+2=by'
p197
aS'w+2=christian'
p198
aS'w+2=construction'
p199
aS'w+2=court'
p200
aS'w+2=discovery'
p201
aS'w+2=election'
p202
aS'w+2=final'
p203
aS'w+2=finding'
p204
aS'w+2=first'
p205
aS'w+2=folk'
p206
aS'w+2=for'
p207
aS'w+2=from'
p208
aS'w+2=full'
p209
aS'w+2=in'
p210
aS'w+2=know'
p211
aS'w+2=long'
p212
aS'w+2=medic'
p213
aS'w+2=next'
p214
aS'w+2=of'
p215
aS'w+2=on'
p216
aS'w+2=or'
p217
aS'w+2=outcome'
p218
aS'w+2=outgoing'
p219
aS'w+2=president'
p220
aS'w+2=recommendation'
p221
aS'w+2=resolution'
p222
aS'w+2=response'
p223
aS'w+2=result'
p224
aS'w+2=resumption'
p225
aS'w+2=return'
p226
aS'w+2=ruling'
p227
aS'w+2=sentence'
p228
aS'w+2=start'
p229
aS'w+2=transplant'
p230
aS'w+2=treatment'
p231
aS'w+2=trial'
p232
aS'w+2=warrant'
p233
aS'w+2=who'
p234
aS'w+2=wide-ranging'
p235
aS"w-1='ll"
p236
aS'w-1=,'
p237
aS'w-1=Bossman'
p238
aS'w-1=Mexicans'
p239
aS'w-1=Parvanov'
p240
aS'w-1=also'
p241
aS'w-1=and'
p242
aS'w-1=anxiously'
p243
aS'w-1=atmosphere'
p244
aS'w-1=be'
p245
aS'w-1=believe'
p246
aS'w-1=discussion'
p247
aS'w-1=do'
p248
aS'w-1=eagerly'
p249
aS'w-1=fate'
p250
aS'w-1=father'
p251
aS'w-1=future'
p252
aS'w-1=glory'
p253
aS'w-1=hague'
p254
aS'w-1=he'
p255
aS'w-1=it'
p256
aS'w-1=jail'
p257
aS'w-1=long'
p258
aS'w-1=love'
p259
aS'w-1=much'
p260
aS'w-1=must'
p261
aS'w-1=not'
p262
aS'w-1=now'
p263
aS'w-1=only'
p264
aS'w-1=people'
p265
aS'w-1=prison'
p266
aS'w-1=spend'
p267
aS'w-1=still'
p268
aS'w-1=that'
p269
aS'w-1=they'
p270
aS'w-1=to'
p271
aS'w-1=tranquility'
p272
aS'w-1=welcome'
p273
aS'w-1=well-wisher'
p274
aS'w-1=while'
p275
aS'w-1=will'
p276
aS'w-1=world'
p277
aS'w-1=would'
p278
aS'w-1=year'
p279
aS'w-2=,'
p280
aS'w-2=.'
p281
aS'w-2=95,000'
p282
aS'w-2=Congress'
p283
aS'w-2=Creek'
p284
aS'w-2=East'
p285
aS'w-2=Georgi'
p286
aS'w-2=Korea'
p287
aS'w-2=Obama'
p288
aS'w-2=Washington'
p289
aS'w-2=a'
p290
aS'w-2=administration'
p291
aS'w-2=and'
p292
aS'w-2=as'
p293
aS'w-2=be'
p294
aS'w-2=border'
p295
aS'w-2=but'
p296
aS'w-2=country'
p297
aS'w-2=danger'
p298
aS'w-2=embassy'
p299
aS'w-2=fan'
p300
aS'w-2=for'
p301
aS'w-2=from'
p302
aS'w-2=go'
p303
aS'w-2=hague'
p304
aS'w-2=have'
p305
aS'w-2=he'
p306
aS'w-2=hopeful'
p307
aS'w-2=illness'
p308
aS'w-2=in'
p309
aS'w-2=leader'
p310
aS'w-2=member'
p311
aS'w-2=membership'
p312
aS'w-2=month'
p313
aS'w-2=need'
p314
aS'w-2=of'
p315
aS'w-2=only'
p316
aS'w-2=or'
p317
aS'w-2=other'
p318
aS'w-2=people'
p319
aS'w-2=procedure'
p320
aS'w-2=promising'
p321
aS'w-2=same'
p322
aS'w-2=say'
p323
aS'w-2=she'
p324
aS'w-2=still'
p325
aS'w-2=suspect'
p326
aS'w-2=the'
p327
aS'w-2=they'
p328
aS'w-2=this'
p329
aS'w-2=three-thousand'
p330
aS'w-2=to'
p331
aS'w-2=true'
p332
aS'w-2=warm'
p333
aS'w-2=we'
p334
aS'w-2=which'
p335
aS'w-2=while'
p336
aS'w-2=who'
p337
aS'w-2=wife'
p338
aS'xcomp=know'
p339
asS'dtype'
p340
cnumpy
float64
p341
sS'vocabulary_'
p342
(dp343
g102
I93
sg252
I243
sg272
I263
sg128
I119
sg235
I226
sg209
I200
sg168
I159
sg338
I329
sg22
I13
sg191
I182
sg165
I156
sg228
I219
sg141
I132
sg288
I279
sg200
I191
sg304
I295
sg61
I52
sg334
I325
sg291
I282
sg319
I310
sg167
I158
sg43
I34
sg24
I15
sg80
I71
sg152
I143
sg69
I60
sg56
I47
sg153
I144
sg157
I148
sg251
I242
sg296
I287
sg193
I184
sg339
I330
sg214
I205
sg315
I306
sg243
I234
sg208
I199
sg38
I29
sg134
I125
sg151
I142
sg218
I209
sg101
I92
sg83
I74
sg81
I72
sg66
I57
sg267
I258
sg100
I91
sg317
I308
sg60
I51
sg120
I111
sg262
I253
sg35
I26
sg335
I326
sg314
I305
sg176
I167
sg328
I319
sg271
I262
sg227
I218
sg149
I140
sg129
I120
sg189
I180
sg109
I100
sg292
I283
sg237
I228
sg297
I288
sg92
I83
sg260
I251
sg274
I265
sg307
I298
sg54
I45
sg160
I151
sg36
I27
sg205
I196
sg127
I118
sg133
I124
sg278
I269
sg98
I89
sg90
I81
sg37
I28
sg327
I318
sg41
I32
sg25
I16
sg79
I70
sg306
I297
sg253
I244
sg206
I197
sg187
I178
sg53
I44
sg223
I214
sg21
I12
sg28
I19
sg333
I324
sg119
I110
sg10
I1
sg233
I224
sg19
I10
sg34
I25
sg122
I113
sg302
I293
sg15
I6
sg194
I185
sg316
I307
sg275
I266
sg188
I179
sg276
I267
sg280
I271
sg281
I272
sg154
I145
sg250
I241
sg215
I206
sg158
I149
sg202
I193
sg282
I273
sg138
I129
sg325
I316
sg240
I231
sg326
I317
sg285
I276
sg126
I117
sg245
I236
sg185
I176
sg295
I286
sg172
I163
sg63
I54
sg336
I327
sg179
I170
sg173
I164
sg121
I112
sg55
I46
sg107
I98
sg293
I284
sg299
I290
sg18
I9
sg164
I155
sg303
I294
sg115
I106
sg40
I31
sg318
I309
sg156
I147
sg88
I79
sg180
I171
sg337
I328
sg265
I256
sg222
I213
sg190
I181
sg131
I122
sg47
I38
sg162
I153
sg219
I210
sg96
I87
sg181
I172
sg290
I281
sg125
I116
sg324
I315
sg95
I86
sg130
I121
sg76
I67
sg169
I160
sg199
I190
sg238
I229
sg171
I162
sg231
I222
sg166
I157
sg144
I135
sg86
I77
sg247
I238
sg45
I36
sg65
I56
sg48
I39
sg182
I173
sg210
I201
sg87
I78
sg255
I246
sg147
I138
sg204
I195
sg14
I5
sg226
I217
sg77
I68
sg52
I43
sg234
I225
sg39
I30
sg64
I55
sg42
I33
sg112
I103
sg30
I21
sg33
I24
sg118
I109
sg111
I102
sg254
I245
sg12
I3
sg236
I227
sg213
I204
sg246
I237
sg232
I223
sg51
I42
sg170
I161
sg320
I311
sg331
I322
sg261
I252
sg196
I187
sg31
I22
sg46
I37
sg221
I212
sg20
I11
sg259
I250
sg82
I73
sg16
I7
sg225
I216
sg174
I165
sg212
I203
sg150
I141
sg11
I2
sg99
I90
sg239
I230
sg312
I303
sg301
I292
sg192
I183
sg27
I18
sg175
I166
sg70
I61
sg68
I59
sg273
I264
sg59
I50
sg220
I211
sg132
I123
sg124
I115
sg329
I320
sg50
I41
sg241
I232
sg163
I154
sg29
I20
sg155
I146
sg161
I152
sg305
I296
sg283
I274
sg310
I301
sg323
I314
sg108
I99
sg67
I58
sg91
I82
sg244
I235
sg85
I76
sg13
I4
sg248
I239
sg178
I169
sg332
I323
sg9
I0
sg44
I35
sg23
I14
sg136
I127
sg103
I94
sg298
I289
sg286
I277
sg32
I23
sg140
I131
sg143
I134
sg287
I278
sg277
I268
sg49
I40
sg135
I126
sg198
I189
sg264
I255
sg97
I88
sg309
I300
sg268
I259
sg73
I64
sg266
I257
sg270
I261
sg313
I304
sg74
I65
sg106
I97
sg258
I249
sg308
I299
sg84
I75
sg195
I186
sg142
I133
sg207
I198
sg105
I96
sg311
I302
sg184
I175
sg229
I220
sg183
I174
sg139
I130
sg216
I207
sg110
I101
sg57
I48
sg58
I49
sg186
I177
sg117
I108
sg256
I247
sg26
I17
sg75
I66
sg242
I233
sg146
I137
sg177
I168
sg113
I104
sg300
I291
sg249
I240
sg93
I84
sg137
I128
sg148
I139
sg217
I208
sg114
I105
sg94
I85
sg279
I270
sg145
I136
sg263
I254
sg294
I285
sg78
I69
sg321
I312
sg230
I221
sg224
I215
sg330
I321
sg104
I95
sg71
I62
sg322
I313
sg203
I194
sg197
I188
sg284
I275
sg269
I260
sg257
I248
sg116
I107
sg72
I63
sg17
I8
sg201
I192
sg211
I202
sg62
I53
sg289
I280
sg123
I114
sg89
I80
sg159
I150
ssS'separator'
p344
S'='
sS'sparse'
p345
I01
sb.