ccopy_reg
_reconstructor
p1
(csklearn.feature_extraction.dict_vectorizer
DictVectorizer
p2
c__builtin__
object
p3
NtRp4
(dp5
S'vocabulary_'
p6
(dp7
S'dobj=landmark'
p8
I92
sS'nsubj=part'
p9
I147
sS'w+2=reconcile'
p10
I321
sS'advcl=erupt'
p11
I5
sS'w-2=billion'
p12
I426
sS'w-2=we'
p13
I518
sS'dobj=marketplace'
p14
I94
sS'dobj=much'
p15
I96
sS'w+2=between'
p16
I274
sS'w+1=part'
p17
I231
sS'w-1=certainly'
p18
I368
sS'w+2=but'
p19
I277
sS'nsubj=al-qaida'
p20
I140
sS'dobj=water'
p21
I120
sS'w+1=Iraq'
p22
I194
sS'nsubj=al-Qaida'
p23
I139
sS'w-2=they'
p24
I504
sS'prep=than'
p25
I181
sS'prep=by'
p26
I173
sS'prep=between'
p27
I172
sS'w+1=worker'
p28
I250
sS'w+1=that'
p29
I238
sS'w+2=transatlantic'
p30
I340
sS'conj=rebuild'
p31
I47
sS'nsubj=government'
p32
I145
sS'w-2=not'
p33
I470
sS'w-1=ally'
p34
I361
sS'ccomp=spend'
p35
I34
sS'w-1=say'
p36
I389
sS'w+2=base'
p37
I272
sS'dobj=industry'
p38
I90
sS'w-2=mine'
p39
I466
sS'w+2=foundation'
p40
I294
sS'w+2=often'
p41
I311
sS'w-2=focus'
p42
I447
sS'w+1=village'
p43
I246
sS'w+2=several'
p44
I325
sS'tmod=year'
p45
I186
sS'w-1=will'
p46
I396
sS'conj=encourage'
p47
I40
sS'w-1=Iraq'
p48
I355
sS"w+2=shi'ite"
p49
I327
sS'dobj=effort'
p50
I81
sS'w-1=be'
p51
I365
sS'w-2=cost'
p52
I435
sS'w-2=family'
p53
I445
sS'w-2=the'
p54
I503
sS'advcl=come'
p55
I2
sS'w-2=resource'
p56
I485
sS'w+1=korean'
p57
I227
sS'mark=because'
p58
I123
sS'w+2=country'
p59
I280
sS'conj=vaccinate'
p60
I53
sS'dobj=tier'
p61
I115
sS'w+2=to'
p62
I338
sS'w-2=important'
p63
I456
sS'nsubj=survivor'
p64
I150
sS'w-2=process'
p65
I475
sS'w-1=have'
p66
I377
sS'w+2=fail'
p67
I291
sS'w+2=in'
p68
I301
sS'w+2=it'
p69
I303
sS'w-2=hope'
p70
I454
sS'w-2=spend'
p71
I495
sS'w-1=could'
p72
I371
sS'aux=can'
p73
I23
sS'complm=that'
p74
I36
sS'w+1=where'
p75
I249
sS'tmod=month'
p76
I185
sS'dobj=area'
p77
I69
sS'w-2=until'
p78
I510
sS'dep=order'
p79
I58
sS'nsubj=Somalia'
p80
I136
sS'w-2=effort'
p81
I443
sS'w-2=that'
p82
I502
sS'w+1=the'
p83
I239
sS'w+2=aging'
p84
I266
sS'w+2=home'
p85
I297
sS'w+2=failed'
p86
I292
sS'w+1=they'
p87
I240
sS'w+1=those'
p88
I242
sS'prep=as'
p89
I170
sS'w+2=russian'
p90
I323
sS'prep=in'
p91
I177
sS'w-1=about'
p92
I359
sS'dobj=military'
p93
I95
sS'w+2=mostly'
p94
I308
sS'advmod=yet'
p95
I21
sS'w-1=community'
p96
I370
sS'advcl=busy'
p97
I1
sS'prep=to'
p98
I182
sS'w-1=at'
p99
I364
sS'w+2=sense'
p100
I324
sS'w-1=still'
p101
I391
sS'w+1=and'
p102
I202
sS'w-2=material'
p103
I463
sS'dobj=base'
p104
I70
sS'nsubj=Liberia'
p105
I135
sS'w+2=for'
p106
I293
sS'w-2=responsibility'
p107
I486
sS'w+1=bridge'
p108
I208
sS'w+2=tribal'
p109
I341
sS'w-2=government'
p110
I449
sS'nsubj=Kenya'
p111
I134
sS'w-1=in'
p112
I380
sS'w-2=help'
p113
I453
sS'nsubjpass=need'
p114
I161
sS'w-2=Weitz'
p115
I406
sS'w-2=attention'
p116
I418
sS'ccomp=ravage'
p117
I33
sS'dobj=sense'
p118
I106
sS'w+2=house'
p119
I299
sS'mark=in'
p120
I124
sS'w+2=bridge'
p121
I275
sS'w-2=work'
p122
I522
sS'w-2=voluntarily'
p123
I514
sS'w-2=750'
p124
I401
sS'dobj=city'
p125
I73
sS'ccomp=want'
p126
I35
sS'nsubjpass=road'
p127
I162
sS'w-2=community'
p128
I433
sS'dobj=country'
p129
I78
sS'w-2=use'
p130
I512
sS'w+2=battered'
p131
I273
sS'w-1=citizen'
p132
I369
sS'w+2=other'
p133
I315
sS'dobj=support'
p134
I111
sS'w-2=or'
p135
I472
sS'prep=along'
p136
I169
sS'nsubj=who'
p137
I154
sS'w-2=progress'
p138
I477
sS'xcomp=implement'
p139
I524
sS'w-2=have'
p140
I451
sS'w-2=country'
p141
I436
sS'w-1=to'
p142
I393
sS'w+2=credibility'
p143
I281
sS'dobj=#PRP#'
p144
I61
sS'dep=fray'
p145
I56
sS'dobj=facility'
p146
I82
sS'w-1=actually'
p147
I360
sS'w-1=easily'
p148
I374
sS'w-2=ability'
p149
I407
sS'w+2=surveillance'
p150
I333
sS'w+2=middle'
p151
I306
sS'w+2=ravage'
p152
I320
sS'w-2=protect'
p153
I478
sS'w-2=take'
p154
I499
sS'w+1=as'
p155
I204
sS'w+1=at'
p156
I205
sS'dobj=cooperation'
p157
I77
sS'w-2=scrap'
p158
I492
sS'w+2=Red'
p159
I261
sS'w+1=he'
p160
I219
sS'w+1=from'
p161
I218
sS'conj=give'
p162
I42
sS'w-2=again'
p163
I410
sS'nsubjpass=that'
p164
I164
sS'w-1=can'
p165
I367
sS'w-2=challenge'
p166
I430
sS'w-2=able'
p167
I408
sS'w-2=chance'
p168
I431
sS'w-1=with'
p169
I397
sS'w-2=continue'
p170
I434
sS'w+1=Afghanistan'
p171
I191
sS'w+2=own'
p172
I317
sS'advmod=easily'
p173
I11
sS'dobj=Georgia'
p174
I65
sS'w-2=rights'
p175
I489
sS'w-2=recently'
p176
I482
sS'prep=for'
p177
I175
sS'dep=that'
p178
I59
sS'w+1=we'
p179
I248
sS'w-2=together'
p180
I506
sS'w+2=whole'
p181
I346
sS'w+2=oil'
p182
I312
sS'w-2=start'
p183
I496
sS'w-1=--'
p184
I351
sS'w+1=tie'
p185
I243
sS'w+2=as'
p186
I271
sS'prep=despite'
p187
I174
sS'w+2=state'
p188
I329
sS'nsubjpass=bridge'
p189
I156
sS'auxpass=be'
p190
I28
sS'conj=restore'
p191
I48
sS'w-1=newcomer'
p192
I383
sS'dobj=community'
p193
I75
sS'w-2=United'
p194
I405
sS'advmod=still'
p195
I18
sS'advmod=much'
p196
I15
sS'conj=stabilize'
p197
I51
sS'advcl=strike'
p198
I9
sS'nsubj=effort'
p199
I144
sS'w+2=decade'
p200
I282
sS'w+1=confidence'
p201
I209
sS'w-2=fight'
p202
I446
sS'w+1=its'
p203
I224
sS'dobj=bridge'
p204
I71
sS'dobj=tissue'
p205
I116
sS'w+2=with'
p206
I347
sS'w+1=much'
p207
I230
sS'conj=achieve'
p208
I37
sS'w+2=Orleans'
p209
I260
sS'conj=park'
p210
I45
sS'w-2=charge'
p211
I432
sS'w-1=organize'
p212
I387
sS'w-2=most'
p213
I468
sS'w+2=public'
p214
I319
sS'w+2=year'
p215
I348
sS'w+2=emerge'
p216
I288
sS'w-2=stock'
p217
I497
sS'w-2=allow'
p218
I413
sS'w+2=or'
p219
I314
sS'dobj=government'
p220
I85
sS'nsubj=States'
p221
I137
sS'w+1=four'
p222
I216
sS'w+2=yet'
p223
I349
sS'w-2=related'
p224
I484
sS'w-1=and'
p225
I362
sS'w-1=Somalia'
p226
I357
sS'w+2=facility'
p227
I290
sS'w-2=demolish'
p228
I438
sS'w-2=struggle'
p229
I498
sS'w+1=Georgia'
p230
I193
sS'conj=carry'
p231
I39
sS'w+2=story'
p232
I330
sS'w+2=area'
p233
I270
sS'nsubjpass=Halabja'
p234
I155
sS'w-2=boost'
p235
I427
sS'prep=without'
p236
I184
sS'w-2=attempt'
p237
I417
sS'w-1=cyclone'
p238
I373
sS'w+1=tsunami-stricken'
p239
I245
sS'w+1=effort'
p240
I214
sS'w+2=September'
p241
I262
sS"w-2='s"
p242
I398
sS'w+2=element'
p243
I287
sS'w+1=PNTL'
p244
I197
sS'dobj=temple'
p245
I113
sS'w-2=mean'
p246
I464
sS'xcomp=help'
p247
I523
sS'conj=return'
p248
I50
sS'xcomp=program'
p249
I525
sS'w+1=local'
p250
I229
sS'w+2=entire'
p251
I289
sS'w-2=al-Qaida'
p252
I412
sS'w-2=terrorist'
p253
I501
sS'dobj=confidence'
p254
I76
sS'nsubj=stock'
p255
I149
sS'w-2=Liberia'
p256
I403
sS'dobj=outpost'
p257
I99
sS'dobj=tie'
p258
I114
sS'w-2=individual'
p259
I458
sS'w+1=since'
p260
I234
sS'w+1=between'
p261
I207
sS'advmod=even'
p262
I12
sS'w-2=back'
p263
I419
sS'advmod=there'
p264
I19
sS'w-2=reach'
p265
I481
sS'dobj=home'
p266
I86
sS'mark=while'
p267
I126
sS'w-2=return'
p268
I487
sS'aux=will'
p269
I27
sS'w+2=new'
p270
I309
sS'w+2=apparatus'
p271
I269
sS'w-2=tool'
p272
I507
sS'nsubj=people'
p273
I148
sS'prep=with'
p274
I183
sS'w+2=military'
p275
I307
sS'nsubj=community'
p276
I142
sS'dobj=relation'
p277
I103
sS'nsubj=agency'
p278
I138
sS'w-2=in'
p279
I457
sS'dobj=coast'
p280
I74
sS'w-2=recover'
p281
I483
sS'dobj=force'
p282
I83
sS'w-2=plan'
p283
I474
sS'w-2=iraqi'
p284
I459
sS'w-1=toward'
p285
I394
sS'w+2=consume'
p286
I279
sS'w+1=area'
p287
I203
sS'dobj=village'
p288
I119
sS'w-2=best'
p289
I425
sS'w+2=disaster'
p290
I285
sS'conj=with'
p291
I54
sS'w-2=order'
p292
I473
sS'w-2=little'
p293
I461
sS'w-2=mosque'
p294
I467
sS'w-1=States'
p295
I358
sS'w+2=hope'
p296
I298
sS'nsubjpass=nation'
p297
I160
sS'w-2=determine'
p298
I439
sS'w-2=environment'
p299
I444
sS'w+2=impoverished'
p300
I300
sS'ccomp=allow'
p301
I31
sS'nsubj=newcomer'
p302
I146
sS"w+2=''"
p303
I252
sS'nsubj=country'
p304
I143
sS'w+2=war-torn'
p305
I345
sS'nsubj=$'
p306
I129
sS'w+1=Congo'
p307
I192
sS'w-2=revenue'
p308
I488
sS'w+1=critical'
p309
I211
sS'dobj=life'
p310
I93
sS'nsubjpass=country'
p311
I157
sS'w-2=program'
p312
I476
sS'dobj=Iraq'
p313
I66
sS'w+2=Ground'
p314
I257
sS'cc=and'
p315
I29
sS'w+1=Aceh'
p316
I190
sS'w-2=village'
p317
I513
sS'dobj=province'
p318
I102
sS'nsubjpass=town'
p319
I165
sS'w+1=be'
p320
I206
sS'w+2=community'
p321
I278
sS'w-2=provision'
p322
I479
sS'w+2=war-devastated'
p323
I343
sS"w+2='s"
p324
I253
sS'w+1=trust'
p325
I244
sS'w-1=people'
p326
I388
sS'w-1=Haiti'
p327
I354
sS'w+1=home'
p328
I220
sS'w+1=state'
p329
I236
sS'w+2=economy'
p330
I286
sS'w+1=in'
p331
I221
sS'w-2=task'
p332
I500
sS'w-2=tower'
p333
I508
sS'w+1=it'
p334
I223
sS'mark=until'
p335
I125
sS'nsubj=#PRP#'
p336
I128
sS'w+1=New'
p337
I196
sS"w+1=''"
p338
I187
sS'cc=but'
p339
I30
sS'w-2=role'
p340
I490
sS'w-2=quickly'
p341
I480
sS'w-2=up'
p342
I511
sS'dobj=#NUMBER#'
p343
I60
sS'w-1=help'
p344
I379
sS'dobj=impoverished'
p345
I89
sS'aux=could'
p346
I24
sS'w+2=war-shattered'
p347
I344
sS'dobj=trust'
p348
I118
sS'w-2=assistance'
p349
I416
sS'w-2=speak'
p350
I494
sS'dep=if'
p351
I57
sS'dobj=state'
p352
I109
sS'w+1=along'
p353
I201
sS'conj=provide'
p354
I46
sS'w-2=begin'
p355
I423
sS'nsubj=terrorist'
p356
I152
sS'w-2=ruin'
p357
I491
sS'w+1=infrastructure'
p358
I222
sS'w-1=country'
p359
I372
sS'dobj=business'
p360
I72
sS'w-2=be'
p361
I421
sS'w+2=landmark'
p362
I304
sS'prep=of'
p363
I179
sS'advcl=end'
p364
I4
sS'w-2=mediator'
p365
I465
sS'w+1=facility'
p366
I215
sS'mark=after'
p367
I121
sS'nsubjpass=some'
p368
I163
sS'w-2=need'
p369
I469
sS'dobj=shrine'
p370
I107
sS'dobj=credibility'
p371
I79
sS'dobj=foundation'
p372
I84
sS'w-1=for'
p373
I375
sS'dobj=PNTL'
p374
I68
sS'conj=turn'
p375
I52
sS'dobj=relationship'
p376
I104
sS'advmod=recently'
p377
I17
sS'nsubj=citizen'
p378
I141
sS'w+2=of'
p379
I310
sS'dobj=system'
p380
I112
sS'nsubjpass=distillery'
p381
I158
sS'w+1=water'
p382
I247
sS'w-2=discussion'
p383
I441
sS'w-2=hard'
p384
I450
sS'w-2=beginning'
p385
I424
sS'w+2=that'
p386
I335
sS'w-2=battle'
p387
I420
sS'w-2=critically'
p388
I437
sS'w+2=village'
p389
I342
sS'w+1=some'
p390
I235
sS'w-1=on'
p391
I386
sS'w+2=destroy'
p392
I283
sS'w-2=want'
p393
I515
sS'w-2=obstacle'
p394
I471
sS'nsubj=Iraq'
p395
I133
sS'dobj=Aceh'
p396
I62
sS'w-2=and'
p397
I414
sS'w-2=which'
p398
I519
sS'advcl=say'
p399
I7
sS'w-1=of'
p400
I385
sS'w-2=to'
p401
I505
sS'w+2=and'
p402
I268
sS'dep=be'
p403
I55
sS'w+1=fray'
p404
I217
sS'w-1=start'
p405
I390
sS'advmod=actually'
p406
I10
sS'prep=near'
p407
I178
sS'w+2=temple'
p408
I334
sS'w-2=try'
p409
I509
sS'w+1=this'
p410
I241
sS'w-2=he'
p411
I452
sS'prep=since'
p412
I180
sS'w-2=Taleban'
p413
I404
sS'nsubj=Afghans'
p414
I131
sS'advcl=brutalize'
p415
I0
sS'nsubj=Haiti'
p416
I132
sS'dobj=house'
p417
I87
sS'advmod=voluntarily'
p418
I20
sS'dobj=Afghanistan'
p419
I63
sS'dobj=economy'
p420
I80
sS'w+2=the'
p421
I336
sS'prep=at'
p422
I171
sS'w+1=itself'
p423
I225
sS'advmod=peacefully'
p424
I16
sS'w-2=,'
p425
I399
sS'w-2=-'
p426
I400
sS'aux=have'
p427
I25
sS'nsubj=Afghanistan'
p428
I130
sS'w-2=but'
p429
I428
sS'w+2=Liberia'
p430
I259
sS'w-2=after'
p431
I409
sS'w-1=.'
p432
I352
sS'w-1=,'
p433
I350
sS'w+1=Washington'
p434
I198
sS'dobj=structure'
p435
I110
sS'dobj=Congo'
p436
I64
sS'w-2=agency'
p437
I411
sS'dobj=infrastructure'
p438
I91
sS'w-2=I'
p439
I402
sS'dobj=Orleans'
p440
I67
sS'w-2=as'
p441
I415
sS'w+1=Japan'
p442
I195
sS'w-2=how'
p443
I455
sS'conj=help'
p444
I44
sS'w+2=one'
p445
I313
sS'w-2=disarmament'
p446
I440
sS'w+1=during'
p447
I212
sS'w+2=airstrip'
p448
I267
sS'w+2=government'
p449
I295
sS'w+2=shatter'
p450
I326
sS'w-1=they'
p451
I392
sS'conj=bring'
p452
I38
sS'advcl=destroy'
p453
I3
sS'w-2=willing'
p454
I521
sS'nsubjpass=which'
p455
I166
sS'dobj=sector'
p456
I105
sS'w-2=so'
p457
I493
sS'w-2=make'
p458
I462
sS'mark=as'
p459
I122
sS'xcomp=provide'
p460
I526
sS'w-1=he'
p461
I378
sS'w+1=each'
p462
I213
sS'w+2=there'
p463
I337
sS'w+2=stronger'
p464
I331
sS'w+1=relation'
p465
I233
sS'w+2=devastate'
p466
I284
sS'w-2=issue'
p467
I460
sS'prep=after'
p468
I168
sS'w+1=large-scale'
p469
I228
sS'w+2=palestinian'
p470
I318
sS'w+2=have'
p471
I296
sS'ccomp=back'
p472
I32
sS'w+2=relation'
p473
I322
sS'w+2=stabilize'
p474
I328
sS'w+2=Yeltsin'
p475
I264
sS'nsubj=tear'
p476
I151
sS'w-2=water'
p477
I516
sS'neg=not'
p478
I127
sS'advmod=how'
p479
I13
sS'w+2=U.S.'
p480
I263
sS'w-1=government'
p481
I376
sS'w+2=infrastructure'
p482
I302
sS'prep=from'
p483
I176
sS'w+1=public'
p484
I232
sS'nsubjpass=home'
p485
I159
sS'conj=heal'
p486
I43
sS'advcl=show'
p487
I8
sS'w+1=after'
p488
I200
sS'conj=resume'
p489
I49
sS'w+2=Aceh'
p490
I256
sS'w-1=we'
p491
I395
sS'aux=to'
p492
I26
sS'w+2=town'
p493
I339
sS'w+1=support'
p494
I237
sS'advcl=go'
p495
I6
sS'nsubj=tower'
p496
I153
sS'w-1=Afghans'
p497
I353
sS'w-2=can'
p498
I429
sS'dobj=part'
p499
I100
sS'w-2=will'
p500
I520
sS'dobj=some'
p501
I108
sS'w+1=country'
p502
I210
sS'advmod=later'
p503
I14
sS'w+1=,'
p504
I188
sS'w+1=.'
p505
I189
sS'w-2=way'
p506
I517
sS'w+2=.'
p507
I255
sS'w+2=,'
p508
I254
sS"w+2='"
p509
I251
sS'dobj=operation'
p510
I98
sS'w+1=key'
p511
I226
sS'dobj=town'
p512
I117
sS'w-2=dollar'
p513
I442
sS'w+2=life'
p514
I305
sS'w-1=Kenya'
p515
I356
sS'dobj=nation'
p516
I97
sS'w+2=support'
p517
I332
sS'w+1=a'
p518
I199
sS'w-1=not'
p519
I384
sS'conj=focus'
p520
I41
sS'w-1=begin'
p521
I366
sS'w-1=later'
p522
I382
sS'dobj=housing'
p523
I88
sS'dobj=property'
p524
I101
sS'w+2=Lebanon'
p525
I258
sS'w-1=as'
p526
I363
sS'w-1=include'
p527
I381
sS'w-2=because'
p528
I422
sS'w+2=business'
p529
I276
sS'w-2=force'
p530
I448
sS'aux=be'
p531
I22
sS'parataxis=diminish'
p532
I167
sS'w+2=outpost'
p533
I316
sS'w+2=a'
p534
I265
ssS'dtype'
p535
cnumpy
float64
p536
sS'feature_names_'
p537
(lp538
g415
ag97
ag55
ag453
ag364
ag11
ag495
ag399
ag487
ag198
ag406
ag173
ag262
ag479
ag503
ag196
ag424
ag377
ag195
ag264
ag418
ag95
ag531
ag73
ag346
ag427
ag492
ag269
ag190
ag315
ag339
ag301
ag472
ag117
ag35
ag126
ag74
ag208
ag452
ag231
ag47
ag520
ag162
ag486
ag444
ag210
ag354
ag31
ag191
ag489
ag248
ag197
ag375
ag60
ag291
ag403
ag145
ag351
ag79
ag178
ag343
ag144
ag396
ag419
ag436
ag174
ag313
ag440
ag374
ag77
ag104
ag204
ag360
ag125
ag280
ag193
ag254
ag157
ag129
ag371
ag420
ag50
ag146
ag282
ag372
ag220
ag266
ag417
ag523
ag345
ag38
ag438
ag8
ag310
ag14
ag93
ag15
ag516
ag510
ag257
ag499
ag524
ag318
ag277
ag376
ag456
ag118
ag370
ag501
ag352
ag435
ag134
ag380
ag245
ag258
ag61
ag205
ag512
ag348
ag288
ag21
ag367
ag459
ag58
ag120
ag335
ag267
ag478
ag336
ag306
ag428
ag414
ag416
ag395
ag111
ag105
ag80
ag221
ag278
ag23
ag20
ag378
ag276
ag304
ag199
ag32
ag302
ag9
ag273
ag255
ag64
ag476
ag356
ag496
ag137
ag234
ag189
ag311
ag381
ag485
ag297
ag114
ag127
ag368
ag164
ag319
ag455
ag532
ag468
ag136
ag89
ag422
ag27
ag26
ag187
ag177
ag483
ag91
ag407
ag363
ag412
ag25
ag98
ag274
ag236
ag76
ag45
ag338
ag504
ag505
ag316
ag171
ag307
ag230
ag22
ag442
ag337
ag244
ag434
ag518
ag488
ag353
ag102
ag287
ag155
ag156
ag320
ag261
ag108
ag201
ag502
ag309
ag447
ag462
ag240
ag366
ag222
ag404
ag161
ag160
ag328
ag331
ag358
ag334
ag203
ag423
ag511
ag57
ag469
ag250
ag207
ag17
ag484
ag465
ag260
ag390
ag329
ag494
ag29
ag83
ag87
ag410
ag88
ag185
ag325
ag239
ag43
ag382
ag179
ag75
ag28
ag509
ag303
ag324
ag508
ag507
ag490
ag314
ag525
ag430
ag209
ag159
ag241
ag480
ag475
ag534
ag84
ag448
ag402
ag271
ag233
ag186
ag37
ag131
ag16
ag121
ag529
ag19
ag321
ag286
ag59
ag143
ag200
ag392
ag466
ag290
ag330
ag243
ag216
ag251
ag227
ag67
ag86
ag106
ag40
ag449
ag471
ag85
ag296
ag119
ag300
ag68
ag482
ag69
ag362
ag514
ag151
ag275
ag94
ag270
ag379
ag41
ag182
ag445
ag219
ag133
ag533
ag172
ag470
ag214
ag152
ag10
ag473
ag90
ag100
ag44
ag450
ag49
ag474
ag188
ag232
ag464
ag517
ag150
ag408
ag386
ag421
ag463
ag62
ag493
ag30
ag109
ag389
ag323
ag347
ag305
ag181
ag206
ag215
ag223
ag433
ag184
ag432
ag497
ag327
ag48
ag515
ag226
ag295
ag92
ag147
ag34
ag225
ag526
ag99
ag51
ag521
ag165
ag18
ag132
ag96
ag72
ag359
ag238
ag148
ag373
ag481
ag66
ag461
ag344
ag112
ag527
ag522
ag192
ag519
ag400
ag391
ag212
ag326
ag36
ag405
ag101
ag451
ag142
ag285
ag491
ag46
ag169
ag242
ag425
ag426
ag124
ag439
ag256
ag413
ag194
ag115
ag149
ag167
ag431
ag163
ag437
ag252
ag218
ag397
ag441
ag349
ag237
ag116
ag263
ag387
ag361
ag528
ag355
ag385
ag289
ag12
ag235
ag429
ag498
ag166
ag168
ag211
ag128
ag170
ag52
ag141
ag388
ag228
ag298
ag446
ag383
ag513
ag81
ag299
ag53
ag202
ag42
ag530
ag110
ag384
ag140
ag411
ag113
ag70
ag443
ag63
ag279
ag259
ag284
ag467
ag293
ag458
ag103
ag246
ag365
ag39
ag294
ag213
ag369
ag33
ag394
ag135
ag292
ag283
ag65
ag312
ag138
ag153
ag322
ag341
ag265
ag176
ag281
ag224
ag56
ag107
ag268
ag308
ag175
ag340
ag357
ag158
ag457
ag350
ag71
ag183
ag217
ag229
ag154
ag332
ag253
ag82
ag54
ag24
ag401
ag180
ag272
ag333
ag409
ag78
ag342
ag130
ag317
ag123
ag393
ag477
ag506
ag13
ag398
ag500
ag454
ag122
ag247
ag139
ag249
ag460
asS'separator'
p539
S'='
sS'sparse'
p540
I01
sb.