ccopy_reg
_reconstructor
p1
(csklearn.feature_extraction.dict_vectorizer
DictVectorizer
p2
c__builtin__
object
p3
NtRp4
(dp5
S'vocabulary_'
p6
(dp7
S'w+1=go'
p8
I135
sS'w-1=she'
p9
I239
sS'w+1=meeting'
p10
I139
sS'w+2=echo'
p11
I180
sS'w+2=Gbagbo'
p12
I161
sS'dobj=continuity'
p13
I53
sS'w+1=sale'
p14
I145
sS'advmod=more'
p15
I16
sS'dep=not'
p16
I50
sS'xcomp=#PRP#'
p17
I286
sS'w-2=have'
p18
I264
sS'advmod=certainly'
p19
I11
sS'dobj=arrival'
p20
I51
sS'w+2=when'
p21
I215
sS'advmod=year'
p22
I20
sS'w-2=but'
p23
I258
sS'advmod=quite'
p24
I18
sS'dobj=relaxation'
p25
I67
sS'w-2=best'
p26
I257
sS'w-1=like'
p27
I233
sS'ccomp=produce'
p28
I39
sS'nsubjpass=margin'
p29
I97
sS'w+2=my'
p30
I194
sS'nsubj=exporter'
p31
I87
sS'w+2=not'
p32
I196
sS'mark=than'
p33
I80
sS'w+2=fewer'
p34
I181
sS'w+2=between'
p35
I167
sS'ccomp=move'
p36
I38
sS'w-1=be'
p37
I221
sS'w+2=crisis'
p38
I173
sS'prep=by'
p39
I105
sS"w+2=''"
p40
I156
sS'w-2=can'
p41
I259
sS'w+1=over'
p42
I143
sS'w-2=would'
p43
I285
sS'dobj=use'
p44
I71
sS'nsubj=many'
p45
I90
sS'w-1=eagerly'
p46
I226
sS'w+2=use'
p47
I211
sS'w+2=report'
p48
I203
sS'w-1=quite'
p49
I237
sS'w+2=attack'
p50
I166
sS'w-2=no'
p51
I272
sS'w+2=this'
p52
I209
sS'dobj=degree'
p53
I56
sS'nsubjpass=resignation'
p54
I102
sS'w-2=worse'
p55
I284
sS'w-1=certainly'
p56
I225
sS'advcl=say'
p57
I6
sS'w-2=also'
p58
I253
sS'w+1=no'
p59
I142
sS'w-2=they'
p60
I280
sS'w+1=since'
p61
I146
sS'dobj=impediment'
p62
I60
sS'conj=go'
p63
I46
sS'w+2=and'
p64
I164
sS'ccomp=double'
p65
I34
sS'w+2=might'
p66
I191
sS'dobj=decision'
p67
I55
sS'w+2=more'
p68
I193
sS'w+1=many'
p69
I138
sS'dobj=loss'
p70
I62
sS'w+1=that'
p71
I148
sS'nsubj=Kosovars'
p72
I83
sS'nsubj=government'
p73
I88
sS'mark=so'
p74
I79
sS'w+2=real'
p75
I202
sS'w+2=very'
p76
I212
sS'w+2=there'
p77
I206
sS'tmod=time'
p78
I115
sS'aux=do'
p79
I23
sS'dobj=increase'
p80
I61
sS'w-2=scientist'
p81
I276
sS'tmod=Yar'
p82
I113
sS'w+1=more'
p83
I140
sS'dobj=wintercrop'
p84
I74
sS'advcl=hit'
p85
I3
sS'w-2=most'
p86
I271
sS'advmod=already'
p87
I9
sS'nsubj=Robertson'
p88
I84
sS'w-2=israeli'
p89
I266
sS'xcomp=go'
p90
I290
sS'w-2=do'
p91
I261
sS'advmod=however'
p92
I14
sS'w-2=and'
p93
I254
sS'tmod=report'
p94
I114
sS'prep=over'
p95
I109
sS'w+1=in'
p96
I136
sS'advmod=better'
p97
I10
sS'w-1=will'
p98
I245
sS'w+2=as'
p99
I165
sS'w-2=,'
p100
I248
sS'conj=first'
p101
I45
sS'dobj=move'
p102
I64
sS'w+1=violence'
p103
I152
sS'w+2=magnitude'
p104
I189
sS'w-2=try'
p105
I281
sS'advmod=eagerly'
p106
I12
sS'w+1=what'
p107
I153
sS'w+2=decision'
p108
I174
sS'w+2=Yar'
p109
I162
sS'aux=have'
p110
I24
sS'nsubj=agency'
p111
I85
sS'w-1=by'
p112
I224
sS'nsubjpass=that'
p113
I103
sS'w-1=would'
p114
I246
sS'xcomp=have'
p115
I291
sS'ccomp=happen'
p116
I35
sS'w+2=continuity'
p117
I170
sS'w+2=continue'
p118
I169
sS'w-2=the'
p119
I279
sS'w-2=agency'
p120
I252
sS'w+2=degree'
p121
I175
sS'w-2=I'
p122
I250
sS'w-2=economist'
p123
I262
sS'w-1=he'
p124
I229
sS'w-1=,'
p125
I217
sS'ccomp=be'
p126
I32
sS'w+1=closer'
p127
I127
sS'dobj=magnitude'
p128
I63
sS'dobj=violence'
p129
I72
sS'w-2=fail'
p130
I263
sS'w+1=just'
p131
I137
sS'advmod=longer'
p132
I15
sS'w-2=unison'
p133
I282
sS'mark=because'
p134
I78
sS'w-1=I'
p135
I218
sS'nsubjpass=rainfall'
p136
I100
sS'w+1=far'
p137
I132
sS'dep=and'
p138
I47
sS'xcomp=begin'
p139
I287
sS'prep=from'
p140
I107
sS'parataxis=such'
p141
I104
sS'dobj=difficulty'
p142
I57
sS'w+1=thing'
p143
I150
sS'w-2=many'
p144
I269
sS'w+1=democratic'
p145
I129
sS'w-1=reasonably'
p146
I238
sS'w-2=a'
p147
I251
sS'w+2=110,000'
p148
I159
sS'w-1=they'
p149
I241
sS'w+1=price'
p150
I144
sS'prep=for'
p151
I106
sS'w+2=week'
p152
I214
sS'w+2=make'
p153
I190
sS'nsubjpass=move'
p154
I99
sS'advcl=get'
p155
I2
sS'w+1=any'
p156
I124
sS'dobj=event'
p157
I59
sS'w+2=impediment'
p158
I186
sS'xcomp=cause'
p159
I288
sS'advcl=regain'
p160
I4
sS'dobj=drop'
p161
I58
sS'dobj=period'
p162
I66
sS'conj=fall'
p163
I44
sS'w+2=in'
p164
I187
sS'mark=as'
p165
I77
sS'w-2=say'
p166
I275
sS'dep=choose'
p167
I49
sS'w+1=each'
p168
I131
sS'advcl=consider'
p169
I0
sS'w+2=include'
p170
I188
sS'ccomp=receive'
p171
I40
sS'advmod=widely'
p172
I19
sS'w+1=from'
p173
I134
sS'w-2=longer'
p174
I268
sS'ccomp=have'
p175
I36
sS'w+1=baby'
p176
I125
sS'advmod=highly'
p177
I13
sS'auxpass=be'
p178
I28
sS'aux=can'
p179
I22
sS'complm=that'
p180
I42
sS'w+1=President'
p181
I120
sS'nsubj=scientist'
p182
I94
sS'w+2=they'
p183
I207
sS'nsubjpass=apology'
p184
I96
sS'w+2=rainy'
p185
I201
sS"w+1=''"
p186
I117
sS'w-1=longer'
p187
I234
sS'w-2=we'
p188
I283
sS'tmod=#DATE#'
p189
I112
sS'w+1=begin'
p190
I126
sS'w+2=but'
p191
I168
sS'cc=and'
p192
I29
sS'w+2=good'
p193
I183
sS'aux=will'
p194
I26
sS'prep=under'
p195
I111
sS'w+1=next'
p196
I141
sS'w-2=that'
p197
I278
sS'w-1=we'
p198
I243
sS'w+1=the'
p199
I149
sS'xcomp=continue'
p200
I289
sS'w-2=be'
p201
I255
sS'dobj=year'
p202
I75
sS'ccomp=increase'
p203
I37
sS'w+1=will'
p204
I155
sS'w-2=than'
p205
I277
sS'aux=to'
p206
I25
sS'w+2=could'
p207
I172
sS'xcomp=include'
p208
I292
sS'w+2=month'
p209
I192
sS'w-1=widely'
p210
I244
sS'nsubjpass=#PRP#'
p211
I95
sS'w+2=year'
p212
I216
sS'w+2=thing'
p213
I208
sS'prep=in'
p214
I108
sS'aux=would'
p215
I27
sS'w+2=new'
p216
I195
sS'w+1=for'
p217
I133
sS'tmod=year'
p218
I116
sS'w-2=however'
p219
I265
sS'w+2=to'
p220
I210
sS'w+2=cooperation'
p221
I171
sS'w+2=difficulty'
p222
I177
sS'w-1=government'
p223
I227
sS'dobj=that'
p224
I69
sS'nsubj=#PRP#'
p225
I82
sS'dobj=thing'
p226
I70
sS'dobj=what'
p227
I73
sS'w-1=investor'
p228
I231
sS'w-2=difficult'
p229
I260
sS'w+2=other'
p230
I198
sS'w-1=than'
p231
I240
sS'w+1=when'
p232
I154
sS'ccomp=require'
p233
I41
sS'dobj=season'
p234
I68
sS'prep=to'
p235
I110
sS'w+1=continued'
p236
I128
sS'advcl=flock'
p237
I1
sS'cc=but'
p238
I30
sS'w+2=forward'
p239
I182
sS'w-1=people'
p240
I236
sS'w+2=outbreak'
p241
I199
sS'w+2=have'
p242
I184
sS'w-1=already'
p243
I220
sS'w+2=deploy'
p244
I176
sS'w+2=the'
p245
I205
sS'nsubjpass=meeting'
p246
I98
sS'w+1=such'
p247
I147
sS'nsubj=recommendation'
p248
I92
sS'advmod=ago'
p249
I8
sS'w+1=and'
p250
I123
sS'w-2=month'
p251
I270
sS'w+2=additional'
p252
I163
sS'w+2=dramatic'
p253
I178
sS'w-2=rainfall'
p254
I274
sS'advcl=report'
p255
I5
sS"w-2=''"
p256
I247
sS'w+1=,'
p257
I118
sS'w+1=.'
p258
I119
sS'w+2=of'
p259
I197
sS'w-1=highly'
p260
I230
sS'advmod=perhaps'
p261
I17
sS'w+2=.'
p262
I158
sS'w+2=,'
p263
I157
sS'w+1=to'
p264
I151
sS'w-1=Robertson'
p265
I219
sS'neg=not'
p266
I81
sS'dobj=outbreak'
p267
I65
sS'w-1=to'
p268
I242
sS'w-1=it'
p269
I232
sS'w-1=both'
p270
I223
sS'w+2=he'
p271
I185
sS'dobj=cooperation'
p272
I54
sS'w+2=drop'
p273
I179
sS'dobj=attack'
p274
I52
sS'w-2=.'
p275
I249
sS'mark=although'
p276
I76
sS'w-1=better'
p277
I222
sS'nsubj=resident'
p278
I93
sS'nsubj=market'
p279
I91
sS'nsubjpass=release'
p280
I101
sS'w+1=disease'
p281
I130
sS'w+2=race'
p282
I200
sS'w+1=a'
p283
I122
sS'w-2=not'
p284
I273
sS'w-1=not'
p285
I235
sS'w-1=have'
p286
I228
sS'advcl=sign'
p287
I7
sS'nsubj=economist'
p288
I86
sS'w+2=soon'
p289
I204
sS'w-2=because'
p290
I256
sS'nsubj=investor'
p291
I89
sS'w+1=September'
p292
I121
sS'aux=be'
p293
I21
sS'w+2=30'
p294
I160
sS'ccomp=able'
p295
I31
sS'dep=both'
p296
I48
sS'w-2=less'
p297
I267
sS'ccomp=cooperative'
p298
I33
sS'w+2=we'
p299
I213
sS'conj=echo'
p300
I43
ssS'dtype'
p301
cnumpy
float64
p302
sS'feature_names_'
p303
(lp304
g169
ag237
ag155
ag85
ag160
ag255
ag57
ag287
ag249
ag87
ag97
ag19
ag106
ag177
ag92
ag132
ag15
ag261
ag24
ag172
ag22
ag293
ag179
ag79
ag110
ag206
ag194
ag215
ag178
ag192
ag238
ag295
ag126
ag298
ag65
ag116
ag175
ag203
ag36
ag28
ag171
ag233
ag180
ag300
ag163
ag101
ag63
ag138
ag296
ag167
ag16
ag20
ag274
ag13
ag272
ag67
ag53
ag142
ag161
ag157
ag62
ag80
ag70
ag128
ag102
ag267
ag162
ag25
ag234
ag224
ag226
ag44
ag129
ag227
ag84
ag202
ag276
ag165
ag134
ag74
ag33
ag266
ag225
ag72
ag88
ag111
ag288
ag31
ag73
ag291
ag45
ag279
ag248
ag278
ag182
ag211
ag184
ag29
ag246
ag154
ag136
ag280
ag54
ag113
ag141
ag39
ag151
ag140
ag214
ag95
ag235
ag195
ag189
ag82
ag94
ag78
ag218
ag186
ag257
ag258
ag181
ag292
ag283
ag250
ag156
ag176
ag190
ag127
ag236
ag145
ag281
ag168
ag137
ag217
ag173
ag8
ag96
ag131
ag69
ag10
ag83
ag196
ag59
ag42
ag150
ag14
ag61
ag247
ag71
ag199
ag143
ag264
ag103
ag107
ag232
ag204
ag40
ag263
ag262
ag148
ag294
ag12
ag109
ag252
ag64
ag99
ag50
ag35
ag191
ag118
ag117
ag221
ag207
ag38
ag108
ag121
ag244
ag222
ag253
ag273
ag11
ag34
ag239
ag193
ag242
ag271
ag158
ag164
ag170
ag104
ag153
ag66
ag209
ag68
ag30
ag216
ag32
ag259
ag230
ag241
ag282
ag185
ag75
ag48
ag289
ag245
ag77
ag183
ag213
ag52
ag220
ag47
ag76
ag299
ag152
ag21
ag212
ag125
ag135
ag265
ag243
ag37
ag277
ag270
ag112
ag56
ag46
ag223
ag286
ag124
ag260
ag228
ag269
ag27
ag187
ag285
ag240
ag49
ag146
ag9
ag231
ag149
ag268
ag198
ag210
ag98
ag114
ag256
ag100
ag275
ag122
ag147
ag120
ag58
ag93
ag201
ag290
ag26
ag23
ag41
ag229
ag91
ag123
ag130
ag18
ag219
ag89
ag297
ag174
ag144
ag251
ag86
ag51
ag284
ag254
ag166
ag81
ag205
ag197
ag119
ag60
ag105
ag133
ag188
ag55
ag43
ag17
ag139
ag159
ag200
ag90
ag115
ag208
asS'separator'
p305
S'='
sS'sparse'
p306
I01
sb.