ccopy_reg
_reconstructor
p1
(csklearn.feature_extraction.dict_vectorizer
DictVectorizer
p2
c__builtin__
object
p3
NtRp4
(dp5
S'sort'
p6
I01
sS'feature_names_'
p7
(lp8
S'acomp=more'
p9
aS'advcl=announce'
p10
aS'advcl=be'
p11
aS'advcl=bill'
p12
aS'advcl=consider'
p13
aS'advcl=launch'
p14
aS'advcl=leave'
p15
aS'advcl=relent'
p16
aS'advcl=take'
p17
aS'advmod=actually'
p18
aS'advmod=along'
p19
aS'advmod=already'
p20
aS'advmod=also'
p21
aS'advmod=at'
p22
aS'advmod=back'
p23
aS'advmod=better'
p24
aS'advmod=even'
p25
aS'advmod=how'
p26
aS'advmod=illegally'
p27
aS'advmod=locally'
p28
aS'advmod=loosely'
p29
aS'advmod=merely'
p30
aS'advmod=more'
p31
aS'advmod=now'
p32
aS'advmod=quickly'
p33
aS'advmod=really'
p34
aS'advmod=recently'
p35
aS'advmod=routinely'
p36
aS'advmod=so'
p37
aS'advmod=soon'
p38
aS'advmod=specially'
p39
aS'advmod=still'
p40
aS'advmod=that'
p41
aS'advmod=then'
p42
aS'advmod=there'
p43
aS'advmod=very'
p44
aS'advmod=well'
p45
aS'advmod=when'
p46
aS'aux=be'
p47
aS'aux=can'
p48
aS'aux=do'
p49
aS'aux=have'
p50
aS'aux=may'
p51
aS'aux=must'
p52
aS'aux=to'
p53
aS'aux=will'
p54
aS'auxpass=be'
p55
aS'auxpass=remain'
p56
aS'cc=and'
p57
aS'cc=but'
p58
aS'cc=or'
p59
aS'cc=rather'
p60
aS'cc=well'
p61
aS'ccomp=add'
p62
aS'ccomp=atthe'
p63
aS'ccomp=call'
p64
aS'ccomp=hold'
p65
aS'ccomp=hope'
p66
aS'ccomp=important'
p67
aS'ccomp=report'
p68
aS'ccomp=say'
p69
aS'ccomp=structure'
p70
aS'complm=that'
p71
aS'conj=approach'
p72
aS'conj=attend'
p73
aS'conj=be'
p74
aS'conj=better'
p75
aS'conj=blame'
p76
aS'conj=boycott'
p77
aS'conj=come'
p78
aS'conj=coordinate'
p79
aS'conj=count'
p80
aS'conj=engage'
p81
aS'conj=express'
p82
aS'conj=force'
p83
aS'conj=function'
p84
aS'conj=fund'
p85
aS'conj=get'
p86
aS'conj=have'
p87
aS'conj=hide'
p88
aS'conj=hold'
p89
aS'conj=host'
p90
aS'conj=include'
p91
aS'conj=independent'
p92
aS'conj=invite'
p93
aS'conj=lure'
p94
aS'conj=manage'
p95
aS'conj=militarize'
p96
aS'conj=motivated'
p97
aS'conj=move'
p98
aS'conj=nationalize'
p99
aS'conj=now'
p100
aS'conj=operation'
p101
aS'conj=oversee'
p102
aS'conj=pay'
p103
aS'conj=police'
p104
aS'conj=raise'
p105
aS'conj=recognize'
p106
aS'conj=remain'
p107
aS'conj=say'
p108
aS'conj=step'
p109
aS'conj=suppress'
p110
aS'conj=sure'
p111
aS'conj=teach'
p112
aS'conj=train'
p113
aS'conj=try'
p114
aS'dep=Party'
p115
aS'dep=best'
p116
aS'dep=help'
p117
aS'dep=if'
p118
aS'dep=that'
p119
aS'det=the'
p120
aS'dobj=#PRP#'
p121
aS'dobj=Babylift'
p122
aS'dobj=academy'
p123
aS'dobj=anniversary'
p124
aS'dobj=anti-u'
p125
aS'dobj=assassination'
p126
aS'dobj=attack'
p127
aS'dobj=attempt'
p128
aS'dobj=blitz'
p129
aS'dobj=bombing'
p130
aS'dobj=camp'
p131
aS'dobj=campaign'
p132
aS'dobj=case'
p133
aS'dobj=chief'
p134
aS'dobj=commemoration'
p135
aS'dobj=conference'
p136
aS'dobj=counter-force'
p137
aS'dobj=crime'
p138
aS'dobj=delivery'
p139
aS'dobj=demonstration'
p140
aS'dobj=distribution'
p141
aS'dobj=drive'
p142
aS'dobj=drug'
p143
aS'dobj=election'
p144
aS'dobj=event'
p145
aS'dobj=exchange'
p146
aS'dobj=experience'
p147
aS'dobj=extravaganza'
p148
aS'dobj=facility'
p149
aS'dobj=fair'
p150
aS'dobj=farm'
p151
aS'dobj=festival'
p152
aS'dobj=football'
p153
aS'dobj=force'
p154
aS'dobj=forum'
p155
aS'dobj=fund'
p156
aS'dobj=gathering'
p157
aS'dobj=group'
p158
aS'dobj=head'
p159
aS'dobj=healer'
p160
aS'dobj=household'
p161
aS'dobj=identification'
p162
aS'dobj=kidnapping'
p163
aS'dobj=kind'
p164
aS'dobj=league'
p165
aS'dobj=march'
p166
aS'dobj=match'
p167
aS'dobj=meeting'
p168
aS'dobj=member'
p169
aS'dobj=murder'
p170
aS'dobj=name'
p171
aS'dobj=network'
p172
aS'dobj=operation'
p173
aS'dobj=opposition'
p174
aS'dobj=party'
p175
aS'dobj=peace'
p176
aS'dobj=people'
p177
aS'dobj=pilgrimage'
p178
aS'dobj=poll'
p179
aS'dobj=population'
p180
aS'dobj=program'
p181
aS'dobj=project'
p182
aS'dobj=protest'
p183
aS'dobj=rally'
p184
aS'dobj=ration'
p185
aS'dobj=referendum'
p186
aS'dobj=repatriation'
p187
aS'dobj=return'
p188
aS'dobj=run-off'
p189
aS'dobj=scheme'
p190
aS'dobj=series'
p191
aS'dobj=service'
p192
aS'dobj=session'
p193
aS'dobj=square'
p194
aS'dobj=stratagem'
p195
aS'dobj=summit'
p196
aS'dobj=supplies'
p197
aS'dobj=supporter'
p198
aS'dobj=symposium'
p199
aS'dobj=syndicate'
p200
aS'dobj=talk'
p201
aS'dobj=team'
p202
aS'dobj=that'
p203
aS'dobj=this'
p204
aS'dobj=tour'
p205
aS'dobj=tournament'
p206
aS'dobj=transition'
p207
aS'dobj=transplant'
p208
aS'dobj=treatment'
p209
aS'dobj=vigil'
p210
aS'dobj=volunteer'
p211
aS'dobj=vote'
p212
aS'dobj=wedding'
p213
aS'dobj=week'
p214
aS'dobj=worker'
p215
aS'mark=after'
p216
aS'mark=as'
p217
aS'mark=because'
p218
aS'mark=for'
p219
aS'mark=if'
p220
aS'mark=in'
p221
aS'mark=unless'
p222
aS'mark=while'
p223
aS'neg=not'
p224
aS'nsubj=#NUMBER#'
p225
aS'nsubj=#PRP#'
p226
aS'nsubj=Association'
p227
aS'nsubj=Avni'
p228
aS'nsubj=Ban'
p229
aS'nsubj=Council'
p230
aS'nsubj=Gnassingbe'
p231
aS'nsubj=Hamas'
p232
aS'nsubj=India'
p233
aS'nsubj=Kamara'
p234
aS'nsubj=King'
p235
aS'nsubj=Malone'
p236
aS'nsubj=Maphosa'
p237
aS'nsubj=Mittal'
p238
aS'nsubj=Musharraf'
p239
aS'nsubj=Nicolas'
p240
aS'nsubj=Nkunda'
p241
aS'nsubj=Party'
p242
aS'nsubj=Program'
p243
aS'nsubj=Rutty'
p244
aS'nsubj=Soro'
p245
aS'nsubj=States'
p246
aS'nsubj=TeenAIDS'
p247
aS'nsubj=Trust'
p248
aS'nsubj=U.N.'
p249
aS'nsubj=U.S.'
p250
aS'nsubj=UNICEF'
p251
aS'nsubj=United'
p252
aS'nsubj=Yao'
p253
aS'nsubj=activist'
p254
aS'nsubj=al-Qaida'
p255
aS'nsubj=alliance'
p256
aS'nsubj=aspj'
p257
aS'nsubj=association'
p258
aS'nsubj=body'
p259
aS'nsubj=chaplain'
p260
aS'nsubj=community'
p261
aS'nsubj=country'
p262
aS'nsubj=director'
p263
aS'nsubj=enemy'
p264
aS'nsubj=freedom'
p265
aS'nsubj=government'
p266
aS'nsubj=governor'
p267
aS'nsubj=group'
p268
aS'nsubj=head'
p269
aS'nsubj=inmate'
p270
aS'nsubj=investor'
p271
aS'nsubj=journalist'
p272
aS'nsubj=leader'
p273
aS'nsubj=man'
p274
aS'nsubj=member'
p275
aS'nsubj=museum'
p276
aS'nsubj=official'
p277
aS'nsubj=opposition'
p278
aS'nsubj=organization'
p279
aS'nsubj=party'
p280
aS'nsubj=people'
p281
aS'nsubj=philanthropy'
p282
aS'nsubj=process'
p283
aS'nsubj=site'
p284
aS'nsubj=some'
p285
aS'nsubj=that'
p286
aS'nsubj=union'
p287
aS'nsubj=victim'
p288
aS'nsubj=which'
p289
aS'nsubj=who'
p290
aS'nsubj=wife'
p291
aS'nsubjpass=#DATE#'
p292
aS'nsubjpass=#NUMBER#'
p293
aS'nsubjpass=#PRP#'
p294
aS'nsubjpass=Edwards'
p295
aS'nsubjpass=Shaabab'
p296
aS'nsubjpass=al-Qaida'
p297
aS'nsubjpass=bombardment'
p298
aS'nsubjpass=camp'
p299
aS'nsubjpass=chairman'
p300
aS'nsubjpass=concert'
p301
aS'nsubjpass=conference'
p302
aS'nsubjpass=debate'
p303
aS'nsubjpass=demonstration'
p304
aS'nsubjpass=election'
p305
aS'nsubjpass=event'
p306
aS'nsubjpass=festival'
p307
aS'nsubjpass=fighter'
p308
aS'nsubjpass=group'
p309
aS'nsubjpass=insurgent'
p310
aS'nsubjpass=long-time'
p311
aS'nsubjpass=meeting'
p312
aS'nsubjpass=operation'
p313
aS'nsubjpass=process'
p314
aS'nsubjpass=protest'
p315
aS'nsubjpass=rally'
p316
aS'nsubjpass=region'
p317
aS'nsubjpass=runoff'
p318
aS'nsubjpass=sale'
p319
aS'nsubjpass=some'
p320
aS'nsubjpass=summit'
p321
aS'nsubjpass=talk'
p322
aS'nsubjpass=that'
p323
aS'nsubjpass=tour'
p324
aS'nsubjpass=trip'
p325
aS'nsubjpass=visit'
p326
aS'nsubjpass=voyage'
p327
aS'nsubjpass=which'
p328
aS'nsubjpass=work'
p329
aS'parataxis=articulate'
p330
aS'parataxis=think'
p331
aS'partmod=bring'
p332
aS'partmod=demand'
p333
aS'partmod=notice'
p334
aS'partmod=start'
p335
aS'partmod=target'
p336
aS'prep=about'
p337
aS'prep=after'
p338
aS'prep=against'
p339
aS'prep=amid'
p340
aS'prep=at'
p341
aS'prep=before'
p342
aS'prep=by'
p343
aS'prep=despite'
p344
aS'prep=during'
p345
aS'prep=for'
p346
aS'prep=from'
p347
aS'prep=in'
p348
aS'prep=include'
p349
aS'prep=into'
p350
aS'prep=like'
p351
aS'prep=on'
p352
aS'prep=over'
p353
aS'prep=since'
p354
aS'prep=than'
p355
aS'prep=through'
p356
aS'prep=to'
p357
aS'prep=under'
p358
aS'prep=with'
p359
aS'prep=without'
p360
aS'purpcl=get'
p361
aS'purpcl=put'
p362
aS'purpcl=rely'
p363
aS'tmod=#DATE#'
p364
aS'tmod=Egidio'
p365
aS'tmod=evening'
p366
aS'tmod=march'
p367
aS'tmod=today'
p368
aS'tmod=week'
p369
aS'tmod=year'
p370
aS'w+1=,'
p371
aS'w+1=-rrb-'
p372
aS'w+1=.'
p373
aS'w+1=Operation'
p374
aS'w+1=Saturday'
p375
aS'w+1=Sunday'
p376
aS'w+1=Tuesday'
p377
aS'w+1=Wednesday'
p378
aS'w+1=a'
p379
aS'w+1=academic'
p380
aS'w+1=action'
p381
aS'w+1=aid'
p382
aS'w+1=all'
p383
aS'w+1=almost'
p384
aS'w+1=and'
p385
aS'w+1=at'
p386
aS'w+1=attack'
p387
aS'w+1=attempt'
p388
aS'w+1=by'
p389
aS'w+1=campaign'
p390
aS'w+1=car'
p391
aS'w+1=charity'
p392
aS'w+1=clear'
p393
aS'w+1=closed-door'
p394
aS'w+1=collective'
p395
aS'w+1=commission'
p396
aS'w+1=committee'
p397
aS'w+1=conference'
p398
aS'w+1=crime'
p399
aS'w+1=criminal'
p400
aS'w+1=cultural'
p401
aS'w+1=daily'
p402
aS'w+1=distribution'
p403
aS'w+1=domestic'
p404
aS'w+1=donation'
p405
aS'w+1=earlier'
p406
aS'w+1=effort'
p407
aS'w+1=election'
p408
aS'w+1=emergency'
p409
aS'w+1=event'
p410
aS'w+1=every'
p411
aS'w+1=facility'
p412
aS'w+1=football'
p413
aS'w+1=for'
p414
aS'w+1=free'
p415
aS'w+1=gangster'
p416
aS'w+1=group'
p417
aS'w+1=household'
p418
aS'w+1=in'
p419
aS'w+1=information'
p420
aS'w+1=into'
p421
aS'w+1=islamic'
p422
aS'w+1=it'
p423
aS'w+1=its'
p424
aS'w+1=itself'
p425
aS'w+1=jihadist'
p426
aS'w+1=kidnapping'
p427
aS'w+1=labor'
p428
aS'w+1=last'
p429
aS'w+1=later'
p430
aS'w+1=local'
p431
aS'w+1=locally'
p432
aS'w+1=loose'
p433
aS'w+1=many'
p434
aS'w+1=mass'
p435
aS'w+1=medical'
p436
aS'w+1=meeting'
p437
aS'w+1=more'
p438
aS'w+1=move'
p439
aS'w+1=my'
p440
aS'w+1=national'
p441
aS'w+1=nearby'
p442
aS'w+1=new'
p443
aS'w+1=now'
p444
aS'w+1=on'
p445
aS'w+1=operation'
p446
aS'w+1=opposition'
p447
aS'w+1=or'
p448
aS'w+1=ourselves'
p449
aS'w+1=over'
p450
aS'w+1=parliamentary'
p451
aS'w+1=peace'
p452
aS'w+1=peaceful'
p453
aS'w+1=people'
p454
aS'w+1=political'
p455
aS'w+1=presidential'
p456
aS'w+1=pressure'
p457
aS'w+1=program'
p458
aS'w+1=protest'
p459
aS'w+1=public'
p460
aS'w+1=rebuild'
p461
aS'w+1=referendum'
p462
aS'w+1=regular'
p463
aS'w+1=revenue-generating'
p464
aS'w+1=sanitation'
p465
aS'w+1=secretary'
p466
aS'w+1=service'
p467
aS'w+1=she'
p468
aS'w+1=so-called'
p469
aS'w+1=some'
p470
aS'w+1=than'
p471
aS'w+1=that'
p472
aS'w+1=the'
p473
aS'w+1=themselves'
p474
aS'w+1=these'
p475
aS'w+1=they'
p476
aS'w+1=this'
p477
aS'w+1=those'
p478
aS'w+1=through'
p479
aS'w+1=tiger'
p480
aS'w+1=to'
p481
aS'w+1=twice-delayed'
p482
aS'w+1=two'
p483
aS'w+1=under'
p484
aS'w+1=upcoming'
p485
aS'w+1=violence'
p486
aS'w+1=voluntary'
p487
aS'w+1=volunteer'
p488
aS'w+1=wedding'
p489
aS'w+1=what'
p490
aS'w+1=wind'
p491
aS"w+2=''"
p492
aS"w+2='s"
p493
aS'w+2=,'
p494
aS'w+2=-lrb-'
p495
aS'w+2=.'
p496
aS'w+2=13th'
p497
aS'w+2=1998'
p498
aS'w+2=2005'
p499
aS'w+2=2010'
p500
aS'w+2=3,700'
p501
aS'w+2=Alimamy'
p502
aS'w+2=Apollo'
p503
aS'w+2=Babylift'
p504
aS'w+2=Burkina'
p505
aS'w+2=Christmas'
p506
aS'w+2=Dakar'
p507
aS'w+2=Delhi'
p508
aS'w+2=Democratic'
p509
aS'w+2=Diana'
p510
aS'w+2=Eliasson'
p511
aS'w+2=Facebook'
p512
aS'w+2=Georgia'
p513
aS'w+2=Hamas'
p514
aS'w+2=Iowa'
p515
aS'w+2=Paris'
p516
aS'w+2=Rome'
p517
aS'w+2=South'
p518
aS'w+2=Stephen'
p519
aS'w+2=Togo'
p520
aS'w+2=U.S.'
p521
aS'w+2=Washington'
p522
aS'w+2=a'
p523
aS'w+2=against'
p524
aS'w+2=and'
p525
aS'w+2=anniversary'
p526
aS'w+2=annual'
p527
aS'w+2=anti-u'
p528
aS'w+2=apparent'
p529
aS'w+2=arab-american'
p530
aS'w+2=art'
p531
aS'w+2=as'
p532
aS'w+2=assassination'
p533
aS'w+2=assemble'
p534
aS'w+2=at'
p535
aS'w+2=attack'
p536
aS'w+2=attend'
p537
aS'w+2=basketball'
p538
aS'w+2=be'
p539
aS'w+2=better'
p540
aS'w+2=big'
p541
aS'w+2=bombing'
p542
aS'w+2=broad-based'
p543
aS'w+2=building'
p544
aS'w+2=but'
p545
aS'w+2=by'
p546
aS'w+2=camp'
p547
aS'w+2=campaign'
p548
aS'w+2=case'
p549
aS'w+2=celebrate'
p550
aS'w+2=charitable'
p551
aS'w+2=chief'
p552
aS'w+2=cite'
p553
aS'w+2=city'
p554
aS'w+2=commemoration'
p555
aS'w+2=coordinate'
p556
aS'w+2=counter-rally'
p557
aS'w+2=country'
p558
aS'w+2=daily'
p559
aS'w+2=day'
p560
aS'w+2=delivery'
p561
aS'w+2=demonstrator'
p562
aS'w+2=disturbance'
p563
aS'w+2=divert'
p564
aS'w+2=drive'
p565
aS'w+2=effort'
p566
aS'w+2=election'
p567
aS'w+2=emergency'
p568
aS'w+2=engage'
p569
aS'w+2=event'
p570
aS'w+2=expect'
p571
aS'w+2=experience'
p572
aS'w+2=extravaganza'
p573
aS'w+2=fair'
p574
aS'w+2=farm'
p575
aS'w+2=festival'
p576
aS'w+2=first'
p577
aS'w+2=for'
p578
aS'w+2=force'
p579
aS'w+2=formal'
p580
aS'w+2=forthcoming'
p581
aS'w+2=free'
p582
aS'w+2=from'
p583
aS'w+2=function'
p584
aS'w+2=gang'
p585
aS'w+2=gathering'
p586
aS'w+2=general'
p587
aS'w+2=government'
p588
aS'w+2=group'
p589
aS'w+2=have'
p590
aS'w+2=he'
p591
aS'w+2=head'
p592
aS'w+2=health'
p593
aS'w+2=hide'
p594
aS'w+2=hold'
p595
aS'w+2=hope'
p596
aS'w+2=host'
p597
aS'w+2=identification'
p598
aS'w+2=illegality'
p599
aS'w+2=in'
p600
aS'w+2=indian'
p601
aS'w+2=informal'
p602
aS'w+2=international'
p603
aS'w+2=into'
p604
aS'w+2=investor'
p605
aS'w+2=its'
p606
aS'w+2=job'
p607
aS'w+2=joint'
p608
aS'w+2=kind'
p609
aS'w+2=large'
p610
aS'w+2=last'
p611
aS'w+2=leader'
p612
aS'w+2=leadership'
p613
aS'w+2=list'
p614
aS'w+2=local'
p615
aS'w+2=manage'
p616
aS'w+2=march'
p617
aS'w+2=mass'
p618
aS'w+2=match'
p619
aS'w+2=meeting'
p620
aS'w+2=militant'
p621
aS'w+2=mobilize'
p622
aS'w+2=more'
p623
aS'w+2=movement'
p624
aS'w+2=much'
p625
aS'w+2=multi-cultural'
p626
aS'w+2=murder'
p627
aS'w+2=national'
p628
aS'w+2=network'
p629
aS'w+2=new'
p630
aS'w+2=next'
p631
aS'w+2=no'
p632
aS'w+2=nonviolent'
p633
aS'w+2=not'
p634
aS'w+2=of'
p635
aS'w+2=on'
p636
aS'w+2=one'
p637
aS'w+2=one-day'
p638
aS'w+2=opposition'
p639
aS'w+2=orchestrate'
p640
aS'w+2=oversee'
p641
aS'w+2=part'
p642
aS'w+2=party'
p643
aS'w+2=pay'
p644
aS'w+2=people'
p645
aS'w+2=petition'
p646
aS'w+2=police'
p647
aS'w+2=political'
p648
aS'w+2=politically'
p649
aS'w+2=poll'
p650
aS'w+2=population'
p651
aS'w+2=prevent'
p652
aS'w+2=prison'
p653
aS'w+2=project'
p654
aS'w+2=promote'
p655
aS'w+2=proper'
p656
aS'w+2=protest'
p657
aS'w+2=putin'
p658
aS'w+2=raise'
p659
aS'w+2=rally'
p660
aS'w+2=range'
p661
aS'w+2=ration'
p662
aS'w+2=rebel'
p663
aS'w+2=recent'
p664
aS'w+2=relation'
p665
aS'w+2=repatriation'
p666
aS'w+2=retire'
p667
aS'w+2=return'
p668
aS'w+2=reverberate'
p669
aS'w+2=rig'
p670
aS'w+2=right'
p671
aS'w+2=robust'
p672
aS'w+2=run-off'
p673
aS'w+2=second'
p674
aS'w+2=series'
p675
aS'w+2=session'
p676
aS'w+2=she'
p677
aS'w+2=show'
p678
aS'w+2=so'
p679
aS'w+2=stratagem'
p680
aS'w+2=street'
p681
aS'w+2=strong'
p682
aS'w+2=successful'
p683
aS'w+2=summit'
p684
aS'w+2=supplies'
p685
aS'w+2=supporter'
p686
aS'w+2=syndicate'
p687
aS'w+2=system'
p688
aS'w+2=take'
p689
aS'w+2=talk'
p690
aS'w+2=team'
p691
aS'w+2=than'
p692
aS'w+2=that'
p693
aS'w+2=the'
p694
aS'w+2=there'
p695
aS'w+2=these'
p696
aS'w+2=this'
p697
aS'w+2=to'
p698
aS'w+2=tour'
p699
aS'w+2=trade'
p700
aS'w+2=train'
p701
aS'w+2=transition'
p702
aS'w+2=transplant'
p703
aS'w+2=treatment'
p704
aS'w+2=two'
p705
aS'w+2=two-day'
p706
aS'w+2=u.n.-supervised'
p707
aS'w+2=union'
p708
aS'w+2=very'
p709
aS'w+2=vote'
p710
aS'w+2=voter'
p711
aS'w+2=warlord'
p712
aS'w+2=web'
p713
aS'w+2=week'
p714
aS'w+2=welcome'
p715
aS'w+2=well'
p716
aS'w+2=well-financed'
p717
aS'w+2=which'
p718
aS'w+2=will'
p719
aS'w+2=worker'
p720
aS'w+2=would'
p721
aS'w+2=year'
p722
aS"w-1=''"
p723
aS'w-1=,'
p724
aS'w-1=2007'
p725
aS'w-1=Africa'
p726
aS'w-1=African'
p727
aS'w-1=Ban'
p728
aS'w-1=Beersheba'
p729
aS'w-1=Council'
p730
aS'w-1=India'
p731
aS'w-1=Iraq'
p732
aS'w-1=King'
p733
aS'w-1=Korea'
p734
aS'w-1=Mittal'
p735
aS'w-1=Musharraf'
p736
aS'w-1=Nicolas'
p737
aS'w-1=Olympic'
p738
aS'w-1=Party'
p739
aS'w-1=Rutty'
p740
aS'w-1=TeenAIDS'
p741
aS'w-1=U.N.'
p742
aS'w-1=UNICEF'
p743
aS'w-1=Yao'
p744
aS'w-1=a'
p745
aS'w-1=about'
p746
aS'w-1=actually'
p747
aS'w-1=against'
p748
aS'w-1=al-Qaida'
p749
aS'w-1=already'
p750
aS'w-1=also'
p751
aS'w-1=and'
p752
aS'w-1=aspj'
p753
aS'w-1=association'
p754
aS'w-1=at'
p755
aS'w-1=authority'
p756
aS'w-1=bar'
p757
aS'w-1=be'
p758
aS'w-1=before'
p759
aS'w-1=begin'
p760
aS'w-1=best'
p761
aS'w-1=better'
p762
aS'w-1=bill'
p763
aS'w-1=body'
p764
aS'w-1=but'
p765
aS'w-1=by'
p766
aS'w-1=chaplain'
p767
aS'w-1=citizen'
p768
aS'w-1=committee'
p769
aS'w-1=community'
p770
aS'w-1=conference'
p771
aS'w-1=demonstration'
p772
aS'w-1=even'
p773
aS'w-1=event'
p774
aS'w-1=exhibit'
p775
aS'w-1=exhibition'
p776
aS'w-1=fair'
p777
aS'w-1=first'
p778
aS'w-1=for'
p779
aS'w-1=from'
p780
aS'w-1=government'
p781
aS'w-1=governor'
p782
aS'w-1=group'
p783
aS'w-1=have'
p784
aS'w-1=he'
p785
aS'w-1=help'
p786
aS'w-1=illegally'
p787
aS'w-1=in'
p788
aS'w-1=inmate'
p789
aS'w-1=involve'
p790
aS'w-1=journalist'
p791
aS'w-1=less'
p792
aS'w-1=local'
p793
aS'w-1=loosely'
p794
aS'w-1=march'
p795
aS'w-1=may'
p796
aS'w-1=merely'
p797
aS'w-1=month'
p798
aS'w-1=more'
p799
aS'w-1=mosque'
p800
aS'w-1=mostly'
p801
aS'w-1=museum'
p802
aS'w-1=must'
p803
aS'w-1=ndrangheta'
p804
aS'w-1=no'
p805
aS'w-1=not'
p806
aS'w-1=of'
p807
aS'w-1=official'
p808
aS'w-1=operation'
p809
aS'w-1=organization'
p810
aS'w-1=other'
p811
aS'w-1=parliament'
p812
aS'w-1=party'
p813
aS'w-1=people'
p814
aS'w-1=philanthropy'
p815
aS'w-1=political'
p816
aS'w-1=powerful'
p817
aS'w-1=program'
p818
aS'w-1=protest'
p819
aS'w-1=quickly'
p820
aS'w-1=really'
p821
aS'w-1=recently'
p822
aS'w-1=routinely'
p823
aS'w-1=say'
p824
aS'w-1=service'
p825
aS'w-1=she'
p826
aS'w-1=site'
p827
aS'w-1=specially'
p828
aS'w-1=squad'
p829
aS'w-1=start'
p830
aS'w-1=still'
p831
aS'w-1=strongest'
p832
aS'w-1=summit'
p833
aS'w-1=tank'
p834
aS'w-1=thank'
p835
aS'w-1=that'
p836
aS'w-1=the'
p837
aS'w-1=there'
p838
aS'w-1=they'
p839
aS'w-1=to'
p840
aS'w-1=very'
p841
aS'w-1=victim'
p842
aS'w-1=want'
p843
aS'w-1=we'
p844
aS'w-1=well'
p845
aS'w-1=which'
p846
aS'w-1=who'
p847
aS'w-1=will'
p848
aS'w-1=with'
p849
aS'w-1=you'
p850
aS"w-2=''"
p851
aS"w-2='s"
p852
aS'w-2=,'
p853
aS'w-2=-lrb-'
p854
aS'w-2=.'
p855
aS'w-2=200,000'
p856
aS'w-2=Africa'
p857
aS'w-2=American'
p858
aS'w-2=Beijing'
p859
aS'w-2=Britain'
p860
aS'w-2=Cloutier'
p861
aS'w-2=Coast'
p862
aS'w-2=Conte'
p863
aS'w-2=Court'
p864
aS'w-2=Diane'
p865
aS'w-2=Friday'
p866
aS'w-2=Gbagbo'
p867
aS'w-2=Gnassingbe'
p868
aS'w-2=Iglesias'
p869
aS'w-2=Indonesia'
p870
aS'w-2=Isaacs'
p871
aS'w-2=Janmohamed'
p872
aS'w-2=Justice'
p873
aS'w-2=Kamara'
p874
aS'w-2=Kohn'
p875
aS'w-2=Louisiana'
p876
aS'w-2=Malone'
p877
aS'w-2=Mazzitelli'
p878
aS'w-2=Metro'
p879
aS'w-2=Peoples'
p880
aS'w-2=Pervez'
p881
aS'w-2=Program'
p882
aS'w-2=Rio'
p883
aS'w-2=Secretary-General'
p884
aS'w-2=Soro'
p885
aS'w-2=South'
p886
aS'w-2=States'
p887
aS'w-2=Summit'
p888
aS'w-2=Trust'
p889
aS'w-2=`'
p890
aS'w-2=a'
p891
aS'w-2=able'
p892
aS'w-2=accuse'
p893
aS'w-2=activity'
p894
aS'w-2=aid'
p895
aS'w-2=aim'
p896
aS'w-2=and'
p897
aS'w-2=anti-government'
p898
aS'w-2=any'
p899
aS'w-2=area'
p900
aS'w-2=as'
p901
aS'w-2=ask'
p902
aS'w-2=be'
p903
aS'w-2=become'
p904
aS'w-2=best'
p905
aS'w-2=better'
p906
aS'w-2=blame'
p907
aS'w-2=board'
p908
aS'w-2=campaign'
p909
aS'w-2=can'
p910
aS'w-2=caretaker'
p911
aS'w-2=cause'
p912
aS'w-2=championship'
p913
aS'w-2=charge'
p914
aS'w-2=clear'
p915
aS'w-2=conference'
p916
aS'w-2=continue'
p917
aS'w-2=controversial'
p918
aS'w-2=corruption'
p919
aS'w-2=criminal'
p920
aS'w-2=culture'
p921
aS'w-2=day'
p922
aS'w-2=de'
p923
aS'w-2=death'
p924
aS'w-2=debate'
p925
aS'w-2=demand'
p926
aS'w-2=disease'
p927
aS'w-2=do'
p928
aS'w-2=downtown'
p929
aS'w-2=effective'
p930
aS'w-2=effort'
p931
aS'w-2=election'
p932
aS'w-2=end'
p933
aS'w-2=enjoy'
p934
aS'w-2=event'
p935
aS'w-2=every'
p936
aS'w-2=family'
p937
aS'w-2=festival'
p938
aS'w-2=fight'
p939
aS'w-2=follow'
p940
aS'w-2=force'
p941
aS'w-2=forefront'
p942
aS'w-2=forward'
p943
aS'w-2=freedom'
p944
aS'w-2=friendship'
p945
aS'w-2=front'
p946
aS'w-2=fund'
p947
aS'w-2=fundraising'
p948
aS'w-2=go'
p949
aS'w-2=good'
p950
aS'w-2=government'
p951
aS'w-2=group'
p952
aS'w-2=harder'
p953
aS'w-2=have'
p954
aS'w-2=he'
p955
aS'w-2=help'
p956
aS'w-2=how'
p957
aS'w-2=identify'
p958
aS'w-2=if'
p959
aS'w-2=impossible'
p960
aS'w-2=in'
p961
aS'w-2=include'
p962
aS'w-2=indicate'
p963
aS'w-2=interim'
p964
aS'w-2=investor'
p965
aS'w-2=involve'
p966
aS'w-2=it'
p967
aS'w-2=job'
p968
aS'w-2=know'
p969
aS'w-2=large'
p970
aS'w-2=leader'
p971
aS'w-2=level'
p972
aS'w-2=like'
p973
aS'w-2=link'
p974
aS'w-2=man'
p975
aS'w-2=mass'
p976
aS'w-2=meeting'
p977
aS'w-2=memorial'
p978
aS'w-2=more'
p979
aS'w-2=mosque'
p980
aS'w-2=most'
p981
aS'w-2=much'
p982
aS'w-2=must'
p983
aS'w-2=need'
p984
aS'w-2=no'
p985
aS'w-2=non-governmental'
p986
aS'w-2=not'
p987
aS'w-2=now'
p988
aS'w-2=nutrition'
p989
aS'w-2=of'
p990
aS'w-2=offensive'
p991
aS'w-2=official'
p992
aS'w-2=operation'
p993
aS'w-2=opposition'
p994
aS'w-2=or'
p995
aS'w-2=order'
p996
aS'w-2=outgoing'
p997
aS'w-2=partner'
p998
aS'w-2=peace'
p999
aS'w-2=peacekeeper'
p1000
aS'w-2=photo'
p1001
aS'w-2=policy'
p1002
aS'w-2=power'
p1003
aS'w-2=pre-positioning'
p1004
aS'w-2=prepare'
p1005
aS'w-2=president'
p1006
aS'w-2=pressure'
p1007
aS'w-2=program'
p1008
aS'w-2=project'
p1009
aS'w-2=protest'
p1010
aS'w-2=raid'
p1011
aS'w-2=rally'
p1012
aS'w-2=recent'
p1013
aS'w-2=recovery'
p1014
aS'w-2=region'
p1015
aS'w-2=remain'
p1016
aS'w-2=representative'
p1017
aS'w-2=responsibility'
p1018
aS'w-2=right'
p1019
aS'w-2=role'
p1020
aS'w-2=rule'
p1021
aS'w-2=sale'
p1022
aS'w-2=say'
p1023
aS'w-2=school'
p1024
aS'w-2=seek'
p1025
aS'w-2=seem'
p1026
aS'w-2=several'
p1027
aS'w-2=she'
p1028
aS'w-2=smuggling'
p1029
aS'w-2=sort'
p1030
aS'w-2=spend'
p1031
aS'w-2=state'
p1032
aS'w-2=statistics'
p1033
aS'w-2=store'
p1034
aS'w-2=stress'
p1035
aS'w-2=summit'
p1036
aS'w-2=suspect'
p1037
aS'w-2=suspicion'
p1038
aS'w-2=talk'
p1039
aS'w-2=task'
p1040
aS'w-2=that'
p1041
aS'w-2=the'
p1042
aS'w-2=there'
p1043
aS'w-2=they'
p1044
aS'w-2=think'
p1045
aS'w-2=time'
p1046
aS'w-2=to'
p1047
aS'w-2=tour'
p1048
aS'w-2=tourism'
p1049
aS'w-2=town'
p1050
aS'w-2=trafficker'
p1051
aS'w-2=trafficking'
p1052
aS'w-2=train'
p1053
aS'w-2=treaty'
p1054
aS'w-2=trip'
p1055
aS'w-2=try'
p1056
aS'w-2=two'
p1057
aS'w-2=union'
p1058
aS'w-2=volunteer'
p1059
aS'w-2=voter'
p1060
aS'w-2=voyage'
p1061
aS'w-2=want'
p1062
aS'w-2=way'
p1063
aS'w-2=we'
p1064
aS'w-2=web'
p1065
aS'w-2=week'
p1066
aS'w-2=when'
p1067
aS'w-2=which'
p1068
aS'w-2=who'
p1069
aS'w-2=why'
p1070
aS'w-2=will'
p1071
aS'w-2=woman'
p1072
aS'w-2=year'
p1073
aS'xcomp=Angels'
p1074
aS'xcomp=advocate'
p1075
aS'xcomp=attend'
p1076
aS'xcomp=better'
p1077
aS'xcomp=bring'
p1078
aS'xcomp=build'
p1079
aS'xcomp=call'
p1080
aS'xcomp=celebrate'
p1081
aS'xcomp=consider'
p1082
aS'xcomp=deliver'
p1083
aS'xcomp=demonstrate'
p1084
aS'xcomp=discuss'
p1085
aS'xcomp=divert'
p1086
aS'xcomp=escape'
p1087
aS'xcomp=give'
p1088
aS'xcomp=help'
p1089
aS'xcomp=match'
p1090
aS'xcomp=oppose'
p1091
aS'xcomp=pressure'
p1092
aS'xcomp=promote'
p1093
aS'xcomp=protest'
p1094
aS'xcomp=provide'
p1095
aS'xcomp=raise'
p1096
aS'xcomp=rebuild'
p1097
aS'xcomp=replace'
p1098
aS'xcomp=say'
p1099
aS'xcomp=show'
p1100
aS'xcomp=take'
p1101
asS'dtype'
p1102
cnumpy
float64
p1103
sS'vocabulary_'
p1104
(dp1105
g42
I33
sg457
I448
sg97
I88
sg500
I491
sg538
I529
sg123
I114
sg1084
I1075
sg31
I22
sg229
I220
sg308
I299
sg396
I387
sg463
I454
sg64
I55
sg952
I943
sg1064
I1055
sg409
I400
sg511
I502
sg809
I800
sg1086
I1077
sg742
I733
sg757
I748
sg399
I390
sg866
I857
sg593
I584
sg921
I912
sg608
I599
sg656
I647
sg657
I648
sg972
I963
sg85
I76
sg545
I536
sg932
I923
sg1089
I1080
sg681
I672
sg516
I507
sg861
I852
sg1037
I1028
sg603
I594
sg1080
I1071
sg630
I621
sg1004
I995
sg194
I185
sg400
I391
sg731
I722
sg416
I407
sg984
I975
sg720
I711
sg627
I618
sg255
I246
sg1078
I1069
sg355
I346
sg1002
I993
sg343
I334
sg334
I325
sg557
I548
sg164
I155
sg298
I289
sg472
I463
sg176
I167
sg13
I4
sg291
I282
sg266
I257
sg709
I700
sg554
I545
sg572
I563
sg858
I849
sg733
I724
sg824
I815
sg999
I990
sg1059
I1050
sg528
I519
sg906
I897
sg435
I426
sg426
I417
sg664
I655
sg475
I466
sg365
I356
sg34
I25
sg774
I765
sg716
I707
sg80
I71
sg293
I284
sg411
I402
sg789
I780
sg1063
I1054
sg24
I15
sg848
I839
sg466
I457
sg272
I263
sg737
I728
sg714
I705
sg622
I613
sg563
I554
sg985
I976
sg1017
I1008
sg1033
I1024
sg680
I671
sg537
I528
sg766
I757
sg845
I836
sg758
I749
sg969
I960
sg561
I552
sg644
I635
sg458
I449
sg937
I928
sg1042
I1033
sg60
I51
sg691
I682
sg655
I646
sg468
I459
sg1088
I1079
sg1046
I1037
sg1055
I1046
sg273
I264
sg568
I559
sg84
I75
sg189
I180
sg442
I433
sg918
I909
sg75
I66
sg322
I313
sg361
I352
sg687
I678
sg735
I726
sg218
I209
sg387
I378
sg1069
I1060
sg292
I283
sg575
I566
sg335
I326
sg222
I213
sg823
I814
sg260
I251
sg698
I689
sg445
I436
sg179
I170
sg336
I327
sg23
I14
sg611
I602
sg577
I568
sg617
I608
sg448
I439
sg756
I747
sg857
I848
sg784
I775
sg69
I60
sg704
I695
sg673
I664
sg512
I503
sg495
I486
sg976
I967
sg600
I591
sg1066
I1057
sg202
I193
sg637
I628
sg1031
I1022
sg536
I527
sg616
I607
sg641
I632
sg447
I438
sg1075
I1066
sg804
I795
sg751
I742
sg846
I837
sg71
I62
sg834
I825
sg454
I445
sg821
I812
sg631
I622
sg501
I492
sg860
I851
sg22
I13
sg907
I898
sg153
I144
sg948
I939
sg710
I701
sg209
I200
sg850
I841
sg719
I710
sg560
I551
sg781
I772
sg45
I36
sg1079
I1070
sg931
I922
sg11
I2
sg88
I79
sg570
I561
sg46
I37
sg1041
I1032
sg473
I464
sg689
I680
sg279
I270
sg1094
I1085
sg539
I530
sg1051
I1042
sg476
I467
sg518
I509
sg219
I210
sg1020
I1011
sg1092
I1083
sg478
I469
sg33
I24
sg750
I741
sg653
I644
sg294
I285
sg801
I792
sg530
I521
sg148
I139
sg348
I339
sg741
I732
sg90
I81
sg1060
I1051
sg414
I405
sg671
I662
sg746
I737
sg971
I962
sg559
I550
sg1070
I1061
sg770
I761
sg77
I68
sg340
I331
sg1093
I1084
sg151
I142
sg890
I881
sg357
I348
sg433
I424
sg181
I172
sg96
I87
sg444
I435
sg660
I651
sg648
I639
sg215
I206
sg977
I968
sg960
I951
sg986
I977
sg831
I822
sg362
I353
sg812
I803
sg403
I394
sg1054
I1045
sg79
I70
sg207
I198
sg283
I274
sg1009
I1000
sg771
I762
sg430
I421
sg578
I569
sg878
I869
sg1018
I1009
sg787
I778
sg883
I874
sg385
I376
sg286
I277
sg394
I385
sg965
I956
sg951
I942
sg869
I860
sg127
I118
sg324
I315
sg384
I375
sg761
I752
sg167
I158
sg491
I482
sg696
I687
sg788
I779
sg555
I546
sg269
I260
sg576
I567
sg421
I412
sg975
I966
sg122
I113
sg268
I259
sg144
I135
sg449
I440
sg703
I694
sg74
I65
sg1026
I1017
sg366
I357
sg837
I828
sg485
I476
sg864
I855
sg303
I294
sg686
I677
sg138
I129
sg328
I319
sg220
I211
sg675
I666
sg910
I901
sg103
I94
sg889
I880
sg221
I212
sg238
I229
sg634
I625
sg753
I744
sg912
I903
sg145
I136
sg422
I413
sg739
I730
sg237
I228
sg65
I56
sg1044
I1035
sg629
I620
sg70
I61
sg256
I247
sg372
I363
sg235
I226
sg234
I225
sg519
I510
sg391
I382
sg690
I681
sg904
I895
sg740
I731
sg165
I156
sg535
I526
sg651
I642
sg177
I168
sg550
I541
sg349
I340
sg159
I150
sg160
I151
sg768
I759
sg646
I637
sg727
I718
sg499
I490
sg995
I986
sg257
I248
sg290
I281
sg311
I302
sg482
I473
sg462
I453
sg966
I957
sg729
I720
sg619
I610
sg990
I981
sg649
I640
sg275
I266
sg62
I53
sg840
I831
sg1034
I1025
sg306
I297
sg828
I819
sg923
I914
sg623
I614
sg586
I577
sg280
I271
sg158
I149
sg121
I112
sg818
I809
sg928
I919
sg174
I165
sg1005
I996
sg404
I395
sg20
I11
sg527
I518
sg488
I479
sg157
I148
sg441
I432
sg497
I488
sg149
I140
sg734
I725
sg747
I738
sg284
I275
sg251
I242
sg204
I195
sg242
I233
sg938
I929
sg856
I847
sg94
I85
sg285
I276
sg264
I255
sg342
I333
sg353
I344
sg375
I366
sg780
I771
sg591
I582
sg52
I43
sg715
I706
sg386
I377
sg524
I515
sg579
I570
sg1057
I1048
sg474
I465
sg679
I670
sg874
I865
sg792
I783
sg459
I450
sg282
I273
sg307
I298
sg888
I879
sg992
I983
sg1000
I991
sg901
I892
sg549
I540
sg368
I359
sg892
I883
sg479
I470
sg1101
I1092
sg958
I949
sg895
I886
sg849
I840
sg240
I231
sg917
I908
sg223
I214
sg896
I887
sg483
I474
sg929
I920
sg799
I790
sg772
I763
sg802
I793
sg236
I227
sg565
I556
sg471
I462
sg1028
I1019
sg346
I337
sg551
I542
sg19
I10
sg270
I261
sg451
I442
sg1099
I1090
sg310
I301
sg810
I801
sg566
I557
sg580
I571
sg507
I498
sg172
I163
sg532
I523
sg571
I562
sg344
I335
sg668
I659
sg302
I293
sg542
I533
sg790
I781
sg55
I46
sg876
I867
sg1029
I1020
sg278
I269
sg378
I369
sg875
I866
sg109
I100
sg163
I154
sg569
I560
sg150
I141
sg252
I243
sg29
I20
sg738
I729
sg208
I199
sg508
I499
sg227
I218
sg170
I161
sg1027
I1018
sg205
I196
sg407
I398
sg323
I314
sg363
I354
sg470
I461
sg225
I216
sg136
I127
sg247
I238
sg939
I930
sg582
I573
sg187
I178
sg531
I522
sg424
I415
sg509
I500
sg484
I475
sg446
I437
sg1100
I1091
sg769
I760
sg872
I863
sg418
I409
sg276
I267
sg723
I714
sg248
I239
sg93
I84
sg440
I431
sg38
I29
sg117
I108
sg106
I97
sg73
I64
sg233
I224
sg914
I905
sg504
I495
sg27
I18
sg814
I805
sg981
I972
sg936
I927
sg1006
I997
sg722
I713
sg873
I864
sg178
I169
sg40
I31
sg654
I645
sg327
I318
sg994
I985
sg598
I589
sg258
I249
sg868
I859
sg514
I505
sg851
I842
sg246
I237
sg635
I626
sg450
I441
sg245
I236
sg397
I388
sg228
I219
sg636
I627
sg1035
I1026
sg793
I784
sg791
I782
sg188
I179
sg752
I743
sg732
I723
sg152
I143
sg265
I256
sg171
I162
sg350
I341
sg244
I235
sg776
I767
sg87
I78
sg522
I513
sg359
I350
sg552
I543
sg669
I660
sg613
I604
sg59
I50
sg1043
I1034
sg911
I902
sg678
I669
sg1061
I1052
sg1011
I1002
sg360
I351
sg114
I105
sg685
I676
sg624
I615
sg133
I124
sg455
I446
sg51
I42
sg913
I904
sg983
I974
sg852
I843
sg667
I658
sg924
I915
sg826
I817
sg388
I379
sg100
I91
sg699
I690
sg583
I574
sg705
I696
sg881
I872
sg640
I631
sg319
I310
sg331
I322
sg974
I965
sg39
I30
sg295
I286
sg431
I422
sg199
I190
sg212
I203
sg920
I911
sg540
I531
sg949
I940
sg998
I989
sg863
I854
sg190
I181
sg1032
I1023
sg1001
I992
sg162
I153
sg111
I102
sg393
I384
sg625
I616
sg546
I537
sg214
I205
sg898
I889
sg606
I597
sg76
I67
sg697
I688
sg1021
I1012
sg232
I223
sg115
I106
sg287
I278
sg882
I873
sg880
I871
sg305
I296
sg1068
I1059
sg808
I799
sg98
I89
sg581
I572
sg134
I125
sg726
I717
sg25
I16
sg775
I766
sg811
I802
sg43
I34
sg78
I69
sg139
I130
sg1076
I1067
sg453
I444
sg143
I134
sg815
I806
sg417
I408
sg405
I396
sg1098
I1089
sg200
I191
sg436
I427
sg49
I40
sg185
I176
sg884
I875
sg376
I367
sg615
I606
sg626
I617
sg428
I419
sg730
I721
sg794
I785
sg54
I45
sg711
I702
sg370
I361
sg506
I497
sg498
I489
sg1019
I1010
sg900
I891
sg196
I187
sg748
I739
sg230
I221
sg180
I171
sg832
I823
sg281
I272
sg486
I477
sg544
I535
sg147
I138
sg261
I252
sg184
I175
sg15
I6
sg35
I26
sg314
I305
sg534
I525
sg125
I116
sg645
I636
sg154
I145
sg672
I663
sg316
I307
sg959
I950
sg259
I250
sg526
I517
sg877
I868
sg99
I90
sg905
I896
sg961
I952
sg978
I969
sg822
I813
sg867
I858
sg842
I833
sg682
I673
sg398
I389
sg967
I958
sg996
I987
sg614
I605
sg56
I47
sg980
I971
sg1012
I1003
sg169
I160
sg201
I192
sg764
I755
sg930
I921
sg596
I587
sg677
I668
sg128
I119
sg456
I447
sg92
I83
sg925
I916
sg520
I511
sg81
I72
sg628
I619
sg1096
I1087
sg467
I458
sg865
I856
sg492
I483
sg262
I253
sg425
I416
sg401
I392
sg304
I295
sg935
I926
sg862
I853
sg21
I12
sg120
I111
sg700
I691
sg927
I918
sg1082
I1073
sg749
I740
sg933
I924
sg390
I381
sg68
I59
sg1072
I1063
sg833
I824
sg129
I120
sg17
I8
sg102
I93
sg193
I184
sg1008
I999
sg585
I576
sg263
I254
sg887
I878
sg558
I549
sg1087
I1078
sg702
I693
sg954
I945
sg662
I653
sg607
I598
sg57
I48
sg191
I182
sg432
I423
sg717
I708
sg358
I349
sg37
I28
sg885
I876
sg389
I380
sg666
I657
sg870
I861
sg301
I292
sg146
I137
sg1036
I1027
sg95
I86
sg765
I756
sg493
I484
sg317
I308
sg1067
I1058
sg89
I80
sg597
I588
sg415
I406
sg299
I290
sg108
I99
sg300
I291
sg277
I268
sg513
I504
sg116
I107
sg419
I410
sg1040
I1031
sg382
I373
sg643
I634
sg423
I414
sg203
I194
sg166
I157
sg226
I217
sg589
I580
sg947
I938
sg599
I590
sg198
I189
sg841
I832
sg587
I578
sg58
I49
sg288
I279
sg871
I862
sg413
I404
sg797
I788
sg556
I547
sg922
I913
sg249
I240
sg195
I186
sg830
I821
sg786
I777
sg777
I768
sg997
I988
sg315
I306
sg351
I342
sg1022
I1013
sg805
I796
sg763
I754
sg439
I430
sg118
I109
sg707
I698
sg618
I609
sg879
I870
sg30
I21
sg817
I808
sg609
I600
sg119
I110
sg168
I159
sg86
I77
sg973
I964
sg367
I358
sg67
I58
sg1048
I1039
sg137
I128
sg736
I727
sg827
I818
sg502
I493
sg829
I820
sg762
I753
sg718
I709
sg461
I452
sg909
I900
sg783
I774
sg706
I697
sg903
I894
sg926
I917
sg543
I534
sg126
I117
sg963
I954
sg352
I343
sg412
I403
sg216
I207
sg621
I612
sg66
I57
sg320
I311
sg661
I652
sg602
I593
sg274
I265
sg595
I586
sg465
I456
sg725
I716
sg688
I679
sg289
I280
sg437
I428
sg369
I360
sg377
I368
sg835
I826
sg1091
I1082
sg1090
I1081
sg658
I649
sg452
I443
sg309
I300
sg919
I910
sg728
I719
sg1030
I1021
sg567
I558
sg1024
I1015
sg72
I63
sg112
I103
sg843
I834
sg383
I374
sg1050
I1041
sg402
I393
sg692
I683
sg1039
I1030
sg105
I96
sg547
I538
sg517
I508
sg330
I321
sg767
I758
sg693
I684
sg1085
I1076
sg325
I316
sg332
I323
sg847
I838
sg946
I937
sg1062
I1053
sg993
I984
sg254
I245
sg970
I961
sg825
I816
sg584
I575
sg708
I699
sg638
I629
sg132
I123
sg854
I845
sg795
I786
sg798
I789
sg573
I564
sg807
I798
sg663
I654
sg916
I907
sg979
I970
sg124
I115
sg1047
I1038
sg525
I516
sg364
I355
sg897
I888
sg12
I3
sg267
I258
sg945
I936
sg18
I9
sg9
I0
sg1056
I1047
sg464
I455
sg944
I935
sg510
I501
sg477
I468
sg632
I623
sg899
I890
sg816
I807
sg955
I946
sg553
I544
sg183
I174
sg354
I345
sg438
I429
sg659
I650
sg36
I27
sg10
I1
sg594
I585
sg32
I23
sg1023
I1014
sg604
I595
sg982
I973
sg694
I685
sg341
I332
sg1071
I1062
sg489
I480
sg853
I844
sg91
I82
sg855
I846
sg612
I603
sg63
I54
sg374
I365
sg490
I481
sg674
I665
sg50
I41
sg574
I565
sg713
I704
sg321
I312
sg1045
I1036
sg135
I126
sg503
I494
sg934
I925
sg82
I73
sg724
I715
sg987
I978
sg988
I979
sg434
I425
sg743
I734
sg886
I877
sg1077
I1068
sg943
I934
sg893
I884
sg605
I596
sg1053
I1044
sg44
I35
sg481
I472
sg1065
I1056
sg337
I328
sg957
I948
sg356
I347
sg940
I931
sg610
I601
sg156
I147
sg48
I39
sg592
I583
sg1038
I1029
sg533
I524
sg210
I201
sg107
I98
sg588
I579
sg155
I146
sg562
I553
sg1013
I1004
sg891
I882
sg839
I830
sg213
I204
sg745
I736
sg968
I959
sg859
I850
sg683
I674
sg186
I177
sg647
I638
sg1081
I1072
sg243
I234
sg515
I506
sg1014
I1005
sg16
I7
sg1058
I1049
sg217
I208
sg1095
I1086
sg785
I776
sg782
I773
sg392
I383
sg192
I183
sg962
I953
sg695
I686
sg759
I750
sg420
I411
sg197
I188
sg813
I804
sg410
I401
sg130
I121
sg104
I95
sg41
I32
sg161
I152
sg239
I230
sg950
I941
sg253
I244
sg329
I320
sg338
I329
sg141
I132
sg908
I899
sg642
I633
sg427
I418
sg803
I794
sg1073
I1064
sg326
I317
sg800
I791
sg590
I581
sg991
I982
sg754
I745
sg665
I656
sg339
I330
sg83
I74
sg633
I624
sg14
I5
sg429
I420
sg1007
I998
sg1025
I1016
sg61
I52
sg1074
I1065
sg395
I386
sg650
I641
sg142
I133
sg819
I810
sg241
I232
sg1010
I1001
sg1049
I1040
sg652
I643
sg26
I17
sg28
I19
sg521
I512
sg796
I787
sg773
I764
sg564
I555
sg529
I520
sg778
I769
sg480
I471
sg684
I675
sg347
I338
sg460
I451
sg110
I101
sg956
I947
sg894
I885
sg676
I667
sg1097
I1088
sg844
I835
sg964
I955
sg53
I44
sg469
I460
sg942
I933
sg1083
I1074
sg1016
I1007
sg721
I712
sg312
I303
sg701
I692
sg318
I309
sg333
I324
sg639
I630
sg443
I434
sg250
I241
sg836
I827
sg744
I735
sg989
I980
sg670
I661
sg779
I770
sg371
I362
sg373
I364
sg1015
I1006
sg175
I166
sg915
I906
sg496
I487
sg408
I399
sg494
I485
sg131
I122
sg224
I215
sg140
I131
sg173
I164
sg345
I336
sg406
I397
sg548
I539
sg381
I372
sg820
I811
sg313
I304
sg297
I288
sg902
I893
sg113
I104
sg620
I611
sg505
I496
sg1052
I1043
sg211
I202
sg1003
I994
sg953
I944
sg379
I370
sg296
I287
sg806
I797
sg523
I514
sg760
I751
sg380
I371
sg601
I592
sg755
I746
sg101
I92
sg206
I197
sg487
I478
sg941
I932
sg47
I38
sg838
I829
sg541
I532
sg712
I703
sg271
I262
sg231
I222
sg182
I173
ssS'separator'
p1106
S'='
sS'sparse'
p1107
I01
sb.