ccopy_reg
_reconstructor
p1
(csklearn.feature_extraction.dict_vectorizer
DictVectorizer
p2
c__builtin__
object
p3
NtRp4
(dp5
S'vocabulary_'
p6
(dp7
S'advmod=then'
p8
I61
sS'nsubjpass=Russia'
p9
I433
sS'nsubjpass=reduction'
p10
I475
sS'w+1=through'
p11
I573
sS'ccomp=differentiate'
p12
I106
sS'w-1=investigator'
p13
I905
sS'advmod=more'
p14
I49
sS'w-2=Pennsylvania'
p15
I999
sS'w+2=virus'
p16
I835
sS'xcomp=develop'
p17
I1234
sS'xcomp=express'
p18
I1240
sS'ccomp=driver'
p19
I110
sS'w-2=investigation'
p20
I1096
sS'w+2=judge'
p21
I713
sS'w-2=prosecutor'
p22
I1145
sS'conj=relentless'
p23
I205
sS'w-2=people'
p24
I1134
sS'nsubjpass=people'
p25
I470
sS'w-1=Class'
p26
I857
sS'ccomp=warrant'
p27
I177
sS'advcl=return'
p28
I26
sS'w-1=Countries'
p29
I861
sS'mark=for'
p30
I325
sS'ccomp=mandate'
p31
I137
sS'w-1=but'
p32
I882
sS'w-2=Hampshire'
p33
I982
sS'conj=of'
p34
I199
sS'w+2=number'
p35
I733
sS'w+2=against'
p36
I615
sS'dobj=dance'
p37
I253
sS'advmod=well'
p38
I64
sS'w-2=election'
p39
I1070
sS'w+1=America'
p40
I512
sS'conj=unite'
p41
I213
sS'w-2=Gates'
p42
I979
sS'nsubj=team'
p43
I397
sS'w-2=when'
p44
I1200
sS'w+2=target'
p45
I815
sS'w-2=conduct'
p46
I1052
sS'nsubj=investigator'
p47
I370
sS'w-1=seem'
p48
I929
sS'w-2=team'
p49
I1173
sS'w+1=Isner'
p50
I513
sS'nsubjpass=Bashir'
p51
I412
sS'nsubj=process'
p52
I391
sS'w-2=Japan'
p53
I988
sS'w+2=rein'
p54
I778
sS'w-2=arrest'
p55
I1033
sS'w-2=NATO'
p56
I997
sS'ccomp=restore'
p57
I155
sS'w+2=animal'
p58
I619
sS'w-2=Coughlin'
p59
I974
sS'w-1=.'
p60
I854
sS'csubjpass=have'
p61
I220
sS'prep=than'
p62
I498
sS'ccomp=return'
p63
I157
sS'prep=by'
p64
I491
sS'prep=within'
p65
I503
sS'w-1=,'
p66
I852
sS'w+2=ideological'
p67
I704
sS'w+1=that'
p68
I569
sS'w-2=Mugabe'
p69
I996
sS'w+1=responsibility'
p70
I560
sS'nsubjpass=Sam'
p71
I435
sS'nsubj=government'
p72
I367
sS'w-2=job'
p73
I1099
sS'w-2=Democrats'
p74
I975
sS'ccomp=intend'
p75
I130
sS'nsubjpass=Coughlin'
p76
I419
sS'w-1=would'
p77
I955
sS'w-2=now'
p78
I1122
sS'ccomp=spend'
p79
I163
sS'w+2=some'
p80
I798
sS'ccomp=know'
p81
I132
sS'w-2=Ankara'
p82
I964
sS'nsubj=official'
p83
I384
sS'dobj=circumstance'
p84
I249
sS'nsubjpass=policy'
p85
I471
sS'w-2=official'
p86
I1125
sS'aux=would'
p87
I77
sS'w-2=past'
p88
I1133
sS'w+2=approve'
p89
I623
sS'dobj=impact'
p90
I271
sS'nsubjpass=activist'
p91
I441
sS'w+2=crack'
p92
I655
sS'w-1=voter'
p93
I945
sS'nsubj=Ki-moon'
p94
I347
sS'xcomp=target'
p95
I1295
sS'w+2=foundation'
p96
I688
sS'advmod=so'
p97
I54
sS'w+2=whether'
p98
I840
sS'ccomp=legal'
p99
I133
sS'w+2=track'
p100
I827
sS'w-2=Justice'
p101
I990
sS'w+2=but'
p102
I638
sS'nsubjpass=Mugabe'
p103
I432
sS'w-1=will'
p104
I952
sS'w-2=I'
p105
I985
sS'nsubj=vote'
p106
I402
sS'w-2=administration'
p107
I1023
sS'w-2=Union'
p108
I1014
sS'xcomp=force'
p109
I1246
sS'w+1=enemy'
p110
I530
sS'nsubj=number'
p111
I383
sS'aux=may'
p112
I72
sS'conj=lead'
p113
I195
sS'nsubjpass=Zadi'
p114
I439
sS'w+1=how'
p115
I540
sS'w-1=well'
p116
I947
sS'w-1=be'
p117
I879
sS'w+1=base'
p118
I524
sS'w+2=rapidly'
p119
I768
sS'w-1=caucus'
p120
I884
sS'w-2=playoff'
p121
I1136
sS'ccomp=designate'
p122
I104
sS'w+2=Manipur'
p123
I598
sS'w+2=condition'
p124
I650
sS'nsubj=Jerusalem'
p125
I344
sS'dobj=that'
p126
I314
sS'w-2=power'
p127
I1139
sS'w+2=meet'
p128
I725
sS'dobj=hisstatus'
p129
I267
sS'xcomp=dominate'
p130
I1237
sS'nsubj=leader'
p131
I371
sS'advcl=come'
p132
I6
sS'nsubj=assessment'
p133
I352
sS'w-2=robust'
p134
I1152
sS'nsubj=what'
p135
I404
sS'w-1=Bush'
p136
I856
sS'w-2=majority'
p137
I1108
sS'w+1=just'
p138
I546
sS'w+2=quality'
p139
I767
sS'nsubj=mission'
p140
I379
sS'xcomp=attack'
p141
I1220
sS'advcl=take'
p142
I30
sS'xcomp=bind'
p143
I1223
sS'w+2=country'
p144
I653
sS'w+2=happen'
p145
I695
sS'w-2=council'
p146
I1054
sS'dobj=price'
p147
I287
sS'w-2=count'
p148
I1055
sS'ccomp=meet'
p149
I139
sS'w+2=achieve'
p150
I609
sS'w+2=rebuild'
p151
I775
sS'w+1=whether'
p152
I579
sS'w+1=on'
p153
I553
sS'w+2=cause'
p154
I643
sS'conj=want'
p155
I214
sS'w+2=resist'
p156
I781
sS'w-2=important'
p157
I1090
sS'w-2=Jesus'
p158
I989
sS'dobj=course'
p159
I252
sS'xcomp=learn'
p160
I1256
sS'ccomp=protect'
p161
I148
sS'xcomp=do'
p162
I1236
sS'conj=find'
p163
I189
sS'w-1=expert'
p164
I891
sS'w-2=compensation'
p165
I1050
sS'w-2=Africa'
p166
I963
sS'w-1=have'
p167
I901
sS'ccomp=say'
p168
I159
sS'w+2=treatment'
p169
I828
sS'xcomp=obtain'
p170
I1266
sS'w-2=condition'
p171
I1051
sS'w+2=anyone'
p172
I622
sS'conj=need'
p173
I198
sS'dobj=cause'
p174
I246
sS'w+2=in'
p175
I706
sS'w-2=week'
p176
I1197
sS'ccomp=go'
p177
I122
sS'dobj=team'
p178
I313
sS'dobj=release'
p179
I294
sS'dobj=position'
p180
I285
sS'w+2=lung'
p181
I721
sS'xcomp=see'
p182
I1283
sS'w+2=find'
p183
I683
sS'w+2=steer'
p184
I804
sS'dobj=sentence'
p185
I299
sS'w+2=attack'
p186
I627
sS'w+2=who'
p187
I842
sS'w-2=only'
p188
I1127
sS'xcomp=shore'
p189
I1286
sS'w+2=parentage'
p190
I745
sS'advmod=formally'
p191
I43
sS'ccomp=have'
p192
I125
sS'w-1=could'
p193
I888
sS'w-2=weight'
p194
I1198
sS'w-1=also'
p195
I875
sS'aux=can'
p196
I69
sS'complm=that'
p197
I180
sS'w-1=become'
p198
I880
sS'w+2=shore'
p199
I794
sS'w+1=where'
p200
I578
sS'advmod=subsequently'
p201
I59
sS'w-2=yet'
p202
I1211
sS'w+2=legal'
p203
I718
sS'nsubjpass=Minister'
p204
I431
sS'w-1=public'
p205
I924
sS'advmod=as'
p206
I36
sS'w-1=you'
p207
I956
sS'w+2=will'
p208
I843
sS'xcomp=achieve'
p209
I1213
sS'xcomp=fight'
p210
I1243
sS'w+2=ratio'
p211
I770
sS'w-1=government'
p212
I897
sS'w+2=primary'
p213
I759
sS'w+1=government'
p214
I537
sS'w+1=not'
p215
I551
sS'w+2=product'
p216
I761
sS'w+2=eliminate'
p217
I669
sS'w-2=effort'
p218
I1069
sS'advcl=be'
p219
I2
sS'xcomp=mount'
p220
I1262
sS'w-2=Ki-moon'
p221
I992
sS'w-1=more'
p222
I913
sS'w+2=position'
p223
I755
sS'xcomp=disrupt'
p224
I1235
sS'w+1=the'
p225
I570
sS'w+2=take'
p226
I814
sS'xcomp=follow'
p227
I1245
sS'w-2=try'
p228
I1189
sS'dobj=characteristic'
p229
I247
sS'nsubj=mode'
p230
I380
sS'w+1=most'
p231
I549
sS'w-2=procedure'
p232
I1142
sS'ccomp=accept'
p233
I87
sS'w+2=be'
p234
I630
sS'xcomp=avoid'
p235
I1221
sS'w+1=they'
p236
I572
sS'nsubj=Israel'
p237
I343
sS'w-1=formally'
p238
I895
sS'w+2=resilient'
p239
I780
sS'nsubjpass=#PRP#'
p240
I409
sS'w-1=agent'
p241
I873
sS'xcomp=provide'
p242
I1273
sS'prep=in'
p243
I494
sS'dobj=ability'
p244
I241
sS'conj=win'
p245
I215
sS'ccomp=secede'
p246
I160
sS'w+2=shape'
p247
I791
sS'xcomp=face'
p248
I1242
sS'dobj=origin'
p249
I278
sS'w-2=leader'
p250
I1105
sS'w-2=party'
p251
I1132
sS'w-1=tribunal'
p252
I941
sS'w+2=Iraqis'
p253
I596
sS'w+1=funding'
p254
I534
sS'w-2=technology'
p255
I1175
sS'w-2=Party'
p256
I998
sS'w+2=future'
p257
I690
sS'w-2=hide'
p258
I1086
sS'nsubjpass=Commonwealth'
p259
I417
sS'w+2=those'
p260
I823
sS'advmod=largely'
p261
I47
sS'prep=to'
p262
I500
sS'w+2=relationship'
p263
I779
sS'w+2=Pakistan'
p264
I600
sS'advcl=call'
p265
I3
sS'ccomp=valuable'
p266
I173
sS'w+2=obtain'
p267
I735
sS'w+1=several'
p268
I563
sS'w+2=political'
p269
I754
sS'nsubjpass=Ankara'
p270
I410
sS'w+1=further'
p271
I535
sS'ccomp=admit'
p272
I91
sS'dobj=destiny'
p273
I255
sS'ccomp=deteriorate'
p274
I105
sS'w-1=still'
p275
I930
sS'w-2=authority'
p276
I1037
sS'w-2=watch'
p277
I1194
sS'w+1=and'
p278
I519
sS'nsubjpass=States'
p279
I436
sS'w-2=status'
p280
I1169
sS'dobj=plan'
p281
I283
sS'ccomp=harden'
p282
I124
sS'w+2=succeed'
p283
I808
sS'nsubjpass=contest'
p284
I453
sS'nsubj=conclusion'
p285
I361
sS'nsubjpass=McCain'
p286
I429
sS'w+2=folic'
p287
I684
sS'w+2=water'
p288
I836
sS'w+2=start'
p289
I801
sS'nsubjpass=candidate'
p290
I447
sS'w-2=just'
p291
I1101
sS'xcomp=come'
p292
I1228
sS'nsubj=member'
p293
I377
sS'ccomp=face'
p294
I114
sS'w+2=ever'
p295
I671
sS'advmod=enough'
p296
I40
sS'w-2=activist'
p297
I1022
sS'dobj=need'
p298
I275
sS'ccomp=violate'
p299
I175
sS'ccomp=fraudulent'
p300
I119
sS'dep=Americans'
p301
I223
sS'ccomp=case'
p302
I97
sS'w+2=improper'
p303
I705
sS'w-2=government'
p304
I1079
sS'w-2=ban'
p305
I1039
sS'ccomp=decide'
p306
I103
sS'dobj=diplomacy'
p307
I256
sS'w-2=Prevention'
p308
I1001
sS'w-2=test'
p309
I1176
sS'w+2=keep'
p310
I714
sS'xcomp=keep'
p311
I1255
sS'w-2=then'
p312
I1180
sS'w+2=additional'
p313
I613
sS'w+2=extent'
p314
I677
sS'nsubj=round'
p315
I394
sS'csubj=think'
p316
I219
sS'xcomp=post-july'
p317
I1269
sS'ccomp=send'
p318
I161
sS'dobj=budget'
p319
I245
sS'ccomp=work'
p320
I179
sS'conj=be'
p321
I181
sS'w-2=seem'
p322
I1160
sS'w-2=-rrb-'
p323
I961
sS'advcl=force'
p324
I12
sS'w-1=the'
p325
I934
sS'w-1=absolutely'
p326
I869
sS'w-2=countryside'
p327
I1056
sS'w-2=Security'
p328
I1007
sS'w-2=bloc'
p329
I1041
sS'w+1=approach'
p330
I521
sS'mark=if'
p331
I326
sS'w+2=act'
p332
I611
sS'ccomp=performer'
p333
I145
sS'w+2=should'
p334
I795
sS'w-2=work'
p335
I1208
sS'w-2=right'
p336
I1150
sS'advmod=where'
p337
I66
sS'w-2=rule'
p338
I1155
sS'ccomp=document'
p339
I109
sS'advmod=capable'
p340
I37
sS'w-2=available'
p341
I1038
sS'nsubj=talk'
p342
I396
sS'w+2=course'
p343
I654
sS'w+1=ownership'
p344
I554
sS'ccomp=hold'
p345
I128
sS'w-2=they'
p346
I1182
sS'w+2=effect'
p347
I667
sS'dobj=response'
p348
I295
sS'w+2=obstruct'
p349
I734
sS'xcomp=find'
p350
I1244
sS'w-1=again'
p351
I872
sS'w-2=claim'
p352
I1045
sS'dep=say'
p353
I234
sS'ccomp=live'
p354
I134
sS'ccomp=combatant'
p355
I99
sS'nsubjpass=terrorist'
p356
I480
sS'nsubjpass=Democrats'
p357
I420
sS'w-2=judge'
p358
I1100
sS'w-2=so'
p359
I1166
sS'w-2=Mardin'
p360
I993
sS'ccomp=president'
p361
I147
sS'dobj=ownership'
p362
I280
sS'w+1=very'
p363
I575
sS'ccomp=move'
p364
I141
sS'nsubjpass=Vietnam'
p365
I438
sS'w+2=body'
p366
I634
sS'dep=diet'
p367
I229
sS'w+2=through'
p368
I825
sS'prep=include'
p369
I495
sS'w+2=information'
p370
I708
sS'xcomp=let'
p371
I1257
sS'nsubj=peer'
p372
I386
sS'w-2=Goldwyn'
p373
I980
sS'w+1=factor'
p374
I533
sS'xcomp=assist'
p375
I1219
sS'w+2=see'
p376
I785
sS'xcomp=allow'
p377
I1217
sS'dobj=support'
p378
I311
sS'w+2=honor'
p379
I700
sS'dobj=progress'
p380
I288
sS'dep=win'
p381
I237
sS'dobj=funding'
p382
I264
sS'nsubjpass=action'
p383
I440
sS'advmod=equally'
p384
I41
sS'xcomp=produce'
p385
I1271
sS'w+2=acquire'
p386
I610
sS'w+2=chemistry'
p387
I646
sS'w+2=step'
p388
I805
sS'w-2=of'
p389
I1123
sS'ccomp=threat'
p390
I168
sS'w-2=Sydney'
p391
I1010
sS'w+2=for'
p392
I686
sS'w+2=characteristic'
p393
I645
sS'nsubjpass=Microsoft'
p394
I430
sS'w+2=however'
p395
I702
sS'w-1=to'
p396
I940
sS'w+2=sex'
p397
I790
sS'xcomp=crack'
p398
I1231
sS'advcl=stand'
p399
I28
sS'advmod=specifically'
p400
I56
sS'auxpass=seem'
p401
I82
sS'w+2=we'
p402
I837
sS'nsubjpass=inflation'
p403
I460
sS'w+2=wipe'
p404
I846
sS'nsubjpass=Goldwyn'
p405
I422
sS'w+2=reaction'
p406
I772
sS'w-2=McCain'
p407
I994
sS'dobj=quality'
p408
I289
sS'xcomp=play'
p409
I1268
sS'prep=despite'
p410
I492
sS'w-2=possible'
p411
I1138
sS'w-2=Clinton'
p412
I969
sS'nsubj=authority'
p413
I353
sS'w-2=rival'
p414
I1151
sS'advmod=again'
p415
I34
sS'w-2=which'
p416
I1202
sS'w+1=you'
p417
I585
sS'w+2=here'
p418
I698
sS'w-2=declaration'
p419
I1060
sS'w-2=point'
p420
I1137
sS'w-1=actually'
p421
I870
sS'ccomp=discipline'
p422
I107
sS'xcomp=steer'
p423
I1289
sS'acomp=much'
p424
I0
sS'nsubj=Musharraf'
p425
I348
sS'conj=extend'
p426
I188
sS'ccomp=verify'
p427
I174
sS'nsubj=that'
p428
I398
sS'w-1=Court'
p429
I862
sS'w-2=society'
p430
I1167
sS'w-1=it'
p431
I906
sS'nsubjpass=Horton'
p432
I425
sS'nsubjpass=Hampshire'
p433
I424
sS'advmod=however'
p434
I45
sS'w+2=boundary'
p435
I635
sS'w+1=as'
p436
I522
sS'w+1=at'
p437
I523
sS'xcomp=wipe'
p438
I1301
sS'w+2=listen'
p439
I720
sS'w-1=colleague'
p440
I885
sS'ccomp=consolidate'
p441
I101
sS'w-1=Commission'
p442
I858
sS'ccomp=resist'
p443
I152
sS'advcl=prevent'
p444
I25
sS'nsubj=meeting'
p445
I376
sS'w+2=overthrow'
p446
I743
sS'w+2=force'
p447
I687
sS'w+2=produce'
p448
I760
sS'conj=lose'
p449
I197
sS'nsubjpass=that'
p450
I481
sS'w-1=equally'
p451
I889
sS'xcomp=maintain'
p452
I1259
sS'advmod=stubbornly'
p453
I58
sS'nsubj=voter'
p454
I403
sS'w+2=root'
p455
I782
sS'w-2=military'
p456
I1113
sS'nsubj=election'
p457
I365
sS'w-1=Congo'
p458
I859
sS'w+2=continue'
p459
I651
sS'w-1=can'
p460
I883
sS'conj=decide'
p461
I185
sS'w-2=Russia'
p462
I1004
sS'advmod=here'
p463
I44
sS'w-2=large'
p464
I1103
sS'w-1=what'
p465
I948
sS'w+2=Marines'
p466
I599
sS'w-2=able'
p467
I1020
sS'ccomp=look'
p468
I135
sS'xcomp=honor'
p469
I1253
sS'w-2=ruthless'
p470
I1156
sS'w-1=say'
p471
I928
sS'w-1=with'
p472
I953
sS'advcl=catch'
p473
I4
sS'w-2=small'
p474
I1165
sS'w-1=vote'
p475
I944
sS'advmod=most'
p476
I50
sS'conj=free'
p477
I190
sS'advmod=when'
p478
I65
sS'w-2=Horton'
p479
I983
sS'w+2=extract'
p480
I678
sS'nsubjpass=student'
p481
I479
sS'w+2=semifinalist'
p482
I786
sS'nsubjpass=claim'
p483
I449
sS'ccomp=make'
p484
I136
sS'nsubj=result'
p485
I392
sS'w+2=winner'
p486
I845
sS'w-2=hearing'
p487
I1084
sS'ccomp=healthy'
p488
I126
sS'nsubj=outcome'
p489
I385
sS'ccomp=affect'
p490
I92
sS'prep=for'
p491
I493
sS'w+1=pattern'
p492
I555
sS'w-1=ultimately'
p493
I942
sS'w+2=early'
p494
I666
sS'w+2=bring'
p495
I636
sS'xcomp=revive'
p496
I1280
sS"w-1='s"
p497
I851
sS'w-2=target'
p498
I1172
sS'w-2=even'
p499
I1073
sS'w+2=they'
p500
I820
sS'nsubj=Bush'
p501
I333
sS'xcomp=obstruct'
p502
I1265
sS'w-1=part'
p503
I920
sS'w+2=where'
p504
I839
sS'w-1=voice'
p505
I943
sS'xcomp=protect'
p506
I1272
sS'w-2=to'
p507
I1185
sS'w+2=as'
p508
I625
sS'w-2=U.S.'
p509
I1012
sS'dep=make'
p510
I231
sS'dobj=reason'
p511
I292
sS'w+2=initial'
p512
I709
sS'w-2=decision'
p513
I1059
sS'w-1=in'
p514
I903
sS'xcomp=serve'
p515
I1285
sS'w+1=progress'
p516
I557
sS'dobj=outcome'
p517
I279
sS'w-2=while'
p518
I1203
sS'xcomp=nip'
p519
I1264
sS'dep=#NUMBER#'
p520
I222
sS'w+2=document'
p521
I663
sS'auxpass=be'
p522
I79
sS'xcomp=air'
p523
I1216
sS'ccomp=undergo'
p524
I170
sS'dobj=firing'
p525
I262
sS'w+2=success'
p526
I809
sS'csubjpass=long-lasting'
p527
I221
sS'w-2=difficult'
p528
I1064
sS'csubj=let'
p529
I218
sS'w+2=best'
p530
I632
sS'w+2=after'
p531
I614
sS'w+2=avoid'
p532
I629
sS'w+2=hang'
p533
I694
sS'dobj=shape'
p534
I301
sS'w+1=in'
p535
I543
sS'w-2=United'
p536
I1015
sS'partmod=face'
p537
I487
sS'advmod=officially'
p538
I52
sS'conj=confident'
p539
I183
sS'advmod=still'
p540
I57
sS'w+2=stop'
p541
I806
sS'nsubj=president'
p542
I389
sS'nsubjpass=african'
p543
I443
sS'w+2=level'
p544
I719
sS'xcomp=continue'
p545
I1229
sS'w+2=unify'
p546
I831
sS'w-2=Zukunft'
p547
I1018
sS'ccomp=a'
p548
I86
sS'advcl=improvement'
p549
I17
sS'w+2=unite'
p550
I832
sS'w+2=composition'
p551
I649
sS'ccomp=force'
p552
I118
sS'w-1=stubbornly'
p553
I931
sS'nsubj=trial'
p554
I400
sS'w+2=,'
p555
I588
sS'nsubj=month'
p556
I381
sS'w-1=insurgent'
p557
I904
sS'w+2=carry'
p558
I642
sS'w+2=follow'
p559
I685
sS'ccomp=tear'
p560
I167
sS'nsubjpass=decision'
p561
I455
sS'w+1=status'
p562
I566
sS'w+2=many'
p563
I724
sS'w+1=american'
p564
I518
sS'w+2=serve'
p565
I789
sS'dep=call'
p566
I226
sS'advcl=safe'
p567
I27
sS'w+2=she'
p568
I793
sS'nsubjpass=president'
p569
I472
sS'xcomp=pursue'
p570
I1274
sS'nsubj=primary'
p571
I390
sS'xcomp=listen'
p572
I1258
sS'w-2=information'
p573
I1093
sS'nsubjpass=majority'
p574
I463
sS'conj=pursue'
p575
I202
sS'nsubj=Hannaford'
p576
I341
sS'dobj=source'
p577
I305
sS'w-2=deal'
p578
I1058
sS'w+2=disrupt'
p579
I661
sS'w-2=challenge'
p580
I1044
sS'w+2=play'
p581
I751
sS'w+2=move'
p582
I728
sS'dobj=what'
p583
I318
sS'w+2=assist'
p584
I626
sS'ccomp=do'
p585
I108
sS'xcomp=work'
p586
I1302
sS'ccomp=fulfil'
p587
I120
sS'w-2=Balkans'
p588
I967
sS'w+2=origin'
p589
I741
sS'nsubjpass=cause'
p590
I448
sS'xcomp=root'
p591
I1281
sS'advmod=just'
p592
I46
sS'w+1=appointment'
p593
I520
sS'w-1=policy'
p594
I921
sS'advcl=#NUMBER#'
p595
I1
sS'w+2=Israel'
p596
I597
sS'nsubj=matter'
p597
I375
sS'nsubj=ship'
p598
I395
sS'w+2=year'
p599
I849
sS'w-2=islamist-led'
p600
I1097
sS'ccomp=use'
p601
I171
sS'partmod=elect'
p602
I486
sS'w+2=put'
p603
I766
sS'w+2=size'
p604
I796
sS'w-2=meeting'
p605
I1112
sS'advcl=tell'
p606
I31
sS'w-2=lane'
p607
I1102
sS'w-2=month'
p608
I1115
sS'nsubj=decision'
p609
I364
sS'w+2=or'
p610
I740
sS'nsubjpass=Clinton'
p611
I415
sS"w-2=''"
p612
I958
sS'nsubjpass=al-qaida'
p613
I444
sS'w+2=of'
p614
I736
sS'dobj=future'
p615
I265
sS'w+2=reason'
p616
I774
sS'nsubjpass=military'
p617
I464
sS'nsubjpass=Bush'
p618
I413
sS'w+2=on'
p619
I737
sS'auxpass=become'
p620
I80
sS'nsubj=year'
p621
I407
sS'w-2=primary'
p622
I1141
sS'w-1=rhythm'
p623
I927
sS'w+2=to'
p624
I826
sS'xcomp=prevent'
p625
I1270
sS'dep=Miller'
p626
I225
sS'xcomp=hold'
p627
I1252
sS'w-1=we'
p628
I946
sS'xcomp=impose'
p629
I1254
sS'w+2=he'
p630
I697
sS'w+2=make'
p631
I723
sS'w-2=animal'
p632
I1032
sS'xcomp=surge'
p633
I1292
sS'conj=determine'
p634
I186
sS'w+1=response'
p635
I559
sS'w-2=development'
p636
I1063
sS'conj=have'
p637
I191
sS'dobj=motive'
p638
I273
sS'prep=with'
p639
I502
sS'xcomp=extract'
p640
I1241
sS'nsubj=Navy'
p641
I349
sS'xcomp=have'
p642
I1251
sS'dobj=identity'
p643
I270
sS'nsubj=population'
p644
I388
sS'nsubjpass=Hamas'
p645
I423
sS'w-2=UN'
p646
I1013
sS'w-2=until'
p647
I1191
sS'w+2=area'
p648
I624
sS'cc=or'
p649
I85
sS'w+2=sharing'
p650
I792
sS'conj=identify'
p651
I192
sS'w-2=critical'
p652
I1057
sS'w+2=about'
p653
I608
sS'prep=without'
p654
I504
sS'w-2=Sunday'
p655
I1009
sS'ccomp=safe'
p656
I158
sS'dobj=ratio'
p657
I290
sS'nsubj=military'
p658
I378
sS'w+1=there'
p659
I571
sS'w-1=finally'
p660
I893
sS'xcomp=stay'
p661
I1288
sS'w-2=hear'
p662
I1083
sS'xcomp=approve'
p663
I1218
sS'advcl=have'
p664
I16
sS'w-2=France'
p665
I978
sS'w+2=two'
p666
I830
sS'w+2=budget'
p667
I637
sS'w-2=after'
p668
I1025
sS'advcl=succeed'
p669
I29
sS'w+2=motive'
p670
I726
sS'nsubj=maker'
p671
I372
sS'xcomp=meet'
p672
I1261
sS'nsubjpass=leadership'
p673
I462
sS'ccomp=appropriate'
p674
I94
sS'w+1=local'
p675
I547
sS'advmod=often'
p676
I53
sS'w+1=hisstatus'
p677
I539
sS'dobj=possibility'
p678
I286
sS'w-1=president'
p679
I922
sS'w-1=less'
p680
I909
sS'w-2=mechanism'
p681
I1111
sS'ccomp=site'
p682
I162
sS'w-2=hold'
p683
I1087
sS'w+2=infection'
p684
I707
sS'ccomp=need'
p685
I142
sS'advmod=ultimately'
p686
I63
sS'nsubjpass=state'
p687
I477
sS'dep=complete'
p688
I227
sS'ccomp=bring'
p689
I96
sS'dobj=date'
p690
I254
sS'w-2=would'
p691
I1209
sS'w+2=status'
p692
I802
sS'w+2=plan'
p693
I750
sS'w-2=ship'
p694
I1162
sS'w-2=Iran'
p695
I986
sS'xcomp=combat'
p696
I1227
sS'w+2=people'
p697
I748
sS'mark=though'
p698
I327
sS'w-2=way'
p699
I1195
sS'ccomp=vote'
p700
I176
sS'w+2=fetus'
p701
I680
sS'nsubjpass=Iran'
p702
I426
sS'w+2=this'
p703
I821
sS'w+2=expand'
p704
I675
sS'w-2=student'
p705
I1170
sS'w-2=leadership'
p706
I1106
sS'nsubjpass=Iraq'
p707
I427
sS'w+2=capable'
p708
I641
sS'ccomp=achieve'
p709
I88
sS'xcomp=start'
p710
I1287
sS'ccomp=suspend'
p711
I165
sS'nsubjpass=election'
p712
I457
sS'w+2=ability'
p713
I607
sS'ccomp=respond'
p714
I153
sS'w-2=Iraq'
p715
I987
sS'w+1=diplomacy'
p716
I528
sS'w+2=protect'
p717
I762
sS'prep=until'
p718
I501
sS'w+2=prevent'
p719
I757
sS'w-1=combine'
p720
I886
sS'dobj=husband'
p721
I269
sS'w-2=coffee'
p722
I1046
sS'nsubjpass=Australia'
p723
I411
sS'w+2=person'
p724
I749
sS'w-2=international'
p725
I1095
sS'xcomp=hang'
p726
I1250
sS'mark=while'
p727
I329
sS'w+2=run'
p728
I783
sS'dep=so'
p729
I235
sS'w+2=strategy'
p730
I807
sS'nsubjpass=committee'
p731
I451
sS'w-2=touch'
p732
I1186
sS'w-2=Records'
p733
I1003
sS'dobj=winner'
p734
I320
sS'w+2=reach'
p735
I771
sS'w+2=delegate'
p736
I658
sS'w+1=rule'
p737
I561
sS'w-1=time'
p738
I938
sS'w-2=with'
p739
I1207
sS'w-1=Council'
p740
I860
sS'w+2=final'
p741
I682
sS'w-2=also'
p742
I1029
sS'aux=will'
p743
I76
sS'w-2=referendum'
p744
I1148
sS'xcomp=change'
p745
I1226
sS'w+1=its'
p746
I545
sS'ccomp=get'
p747
I121
sS'conj=increase'
p748
I193
sS'advcl=involve'
p749
I19
sS'w-2=slave'
p750
I1164
sS'w-2=Election'
p751
I976
sS'expl=there'
p752
I321
sS'w-2=organized'
p753
I1129
sS'dobj=parentage'
p754
I281
sS'parataxis=go'
p755
I485
sS'nsubj=Council'
p756
I336
sS'advcl=feasible'
p757
I11
sS'nsubj=branch'
p758
I355
sS'dobj=sex'
p759
I300
sS'w+2=another'
p760
I620
sS'w-2=technique'
p761
I1174
sS'nsubjpass=Coast'
p762
I416
sS'advmod=finally'
p763
I42
sS'xcomp=unreliable'
p764
I1299
sS'nsubjpass=Union'
p765
I437
sS'ccomp=merit'
p766
I140
sS'xcomp=give'
p767
I1248
sS'nsubj=commander'
p768
I359
sS'w-2=play'
p769
I1135
sS'w-2=analysis'
p770
I1030
sS'w-2=time'
p771
I1184
sS'advcl=collect'
p772
I5
sS'w+2=its'
p773
I712
sS'dobj=force'
p774
I263
sS'w-1=subsequently'
p775
I932
sS'w+1=win'
p776
I583
sS'advmod=therefore'
p777
I62
sS'ccomp=track'
p778
I169
sS'w-1=Kaplan'
p779
I866
sS'ccomp=finish'
p780
I115
sS'w-2=States'
p781
I1008
sS'w-2=April'
p782
I965
sS'xcomp=stop'
p783
I1290
sS'w+2=parent'
p784
I744
sS'w+1=seed'
p785
I562
sS'w-1=time-line'
p786
I939
sS'w-2=in'
p787
I1092
sS'w-2=launch'
p788
I1104
sS'conj=like'
p789
I196
sS'w-2=president'
p790
I1140
sS'w-2=where'
p791
I1201
sS'advmod=absolutely'
p792
I32
sS'conj=put'
p793
I204
sS'w+2=do'
p794
I662
sS'w-2=al-qaida'
p795
I1026
sS'w-2=impossible'
p796
I1091
sS'dobj=validity'
p797
I315
sS'w+2=mount'
p798
I727
sS'nsubj=Class'
p799
I334
sS'dep=cut'
p800
I228
sS'ccomp=resume'
p801
I156
sS'w+2=initially'
p802
I710
sS'advmod=down'
p803
I38
sS'w-1=genetics'
p804
I896
sS'nsubj=deal'
p805
I363
sS'w-2=it'
p806
I1098
sS'nsubjpass=compensation'
p807
I452
sS'w-2=Congress'
p808
I972
sS'ccomp=release'
p809
I151
sS'xcomp=control'
p810
I1230
sS"w-1=''"
p811
I850
sS'w-2=talk'
p812
I1171
sS'conj=yes'
p813
I217
sS'ccomp=commit'
p814
I100
sS'ccomp=win'
p815
I178
sS'w-1=appear'
p816
I877
sS'w+1=Tsvangirai'
p817
I515
sS'ccomp=allow'
p818
I93
sS'w+2=dance'
p819
I657
sS'w-2=who'
p820
I1204
sS'nsubjpass=Sakho'
p821
I434
sS'w-2=and'
p822
I1031
sS'dobj=factor'
p823
I260
sS'w-2=distraught'
p824
I1066
sS'conj=continue'
p825
I184
sS'w-2=Coast'
p826
I970
sS'dobj=count'
p827
I251
sS'advmod=also'
p828
I35
sS'nsubjpass=enemy'
p829
I458
sS'advcl=hard'
p830
I15
sS'w-2=Sam'
p831
I1006
sS'dobj=strategy'
p832
I309
sS'w-2=pulse'
p833
I1146
sS'w+2=Arab'
p834
I591
sS'conj=try'
p835
I212
sS'w-2=account'
p836
I1021
sS'conj=wonder'
p837
I216
sS'w-2=go'
p838
I1078
sS'auxpass=appear'
p839
I78
sS'mark=because'
p840
I324
sS'w-1=worth'
p841
I954
sS'xcomp=try'
p842
I1297
sS'w-2=program'
p843
I1144
sS'w+2=threat'
p844
I824
sS'ccomp=address'
p845
I90
sS'xcomp=end'
p846
I1239
sS'nsubj=rhythm'
p847
I393
sS'advcl=effective'
p848
I9
sS'w+2=need'
p849
I729
sS'advmod=why'
p850
I67
sS'nsubjpass=who'
p851
I484
sS'nsubj=tribunal'
p852
I401
sS'w-2=have'
p853
I1081
sS'w-1=evaluation'
p854
I890
sS'xcomp=get'
p855
I1247
sS'cc=and'
p856
I83
sS'w-2=year'
p857
I1210
sS'w-2=FBI'
p858
I977
sS'w+2=air'
p859
I616
sS'nsubj=Democrats'
p860
I339
sS'w-2=use'
p861
I1192
sS'w+1=by'
p862
I526
sS'w+1=than'
p863
I568
sS'w-2=female'
p864
I1077
sS'dobj=success'
p865
I310
sS'w+1=be'
p866
I525
sS'xcomp=rein'
p867
I1279
sS'w+1=future'
p868
I536
sS'w+2=source'
p869
I799
sS'w-2=what'
p870
I1199
sS'w-2=Protection'
p871
I1002
sS'w-2=you'
p872
I1212
sS'nsubj=Commission'
p873
I335
sS"w+2='s"
p874
I587
sS'dobj=pattern'
p875
I282
sS'dobj=extent'
p876
I259
sS'w-2=face'
p877
I1075
sS'w-1=remain'
p878
I926
sS'nsubj=game'
p879
I366
sS'w+1=officially'
p880
I552
sS'nsubj=Pennsylvania'
p881
I350
sS'w-2=officer'
p882
I1124
sS'w+1=if'
p883
I542
sS'conj=say'
p884
I208
sS'w+2=outcome'
p885
I742
sS'dobj=scope'
p886
I297
sS'dobj=step'
p887
I308
sS'w-2=employer'
p888
I1071
sS'tmod=year'
p889
I507
sS'xcomp=push'
p890
I1275
sS'nsubjpass=commission'
p891
I450
sS'w+2=party'
p892
I747
sS'w+2=fate'
p893
I679
sS'w+1=it'
p894
I544
sS'mark=until'
p895
I328
sS'nsubj=#PRP#'
p896
I331
sS'ccomp=eligible'
p897
I111
sS'advmod=early'
p898
I39
sS'w+1=husband'
p899
I541
sS'w+2=learn'
p900
I717
sS'w+2=go'
p901
I693
sS'nsubjpass=government'
p902
I459
sS'w-2=african'
p903
I1024
sS'dobj=allegiance'
p904
I242
sS'w+2=any'
p905
I621
sS'cc=but'
p906
I84
sS'w-2=role'
p907
I1153
sS'w+2=get'
p908
I691
sS'nsubj=agent'
p909
I351
sS'dep=withdraw'
p910
I238
sS'dobj=body'
p911
I243
sS'nsubj=condition'
p912
I362
sS'w+2=adaptable'
p913
I612
sS'w-2=market'
p914
I1110
sS'w-2=Zadi'
p915
I1017
sS'dobj=#NUMBER#'
p916
I239
sS'w-1=help'
p917
I902
sS'w-2=delay'
p918
I1061
sS'w+2=before'
p919
I631
sS'dobj=mutation'
p920
I274
sS'w-2=or'
p921
I1128
sS'advcl=play'
p922
I23
sS'w-1=company'
p923
I887
sS'xcomp=eliminate'
p924
I1238
sS'prep=like'
p925
I496
sS'w-2=President'
p926
I1000
sS'w-2=the'
p927
I1179
sS'nsubjpass=council'
p928
I454
sS'w+1=-rrb-'
p929
I509
sS'nsubj=who'
p930
I406
sS'w-2=committee'
p931
I1048
sS'ccomp=expand'
p932
I113
sS'w-1=prosecutor'
p933
I923
sS'w+1=memory'
p934
I548
sS'w+2=sentence'
p935
I788
sS'w+1=ratio'
p936
I558
sS'w-2=these'
p937
I1181
sS'conj=provide'
p938
I201
sS'w+2=kind'
p939
I715
sS'nsubj=thing'
p940
I399
sS'w+2=Sudan'
p941
I602
sS'aux=must'
p942
I73
sS'w-2=ever'
p943
I1074
sS'advcl=do'
p944
I8
sS'w+2=thoroughly'
p945
I822
sS'w-2=ngo'
p946
I1120
sS'w-2=question'
p947
I1147
sS'w-2=interesting'
p948
I1094
sS'xcomp=be'
p949
I1222
sS'nsubjpass=what'
p950
I483
sS'w-2=allow'
p951
I1027
sS'w-2=Vietnam'
p952
I1016
sS'w-2=audit'
p953
I1036
sS'w-2=process'
p954
I1143
sS'w+2=which'
p955
I841
sS'nsubj=market'
p956
I374
sS'w-1=they'
p957
I937
sS'w+2=billion'
p958
I633
sS'w-1=group'
p959
I900
sS'nsubjpass=outcome'
p960
I466
sS'w-2=be'
p961
I1040
sS'w+2=try'
p962
I829
sS'nsubjpass=administration'
p963
I442
sS'w-2=Minister'
p964
I995
sS'prep=on'
p965
I497
sS'nsubjpass=to'
p966
I482
sS'mark=after'
p967
I322
sS'w-1=largely'
p968
I907
sS'nsubjpass=diplomat'
p969
I456
sS'ccomp=fly'
p970
I116
sS'nsubjpass=some'
p971
I476
sS'w-1=ground'
p972
I899
sS'xcomp=make'
p973
I1260
sS'w+2=real'
p974
I773
sS'nsubj=man'
p975
I373
sS'w+2=hold'
p976
I699
sS'nsubj=caucus'
p977
I357
sS'nsubjpass=#NUMBER#'
p978
I408
sS'w-1=Agency'
p979
I855
sS'nsubj=board'
p980
I354
sS'nsubj=which'
p981
I405
sS'w-2=company'
p982
I1049
sS'w-2=democracy'
p983
I1062
sS'w+2=validity'
p984
I833
sS'w-1=after'
p985
I871
sS'w+2=region'
p986
I777
sS'ccomp=valid'
p987
I172
sS'w-1=Nations'
p988
I867
sS'auxpass=remain'
p989
I81
sS'w-1=governor'
p990
I898
sS'xcomp=determine'
p991
I1233
sS'xcomp=rebuild'
p992
I1278
sS'nsubjpass=path'
p993
I469
sS'xcomp=win'
p994
I1300
sS'conj=ruthless'
p995
I207
sS'w+1=.'
p996
I510
sS'nsubj=investigation'
p997
I369
sS'w+2=such'
p998
I810
sS'w-2=House'
p999
I984
sS'xcomp=run'
p1000
I1282
sS'w-2=over'
p1001
I1131
sS'w+2=evidence'
p1002
I672
sS'w-2=Commonwealth'
p1003
I971
sS'dobj=system'
p1004
I312
sS'w+2=-lrb-'
p1005
I589
sS'advcl=cross'
p1006
I7
sS'ccomp=succeed'
p1007
I164
sS'w-2=more'
p1008
I1116
sS'dep=Isner'
p1009
I224
sS'conj=celebrate'
p1010
I182
sS'w+2=possibility'
p1011
I756
sS'w+2=that'
p1012
I816
sS'w+2=also'
p1013
I617
sS'dep=take'
p1014
I236
sS"w+2=''"
p1015
I586
sS'w-2=can'
p1016
I1043
sS'dobj=hold'
p1017
I268
sS'ccomp=provide'
p1018
I149
sS'prep=base'
p1019
I490
sS'w-1=who'
p1020
I951
sS'w+2=change'
p1021
I644
sS'nsubjpass=status'
p1022
I478
sS'dobj=enemy'
p1023
I258
sS'w-1=or'
p1024
I919
sS'w-2=whose'
p1025
I1205
sS'aux=could'
p1026
I70
sS'dobj=size'
p1027
I304
sS'w-1=leader'
p1028
I908
sS'w+2=each'
p1029
I665
sS'w-2=hope'
p1030
I1088
sS'nsubj=Agency'
p1031
I332
sS'dobj=semifinalist'
p1032
I298
sS'dobj=situation'
p1033
I303
sS'w+2=end'
p1034
I670
sS'advmod=less'
p1035
I48
sS'w+1=to'
p1036
I574
sS'w-2=ally'
p1037
I1028
sS'nsubj=police'
p1038
I387
sS'dobj=composition'
p1039
I250
sS'w+2=what'
p1040
I838
sS'w+2=fight'
p1041
I681
sS'w-1=Israel'
p1042
I865
sS'conj=involve'
p1043
I194
sS'w+2=and'
p1044
I618
sS'tmod=#DATE#'
p1045
I505
sS'ccomp=hide'
p1046
I127
sS'w+2=audience'
p1047
I628
sS'w-2=easy'
p1048
I1068
sS'w+2=Timmy'
p1049
I603
sS'w-2=diplomat'
p1050
I1065
sS'w+2=pursue'
p1051
I764
sS'advmod=actually'
p1052
I33
sS'w+2=Biafra'
p1053
I592
sS'ccomp=cause'
p1054
I98
sS'w-2=trial'
p1055
I1188
sS'w+2=price'
p1056
I758
sS'w+2=dominate'
p1057
I664
sS'ccomp=exist'
p1058
I112
sS'ccomp=take'
p1059
I166
sS'w+1=detainee'
p1060
I527
sS'w-2=must'
p1061
I1118
sS'w+2=no'
p1062
I732
sS'tmod=time'
p1063
I506
sS'nsubj=Countries'
p1064
I337
sS'w-2=she'
p1065
I1161
sS'w-2=Constitutional'
p1066
I973
sS'w-2=he'
p1067
I1082
sS'w+2=veracity'
p1068
I834
sS'dobj=level'
p1069
I272
sS'ccomp=occur'
p1070
I144
sS'w+1=which'
p1071
I580
sS'nsubj=Court'
p1072
I338
sS'w+2=smart'
p1073
I797
sS'w-2=minister'
p1074
I1114
sS'w+2=identity'
p1075
I703
sS'nsubj=case'
p1076
I356
sS'advmod=now'
p1077
I51
sS'xcomp=take'
p1078
I1294
sS'w-2=result'
p1079
I1149
sS'w-2=say'
p1080
I1157
sS'conj=remove'
p1081
I206
sS'w-1=extremist'
p1082
I892
sS'w+1=Pakistan'
p1083
I514
sS'w+2=city'
p1084
I647
sS'w+2=the'
p1085
I817
sS'prep=at'
p1086
I489
sS'w-2=will'
p1087
I1206
sS'prep=as'
p1088
I488
sS'w+1=stage'
p1089
I565
sS'w-2=,'
p1090
I959
sS'w-2=-'
p1091
I960
sS'w-2=.'
p1092
I962
sS'w+2=Salim'
p1093
I601
sS'w-1=and'
p1094
I876
sS'dep=rule'
p1095
I233
sS'nsubjpass=ngo'
p1096
I465
sS'w+1=what'
p1097
I576
sS"w-2='"
p1098
I957
sS'dobj=number'
p1099
I277
sS'aux=have'
p1100
I71
sS'w-2=but'
p1101
I1042
sS'w+2=tackle'
p1102
I813
sS'conj=endure'
p1103
I187
sS'w+2=Iran'
p1104
I595
sS'w+2=how'
p1105
I701
sS'w-2=thing'
p1106
I1183
sS'ccomp=constitute'
p1107
I102
sS'w-1=Hannaford'
p1108
I863
sS'ccomp=happen'
p1109
I123
sS'w-2=not'
p1110
I1121
sS'w+2=maintain'
p1111
I722
sS'w+2=rate'
p1112
I769
sS'w+2=express'
p1113
I676
sS'nsubjpass=leader'
p1114
I461
sS'w-2=need'
p1115
I1119
sS'conj=possible'
p1116
I200
sS'w-1=member'
p1117
I912
sS'ccomp=phony'
p1118
I146
sS'dobj=gender'
p1119
I266
sS'w+2=scope'
p1120
I784
sS'w-2=commission'
p1121
I1047
sS'xcomp=acquire'
p1122
I1214
sS'conj=smart'
p1123
I210
sS'xcomp=bring'
p1124
I1224
sS'advmod=soon'
p1125
I55
sS'nsubjpass=party'
p1126
I468
sS'w-2=transparent'
p1127
I1187
sS'ccomp=nominate'
p1128
I143
sS'prep=through'
p1129
I499
sS'w+2=large'
p1130
I716
sS'w+2=one'
p1131
I738
sS'w-1=which'
p1132
I950
sS'w+2=control'
p1133
I652
sS'xcomp=track'
p1134
I1296
sS'w-1=I'
p1135
I864
sS'dobj=Marines'
p1136
I240
sS'aux=should'
p1137
I74
sS'w+2=policy'
p1138
I753
sS'xcomp=move'
p1139
I1263
sS'advcl=make'
p1140
I21
sS'w-2=out'
p1141
I1130
sS'w-1=then'
p1142
I935
sS'w-1=of'
p1143
I916
sS'xcomp=carry'
p1144
I1225
sS'w+2=negotiation'
p1145
I730
sS'advcl=lock'
p1146
I20
sS'nsubj=movement'
p1147
I382
sS'w+1=winner'
p1148
I584
sS'w-1=a'
p1149
I868
sS'w-1=really'
p1150
I925
sS'conj=shape'
p1151
I209
sS'nsubj=coffee'
p1152
I358
sS'w-2=KRG'
p1153
I991
sS'w+2=police'
p1154
I752
sS'w+2=election'
p1155
I668
sS'dobj=fate'
p1156
I261
sS'xcomp=crush'
p1157
I1232
sS'dobj=boundary'
p1158
I244
sS'dobj=effect'
p1159
I257
sS'w+2=work'
p1160
I847
sS'w-1=-lrb-'
p1161
I853
sS'mark=as'
p1162
I323
sS'dobj=stage'
p1163
I306
sS'w-2=Bush'
p1164
I968
sS'w+1=each'
p1165
I529
sS'w+2=diplomacy'
p1166
I660
sS'nsubj=Kaplan'
p1167
I346
sS'w+2=there'
p1168
I819
sS'w-2=hard'
p1169
I1080
sS'dobj=veracity'
p1170
I316
sS'w+2=win'
p1171
I844
sS'w-2=violent'
p1172
I1193
sS'w+2=surge'
p1173
I811
sS'w+1=she'
p1174
I564
sS'dobj=sharing'
p1175
I302
sS'advmod=that'
p1176
I60
sS'nsubj=Department'
p1177
I340
sS'xcomp=act'
p1178
I1215
sS'dobj=whatever'
p1179
I319
sS'nsubjpass=pace'
p1180
I467
sS'w+2=it'
p1181
I711
sS'xcomp=put'
p1182
I1276
sS'w+2=give'
p1183
I692
sS'w+1=exactly'
p1184
I532
sS'w-2=we'
p1185
I1196
sS'w+2=part'
p1186
I746
sS'w+2=only'
p1187
I739
sS'w-2=maker'
p1188
I1109
sS'nsubjpass=Mardin'
p1189
I428
sS'w+2=then'
p1190
I818
sS'dep=need'
p1191
I232
sS'dobj=policy'
p1192
I284
sS'w+1=enough'
p1193
I531
sS'w+2=have'
p1194
I696
sS'ccomp=be'
p1195
I95
sS'w-1=now'
p1196
I915
sS'w-2=once'
p1197
I1126
sS'w+2=refugee'
p1198
I776
sS'w-2=much'
p1199
I1117
sS'w+1=much'
p1200
I550
sS'w+2=stay'
p1201
I803
sS'w+2=candidate'
p1202
I640
sS'dep=go'
p1203
I230
sS'advcl=happen'
p1204
I14
sS'w-2=seek'
p1205
I1159
sS'dobj=reaction'
p1206
I291
sS'dobj=nominee'
p1207
I276
sS'advcl=operate'
p1208
I22
sS'dobj=responsibility'
p1209
I296
sS'xcomp=send'
p1210
I1284
sS'w+2=nip'
p1211
I731
sS'w-2=likely'
p1212
I1107
sS'w+2=systematic'
p1213
I812
sS'advcl=employ'
p1214
I10
sS'nsubjpass=authority'
p1215
I445
sS'w-2=Sakho'
p1216
I1005
sS'nsubjpass=France'
p1217
I421
sS'w+1=why'
p1218
I582
sS'w+2=U.S.'
p1219
I604
sS'dobj=chemistry'
p1220
I248
sS'w-1=may'
p1221
I911
sS'w+2=send'
p1222
I787
sS'xcomp=succeed'
p1223
I1291
sS'w-1=all'
p1224
I874
sS'w+2=star'
p1225
I800
sS'xcomp=go'
p1226
I1249
sS'nsubj=KRG'
p1227
I345
sS'w+1=who'
p1228
I581
sS'w+1=U.S.'
p1229
I516
sS'nsubjpass=Congress'
p1230
I418
sS'nsubjpass=bloc'
p1231
I446
sS'w-2=help'
p1232
I1085
sS'w+2=crush'
p1233
I656
sS'w+1=when'
p1234
I577
sS'w+2=can'
p1235
I639
sS'w-2=assessment'
p1236
I1034
sS'w-2=soon'
p1237
I1168
sS'advcl=positive'
p1238
I24
sS'ccomp=increase'
p1239
I129
sS'aux=to'
p1240
I75
sS'w-2=attempt'
p1241
I1035
sS'w-2=should'
p1242
I1163
sS'w-1=when'
p1243
I949
sS'w+1=support'
p1244
I567
sS'xcomp=overthrow'
p1245
I1267
sS'advcl=go'
p1246
I13
sS'w-2=a'
p1247
I1019
sS'w+2=would'
p1248
I848
sS'w+2=full'
p1249
I689
sS'ccomp=responsible'
p1250
I154
sS'w+2=Hillary'
p1251
I594
sS'conj=surrender'
p1252
I211
sS'nsubjpass=prosecutor'
p1253
I474
sS'w+2=exact'
p1254
I673
sS'w-2=early'
p1255
I1067
sS'advcl=increase'
p1256
I18
sS'w-1=that'
p1257
I933
sS'w+2=Ethiopia'
p1258
I593
sS'w+2=closely'
p1259
I648
sS'w-1=officially'
p1260
I917
sS'w-1=for'
p1261
I894
sS'w+1=,'
p1262
I508
sS'dobj=relationship'
p1263
I293
sS'ccomp=follow'
p1264
I117
sS'w-2=that'
p1265
I1178
sS'w+2=provide'
p1266
I763
sS'w+2=.'
p1267
I590
sS'conj=push'
p1268
I203
sS'w-1=often'
p1269
I918
sS'w-2=scan'
p1270
I1158
sS'w+1=;'
p1271
I511
sS'nsubjpass=program'
p1272
I473
sS'w-2=factor'
p1273
I1076
sS'neg=not'
p1274
I330
sS'w-1=there'
p1275
I936
sS'w-2=Taleban'
p1276
I1011
sS'w+2=exactly'
p1277
I674
sS'xcomp=unify'
p1278
I1298
sS'w-2=engineer'
p1279
I1072
sS'dobj=way'
p1280
I317
sS'w-2=Guantanamo'
p1281
I981
sS'ccomp=item'
p1282
I131
sS'w-2=Australia'
p1283
I966
sS'w-2=could'
p1284
I1053
sS'dobj=status'
p1285
I307
sS'w-2=tumor'
p1286
I1190
sS'ccomp=acquire'
p1287
I89
sS'xcomp=reach'
p1288
I1277
sS'xcomp=tackle'
p1289
I1293
sS'ccomp=rape'
p1290
I150
sS'nsubj=company'
p1291
I360
sS'w+1=a'
p1292
I517
sS'nsubj=hearing'
p1293
I368
sS'w-1=not'
p1294
I914
sS'nsubj=House'
p1295
I342
sS'w-2=if'
p1296
I1089
sS'w-2=round'
p1297
I1154
sS'ccomp=mean'
p1298
I138
sS'w+1=he'
p1299
I538
sS'w-1=as'
p1300
I878
sS'w-2=than'
p1301
I1177
sS'w+2=push'
p1302
I765
sS'aux=be'
p1303
I68
sS'w+2=develop'
p1304
I659
sS'w+1=possible'
p1305
I556
sS'nsubjpass=China'
p1306
I414
sS'w-1=branch'
p1307
I881
sS'w+2=`'
p1308
I605
sS'w+2=a'
p1309
I606
sS'w-1=man'
p1310
I910
ssS'dtype'
p1311
cnumpy
float64
p1312
sS'feature_names_'
p1313
(lp1314
g424
ag595
ag219
ag265
ag473
ag772
ag132
ag1006
ag944
ag848
ag1214
ag757
ag324
ag1246
ag1204
ag830
ag664
ag549
ag1256
ag749
ag1146
ag1140
ag1208
ag922
ag1238
ag444
ag28
ag567
ag399
ag669
ag142
ag606
ag792
ag1052
ag415
ag828
ag206
ag340
ag803
ag898
ag296
ag384
ag763
ag191
ag463
ag434
ag592
ag261
ag1035
ag14
ag476
ag1077
ag538
ag676
ag97
ag1125
ag400
ag540
ag453
ag201
ag1176
ag8
ag777
ag686
ag38
ag478
ag337
ag850
ag1303
ag196
ag1026
ag1100
ag112
ag942
ag1137
ag1240
ag743
ag87
ag839
ag522
ag620
ag989
ag401
ag856
ag906
ag649
ag548
ag233
ag709
ag1287
ag845
ag272
ag490
ag818
ag674
ag1195
ag689
ag302
ag1054
ag355
ag814
ag441
ag1107
ag306
ag122
ag274
ag12
ag422
ag585
ag339
ag19
ag897
ag1058
ag932
ag294
ag780
ag970
ag1264
ag552
ag300
ag587
ag747
ag177
ag1109
ag282
ag192
ag488
ag1046
ag345
ag1239
ag75
ag1282
ag81
ag99
ag354
ag468
ag484
ag31
ag1298
ag149
ag766
ag364
ag685
ag1128
ag1070
ag333
ag1118
ag361
ag161
ag1018
ag1290
ag809
ag443
ag714
ag1250
ag57
ag801
ag63
ag656
ag168
ag246
ag318
ag682
ag79
ag1007
ag711
ag1059
ag560
ag390
ag778
ag524
ag601
ag987
ag266
ag427
ag299
ag700
ag27
ag815
ag320
ag197
ag321
ag1010
ag539
ag825
ag461
ag634
ag1103
ag426
ag163
ag477
ag637
ag651
ag748
ag1043
ag113
ag789
ag449
ag173
ag34
ag1116
ag938
ag575
ag1268
ag793
ag23
ag1081
ag995
ag884
ag1151
ag1123
ag1252
ag835
ag41
ag155
ag245
ag837
ag813
ag529
ag316
ag61
ag527
ag520
ag301
ag1009
ag626
ag566
ag688
ag800
ag367
ag1203
ag510
ag1191
ag1095
ag353
ag729
ag1014
ag381
ag910
ag916
ag1136
ag244
ag904
ag911
ag1158
ag319
ag174
ag229
ag1220
ag84
ag1039
ag827
ag159
ag37
ag690
ag273
ag307
ag1159
ag1023
ag876
ag823
ag1156
ag525
ag774
ag382
ag615
ag1119
ag129
ag1017
ag721
ag643
ag90
ag1069
ag638
ag920
ag298
ag1207
ag1099
ag249
ag517
ag362
ag754
ag875
ag281
ag1192
ag180
ag678
ag147
ag380
ag408
ag657
ag1206
ag511
ag1263
ag179
ag348
ag1209
ag886
ag1032
ag185
ag759
ag534
ag1175
ag1033
ag1027
ag577
ag1163
ag1285
ag887
ag832
ag865
ag378
ag1004
ag178
ag126
ag797
ag1170
ag1280
ag583
ag1179
ag734
ag752
ag967
ag1162
ag840
ag30
ag331
ag698
ag895
ag727
ag1274
ag896
ag1031
ag501
ag799
ag873
ag756
ag1064
ag1072
ag860
ag1177
ag576
ag1295
ag237
ag125
ag1227
ag1167
ag94
ag425
ag641
ag881
ag909
ag133
ag413
ag980
ag758
ag1076
ag977
ag1152
ag768
ag1291
ag285
ag912
ag805
ag609
ag457
ag879
ag72
ag1293
ag997
ag47
ag131
ag671
ag975
ag956
ag597
ag445
ag293
ag658
ag140
ag230
ag556
ag1147
ag111
ag83
ag489
ag372
ag1038
ag644
ag542
ag571
ag52
ag485
ag847
ag315
ag598
ag342
ag43
ag428
ag940
ag554
ag852
ag106
ag454
ag135
ag981
ag930
ag621
ag978
ag240
ag270
ag723
ag51
ag618
ag1306
ag611
ag762
ag259
ag1230
ag76
ag357
ag1217
ag405
ag645
ag433
ag432
ag702
ag707
ag1189
ag286
ag394
ag204
ag103
ag9
ag821
ag71
ag279
ag765
ag365
ag114
ag383
ag91
ag963
ag543
ag613
ag1215
ag1231
ag290
ag590
ag483
ag891
ag731
ag807
ag284
ag928
ag561
ag969
ag712
ag829
ag902
ag403
ag1114
ag673
ag574
ag617
ag1096
ag960
ag1180
ag1126
ag993
ag25
ag85
ag569
ag1272
ag1253
ag10
ag971
ag687
ag1022
ag481
ag356
ag450
ag966
ag950
ag851
ag755
ag602
ag537
ag1088
ag1086
ag1019
ag64
ag410
ag491
ag243
ag369
ag925
ag965
ag62
ag1129
ag262
ag718
ag639
ag65
ag654
ag1045
ag1063
ag889
ag1262
ag929
ag996
ag1271
ag40
ag50
ag1083
ag817
ag1229
ag1292
ag564
ag278
ag593
ag330
ag436
ag437
ag118
ag866
ag862
ag1060
ag716
ag1165
ag110
ag1193
ag1184
ag374
ag254
ag271
ag868
ag214
ag1299
ag677
ag115
ag899
ag883
ag535
ag894
ag746
ag138
ag675
ag934
ag231
ag1200
ag215
ag880
ag153
ag344
ag492
ag1305
ag516
ag936
ag635
ag70
ag737
ag785
ag268
ag1174
ag1089
ag562
ag1244
ag863
ag68
ag225
ag659
ag236
ag11
ag1036
ag363
ag1097
ag1234
ag200
ag152
ag1071
ag1228
ag1218
ag776
ag1148
ag417
ag1015
ag874
ag555
ag1005
ag1267
ag834
ag1053
ag1258
ag1251
ag1104
ag253
ag596
ag123
ag466
ag264
ag1093
ag941
ag1049
ag1219
ag1308
ag1309
ag713
ag653
ag150
ag386
ag332
ag913
ag313
ag531
ag36
ag859
ag1013
ag1044
ag58
ag760
ag905
ag172
ag89
ag648
ag508
ag584
ag186
ag1047
ag532
ag234
ag919
ag530
ag958
ag366
ag435
ag495
ag667
ag102
ag1235
ag1202
ag708
ag558
ag154
ag1021
ag393
ag387
ag1084
ag1259
ag551
ag124
ag459
ag1133
ag144
ag343
ag92
ag1233
ag819
ag736
ag1304
ag1166
ag579
ag794
ag521
ag1057
ag1029
ag494
ag347
ag1155
ag217
ag1034
ag295
ag1002
ag1254
ag1277
ag704
ag1113
ag314
ag480
ag893
ag701
ag1041
ag741
ag183
ag287
ag559
ag392
ag447
ag96
ag1249
ag257
ag908
ag1183
ag901
ag533
ag145
ag1194
ag630
ag418
ag976
ag379
ag1105
ag395
ag1075
ag67
ag303
ag175
ag684
ag370
ag512
ag802
ag1181
ag773
ag21
ag310
ag939
ag1130
ag900
ag203
ag544
ag439
ag181
ag1111
ag631
ag563
ag128
ag670
ag798
ag582
ag849
ag1145
ag1211
ag1062
ag35
ag349
ag267
ag614
ag619
ag1131
ag1187
ag610
ag589
ag885
ag446
ag784
ag190
ag1186
ag892
ag697
ag724
ag693
ag581
ag1154
ag1138
ag269
ag223
ag1011
ag719
ag1056
ag213
ag448
ag216
ag717
ag1266
ag1051
ag1302
ag603
ag139
ag119
ag1112
ag211
ag735
ag406
ag974
ag616
ag151
ag1198
ag986
ag54
ag263
ag239
ag156
ag455
ag728
ag1120
ag376
ag482
ag1222
ag935
ag565
ag397
ag247
ag650
ag568
ag199
ag334
ag604
ag1073
ag80
ag869
ag1225
ag289
ag692
ag1201
ag184
ag388
ag541
ag730
ag283
ag526
ag998
ag1173
ag1213
ag1102
ag226
ag45
ag1012
ag1085
ag1190
ag1168
ag500
ag703
ag945
ag260
ag844
ag368
ag624
ag100
ag169
ag962
ag666
ag546
ag550
ag984
ag1068
ag16
ag288
ag402
ag1040
ag504
ag98
ag955
ag187
ag208
ag1171
ag486
ag404
ag1160
ag1248
ag599
ag811
ag497
ag66
ag1161
ag60
ag979
ag136
ag26
ag442
ag458
ag740
ag29
ag429
ag1108
ag1135
ag1042
ag779
ag988
ag1149
ag326
ag421
ag985
ag351
ag241
ag1224
ag195
ag1094
ag816
ag1300
ag117
ag198
ag1307
ag32
ag460
ag120
ag440
ag720
ag923
ag193
ag451
ag854
ag164
ag1082
ag660
ag1261
ag238
ag804
ag212
ag990
ag972
ag959
ag167
ag917
ag514
ag557
ag13
ag431
ag968
ag1028
ag680
ag1310
ag1221
ag1117
ag222
ag1294
ag1196
ag1143
ag1260
ag1269
ag1024
ag503
ag594
ag679
ag933
ag205
ag1150
ag878
ag623
ag471
ag48
ag275
ag553
ag775
ag1257
ag325
ag1142
ag1275
ag957
ag738
ag786
ag396
ag252
ag493
ag505
ag475
ag93
ag628
ag116
ag465
ag1243
ag1132
ag1020
ag104
ag472
ag841
ag77
ag207
ag1098
ag612
ag1090
ag1091
ag323
ag1092
ag166
ag82
ag782
ag1283
ag588
ag1164
ag412
ag826
ag1003
ag808
ag1066
ag59
ag74
ag751
ag858
ag665
ag42
ag373
ag1281
ag33
ag479
ag999
ag105
ag695
ag715
ag53
ag158
ag101
ag1153
ag221
ag360
ag407
ag964
ag69
ag56
ag256
ag15
ag926
ag308
ag871
ag733
ag462
ag1216
ag831
ag328
ag781
ag655
ag391
ag1276
ag509
ag646
ag108
ag536
ag952
ag915
ag547
ag1247
ag467
ag836
ag297
ag107
ag903
ag668
ag795
ag951
ag1037
ag742
ag770
ag822
ag632
ag55
ag1236
ag1241
ag953
ag276
ag341
ag305
ag961
ag329
ag1101
ag1016
ag580
ag352
ag722
ag1121
ag931
ag982
ag165
ag171
ag46
ag1284
ag146
ag148
ag327
ag652
ag578
ag513
ag419
ag918
ag983
ag636
ag528
ag1050
ag824
ag1255
ag1048
ag218
ag39
ag888
ag1279
ag499
ag943
ag877
ag1273
ag864
ag838
ag304
ag1169
ag853
ag1067
ag662
ag487
ag1232
ag258
ag683
ag1030
ag1296
ag157
ag796
ag787
ag573
ag948
ag725
ag20
ag600
ag806
ag73
ag358
ag291
ag607
ag464
ag788
ag250
ag706
ag1212
ag137
ag1188
ag914
ag681
ag605
ag456
ag1074
ag608
ag1008
ag1199
ag1061
ag1115
ag946
ag1110
ag78
ag389
ag882
ag86
ag1197
ag188
ag921
ag753
ag1141
ag1001
ag251
ag88
ag24
ag769
ag121
ag420
ag411
ag127
ag790
ag622
ag232
ag954
ag843
ag22
ag833
ag947
ag744
ag1079
ag336
ag414
ag134
ag907
ag1297
ag338
ag470
ag1080
ag1270
ag1205
ag322
ag1065
ag694
ag1242
ag750
ag474
ag359
ag430
ag1237
ag280
ag705
ag812
ag498
ag49
ag761
ag255
ag309
ag1301
ag1265
ag927
ag312
ag937
ag346
ag1106
ag771
ag507
ag732
ag1127
ag1055
ag228
ag1286
ag647
ag861
ag1172
ag277
ag699
ag1185
ag176
ag194
ag870
ag44
ag791
ag416
ag518
ag820
ag1025
ag1087
ag739
ag335
ag691
ag857
ag202
ag872
ag209
ag1122
ag1178
ag523
ag377
ag663
ag375
ag141
ag235
ag949
ag143
ag1124
ag1144
ag745
ag696
ag292
ag545
ag810
ag398
ag1157
ag991
ag17
ag224
ag162
ag130
ag924
ag846
ag18
ag640
ag248
ag210
ag350
ag227
ag109
ag855
ag767
ag1226
ag726
ag642
ag627
ag469
ag629
ag311
ag160
ag371
ag572
ag452
ag973
ag672
ag220
ag1139
ag519
ag502
ag170
ag1245
ag409
ag317
ag625
ag385
ag506
ag242
ag570
ag890
ag1182
ag1288
ag992
ag867
ag496
ag591
ag1000
ag182
ag1210
ag515
ag189
ag710
ag661
ag423
ag783
ag1223
ag633
ag1289
ag1078
ag95
ag1134
ag842
ag1278
ag764
ag994
ag438
ag586
asS'separator'
p1315
S'='
sS'sparse'
p1316
I01
sb.