ccopy_reg
_reconstructor
p1
(csklearn.feature_extraction.dict_vectorizer
DictVectorizer
p2
c__builtin__
object
p3
NtRp4
(dp5
S'vocabulary_'
p6
(dp7
S'w-1=igcc'
p8
I1657
sS'w+1=require'
p9
I917
sS'det=no'
p10
I373
sS'w-1=EU'
p11
I1520
sS'amod=legislative'
p12
I119
sS'w-2=surround'
p13
I2167
sS'amod=remain'
p14
I170
sS'w+2=restore'
p15
I1390
sS'appos=month'
p16
I233
sS'w+2=but'
p17
I1096
sS'w-2=Texas'
p18
I1858
sS'w+2=international'
p19
I1260
sS'w-2=north-south'
p20
I2070
sS'w-1=diplomatic'
p21
I1605
sS'nn=Thepeace'
p22
I443
sS'w+1=around'
p23
I798
sS'nsubjpass=fund'
p24
I605
sS'infmod=make'
p25
I417
sS'amod=all-military'
p26
I32
sS'w-1=economic'
p27
I1617
sS'amod=complicated'
p28
I48
sS'nn=entry'
p29
I488
sS'w+1=benefit'
p30
I810
sS'w-2=policy'
p31
I2093
sS'dobj=machine'
p32
I389
sS'w+2=finalize'
p33
I1204
sS'w-1=electoral'
p34
I1620
sS'w-2=israeli'
p35
I2017
sS'w+1=appear'
p36
I796
sS'w-1=peaceful'
p37
I1729
sS'w-2=judicial'
p38
I2023
sS'w+2=manipulate'
p39
I1291
sS'w+2=beat'
p40
I1083
sS'amod=genuine'
p41
I95
sS'w-2=disparage'
p42
I1937
sS'w-1=new'
p43
I1705
sS'w+2=NATO'
p44
I1034
sS'w+2=behind'
p45
I1087
sS'w-2=palestinian-israeli'
p46
I2087
sS'w-2=liken'
p47
I2042
sS'w+2=recent'
p48
I1374
sS'w+2=consider'
p49
I1124
sS'w+2=often'
p50
I1325
sS'w-2=challenge'
p51
I1900
sS'amod=primary'
p52
I162
sS'w-1=will'
p53
I1826
sS'w-2=long-term'
p54
I2045
sS'w+2=screening'
p55
I1404
sS'nn=transformation'
p56
I559
sS'w+2=attention'
p57
I1077
sS'rcmod=freedom'
p58
I708
sS'w+2=run'
p59
I1400
sS'rcmod=determine'
p60
I700
sS'w+1=she'
p61
I929
sS'w+2=independent'
p62
I1254
sS'w-2=launch'
p63
I2030
sS'advmod=late'
p64
I12
sS'poss=Iraq'
p65
I646
sS'w+1=aim'
p66
I790
sS'rcmod=drive'
p67
I703
sS'nn=reunification'
p68
I547
sS'w+2=individual'
p69
I1256
sS'w-2=who'
p70
I2212
sS'w+2=happen'
p71
I1227
sS'w+1=of'
p72
I898
sS'dobj=material'
p73
I390
sS'w-1=gasification'
p74
I1641
sS'w+1=on'
p75
I902
sS'w+2=cause'
p76
I1105
sS'w+2=last'
p77
I1278
sS'rcmod=turn'
p78
I752
sS'w+1=or'
p79
I905
sS'w-2=question'
p80
I2108
sS'w-1=mediation'
p81
I1694
sS'w+2=therefore'
p82
I1458
sS'w+2=share'
p83
I1417
sS'w+2=fail'
p84
I1196
sS'rcmod=conduct'
p85
I694
sS'w-1=succession'
p86
I1787
sS'w-2=active'
p87
I1865
sS'w-2=all'
p88
I1872
sS'w+1=create'
p89
I828
sS'w+2=fair'
p90
I1197
sS'w-1=could'
p91
I1586
sS'w-2=subvert'
p92
I2159
sS'w+2=you'
p93
I1508
sS'w-2=japanese'
p94
I2021
sS'w+1=food'
p95
I847
sS'amod=slow'
p96
I187
sS'w+2=export'
p97
I1191
sS'w-1=you'
p98
I1830
sS'w-2=that'
p99
I2173
sS'w+1=the'
p100
I942
sS'rcmod=suppose'
p101
I747
sS'w+1=bring'
p102
I813
sS'nsubj=prize'
p103
I593
sS'infmod=hand'
p104
I415
sS'nn=appeal'
p105
I450
sS'infmod=export'
p106
I411
sS'w+2=involvement'
p107
I1266
sS'nn=hand-over'
p108
I497
sS'w+1=problem'
p109
I912
sS'nn=certification'
p110
I462
sS'w-1=monitoring'
p111
I1697
sS'w+2=further'
p112
I1221
sS'w+1=30,000'
p113
I770
sS'conj=root'
p114
I324
sS'nn=polling'
p115
I529
sS'amod=revolutionary'
p116
I174
sS'amod=draft'
p117
I68
sS'amod=judicial'
p118
I112
sS'w+1=within'
p119
I974
sS'w-2=six-party'
p120
I2142
sS'w+2=globalization'
p121
I1224
sS'w-1=disarmament'
p122
I1608
sS'amod=frustrating'
p123
I93
sS'w+2=already'
p124
I1062
sS'dobj=word'
p125
I401
sS'w+1=later'
p126
I881
sS'w+2=integration'
p127
I1258
sS'w-2=envision'
p128
I1959
sS'nn=recruitment'
p129
I537
sS'conj=law'
p130
I309
sS'nsubj=that'
p131
I597
sS'w-1=similar'
p132
I1772
sS'w-1=reconstruction'
p133
I1746
sS'partmod=go'
p134
I626
sS'w-1=handover'
p135
I1650
sS'w-2=join'
p136
I2022
sS'w+2=stall'
p137
I1437
sS'w-1=reunification'
p138
I1759
sS'w-1=traditional'
p139
I1803
sS'conj=conduct'
p140
I291
sS'aux=could'
p141
I250
sS'w+1=know'
p142
I878
sS'partmod=lead'
p143
I632
sS'w+2=likely'
p144
I1283
sS'w+2=Moriarty'
p145
I1032
sS'w+2=former'
p146
I1213
sS'w+2=unless'
p147
I1482
sS'w+2=reform'
p148
I1380
sS'w+1=-rrb-'
p149
I768
sS'w-1=Protocol'
p150
I1527
sS'w-2=obstruct'
p151
I2072
sS'ccomp=become'
p152
I264
sS'w+2=34'
p153
I993
sS'w+1=worldwide'
p154
I977
sS'prep=include'
p155
I672
sS'rcmod=begin'
p156
I687
sS'w-1=transfer'
p157
I1804
sS'w+2=see'
p158
I1408
sS'nn=CSRT'
p159
I432
sS'amod=defacto'
p160
I62
sS'w-2=fund'
p161
I1985
sS'w+2=set'
p162
I1414
sS'w-1=egyptian'
p163
I1618
sS'amod=East'
p164
I28
sS'w+2=however'
p165
I1240
sS'w-1=to'
p166
I1802
sS'w-1=secretive'
p167
I1766
sS'rcmod=end'
p168
I705
sS'nn=birth'
p169
I457
sS'w-1=manufacturing'
p170
I1693
sS'nn=admission'
p171
I447
sS'nn=retirement'
p172
I546
sS'dobj=#PRP#'
p173
I378
sS'w+2=strengthen'
p174
I1443
sS'w-2=do'
p175
I1939
sS'w+2=Cambodia'
p176
I1004
sS'appos=power'
p177
I240
sS'appos=#NUMBER#'
p178
I223
sS'w+1=you'
p179
I979
sS'w-1=entire'
p180
I1623
sS'conj=discussion'
p181
I298
sS'w-1=distribution'
p182
I1610
sS'w-2=delay'
p183
I1924
sS'poss=nation'
p184
I656
sS'w+2=regard'
p185
I1382
sS'amod=count'
p186
I59
sS'partmod=use'
p187
I643
sS'w+2=hundred'
p188
I1243
sS'w+2=effort'
p189
I1167
sS'w+1=expeditiously'
p190
I841
sS'w+2=equalize'
p191
I1178
sS'w+1=he'
p192
I862
sS'w-2=two'
p193
I2187
sS'w+2=all'
p194
I1058
sS'w+2=under'
p195
I1477
sS'w-2=dominate'
p196
I1941
sS'nsubj=election'
p197
I582
sS'w+2=caucus'
p198
I1104
sS'w-2=down'
p199
I1943
sS'w-1=denuclearization'
p200
I1600
sS'w+1=through'
p201
I950
sS'w-2=require'
p202
I2123
sS'w+2=because'
p203
I1084
sS'w-2=discredit'
p204
I1934
sS'w-1=birth'
p205
I1554
sS'nn=theelection'
p206
I557
sS'w-2=cleaning-up'
p207
I1903
sS'dep=#PRP#'
p208
I339
sS'partmod=call'
p209
I618
sS'w+2=bring'
p210
I1093
sS'w+2=unacceptable'
p211
I1476
sS'w+1=Friday'
p212
I775
sS'partmod=drive'
p213
I622
sS'dep=continue'
p214
I347
sS'w-2=enforce'
p215
I1953
sS'parataxis=trafficker'
p216
I614
sS'w+2=expect'
p217
I1187
sS'nsubj=refinery'
p218
I596
sS'w+1=welcome'
p219
I967
sS'w+2=poppy'
p220
I1352
sS'amod=dry-cure'
p221
I72
sS'w+1=set'
p222
I926
sS'w+2=terrorist'
p223
I1450
sS'w-2=refinery'
p224
I2113
sS'w+2=application'
p225
I1071
sS'w-1=normalization'
p226
I1709
sS'w-1=Helsinki'
p227
I1522
sS'w-2=boycott'
p228
I1891
sS'w+2=follow'
p229
I1210
sS'w-2=consolidate'
p230
I1914
sS'w+2=finish'
p231
I1206
sS'w+1=machine'
p232
I885
sS'conj=fact'
p233
I303
sS'w-2=propose'
p234
I2104
sS'w-2=from'
p235
I1984
sS'w+2=move'
p236
I1302
sS'amod=palestinian-israeli'
p237
I152
sS'w+2=well'
p238
I1493
sS'w+2=back'
p239
I1079
sS'rcmod=speak'
p240
I744
sS'w-2=up'
p241
I2195
sS'nn=climate'
p242
I465
sS'conj=counterpart'
p243
I295
sS'rcmod=seek'
p244
I742
sS'w+2=Israel'
p245
I1020
sS'w-1=doping'
p246
I1611
sS'w+2=public'
p247
I1363
sS'w-2=arab-israeli'
p248
I1879
sS'w-1=membership'
p249
I1695
sS'amod=manual'
p250
I126
sS'w+1=produce'
p251
I913
sS'w-2=argue'
p252
I1880
sS'amod=simple'
p253
I184
sS'w-2=oil'
p254
I2076
sS'det=that'
p255
I374
sS'nn=reconciliation'
p256
I535
sS'w+2=Belarus'
p257
I1002
sS'w-1=verification'
p258
I1815
sS'det=any'
p259
I372
sS'amod=speedy'
p260
I190
sS'amod=flawed'
p261
I86
sS'w+2=head'
p262
I1230
sS'w-2=bring'
p263
I1893
sS'w-1=dry-cure'
p264
I1614
sS'w+2=heat'
p265
I1232
sS'w-2=drug'
p266
I1947
sS'w-2=Oslo'
p267
I1852
sS'nn=demarcation'
p268
I477
sS'nn=initiative'
p269
I505
sS'w-1=adoption'
p270
I1536
sS'w-2=suspend'
p271
I2168
sS'w-1=up'
p272
I1813
sS'w+2=sample'
p273
I1401
sS'w-1=sell'
p274
I1768
sS'rcmod=initiate'
p275
I717
sS'rcmod=have'
p276
I713
sS'w-2=smooth'
p277
I2145
sS'w-1=refining'
p278
I1749
sS'w-2=nationwide'
p279
I2062
sS'w-2=pre-storm'
p280
I2099
sS'w+2=bea'
p281
I1082
sS'w-2=Burundi'
p282
I1839
sS'w+2=necessary'
p283
I1308
sS'partmod=begin'
p284
I617
sS'amod=guard'
p285
I101
sS'w-2=Military'
p286
I1849
sS'rcmod=start'
p287
I746
sS'amod=potential'
p288
I157
sS'w-2=interrupt'
p289
I2013
sS'predet=all'
p290
I659
sS'w-2=long'
p291
I2043
sS'partmod=host'
p292
I627
sS'w+2=seek'
p293
I1409
sS'w+2=launch'
p294
I1279
sS'w-2=would'
p295
I2216
sS'w+2=break'
p296
I1091
sS'amod=steady'
p297
I194
sS'infmod=go'
p298
I414
sS'poss=government'
p299
I654
sS'w+2=this'
p300
I1461
sS'conj=violence'
p301
I334
sS'w+2=Afghan'
p302
I996
sS'w+2=want'
p303
I1490
sS'ccomp=way'
p304
I274
sS'w+1=between'
p305
I811
sS'w+2=throw'
p306
I1465
sS'nn=handover'
p307
I498
sS'w+2=she'
p308
I1418
sS'amod=good'
p309
I96
sS'w+2=period'
p310
I1348
sS'conj=#NUMBER#'
p311
I277
sS'w-2=international'
p312
I2012
sS'w-2=expect'
p313
I1963
sS'mark=while'
p314
I428
sS'amod=new'
p315
I135
sS'amod=long'
p316
I122
sS'conj=expand'
p317
I302
sS'nn=reform'
p318
I540
sS'w-2=with'
p319
I2215
sS'w-2=bank'
p320
I1885
sS'w+2=Kosovo'
p321
I1029
sS'w-2=rekindle'
p322
I2118
sS'w-2=patient'
p323
I2089
sS'nn=withdrawal'
p324
I570
sS'amod=nuclear'
p325
I140
sS'cc=or'
p326
I262
sS'w+2=once'
p327
I1327
sS'dobj=experience'
p328
I383
sS'w+2=kp'
p329
I1275
sS'amod=on-going'
p330
I143
sS'w-1=irreversible'
p331
I1672
sS'w-1=revise'
p332
I1761
sS'w+2=Defense'
p333
I1007
sS'rcmod=deliver'
p334
I699
sS'w-1=14-year'
p335
I1514
sS'w-2=promote'
p336
I2103
sS'w-2=if'
p337
I2003
sS'amod=slow-moving'
p338
I188
sS'w+2=non-waiver'
p339
I1315
sS'w-2=in'
p340
I2006
sS'w-2=where'
p341
I2210
sS'w-1=fabric-making'
p342
I1628
sS'conj=race'
p343
I320
sS'w-2=it'
p344
I2019
sS'nsubj=Kimberly'
p345
I573
sS'w-2=pre-election'
p346
I2098
sS'appos=view'
p347
I247
sS'w+2=nearly'
p348
I1307
sS'w+2=hope'
p349
I1238
sS'nsubjpass=family'
p350
I604
sS'w+2=extradite'
p351
I1194
sS'appos=rights'
p352
I242
sS'w-1=painful'
p353
I1723
sS'rcmod=worth'
p354
I759
sS'w-1=difficult'
p355
I1604
sS'w+2=dissatisfaction'
p356
I1157
sS'conj=change'
p357
I289
sS'nn=distribution'
p358
I484
sS'w+1=700,000'
p359
I772
sS'w-2=entire'
p360
I1958
sS'rcmod=bring'
p361
I689
sS'w-1=friend'
p362
I1637
sS'w-2=States'
p363
I1856
sS'amod=propose'
p364
I164
sS'w-2=call'
p365
I1897
sS'w-2=lebanese'
p366
I2035
sS'nn=Gleneagles'
p367
I436
sS'conj=reconstruction'
p368
I321
sS'w-1=peace'
p369
I1728
sS'w-1=evaluation'
p370
I1626
sS'w+2=Albania'
p371
I999
sS'amod=bacterial'
p372
I37
sS'w-1=rehabilitation'
p373
I1754
sS'nn=acquisition'
p374
I446
sS'w+2=demonstrate'
p375
I1142
sS'w-2=stalled'
p376
I2150
sS'w+1=more'
p377
I892
sS'w+1=will'
p378
I972
sS'w+2=develop'
p379
I1149
sS'prep=involve'
p380
I674
sS'w+1=get'
p381
I854
sS'w-2=suggest'
p382
I2162
sS'w+2=remain'
p383
I1384
sS'w+2=early'
p384
I1166
sS'w+1=officially'
p385
I899
sS'w+1=if'
p386
I867
sS'w-2=let'
p387
I2039
sS'w+1=in'
p388
I871
sS'w-2=doubtful'
p389
I1942
sS'w+1=it'
p390
I875
sS'w-2=replace'
p391
I2121
sS'nsubj=#PRP#'
p392
I571
sS'w+1=about'
p393
I784
sS'w+2=little'
p394
I1284
sS'w-1=on-going'
p395
I1714
sS'appos=priority'
p396
I241
sS'w+2=forward'
p397
I1215
sS'w+1=fail'
p398
I843
sS'w-1=or'
p399
I1719
sS'w+2=get'
p400
I1222
sS'amod=israeli'
p401
I109
sS'poss=#PRP#'
p402
I644
sS'nn=friend'
p403
I493
sS'rcmod=see'
p404
I741
sS'w+1=might'
p405
I891
sS'infmod=get'
p406
I413
sS'nn=Annapolis'
p407
I431
sS'amod=open'
p408
I145
sS'advcl=hear'
p409
I2
sS'w+2=reunification'
p410
I1393
sS'w+1=priest'
p411
I911
sS'nn=truth'
p412
I563
sS'w-2=like'
p413
I2041
sS'w-1=Thepeace'
p414
I1529
sS'w-2=people'
p415
I2091
sS'nn=ratification'
p416
I533
sS'nsubjpass=what'
p417
I609
sS'appos=individual'
p418
I231
sS'w-2=understand'
p419
I2192
sS'nsubj=counseling'
p420
I578
sS'w-2=foreign'
p421
I1977
sS'amod=already-fragile'
p422
I33
sS'w-2=under'
p423
I2191
sS'rcmod=dominate'
p424
I702
sS'conj=dissatisfaction'
p425
I299
sS'rcmod=contend'
p426
I696
sS'amod=year-long'
p427
I222
sS'w+1=greater'
p428
I857
sS'rcmod=affect'
p429
I684
sS'w+1=meeting'
p430
I889
sS'w-1=pulse'
p431
I1742
sS'w+2=democratic'
p432
I1141
sS'conj=Palestinians'
p433
I282
sS'w-1=healthy'
p434
I1654
sS'w+2=mid-january'
p435
I1297
sS'w+2=cuban'
p436
I1134
sS'w+1=depend'
p437
I830
sS'rcmod=create'
p438
I698
sS'w+2=North'
p439
I1035
sS'nn=manufacturing'
p440
I515
sS'w-2=what'
p441
I2208
sS'w+2=remove'
p442
I1385
sS'nn=approval'
p443
I453
sS'w+2=each'
p444
I1165
sS'w-2=two-stage'
p445
I2188
sS'w+1=thatmake'
p446
I941
sS'w-1=consultative'
p447
I1580
sS'w-2=four-day'
p448
I1982
sS'amod=ethiopia-eritrea'
p449
I79
sS'w+2=out'
p450
I1334
sS'w-2=to'
p451
I2183
sS'w-1=nuclear'
p452
I1711
sS'w-2=and'
p453
I1875
sS'w-1=due'
p454
I1615
sS'w-2=destroy'
p455
I1929
sS'w+2=close'
p456
I1111
sS'w-1=campaign'
p457
I1558
sS'w-1=identification'
p458
I1656
sS'w+2=transfer'
p459
I1469
sS'w+1=which'
p460
I971
sS'infmod=monitor'
p461
I418
sS'w+1=begin'
p462
I808
sS'w-1=evacuation'
p463
I1625
sS'amod=stalled'
p464
I192
sS'w+2=would'
p465
I1505
sS'w+1=feel'
p466
I844
sS'w-1=courtroom'
p467
I1589
sS'w-1=proposal'
p468
I1741
sS'w-1=and'
p469
I1539
sS'w-1=industry'
p470
I1664
sS'w+2=unfold'
p471
I1481
sS'amod=annual'
p472
I34
sS'w-1=judicial'
p473
I1676
sS'w+2=15'
p474
I985
sS'w+2=threaten'
p475
I1463
sS'appos=people'
p476
I237
sS'nn=annexation'
p477
I449
sS'w+2=SADC'
p478
I1039
sS'w-2=reverse'
p479
I2126
sS'rcmod=train'
p480
I750
sS'w-2=regional'
p481
I2116
sS'amod=special'
p482
I189
sS'w-1=then'
p483
I1797
sS'w-1=pollination'
p484
I1733
sS'w-2=any'
p485
I1877
sS'w-1=they'
p486
I1799
sS'w-1=reconciliation'
p487
I1745
sS'amod=ugandan'
p488
I213
sS'w-2=transparent'
p489
I2184
sS'w+2=invent'
p490
I1262
sS'w+2=somebody'
p491
I1429
sS'w-2=he'
p492
I1993
sS'w+2=track'
p493
I1468
sS'w+2=risk'
p494
I1399
sS'amod=realistic'
p495
I166
sS'w+2=Brigadier'
p496
I1003
sS'w-1=easy'
p497
I1616
sS'w+1=each'
p498
I836
sS'nn=campaign'
p499
I459
sS'w+1=Monday'
p500
I778
sS'w-2=so-called'
p501
I2147
sS'w-2=very'
p502
I2199
sS'rcmod=undertake'
p503
I753
sS'w-2=ensure'
p504
I1956
sS'prep=since'
p505
I677
sS'nn=processing'
p506
I530
sS'poss=Nepal'
p507
I649
sS'w+2=Thaksin'
p508
I1044
sS'w+2=militarization'
p509
I1298
sS'w-1=frustrating'
p510
I1639
sS'nsubj=camp'
p511
I577
sS'w-2=renew'
p512
I2120
sS'prep=against'
p513
I661
sS'w+2=become'
p514
I1085
sS'cc=well'
p515
I263
sS'w-2=although'
p516
I1873
sS'amod=grieving'
p517
I100
sS'w-2=refugee'
p518
I2114
sS'nsubj=brain'
p519
I576
sS'infmod=explain'
p520
I410
sS'w+2=obviously'
p521
I1322
sS'advmod=but'
p522
I8
sS'w-1=already-fragile'
p523
I1538
sS'rcmod=clear'
p524
I692
sS'w+2=start'
p525
I1438
sS'amod=wholesale'
p526
I219
sS'w-1=trial'
p527
I1809
sS'w+1=unfold'
p528
I960
sS'w+2=Guantanamo'
p529
I1012
sS'w+2=into'
p530
I1261
sS'w-2=nomination'
p531
I2066
sS'w+1=before'
p532
I807
sS'nn=rehabilitation'
p533
I543
sS'w-2=steer'
p534
I2154
sS'w-2=advance'
p535
I1868
sS'w-1=multinational'
p536
I1699
sS'w-1=election'
p537
I1619
sS'nn=policy'
p538
I527
sS'w-1=judiciary'
p539
I1677
sS'nsubj=negotiation'
p540
I591
sS'w+2=boycott'
p541
I1090
sS'appos=Hartmann'
p542
I224
sS'amod=six-party'
p543
I186
sS'w+2=Abkhazia'
p544
I995
sS'neg=not'
p545
I429
sS'w+1=do'
p546
I833
sS'w+2=muslim'
p547
I1304
sS'w+1=Mr.'
p548
I779
sS'w+2=fully'
p549
I1219
sS'w+2=race'
p550
I1368
sS'w+1=early'
p551
I837
sS'w+2=Abidjan'
p552
I994
sS'w+2=explain'
p553
I1190
sS'w+2=indian'
p554
I1255
sS'w+2=Lebanon'
p555
I1030
sS'w+2=filing'
p556
I1203
sS'w-2=office'
p557
I2075
sS'w-2=for'
p558
I1976
sS'conj=talk'
p559
I331
sS'w-2=Sudan'
p560
I1857
sS'amod=consultative'
p561
I55
sS'advmod=then'
p562
I23
sS'w-2=forwardthe'
p563
I1980
sS'w-2=draw'
p564
I1944
sS'w+2=amend'
p565
I1064
sS'dobj=application'
p566
I379
sS'w-2=mideast'
p567
I2051
sS'dobj=information'
p568
I387
sS'w-2=we'
p569
I2206
sS'advmod=quite'
p570
I19
sS'w+1=accelerate'
p571
I786
sS'nn=election'
p572
I486
sS'w+2=occur'
p573
I1323
sS'amod=northern'
p574
I139
sS'w+2=between'
p575
I1088
sS'w-2=disk'
p576
I1936
sS'w+2=next'
p577
I1312
sS'nn=gasification'
p578
I495
sS'w-1=fast-track'
p579
I1630
sS'w+1=carry'
p580
I818
sS'w+1=uncertainindependent'
p581
I957
sS'prep=but'
p582
I666
sS'w+1=until'
p583
I961
sS'advmod=importantly'
p584
I11
sS'w-1=Kimberley'
p585
I1523
sS'w-2=since'
p586
I2139
sS'w+2=determine'
p587
I1148
sS'nn=treaty'
p588
I560
sS'w+1=that'
p589
I940
sS'dobj=world'
p590
I402
sS'nn=litigation'
p591
I514
sS'w-2=-lrb-'
p592
I1835
sS'amod=actual'
p593
I30
sS'w-1=bidding'
p594
I1551
sS'w+2=approve'
p595
I1072
sS'ccomp=find'
p596
I269
sS'w-1=detainee'
p597
I1601
sS'advmod=so'
p598
I20
sS'w+2=peace'
p599
I1344
sS'w-2=learn'
p600
I2033
sS'cc=not'
p601
I261
sS'w+2=establish'
p602
I1179
sS'w-2=case'
p603
I1899
sS'aux=may'
p604
I252
sS'w+1=keep'
p605
I877
sS'w-1=balloting'
p606
I1549
sS'w-2=legal'
p607
I2036
sS'w+2=motion'
p608
I1301
sS'w-2=the'
p609
I2174
sS'w-1=hand-over'
p610
I1649
sS'w+2=build'
p611
I1094
sS'amod=secretive'
p612
I180
sS'w+1=help'
p613
I863
sS'dep=lead'
p614
I356
sS'w+2=farm'
p615
I1200
sS'w+1=half'
p616
I859
sS'rcmod=want'
p617
I757
sS'w+2=fare'
p618
I1199
sS'appos=nuclear'
p619
I234
sS'advmod=legally'
p620
I13
sS'w+2=slow'
p621
I1425
sS'w-1=have'
p622
I1651
sS'w-1=whole'
p623
I1824
sS'w-2=Senate'
p624
I1854
sS'w-2=ongoing'
p625
I2079
sS'w-2=Party'
p626
I1853
sS'w+2=if'
p627
I1246
sS'w+2=-lrb-'
p628
I983
sS'w+2=in'
p629
I1251
sS'w-2=week'
p630
I2207
sS'w+2=select'
p631
I1410
sS'advmod=#PRP#'
p632
I5
sS'w-1=good'
p633
I1643
sS'w+2=find'
p634
I1205
sS'w-2=may'
p635
I2047
sS'w+2=oversee'
p636
I1338
sS'w-2=derail'
p637
I1927
sS'prep=about'
p638
I660
sS'aux=can'
p639
I249
sS'w-2=initiate'
p640
I2010
sS'w+2=magnetic'
p641
I1289
sS'dep=see'
p642
I364
sS'w+2=either'
p643
I1168
sS'dobj=care'
p644
I381
sS'amod=macanese'
p645
I125
sS'w-2=oversee'
p646
I2084
sS'w-1=coal-fired'
p647
I1565
sS'w+2=primary'
p648
I1355
sS'w+2=eliminate'
p649
I1170
sS'amod=inclusive'
p650
I106
sS'w-1=tally'
p651
I1791
sS'w+2=take'
p652
I1448
sS'w+2=produce'
p653
I1360
sS'advmod=only'
p654
I16
sS'w-1=entry'
p655
I1624
sS'amod=stall'
p656
I191
sS'w-2=study'
p657
I2158
sS'amod=economic'
p658
I75
sS'w-2=out'
p659
I2081
sS'w+1=member'
p660
I890
sS'w+1=for'
p661
I848
sS'w-2=into'
p662
I2015
sS'w+2=agree'
p663
I1057
sS'conj=important'
p664
I306
sS'w+2=organ'
p665
I1332
sS'poss=show'
p666
I658
sS'conj=influx'
p667
I308
sS'prep=to'
p668
I680
sS'w-1=certification'
p669
I1560
sS'w-2=lethal'
p670
I2040
sS'nn=inspection'
p671
I507
sS'rcmod=originate'
p672
I725
sS'w+2=even'
p673
I1181
sS'amod=old'
p674
I142
sS'w+2=deeply'
p675
I1138
sS'w-2=stall'
p676
I2149
sS'w+2=increase'
p677
I1253
sS'nn=employee'
p678
I487
sS'w+2=how'
p679
I1239
sS'w+2=lower'
p680
I1288
sS'w+2=for'
p681
I1211
sS'conj=boost'
p682
I287
sS'w-2=about'
p683
I1863
sS'w-1=such'
p684
I1788
sS'w-1=employee'
p685
I1622
sS'w+2=keep'
p686
I1272
sS'poss=military'
p687
I655
sS'w-1=ratification'
p688
I1743
sS'w+2=we'
p689
I1492
sS'w-2=control'
p690
I1916
sS'w+2=rebel'
p691
I1372
sS'w-2=strict'
p692
I2157
sS'w-2=-rrb-'
p693
I1836
sS'amod=govern'
p694
I97
sS'w+2=important'
p695
I1249
sS'w+1=start'
p696
I933
sS'w+2=act'
p697
I1055
sS'w-1=review'
p698
I1760
sS'w+2=hurt'
p699
I1244
sS'w+1=asylum'
p700
I800
sS'amod=pre-election'
p701
I158
sS'w-2=handle'
p702
I1991
sS'amod=long-term'
p703
I124
sS'w+2=evolution'
p704
I1185
sS'w+1=rule'
p705
I921
sS'w-1=usual'
p706
I1814
sS'nn=review'
p707
I548
sS'w+1=coincide'
p708
I822
sS'w+2=national'
p709
I1306
sS'det=the'
p710
I375
sS'amod=constitutional-reform'
p711
I53
sS'nn=mediation'
p712
I516
sS'w+2=undermine'
p713
I1478
sS'dobj=people'
p714
I395
sS'w+2=through'
p715
I1464
sS'w+2=progress'
p716
I1361
sS'nn=appropriation'
p717
I452
sS'w+1=behind'
p718
I809
sS'rel=in'
p719
I760
sS'w+2=draw'
p720
I1162
sS'conj=load'
p721
I310
sS'w-2=ethiopia-eritrea'
p722
I1962
sS'dep=desire'
p723
I348
sS'w+1=work'
p724
I976
sS'nn=system'
p725
I554
sS'w-1=processing'
p726
I1738
sS'nn=constitution'
p727
I469
sS'w+2=EU'
p728
I1008
sS'nsubj=list'
p729
I589
sS'w+2=schedule'
p730
I1403
sS'w+2=Jerusalem'
p731
I1025
sS'w-1=own'
p732
I1722
sS'w-1=application'
p733
I1543
sS'w-1=painstaking'
p734
I1724
sS'w-2=supervise'
p735
I2164
sS'w+2=usually'
p736
I1485
sS'w+2=designate'
p737
I1145
sS'w-1=key'
p738
I1679
sS'nn=respect'
p739
I545
sS'w-2=serious'
p740
I2135
sS'w-2=asset'
p741
I1882
sS'rcmod=continue'
p742
I697
sS'w+2=reproduction'
p743
I1388
sS'w-2=throw'
p744
I2181
sS'w+1=call'
p745
I816
sS'w+2=access'
p746
I1053
sS'w-2=take'
p747
I2169
sS'w+2=quickly'
p748
I1367
sS'w+1=take'
p749
I937
sS'amod=political'
p750
I155
sS'nsubjpass=oil'
p751
I606
sS'w+2=continue'
p752
I1126
sS'amod=four-year-old'
p753
I89
sS'w-2=flour'
p754
I1974
sS'w-1=annexation'
p755
I1540
sS'w-2=intensive'
p756
I2011
sS'w-2=continue'
p757
I1915
sS'w+1=shale'
p758
I927
sS'w-1=phased'
p759
I1730
sS'amod=thoughtful'
p760
I203
sS'w+1=could'
p761
I826
sS'w+1=shall'
p762
I928
sS'w-1=constructive'
p763
I1578
sS'w+1=host'
p764
I866
sS'nn=vetting'
p765
I565
sS'w+2=drive'
p766
I1163
sS'nn=gas-extraction'
p767
I494
sS'advmod=along'
p768
I6
sS'amod=screening'
p769
I178
sS'conj=no'
p770
I311
sS'nn=bidding'
p771
I456
sS'w+2=Ecuador'
p772
I1009
sS'w+2=when'
p773
I1495
sS'w+2=talk'
p774
I1449
sS'w-2=its'
p775
I2020
sS'w-2=superintend'
p776
I2163
sS'w+1=--'
p777
I766
sS'w-2=funnel'
p778
I1987
sS'w-1=in'
p779
I1662
sS'w+2=while'
p780
I1498
sS'w-1=long'
p781
I1688
sS'rcmod=good'
p782
I712
sS'conj=think'
p783
I332
sS'w-1=commission'
p784
I1568
sS'w+2=Ivory'
p785
I1022
sS'w-1=transparent'
p786
I1807
sS'w+2=avoid'
p787
I1078
sS'w-2=democratic'
p788
I1926
sS'nn=hybrid'
p789
I500
sS'w-1=the'
p790
I1795
sS'w-2=over'
p791
I2082
sS'w-1=draft'
p792
I1612
sS'w+2=stop'
p793
I1441
sS'amod=wasteful'
p794
I217
sS'w+2=create'
p795
I1131
sS'w-1=reform'
p796
I1750
sS'w+2=say'
p797
I1402
sS'w-1=treaty'
p798
I1808
sS'amod=state-by-state'
p799
I193
sS'w-2=meaningful'
p800
I2048
sS'amod=lengthy'
p801
I120
sS'w+1=under'
p802
I958
sS'nn=TRC'
p803
I442
sS'amod=foreign'
p804
I87
sS'w-2=pakistani'
p805
I2086
sS'w-1=committee'
p806
I1569
sS'w+2=question'
p807
I1366
sS'w+2=credible'
p808
I1132
sS'w-1=all-military'
p809
I1537
sS'w+2=clear'
p810
I1110
sS'w+2=unsolved'
p811
I1483
sS'w-1=year-long'
p812
I1829
sS'amod=prolonged'
p813
I163
sS'w+2=procedure'
p814
I1358
sS'w+2=year'
p815
I1506
sS'appos=system'
p816
I245
sS'w-1=democratic'
p817
I1599
sS'w-1=injection'
p818
I1667
sS'conj=#PRP#'
p819
I278
sS'w+2=emerge'
p820
I1171
sS'amod=orderly'
p821
I146
sS'w+1=guarantee'
p822
I858
sS'conj=performer'
p823
I314
sS'w-2=sort'
p824
I2148
sS'w-2=presidential'
p825
I2100
sS'w+2=conduct'
p826
I1122
sS'w-2=after'
p827
I1870
sS'w+1=to'
p828
I952
sS'amod=formal'
p829
I88
sS'w-1=constitutional'
p830
I1576
sS'infmod=ensure'
p831
I409
sS'w+2=acknowledge'
p832
I1054
sS'w-2=cover'
p833
I1917
sS'w+2=he'
p834
I1229
sS'poss=Coast'
p835
I645
sS'amod=tedious'
p836
I202
sS'appos=swipe'
p837
I244
sS'w+2=subsequent'
p838
I1446
sS'w-1=nomination'
p839
I1708
sS'w+1=include'
p840
I872
sS'nn=disablement'
p841
I481
sS'rcmod=produce'
p842
I728
sS'w-2=credit'
p843
I1918
sS'amod=stop-and-go'
p844
I195
sS'conj=refrain'
p845
I322
sS'w-2=method'
p846
I2050
sS'w+2=specially'
p847
I1432
sS'amod=drawn-out'
p848
I70
sS'w+2=cognitive'
p849
I1114
sS'nn=carbon'
p850
I460
sS'w-2=first'
p851
I1972
sS'w+2=very'
p852
I1486
sS'w+2=now'
p853
I1320
sS'nn=voting'
p854
I569
sS'amod=nominating'
p855
I137
sS'w+2=recovery'
p856
I1378
sS'w+2=require'
p857
I1389
sS'rcmod=indicate'
p858
I716
sS'rcmod=stall'
p859
I745
sS'w-2=home-grown'
p860
I1997
sS'w+1=say'
p861
I923
sS'w-2=test'
p862
I2172
sS'w+2=historic'
p863
I1236
sS'w+2=those'
p864
I1462
sS'nn=proposal'
p865
I532
sS'w-2=potential'
p866
I2096
sS'w-1=two-stage'
p867
I1812
sS'w+2=ensure'
p868
I1177
sS'w+2=extract'
p869
I1193
sS'w-1=rehab'
p870
I1753
sS'amod=illegitimate'
p871
I104
sS'w+1=since'
p872
I931
sS'partmod=anger'
p873
I616
sS'w-2=back'
p874
I1884
sS'amod=north-south'
p875
I138
sS'w+2=1976'
p876
I986
sS'w+1=top-dollar'
p877
I955
sS'w+2=over'
p878
I1337
sS'w+2=reach'
p879
I1370
sS'w+2=carry'
p880
I1102
sS'w+2=many'
p881
I1292
sS'w-2=network'
p882
I2063
sS'partmod=conduct'
p883
I619
sS'w+2=split'
p884
I1434
sS'amod=transitional'
p885
I206
sS'amod=different'
p886
I64
sS'w+1=anger'
p887
I795
sS'nn=Helsinki'
p888
I437
sS'w+2=building'
p889
I1095
sS'w-2=six'
p890
I2140
sS'w-2=though'
p891
I2178
sS'w-2=mishandle'
p892
I2053
sS'w+2=its'
p893
I1269
sS'amod=whole'
p894
I218
sS'partmod=require'
p895
I636
sS'conj=procedure'
p896
I317
sS'w-2=plan'
p897
I2092
sS'w-1=dialogue'
p898
I1603
sS'w-1=implementation'
p899
I1660
sS'w-1=TRC'
p900
I1528
sS'w+2=paperwork'
p901
I1340
sS'w-2=usually'
p902
I2198
sS'w+1=oil'
p903
I901
sS'dobj=member'
p904
I392
sS'prep=because'
p905
I664
sS'w+2=down'
p906
I1159
sS'amod=confusing'
p907
I50
sS'w-1=Oslo'
p908
I1525
sS'w+2=severely'
p909
I1415
sS'w+2=lengthy'
p910
I1281
sS'w-2=energize'
p911
I1952
sS'w+2=northern'
p912
I1317
sS'rcmod=include'
p913
I715
sS'w-1=state-by-state'
p914
I1781
sS'w+2=January'
p915
I1024
sS'w+2=formulate'
p916
I1214
sS'w+1=totally'
p917
I956
sS'w+1=hanging'
p918
I860
sS'w-2=commence'
p919
I1906
sS'w-1=voting'
p920
I1820
sS'w-1=investment'
p921
I1671
sS'w-2=asylum'
p922
I1883
sS'w-2=u.n.-backed'
p923
I2189
sS'w+1=may'
p924
I888
sS'nsubjpass=who'
p925
I610
sS'w-2=delegate'
p926
I1925
sS'w+2=collect'
p927
I1116
sS'nsubj=industry'
p928
I586
sS'w+1=than'
p929
I939
sS'w+2=deliver'
p930
I1140
sS'w-2=represent'
p931
I2122
sS'w-1=Doha'
p932
I1518
sS'w-2=fragile'
p933
I1983
sS'w-2=you'
p934
I2217
sS'w-2=jumpstart'
p935
I2024
sS'w+1=here'
p936
I864
sS'w-1=republican'
p937
I1757
sS'dep=get'
p938
I352
sS'w+2=some'
p939
I1428
sS'w-2=kenyan'
p940
I2025
sS'appos=Rapp'
p941
I225
sS'rcmod=update'
p942
I755
sS'advmod=early'
p943
I9
sS'w+2=go'
p944
I1225
sS'w-2=sure'
p945
I2166
sS'cc=but'
p946
I260
sS'dep=EDS'
p947
I341
sS'w+2=lead'
p948
I1280
sS'amod=own'
p949
I148
sS'w-2=arab'
p950
I1878
sS'w-1=fair'
p951
I1629
sS'w+2=facilitate'
p952
I1195
sS'nn=statehood'
p953
I551
sS'dep=political'
p954
I359
sS'amod=traditional'
p955
I205
sS'w-1=impeachment'
p956
I1659
sS'w+1=along'
p957
I792
sS'nsubj=development'
p958
I580
sS'w+1=nonetheless'
p959
I896
sS'w+1=come'
p960
I824
sS'w+1=violate'
p961
I965
sS'rcmod=allow'
p962
I685
sS'w-2=overall'
p963
I2083
sS'partmod=ignore'
p964
I628
sS'w-1=Annapolis'
p965
I1516
sS'xcomp=certify'
p966
I2218
sS'partmod=end'
p967
I623
sS'w+2=which'
p968
I1497
sS'w+2=briefing'
p969
I1092
sS'w+2=yesterday'
p970
I1507
sS'amod=national'
p971
I130
sS'w-1=corrosive'
p972
I1584
sS'amod=land-reform'
p973
I114
sS'w+2=labor'
p974
I1276
sS'appos=Saiki'
p975
I226
sS'w-2=of'
p976
I2073
sS'w+2=stalemate'
p977
I1436
sS'w+2=originate'
p978
I1333
sS'w+2=hold'
p979
I1237
sS'w+1=whether'
p980
I970
sS'w+1=go'
p981
I855
sS'conj=election'
p982
I301
sS'poss=bank'
p983
I652
sS'w-1=tedious'
p984
I1792
sS'dep=come'
p985
I346
sS'w-2=diplomatic'
p986
I1933
sS'w+2=voting'
p987
I1489
sS'w+1=once'
p988
I903
sS'w-2=realistic'
p989
I2110
sS'w+2=Kenya'
p990
I1028
sS'w+2=rampant'
p991
I1369
sS'w+2=probably'
p992
I1357
sS'w-1=lengthy'
p993
I1686
sS'w-1=illegitimate'
p994
I1658
sS'nn=healing'
p995
I499
sS'w+2=non-governmental'
p996
I1314
sS'advmod=before'
p997
I7
sS'w-2=lead'
p998
I2032
sS'w-2=off-again'
p999
I2074
sS'w-2=unless'
p1000
I2193
sS'w-2=law'
p1001
I2031
sS'w+1=up'
p1002
I962
sS'nn=field'
p1003
I492
sS'w-1=expensive'
p1004
I1627
sS'w-2=legislative'
p1005
I2037
sS'w-1=political'
p1006
I1732
sS'w-2=vote'
p1007
I2203
sS'appos=pipe'
p1008
I239
sS'w-2=try'
p1009
I2186
sS'amod=latest'
p1010
I116
sS'amod=come'
p1011
I44
sS'rcmod=confident'
p1012
I695
sS'conj=effect'
p1013
I300
sS'w+1=with'
p1014
I973
sS'w-2=halt'
p1015
I1990
sS'dobj=barrel'
p1016
I380
sS'w-1=counting'
p1017
I1588
sS'amod=six-nation'
p1018
I185
sS'w-1=important'
p1019
I1661
sS'w-2=much'
p1020
I2060
sS'w-2=,'
p1021
I1833
sS'w-2=-'
p1022
I1834
sS'w-2=.'
p1023
I1837
sS'w+2=Iraq'
p1024
I1019
sS'aux=have'
p1025
I251
sS'w-2=conclude'
p1026
I1912
sS'w+1=remain'
p1027
I915
sS'w+2=Iran'
p1028
I1018
sS'nn=declaration'
p1029
I475
sS'w-2=normal'
p1030
I2069
sS'w+2=flee'
p1031
I1208
sS'w-2=sudanese'
p1032
I2161
sS'w-2=dollar'
p1033
I1940
sS'w+1=culminate'
p1034
I829
sS'w+2=United'
p1035
I1045
sS'w+1=follow'
p1036
I846
sS'w-1=demarcation'
p1037
I1598
sS'amod=driven-driven'
p1038
I71
sS'amod=robust'
p1039
I177
sS'csubj=write'
p1040
I338
sS'w+2=perhaps'
p1041
I1347
sS'w-2=how'
p1042
I2000
sS'w+2=mean'
p1043
I1295
sS'w-2=follow'
p1044
I1975
sS'conj=help'
p1045
I305
sS'w-2=clock'
p1046
I1904
sS'w+2=control'
p1047
I1127
sS'w-1=disablement'
p1048
I1607
sS'amod=possible'
p1049
I156
sS'partmod=oversee'
p1050
I634
sS'w-2=burmese'
p1051
I1894
sS'w-1=inter-agency'
p1052
I1670
sS'w-1=referendum'
p1053
I1748
sS'amod=pre-storm'
p1054
I159
sS'w+1=fuel'
p1055
I853
sS'amod=palestinian'
p1056
I151
sS'w+1=matter'
p1057
I887
sS'amod=far'
p1058
I83
sS'nsubj=Peace'
p1059
I574
sS'nn=counting'
p1060
I472
sS'w-2=carbon'
p1061
I1898
sS'w+2=crucial'
p1062
I1133
sS'w-2=make'
p1063
I2046
sS'w-1=he'
p1064
I1652
sS'amod=sudanese'
p1065
I200
sS'w+1=6,500'
p1066
I771
sS'w+1=from'
p1067
I852
sS'w-1=tabulation'
p1068
I1790
sS'dobj=paperwork'
p1069
I394
sS'w-1=intelligence'
p1070
I1669
sS'amod=negotiate'
p1071
I133
sS'w+2=Hamas'
p1072
I1014
sS'appos=use'
p1073
I246
sS'w-2=procedure'
p1074
I2102
sS'w-1=transitional'
p1075
I1806
sS'w+2=Avandia'
p1076
I1000
sS'nn=budget'
p1077
I458
sS'w-2=political'
p1078
I2094
sS'conj=scene'
p1079
I325
sS'amod=bilateral'
p1080
I39
sS'w-2=drive'
p1081
I1946
sS'w-1=judges-only'
p1082
I1675
sS'amod=diplomatic'
p1083
I66
sS'nn=chemical'
p1084
I463
sS'w-2=lengthy'
p1085
I2038
sS'nn=visa'
p1086
I566
sS'w-2=this'
p1087
I2177
sS'partmod=pioneer'
p1088
I635
sS'prep=from'
p1089
I670
sS'csubj=try'
p1090
I337
sS'w+1=launch'
p1091
I882
sS'amod=regional'
p1092
I167
sS'w-2=facility'
p1093
I1968
sS'parataxis=create'
p1094
I613
sS'w-1=grieving'
p1095
I1647
sS'w-2=push'
p1096
I2107
sS'amod=expensive'
p1097
I80
sS'conj=conference'
p1098
I292
sS'w-2=brain'
p1099
I1892
sS'w+2=Mr.'
p1100
I1033
sS'w+1=-'
p1101
I765
sS'w+1=,'
p1102
I764
sS'w+1=.'
p1103
I769
sS'w-1=old'
p1104
I1713
sS'w-2=real'
p1105
I2109
sS'w+1=also'
p1106
I793
sS'w+1=:'
p1107
I773
sS'conj=attention'
p1108
I285
sS'w+1=?'
p1109
I774
sS'nn=referendum'
p1110
I538
sS'w+1=I'
p1111
I776
sS'appos=district'
p1112
I228
sS'w-2=nigerian'
p1113
I2064
sS'w-1=dangerous'
p1114
I1595
sS'w+2=optimistic'
p1115
I1330
sS'w+2=complete'
p1116
I1120
sS'w+1=a'
p1117
I783
sS'w+1=facilitate'
p1118
I842
sS'w-1=continuous'
p1119
I1581
sS'w+1=U.S.'
p1120
I782
sS'w+2=allegation'
p1121
I1059
sS'w+1=drive'
p1122
I834
sS'w-1=that'
p1123
I1794
sS'nn=registration'
p1124
I541
sS'conj=something'
p1125
I327
sS'w-1=screening'
p1126
I1764
sS'poss=party'
p1127
I657
sS'csubj=come'
p1128
I336
sS'nsubjpass=these'
p1129
I607
sS'conj=connection'
p1130
I293
sS'w-1=initiative'
p1131
I1666
sS'conj=Gheit'
p1132
I279
sS'w+2=Darfur'
p1133
I1006
sS'nn=investment'
p1134
I510
sS'nn=vote-counting'
p1135
I568
sS'dep=Albania'
p1136
I340
sS'partmod=facilitate'
p1137
I625
sS'conj=produce'
p1138
I318
sS'w+1=underway'
p1139
I959
sS'xcomp=use'
p1140
I2220
sS'amod=wider'
p1141
I220
sS'w-1=thoughtful'
p1142
I1801
sS'w-2=open'
p1143
I2080
sS'w-2=Ireland'
p1144
I1845
sS'dobj=sample'
p1145
I399
sS'w-2=impede'
p1146
I2004
sS'dobj=group'
p1147
I385
sS'nn=dialogue'
p1148
I480
sS'w+2=Jan'
p1149
I1023
sS'w-2=more'
p1150
I2057
sS'w+1=top'
p1151
I954
sS'w-1=AMANI'
p1152
I1515
sS'w+2=eventually'
p1153
I1182
sS'w-1=inflammatory'
p1154
I1665
sS'w-1=closed'
p1155
I1564
sS'nn=testing'
p1156
I556
sS'dobj=meeting'
p1157
I391
sS'w+1=too'
p1158
I953
sS'w+2=absolutely'
p1159
I1051
sS'nn=reconstruction'
p1160
I536
sS'conj=stability'
p1161
I328
sS'w+2=begin'
p1162
I1086
sS'dobj=kp'
p1163
I388
sS'rcmod=choose'
p1164
I691
sS'w-1=caucus'
p1165
I1559
sS'w+1=continue'
p1166
I825
sS'w-2=family'
p1167
I1970
sS'nn=Doha'
p1168
I433
sS'ccomp=catch'
p1169
I266
sS'amod=transparent'
p1170
I207
sS'w-2=robust'
p1171
I2130
sS'w-1=palestinian'
p1172
I1725
sS'w-2=identify'
p1173
I2002
sS'w-1=costly'
p1174
I1585
sS'w-1=four-year-old'
p1175
I1635
sS'w-2=analyze'
p1176
I1874
sS'w+2=to'
p1177
I1466
sS'w+2=identification'
p1178
I1245
sS'w-2=purchase'
p1179
I2106
sS'w+2=shut'
p1180
I1420
sS'w+2=Los'
p1181
I1031
sS'amod=closed'
p1182
I42
sS'w-1=its'
p1183
I1674
sS'w-2=acknowledge'
p1184
I1864
sS'rcmod=trap'
p1185
I751
sS'w-1=nationwide'
p1186
I1700
sS'w+2=refrain'
p1187
I1381
sS'w-1=elongate'
p1188
I1621
sS'w-1=chemical'
p1189
I1561
sS'w+2=Akitaka'
p1190
I998
sS'w-1=Peace'
p1191
I1526
sS'nn=vote'
p1192
I567
sS'w+2=test'
p1193
I1451
sS'complm=that'
p1194
I276
sS'w-1=climate'
p1195
I1563
sS'w-1=gradual'
p1196
I1646
sS'nn=igcc'
p1197
I502
sS'w-2=file'
p1198
I1971
sS'conj=constitution'
p1199
I294
sS'w+2=vote'
p1200
I1487
sS'rcmod=lead'
p1201
I719
sS'w+2=will'
p1202
I1499
sS'w+1=then'
p1203
I943
sS'w+1=now'
p1204
I897
sS'w-2=crush'
p1205
I1920
sS'conj=Jerusalem'
p1206
I280
sS'w+2=long'
p1207
I1286
sS'w+2=dialogue'
p1208
I1150
sS'w-2=troubled'
p1209
I2185
sS'w+1=they'
p1210
I945
sS'w+2=concept'
p1211
I1121
sS'w-1=creative'
p1212
I1591
sS'w+1=those'
p1213
I947
sS'w+2=Pyongyang'
p1214
I1037
sS'amod=legal'
p1215
I118
sS'nn=identification'
p1216
I501
sS'prep=in'
p1217
I671
sS'w-1=about'
p1218
I1532
sS'partmod=know'
p1219
I630
sS'nn=implementation'
p1220
I504
sS'w+2=mostly'
p1221
I1300
sS'w-1=strong'
p1222
I1785
sS'w+2=land'
p1223
I1277
sS'w-2=slow'
p1224
I2143
sS'w+2=renew'
p1225
I1386
sS'w-2=hybrid'
p1226
I2001
sS'poss=Lebanon'
p1227
I648
sS'w+2=political'
p1228
I1351
sS'w-2=support'
p1229
I2165
sS'amod=arab-israeli'
p1230
I36
sS'partmod=exclude'
p1231
I624
sS'w-1=bacterial'
p1232
I1548
sS'w-1=disable'
p1233
I1606
sS'w-1=rebalancing'
p1234
I1744
sS'w+1=against'
p1235
I789
sS'dobj=more'
p1236
I393
sS'ccomp=exhaust'
p1237
I268
sS'w-1=it'
p1238
I1673
sS'nn=rebalancing'
p1239
I534
sS'w-2=government'
p1240
I1989
sS'amod=continuous'
p1241
I56
sS'w+2=accept'
p1242
I1052
sS'xcomp=produce'
p1243
I2219
sS'det=this'
p1244
I377
sS'w+2=Wisner'
p1245
I1046
sS'infmod=set'
p1246
I421
sS'amod=key'
p1247
I113
sS'w+1=thousand'
p1248
I948
sS'w-2=strengthen'
p1249
I2156
sS'w+2=soon'
p1250
I1430
sS'advmod=likely'
p1251
I14
sS'w+2=issue'
p1252
I1267
sS'mark=if'
p1253
I426
sS'conj=resolution'
p1254
I323
sS'amod=ongoing'
p1255
I144
sS'w+2=almost'
p1256
I1061
sS'amod=home-grown'
p1257
I103
sS'w+2=not'
p1258
I1318
sS'nsubj=recovery'
p1259
I595
sS'w-1=formal'
p1260
I1634
sS'rcmod=suspect'
p1261
I748
sS'conj=progress'
p1262
I319
sS'w+2=invite'
p1263
I1264
sS'rcmod=be'
p1264
I686
sS'rcmod=launch'
p1265
I718
sS'amod=#NUMBER#'
p1266
I27
sS'dep=say'
p1267
I363
sS'w-1=gas-extraction'
p1268
I1640
sS'w-2=believe'
p1269
I1889
sS'det=these'
p1270
I376
sS'w-2=indeed'
p1271
I2008
sS'nsubj=issue'
p1272
I588
sS'w-2=through'
p1273
I2180
sS'w-1=rigorous'
p1274
I1763
sS'rcmod=likely'
p1275
I721
sS'w+2=difficult'
p1276
I1151
sS'w+2=focus'
p1277
I1209
sS'w+1=can'
p1278
I817
sS'w-2=on'
p1279
I2077
sS'w-1=neutral'
p1280
I1704
sS'w-2=vibrant'
p1281
I2201
sS'w-2=own'
p1282
I2085
sS'w+2=king'
p1283
I1273
sS'nsubjpass=drug'
p1284
I603
sS'amod=tally'
p1285
I201
sS'w-2=begin'
p1286
I1888
sS'w+2=seriously'
p1287
I1413
sS'w-2=complex'
p1288
I1908
sS'w+2=Bali'
p1289
I1001
sS'amod=screening-training'
p1290
I179
sS'w+2=allow'
p1291
I1060
sS'w-2=protect'
p1292
I2105
sS'w+2=can'
p1293
I1098
sS'w+1=ignore'
p1294
I868
sS'rcmod=enable'
p1295
I704
sS'w+1=as'
p1296
I799
sS'w+2=reconstruction'
p1297
I1377
sS'w+2=like'
p1298
I1282
sS'w+1=at'
p1299
I801
sS'w+2=debate'
p1300
I1136
sS'w-2=explain'
p1301
I1964
sS'dep=matter'
p1302
I358
sS'w+2=so'
p1303
I1426
sS'amod=trial-and-error'
p1304
I208
sS'w+2=experience'
p1305
I1189
sS'w-2=patent'
p1306
I2088
sS'w-2=revitalize'
p1307
I2128
sS'nn=application'
p1308
I451
sS'w-2=recycle'
p1309
I2112
sS'w-1=reintegration'
p1310
I1755
sS'w+1=where'
p1311
I968
sS'amod=neutral'
p1312
I134
sS'w+2=counter'
p1313
I1129
sS'advmod=when'
p1314
I26
sS'w-2=Nepal'
p1315
I1851
sS'w+2=draft'
p1316
I1160
sS'amod=presidential'
p1317
I160
sS'w-2=annual'
p1318
I1876
sS'w+2=deal'
p1319
I1135
sS'rcmod=replace'
p1320
I734
sS'w-1=withdrawal'
p1321
I1827
sS'w+1=we'
p1322
I966
sS'nn=tribunal'
p1323
I562
sS'dep=destroy'
p1324
I349
sS'w-1=CSRT'
p1325
I1517
sS'nn=refining'
p1326
I539
sS'w-1=hybrid'
p1327
I1655
sS'auxpass=be'
p1328
I258
sS"w-1='s"
p1329
I1510
sS'nn=EU'
p1330
I435
sS'w-1=party'
p1331
I1726
sS'w+2=after'
p1332
I1056
sS'advmod=still'
p1333
I22
sS'w+1=next'
p1334
I895
sS'w-2=SnapShot'
p1335
I1855
sS'w-2=different'
p1336
I1931
sS'w-2=be'
p1337
I1886
sS'w+1=there'
p1338
I944
sS'amod=irreversible'
p1339
I108
sS'nsubj=trial'
p1340
I600
sS'amod=gradual'
p1341
I99
sS'w+1=mount'
p1342
I893
sS'w-2=nuclear'
p1343
I2071
sS'w+2=study'
p1344
I1444
sS'w-2=information'
p1345
I2009
sS'nn=learning'
p1346
I513
sS'w-2=shale'
p1347
I2137
sS'rcmod=move'
p1348
I724
sS'w+1=crab'
p1349
I827
sS"w-1=''"
p1350
I1509
sS'nn=Oslo'
p1351
I439
sS'w-1=bilateral'
p1352
I1553
sS'w+1=use'
p1353
I963
sS'w-1=remain'
p1354
I1756
sS'w+2=applicant'
p1355
I1070
sS'w-2=probably'
p1356
I2101
sS'w-1=no'
p1357
I1706
sS'w-2=extremely'
p1358
I1966
sS"w-2=''"
p1359
I1831
sS'nsubj=this'
p1360
I598
sS'w+1=four'
p1361
I850
sS'amod=administrative'
p1362
I31
sS'w-1=custom'
p1363
I1594
sS'w+2=longer'
p1364
I1287
sS'amod=easy'
p1365
I74
sS'w+2=store'
p1366
I1442
sS'amod=republican'
p1367
I172
sS'w+2=make'
p1368
I1290
sS'rcmod=build'
p1369
I690
sS'w-2=leave'
p1370
I2034
sS'w-2=establish'
p1371
I1960
sS'amod=corrosive'
p1372
I57
sS'w-1=screening-training'
p1373
I1765
sS'w-1=larger'
p1374
I1681
sS'w-1=E.U.'
p1375
I1519
sS'nn=reintegration'
p1376
I544
sS'w+1=abroad'
p1377
I785
sS'w+2=design'
p1378
I1144
sS'w-1=come'
p1379
I1566
sS'w-1=appropriation'
p1380
I1544
sS'w+2=provide'
p1381
I1362
sS'w-2=by'
p1382
I1896
sS'w-2=add'
p1383
I1867
sS'w-1=slow'
p1384
I1776
sS'nn=U.S.'
p1385
I445
sS"w-2='s"
p1386
I1832
sS'nn=injection'
p1387
I506
sS'w+2=replace'
p1388
I1387
sS'w+2=thecountry'
p1389
I1455
sS'nn=rehab'
p1390
I542
sS'w+1=request'
p1391
I916
sS'w+2=particularly'
p1392
I1342
sS'amod=successful'
p1393
I198
sS'w-1=litigation'
p1394
I1687
sS'w-2=no'
p1395
I2065
sS'w-2=respect'
p1396
I2124
sS'w-1=free-election'
p1397
I1636
sS'rcmod=put'
p1398
I731
sS'amod=phased'
p1399
I154
sS'dep=to'
p1400
I369
sS'w+1=because'
p1401
I805
sS'nn=disarmament'
p1402
I482
sS'w+2=every'
p1403
I1183
sS'w+2=undocumented'
p1404
I1480
sS'ccomp=bring'
p1405
I265
sS'w-1=trial-and-error'
p1406
I1810
sS'w+2=South'
p1407
I1043
sS'nn=trial'
p1408
I561
sS'w+1=Tuesday'
p1409
I781
sS'w+2=much'
p1410
I1303
sS'nn=averaging'
p1411
I454
sS'dobj=transfer'
p1412
I400
sS'w+2=send'
p1413
I1411
sS'rcmod=unfold'
p1414
I754
sS'w+2=separate'
p1415
I1412
sS'partmod=leave'
p1416
I633
sS'w-1=orderly'
p1417
I1720
sS'amod=israeli-palestinian'
p1418
I110
sS'w+2=reconciliation'
p1419
I1375
sS'amod=overall'
p1420
I147
sS'amod=fast-track'
p1421
I84
sS'w-1=regulatory'
p1422
I1752
sS'rcmod=resolve'
p1423
I736
sS'w-2=road'
p1424
I2129
sS'w-2=extensive'
p1425
I1965
sS'w-2=fundamental'
p1426
I1986
sS'w-1=natural'
p1427
I1701
sS'w+2=care'
p1428
I1100
sS'aux=will'
p1429
I256
sS'w-2=Darfur'
p1430
I1841
sS'w-2=complete'
p1431
I1907
sS'w+1=cheese'
p1432
I820
sS'prep=with'
p1433
I681
sS'nsubj=Kimberley'
p1434
I572
sS'w-2=killing'
p1435
I2026
sS'amod=previous'
p1436
I161
sS'w-2=hopeful'
p1437
I1999
sS'amod=constitutional'
p1438
I52
sS'w+2=Rice'
p1439
I1038
sS'w-1=budgetary'
p1440
I1556
sS'amod=democratic'
p1441
I63
sS'w+2=do'
p1442
I1158
sS'w-1=registration'
p1443
I1751
sS'w+2=catch'
p1444
I1103
sS'w-1=land-reform'
p1445
I1680
sS'nn=verification'
p1446
I564
sS'w-1=decolonization'
p1447
I1597
sS'w-1=governmental'
p1448
I1645
sS'w+2=reconstruct'
p1449
I1376
sS'w-2=motion'
p1450
I2058
sS'conj=design'
p1451
I296
sS'w+2=place'
p1452
I1350
sS'w+2=sham'
p1453
I1416
sS'w-1=theelection'
p1454
I1796
sS'w+1=coffee'
p1455
I821
sS'xcomp=work'
p1456
I2221
sS'w+2=proceed'
p1457
I1359
sS'amod=current'
p1458
I61
sS'w-1=six-nation'
p1459
I1774
sS'mark=because'
p1460
I424
sS'w+1=thus'
p1461
I951
sS'w+1=exclude'
p1462
I840
sS'nn=development'
p1463
I479
sS'w-2=Kaesong'
p1464
I1846
sS'w-2=hold'
p1465
I1996
sS'w-1=these'
p1466
I1798
sS'cc=and'
p1467
I259
sS'amod=regulatory'
p1468
I169
sS'w+2=February'
p1469
I1010
sS'w-1=write'
p1470
I1828
sS'appos=chance'
p1471
I227
sS'rcmod=mislead'
p1472
I723
sS'w+2=Gabon'
p1473
I1011
sS'w+1=by'
p1474
I815
sS'w+1=be'
p1475
I804
sS'infmod=determine'
p1476
I408
sS'rcmod=feel'
p1477
I707
sS'rcmod=reward'
p1478
I738
sS'w-1=lawmaking'
p1479
I1682
sS'nn=balloting'
p1480
I455
sS'w-2=way'
p1481
I2205
sS'w+1=-lrb-'
p1482
I767
sS'w+2=destroy'
p1483
I1147
sS'w+1=thing'
p1484
I946
sS'w-1=arduous'
p1485
I1546
sS'amod=creative'
p1486
I60
sS'dobj=poppy'
p1487
I396
sS'w-2=facilitate'
p1488
I1967
sS'w+1=application'
p1489
I797
sS'w+1=into'
p1490
I873
sS'w-2=set'
p1491
I2136
sS'w+2=conflict'
p1492
I1123
sS'w+1=often'
p1493
I900
sS'w-1=visa'
p1494
I1818
sS'w+2=involve'
p1495
I1265
sS'w+2=Cuba'
p1496
I1005
sS'w+1=lag'
p1497
I880
sS'w+2=must'
p1498
I1305
sS'nn=payroll'
p1499
I524
sS'w+1=should'
p1500
I930
sS'w-2=israeli-palestinian'
p1501
I2018
sS'amod=u.n.-backed'
p1502
I212
sS'rcmod=give'
p1503
I710
sS'advmod=either'
p1504
I10
sS'w-2=these'
p1505
I2175
sS'dep=in'
p1506
I355
sS'w+1=still'
p1507
I935
sS'partmod=rule'
p1508
I637
sS'w+2=investigate'
p1509
I1263
sS'w+1=lead'
p1510
I883
sS'nn=selection'
p1511
I549
sS'w+2=outstrip'
p1512
I1336
sS'w-2=long-stalled'
p1513
I2044
sS'nn=fabric-making'
p1514
I491
sS'partmod=launch'
p1515
I631
sS'w+2=dismantle'
p1516
I1156
sS'w+2=subject'
p1517
I1445
sS'prep=of'
p1518
I675
sS'w+2=try'
p1519
I1473
sS'amod=such'
p1520
I199
sS'prep=on'
p1521
I676
sS'w-1=recruitment'
p1522
I1747
sS'amod=military'
p1523
I127
sS'rcmod=help'
p1524
I714
sS'w+2=implement'
p1525
I1248
sS'dep=poppy'
p1526
I360
sS'w-2=clean'
p1527
I1902
sS'poss=Senegal'
p1528
I651
sS'w+1=break'
p1529
I812
sS'w+2=Israelis'
p1530
I1021
sS'amod=nationwide'
p1531
I131
sS'w+2=revive'
p1532
I1397
sS'w-2=closely'
p1533
I1905
sS'w-2=monitor'
p1534
I2055
sS'w-1=contracting'
p1535
I1582
sS'dep=the'
p1536
I367
sS'w+2=election'
p1537
I1169
sS'w+2=fund'
p1538
I1220
sS'w+2=evidence'
p1539
I1184
sS'w+2=than'
p1540
I1452
sS'w-2=talk'
p1541
I2170
sS'w+1=without'
p1542
I975
sS'w+2=that'
p1543
I1453
sS'w+2=also'
p1544
I1063
sS'w-1=manual'
p1545
I1692
sS'nn=consultation'
p1546
I470
sS'w-2=get'
p1547
I1988
sS'w+2=delay'
p1548
I1139
sS'w+2=despite'
p1549
I1146
sS'w+2=Guatemala'
p1550
I1013
sS'w-2=affect'
p1551
I1869
sS'infmod=reunite'
p1552
I419
sS'w+2=discuss'
p1553
I1154
sS'w-1=of'
p1554
I1712
sS'w+2=fight'
p1555
I1202
sS'conj=go'
p1556
I304
sS'w+2=it'
p1557
I1268
sS'w+2=end'
p1558
I1175
sS'w-2=hope'
p1559
I1998
sS'w-1=start'
p1560
I1780
sS'w+2=note'
p1561
I1319
sS'w-1=nominating'
p1562
I1707
sS'rcmod=re-launch'
p1563
I732
sS'rcmod=science'
p1564
I740
sS'rcmod=make'
p1565
I722
sS'w-2=enough'
p1566
I1955
sS'w-2=scramble'
p1567
I2132
sS'amod=painstaking'
p1568
I150
sS'acomp=subject'
p1569
I0
sS'w+2=join'
p1570
I1270
sS'nn=party'
p1571
I523
sS'advmod=now'
p1572
I15
sS'amod=electoral'
p1573
I77
sS'w-1=confirmation'
p1574
I1573
sS'nn=creation'
p1575
I473
sS'nn=membership'
p1576
I517
sS'amod=constructive'
p1577
I54
sS'w+2=secure'
p1578
I1407
sS'w-2=island'
p1579
I2016
sS'w+1=base'
p1580
I803
sS'amod=arab'
p1581
I35
sS'nsubj=fight'
p1582
I585
sS'amod=off-again'
p1583
I141
sS'w-2=while'
p1584
I2211
sS'advcl=will'
p1585
I4
sS'w-2=concede'
p1586
I1911
sS'w-2=postpone'
p1587
I2095
sS'amod=full'
p1588
I94
sS'nn=pollination'
p1589
I528
sS'w-2=as'
p1590
I1881
sS'dep=a'
p1591
I342
sS'w+2=rebuild'
p1592
I1373
sS'w+1=himself'
p1593
I865
sS'w-2=upcome'
p1594
I2196
sS'dobj=fund'
p1595
I384
sS'rcmod=select'
p1596
I743
sS'cop=be'
p1597
I335
sS'w+1=during'
p1598
I835
sS'w-1=system'
p1599
I1789
sS'w+1=change'
p1600
I819
sS'amod=revise'
p1601
I173
sS'w+2=redeployment'
p1602
I1379
sS'w-2=sign'
p1603
I2138
sS'det=a'
p1604
I370
sS'dep=find'
p1605
I351
sS'w-1=when'
p1606
I1823
sS'nn=Kimberly'
p1607
I438
sS'w+1=fraught'
p1608
I851
sS'infmod=deliver'
p1609
I407
sS'partmod=design'
p1610
I621
sS'nn=operation'
p1611
I522
sS'w+2=there'
p1612
I1457
sS'conj=inevitable'
p1613
I307
sS'rcmod=use'
p1614
I756
sS'w+2=drug'
p1615
I1164
sS'w+2=communist'
p1616
I1119
sS'appos=issue'
p1617
I232
sS'w+1=Thursday'
p1618
I780
sS'w-1=policy'
p1619
I1731
sS'w+2=far'
p1620
I1198
sS'w+2=formally'
p1621
I1212
sS'w+2=give'
p1622
I1223
sS'w-1=out'
p1623
I1721
sS'w-2=EU'
p1624
I1843
sS'amod=peaceful'
p1625
I153
sS'w+2=palestinian'
p1626
I1339
sS'w+2=have'
p1627
I1228
sS'w+2=denuclearization'
p1628
I1143
sS'conj=dialogue'
p1629
I297
sS'ccomp=process'
p1630
I271
sS'dobj=coffee'
p1631
I382
sS'nn=evacuation'
p1632
I489
sS'w-1=justice'
p1633
I1678
sS'amod=complex'
p1634
I47
sS'w-2=complicated'
p1635
I1909
sS'w-2=ethanol'
p1636
I1961
sS'amod=extensive'
p1637
I81
sS'w+2=enact'
p1638
I1173
sS'w+2=within'
p1639
I1502
sS'w+2=Senegal'
p1640
I1042
sS'w+2=truly'
p1641
I1472
sS'w-1=competitive'
p1642
I1571
sS'aux=to'
p1643
I255
sS'w-2=current'
p1644
I1922
sS'w+2=flaw'
p1645
I1207
sS'w-2=really'
p1646
I2111
sS'ccomp=treasure'
p1647
I273
sS'w-1=for'
p1648
I1633
sS'w-2=six-nation'
p1649
I2141
sS'advmod=perhaps'
p1650
I18
sS'amod=disable'
p1651
I67
sS'w+2=about'
p1652
I1050
sS'amod=inflammatory'
p1653
I107
sS'w+2=second'
p1654
I1406
sS'w-2=East'
p1655
I1844
sS'w+2=carefully'
p1656
I1101
sS'w+2=both'
p1657
I1089
sS'w+2=preparation'
p1658
I1353
sS'w-1=constitution-writing'
p1659
I1575
sS'w+2=choose'
p1660
I1109
sS'dep=stand'
p1661
I365
sS'w-2=improve'
p1662
I2005
sS'w-2=whole'
p1663
I2213
sS'w+2=transformation'
p1664
I1470
sS'nsubj=organization'
p1665
I592
sS'w-1=not'
p1666
I1710
sS'w-2=difficult'
p1667
I1932
sS'aux=be'
p1668
I248
sS'w-2=Dayton'
p1669
I1842
sS'w-2=modify'
p1670
I2054
sS'w+1=become'
p1671
I806
sS'amod=judges-only'
p1672
I111
sS'w+2=commence'
p1673
I1118
sS'w+2=full'
p1674
I1218
sS'w+1=pioneer'
p1675
I909
sS'amod=troubled'
p1676
I210
sS'dep=do'
p1677
I350
sS'w-2=but'
p1678
I1895
sS'w-1=prolonged'
p1679
I1740
sS'amod=due'
p1680
I73
sS'w+2=Kentucky'
p1681
I1027
sS'nn=grief'
p1682
I496
sS'amod=natural'
p1683
I132
sS'advmod=well'
p1684
I25
sS'w-2=election'
p1685
I1949
sS'w-2=review'
p1686
I2127
sS'w+2=use'
p1687
I1484
sS'w-1=acquisition'
p1688
I1533
sS'amod=fragile'
p1689
I90
sS'w+2=peaceful'
p1690
I1345
sS'w-2=stop-and-go'
p1691
I2155
sS'nn=classification'
p1692
I464
sS'w-2=they'
p1693
I2176
sS'prep=than'
p1694
I678
sS'prep=by'
p1695
I667
sS'w+2=discussion'
p1696
I1155
sS'w-1=testing'
p1697
I1793
sS'prep=between'
p1698
I665
sS'w-2=unresolved'
p1699
I2194
sS'w-2=actual'
p1700
I1866
sS'conj=candidate'
p1701
I288
sS'w+2=change'
p1702
I1107
sS'w+2=disarmament'
p1703
I1153
sS'w-2=visa'
p1704
I2202
sS'prep=follow'
p1705
I668
sS'w-1=administrative'
p1706
I1534
sS'w-2=four'
p1707
I1981
sS'amod=big'
p1708
I38
sS'w-1=speedy'
p1709
I1779
sS'w+2=fear'
p1710
I1201
sS'w-2=composite'
p1711
I1910
sS'appos=election'
p1712
I230
sS'w+1=whereby'
p1713
I969
sS'rcmod=break'
p1714
I688
sS'w-1=by'
p1715
I1557
sS'w-2=describe'
p1716
I1928
sS'w+1=seriously'
p1717
I925
sS'w-1=be'
p1718
I1550
sS'amod=governmental'
p1719
I98
sS'nn=succession'
p1720
I553
sS'w+2=consumer'
p1721
I1125
sS'rcmod=dismiss'
p1722
I701
sS'nn=normalization'
p1723
I521
sS'aux=might'
p1724
I253
sS'infmod=take'
p1725
I422
sS'w+2=July'
p1726
I1026
sS'amod=important'
p1727
I105
sS'w+2=assessment'
p1728
I1075
sS'rcmod=establish'
p1729
I706
sS'w+2=privatize'
p1730
I1356
sS'rcmod=referral'
p1731
I733
sS'rcmod=provide'
p1732
I730
sS'nsubj=drill'
p1733
I581
sS'w-2=wholesale'
p1734
I2214
sS'nn=evaluation'
p1735
I490
sS'w-1=consultation'
p1736
I1579
sS'appos=effort'
p1737
I229
sS'dep=though'
p1738
I368
sS'amod=fraught'
p1739
I91
sS'w-2=flawed'
p1740
I1973
sS'w+2=what'
p1741
I1494
sS'w+1=collapse'
p1742
I823
sS'amod=write'
p1743
I221
sS'w+1=people'
p1744
I908
sS'nn=slow-movingpeace'
p1745
I550
sS'w-1=from'
p1746
I1638
sS'nn=judiciary'
p1747
I511
sS'w+1=image'
p1748
I869
sS'w-1=only'
p1749
I1716
sS'infmod=clear'
p1750
I406
sS'w+2=by'
p1751
I1097
sS'nn=monitoring'
p1752
I518
sS'w+2=Senator'
p1753
I1041
sS'ccomp=willing'
p1754
I275
sS'w+2=be'
p1755
I1081
sS'amod=coal-fired'
p1756
I43
sS'w-1=U.N.'
p1757
I1530
sS'w+2=president'
p1758
I1354
sS'nsubjpass=#PRP#'
p1759
I601
sS'w-1=disposal'
p1760
I1609
sS'w+2=huge'
p1761
I1241
sS'amod=active'
p1762
I29
sS'aux=would'
p1763
I257
sS'w+2=still'
p1764
I1440
sS'w-1=tribunal'
p1765
I1811
sS'amod=entire'
p1766
I78
sS'w+2=analyst'
p1767
I1065
sS'w+2=execution'
p1768
I1186
sS'w+1=immediately'
p1769
I870
sS'w+1=end'
p1770
I839
sS'w-2=U.N.'
p1771
I1859
sS'w+2=speed'
p1772
I1433
sS'w-2=a'
p1773
I1862
sS'w-2=Korea'
p1774
I1847
sS'w-1=negotiate'
p1775
I1702
sS'w+2=come'
p1776
I1117
sS'w+2=evaluate'
p1777
I1180
sS'w-2=interview'
p1778
I2014
sS'w-2=watch'
p1779
I2204
sS'w+1=and'
p1780
I794
sS'amod=painful'
p1781
I149
sS'dobj=request'
p1782
I398
sS'amod=tie-dye'
p1783
I204
sS'w+1=disqualify'
p1784
I832
sS'w+2=certify'
p1785
I1106
sS'w-2=crushed'
p1786
I1921
sS'w-1=selection'
p1787
I1767
sS'w-1=successful'
p1788
I1786
sS'infmod=begin'
p1789
I405
sS'w-2=late'
p1790
I2028
sS'w+2=rigorous'
p1791
I1398
sS'w-2=encourage'
p1792
I1950
sS'w-2=enjoy'
p1793
I1954
sS'w-2=status'
p1794
I2153
sS'w+2=these'
p1795
I1459
sS'w+1=forward'
p1796
I849
sS'w+2=encourage'
p1797
I1174
sS'w+1=finish'
p1798
I845
sS'w-2=successful'
p1799
I2160
sS'w-2=confident'
p1800
I1913
sS'amod=real'
p1801
I165
sS'conj=access'
p1802
I283
sS'w-2=criticize'
p1803
I1919
sS'w+2=should'
p1804
I1419
sS'w-1=constitutional-reform'
p1805
I1577
sS'w-1=legal'
p1806
I1684
sS'nn=peace'
p1807
I525
sS'amod=costly'
p1808
I58
sS'w-2=Kyoto'
p1809
I1848
sS'w+2=work'
p1810
I1504
sS'w+1=have'
p1811
I861
sS'w-1=convoluted'
p1812
I1583
sS'w-2=2030'
p1813
I1838
sS'w-1=statehood'
p1814
I1782
sS'w-1=field'
p1815
I1632
sS'w+2=reuse'
p1816
I1395
sS'w-2=use'
p1817
I2197
sS'w+1=rife'
p1818
I919
sS'conj=pressure'
p1819
I316
sS'w+2=2007'
p1820
I990
sS'amod=strong'
p1821
I197
sS'w+2=2004'
p1822
I989
sS'w+2=2003'
p1823
I988
sS'w+2=2002'
p1824
I987
sS'amod=larger'
p1825
I115
sS'w-1=inclusive'
p1826
I1663
sS'w+2=2009'
p1827
I991
sS'nsubj=transition'
p1828
I599
sS'amod=compact'
p1829
I45
sS'amod=tricky'
p1830
I209
sS'w+2=more'
p1831
I1299
sS'w-2=threaten'
p1832
I2179
sS'amod=competitive'
p1833
I46
sS'w-1=commercialize'
p1834
I1567
sS'partmod=create'
p1835
I620
sS'w-2=viable'
p1836
I2200
sS'w+2=six-nation'
p1837
I1423
sS'nsubj=facility'
p1838
I584
sS'w+2=know-how'
p1839
I1274
sS'w+2=slip'
p1840
I1424
sS'w+2=candidate'
p1841
I1099
sS'nn=status'
p1842
I552
sS'w+1=lack'
p1843
I879
sS'amod=regionally'
p1844
I168
sS'nn=disposal'
p1845
I483
sS'w+2=YarAdua'
p1846
I1047
sS'nsubj=project'
p1847
I594
sS'amod=renew'
p1848
I171
sS'w+2=open'
p1849
I1329
sS'nn=tabulation'
p1850
I555
sS'w-2=military'
p1851
I2052
sS'w+1=make'
p1852
I886
sS'w+2=whether'
p1853
I1496
sS'w-2=bed'
p1854
I1887
sS'w-2=aid'
p1855
I1871
sS'dep=process'
p1856
I361
sS'rcmod=take'
p1857
I749
sS'infmod=select'
p1858
I420
sS'prep=for'
p1859
I669
sS'dep=that'
p1860
I366
sS'nn=production'
p1861
I531
sS'amod=similar'
p1862
I183
sS'amod=federal'
p1863
I85
sS'w+2=at'
p1864
I1076
sS'rcmod=leave'
p1865
I720
sS'w+2=as'
p1866
I1074
sS'w-2=U.S.'
p1867
I1860
sS'dep=make'
p1868
I357
sS'w+2=include'
p1869
I1252
sS'w+2=return'
p1870
I1392
sS'w+1=would'
p1871
I978
sS'nn=inter-agency'
p1872
I509
sS'w+2=significantly'
p1873
I1422
sS'w-2=tie-dye'
p1874
I2182
sS'w+2=could'
p1875
I1128
sS'w-1=wider'
p1876
I1825
sS'w+2=India'
p1877
I1017
sS'w+2=withdraw'
p1878
I1501
sS'conj=block'
p1879
I286
sS'w+2=reunite'
p1880
I1394
sS'nn=justice'
p1881
I512
sS'w-1=macanese'
p1882
I1690
sS'w+2=expensive'
p1883
I1188
sS'amod=separate'
p1884
I181
sS'amod=strict'
p1885
I196
sS'amod=constitution-writing'
p1886
I51
sS'w-2=nominee'
p1887
I2067
sS'w+2=really'
p1888
I1371
sS'w-1=slow-movingpeace'
p1889
I1777
sS'w+1=back'
p1890
I802
sS'w+2=with'
p1891
I1500
sS'w+2=medical'
p1892
I1296
sS'w-2=detailed'
p1893
I1930
sS'w+2=photosynthesis'
p1894
I1349
sS'amod=difficult'
p1895
I65
sS'nsubjpass=application'
p1896
I602
sS'w+2=improve'
p1897
I1250
sS'nn=negotiation'
p1898
I519
sS'w+1=right'
p1899
I920
sS'w-1=primary'
p1900
I1737
sS'w-1=polling'
p1901
I1734
sS'w+2=put'
p1902
I1365
sS'w-2=month'
p1903
I2056
sS'w+2=or'
p1904
I1331
sS'w-2=enter'
p1905
I1957
sS'w+2=coalition'
p1906
I1112
sS'w+2=of'
p1907
I1324
sS'advmod=sometimes'
p1908
I21
sS'w-1=Gleneagles'
p1909
I1521
sS'w+2=on'
p1910
I1326
sS'w-2=forward'
p1911
I1979
sS'w+2=solve'
p1912
I1427
sS'amod=healthy'
p1913
I102
sS'amod=multinational'
p1914
I129
sS'w+1=so'
p1915
I932
sS'prep=into'
p1916
I673
sS'w-1=admission'
p1917
I1535
sS'w+2=turmoil'
p1918
I1474
sS'rcmod=complete'
p1919
I693
sS'w-2=during'
p1920
I1948
sS'w+2=chief'
p1921
I1108
sS'w+2=just'
p1922
I1271
sS'w-2=UN'
p1923
I1861
sS'conj=concept'
p1924
I290
sS'w+2=part'
p1925
I1341
sS'w+2=stability'
p1926
I1435
sS'w-2=formal'
p1927
I1978
sS'appos=second'
p1928
I243
sS'prep=without'
p1929
I682
sS'nn=denuclearization'
p1930
I478
sS'w+2=seawater'
p1931
I1405
sS'w-1=transformation'
p1932
I1805
sS'amod=nigerian'
p1933
I136
sS'w+2=from'
p1934
I1217
sS'w+2=two'
p1935
I1475
sS'w-1=approval'
p1936
I1545
sS'amod=usual'
p1937
I214
sS'amod=cleaning-up'
p1938
I41
sS'w-2=meat'
p1939
I2049
sS'w+1=result'
p1940
I918
sS'w-2=non-violent'
p1941
I2068
sS'w+2=may'
p1942
I1294
sS'w+2=halt'
p1943
I1226
sS'w-2=regular'
p1944
I2117
sS'poss=Party'
p1945
I650
sS'w-1=showcase'
p1946
I1771
sS'det=another'
p1947
I371
sS'appos=officer'
p1948
I235
sS'w-1=separate'
p1949
I1769
sS'w+2=review'
p1950
I1396
sS'w+2=regularize'
p1951
I1383
sS'w-2=fair'
p1952
I1969
sS'w-1=big'
p1953
I1552
sS'w-1=open'
p1954
I1717
sS'poss=Korea'
p1955
I647
sS'w-2=ugandan'
p1956
I2190
sS'w-1=status'
p1957
I1783
sS'w+2=retrieve'
p1958
I1391
sS'w+1=paperwork'
p1959
I906
sS'w-1=federal'
p1960
I1631
sS'partmod=involve'
p1961
I629
sS'w+2=trouble'
p1962
I1471
sS'w+2=disable'
p1963
I1152
sS'w-1=special'
p1964
I1778
sS'w+2=court'
p1965
I1130
sS'amod=free-election'
p1966
I92
sS'nn=adoption'
p1967
I448
sS'nn=E.U.'
p1968
I434
sS'w-1=compact'
p1969
I1570
sS'nsubj=institution'
p1970
I587
sS'w+2=voter'
p1971
I1488
sS'w+1=either'
p1972
I838
sS'rcmod=freeze'
p1973
I709
sS'w+2=emotional'
p1974
I1172
sS'expl=there'
p1975
I403
sS'amod=long-stalled'
p1976
I123
sS'nsubjpass=this'
p1977
I608
sS'w+2=another'
p1978
I1067
sS'w+2=underway'
p1979
I1479
sS'conj=staff'
p1980
I329
sS'w+2=people'
p1981
I1346
sS'w-1=count'
p1982
I1587
sS'nsubj=decisive'
p1983
I579
sS'amod=lawmaking'
p1984
I117
sS'w+1=tend'
p1985
I938
sS'w-1=learning'
p1986
I1683
sS'w-2=claim'
p1987
I1901
sS'rcmod=say'
p1988
I739
sS'w+1=refugee'
p1989
I914
sS'w+1=seek'
p1990
I924
sS'w+2=too'
p1991
I1467
sS'amod=multi-phase'
p1992
I128
sS'dep=hostile'
p1993
I353
sS'w-1=Kimberly'
p1994
I1524
sS'w-2=disrupt'
p1995
I1938
sS'partmod=sign'
p1996
I639
sS'w-1=six-party'
p1997
I1775
sS'w+1=one'
p1998
I904
sS'nn=AMANI'
p1999
I430
sS'w+2=help'
p2000
I1234
sS'w+1=despite'
p2001
I831
sS'parataxis=come'
p2002
I612
sS'num=#NUMBER#'
p2003
I611
sS'w-1=steady'
p2004
I1784
sS"w+2=''"
p2005
I980
sS'amod=draw'
p2006
I69
sS'w-1=this'
p2007
I1800
sS'w+2=four'
p2008
I1216
sS'conj=act'
p2009
I284
sS'w-2=state-by-state'
p2010
I2152
sS'partmod=take'
p2011
I641
sS'w-2=end'
p2012
I1951
sS'w+1=very'
p2013
I964
sS'advcl=renewal'
p2014
I3
sS'w+2=coffee'
p2015
I1113
sS'w-2=separate'
p2016
I2134
sS'amod=lethal'
p2017
I121
sS'w+2=arrive'
p2018
I1073
sS'w+2=need'
p2019
I1309
sS'w-1=multi-phase'
p2020
I1698
sS'w-1=payroll'
p2021
I1727
sS'w-1=appeal'
p2022
I1542
sS'conj=outcome'
p2023
I313
sS'w+2=interim'
p2024
I1259
sS'w-1=creation'
p2025
I1590
sS'rcmod=require'
p2026
I735
sS'nsubj=application'
p2027
I575
sS'w-2=incredibly'
p2028
I2007
sS'w-1=presidential'
p2029
I1735
sS'partmod=try'
p2030
I642
sS'w-2=when'
p2031
I2209
sS'infmod=hold'
p2032
I416
sS'w+1=January'
p2033
I777
sS'w-1=simple'
p2034
I1773
sS'w+2=step'
p2035
I1439
sS'partmod=succeed'
p2036
I640
sS'w-1=constitution'
p2037
I1574
sS'w+2=waste'
p2038
I1491
sS'w-2=latest'
p2039
I2029
sS'w-1=revolutionary'
p2040
I1762
sS'advcl=find'
p2041
I1
sS"w+1=''"
p2042
I763
sS'w-2=Company'
p2043
I1840
sS'w+1=involve'
p2044
I874
sS'w-1=production'
p2045
I1739
sS'w+2=pass'
p2046
I1343
sS'rcmod=go'
p2047
I711
sS'w+2=locally'
p2048
I1285
sS'w-2=restore'
p2049
I2125
sS'w+2=barrel'
p2050
I1080
sS'dobj=image'
p2051
I386
sS'w+2=negotiation'
p2052
I1310
sS'nn=confirmation'
p2053
I468
sS'w+2=pump'
p2054
I1364
sS'infmod=arrive'
p2055
I404
sS'mark=before'
p2056
I425
sS'w-1=govern'
p2057
I1644
sS'aux=must'
p2058
I254
sS'w-1=declaration'
p2059
I1596
sS'w-1=make'
p2060
I1691
sS'amod=vet'
p2061
I216
sS'w-1=inspection'
p2062
I1668
sS'rcmod=revive'
p2063
I737
sS'w-1=complicated'
p2064
I1572
sS'rcmod=prepare'
p2065
I727
sS'w+2=engagement'
p2066
I1176
sS'nn=planning'
p2067
I526
sS'w+1=play'
p2068
I910
sS'w-1=retirement'
p2069
I1758
sS'w-1=vet'
p2070
I1816
sS'w+1=three'
p2071
I949
sS'appos=period'
p2072
I238
sS'dep=both'
p2073
I345
sS'w-1=development'
p2074
I1602
sS'infmod=extradite'
p2075
I412
sS'w+2=human'
p2076
I1242
sS'w-2=bilateral'
p2077
I1890
sS'tmod=week'
p2078
I762
sS'w+2=healing'
p2079
I1231
sS'w-2=see'
p2080
I2133
sS'conj=Korea'
p2081
I281
sS'w+1=leave'
p2082
I884
sS'w+1=succeed'
p2083
I936
sS'amod=very'
p2084
I215
sS'nn=Party'
p2085
I440
sS'w+1=all'
p2086
I791
sS'appos=partner'
p2087
I236
sS'dep=request'
p2088
I362
sS'w+2=Palestinians'
p2089
I1036
sS'w-1=wasteful'
p2090
I1821
sS'w-2=potentially'
p2091
I2097
sS'w+2=outcome'
p2092
I1335
sS'w+2=information'
p2093
I1257
sS'w+2=any'
p2094
I1068
sS'w-2=slow-moving'
p2095
I2144
sS'nn=intelligence'
p2096
I508
sS'w-2=Nations'
p2097
I1850
sS'nsubj=enrichment'
p2098
I583
sS'w+2=neither'
p2099
I1311
sS'conj=plant'
p2100
I315
sS'w+2=and'
p2101
I1066
sS'tmod=#DATE#'
p2102
I761
sS'amod=two-stage'
p2103
I211
sS'w-2=national'
p2104
I2061
sS'partmod=aim'
p2105
I615
sS'w+2=apparently'
p2106
I1069
sS'nn=decolonization'
p2107
I476
sS'w+2=dramatically'
p2108
I1161
sS'w-2=term'
p2109
I2171
sS'w-1=vetting'
p2110
I1817
sS'w+2=no'
p2111
I1313
sS'conj=turnout'
p2112
I333
sS'w-1=military'
p2113
I1696
sS'w-2=regard'
p2114
I2115
sS'conj=oppose'
p2115
I312
sS'amod=rigorous'
p2116
I176
sS'w+2=illegal'
p2117
I1247
sS'w-2=say'
p2118
I2131
sS'w+2=the'
p2119
I1454
sS'prep=at'
p2120
I663
sS'w+1=itself'
p2121
I876
sS'prep=as'
p2122
I662
sS'w-2=laboratory'
p2123
I2027
sS'nn=nomination'
p2124
I520
sS'ccomp=establish'
p2125
I267
sS'w-1=operation'
p2126
I1718
sS'w+2=heavily'
p2127
I1233
sS'w-1=.'
p2128
I1513
sS'dep=begin'
p2129
I344
sS'w-1=,'
p2130
I1511
sS'w+2=material'
p2131
I1293
sS'w-1=guard'
p2132
I1648
sS'w+1=goods'
p2133
I856
sS'w-1=long-term'
p2134
I1689
sS'w-1=genuine'
p2135
I1642
sS'prep=through'
p2136
I679
sS'w-1=healing'
p2137
I1653
sS'w+2=one'
p2138
I1328
sS'w-1=averaging'
p2139
I1547
sS'w-1=vote-counting'
p2140
I1819
sS'w+2=here'
p2141
I1235
sS'amod=serious'
p2142
I182
sS'nn=U.N.'
p2143
I444
sS'conj=struggle'
p2144
I330
sS'w+2=such'
p2145
I1447
sS'w-2=peaceful'
p2146
I2090
sS'w-1=a'
p2147
I1531
sS'nn=custom'
p2148
I474
sS'w-2=defacto'
p2149
I1923
sS'w+2=Holger'
p2150
I1015
sS'w+2=normalize'
p2151
I1316
sS'w+2=sign'
p2152
I1421
sS'w-2=so'
p2153
I2146
sS'w+2=word'
p2154
I1503
sS'mark=as'
p2155
I423
sS'dep=agreement'
p2156
I343
sS'ccomp=think'
p2157
I272
sS'w-1=-rrb-'
p2158
I1512
sS'nn=doping'
p2159
I485
sS'w+1=again'
p2160
I788
sS'nn=Protocol'
p2161
I441
sS'w+2=they'
p2162
I1460
sS'rcmod=work'
p2163
I758
sS'w+1=must'
p2164
I894
sS'w+2=then'
p2165
I1456
sS'nn=impeachment'
p2166
I503
sS'w-1=previous'
p2167
I1736
sS'poss=country'
p2168
I653
sS'amod=egyptian'
p2169
I76
sS'w-2=once'
p2170
I2078
sS'w-2=drawn-out'
p2171
I1945
sS'w-2=move'
p2172
I2059
sS'w+1=peanut'
p2173
I907
sS'amod=composite'
p2174
I49
sS'amod=budgetary'
p2175
I40
sS'nn=commission'
p2176
I466
sS'w-1=cumbersome'
p2177
I1592
sS'w-1=current'
p2178
I1593
sS'nn=contracting'
p2179
I471
sS'w+2=soup'
p2180
I1431
sS'w-1=legislative'
p2181
I1685
sS'nsubj=mark'
p2182
I590
sS'w+2=expose'
p2183
I1192
sS'w+1=run'
p2184
I922
sS'w-1=ongoing'
p2185
I1715
sS'w-2=have'
p2186
I1992
sS'w+2=observe'
p2187
I1321
sS'w+1=step'
p2188
I934
sS'advmod=out'
p2189
I17
sS'ccomp=mean'
p2190
I270
sS'conj=sell'
p2191
I326
sS'w-2=start'
p2192
I2151
sS'w-2=help'
p2193
I1994
sS'w+1=after'
p2194
I787
sS'dobj=priest'
p2195
I397
sS'w-1=we'
p2196
I1822
sS'rcmod=over'
p2197
I726
sS'w+2=Africa'
p2198
I997
sS'w-1=budget'
p2199
I1555
sS'w-2=discuss'
p2200
I1935
sS'partmod=set'
p2201
I638
sS'w-1=negotiation'
p2202
I1703
sS'w+2=3'
p2203
I992
sS'rcmod=acknowledge'
p2204
I683
sS'w-1=classification'
p2205
I1562
sS'w+2=.'
p2206
I984
sS'w+2=,'
p2207
I981
sS'w+2=-'
p2208
I982
sS'mark=so'
p2209
I427
sS'amod=fair'
p2210
I82
sS'w-1=serious'
p2211
I1770
sS'w+2=decide'
p2212
I1137
sS'w-1=another'
p2213
I1541
sS'w-2=reluctant'
p2214
I2119
sS'w+2=collapse'
p2215
I1115
sS'w+2=I'
p2216
I1016
sS'w+2=Zimbabwe'
p2217
I1048
sS'advmod=usually'
p2218
I24
sS'w-1=driven-driven'
p2219
I1613
sS'nn=transfer'
p2220
I558
sS'nn=caucus'
p2221
I461
sS'w+1=but'
p2222
I814
sS'amod=rife'
p2223
I175
sS'dep=importantly'
p2224
I354
sS'rcmod=promise'
p2225
I729
sS'w-2=hinder'
p2226
I1995
sS'nn=committee'
p2227
I467
sS'w+2=a'
p2228
I1049
sS'w+2=Senate'
p2229
I1040
ssS'dtype'
p2230
cnumpy
float64
p2231
sS'feature_names_'
p2232
(lp2233
g1569
ag2041
ag409
ag2014
ag1585
ag632
ag768
ag997
ag522
ag943
ag1504
ag584
ag64
ag620
ag1251
ag1572
ag654
ag2189
ag1650
ag570
ag598
ag1908
ag1333
ag562
ag2218
ag1684
ag1314
ag1266
ag164
ag1762
ag593
ag1362
ag26
ag422
ag472
ag1581
ag1230
ag372
ag1708
ag1080
ag2175
ag1938
ag1182
ag1756
ag1011
ag1829
ag1833
ag1634
ag28
ag2174
ag907
ag1886
ag1438
ag711
ag1577
ag561
ag1241
ag1372
ag1808
ag186
ag1486
ag1458
ag160
ag1441
ag886
ag1895
ag1083
ag1651
ag117
ag2006
ag848
ag1038
ag221
ag1680
ag1365
ag658
ag2169
ag1573
ag1766
ag449
ag1097
ag1637
ag2210
ag1058
ag1421
ag1863
ag261
ag804
ag829
ag753
ag1689
ag1739
ag1966
ag123
ag1588
ag41
ag309
ag694
ag1719
ag1341
ag517
ag285
ag1913
ag1257
ag871
ag1727
ag650
ag1653
ag1339
ag401
ag1418
ag1672
ag118
ag1247
ag973
ag1825
ag1010
ag1984
ag1215
ag12
ag801
ag2017
ag316
ag1976
ag703
ag645
ag250
ag1523
ag1992
ag1914
ag971
ag1531
ag1683
ag1071
ag1312
ag315
ag1933
ag855
ag875
ag574
ag325
ag1583
ag674
ag330
ag1255
ag408
ag821
ag1420
ag949
ag1781
ag1568
ag1056
ag237
ag1625
ag1399
ag750
ag1049
ag288
ag701
ag1054
ag1317
ag1436
ag52
ag813
ag364
ag1801
ag495
ag1092
ag1844
ag1468
ag14
ag1848
ag1367
ag1601
ag116
ag2223
ag2116
ag1039
ag769
ag1290
ag612
ag1884
ag2142
ag1862
ag253
ag1018
ag543
ag96
ag338
ag482
ag260
ag656
ag464
ag799
ag297
ag844
ag1885
ag1821
ag1393
ag1520
ag1065
ag1285
ag836
ag760
ag1783
ag955
ag885
ag1170
ag1304
ag1830
ag1676
ag2103
ag1502
ag488
ag1937
ag2084
ag2061
ag794
ag894
ag526
ag1141
ag1743
ag427
ag178
ag542
ag941
ag975
ag1471
ag1112
ag1737
ag1712
ag418
ag1617
ag16
ag619
ag1948
ag2087
ag476
ag2072
ag1008
ag177
ag396
ag352
ag1928
ag837
ag816
ag1073
ag347
ag1668
ag639
ag141
ag1025
ag604
ag1724
ag2058
ag1643
ag1429
ag1763
ag1328
ag1467
ag946
ag601
ag326
ag515
ag152
ag1405
ag1169
ag2125
ag1237
ag596
ag2190
ag1630
ag2157
ag1647
ag304
ag1754
ag1194
ag311
ag819
ag1132
ag1206
ag2081
ag433
ag1802
ag2009
ag1108
ag1879
ag682
ag1701
ag357
ag1924
ag140
ag1098
ag1130
ag1199
ag243
ag1451
ag1629
ag181
ag425
ag1013
ag982
ag317
ag233
ag1556
ag1045
ag664
ag1613
ag667
ag130
ag721
ag770
ag2115
ag2023
ag823
ag2100
ag1819
ag896
ag1138
ag1262
ag343
ag368
ag845
ag1254
ag114
ag1079
ag2191
ag1125
ag1161
ag1980
ag2144
ag559
ag783
ag2112
ag301
ag1597
ag1128
ag1090
ag1040
ag208
ag1136
ag947
ag1591
ag2156
ag2129
ag2073
ag985
ag214
ag723
ag1324
ag1677
ag1605
ag938
ag1993
ag2224
ag1506
ag614
ag1868
ag1302
ag954
ag1526
ag1856
ag2088
ag1267
ag642
ag1661
ag1860
ag1536
ag1738
ag1400
ag1604
ag1947
ag259
ag10
ag255
ag710
ag1270
ag1244
ag173
ag566
ag1016
ag644
ag1631
ag328
ag1595
ag1147
ag2051
ag568
ag1163
ag32
ag73
ag1157
ag904
ag1236
ag1069
ag714
ag1487
ag2195
ag1782
ag1145
ag1412
ag125
ag590
ag1975
ag2055
ag1789
ag1750
ag1609
ag1476
ag831
ag520
ag106
ag2075
ag406
ag298
ag104
ag2032
ag25
ag461
ag1552
ag1858
ag1246
ag1725
ag2155
ag1460
ag2056
ag1253
ag2209
ag314
ag545
ag1999
ag407
ag159
ag1168
ag1968
ag1330
ag367
ag888
ag1607
ag1351
ag2085
ag2161
ag803
ag22
ag2143
ag1385
ag374
ag171
ag1967
ag477
ag105
ag1308
ag717
ag443
ag1411
ag1480
ag771
ag169
ag1077
ag499
ag850
ag2221
ag110
ag1084
ag1692
ag242
ag2176
ag2227
ag2053
ag727
ag1546
ag2179
ag1060
ag1575
ag2148
ag1029
ag2107
ag268
ag1930
ag1463
ag1148
ag841
ag1402
ag1845
ag358
ag2159
ag572
ag678
ag29
ag1632
ag1735
ag1514
ag1003
ag403
ag767
ag578
ag1682
ag108
ag307
ag995
ag789
ag1216
ag1197
ag2166
ag1220
ag269
ag1387
ag671
ag2096
ag1872
ag1134
ag1747
ag1881
ag1346
ag591
ag440
ag712
ag1576
ag1752
ag1898
ag2124
ag1723
ag1611
ag1571
ag1499
ag1807
ag2067
ag538
ag1589
ag115
ag506
ag1861
ag865
ag416
ag1239
ag256
ag1160
ag129
ag1110
ag1326
ag318
ag1124
ag1390
ag533
ag1376
ag739
ag172
ag68
ag707
ag1511
ag1745
ag953
ag1842
ag1720
ag725
ag1850
ag1156
ag206
ag2220
ag56
ag588
ag1408
ag1323
ag412
ag1446
ag765
ag1086
ag1192
ag1135
ag854
ag324
ag392
ag1434
ag345
ag1059
ag2027
ag519
ag511
ag420
ag1983
ag958
ag1733
ag197
ag2098
ag1838
ag1582
ag928
ag1970
ag1272
ag729
ag2182
ag540
ag1665
ag103
ag1847
ag1259
ag218
ag131
ag1360
ag1828
ag1340
ag1759
ag1896
ag1284
ag350
ag24
ag751
ag1129
ag1977
ag417
ag925
ag2003
ag2002
ag1094
ag216
ag2105
ag873
ag284
ag209
ag883
ag1835
ag1610
ag213
ag967
ag1231
ag1137
ag134
ag292
ag964
ag1961
ag1219
ag1515
ag143
ag1416
ag1050
ag1088
ag895
ag1508
ag2201
ag1996
ag2036
ag2011
ag2030
ag187
ag402
ag835
ag65
ag1955
ag1227
ag507
ag1945
ag1528
ag983
ag2168
ag299
ag687
ag184
ag1127
ag666
ag290
ag638
ag513
ag2122
ag2120
ag905
ag1698
ag582
ag1695
ag1705
ag1859
ag1089
ag1217
ag155
ag1916
ag380
ag1518
ag1521
ag505
ag1694
ag2136
ag668
ag1433
ag1929
ag2204
ag429
ag962
ag1264
ag156
ag1714
ag361
ag1369
ag1164
ag524
ag1919
ag85
ag1012
ag426
ag742
ag438
ag334
ag60
ag1722
ag424
ag67
ag1295
ag168
ag1729
ag1477
ag58
ag1973
ag1503
ag2047
ag782
ag276
ag1524
ag913
ag858
ag275
ag1265
ag1201
ag1865
ag1275
ag1565
ag1472
ag1348
ag672
ag2197
ag2065
ag842
ag2225
ag1732
ag1398
ag1563
ag1731
ag1320
ag2026
ag1423
ag2063
ag1478
ag1988
ag1564
ag404
ag244
ag1596
ag240
ag859
ag287
ag101
ag1261
ag1857
ag480
ag1185
ag78
ag503
ag1414
ag942
ag1614
ag617
ag2163
ag354
ag719
ag2102
ag2078
ag2042
ag1102
ag1101
ag777
ag1482
ag149
ag1103
ag113
ag1066
ag359
ag1107
ag1109
ag212
ag1111
ag2033
ag500
ag548
ag1618
ag1409
ag1120
ag1117
ag393
ag1377
ag571
ag2194
ag2160
ag1235
ag66
ag2086
ag957
ag1106
ag1780
ag887
ag36
ag1489
ag23
ag1296
ag700
ag1299
ag1890
ag1580
ag1475
ag1401
ag1671
ag532
ag462
ag718
ag30
ag305
ag1529
ag102
ag2222
ag1474
ag745
ag1278
ag580
ag1600
ag1432
ag1455
ag708
ag1742
ag960
ag1166
ag761
ag1349
ag89
ag1034
ag437
ag2001
ag1784
ag546
ag1122
ag1598
ag498
ag551
ag1972
ag1770
ag1462
ag190
ag1118
ag398
ag466
ag1798
ag1036
ag95
ag661
ag1796
ag1361
ag1608
ag1067
ag1055
ag381
ag981
ag2133
ag428
ag822
ag616
ag918
ag1811
ag192
ag613
ag936
ag1593
ag764
ag386
ag1294
ag1748
ag1769
ag388
ag840
ag1490
ag2044
ag390
ag2121
ag605
ag142
ag1843
ag1497
ag126
ag1091
ag1510
ag2082
ag232
ag1852
ag1057
ag924
ag430
ag660
ag405
ag377
ag1342
ag2164
ag1334
ag959
ag1204
ag72
ag385
ag1493
ag903
ag75
ag988
ag1998
ag79
ag1959
ag2173
ag1744
ag1675
ag2068
ag411
ag109
ag251
ag1989
ag1027
ag1391
ag9
ag1940
ag1818
ag1899
ag705
ag2184
ag861
ag1990
ag1717
ag222
ag758
ag762
ag61
ag1500
ag872
ag1915
ag696
ag2188
ag1507
ag2083
ag749
ag1985
ag929
ag589
ag446
ag100
ag1203
ag1338
ag1210
ag1484
ag1213
ag1248
ag2071
ag201
ag1461
ag828
ag1158
ag1151
ag877
ag917
ag581
ag802
ag1139
ag528
ag583
ag1002
ag1353
ag2013
ag961
ag1322
ag219
ag1311
ag1713
ag980
ag460
ag378
ag1014
ag119
ag1542
ag724
ag154
ag1871
ag179
ag2005
ag2207
ag2208
ag628
ag2206
ag474
ag876
ag1824
ag1823
ag1822
ag1820
ag1827
ag2203
ag153
ag552
ag544
ag302
ag2198
ag1190
ag371
ag1076
ag1289
ag257
ag496
ag176
ag1496
ag1133
ag333
ag728
ag772
ag1469
ag1473
ag529
ag1550
ag1072
ag2150
ag2216
ag1877
ag1028
ag1024
ag245
ag1530
ag785
ag1149
ag915
ag731
ag1726
ag1681
ag990
ag321
ag555
ag1181
ag145
ag1100
ag44
ag439
ag2089
ag1214
ag1439
ag478
ag2229
ag1753
ag1640
ag1407
ag508
ag1035
ag1245
ag1846
ag2217
ag2228
ag1652
ag1159
ag1242
ag746
ag832
ag697
ag1332
ag663
ag194
ag1121
ag1291
ag1256
ag124
ag1544
ag565
ag1767
ag2101
ag1978
ag2094
ag2106
ag1355
ag225
ag595
ag2018
ag1866
ag1728
ag1864
ag57
ag787
ag239
ag2050
ag1755
ag281
ag40
ag203
ag514
ag1162
ag45
ag575
ag1657
ag541
ag296
ag969
ag210
ag611
ag889
ag17
ag1751
ag1293
ag1841
ag1428
ag1656
ag880
ag1444
ag198
ag76
ag1785
ag1702
ag1921
ag1660
ag810
ag456
ag1906
ag2015
ag849
ag2215
ag927
ag1776
ag1673
ag1616
ag1116
ag1211
ag826
ag1492
ag49
ag1721
ag752
ag1047
ag1875
ag1313
ag1965
ag795
ag808
ag1062
ag436
ag1319
ag1300
ag2212
ag675
ag1548
ag930
ag432
ag375
ag1628
ag1378
ag737
ag1549
ag1483
ag587
ag379
ag1208
ag1276
ag1963
ag1703
ag1553
ag1696
ag1516
ag356
ag1442
ag906
ag1316
ag2108
ag720
ag766
ag1615
ag444
ag384
ag189
ag643
ag1537
ag649
ag820
ag1974
ag1638
ag1797
ag1558
ag2066
ag868
ag191
ag602
ag1777
ag673
ag1153
ag1403
ag1539
ag704
ag1768
ag217
ag1883
ag1305
ag553
ag97
ag2183
ag869
ag351
ag952
ag84
ag90
ag1620
ag618
ag615
ag1710
ag1555
ag556
ag33
ag634
ag231
ag1645
ag1031
ag1277
ag229
ag681
ag1621
ag146
ag916
ag397
ag2008
ag1934
ag1674
ag549
ag1538
ag112
ag400
ag1622
ag121
ag944
ag1943
ag71
ag1627
ag834
ag262
ag2079
ag265
ag2127
ag2000
ag2141
ag863
ag979
ag349
ag679
ag165
ag1761
ag2076
ag188
ag699
ag1178
ag627
ag2117
ag1525
ag695
ag1897
ag629
ag1869
ag677
ag62
ag554
ag69
ag2093
ag127
ag2024
ag19
ag530
ag490
ag1509
ag1263
ag1495
ag107
ag1252
ag1557
ag893
ag1570
ag1922
ag686
ag1283
ag1839
ag329
ag974
ag1223
ag77
ag294
ag948
ag910
ag1298
ag144
ag394
ag2048
ag1207
ag1364
ag680
ag641
ag1368
ag39
ag881
ag2131
ag1942
ag1043
ag1892
ag435
ag509
ag1831
ag1221
ag608
ag236
ag1410
ag547
ag1498
ag709
ag348
ag283
ag2019
ag2052
ag2099
ag577
ag2111
ag996
ag339
ag2151
ag912
ag1258
ag1561
ag853
ag2187
ag521
ag573
ag1907
ag50
ag1910
ag327
ag2138
ag1849
ag1115
ag1904
ag665
ag978
ag450
ag2092
ag1512
ag878
ag636
ag1626
ag901
ag1925
ag1392
ag2046
ag599
ag1690
ag1981
ag1041
ag310
ag1894
ag1452
ag1228
ag220
ag1658
ag1758
ag648
ag1730
ag992
ag814
ag1457
ag653
ag716
ag1381
ag247
ag2054
ag1902
ag807
ag748
ag550
ag991
ag879
ag1888
ag691
ag1592
ag48
ag1419
ag1449
ag1297
ag856
ag1602
ag148
ag1187
ag185
ag1951
ag383
ag442
ag1225
ag1388
ag743
ag857
ag15
ag1958
ag1870
ag410
ag1880
ag1816
ag1950
ag1532
ag1791
ag494
ag59
ag273
ag797
ag730
ag55
ag1931
ag1654
ag1578
ag158
ag293
ag631
ag1413
ag1415
ag1287
ag162
ag909
ag1453
ag83
ag308
ag1804
ag1180
ag2152
ag1873
ag1837
ag1840
ag621
ag1303
ag1912
ag939
ag491
ag1250
ag2180
ag847
ag1772
ag884
ag1926
ag977
ag137
ag525
ag2035
ag1764
ag793
ag1366
ag174
ag1344
ag1517
ag838
ag2145
ag652
ag774
ag223
ag1193
ag1540
ag1543
ag2119
ag1389
ag2165
ag1612
ag82
ag1795
ag2162
ag300
ag864
ag475
ag715
ag306
ag1177
ag1991
ag493
ag459
ag1664
ag1962
ag1641
ag1519
ag1918
ag1935
ag211
ag195
ag713
ag1979
ag1404
ag471
ag147
ag811
ag1687
ag736
ag852
ag1200
ag1971
ag987
ag303
ag2038
ag689
ag238
ag1741
ag773
ag1853
ag968
ag780
ag1202
ag1891
ag1878
ag1639
ag2154
ag1810
ag465
ag815
ag970
ag93
ag1350
ag1329
ag2130
ag2158
ag2128
ag335
ag1152
ag965
ag1325
ag932
ag1375
ag11
ag1909
ag227
ag585
ag1994
ag908
ag1191
ag150
ag900
ag414
ag1757
ag2147
ag1218
ag1688
ag1706
ag1917
ag270
ag809
ag523
ag469
ag755
ag2213
ag2022
ag733
ag1380
ag1936
ag1485
ag2139
ag1232
ag606
ag1718
ag594
ag1953
ag1352
ag205
ag2199
ag1440
ag1715
ag457
ag1165
ag669
ag1189
ag2205
ag1195
ag1155
ag647
ag1379
ag1834
ag784
ag806
ag1969
ag1642
ag2064
ag1574
ag2037
ag1659
ag830
ag1805
ag763
ag1736
ag447
ag1119
ag1535
ag1812
ag972
ag1174
ag91
ag1982
ag1017
ag467
ag2025
ag1212
ag2177
ag2178
ag1363
ag1114
ag2059
ag1447
ag1037
ag817
ag200
ag597
ag2074
ag898
ag355
ag21
ag1233
ag1048
ag122
ag1760
ag182
ag246
ag792
ag2219
ag264
ag454
ag497
ag27
ag163
ag537
ag34
ag1188
ag685
ag180
ag655
ag463
ag370
ag1004
ag342
ag951
ag579
ag1960
ag1815
ag1648
ag1260
ag1175
ag1397
ag362
ag1746
ag510
ag1268
ag74
ag2135
ag633
ag2057
ag1448
ag1196
ag1095
ag2132
ag610
ag135
ag622
ag1064
ag2137
ag434
ag1327
ag458
ag8
ag994
ag956
ag899
ag1019
ag779
ag1826
ag470
ag1154
ag1131
ag818
ag2062
ag1070
ag1052
ag921
ag331
ag1238
ag1183
ag1082
ag473
ag539
ag1633
ag738
ag1445
ag1374
ag1479
ag1986
ag1806
ag2181
ag993
ag1394
ag781
ag2134
ag1882
ag2060
ag1545
ag170
ag81
ag249
ag2113
ag111
ag2020
ag536
ag1186
ag1427
ag1775
ag2202
ag1280
ag43
ag1357
ag1562
ag839
ag226
ag1666
ag452
ag1554
ag1104
ag395
ag2185
ag1749
ag1954
ag2126
ag399
ag1417
ag1623
ag732
ag353
ag734
ag1172
ag1331
ag2021
ag369
ag37
ag759
ag1619
ag1006
ag484
ag1901
ag2029
ag2167
ag1900
ag726
ag2045
ag1679
ag468
ag431
ag688
ag1234
ag487
ag133
ag1522
ag1053
ag278
ag796
ag1443
ag1422
ag870
ag373
ag1310
ag1354
ag937
ag2069
ag138
ag698
ag332
ag2040
ag1274
ag1126
ag1373
ag167
ag1787
ag274
ag1949
ag2211
ag1946
ag132
ag2034
ag1459
ag1997
ag1384
ag1889
ag1964
ag1709
ag1560
ag914
ag1814
ag1957
ag2004
ag1222
ag1788
ag86
ag684
ag1599
ag1068
ag651
ag984
ag1697
ag1123
ag790
ag1454
ag483
ag1466
ag486
ag2007
ag1142
ag166
ag139
ag157
ag1932
ag1075
ag786
ag798
ag527
ag1406
ag1765
ag867
ag272
ag706
ag258
ag2070
ag2110
ag1494
ag2140
ag920
ag2090
ag2196
ag1606
ag623
ag1876
ag53
ag1321
ag1470
ag812
ag98
ag1359
ag1386
ag1021
ag1022
ag592
ag693
ag1023
ag1813
ag282
ag2043
ag1430
ag1669
ag1624
ag1655
ag1144
ag1464
ag1774
ag1809
ag286
ag2097
ag1315
ag267
ag626
ag624
ag1335
ag363
ag560
ag18
ag1771
ag1867
ag1923
ag1773
ag683
ag1184
ag87
ag1700
ag1383
ag535
ag1551
ag827
ag1855
ag88
ag516
ag1176
ag453
ag1318
ag485
ag950
ag248
ag252
ag1590
ag741
ag922
ag874
ag320
ag1337
ag1854
ag1286
ag1269
ag2077
ag228
ag1099
ag263
ag1051
ag1678
ag1382
ag365
ag1061
ag603
ag51
ag1987
ag1527
ag207
ag1046
ag1533
ag919
ag1431
ag1288
ag1635
ag1711
ag1586
ag1026
ag1800
ag230
ag757
ag690
ag833
ag843
ag1803
ag1205
ag1786
ag1644
ag2149
ag183
ag926
ag788
ag637
ag1716
ag455
ag1893
ag1336
ag1667
ag986
ag204
ag2200
ag576
ag42
ag1995
ag175
ag1033
ag196
ag389
ag199
ag564
ag2171
ag1081
ag266
ag1920
ag1685
ag1792
ag2012
ag911
ag215
ag1793
ag1566
ag504
ag1905
ag360
ag128
ag1371
ag1636
ag722
ag313
ag1301
ag1425
ag1358
ag1488
ag1093
ag1952
ag1167
ag1198
ag851
ag1740
ag754
ag1044
ag558
ag421
ag1927
ag1911
ag563
ag1707
ag448
ag933
ag235
ag161
ag1426
ag778
ag1547
ag1240
ag1015
ag702
ag2186
ag492
ag2193
ag2226
ag1465
ag860
ag1559
ag1437
ag1042
ag1226
ag1173
ag337
ag1146
ag1662
ag340
ag2028
ag1271
ag1345
ag640
ag756
ag312
ag289
ag1778
ag662
ag1579
ag35
ag1501
ag344
ag775
ag94
ag136
ag38
ag935
ag940
ag1435
ag2123
ag1790
ag2039
ag63
ag1001
ag998
ag600
ag1370
ag366
ag607
ag1005
ag1085
ag387
ag670
ag413
ag47
ag291
ag1513
ag54
ag1063
ag635
ag800
ag1939
ag846
ag567
ag1851
ag892
ag1670
ag1534
ag1903
ag1150
ag1450
ag2172
ag1020
ag2104
ag279
ag882
ag1113
ag1395
ag531
ag1887
ag1941
ag1030
ag20
ag1343
ag151
ag976
ag999
ag557
ag254
ag1279
ag2170
ag625
ag1143
ag659
ag791
ag963
ag646
ag1282
ag805
ag46
ag1306
ag323
ag2146
ag415
ag897
ag31
ag1078
ag1587
ag866
ag2091
ag346
ag280
ag825
ag1356
ag1074
ag336
ag234
ag1292
ag1179
ag1096
ag80
ag1105
ag989
ag1646
ag1309
ag224
ag518
ag2114
ag481
ag1944
ag322
ag2214
ag512
ag391
ag931
ag202
ag1396
ag2049
ag479
ag1686
ag1307
ag1424
ag1171
ag2118
ag1567
ag2080
ag2016
ag740
ag1491
ag1347
ag1603
ag586
ag890
ag1649
ag120
ag1224
ag2095
ag277
ag2153
ag501
ag824
ag676
ag376
ag2192
ag2010
ag1794
ag534
ag1691
ag1249
ag692
ag657
ag92
ag1799
ag1032
ag382
ag776
ag735
ag1229
ag945
ag13
ag271
ag747
ag1541
ag2109
ag862
ag99
ag609
ag1505
ag1693
ag1087
ag891
ag1832
ag1273
ag744
ag1874
ag451
ag489
ag1209
ag1009
ag193
ag445
ag923
ag1956
ag423
ag419
ag1000
ag1699
ag241
ag1594
ag1817
ag902
ag502
ag1836
ag1281
ag1704
ag1007
ag1779
ag1481
ag569
ag630
ag441
ag2031
ag341
ag1584
ag70
ag1663
ag1734
ag319
ag295
ag934
ag966
ag1243
ag1140
ag1456
asS'separator'
p2234
S'='
sS'sparse'
p2235
I01
sb.