ccopy_reg
_reconstructor
p1
(csklearn.feature_extraction.dict_vectorizer
DictVectorizer
p2
c__builtin__
object
p3
NtRp4
(dp5
S'vocabulary_'
p6
(dp7
S'w-1=she'
p8
I75
sS'w+2=from'
p9
I54
sS'w-2=people'
p10
I89
sS'nsubj=Sembene'
p11
I22
sS'nsubj=child'
p12
I23
sS'advmod=well'
p13
I6
sS'w-2=when'
p14
I92
sS'w-2=Emad'
p15
I81
sS'nsubj=who'
p16
I25
sS'w+1=devotee'
p17
I41
sS'w-1=of'
p18
I73
sS'prep=than'
p19
I34
sS'w-1=to'
p20
I78
sS'w+2=out'
p21
I59
sS'w+2=anger'
p22
I53
sS'w-1=pretty'
p23
I74
sS'dobj=oh'
p24
I20
sS'w-2=one'
p25
I88
sS'w-2=.'
p26
I80
sS'w-1=el-Kabir'
p27
I67
sS'cop=be'
p28
I17
sS'amod=long'
p29
I9
sS'w-2=with'
p30
I93
sS'w+1=with'
p31
I48
sS'w-2=easier'
p32
I86
sS'advmod=now'
p33
I5
sS'w+2=mercy'
p34
I57
sS'advmod=just'
p35
I4
sS'w+2=the'
p36
I62
sS'prep=at'
p37
I29
sS'w+1=at'
p38
I39
sS'w-2=,'
p39
I79
sS'nsubj=people'
p40
I24
sS'w-1=be'
p41
I66
sS'w-1=,'
p42
I64
sS'w-2=thousand'
p43
I91
sS'w-2=I'
p44
I82
sS'w-2=hour'
p45
I87
sS'advcl=cry'
p46
I1
sS'advcl=come'
p47
I0
sS'advmod=when'
p48
I7
sS'w+2=to'
p49
I63
sS'w+2=funding'
p50
I55
sS'advcl=sodomize'
p51
I3
sS'w-2=Sembene'
p52
I83
sS'w-1=they'
p53
I77
sS'prep=for'
p54
I30
sS'w-1=a'
p55
I65
sS'num=#NUMBER#'
p56
I26
sS'w-1=he'
p57
I69
sS'w-1=long'
p58
I71
sS'amod=female'
p59
I8
sS'w+2=pain'
p60
I60
sS'prep=about'
p61
I28
sS'complm=that'
p62
I13
sS'w+2=alarm'
p63
I52
sS'w+2=Russia'
p64
I50
sS'prep=to'
p65
I35
sS'w-1=six-years-old'
p66
I76
sS'cc=and'
p67
I12
sS'w+1=`'
p68
I37
sS'w-2=that'
p69
I90
sS'w-1=just'
p70
I70
sS'dobj=instruction'
p71
I19
sS'w+1=like'
p72
I46
sS'advcl=set'
p73
I2
sS'w+2=she'
p74
I61
sS'prep=in'
p75
I31
sS'w+1=for'
p76
I42
sS'w+1=in'
p77
I43
sS'w-1=female'
p78
I68
sS'xcomp=unreliable'
p79
I94
sS'dobj=devotee'
p80
I18
sS'nsubj=#PRP#'
p81
I21
sS'w+1=about'
p82
I38
sS'w+1=instruction'
p83
I44
sS'conj=slow'
p84
I16
sS'conj=leave'
p85
I14
sS'aux=to'
p86
I11
sS'conj=make'
p87
I15
sS'prep=like'
p88
I33
sS'w+1=.'
p89
I36
sS'w+2=.'
p90
I49
sS'w+2=oh'
p91
I58
sS'w+1=come'
p92
I40
sS'partmod=come'
p93
I27
sS'prep=into'
p94
I32
sS'w+1=protester'
p95
I47
sS'w+2=line'
p96
I56
sS'w+1=into'
p97
I45
sS'w-1=now'
p98
I72
sS'w-2=be'
p99
I84
sS'w-2=bloodcurdle'
p100
I85
sS'aux=be'
p101
I10
sS'w+2=`'
p102
I51
ssS'dtype'
p103
cnumpy
float64
p104
sS'feature_names_'
p105
(lp106
g47
ag46
ag73
ag51
ag35
ag33
ag13
ag48
ag59
ag29
ag101
ag86
ag67
ag62
ag85
ag87
ag84
ag28
ag80
ag71
ag24
ag81
ag11
ag12
ag40
ag16
ag56
ag93
ag61
ag37
ag54
ag75
ag94
ag88
ag19
ag65
ag89
ag68
ag82
ag38
ag92
ag17
ag76
ag77
ag83
ag97
ag72
ag95
ag31
ag90
ag64
ag102
ag63
ag22
ag9
ag50
ag96
ag34
ag91
ag21
ag60
ag74
ag36
ag49
ag42
ag55
ag41
ag27
ag78
ag57
ag70
ag58
ag98
ag18
ag23
ag8
ag66
ag53
ag20
ag39
ag26
ag15
ag44
ag52
ag99
ag100
ag32
ag45
ag25
ag10
ag69
ag43
ag14
ag30
ag79
asS'separator'
p107
S'='
sS'sparse'
p108
I01
sb.