ccopy_reg
_reconstructor
p1
(csklearn.feature_extraction.dict_vectorizer
DictVectorizer
p2
c__builtin__
object
p3
NtRp4
(dp5
S'vocabulary_'
p6
(dp7
S'advmod=briefly'
p8
I6
sS'prep=before'
p9
I138
sS'w+2=newly'
p10
I249
sS'w+2=headquarters'
p11
I238
sS'w-2=people'
p12
I387
sS'dobj=percent'
p13
I71
sS'dobj=much'
p14
I66
sS'w-2=house'
p15
I370
sS'w+2=but'
p16
I222
sS'w-2=Colombo'
p17
I335
sS'w-2=islamic'
p18
I376
sS'w-2=MONUC'
p19
I339
sS'w-2=insurgent'
p20
I373
sS'w+2=camp'
p21
I224
sS'w-2=they'
p22
I404
sS'prep=than'
p23
I146
sS'prep=by'
p24
I139
sS'w-2=Gallucci'
p25
I338
sS'nsubj=rebel'
p26
I106
sS'w-2=country'
p27
I360
sS'w+1=that'
p28
I190
sS'w-2=not'
p29
I384
sS'dobj=post'
p30
I74
sS'w+2=forest'
p31
I235
sS'w+1=than'
p32
I189
sS'w-2=from'
p33
I367
sS'prep=upon'
p34
I147
sS'dobj=territory'
p35
I79
sS'w-1=will'
p36
I327
sS'nsubjpass=news'
p37
I124
sS'w-2=seven'
p38
I395
sS'w-1=be'
p39
I288
sS'w+2=mosque'
p40
I247
sS'w-1=troops'
p41
I324
sS'w-2=the'
p42
I402
sS'w-2=Somaliland'
p43
I343
sS'w+1=just'
p44
I173
sS'w+2=highest'
p45
I240
sS'w+2=country'
p46
I226
sS'w-2=news'
p47
I383
sS'w+2=special'
p48
I264
sS'nsubj=headquarters'
p49
I100
sS'w-1=have'
p50
I298
sS'w-2=something'
p51
I397
sS'w+2=three'
p52
I273
sS'w+2=in'
p53
I242
sS'nsubj=Germany'
p54
I89
sS'w-2=unfit'
p55
I407
sS'dobj=position'
p56
I73
sS'w+2=geographic'
p57
I236
sS'nsubjpass=lodge'
p58
I123
sS'w+2=Puntland'
p59
I207
sS'w-2=all'
p60
I347
sS'nsubjpass=Europe'
p61
I119
sS'nsubjpass=number'
p62
I125
sS'prep=about'
p63
I134
sS'aux=can'
p64
I18
sS'complm=that'
p65
I29
sS'dobj=Hungary'
p66
I41
sS'dobj=area'
p67
I45
sS'nsubj=head-of-state'
p68
I99
sS'dobj=month'
p69
I64
sS'dobj=north'
p70
I67
sS'w+2=by'
p71
I223
sS'w+1=the'
p72
I191
sS'xcomp=protest'
p73
I413
sS'w+2=north'
p74
I251
sS'w+2=be'
p75
I219
sS'nsubj=Israel'
p76
I90
sS'w-2=group'
p77
I368
sS'nsubj=West'
p78
I93
sS'w+1=those'
p79
I192
sS'nsubjpass=#PRP#'
p80
I117
sS'w+2=squatter'
p81
I265
sS'prep=in'
p82
I142
sS'aux=would'
p83
I22
sS'w+1=for'
p84
I167
sS'w+2=still'
p85
I266
sS'partmod=know'
p86
I132
sS'advmod=largely'
p87
I10
sS'w-1=from'
p88
I296
sS'dep=operate'
p89
I36
sS'w-1=still'
p90
I317
sS'w-1=Israel'
p91
I281
sS'ccomp=continue'
p92
I27
sS'w+2=for'
p93
I233
sS'w+2=6,300-meter-high'
p94
I204
sS'w-1=illegally'
p95
I302
sS'nsubj=that'
p96
I111
sS'w-1=it'
p97
I305
sS'w+2=even'
p98
I231
sS'dep=and'
p99
I35
sS'w-2=site'
p100
I396
sS'dobj=which'
p101
I82
sS'w-2=Tsvangirai'
p102
I345
sS'w-1=individual'
p103
I304
sS'w-2=indian'
p104
I372
sS'w+2=since'
p105
I262
sS'w-1=the'
p106
I321
sS'advmod=likely'
p107
I11
sS'w-2=building'
p108
I356
sS'w+2=house'
p109
I241
sS'w+2=lot'
p110
I244
sS'w-1=whoever'
p111
I326
sS'w-2=militant'
p112
I382
sS'dobj=village'
p113
I81
sS'w-2=which'
p114
I409
sS'w+2=east'
p115
I229
sS'w-2=protester'
p116
I389
sS'dobj=Sake'
p117
I43
sS'nsubj=troops'
p118
I112
sS'nsubjpass=plateau'
p119
I127
sS'w+2=non-arab'
p120
I250
sS'w+2=bent'
p121
I220
sS'dobj=country'
p122
I49
sS'dobj=factory'
p123
I52
sS'w-2=Russian'
p124
I341
sS'dobj=artery'
p125
I46
sS'prep=along'
p126
I135
sS'nsubj=who'
p127
I113
sS'w-1=worker'
p128
I329
sS'w-2=of'
p129
I385
sS'w+2=region'
p130
I259
sS'dobj=frequency'
p131
I55
sS'w-1=to'
p132
I323
sS'dobj=Mosque'
p133
I42
sS'w+2=11.2'
p134
I201
sS'dobj=#PRP#'
p135
I39
sS'w+1=upon'
p136
I194
sS'w+1=you'
p137
I197
sS'w+1=western'
p138
I195
sS'nsubj=soldier'
p139
I107
sS'w+2=month'
p140
I246
sS'w-2=rebel'
p141
I390
sS'w+2=Siachen'
p142
I210
sS'w+2=earth'
p143
I228
sS'w-2=plateau'
p144
I388
sS'w+1=at'
p145
I163
sS'nsubjpass=cattle'
p146
I121
sS'w+2=Red'
p147
I209
sS'w+2=force'
p148
I234
sS'w-1=currently'
p149
I292
sS'nsubjpass=that'
p150
I128
sS'w-2=Thai'
p151
I344
sS'w-1=would'
p152
I330
sS'w-1=can'
p153
I291
sS'tmod=today'
p154
I150
sS'w-1=likely'
p155
I308
sS'w-1=building'
p156
I290
sS'w-1=previously'
p157
I312
sS'w-1=territory'
p158
I319
sS'advmod=when'
p159
I15
sS'w+1=territory'
p160
I188
sS'w-2=Forces'
p161
I337
sS'prep=for'
p162
I141
sS'attr=number'
p163
I16
sS'nsubj=force'
p164
I98
sS'w+1=Friday'
p165
I156
sS'w-1=force'
p166
I293
sS'w+2=as'
p167
I218
sS'w-1=in'
p168
I303
sS'auxpass=be'
p169
I23
sS'w-2=manage'
p170
I380
sS'w-2=fit'
p171
I365
sS'dobj=region'
p172
I77
sS'advmod=still'
p173
I14
sS'w-1=fully'
p174
I297
sS'nsubj=#NUMBER#'
p175
I85
sS'w-2=fight'
p176
I364
sS'w+1=much'
p177
I177
sS"w-1=''"
p178
I276
sS'w+1=my'
p179
I178
sS'dobj=lot'
p180
I63
sS'dobj=hilltop'
p181
I59
sS'w+2=Israel'
p182
I205
sS'w-1=remain'
p183
I315
sS'w-2=Nazi'
p184
I340
sS'dobj=hectare'
p185
I58
sS'nsubj=building'
p186
I95
sS'w-2=land'
p187
I378
sS'w+2=or'
p188
I254
sS'w+1=different'
p189
I165
sS"w-2=''"
p190
I331
sS'w+2=of'
p191
I252
sS'w-2=Europe'
p192
I336
sS'w-2=ex-interahamwe'
p193
I363
sS'w-1=task'
p194
I318
sS'w-1=and'
p195
I287
sS'w-1=headquarters'
p196
I299
sS'dobj=library'
p197
I62
sS'w+2=area'
p198
I217
sS'nsubj=staff'
p199
I108
sS'w-2=then'
p200
I403
sS'w-2=same'
p201
I392
sS'w-2=interest'
p202
I374
sS'w-2=capture'
p203
I359
sS'w-2=troops'
p204
I405
sS'w+2=senior-most'
p205
I261
sS'w+1=position'
p206
I181
sS'w-2=armenian'
p207
I351
sS'w-2=eco-system'
p208
I362
sS'partmod=agree'
p209
I131
sS'w+2=anti-yeltsin'
p210
I216
sS'dobj=earth'
p211
I51
sS'w-2=anti-government'
p212
I350
sS'w+1=land'
p213
I174
sS'nsubj=insurgent'
p214
I102
sS'dobj=station'
p215
I78
sS'w-1=militant'
p216
I309
sS'w+1=since'
p217
I183
sS'w-2=midnight'
p218
I381
sS'w-1=frequency'
p219
I295
sS'conj=walk'
p220
I34
sS'w-1=they'
p221
I322
sS'aux=will'
p222
I21
sS'nsubjpass=building'
p223
I120
sS'dobj=place'
p224
I72
sS'advmod=already'
p225
I4
sS'dobj=half'
p226
I57
sS'nsubj=decision'
p227
I96
sS'w-1=against'
p228
I285
sS'w+2=hectare'
p229
I239
sS'w+2=another'
p230
I215
sS'prep=with'
p231
I148
sS'w+2=building'
p232
I221
sS'dobj=office'
p233
I68
sS'w-2=still'
p234
I398
sS'conj=clash'
p235
I30
sS'dobj=force'
p236
I53
sS'w+2=presidency'
p237
I257
sS'w-1=Ninjas'
p238
I282
sS'w-2=in'
p239
I371
sS'nsubj=administrator'
p240
I94
sS'conj=put'
p241
I32
sS'w-1=woman'
p242
I328
sS'nsubjpass=Bank'
p243
I118
sS'w+1=hilltop'
p244
I170
sS'nsubj=militant'
p245
I104
sS'w-2=parliament'
p246
I386
sS'w-2=it'
p247
I377
sS'w+1=one'
p248
I179
sS'w+2=than'
p249
I268
sS'w-2=already'
p250
I348
sS'advmod=illegally'
p251
I9
sS'w+2=diplomat'
p252
I227
sS'w+1=state-owned'
p253
I187
sS'nsubj=task'
p254
I110
sS'w+2=stranger'
p255
I267
sS'advmod=also'
p256
I5
sS'w+2=popular'
p257
I256
sS'w-2=student'
p258
I399
sS'nsubj=MONUC'
p259
I91
sS'w-2=woman'
p260
I412
sS'dep=some'
p261
I37
sS'nsubj=home'
p262
I101
sS'w+2=peninsula'
p263
I255
sS'w-2=call'
p264
I358
sS'w-2=have'
p265
I369
sS'cc=and'
p266
I25
sS'nsubj=student'
p267
I109
sS'advmod=currently'
p268
I7
sS'w+1=by'
p269
I164
sS"w+2='s"
p270
I198
sS'w-2=when'
p271
I408
sS'w-1=Guinea-Bissau'
p272
I280
sS'w-1=home'
p273
I300
sS'w+1=in'
p274
I171
sS'w+1=-lrb-'
p275
I153
sS'w+1=it'
p276
I172
sS'nsubj=#PRP#'
p277
I86
sS'w+1=about'
p278
I162
sS'w+2=concrete'
p279
I225
sS'w-1=Germany'
p280
I279
sS'w+2=nearby'
p281
I248
sS'cc=but'
p282
I26
sS'advcl=back'
p283
I1
sS'w-1=Degania'
p284
I278
sS'w-1=soldier'
p285
I316
sS'dobj=#NUMBER#'
p286
I38
sS'w+2=third'
p287
I272
sS'prep=like'
p288
I143
sS'w-2=syrian'
p289
I400
sS'w+1=factory'
p290
I166
sS'w+1=Sake'
p291
I159
sS'w-2=withdrawal'
p292
I411
sS'w-2=begin'
p293
I355
sS'nsubjpass=part'
p294
I126
sS'dobj=glacier'
p295
I56
sS'w-2=authority'
p296
I353
sS'nsubj=worker'
p297
I116
sS'w-2=be'
p298
I354
sS'w-2=under'
p299
I406
sS'dobj=presidency'
p300
I75
sS'w+1=three'
p301
I193
sS'prep=on'
p302
I144
sS'w-1=largely'
p303
I307
sS'w-2=Sokil'
p304
I342
sS'nsubj=man'
p305
I103
sS'dobj=peninsula'
p306
I70
sS'w+1=80'
p307
I155
sS'advcl=drive'
p308
I2
sS'nsubj=Sokil'
p309
I92
sS'w+2=presidential'
p310
I258
sS'auxpass=remain'
p311
I24
sS'w-2=school'
p312
I394
sS'ccomp=follow'
p313
I28
sS'w+1=force'
p314
I168
sS'nsubj=woman'
p315
I115
sS'w+2=same'
p316
I260
sS'dobj=House'
p317
I40
sS'w+1=small'
p318
I184
sS'w+2=that'
p319
I269
sS'w+2=eritrean'
p320
I230
sS'w+2=village'
p321
I275
sS'w+1=soviet'
p322
I186
sS'w-1=who'
p323
I325
sS'w-1=place'
p324
I311
sS'w+1=large'
p325
I175
sS'nsubj=Forces'
p326
I88
sS'w-1=land'
p327
I306
sS'w+2=fight'
p328
I232
sS'w+2=and'
p329
I214
sS'tmod=#DATE#'
p330
I149
sS'w-2=and'
p331
I349
sS'w+2=giant'
p332
I237
sS'advmod=previously'
p333
I13
sS'prep=since'
p334
I145
sS'w+1=more'
p335
I176
sS'w+1=with'
p336
I196
sS'advmod=now'
p337
I12
sS'advmod=fully'
p338
I8
sS'w-2=say'
p339
I393
sS'w+2=the'
p340
I270
sS'prep=at'
p341
I137
sS'w-2=will'
p342
I410
sS'w-1=foreign'
p343
I294
sS'w-2=,'
p344
I332
sS'w-2=.'
p345
I333
sS'aux=have'
p346
I19
sS'w-2=but'
p347
I357
sS'w+2=White'
p348
I212
sS'w+2=1967'
p349
I202
sS'prep=among'
p350
I136
sS'w-1=,'
p351
I277
sS'partmod=say'
p352
I133
sS'dobj=mosque'
p353
I65
sS'w-1=rebel'
p354
I314
sS'nsubj=whoever'
p355
I114
sS'parataxis=should'
p356
I130
sS'w-2=as'
p357
I352
sS'w-2=man'
p358
I379
sS'w-2=regional'
p359
I391
sS'w-2=decision'
p360
I361
sS'w-1=also'
p361
I286
sS'w+2=one'
p362
I253
sS'w-2=Bank'
p363
I334
sS'w-2=a'
p364
I346
sS'w+2=West'
p365
I211
sS'dobj=Somalia'
p366
I44
sS'dobj=forest'
p367
I54
sS'w-1=a'
p368
I284
sS'nsubjpass=which'
p369
I129
sS'nsubjpass=house'
p370
I122
sS'mark=as'
p371
I83
sS'w-1=Paris'
p372
I283
sS'dobj=land'
p373
I61
sS'w-2=invade'
p374
I375
sS'w+2=southern'
p375
I263
sS'w+1=Somalia'
p376
I160
sS'w+2=they'
p377
I271
sS'acomp=east'
p378
I0
sS'dobj=diplomat'
p379
I50
sS'conj=fight'
p380
I31
sS'w-2=force'
p381
I366
sS'dobj=building'
p382
I47
sS'w+2=main'
p383
I245
sS'w+1=one-third'
p384
I180
sS'w+2=Radio'
p385
I208
sS'w-1=protester'
p386
I313
sS'nsubj=dozen'
p387
I97
sS'nsubj=Degania'
p388
I87
sS'dobj=house'
p389
I60
sS'dobj=property'
p390
I76
sS'w+1=Nigeria'
p391
I158
sS'aux=to'
p392
I20
sS'w+2=town'
p393
I274
sS'w+1=sovereign'
p394
I185
sS'w+2=Kashmir'
p395
I206
sS'advcl=report'
p396
I3
sS'w+1=-'
p397
I152
sS'w+1=,'
p398
I151
sS'w+1=.'
p399
I154
sS'w-1=briefly'
p400
I289
sS'w-2=that'
p401
I401
sS'nsubj=protester'
p402
I105
sS'w+2=.'
p403
I200
sS'w+2=,'
p404
I199
sS'dobj=camp'
p405
I48
sS'neg=not'
p406
I84
sS'prep=during'
p407
I140
sS'dobj=one-third'
p408
I69
sS'dobj=town'
p409
I80
sS'w+2=40'
p410
I203
sS'w+1=Hungary'
p411
I157
sS'conj=start'
p412
I33
sS'w+1=a'
p413
I161
sS'w-1=now'
p414
I310
sS'w+2=indian'
p415
I243
sS'w+1=he'
p416
I169
sS'w-1=that'
p417
I320
sS'aux=be'
p418
I17
sS'w+1=power'
p419
I182
sS'w-1=illegal'
p420
I301
sS'w+2=a'
p421
I213
ssS'dtype'
p422
cnumpy
float64
p423
sS'feature_names_'
p424
(lp425
g378
ag283
ag308
ag396
ag225
ag256
ag8
ag268
ag338
ag251
ag87
ag107
ag337
ag333
ag173
ag159
ag163
ag418
ag64
ag346
ag392
ag222
ag83
ag169
ag311
ag266
ag282
ag92
ag313
ag65
ag235
ag380
ag241
ag412
ag220
ag99
ag89
ag261
ag286
ag135
ag317
ag66
ag133
ag117
ag366
ag67
ag125
ag382
ag405
ag122
ag379
ag211
ag123
ag236
ag367
ag131
ag295
ag226
ag185
ag181
ag389
ag373
ag197
ag180
ag69
ag353
ag14
ag70
ag233
ag408
ag306
ag13
ag224
ag56
ag30
ag300
ag390
ag172
ag215
ag35
ag409
ag113
ag101
ag371
ag406
ag175
ag277
ag388
ag326
ag54
ag76
ag259
ag309
ag78
ag240
ag186
ag227
ag387
ag164
ag68
ag49
ag262
ag214
ag305
ag245
ag402
ag26
ag139
ag199
ag267
ag254
ag96
ag118
ag127
ag355
ag315
ag297
ag80
ag243
ag61
ag223
ag146
ag370
ag58
ag37
ag62
ag294
ag119
ag150
ag369
ag356
ag209
ag86
ag352
ag63
ag126
ag350
ag341
ag9
ag24
ag407
ag162
ag82
ag288
ag302
ag334
ag23
ag34
ag231
ag330
ag154
ag398
ag397
ag275
ag399
ag307
ag165
ag411
ag391
ag291
ag376
ag413
ag278
ag145
ag269
ag189
ag290
ag84
ag314
ag416
ag244
ag274
ag276
ag44
ag213
ag325
ag335
ag177
ag179
ag248
ag384
ag206
ag419
ag217
ag318
ag394
ag322
ag253
ag160
ag32
ag28
ag72
ag79
ag301
ag136
ag138
ag336
ag137
ag270
ag404
ag403
ag134
ag349
ag410
ag94
ag182
ag395
ag59
ag385
ag147
ag142
ag365
ag348
ag421
ag329
ag230
ag210
ag198
ag167
ag75
ag121
ag232
ag16
ag71
ag21
ag279
ag46
ag252
ag143
ag115
ag320
ag98
ag328
ag93
ag148
ag31
ag57
ag332
ag11
ag229
ag45
ag109
ag53
ag415
ag110
ag383
ag140
ag40
ag281
ag10
ag120
ag74
ag191
ag362
ag188
ag263
ag257
ag237
ag310
ag130
ag316
ag205
ag105
ag375
ag48
ag81
ag85
ag255
ag249
ag319
ag340
ag377
ag287
ag52
ag393
ag321
ag178
ag351
ag284
ag280
ag272
ag91
ag238
ag372
ag368
ag228
ag361
ag195
ag39
ag400
ag156
ag153
ag149
ag166
ag343
ag219
ag88
ag174
ag50
ag196
ag273
ag420
ag95
ag168
ag103
ag97
ag327
ag303
ag155
ag216
ag414
ag324
ag157
ag386
ag354
ag183
ag285
ag90
ag194
ag158
ag417
ag106
ag221
ag132
ag41
ag323
ag111
ag36
ag242
ag128
ag152
ag190
ag344
ag345
ag363
ag17
ag192
ag161
ag25
ag19
ag184
ag124
ag304
ag43
ag151
ag102
ag364
ag60
ag250
ag331
ag212
ag207
ag357
ag296
ag298
ag293
ag108
ag347
ag264
ag203
ag27
ag360
ag208
ag193
ag176
ag171
ag381
ag33
ag77
ag265
ag15
ag239
ag104
ag20
ag202
ag374
ag18
ag247
ag187
ag358
ag170
ag218
ag112
ag47
ag29
ag129
ag246
ag12
ag144
ag116
ag141
ag359
ag201
ag339
ag312
ag38
ag100
ag51
ag234
ag258
ag289
ag401
ag42
ag200
ag22
ag204
ag299
ag55
ag271
ag114
ag342
ag292
ag260
ag73
asS'separator'
p426
S'='
sS'sparse'
p427
I01
sb.