ccopy_reg
_reconstructor
p1
(csklearn.feature_extraction.dict_vectorizer
DictVectorizer
p2
c__builtin__
object
p3
NtRp4
(dp5
S'vocabulary_'
p6
(dp7
S'xcomp=set'
p8
I41
sS'nsubj=none'
p9
I11
sS'aux=will'
p10
I5
sS'w-2=might'
p11
I37
sS'w-1=will'
p12
I32
sS'xcomp=take'
p13
I42
sS'w-2=we'
p14
I38
sS'advmod=often'
p15
I2
sS'w-2=,'
p16
I33
sS'auxpass=be'
p17
I6
sS'complm=that'
p18
I8
sS'aux=may'
p19
I3
sS'xcomp=try'
p20
I43
sS'w-1=be'
p21
I29
sS'advmod=always'
p22
I0
sS'w+2=president'
p23
I23
sS'w-1=often'
p24
I31
sS'w+1=to'
p25
I20
sS'w+2=break'
p26
I21
sS'dobj=president'
p27
I9
sS'xcomp=break'
p28
I39
sS'w+2=sea'
p29
I24
sS'advmod=much'
p30
I1
sS'w+2=take'
p31
I26
sS'w+1=the'
p32
I19
sS'nsubj=ruling'
p33
I12
sS'nsubjpass=Ethiopia'
p34
I15
sS'w+2=set'
p35
I25
sS'w-1=might'
p36
I30
sS'dobj=sea'
p37
I10
sS'w-2=may'
p38
I36
sS'aux=might'
p39
I4
sS'prep=by'
p40
I18
sS'nsubjpass=country'
p41
I17
sS'w-2=be'
p42
I34
sS'nsubjpass=#PRP#'
p43
I13
sS'w+2=try'
p44
I27
sS'nsubjpass=administration'
p45
I16
sS'w-2=child'
p46
I35
sS'w+2=erect'
p47
I22
sS'w-1=always'
p48
I28
sS'xcomp=erect'
p49
I40
sS'ccomp=say'
p50
I7
sS'nsubjpass=Congress'
p51
I14
ssS'dtype'
p52
cnumpy
float64
p53
sS'feature_names_'
p54
(lp55
g22
ag30
ag15
ag19
ag39
ag10
ag17
ag50
ag18
ag27
ag37
ag9
ag33
ag43
ag51
ag34
ag45
ag41
ag40
ag32
ag25
ag26
ag47
ag23
ag29
ag35
ag31
ag44
ag48
ag21
ag36
ag24
ag12
ag16
ag42
ag46
ag38
ag11
ag14
ag28
ag49
ag8
ag13
ag20
asS'separator'
p56
S'='
sS'sparse'
p57
I01
sb.