ccopy_reg
_reconstructor
p1
(csklearn.feature_extraction.dict_vectorizer
DictVectorizer
p2
c__builtin__
object
p3
NtRp4
(dp5
S'vocabulary_'
p6
(dp7
S'w-2=have'
p8
I111
sS'w+2=Morris'
p9
I74
sS'w-2=fail'
p10
I110
sS'dobj=Morris'
p11
I28
sS'conj=welcome'
p12
I24
sS'w-2=life'
p13
I113
sS'w-1=be'
p14
I93
sS'w-2=,'
p15
I101
sS'w+2=any'
p16
I79
sS'w+2=,'
p17
I70
sS'w+2=2000'
p18
I71
sS'w-2=need'
p19
I114
sS'advcl=say'
p20
I1
sS'w-1=tremendously'
p21
I98
sS'w-2=they'
p22
I119
sS'w-1=to'
p23
I97
sS'prep=by'
p24
I51
sS'w-2=and'
p25
I105
sS'conj=admiral'
p26
I22
sS'nsubj=statistics'
p27
I42
sS'w+2=Rooster'
p28
I76
sS'w-2=do'
p29
I108
sS'w-2=try'
p30
I121
sS'nsubjpass=observer'
p31
I48
sS'w+1=upon'
p32
I68
sS'aux=do'
p33
I12
sS'nsubjpass=everyone'
p34
I47
sS'advmod=home'
p35
I7
sS'w+2=folk'
p36
I83
sS'nsubj=jungle'
p37
I40
sS'w-2=also'
p38
I103
sS'aux=will'
p39
I15
sS'w+1=retired'
p40
I66
sS'advmod=personally'
p41
I9
sS'nsubjpass=president'
p42
I49
sS'prep=upon'
p43
I54
sS'dobj=coach'
p44
I31
sS'w+2=the'
p45
I89
sS'prep=at'
p46
I50
sS'dep=because'
p47
I25
sS'w-1=will'
p48
I100
sS'nsubj=improvement'
p49
I39
sS'prep=with'
p50
I55
sS'w+2=night'
p51
I85
sS'w+1=Sheila'
p52
I60
sS'aux=have'
p53
I13
sS'w-2=but'
p54
I107
sS'tmod=year'
p55
I57
sS'w-1=.'
p56
I92
sS'w-1=can'
p57
I94
sS'w-2=I'
p58
I102
sS'w-2=time'
p59
I120
sS'nsubjpass=Aragon'
p60
I44
sS'w+2=Chairman'
p61
I73
sS'w-2=she'
p62
I118
sS'dobj=Johns'
p63
I27
sS'advcl=discuss'
p64
I0
sS'w-2=he'
p65
I112
sS'w+2=potential'
p66
I86
sS'w-1=he'
p67
I95
sS'dobj=farmer'
p68
I32
sS'w+2=what'
p69
I91
sS'w+2=Obama'
p70
I75
sS'advmod=also'
p71
I3
sS'dobj=folk'
p72
I33
sS'w-2=everyone'
p73
I109
sS'dobj=Chairman'
p74
I26
sS'w+1=proliferation'
p75
I65
sS'w-2=be'
p76
I106
sS'w+2=farmer'
p77
I82
sS'auxpass=be'
p78
I17
sS'aux=can'
p79
I11
sS'complm=that'
p80
I21
sS'w+1=Buenos'
p81
I59
sS'w+2=they'
p82
I90
sS'advmod=always'
p83
I4
sS'w-2=observer'
p84
I115
sS'prep=to'
p85
I53
sS'cc=and'
p86
I18
sS'w+1=with'
p87
I69
sS'w+1=the'
p88
I67
sS'xcomp=abort'
p89
I124
sS'w+1=by'
p90
I61
sS'w-2=always'
p91
I104
sS'w+1=last'
p92
I64
sS'cc=but'
p93
I19
sS'w+2=Aires'
p94
I72
sS'nsubj=appeal'
p95
I38
sS'w+2=enough'
p96
I80
sS'w-1=very'
p97
I99
sS'w-2=when'
p98
I122
sS'nsubjpass=#PRP#'
p99
I43
sS'w+2=she'
p100
I87
sS'prep=in'
p101
I52
sS'w+2=some'
p102
I88
sS'aux=would'
p103
I16
sS'w+1=in'
p104
I63
sS'advmod=first'
p105
I6
sS'advcl=step'
p106
I2
sS'nsubj=#PRP#'
p107
I37
sS'nsubj=statement'
p108
I41
sS'advmod=partly'
p109
I8
sS'advmod=tremendously'
p110
I10
sS'aux=to'
p111
I14
sS'tmod=night'
p112
I56
sS'w-2=personally'
p113
I116
sS'conj=do'
p114
I23
sS'nsubjpass=Sharp'
p115
I45
sS'w-2=will'
p116
I123
sS'w+2=how'
p117
I84
sS'w+1=.'
p118
I58
sS'nsubjpass=Zomahoun-Ekouedjin'
p119
I46
sS'neg=not'
p120
I36
sS'advmod=enough'
p121
I5
sS'dobj=need'
p122
I35
sS'w+2=U.S.'
p123
I77
sS'dobj=Sokolski'
p124
I30
sS'w-1=not'
p125
I96
sS'w+2=Vietnam'
p126
I78
sS'w-2=seem'
p127
I117
sS'w+1=coach'
p128
I62
sS'ccomp=see'
p129
I20
sS'dobj=manager'
p130
I34
sS'dobj=Nunez'
p131
I29
sS'w+2=expert'
p132
I81
ssS'dtype'
p133
cnumpy
float64
p134
sS'feature_names_'
p135
(lp136
g64
ag20
ag106
ag71
ag83
ag121
ag105
ag35
ag109
ag41
ag110
ag79
ag33
ag53
ag111
ag39
ag103
ag78
ag86
ag93
ag129
ag80
ag26
ag114
ag12
ag47
ag74
ag63
ag11
ag131
ag124
ag44
ag68
ag72
ag130
ag122
ag120
ag107
ag95
ag49
ag37
ag108
ag27
ag99
ag60
ag115
ag119
ag34
ag31
ag42
ag46
ag24
ag101
ag85
ag43
ag50
ag112
ag55
ag118
ag81
ag52
ag90
ag128
ag104
ag92
ag75
ag40
ag88
ag32
ag87
ag17
ag18
ag94
ag61
ag9
ag70
ag28
ag123
ag126
ag16
ag96
ag132
ag77
ag36
ag117
ag51
ag66
ag100
ag102
ag45
ag82
ag69
ag56
ag14
ag57
ag67
ag125
ag23
ag21
ag97
ag48
ag15
ag58
ag38
ag91
ag25
ag76
ag54
ag29
ag73
ag10
ag8
ag65
ag13
ag19
ag84
ag113
ag127
ag62
ag22
ag59
ag30
ag98
ag116
ag89
asS'separator'
p137
S'='
sS'sparse'
p138
I01
sb.