ccopy_reg
_reconstructor
p1
(csklearn.feature_extraction.dict_vectorizer
DictVectorizer
p2
c__builtin__
object
p3
NtRp4
(dp5
S'vocabulary_'
p6
(dp7
S'nsubj=embassy'
p8
I93
sS'w-1=future'
p9
I243
sS'w-1=tranquility'
p10
I263
sS'prep=before'
p11
I119
sS'w+1=they'
p12
I166
sS'w+2=full'
p13
I200
sS'w-2=go'
p14
I294
sS'w+1=news'
p15
I155
sS'w+1=transplant'
p16
I169
sS'advmod=where'
p17
I13
sS'w+1=order'
p18
I156
sS'w+2=sentence'
p19
I219
sS'w+1=,'
p20
I132
sS'w-2=Korea'
p21
I278
sS'w-2=Obama'
p22
I279
sS'w+2=court'
p23
I191
sS'w+2=know'
p24
I202
sS'dobj=speech'
p25
I70
sS'w-2=they'
p26
I319
sS'dobj=news'
p27
I52
sS'w-2=we'
p28
I325
sS'w+1=execution'
p29
I145
sS'dobj=response'
p30
I64
sS'w+1=quiet'
p31
I158
sS'w-2=administration'
p32
I282
sS'dobj=christian'
p33
I34
sS'w+2=wide-ranging'
p34
I226
sS'w-1=discussion'
p35
I238
sS'dobj=start'
p36
I71
sS'w-1=love'
p37
I250
sS'w-2=she'
p38
I315
sS'dobj=recommendation'
p39
I60
sS'w-2=hopeful'
p40
I298
sS'w+1=deportation'
p41
I144
sS'w+2=ruling'
p42
I218
sS'w-1=father'
p43
I242
sS'w-2=but'
p44
I287
sS'w+2=between'
p45
I184
sS'xcomp=know'
p46
I330
sS'w+2=next'
p47
I205
sS'w+1=prosecution'
p48
I157
sS'dobj=judgment'
p49
I48
sS'w+1=reaction'
p50
I159
sS'dobj=action'
p51
I29
sS'dobj=mission'
p52
I50
sS'dobj=warrant'
p53
I77
sS'w+2=outcome'
p54
I209
sS'w+2=in'
p55
I201
sS'dobj=transfer'
p56
I72
sS'dobj=president'
p57
I57
sS'mark=as'
p58
I78
sS'nsubj=administration'
p59
I91
sS'w-2=or'
p60
I308
sS'nsubj=who'
p61
I111
sS'tmod=day'
p62
I130
sS'w-2=of'
p63
I306
sS'w-2=need'
p64
I305
sS'w+1=to'
p65
I167
sS'w-2=country'
p66
I288
sS'w+1=death'
p67
I143
sS'w+1=harvest'
p68
I148
sS'w-2=member'
p69
I302
sS'prep=by'
p70
I120
sS'w+2=and'
p71
I180
sS'nsubj=many'
p72
I100
sS'w-2=and'
p73
I283
sS'w+1=revolution'
p74
I163
sS'w-1=not'
p75
I253
sS'w-1=much'
p76
I251
sS'dobj=approval'
p77
I31
sS'w+1=if'
p78
I151
sS'dobj=#PRP#'
p79
I27
sS'w-1=hague'
p80
I245
sS'prep=across'
p81
I118
sS'w-2=which'
p82
I326
sS'dobj=delivery'
p83
I38
sS'w-2=this'
p84
I320
sS'w-1=would'
p85
I269
sS'w-1=well-wisher'
p86
I265
sS'nsubj=Taylor'
p87
I89
sS'w-2=.'
p88
I272
sS'w-1=jail'
p89
I248
sS'mark=while'
p90
I81
sS'dobj=Rice'
p91
I28
sS'w-2=illness'
p92
I299
sS'w+1=medical'
p93
I154
sS'aux=do'
p94
I16
sS'w-1=believe'
p95
I237
sS'w-2=he'
p96
I297
sS'w-1=glory'
p97
I244
sS'w+2=folk'
p98
I197
sS'w+2=across'
p99
I178
sS'w+1=trial'
p100
I170
sS'w+2=response'
p101
I214
sS'advmod=there'
p102
I12
sS'aux=will'
p103
I19
sS'w-2=warm'
p104
I324
sS'nsubj=Washington'
p105
I90
sS'advcl=declare'
p106
I1
sS'w+2=warrant'
p107
I224
sS'advmod=now'
p108
I10
sS'nsubj=worth'
p109
I113
sS'w-2=from'
p110
I293
sS'advmod=anxiously'
p111
I6
sS'w-2=fan'
p112
I291
sS'w+2=book'
p113
I185
sS'w-2=only'
p114
I307
sS'w-1=while'
p115
I266
sS'w+2=action'
p116
I179
sS'w-1=will'
p117
I267
sS'w-2=,'
p118
I271
sS'dobj=move'
p119
I51
sS'prep=with'
p120
I128
sS'w-1=fate'
p121
I241
sS'nsubj=fate'
p122
I95
sS'advmod=eagerly'
p123
I8
sS'w-2=95,000'
p124
I273
sS'w-2=hague'
p125
I295
sS'w+1=arrangement'
p126
I140
sS'w-2=suspect'
p127
I317
sS'dobj=implementation'
p128
I47
sS'w-1=world'
p129
I268
sS'w-1=be'
p130
I236
sS'w+2=discovery'
p131
I192
sS'w+2=Rice'
p132
I176
sS'w-2=border'
p133
I286
sS'nsubj=Congress'
p134
I85
sS'dobj=order'
p135
I54
sS'w-2=the'
p136
I318
sS'dobj=food'
p137
I44
sS'w-2=as'
p138
I284
sS'w-2=still'
p139
I316
sS'w+1=speech'
p140
I164
sS'nsubj=world'
p141
I112
sS'dobj=hearing'
p142
I46
sS'w+2=treatment'
p143
I222
sS'nsubj=leader'
p144
I98
sS'dep=say'
p145
I26
sS'w-2=embassy'
p146
I290
sS'advmod=mostly'
p147
I9
sS'partmod=outline'
p148
I117
sS'w-2=wife'
p149
I329
sS'w-2=while'
p150
I327
sS'w-2=other'
p151
I309
sS'dobj=prosecution'
p152
I58
sS'mark=because'
p153
I79
sS'w+1=two'
p154
I171
sS'w-2=who'
p155
I328
sS'w-2=month'
p156
I304
sS'w-1=people'
p157
I256
sS'w+2=resolution'
p158
I213
sS'w+2=appeal'
p159
I181
sS'prep=from'
p160
I122
sS'w-1=,'
p161
I228
sS'w+1=kidney'
p162
I153
sS'w+2=outgoing'
p163
I210
sS'nsubj=Obama'
p164
I87
sS'w-2=a'
p165
I281
sS'nsubj=strategy'
p166
I106
sS'w-2=Congress'
p167
I274
sS'w+2=first'
p168
I196
sS'nsubj=East'
p169
I86
sS'prep=for'
p170
I121
sS'dobj=ruling'
p171
I67
sS'w+1=recommendation'
p172
I160
sS'w+1=we'
p173
I172
sS'w-1=Bossman'
p174
I229
sS'w+1=rescue'
p175
I162
sS'w+2=election'
p176
I193
sS'w+2=medic'
p177
I204
sS'w+2=for'
p178
I198
sS'dobj=period'
p179
I56
sS'dobj=deportation'
p180
I39
sS"w+2=''"
p181
I173
sS'nsubj=country'
p182
I92
sS'dobj=harvest'
p183
I45
sS'w-1=he'
p184
I246
sS'w-2=Georgi'
p185
I277
sS'nsubjpass=benefit'
p186
I116
sS'w+2=finding'
p187
I195
sS'advmod=also'
p188
I5
sS'w+2=return'
p189
I217
sS'dobj=sentence'
p190
I68
sS'dobj=folk'
p191
I43
sS'w+2=who'
p192
I225
sS'dobj=anyone'
p193
I30
sS'dobj=outcome'
p194
I55
sS'w-2=be'
p195
I285
sS'dobj=arrangement'
p196
I33
sS'w+1=food'
p197
I146
sS'auxpass=be'
p198
I21
sS'complm=that'
p199
I24
sS'nsubj=warm'
p200
I109
sS'nsubj=membership'
p201
I102
sS'advcl=willing'
p202
I3
sS"w-1='ll"
p203
I227
sS'w-1=year'
p204
I270
sS'nsubj=other'
p205
I103
sS'w-2=East'
p206
I276
sS'dobj=treatment'
p207
I74
sS'dobj=finding'
p208
I42
sS'w-2=procedure'
p209
I311
sS'w-2=to'
p210
I322
sS'w-1=must'
p211
I252
sS'w+2=but'
p212
I187
sS'cc=and'
p213
I22
sS'dobj=death'
p214
I37
sS'tmod=#NUMBER#'
p215
I129
sS'advmod=still'
p216
I11
sS'w+1=Ms.'
p217
I134
sS'dobj=transplant'
p218
I73
sS'w-1=now'
p219
I254
sS'advmod=currently'
p220
I7
sS'w+2=resumption'
p221
I216
sS'w+1=the'
p222
I165
sS'w+2=long'
p223
I203
sS'w+1=anyone'
p224
I138
sS'w+1=by'
p225
I141
sS'advcl=resume'
p226
I2
sS'nsubj=well-wisher'
p227
I110
sS'w+1=Senate'
p228
I135
sS'w-2=membership'
p229
I303
sS'w-2=for'
p230
I292
sS'w+2=be'
p231
I183
sS'aux=to'
p232
I18
sS'dobj=next'
p233
I53
sS'dobj=report'
p234
I61
sS'dobj=reaction'
p235
I59
sS'w-1=welcome'
p236
I264
sS'w-1=Parvanov'
p237
I231
sS'prep=include'
p238
I125
sS'w+2=president'
p239
I211
sS'prep=if'
p240
I123
sS'nsubjpass=#PRP#'
p241
I115
sS'dobj=crop'
p242
I36
sS'dobj=execution'
p243
I41
sS'w-1=also'
p244
I232
sS'dobj=aresponse'
p245
I32
sS'aux=would'
p246
I20
sS'w+1=its'
p247
I152
sS'w-2=have'
p248
I296
sS'w+1=transfer'
p249
I168
sS'w-2=leader'
p250
I301
sS'w-2=say'
p251
I314
sS'nsubj=love'
p252
I99
sS'w-1=only'
p253
I255
sS'nsubj=#PRP#'
p254
I82
sS'w-1=atmosphere'
p255
I235
sS'w+2=final'
p256
I194
sS'dobj=verdict'
p257
I76
sS'w-1=do'
p258
I239
sS'w-2=true'
p259
I323
sS'advcl=busy'
p260
I0
sS'dobj=clearance'
p261
I35
sS"aux='ll"
p262
I14
sS'prep=to'
p263
I127
sS'nsubj=fan'
p264
I94
sS'w-2=danger'
p265
I289
sS'w+2=recommendation'
p266
I212
sS'cc=but'
p267
I23
sS'tmod=night'
p268
I131
sS'w-1=to'
p269
I262
sS'nsubj=Bemba'
p270
I83
sS'w+1=clearance'
p271
I142
sS'nsubj=suspect'
p272
I107
sS'dobj=discovery'
p273
I40
sS'advmod=ahead'
p274
I4
sS'w-1=anxiously'
p275
I234
sS'w+2=christian'
p276
I189
sS'w+2=trial'
p277
I223
sS'nsubj=Parvanov'
p278
I88
sS'w-2=in'
p279
I300
sS'w-1=still'
p280
I259
sS'w+2=start'
p281
I220
sS'w-1=prison'
p282
I257
sS'w-1=they'
p283
I261
sS'w+2=Turkey'
p284
I177
sS'dobj=result'
p285
I65
sS'nsubj=glory'
p286
I97
sS'w-1=long'
p287
I249
sS'aux=be'
p288
I15
sS'w+2=busy'
p289
I186
sS'w+1=.'
p290
I133
sS'w+2=of'
p291
I206
sS'nsubj=father'
p292
I96
sS'w+2=.'
p293
I175
sS'w+2=,'
p294
I174
sS'w+2=on'
p295
I207
sS'nsubj=member'
p296
I101
sS'dobj=medic'
p297
I49
sS'prep=in'
p298
I124
sS'nsubj=that'
p299
I108
sS'w-1=it'
p300
I247
sS'aux=must'
p301
I17
sS'dobj=return'
p302
I66
sS'w-1=and'
p303
I233
sS'w+1=action'
p304
I137
sS'nsubj=people'
p305
I104
sS'w-2=people'
p306
I310
sS'w+1=formal'
p307
I147
sS'w-1=eagerly'
p308
I240
sS'nsubj=Bossman'
p309
I84
sS'w-1=spend'
p310
I258
sS'w+2=or'
p311
I208
sS'nsubj=reform'
p312
I105
sS'w+2=result'
p313
I215
sS'w+2=construction'
p314
I190
sS'w+1=a'
p315
I136
sS'w-1=Mexicans'
p316
I230
sS'conj=hopeful'
p317
I25
sS'dobj=signature'
p318
I69
sS'w-2=promising'
p319
I312
sS'w+2=transplant'
p320
I221
sS'w+1=report'
p321
I161
sS'w-2=three-thousand'
p322
I321
sS'w+1=he'
p323
I149
sS'dobj=rescue'
p324
I62
sS'w-2=same'
p325
I313
sS'prep=on'
p326
I126
sS'w+2=by'
p327
I188
sS'w-2=Creek'
p328
I275
sS'w-1=that'
p329
I260
sS'dobj=trial'
p330
I75
sS'w+2=from'
p331
I199
sS'dobj=resolution'
p332
I63
sS'w+2=approval'
p333
I182
sS'w+1=aresponse'
p334
I139
sS'w-2=Washington'
p335
I280
sS'nsubj=zimbabwean'
p336
I114
sS'mark=in'
p337
I80
sS'w+1=hearing'
p338
I150
ssS'dtype'
p339
cnumpy
float64
p340
sS'feature_names_'
p341
(lp342
g260
ag106
ag226
ag202
ag274
ag188
ag111
ag220
ag123
ag147
ag108
ag216
ag102
ag17
ag262
ag288
ag94
ag301
ag232
ag103
ag246
ag198
ag213
ag267
ag199
ag317
ag145
ag79
ag91
ag51
ag193
ag77
ag245
ag196
ag33
ag261
ag242
ag214
ag83
ag180
ag273
ag243
ag208
ag191
ag137
ag183
ag142
ag128
ag49
ag297
ag52
ag119
ag27
ag233
ag135
ag194
ag179
ag57
ag152
ag235
ag39
ag234
ag324
ag332
ag30
ag285
ag302
ag171
ag190
ag318
ag25
ag36
ag56
ag218
ag207
ag330
ag257
ag53
ag58
ag153
ag337
ag90
ag254
ag270
ag309
ag134
ag169
ag164
ag278
ag87
ag105
ag59
ag182
ag8
ag264
ag122
ag292
ag286
ag144
ag252
ag72
ag296
ag201
ag205
ag305
ag312
ag166
ag272
ag299
ag200
ag227
ag61
ag141
ag109
ag336
ag241
ag186
ag148
ag81
ag11
ag70
ag170
ag160
ag240
ag298
ag238
ag326
ag263
ag120
ag215
ag62
ag268
ag20
ag290
ag217
ag228
ag315
ag304
ag224
ag334
ag126
ag225
ag271
ag67
ag41
ag29
ag197
ag307
ag68
ag323
ag338
ag78
ag247
ag162
ag93
ag15
ag18
ag48
ag31
ag50
ag172
ag321
ag175
ag74
ag140
ag222
ag12
ag65
ag249
ag16
ag100
ag154
ag173
ag181
ag294
ag293
ag132
ag284
ag99
ag116
ag71
ag159
ag333
ag231
ag45
ag113
ag289
ag212
ag327
ag276
ag314
ag23
ag131
ag176
ag256
ag187
ag168
ag98
ag178
ag331
ag13
ag55
ag24
ag223
ag177
ag47
ag291
ag295
ag311
ag54
ag163
ag239
ag266
ag158
ag101
ag313
ag221
ag189
ag42
ag19
ag281
ag320
ag143
ag277
ag107
ag192
ag34
ag203
ag161
ag174
ag316
ag237
ag244
ag303
ag275
ag255
ag130
ag95
ag35
ag258
ag308
ag121
ag43
ag9
ag97
ag80
ag184
ag300
ag89
ag287
ag37
ag76
ag211
ag75
ag219
ag253
ag157
ag282
ag310
ag280
ag329
ag283
ag269
ag10
ag236
ag86
ag115
ag117
ag129
ag85
ag204
ag118
ag88
ag124
ag167
ag328
ag206
ag185
ag21
ag22
ag335
ag165
ag32
ag73
ag138
ag195
ag133
ag44
ag66
ag265
ag146
ag112
ag230
ag110
ag14
ag125
ag248
ag96
ag40
ag92
ag279
ag250
ag69
ag229
ag156
ag64
ag63
ag114
ag60
ag151
ag306
ag209
ag319
ag325
ag251
ag38
ag139
ag127
ag136
ag26
ag84
ag322
ag210
ag259
ag104
ag28
ag82
ag150
ag155
ag149
ag46
asS'separator'
p343
S'='
sS'sparse'
p344
I01
sb.