ccopy_reg
_reconstructor
p1
(csklearn.feature_extraction.dict_vectorizer
DictVectorizer
p2
c__builtin__
object
p3
NtRp4
(dp5
S'sort'
p6
I01
sS'feature_names_'
p7
(lp8
S'advcl=aid'
p9
aS'advcl=begin'
p10
aS'advcl=conduct'
p11
aS'advcl=hold'
p12
aS'advcl=object'
p13
aS'advcl=say'
p14
aS'advcl=unable'
p15
aS'advmod=ago'
p16
aS'advmod=already'
p17
aS'advmod=also'
p18
aS'advmod=essentially'
p19
aS'advmod=however'
p20
aS'advmod=now'
p21
aS'advmod=previously'
p22
aS'advmod=recently'
p23
aS'advmod=since'
p24
aS'advmod=soon'
p25
aS'advmod=subsequently'
p26
aS'advmod=when'
p27
aS'amod=#NUMBER#'
p28
aS'amod=complete'
p29
aS'amod=comprehensive'
p30
aS'amod=deep'
p31
aS'amod=diplomatic'
p32
aS'amod=expire'
p33
aS'amod=financial'
p34
aS'amod=four-month'
p35
aS'amod=israeli'
p36
aS'amod=temporary'
p37
aS'amod=three-day'
p38
aS'amod=total'
p39
aS'aux=be'
p40
aS'aux=can'
p41
aS'aux=have'
p42
aS'aux=might'
p43
aS'aux=should'
p44
aS'aux=to'
p45
aS'aux=will'
p46
aS'aux=would'
p47
aS'auxpass=be'
p48
aS'auxpass=remain'
p49
aS'cc=and'
p50
aS'cc=but'
p51
aS'ccomp=aid'
p52
aS'ccomp=call'
p53
aS'ccomp=say'
p54
aS'ccomp=target'
p55
aS'complm=that'
p56
aS'conj=continue'
p57
aS'conj=dismantle'
p58
aS'conj=prohibit'
p59
aS'conj=seize'
p60
aS'cop=be'
p61
aS'dep=due'
p62
aS'dep=so'
p63
aS'det=a'
p64
aS'det=no'
p65
aS'det=the'
p66
aS'dobj=#NUMBER#'
p67
aS'dobj=$'
p68
aS'dobj=account'
p69
aS'dobj=activity'
p70
aS'dobj=asset'
p71
aS'dobj=compliance'
p72
aS'dobj=construction'
p73
aS'dobj=dealings'
p74
aS'dobj=deployment'
p75
aS'dobj=dollar'
p76
aS'dobj=enrichment'
p77
aS'dobj=fund'
p78
aS'dobj=level'
p79
aS'dobj=move'
p80
aS'dobj=operation'
p81
aS'dobj=plan'
p82
aS'dobj=price'
p83
aS'dobj=production'
p84
aS'dobj=program'
p85
aS'dobj=rate'
p86
aS'dobj=sector'
p87
aS'expl=there'
p88
aS'infmod=begin'
p89
aS'mark=after'
p90
aS'mark=before'
p91
aS'mark=unless'
p92
aS'neg=not'
p93
aS'nn=anasset'
p94
aS'nn=building'
p95
aS'nn=construction'
p96
aS'nn=price'
p97
aS'nn=settlement'
p98
aS'nn=wage'
p99
aS'nn=year'
p100
aS'nsubj=#DATE#'
p101
aS'nsubj=#PRP#'
p102
aS'nsubj=Authority'
p103
aS'nsubj=Britain'
p104
aS'nsubj=Council'
p105
aS'nsubj=Department'
p106
aS'nsubj=Iran'
p107
aS'nsubj=Israel'
p108
aS'nsubj=Korea'
p109
aS'nsubj=Macau'
p110
aS'nsubj=Rabbo'
p111
aS'nsubj=States'
p112
aS'nsubj=U.N.'
p113
aS'nsubj=U.S.'
p114
aS'nsubj=action'
p115
aS'nsubj=asset'
p116
aS'nsubj=authority'
p117
aS'nsubj=commitment'
p118
aS'nsubj=committee'
p119
aS'nsubj=conference'
p120
aS'nsubj=designation'
p121
aS'nsubj=fog'
p122
aS'nsubj=government'
p123
aS'nsubj=lender'
p124
aS'nsubj=market'
p125
aS'nsubj=measure'
p126
aS'nsubj=proposal'
p127
aS'nsubj=resolution'
p128
aS'nsubj=that'
p129
aS'nsubjpass=#PRP#'
p130
aS'nsubjpass=$'
p131
aS'nsubjpass=India'
p132
aS'nsubjpass=acceptance'
p133
aS'nsubjpass=account'
p134
aS'nsubjpass=asset'
p135
aS'nsubjpass=culture'
p136
aS'nsubjpass=fund'
p137
aS'nsubjpass=lot'
p138
aS'nsubjpass=market'
p139
aS'nsubjpass=money'
p140
aS'nsubjpass=movement'
p141
aS'nsubjpass=opposition'
p142
aS'nsubjpass=sample'
p143
aS'nsubjpass=that'
p144
aS'nsubjpass=which'
p145
aS'num=#NUMBER#'
p146
aS'parataxis=go'
p147
aS'partmod=tighten'
p148
aS'prep=after'
p149
aS'prep=as'
p150
aS'prep=at'
p151
aS'prep=because'
p152
aS'prep=by'
p153
aS'prep=during'
p154
aS'prep=except'
p155
aS'prep=for'
p156
aS'prep=in'
p157
aS'prep=include'
p158
aS'prep=into'
p159
aS'prep=of'
p160
aS'prep=on'
p161
aS'prep=over'
p162
aS'prep=since'
p163
aS'prep=to'
p164
aS'prep=toward'
p165
aS'prep=with'
p166
aS'prep=within'
p167
aS'prt=out'
p168
aS'prt=up'
p169
aS'rcmod=be'
p170
aS'rcmod=destroy'
p171
aS'rcmod=impose'
p172
aS'tmod=June'
p173
aS'tmod=week'
p174
aS'tmod=year'
p175
aS'w+1=$'
p176
aS"w+1=''"
p177
aS'w+1=,'
p178
aS'w+1=.'
p179
aS'w+1=21'
p180
aS'w+1=West'
p181
aS'w+1=a'
p182
aS'w+1=about'
p183
aS'w+1=accord'
p184
aS'w+1=account'
p185
aS'w+1=after'
p186
aS'w+1=agreement'
p187
aS'w+1=all'
p188
aS'w+1=almost'
p189
aS'w+1=already'
p190
aS'w+1=and'
p191
aS'w+1=any'
p192
aS'w+1=asset'
p193
aS'w+1=at'
p194
aS'w+1=at-risk'
p195
aS'w+1=be'
p196
aS'w+1=by'
p197
aS'w+1=compliance'
p198
aS'w+1=construction'
p199
aS'w+1=enrichment-related'
p200
aS'w+1=expire'
p201
aS'w+1=for'
p202
aS'w+1=hundred'
p203
aS'w+1=in'
p204
aS'w+1=issue'
p205
aS'w+1=its'
p206
aS'w+1=last'
p207
aS'w+1=missile'
p208
aS'w+1=more'
p209
aS'w+1=move'
p210
aS'w+1=nearly'
p211
aS'w+1=of'
p212
aS'w+1=on'
p213
aS'w+1=operation'
p214
aS'w+1=out'
p215
aS'w+1=over'
p216
aS'w+1=plan'
p217
aS'w+1=plutonium'
p218
aS'w+1=price'
p219
aS'w+1=prompt'
p220
aS'w+1=provide'
p221
aS'w+1=settlement'
p222
aS'w+1=since'
p223
aS'w+1=some'
p224
aS'w+1=soon'
p225
aS'w+1=state'
p226
aS'w+1=that'
p227
aS'w+1=the'
p228
aS'w+1=they'
p229
aS'w+1=three'
p230
aS'w+1=to'
p231
aS'w+1=two'
p232
aS'w+1=under'
p233
aS'w+1=until'
p234
aS'w+1=up'
p235
aS'w+1=wall'
p236
aS'w+1=what'
p237
aS'w+1=will'
p238
aS'w+1=would'
p239
aS'w+2=$'
p240
aS"w+2='"
p241
aS"w+2=''"
p242
aS'w+2=,'
p243
aS'w+2=.'
p244
aS'w+2=1998'
p245
aS'w+2=2005'
p246
aS'w+2=24'
p247
aS'w+2=Bank'
p248
aS'w+2=Israel'
p249
aS'w+2=Macau'
p250
aS'w+2=North'
p251
aS'w+2=Pyongyang'
p252
aS'w+2=Ramadan'
p253
aS'w+2=U.S.'
p254
aS'w+2=West'
p255
aS'w+2=a'
p256
aS'w+2=about'
p257
aS'w+2=account'
p258
aS'w+2=activity'
p259
aS'w+2=african'
p260
aS'w+2=after'
p261
aS'w+2=all'
p262
aS'w+2=american'
p263
aS'w+2=as'
p264
aS'w+2=asset'
p265
aS'w+2=at'
p266
aS'w+2=bank'
p267
aS'w+2=be'
p268
aS'w+2=begin'
p269
aS'w+2=bilateral'
p270
aS'w+2=borrower'
p271
aS'w+2=building'
p272
aS'w+2=compliance'
p273
aS'w+2=construction'
p274
aS'w+2=current'
p275
aS'w+2=day'
p276
aS'w+2=deployment'
p277
aS'w+2=doom'
p278
aS'w+2=essential'
p279
aS'w+2=form'
p280
aS'w+2=from'
p281
aS'w+2=fund'
p282
aS'w+2=give'
p283
aS'w+2=have'
p284
aS'w+2=hold'
p285
aS'w+2=in'
p286
aS'w+2=israeli'
p287
aS'w+2=it'
p288
aS'w+2=last'
p289
aS'w+2=likely'
p290
aS'w+2=limited'
p291
aS'w+2=mean'
p292
aS'w+2=most'
p293
aS'w+2=new'
p294
aS'w+2=nuclear'
p295
aS'w+2=of'
p296
aS'w+2=on'
p297
aS'w+2=or'
p298
aS'w+2=overseas'
p299
aS'w+2=pressure'
p300
aS'w+2=production'
p301
aS'w+2=sector'
p302
aS'w+2=see'
p303
aS'w+2=settlement'
p304
aS'w+2=simply'
p305
aS'w+2=such'
p306
aS'w+2=target'
p307
aS'w+2=than'
p308
aS'w+2=the'
p309
aS'w+2=there'
p310
aS'w+2=they'
p311
aS'w+2=to'
p312
aS'w+2=toward'
p313
aS'w+2=two'
p314
aS'w+2=uranium'
p315
aS'w+2=wages'
p316
aS'w+2=week'
p317
aS'w+2=when'
p318
aS'w+2=with'
p319
aS'w+2=year'
p320
aS"w-1=''"
p321
aS'w-1=,'
p322
aS'w-1=10-month'
p323
aS'w-1=Israel'
p324
aS'w-1=Korea'
p325
aS'w-1=Macau'
p326
aS'w-1=Thursday'
p327
aS'w-1=U.S.'
p328
aS'w-1=`'
p329
aS'w-1=a'
p330
aS'w-1=account'
p331
aS'w-1=already'
p332
aS'w-1=also'
p333
aS'w-1=anasset'
p334
aS'w-1=and'
p335
aS'w-1=asset'
p336
aS'w-1=authority'
p337
aS'w-1=be'
p338
aS'w-1=building'
p339
aS'w-1=complete'
p340
aS'w-1=comprehensive'
p341
aS'w-1=construction'
p342
aS'w-1=deep'
p343
aS'w-1=designation'
p344
aS'w-1=diplomatic'
p345
aS'w-1=essentially'
p346
aS'w-1=expire'
p347
aS'w-1=financial'
p348
aS'w-1=fog'
p349
aS'w-1=four-month'
p350
aS'w-1=fund'
p351
aS'w-1=government'
p352
aS'w-1=have'
p353
aS'w-1=israeli'
p354
aS'w-1=lender'
p355
aS'w-1=might'
p356
aS'w-1=million'
p357
aS'w-1=minister'
p358
aS'w-1=money'
p359
aS'w-1=no'
p360
aS'w-1=not'
p361
aS'w-1=now'
p362
aS'w-1=nuclear'
p363
aS'w-1=previously'
p364
aS'w-1=price'
p365
aS'w-1=resolution'
p366
aS'w-1=salary'
p367
aS'w-1=settlement'
p368
aS'w-1=should'
p369
aS'w-1=since'
p370
aS'w-1=subsequently'
p371
aS'w-1=temporary'
p372
aS'w-1=the'
p373
aS'w-1=three-day'
p374
aS'w-1=to'
p375
aS'w-1=total'
p376
aS'w-1=wage'
p377
aS'w-1=will'
p378
aS'w-1=would'
p379
aS'w-1=year'
p380
aS"w-2=''"
p381
aS'w-2=,'
p382
aS'w-2=.'
p383
aS'w-2=10-month'
p384
aS'w-2=1994'
p385
aS'w-2=2007'
p386
aS'w-2=25'
p387
aS'w-2=27-year'
p388
aS'w-2=;'
p389
aS'w-2=Britain'
p390
aS'w-2=Council'
p391
aS'w-2=Department'
p392
aS'w-2=EU'
p393
aS'w-2=India'
p394
aS'w-2=Iran'
p395
aS'w-2=Israel'
p396
aS'w-2=Macau'
p397
aS'w-2=North'
p398
aS'w-2=Paribas'
p399
aS'w-2=South'
p400
aS'w-2=States'
p401
aS'w-2=a'
p402
aS'w-2=account'
p403
aS'w-2=action'
p404
aS'w-2=agree'
p405
aS'w-2=allow'
p406
aS'w-2=and'
p407
aS'w-2=authority'
p408
aS'w-2=bank'
p409
aS'w-2=be'
p410
aS'w-2=commitment'
p411
aS'w-2=conference'
p412
aS'w-2=decision'
p413
aS'w-2=deliver'
p414
aS'w-2=demand'
p415
aS'w-2=dollar'
p416
aS'w-2=extend'
p417
aS'w-2=fillet'
p418
aS'w-2=for'
p419
aS'w-2=fund'
p420
aS'w-2=government'
p421
aS'w-2=have'
p422
aS'w-2=he'
p423
aS'w-2=impose'
p424
aS'w-2=include'
p425
aS'w-2=institution'
p426
aS'w-2=involve'
p427
aS'w-2=it'
p428
aS'w-2=its'
p429
aS'w-2=korean'
p430
aS'w-2=million'
p431
aS'w-2=obligation'
p432
aS'w-2=offer'
p433
aS'w-2=old'
p434
aS'w-2=on'
p435
aS'w-2=order'
p436
aS'w-2=outside'
p437
aS'w-2=participate'
p438
aS'w-2=pension'
p439
aS'w-2=pledge'
p440
aS'w-2=prime'
p441
aS'w-2=prolong'
p442
aS'w-2=promise'
p443
aS'w-2=proposal'
p444
aS'w-2=protest'
p445
aS'w-2=recently'
p446
aS'w-2=refusal'
p447
aS'w-2=remain'
p448
aS'w-2=request'
p449
aS'w-2=require'
p450
aS'w-2=restart'
p451
aS'w-2=sale'
p452
aS'w-2=sample'
p453
aS'w-2=say'
p454
aS'w-2=seven'
p455
aS'w-2=that'
p456
aS'w-2=the'
p457
aS'w-2=they'
p458
aS'w-2=unless'
p459
aS'w-2=until'
p460
aS'w-2=vote'
p461
aS'w-2=when'
p462
aS'w-2=will'
p463
aS'w-2=word'
p464
aS'w-2=would'
p465
aS'xcomp=due'
p466
aS'xcomp=reduce'
p467
aS'xcomp=retain'
p468
asS'dtype'
p469
cnumpy
float64
p470
sS'vocabulary_'
p471
(dp472
g326
I317
sg65
I56
sg53
I44
sg366
I357
sg149
I140
sg279
I270
sg433
I424
sg307
I298
sg345
I336
sg299
I290
sg234
I225
sg377
I368
sg31
I22
sg340
I331
sg458
I449
sg153
I144
sg167
I158
sg227
I218
sg123
I114
sg172
I163
sg379
I370
sg398
I389
sg447
I438
sg180
I171
sg204
I195
sg220
I211
sg378
I369
sg110
I101
sg80
I71
sg437
I428
sg270
I261
sg269
I260
sg127
I118
sg138
I129
sg338
I329
sg365
I356
sg374
I365
sg218
I209
sg457
I448
sg387
I378
sg391
I382
sg259
I250
sg43
I34
sg280
I271
sg212
I203
sg295
I286
sg92
I83
sg195
I186
sg312
I303
sg213
I204
sg289
I280
sg323
I314
sg19
I10
sg353
I344
sg54
I45
sg286
I277
sg122
I113
sg78
I69
sg444
I435
sg451
I442
sg333
I324
sg41
I32
sg56
I47
sg396
I387
sg26
I17
sg390
I381
sg69
I60
sg277
I268
sg346
I337
sg352
I343
sg52
I43
sg60
I51
sg456
I447
sg228
I219
sg419
I410
sg268
I259
sg229
I220
sg108
I99
sg271
I262
sg150
I141
sg332
I323
sg130
I121
sg252
I243
sg343
I334
sg47
I38
sg76
I67
sg202
I193
sg133
I124
sg113
I104
sg59
I50
sg296
I287
sg164
I155
sg85
I76
sg115
I106
sg16
I7
sg125
I116
sg191
I182
sg460
I451
sg82
I73
sg184
I175
sg192
I183
sg436
I427
sg129
I120
sg205
I196
sg75
I66
sg89
I80
sg421
I412
sg169
I160
sg189
I180
sg35
I26
sg278
I269
sg208
I199
sg373
I364
sg432
I423
sg253
I244
sg260
I251
sg290
I281
sg464
I455
sg77
I68
sg276
I267
sg104
I95
sg405
I396
sg318
I309
sg170
I161
sg28
I19
sg38
I29
sg354
I345
sg66
I57
sg429
I420
sg9
I0
sg158
I149
sg303
I294
sg246
I237
sg70
I61
sg427
I418
sg95
I86
sg435
I426
sg375
I366
sg397
I388
sg171
I162
sg369
I360
sg117
I108
sg99
I90
sg181
I172
sg20
I11
sg162
I153
sg194
I185
sg73
I64
sg300
I291
sg119
I110
sg211
I202
sg168
I159
sg350
I341
sg144
I135
sg348
I339
sg342
I333
sg134
I125
sg339
I330
sg450
I441
sg364
I355
sg232
I223
sg71
I62
sg27
I18
sg358
I349
sg466
I457
sg72
I63
sg446
I437
sg156
I147
sg434
I425
sg15
I6
sg190
I181
sg266
I257
sg142
I133
sg264
I255
sg411
I402
sg325
I316
sg239
I230
sg244
I235
sg48
I39
sg98
I89
sg315
I306
sg201
I192
sg414
I405
sg261
I252
sg225
I216
sg29
I20
sg109
I100
sg334
I325
sg351
I342
sg245
I236
sg385
I376
sg304
I295
sg206
I197
sg233
I224
sg214
I205
sg319
I310
sg388
I379
sg39
I30
sg321
I312
sg140
I131
sg331
I322
sg442
I433
sg136
I127
sg249
I240
sg320
I311
sg33
I24
sg360
I351
sg406
I397
sg298
I289
sg221
I212
sg381
I372
sg105
I96
sg282
I273
sg297
I288
sg231
I222
sg217
I208
sg335
I326
sg101
I92
sg120
I111
sg116
I107
sg257
I248
sg263
I254
sg84
I75
sg384
I375
sg281
I272
sg314
I305
sg58
I49
sg439
I430
sg241
I232
sg370
I361
sg359
I350
sg448
I439
sg216
I207
sg465
I456
sg395
I386
sg37
I28
sg223
I214
sg187
I178
sg417
I408
sg431
I422
sg247
I238
sg63
I54
sg409
I400
sg46
I37
sg17
I8
sg103
I94
sg294
I285
sg430
I421
sg88
I79
sg147
I138
sg112
I103
sg166
I157
sg272
I263
sg267
I258
sg372
I363
sg198
I189
sg394
I385
sg428
I419
sg24
I15
sg152
I143
sg236
I227
sg368
I359
sg265
I256
sg165
I156
sg317
I308
sg313
I304
sg146
I137
sg258
I249
sg242
I233
sg255
I246
sg57
I48
sg30
I21
sg18
I9
sg426
I417
sg74
I65
sg121
I112
sg403
I394
sg200
I191
sg438
I429
sg401
I392
sg467
I458
sg336
I327
sg422
I413
sg50
I41
sg173
I164
sg468
I459
sg83
I74
sg275
I266
sg197
I188
sg238
I229
sg196
I187
sg139
I130
sg392
I383
sg347
I338
sg462
I453
sg137
I128
sg386
I377
sg226
I217
sg97
I88
sg175
I166
sg11
I2
sg102
I93
sg183
I174
sg420
I411
sg141
I132
sg177
I168
sg443
I434
sg51
I42
sg36
I27
sg67
I58
sg327
I318
sg452
I443
sg210
I201
sg148
I139
sg91
I82
sg157
I148
sg185
I176
sg118
I109
sg250
I241
sg135
I126
sg356
I347
sg408
I399
sg380
I371
sg410
I401
sg415
I406
sg160
I151
sg230
I221
sg161
I152
sg341
I332
sg90
I81
sg301
I292
sg285
I276
sg371
I362
sg10
I1
sg248
I239
sg441
I432
sg49
I40
sg404
I395
sg68
I59
sg215
I206
sg23
I14
sg305
I296
sg188
I179
sg412
I403
sg308
I299
sg251
I242
sg13
I4
sg224
I215
sg131
I122
sg143
I134
sg14
I5
sg459
I450
sg453
I444
sg324
I315
sg440
I431
sg363
I354
sg407
I398
sg235
I226
sg461
I452
sg93
I84
sg344
I335
sg61
I52
sg423
I414
sg79
I70
sg22
I13
sg163
I154
sg209
I200
sg355
I346
sg21
I12
sg94
I85
sg454
I445
sg309
I300
sg151
I142
sg114
I105
sg418
I409
sg382
I373
sg383
I374
sg34
I25
sg132
I123
sg237
I228
sg86
I77
sg42
I33
sg389
I380
sg322
I313
sg128
I119
sg400
I391
sg100
I91
sg455
I446
sg287
I278
sg159
I150
sg25
I16
sg413
I404
sg337
I328
sg55
I46
sg44
I35
sg62
I53
sg402
I393
sg306
I297
sg219
I210
sg64
I55
sg330
I321
sg329
I320
sg274
I265
sg145
I136
sg87
I78
sg193
I184
sg425
I416
sg310
I301
sg316
I307
sg126
I117
sg155
I146
sg449
I440
sg106
I97
sg311
I302
sg288
I279
sg283
I274
sg393
I384
sg111
I102
sg284
I275
sg361
I352
sg199
I190
sg207
I198
sg32
I23
sg12
I3
sg302
I293
sg445
I436
sg254
I245
sg367
I358
sg124
I115
sg96
I87
sg273
I264
sg186
I177
sg424
I415
sg45
I36
sg463
I454
sg176
I167
sg107
I98
sg174
I165
sg178
I169
sg179
I170
sg399
I390
sg293
I284
sg243
I234
sg349
I340
sg222
I213
sg376
I367
sg240
I231
sg328
I319
sg81
I72
sg154
I145
sg416
I407
sg292
I283
sg182
I173
sg362
I353
sg291
I282
sg203
I194
sg357
I348
sg40
I31
sg262
I253
sg256
I247
ssS'separator'
p473
S'='
sS'sparse'
p474
I01
sb.