ccopy_reg
_reconstructor
p1
(csklearn.feature_extraction.dict_vectorizer
DictVectorizer
p2
c__builtin__
object
p3
NtRp4
(dp5
S'sort'
p6
I01
sS'feature_names_'
p7
(lp8
S'advcl=Tamil'
p9
aS'advcl=be'
p10
aS'advcl=begin'
p11
aS'advcl=go'
p12
aS'advcl=have'
p13
aS'advcl=know'
p14
aS'advcl=open'
p15
aS'advcl=orbit'
p16
aS'advcl=popular'
p17
aS'advcl=return'
p18
aS'advcl=seize'
p19
aS'advcl=serve'
p20
aS'advcl=work'
p21
aS'advmod=again'
p22
aS'advmod=also'
p23
aS'advmod=apparently'
p24
aS'advmod=early'
p25
aS'advmod=easily'
p26
aS'advmod=especially'
p27
aS'advmod=fairly'
p28
aS'advmod=far'
p29
aS'advmod=finally'
p30
aS'advmod=first'
p31
aS'advmod=how'
p32
aS'advmod=just'
p33
aS'advmod=later'
p34
aS'advmod=long'
p35
aS'advmod=mainly'
p36
aS'advmod=much'
p37
aS'advmod=nearly'
p38
aS'advmod=now'
p39
aS'advmod=often'
p40
aS'advmod=once'
p41
aS'advmod=only'
p42
aS'advmod=really'
p43
aS'advmod=recently'
p44
aS'advmod=so'
p45
aS'advmod=then'
p46
aS'advmod=up'
p47
aS'advmod=when'
p48
aS'advmod=where'
p49
aS'advmod=why'
p50
aS'amod=cherry'
p51
aS'amod=presidential'
p52
aS'aux=be'
p53
aS'aux=can'
p54
aS'aux=could'
p55
aS'aux=do'
p56
aS'aux=have'
p57
aS'aux=may'
p58
aS'aux=must'
p59
aS'aux=should'
p60
aS'aux=to'
p61
aS'aux=will'
p62
aS'aux=would'
p63
aS'auxpass=be'
p64
aS'cc=and'
p65
aS'cc=but'
p66
aS'ccomp=defend'
p67
aS'ccomp=love'
p68
aS'ccomp=old'
p69
aS'ccomp=promise'
p70
aS'ccomp=say'
p71
aS'ccomp=seem'
p72
aS'complm=that'
p73
aS'conj=agree'
p74
aS'conj=be'
p75
aS'conj=begin'
p76
aS'conj=call'
p77
aS'conj=center'
p78
aS'conj=choose'
p79
aS'conj=come'
p80
aS'conj=expose'
p81
aS'conj=get'
p82
aS'conj=guess'
p83
aS'conj=initiate'
p84
aS'conj=leave'
p85
aS'conj=make'
p86
aS'conj=mix'
p87
aS'conj=move'
p88
aS'conj=pack'
p89
aS'conj=patient'
p90
aS'conj=place'
p91
aS'conj=prune'
p92
aS'conj=put'
p93
aS'conj=quicken'
p94
aS'conj=refer'
p95
aS'conj=say'
p96
aS'conj=send'
p97
aS'conj=shoot'
p98
aS'conj=sit'
p99
aS'conj=take'
p100
aS'conj=tortured'
p101
aS'conj=visible'
p102
aS'csubj=like'
p103
aS'dep=after'
p104
aS'dep=do'
p105
aS'dep=end'
p106
aS'dep=hire'
p107
aS'dep=if'
p108
aS'dep=necessarily'
p109
aS'dep=so'
p110
aS'det=a'
p111
aS'dobj=#NUMBER#'
p112
aS'dobj=#PRP#'
p113
aS'dobj=Aura'
p114
aS'dobj=Clinton'
p115
aS'dobj=Duncan'
p116
aS'dobj=Gimpel'
p117
aS'dobj=Huckabee'
p118
aS'dobj=Johnson'
p119
aS'dobj=Morgan'
p120
aS'dobj=Pashto'
p121
aS'dobj=Solo'
p122
aS'dobj=Spiderman'
p123
aS'dobj=Vietnam'
p124
aS'dobj=abnormality'
p125
aS'dobj=anybody'
p126
aS'dobj=applicant'
p127
aS'dobj=architect'
p128
aS'dobj=arm'
p129
aS'dobj=artifact'
p130
aS'dobj=audience'
p131
aS'dobj=award'
p132
aS'dobj=bit'
p133
aS'dobj=box'
p134
aS'dobj=cancer'
p135
aS'dobj=candidate'
p136
aS'dobj=card'
p137
aS'dobj=client'
p138
aS'dobj=cotton'
p139
aS'dobj=council'
p140
aS'dobj=crab'
p141
aS'dobj=crabmeat'
p142
aS'dobj=creation'
p143
aS'dobj=cup'
p144
aS'dobj=debt'
p145
aS'dobj=delegate'
p146
aS'dobj=detail'
p147
aS'dobj=difference'
p148
aS'dobj=document'
p149
aS'dobj=drug'
p150
aS'dobj=endorsement'
p151
aS'dobj=evidence'
p152
aS'dobj=expense'
p153
aS'dobj=favorite'
p154
aS'dobj=fiddle'
p155
aS'dobj=fight'
p156
aS'dobj=food'
p157
aS'dobj=fruit'
p158
aS'dobj=garbage'
p159
aS'dobj=girl'
p160
aS'dobj=goalkeeper'
p161
aS'dobj=guy'
p162
aS'dobj=half'
p163
aS'dobj=hostage'
p164
aS'dobj=house'
p165
aS'dobj=issue'
p166
aS'dobj=judge'
p167
aS'dobj=kettle'
p168
aS'dobj=kid'
p169
aS'dobj=mail'
p170
aS'dobj=man'
p171
aS'dobj=mandolin'
p172
aS'dobj=mantle'
p173
aS'dobj=market'
p174
aS'dobj=mate'
p175
aS'dobj=member'
p176
aS'dobj=micronutrient'
p177
aS'dobj=minister'
p178
aS'dobj=money'
p179
aS'dobj=mother'
p180
aS'dobj=name'
p181
aS'dobj=nominee'
p182
aS'dobj=object'
p183
aS'dobj=pace'
p184
aS'dobj=parliament'
p185
aS'dobj=part'
p186
aS'dobj=passenger'
p187
aS'dobj=password'
p188
aS'dobj=people'
p189
aS'dobj=person'
p190
aS'dobj=phone'
p191
aS'dobj=piece'
p192
aS'dobj=poison'
p193
aS'dobj=punch'
p194
aS'dobj=rights'
p195
aS'dobj=rubbish'
p196
aS'dobj=scapegoat'
p197
aS'dobj=sign'
p198
aS'dobj=signal'
p199
aS'dobj=somebody'
p200
aS'dobj=speed'
p201
aS'dobj=spot'
p202
aS'dobj=steam'
p203
aS'dobj=story'
p204
aS'dobj=student'
p205
aS'dobj=support'
p206
aS'dobj=surprise'
p207
aS'dobj=team'
p208
aS'dobj=that'
p209
aS'dobj=theme'
p210
aS'dobj=thread'
p211
aS'dobj=time'
p212
aS'dobj=topic'
p213
aS'dobj=trash'
p214
aS'dobj=trophy'
p215
aS'dobj=truck'
p216
aS'dobj=vegetable'
p217
aS'dobj=victory'
p218
aS'dobj=who'
p219
aS'dobj=winner'
p220
aS'dobj=woman'
p221
aS'mark=after'
p222
aS'mark=as'
p223
aS'mark=for'
p224
aS'mark=if'
p225
aS'mark=like'
p226
aS'neg=never'
p227
aS'neg=not'
p228
aS'nn=Cabinet'
p229
aS'nn=guitar'
p230
aS'nn=mining'
p231
aS'nn=vice'
p232
aS'nsubj=#NUMBER#'
p233
aS'nsubj=#PRP#'
p234
aS'nsubj=Basescu'
p235
aS'nsubj=Bush'
p236
aS'nsubj=Chavez'
p237
aS'nsubj=Clinton'
p238
aS'nsubj=Grisman'
p239
aS'nsubj=Helicopters'
p240
aS'nsubj=Imaging'
p241
aS'nsubj=Indonesia'
p242
aS'nsubj=Lee'
p243
aS'nsubj=Mammograms'
p244
aS'nsubj=McCain'
p245
aS'nsubj=Michael'
p246
aS'nsubj=NASA'
p247
aS'nsubj=NetAid'
p248
aS'nsubj=Obama'
p249
aS'nsubj=Pen'
p250
aS'nsubj=Police'
p251
aS'nsubj=Scala'
p252
aS'nsubj=Senator'
p253
aS'nsubj=Too'
p254
aS'nsubj=Welch'
p255
aS'nsubj=agency'
p256
aS'nsubj=ambulance'
p257
aS'nsubj=attack'
p258
aS'nsubj=authority'
p259
aS'nsubj=booking'
p260
aS'nsubj=business'
p261
aS'nsubj=campaign'
p262
aS'nsubj=demand'
p263
aS'nsubj=department'
p264
aS'nsubj=employer'
p265
aS'nsubj=fighting'
p266
aS'nsubj=filmmaker'
p267
aS'nsubj=force'
p268
aS'nsubj=investigator'
p269
aS'nsubj=investment'
p270
aS'nsubj=journalist'
p271
aS'nsubj=man'
p272
aS'nsubj=pace'
p273
aS'nsubj=people'
p274
aS'nsubj=reconstruction'
p275
aS'nsubj=republic'
p276
aS'nsubj=republican'
p277
aS'nsubj=sale'
p278
aS'nsubj=satellite'
p279
aS'nsubj=seeker'
p280
aS'nsubj=senator'
p281
aS'nsubj=ship'
p282
aS'nsubj=side'
p283
aS'nsubj=skeleton'
p284
aS'nsubj=so'
p285
aS'nsubj=some'
p286
aS'nsubj=that'
p287
aS'nsubj=use'
p288
aS'nsubj=voter'
p289
aS'nsubj=vulture'
p290
aS'nsubj=which'
p291
aS'nsubj=who'
p292
aS'nsubj=work'
p293
aS'nsubj=worker'
p294
aS'nsubjpass=#PRP#'
p295
aS'nsubjpass=Ford'
p296
aS'nsubjpass=Union'
p297
aS'nsubjpass=body'
p298
aS'nsubjpass=candidate'
p299
aS'nsubjpass=imam'
p300
aS'nsubjpass=migrant'
p301
aS'nsubjpass=music'
p302
aS'nsubjpass=other'
p303
aS'nsubjpass=patrol'
p304
aS'nsubjpass=pressure'
p305
aS'nsubjpass=signal'
p306
aS'nsubjpass=that'
p307
aS'nsubjpass=who'
p308
aS'parataxis=know'
p309
aS'parataxis=ton'
p310
aS'poss=#PRP#'
p311
aS'poss=Ahmedinejad'
p312
aS'poss=Obama'
p313
aS'prep=about'
p314
aS'prep=after'
p315
aS'prep=amid'
p316
aS'prep=among'
p317
aS'prep=as'
p318
aS'prep=at'
p319
aS'prep=before'
p320
aS'prep=by'
p321
aS'prep=during'
p322
aS'prep=for'
p323
aS'prep=from'
p324
aS'prep=in'
p325
aS'prep=inside'
p326
aS'prep=near'
p327
aS'prep=of'
p328
aS'prep=on'
p329
aS'prep=through'
p330
aS'prep=throughout'
p331
aS'prep=to'
p332
aS'prep=up'
p333
aS'prep=with'
p334
aS'prep=within'
p335
aS'prep=without'
p336
aS'prt=out'
p337
aS'prt=up'
p338
aS'rcmod=state'
p339
aS'tmod=#DATE#'
p340
aS'tmod=day'
p341
aS'tmod=month'
p342
aS'tmod=night'
p343
aS'tmod=season'
p344
aS'tmod=year'
p345
aS"w+1=''"
p346
aS'w+1=--'
p347
aS'w+1=-rrb-'
p348
aS'w+1=.'
p349
aS'w+1=112'
p350
aS'w+1=Clinton'
p351
aS'w+1=Gimpel'
p352
aS'w+1=Huckabee'
p353
aS'w+1=Lyndon'
p354
aS'w+1=Morgan'
p355
aS'w+1=Solo'
p356
aS'w+1=Spiderman'
p357
aS'w+1=Vietnam'
p358
aS'w+1=a'
p359
aS'w+1=and'
p360
aS'w+1=be'
p361
aS'w+1=between'
p362
aS'w+1=by'
p363
aS'w+1=cancer'
p364
aS'w+1=cotton'
p365
aS'w+1=crab'
p366
aS'w+1=crabmeat'
p367
aS'w+1=fight'
p368
aS'w+1=five'
p369
aS'w+1=for'
p370
aS'w+1=fresh'
p371
aS'w+1=half'
p372
aS'w+1=he'
p373
aS'w+1=house'
p374
aS'w+1=it'
p375
aS'w+1=itself'
p376
aS'w+1=method'
p377
aS'w+1=minister'
p378
aS'w+1=my'
p379
aS'w+1=on'
p380
aS'w+1=one'
p381
aS'w+1=out'
p382
aS'w+1=potential'
p383
aS'w+1=presidential'
p384
aS'w+1=scapegoat'
p385
aS'w+1=season'
p386
aS'w+1=she'
p387
aS'w+1=somebody'
p388
aS'w+1=the'
p389
aS'w+1=these'
p390
aS'w+1=they'
p391
aS'w+1=through'
p392
aS'w+1=to'
p393
aS'w+1=trash'
p394
aS'w+1=up'
p395
aS'w+1=vegetable'
p396
aS'w+1=we'
p397
aS'w+1=which'
p398
aS'w+1=who'
p399
aS'w+1=winner'
p400
aS'w+1=you'
p401
aS'w+2=,'
p402
aS'w+2=.'
p403
aS'w+2=13'
p404
aS'w+2=200-400'
p405
aS'w+2=50'
p406
aS'w+2=General'
p407
aS'w+2=Johnson'
p408
aS'w+2=President'
p409
aS'w+2=Saturn'
p410
aS'w+2=a'
p411
aS'w+2=abnormality'
p412
aS'w+2=again'
p413
aS'w+2=all'
p414
aS'w+2=and'
p415
aS'w+2=anybody'
p416
aS'w+2=appear'
p417
aS'w+2=architect'
p418
aS'w+2=arm'
p419
aS'w+2=as'
p420
aS'w+2=at'
p421
aS'w+2=baby'
p422
aS'w+2=bad'
p423
aS'w+2=best'
p424
aS'w+2=bit'
p425
aS'w+2=box'
p426
aS'w+2=break'
p427
aS'w+2=by'
p428
aS'w+2=can'
p429
aS'w+2=candidate'
p430
aS'w+2=choose'
p431
aS'w+2=clean'
p432
aS'w+2=clearer'
p433
aS'w+2=client'
p434
aS'w+2=close'
p435
aS'w+2=crop'
p436
aS'w+2=drug'
p437
aS'w+2=during'
p438
aS'w+2=endorsement'
p439
aS'w+2=evidence'
p440
aS'w+2=fairly'
p441
aS'w+2=favorite'
p442
aS'w+2=few'
p443
aS'w+2=fill'
p444
aS'w+2=first'
p445
aS'w+2=for'
p446
aS'w+2=four'
p447
aS'w+2=from'
p448
aS'w+2=fruit'
p449
aS'w+2=garbage'
p450
aS'w+2=good'
p451
aS'w+2=govern'
p452
aS'w+2=have'
p453
aS'w+2=he'
p454
aS'w+2=in'
p455
aS'w+2=inside'
p456
aS'w+2=issue'
p457
aS'w+2=its'
p458
aS'w+2=judge'
p459
aS'w+2=just'
p460
aS'w+2=key'
p461
aS'w+2=least'
p462
aS'w+2=low-hanging'
p463
aS'w+2=mail'
p464
aS'w+2=member'
p465
aS'w+2=mid-2009'
p466
aS'w+2=more'
p467
aS'w+2=mostly'
p468
aS'w+2=mother'
p469
aS'w+2=name'
p470
aS'w+2=new'
p471
aS'w+2=nominee'
p472
aS'w+2=not'
p473
aS'w+2=of'
p474
aS'w+2=official'
p475
aS'w+2=on'
p476
aS'w+2=once'
p477
aS'w+2=one'
p478
aS'w+2=other'
p479
aS'w+2=pace'
p480
aS'w+2=part'
p481
aS'w+2=party'
p482
aS'w+2=passenger'
p483
aS'w+2=perfect'
p484
aS'w+2=poison'
p485
aS'w+2=position'
p486
aS'w+2=presidential'
p487
aS'w+2=pretty'
p488
aS'w+2=prime'
p489
aS'w+2=punch'
p490
aS'w+2=really'
p491
aS'w+2=right'
p492
aS'w+2=rubbish'
p493
aS'w+2=run'
p494
aS'w+2=sign'
p495
aS'w+2=similar'
p496
aS'w+2=some'
p497
aS'w+2=speed'
p498
aS'w+2=spot'
p499
aS'w+2=state'
p500
aS'w+2=steam'
p501
aS'w+2=strongest'
p502
aS'w+2=student'
p503
aS'w+2=support'
p504
aS'w+2=surprise'
p505
aS'w+2=the'
p506
aS'w+2=these'
p507
aS'w+2=they'
p508
aS'w+2=thing'
p509
aS'w+2=this'
p510
aS'w+2=trash'
p511
aS'w+2=truck'
p512
aS'w+2=two'
p513
aS'w+2=up'
p514
aS'w+2=vice'
p515
aS'w+2=vote'
p516
aS'w+2=we'
p517
aS'w+2=when'
p518
aS'w+2=who'
p519
aS'w+2=winner'
p520
aS'w+2=with'
p521
aS'w+2=without'
p522
aS'w+2=you'
p523
aS"w-1='s"
p524
aS'w-1=,'
p525
aS'w-1=-'
p526
aS'w-1=-rrb-'
p527
aS'w-1=.'
p528
aS'w-1=...'
p529
aS'w-1=Basescu'
p530
aS'w-1=Bush'
p531
aS'w-1=Cabinet'
p532
aS'w-1=Clinton'
p533
aS'w-1=I'
p534
aS'w-1=Iraq'
p535
aS'w-1=McCain'
p536
aS'w-1=Michael'
p537
aS'w-1=NetAid'
p538
aS'w-1=Obama'
p539
aS'w-1=Police'
p540
aS'w-1=`'
p541
aS'w-1=a'
p542
aS'w-1=after'
p543
aS'w-1=also'
p544
aS'w-1=and'
p545
aS'w-1=apparently'
p546
aS'w-1=authority'
p547
aS'w-1=be'
p548
aS'w-1=boy'
p549
aS'w-1=can'
p550
aS'w-1=cargo'
p551
aS'w-1=cherry'
p552
aS'w-1=coffee'
p553
aS'w-1=could'
p554
aS'w-1=crab'
p555
aS'w-1=date'
p556
aS'w-1=day'
p557
aS'w-1=do'
p558
aS'w-1=employer'
p559
aS'w-1=finally'
p560
aS'w-1=first'
p561
aS'w-1=for'
p562
aS'w-1=from'
p563
aS'w-1=guitar'
p564
aS'w-1=have'
p565
aS'w-1=he'
p566
aS'w-1=in'
p567
aS'w-1=inspire'
p568
aS'w-1=it'
p569
aS'w-1=journalist'
p570
aS'w-1=just'
p571
aS'w-1=later'
p572
aS'w-1=may'
p573
aS'w-1=mining'
p574
aS'w-1=must'
p575
aS'w-1=never'
p576
aS'w-1=not'
p577
aS'w-1=now'
p578
aS'w-1=of'
p579
aS'w-1=often'
p580
aS'w-1=on'
p581
aS'w-1=only'
p582
aS'w-1=or'
p583
aS'w-1=other'
p584
aS'w-1=pace'
p585
aS'w-1=people'
p586
aS'w-1=politician'
p587
aS'w-1=president'
p588
aS'w-1=presidential'
p589
aS'w-1=really'
p590
aS'w-1=recently'
p591
aS'w-1=satellite'
p592
aS'w-1=ship'
p593
aS'w-1=should'
p594
aS'w-1=side'
p595
aS'w-1=skeleton'
p596
aS'w-1=sound'
p597
aS'w-1=still'
p598
aS'w-1=that'
p599
aS'w-1=then'
p600
aS'w-1=they'
p601
aS'w-1=to'
p602
aS'w-1=two'
p603
aS'w-1=we'
p604
aS'w-1=who'
p605
aS'w-1=will'
p606
aS'w-1=woman'
p607
aS'w-1=worker'
p608
aS'w-1=would'
p609
aS'w-1=you'
p610
aS"w-2=''"
p611
aS"w-2='s"
p612
aS'w-2=,'
p613
aS'w-2=--'
p614
aS'w-2=.'
p615
aS'w-2=21'
p616
aS'w-2=Cameroonian'
p617
aS'w-2=Chavez'
p618
aS'w-2=Colombia'
p619
aS'w-2=Cross'
p620
aS'w-2=D.C.'
p621
aS'w-2=Ford'
p622
aS'w-2=Grisman'
p623
aS'w-2=I'
p624
aS'w-2=Indonesia'
p625
aS'w-2=Korea'
p626
aS'w-2=MRI'
p627
aS'w-2=McCain'
p628
aS'w-2=Mrs.'
p629
aS'w-2=NASA'
p630
aS'w-2=Obama'
p631
aS'w-2=Ohio'
p632
aS'w-2=President'
p633
aS'w-2=Senator'
p634
aS'w-2=Singapore'
p635
aS'w-2=Sunday'
p636
aS'w-2=Too'
p637
aS'w-2=U.S.'
p638
aS'w-2=Varese'
p639
aS'w-2=a'
p640
aS'w-2=able'
p641
aS'w-2=admit'
p642
aS'w-2=after'
p643
aS'w-2=also'
p644
aS'w-2=ambulance'
p645
aS'w-2=and'
p646
aS'w-2=as'
p647
aS'w-2=ask'
p648
aS'w-2=at'
p649
aS'w-2=attack'
p650
aS'w-2=automotive'
p651
aS'w-2=back'
p652
aS'w-2=be'
p653
aS'w-2=big'
p654
aS'w-2=biofuel'
p655
aS'w-2=booking'
p656
aS'w-2=both'
p657
aS'w-2=business'
p658
aS'w-2=but'
p659
aS'w-2=can'
p660
aS'w-2=case'
p661
aS'w-2=caucus'
p662
aS'w-2=chance'
p663
aS'w-2=character'
p664
aS'w-2=child'
p665
aS'w-2=come'
p666
aS'w-2=compel'
p667
aS'w-2=container'
p668
aS'w-2=crustacean'
p669
aS'w-2=decision'
p670
aS'w-2=department'
p671
aS'w-2=do'
p672
aS'w-2=down'
p673
aS'w-2=empty'
p674
aS'w-2=expect'
p675
aS'w-2=famous'
p676
aS'w-2=film'
p677
aS'w-2=filmmaker'
p678
aS'w-2=focus'
p679
aS'w-2=for'
p680
aS'w-2=gather'
p681
aS'w-2=go'
p682
aS'w-2=growth'
p683
aS'w-2=have'
p684
aS'w-2=he'
p685
aS'w-2=how'
p686
aS'w-2=if'
p687
aS'w-2=imam'
p688
aS'w-2=importance'
p689
aS'w-2=in'
p690
aS'w-2=industry'
p691
aS'w-2=infection'
p692
aS'w-2=insurgent'
p693
aS'w-2=investigator'
p694
aS'w-2=investment'
p695
aS'w-2=issue'
p696
aS'w-2=it'
p697
aS'w-2=know'
p698
aS'w-2=leftist'
p699
aS'w-2=look'
p700
aS'w-2=memo'
p701
aS'w-2=migrant'
p702
aS'w-2=more'
p703
aS'w-2=music'
p704
aS'w-2=need'
p705
aS'w-2=negotiation'
p706
aS'w-2=norwegian'
p707
aS'w-2=not'
p708
aS'w-2=now'
p709
aS'w-2=of'
p710
aS'w-2=off'
p711
aS'w-2=one'
p712
aS'w-2=opportunity'
p713
aS'w-2=other'
p714
aS'w-2=partial'
p715
aS'w-2=patient'
p716
aS'w-2=patrol'
p717
aS'w-2=per'
p718
aS'w-2=police'
p719
aS'w-2=president'
p720
aS'w-2=press'
p721
aS'w-2=provide'
p722
aS'w-2=really'
p723
aS'w-2=refrigerator'
p724
aS'w-2=republican'
p725
aS'w-2=request'
p726
aS'w-2=research'
p727
aS'w-2=ring'
p728
aS'w-2=sale'
p729
aS'w-2=say'
p730
aS'w-2=secretary'
p731
aS'w-2=seeker'
p732
aS'w-2=senator'
p733
aS'w-2=she'
p734
aS'w-2=should'
p735
aS'w-2=signal'
p736
aS'w-2=site'
p737
aS'w-2=slow'
p738
aS'w-2=steam'
p739
aS'w-2=store'
p740
aS'w-2=take'
p741
aS'w-2=that'
p742
aS'w-2=the'
p743
aS'w-2=then'
p744
aS'w-2=these'
p745
aS'w-2=they'
p746
aS'w-2=those'
p747
aS'w-2=time'
p748
aS'w-2=to'
p749
aS'w-2=toy'
p750
aS'w-2=try'
p751
aS'w-2=use'
p752
aS'w-2=vice'
p753
aS'w-2=voter'
p754
aS'w-2=vulture'
p755
aS'w-2=want'
p756
aS'w-2=we'
p757
aS'w-2=when'
p758
aS'w-2=where'
p759
aS'w-2=who'
p760
aS'w-2=why'
p761
aS'w-2=will'
p762
aS'w-2=woman'
p763
aS'w-2=work'
p764
aS'w-2=worker'
p765
aS'w-2=would'
p766
aS'w-2=you'
p767
aS'xcomp=change'
p768
aS'xcomp=clean'
p769
aS'xcomp=come'
p770
aS'xcomp=fill'
p771
aS'xcomp=help'
p772
aS'xcomp=look'
p773
aS'xcomp=replace'
p774
aS'xcomp=run'
p775
aS'xcomp=thing'
p776
asS'dtype'
p777
cnumpy
float64
p778
sS'vocabulary_'
p779
(dp780
g46
I37
sg320
I311
sg279
I270
sg153
I144
sg95
I86
sg459
I450
sg105
I96
sg443
I434
sg727
I718
sg18
I9
sg438
I429
sg639
I630
sg164
I155
sg484
I475
sg226
I217
sg448
I439
sg276
I267
sg347
I338
sg193
I184
sg668
I659
sg693
I684
sg737
I728
sg258
I249
sg159
I150
sg705
I696
sg746
I737
sg261
I252
sg183
I174
sg321
I312
sg335
I326
sg374
I365
sg144
I135
sg77
I68
sg344
I335
sg609
I600
sg618
I609
sg332
I323
sg162
I153
sg142
I133
sg161
I152
sg390
I381
sg45
I36
sg20
I11
sg679
I670
sg724
I715
sg469
I460
sg33
I24
sg154
I145
sg606
I597
sg570
I561
sg535
I526
sg143
I134
sg58
I49
sg539
I530
sg548
I539
sg688
I679
sg242
I233
sg167
I158
sg695
I686
sg743
I734
sg449
I440
sg387
I378
sg616
I607
sg172
I163
sg748
I739
sg434
I425
sg72
I63
sg759
I750
sg559
I550
sg682
I673
sg531
I522
sg405
I396
sg722
I713
sg760
I751
sg290
I281
sg372
I363
sg380
I371
sg555
I546
sg445
I436
sg300
I291
sg547
I538
sg281
I272
sg417
I408
sg71
I62
sg243
I234
sg103
I94
sg184
I175
sg702
I693
sg455
I446
sg208
I199
sg519
I510
sg198
I189
sg554
I545
sg41
I32
sg544
I535
sg54
I45
sg677
I668
sg102
I93
sg505
I496
sg590
I581
sg342
I333
sg516
I507
sg137
I128
sg610
I601
sg642
I633
sg121
I112
sg263
I254
sg409
I400
sg60
I51
sg582
I573
sg428
I419
sg389
I380
sg515
I506
sg680
I671
sg391
I382
sg69
I60
sg568
I559
sg728
I719
sg201
I192
sg295
I286
sg694
I685
sg195
I186
sg254
I245
sg325
I316
sg145
I136
sg63
I54
sg626
I617
sg370
I361
sg269
I260
sg750
I741
sg776
I767
sg468
I459
sg84
I75
sg316
I307
sg595
I586
sg738
I729
sg498
I489
sg563
I554
sg218
I209
sg383
I374
sg683
I674
sg212
I203
sg89
I80
sg52
I43
sg86
I77
sg311
I302
sg211
I202
sg360
I351
sg622
I613
sg131
I122
sg719
I710
sg648
I639
sg200
I191
sg598
I589
sg267
I258
sg699
I690
sg106
I97
sg120
I111
sg299
I290
sg770
I761
sg446
I437
sg597
I588
sg594
I585
sg533
I524
sg287
I278
sg569
I560
sg338
I329
sg67
I58
sg713
I704
sg721
I712
sg520
I511
sg744
I735
sg90
I81
sg507
I498
sg480
I471
sg567
I558
sg79
I70
sg368
I359
sg268
I259
sg75
I66
sg546
I537
sg255
I246
sg475
I466
sg457
I448
sg225
I216
sg251
I242
sg517
I508
sg216
I207
sg764
I755
sg241
I232
sg551
I542
sg441
I432
sg49
I40
sg196
I187
sg306
I297
sg664
I655
sg501
I492
sg78
I69
sg236
I227
sg271
I262
sg658
I649
sg574
I565
sg189
I180
sg752
I743
sg223
I214
sg351
I342
sg502
I493
sg292
I283
sg101
I92
sg328
I319
sg608
I599
sg207
I198
sg710
I701
sg651
I642
sg166
I157
sg602
I593
sg740
I731
sg27
I18
sg486
I477
sg185
I176
sg17
I8
sg467
I458
sg603
I594
sg483
I474
sg113
I104
sg494
I485
sg672
I663
sg204
I195
sg739
I730
sg584
I575
sg309
I300
sg401
I392
sg665
I656
sg122
I113
sg237
I228
sg430
I421
sg19
I10
sg650
I641
sg9
I0
sg283
I274
sg741
I732
sg246
I237
sg444
I435
sg253
I244
sg504
I495
sg373
I364
sg357
I348
sg414
I405
sg620
I611
sg337
I328
sg224
I215
sg307
I298
sg289
I280
sg188
I179
sg550
I541
sg125
I116
sg641
I632
sg392
I383
sg663
I654
sg260
I251
sg170
I161
sg48
I39
sg774
I765
sg422
I413
sg68
I59
sg656
I647
sg734
I725
sg323
I314
sg205
I196
sg397
I388
sg485
I476
sg202
I193
sg350
I341
sg701
I692
sg365
I356
sg421
I412
sg173
I164
sg420
I411
sg76
I67
sg638
I629
sg394
I385
sg670
I661
sg51
I42
sg500
I491
sg556
I547
sg530
I521
sg64
I55
sg452
I443
sg524
I515
sg671
I662
sg35
I26
sg557
I548
sg451
I442
sg37
I28
sg423
I414
sg732
I723
sg114
I105
sg681
I672
sg232
I223
sg692
I683
sg587
I578
sg191
I182
sg134
I125
sg233
I224
sg107
I98
sg499
I490
sg491
I482
sg140
I131
sg43
I34
sg235
I226
sg725
I716
sg521
I512
sg366
I357
sg386
I377
sg384
I375
sg464
I455
sg747
I738
sg379
I370
sg623
I614
sg343
I334
sg586
I577
sg282
I273
sg432
I423
sg433
I424
sg463
I454
sg115
I106
sg388
I379
sg711
I702
sg136
I127
sg611
I602
sg474
I465
sg643
I634
sg266
I257
sg476
I467
sg393
I384
sg736
I727
sg435
I426
sg284
I275
sg454
I445
sg248
I239
sg181
I172
sg755
I746
sg771
I762
sg310
I301
sg715
I706
sg654
I645
sg462
I453
sg460
I451
sg26
I17
sg481
I472
sg30
I21
sg160
I151
sg529
I520
sg31
I22
sg336
I327
sg636
I627
sg564
I555
sg511
I502
sg538
I529
sg29
I20
sg560
I551
sg250
I241
sg326
I317
sg493
I484
sg612
I603
sg385
I376
sg576
I567
sg13
I4
sg47
I38
sg772
I763
sg513
I504
sg277
I268
sg553
I544
sg631
I622
sg293
I284
sg215
I206
sg40
I31
sg773
I764
sg285
I276
sg588
I579
sg473
I464
sg450
I441
sg766
I757
sg152
I143
sg427
I418
sg129
I120
sg100
I91
sg259
I250
sg341
I332
sg358
I349
sg510
I501
sg333
I324
sg362
I353
sg509
I500
sg704
I695
sg652
I643
sg407
I398
sg286
I277
sg230
I221
sg331
I322
sg675
I666
sg150
I141
sg305
I296
sg552
I543
sg110
I101
sg56
I47
sg536
I527
sg220
I211
sg352
I343
sg644
I635
sg62
I53
sg396
I387
sg471
I462
sg716
I707
sg518
I509
sg192
I183
sg634
I625
sg698
I689
sg669
I660
sg169
I160
sg274
I265
sg334
I325
sg706
I697
sg477
I468
sg297
I288
sg419
I410
sg256
I247
sg353
I344
sg761
I752
sg458
I449
sg667
I658
sg127
I118
sg687
I678
sg303
I294
sg28
I19
sg614
I605
sg690
I681
sg591
I582
sg720
I711
sg697
I688
sg607
I598
sg94
I85
sg629
I620
sg399
I390
sg733
I724
sg135
I126
sg249
I240
sg562
I553
sg93
I84
sg381
I372
sg116
I107
sg203
I194
sg666
I657
sg138
I129
sg619
I610
sg412
I403
sg543
I534
sg15
I6
sg585
I576
sg447
I438
sg549
I540
sg23
I14
sg176
I167
sg147
I138
sg763
I754
sg278
I269
sg312
I303
sg128
I119
sg678
I669
sg187
I178
sg50
I41
sg308
I299
sg684
I675
sg65
I56
sg238
I229
sg244
I235
sg406
I397
sg496
I487
sg363
I354
sg571
I562
sg361
I352
sg625
I616
sg87
I78
sg265
I256
sg503
I494
sg537
I528
sg758
I749
sg408
I399
sg96
I87
sg497
I488
sg148
I139
sg155
I146
sg345
I336
sg753
I744
sg482
I473
sg375
I366
sg209
I200
sg234
I225
sg252
I243
sg25
I16
sg466
I457
sg210
I201
sg217
I208
sg346
I337
sg119
I110
sg85
I76
sg74
I65
sg81
I72
sg66
I57
sg540
I531
sg83
I74
sg112
I103
sg206
I197
sg55
I46
sg126
I117
sg633
I624
sg729
I720
sg348
I339
sg213
I204
sg108
I99
sg769
I760
sg628
I619
sg745
I736
sg22
I13
sg109
I100
sg59
I50
sg82
I73
sg673
I664
sg175
I166
sg436
I427
sg662
I653
sg512
I503
sg16
I7
sg118
I109
sg653
I644
sg36
I27
sg416
I407
sg302
I293
sg565
I556
sg329
I320
sg222
I213
sg488
I479
sg117
I108
sg272
I263
sg146
I137
sg291
I282
sg11
I2
sg371
I362
sg558
I549
sg339
I330
sg487
I478
sg80
I71
sg461
I452
sg275
I266
sg418
I409
sg24
I15
sg382
I373
sg44
I35
sg489
I480
sg440
I431
sg592
I583
sg492
I483
sg21
I12
sg660
I651
sg123
I114
sg605
I596
sg756
I747
sg583
I574
sg378
I369
sg561
I552
sg514
I505
sg617
I608
sg580
I571
sg775
I766
sg456
I447
sg221
I212
sg158
I149
sg139
I130
sg579
I570
sg703
I694
sg749
I740
sg415
I406
sg340
I331
sg646
I637
sg395
I386
sg731
I722
sg177
I168
sg327
I318
sg751
I742
sg313
I304
sg712
I703
sg38
I29
sg765
I756
sg247
I238
sg685
I676
sg630
I621
sg398
I389
sg168
I159
sg39
I30
sg197
I188
sg165
I156
sg730
I721
sg369
I360
sg506
I497
sg319
I310
sg762
I753
sg318
I309
sg296
I287
sg613
I604
sg615
I606
sg304
I295
sg545
I536
sg596
I587
sg57
I48
sg659
I650
sg91
I82
sg364
I355
sg317
I308
sg528
I519
sg526
I517
sg525
I516
sg708
I699
sg709
I700
sg404
I395
sg157
I148
sg439
I430
sg624
I615
sg97
I88
sg649
I640
sg426
I417
sg647
I638
sg465
I456
sg229
I220
sg314
I305
sg686
I677
sg330
I321
sg635
I626
sg478
I469
sg442
I433
sg714
I705
sg98
I89
sg534
I525
sg73
I64
sg273
I264
sg589
I580
sg132
I123
sg645
I636
sg600
I591
sg640
I631
sg700
I691
sg70
I61
sg601
I592
sg245
I236
sg400
I391
sg111
I102
sg542
I533
sg541
I532
sg270
I261
sg367
I358
sg472
I463
sg355
I346
sg495
I486
sg298
I289
sg92
I83
sg566
I557
sg661
I652
sg527
I518
sg179
I170
sg437
I428
sg227
I218
sg718
I709
sg14
I5
sg726
I717
sg413
I404
sg508
I499
sg696
I687
sg315
I306
sg424
I415
sg757
I748
sg180
I171
sg214
I205
sg575
I566
sg637
I628
sg453
I444
sg717
I708
sg522
I513
sg768
I759
sg199
I190
sg99
I90
sg356
I347
sg182
I173
sg657
I648
sg88
I79
sg280
I271
sg124
I115
sg32
I23
sg156
I147
sg691
I682
sg754
I745
sg231
I222
sg632
I623
sg178
I169
sg593
I584
sg324
I315
sg532
I523
sg479
I470
sg262
I253
sg219
I210
sg429
I420
sg240
I231
sg264
I255
sg604
I595
sg61
I52
sg767
I758
sg735
I726
sg288
I279
sg12
I3
sg171
I162
sg10
I1
sg470
I461
sg410
I401
sg190
I181
sg676
I667
sg376
I367
sg723
I714
sg294
I285
sg174
I165
sg34
I25
sg53
I44
sg349
I340
sg742
I733
sg104
I95
sg403
I394
sg402
I393
sg689
I680
sg655
I646
sg149
I140
sg228
I219
sg186
I177
sg707
I698
sg322
I313
sg301
I292
sg627
I618
sg257
I248
sg674
I665
sg431
I422
sg354
I345
sg581
I572
sg523
I514
sg359
I350
sg578
I569
sg577
I568
sg572
I563
sg194
I185
sg141
I132
sg425
I416
sg573
I564
sg130
I121
sg621
I612
sg599
I590
sg490
I481
sg42
I33
sg377
I368
sg163
I154
sg239
I230
sg151
I142
sg411
I402
sg133
I124
ssS'separator'
p781
S'='
sS'sparse'
p782
I01
sb.