ccopy_reg
_reconstructor
p1
(csklearn.feature_extraction.dict_vectorizer
DictVectorizer
p2
c__builtin__
object
p3
NtRp4
(dp5
S'vocabulary_'
p6
(dp7
S'advmod=then'
p8
I25
sS'w+1=effigy'
p9
I278
sS'w-1=stand'
p10
I479
sS'nsubjpass=many'
p11
I206
sS'w+2=vehicle'
p12
I415
sS'advmod=more'
p13
I19
sS'nn=Kenya'
p14
I138
sS'w-2=cemetery'
p15
I536
sS'nsubj=shop'
p16
I178
sS'w-2=cloud'
p17
I539
sS'dep=do'
p18
I84
sS'w-2=people'
p19
I597
sS'w-1=most'
p20
I464
sS'w+2=during'
p21
I360
sS'w+2=my'
p22
I385
sS'w-2=house'
p23
I566
sS'w-2=road'
p24
I610
sS'w+2=number'
p25
I388
sS'w-1=walk'
p26
I494
sS'nsubjpass=that'
p27
I210
sS'w-2=of'
p28
I592
sS'w+2=very'
p29
I416
sS'w-2=polluted'
p30
I599
sS'w+2=coal'
p31
I354
sS'advcl=sit'
p32
I8
sS'w+1=around'
p33
I258
sS'dobj=garbage'
p34
I109
sS'nsubjpass=#PRP#'
p35
I196
sS'w-1=.'
p36
I426
sS'w-2=they'
p37
I630
sS'prep=than'
p38
I237
sS'nsubj=property'
p39
I175
sS'prep=by'
p40
I227
sS'nsubj=many'
p41
I164
sS'dobj=fire'
p42
I105
sS'nsubj=doctor'
p43
I155
sS'dobj=group'
p44
I110
sS'nsubj=government'
p45
I161
sS'w+2=dozen'
p46
I359
sS'w+2=forest'
p47
I364
sS'w-1=demonstrator'
p48
I441
sS'nsubj=river'
p49
I177
sS'w+1=building'
p50
I267
sS'w+1=corpse'
p51
I275
sS'w+1=beyond'
p52
I265
sS'w+1=20'
p53
I248
sS'w-2=release'
p54
I606
sS'nsubjpass=#NUMBER#'
p55
I195
sS'w+2=several'
p56
I400
sS'conj=destroy'
p57
I64
sS'w-1=will'
p58
I498
sS'w+2=six-day'
p59
I402
sS'nsubj=number'
p60
I171
sS'w+1=coal'
p61
I272
sS'xcomp=alive'
p62
I653
sS'w-1=by'
p63
I433
sS'w-2=Saida'
p64
I514
sS'w-1=be'
p65
I431
sS'nsubjpass=week'
p66
I212
sS"nsubj='s"
p67
I143
sS'w+2=livelihood'
p68
I380
sS'conj=ransack'
p69
I74
sS'w-2=family'
p70
I554
sS'w-2=shoot'
p71
I614
sS'nsubj=wildfire'
p72
I190
sS'w+2=village'
p73
I417
sS'w+1=she'
p74
I308
sS'w-2=fire'
p75
I555
sS'w-1=militiaman'
p76
I461
sS'w-2=specialize'
p77
I622
sS'w-2=result'
p78
I608
sS'dobj=everything'
p79
I104
sS'mark=because'
p80
I134
sS'aux=might'
p81
I40
sS'w-2=who'
p82
I647
sS'w+1=of'
p83
I298
sS'w+2=group'
p84
I367
sS'nsubj=village'
p85
I187
sS'w+1=on'
p86
I300
sS'w-2=many'
p87
I583
sS'w-2=car'
p88
I535
sS'w-2=market'
p89
I584
sS'w-1=some'
p90
I478
sS'advmod=partially'
p91
I21
sS'w-1=have'
p92
I451
sS'w+1=out-tree'
p93
I302
sS'w+2=in'
p94
I374
sS'w+1=victim'
p95
I322
sS'w+2=what'
p96
I420
sS'w-2=Lebanon'
p97
I510
sS'w-2=coal'
p98
I540
sS'w-1=severe'
p99
I477
sS'w+1=beneath'
p100
I264
sS'w-2=pulverize'
p101
I603
sS'w-2=arson'
p102
I523
sS'w-1=could'
p103
I438
sS'prep=about'
p104
I219
sS'aux=can'
p105
I36
sS'complm=that'
p106
I55
sS'prep=around'
p107
I221
sS'w+1=spontaneously'
p108
I309
sS'w+2=own'
p109
I396
sS'w-2=image'
p110
I569
sS'conj=launch'
p111
I70
sS'dep=on'
p112
I88
sS'w+2=nearby'
p113
I387
sS'w+1=government'
p114
I286
sS'advcl=be'
p115
I1
sS'w-1=wood'
p116
I500
sS'w+2=by'
p117
I347
sS'w+1=the'
p118
I311
sS'w+1=vehicle'
p119
I321
sS'w+2=heating'
p120
I369
sS'w+2=home'
p121
I371
sS'w+2=be'
p122
I344
sS'w+1=they'
p123
I313
sS'w-2=group'
p124
I562
sS'nsubj=militia'
p125
I167
sS'w-2=palate'
p126
I595
sS'w-2=ablaze'
p127
I515
sS'advmod=quickly'
p128
I22
sS'prep=beneath'
p129
I225
sS'prep=in'
p130
I231
sS'w-1=we'
p131
I495
sS'w+1=for'
p132
I281
sS'w-1=see'
p133
I476
sS'w+2=Fallujah'
p134
I335
sS'dobj=tire'
p135
I124
sS'dobj=thing'
p136
I123
sS'w+2=land'
p137
I378
sS'w-1=community'
p138
I437
sS'w-2=slogan'
p139
I620
sS'w-1=luo'
p140
I457
sS'nsubj=house'
p141
I163
sS'advmod=largely'
p142
I18
sS'w+2=recognition'
p143
I399
sS'prep=to'
p144
I238
sS'w-2=suicide'
p145
I626
sS'w-1=still'
p146
I481
sS'w+1=and'
p147
I257
sS'w+2=such'
p148
I405
sS'w-2=accord'
p149
I516
sS'w-2=mud'
p150
I587
sS'w-1=fire'
p151
I444
sS'dobj=candle'
p152
I97
sS'dobj=effigy'
p153
I103
sS'w+2=lower'
p154
I382
sS'dobj=forest'
p155
I107
sS'conj=kill'
p156
I69
sS'nsubj=that'
p157
I184
sS'w+1=woman'
p158
I325
sS'w+1=issue'
p159
I291
sS'w-2=refit'
p160
I605
sS'prt=up'
p161
I243
sS'nsubj=supporter'
p162
I182
sS'w-2=create'
p163
I544
sS'w+2=we'
p164
I419
sS'dobj=all'
p165
I93
sS'w+1=tire'
p166
I316
sS'conj=be'
p167
I57
sS'w-2=-rrb-'
p168
I505
sS'w-2=third'
p169
I631
sS'w-1=the'
p170
I487
sS'w-1=phosphorus'
p171
I471
sS'w+2=house'
p172
I373
sS'advmod=high'
p173
I16
sS'conj=contain'
p174
I61
sS'w+2=temperature'
p175
I406
sS'w-2=pillage'
p176
I598
sS'w-2=emit'
p177
I550
sS'advmod=where'
p178
I30
sS'w-1=Rome'
p179
I428
sS'w+2=day'
p180
I356
sS'w+2=lot'
p181
I381
sS'nsubj=Pakistan'
p182
I146
sS'dobj=calorie'
p183
I96
sS'w+2=when'
p184
I421
sS'w-1=coal'
p185
I436
sS'w-2=since'
p186
I618
sS'dobj=village'
p187
I129
sS'dobj=#DATE#'
p188
I90
sS'w-2=firecracker'
p189
I556
sS'nn=phosphorus'
p190
I141
sS'nsubj=youth'
p191
I193
sS'nsubj=troops'
p192
I186
sS'w+2=death'
p193
I357
sS'w-2=community'
p194
I543
sS'w+2=body'
p195
I345
sS'w-2=use'
p196
I638
sS'w-2=lower'
p197
I581
sS'conj=clear'
p198
I60
sS'prep=within'
p199
I240
sS'w+1=behind'
p200
I263
sS'mark=as'
p201
I133
sS'w+1=house'
p202
I288
sS'nsubj=who'
p203
I189
sS'w+1=car'
p204
I270
sS'w-2=shop'
p205
I615
sS'nsubj=Rome'
p206
I148
sS'dobj=issue'
p207
I114
sS'w-1=to'
p208
I490
sS'w-2=eat'
p209
I548
sS'dobj=fuel'
p210
I108
sS'w-1=supporter'
p211
I482
sS'w+2=more'
p212
I384
sS'w-1=two'
p213
I492
sS'w-2=barrier'
p214
I527
sS'dobj=#PRP#'
p215
I91
sS'w+1=completely'
p216
I273
sS'advmod=completely'
p217
I14
sS'xcomp=litter'
p218
I657
sS'w+1=you'
p219
I328
sS'w-2=everything'
p220
I552
sS'w-2=zanu-pf'
p221
I652
sS'w+2=car'
p222
I348
sS'w-2=attack'
p223
I525
sS'w-2=take'
p224
I627
sS'prep=over'
p225
I236
sS'w+1=as'
p226
I259
sS'w-2=another'
p227
I519
sS'w+1=at'
p228
I260
sS'w-2=drain'
p229
I547
sS'nsubj=City'
p230
I144
sS'advcl=favorable'
p231
I3
sS'w-1=doctor'
p232
I442
sS'prt=out'
p233
I242
sS'nsubj=barricade'
p234
I151
sS'w-2=arm'
p235
I522
sS'w-2=most'
p236
I586
sS'w-1=can'
p237
I434
sS'w-2=produce'
p238
I601
sS'w+1=everything'
p239
I279
sS'tmod=today'
p240
I244
sS'w+1=copy'
p241
I274
sS'ccomp=be'
p242
I49
sS'dobj=home'
p243
I112
sS'w-1=with'
p244
I499
sS'nsubj=cemetery'
p245
I152
sS'advmod=most'
p246
I20
sS'w-2=mainly'
p247
I582
sS'advmod=when'
p248
I29
sS'w+1=luxury'
p249
I294
sS'w-2=she'
p250
I612
sS'prep=for'
p251
I230
sS'w+2=percent'
p252
I397
sS'nsubjpass=farm'
p253
I202
sS'dobj=corpse'
p254
I101
sS'w-2=colonial'
p255
I541
sS'w-2=its'
p256
I575
sS'w+1=wood'
p257
I326
sS'w+2=as'
p258
I342
sS'w-2=nearby'
p259
I589
sS'partmod=move'
p260
I217
sS'dep=make'
p261
I87
sS'w+1=trash'
p262
I319
sS'dobj=canoe'
p263
I98
sS'conj=irritate'
p264
I68
sS'w-2=appear'
p265
I521
sS'dep=leave'
p266
I85
sS'conj=wound'
p267
I82
sS'auxpass=be'
p268
I44
sS"w-1='s"
p269
I423
sS'w-2=with'
p270
I649
sS'dobj=wood'
p271
I131
sS'advmod=still'
p272
I24
sS'w+1=stove'
p273
I310
sS'w-2=stove'
p274
I624
sS'dobj=dozen'
p275
I102
sS'nsubj=mob'
p276
I169
sS'w+2=float'
p277
I363
sS'w+1=american'
p278
I256
sS'w-2=river'
p279
I609
sS'w+1=near'
p280
I297
sS'w+1=its'
p281
I293
sS'w-1=mob'
p282
I462
sS'advcl=sleep'
p283
I9
sS'w-2=body'
p284
I531
sS'xcomp=lie'
p285
I656
sS'w-2=Kikuyus'
p286
I509
sS'w+1=periodically'
p287
I305
sS'dobj=lot'
p288
I116
sS'w+1=village'
p289
I323
sS'w+2=air'
p290
I339
sS'nsubj=plane'
p291
I173
sS'w-1=people'
p292
I470
sS'w+2=church'
p293
I351
sS'w+2=christian'
p294
I350
sS'dobj=vehicle'
p295
I127
sS'dobj=body'
p296
I94
sS'parataxis=use'
p297
I216
sS'w-2=Pakistan'
p298
I513
sS'w-2=anti-american'
p299
I520
sS'w-2=violence'
p300
I642
sS'w+2=or'
p301
I392
sS'w+2=effigy'
p302
I361
sS"w-2=''"
p303
I503
sS'dobj=Habile'
p304
I92
sS'w-2=crowd'
p305
I545
sS'w+2=of'
p306
I389
sS'w+2=on'
p307
I390
sS'w+1=to'
p308
I317
sS'w-2=emission'
p309
I549
sS'w+2=carbon-rich'
p310
I349
sS'w+2=he'
p311
I368
sS'nsubjpass=vehicle'
p312
I211
sS'prep=into'
p313
I232
sS'prep=with'
p314
I239
sS'w-2=Gogol'
p315
I508
sS'w-2=street'
p316
I625
sS'w+2=trash'
p317
I413
sS'w-1=report'
p318
I475
sS'w-2=bruise'
p319
I533
sS'conj=loot'
p320
I71
sS'w+2=Habile'
p321
I336
sS'w+2=from'
p322
I365
sS'w+2=two'
p323
I414
sS'w-2=young'
p324
I651
sS'w-2=briquette'
p325
I532
sS'w-2=furnace'
p326
I558
sS'w-2=daughter'
p327
I546
sS'w-2=instead'
p328
I572
sS'csubj=fight'
p329
I83
sS'w-1=flame'
p330
I445
sS'w+1=thing'
p331
I314
sS'aux=be'
p332
I35
sS'w-2=responsible'
p333
I607
sS'w-2=fail'
p334
I553
sS'nsubj=energy'
p335
I157
sS'w+1=because'
p336
I262
sS'w+2=near'
p337
I386
sS'w+1=over'
p338
I303
sS'w-2=generate'
p339
I561
sS'w+2=break'
p340
I346
sS'w+2=those'
p341
I410
sS'advmod=close'
p342
I13
sS'xcomp=welcome'
p343
I660
sS'amod=eternal'
p344
I32
sS'auxpass=get'
p345
I45
sS'advcl=prefer'
p346
I6
sS'w-1=militant'
p347
I460
sS'nsubjpass=coal'
p348
I200
sS'conj=cover'
p349
I62
sS'w-2=which'
p350
I645
sS'w-1=house'
p351
I454
sS'w+1=candle'
p352
I269
sS'w-1=other'
p353
I468
sS'w-2=child'
p354
I537
sS'advmod=there'
p355
I26
sS'nsubj=some'
p356
I180
sS'conj=allege'
p357
I56
sS'dobj=coal'
p358
I100
sS'mark=while'
p359
I135
sS'w-1=they'
p360
I489
sS'aux=do'
p361
I38
sS'w+2=over'
p362
I395
sS'w-2=problem'
p363
I600
sS'prep=behind'
p364
I224
sS'aux=will'
p365
I43
sS'w+2=voter'
p366
I418
sS'nsubj=fire'
p367
I159
sS'w-2=largely'
p368
I576
sS'w-2=rape'
p369
I604
sS'dobj=car'
p370
I99
sS'conj=cause'
p371
I58
sS'nsubj=people'
p372
I172
sS'dobj=flag'
p373
I106
sS'cc=or'
p374
I47
sS'w-2=sit'
p375
I619
sS'w-2=Omderman'
p376
I512
sS'w-2=eternal'
p377
I551
sS'w+2=decision'
p378
I358
sS'w-2=troops'
p379
I636
sS'w+2=lie'
p380
I379
sS'advmod=inside'
p381
I17
sS'w+2=its'
p382
I377
sS'advmod=therefore'
p383
I27
sS'w-2=if'
p384
I568
sS'nsubj=most'
p385
I170
sS'w-2=in'
p386
I570
sS'amod=severe'
p387
I33
sS'w-2=victim'
p388
I640
sS'w-2=it'
p389
I574
sS'w+1=oil'
p390
I299
sS'advmod=since'
p391
I23
sS'w+2=fuel'
p392
I366
sS'w-2=vehicle'
p393
I639
sS'w+2=tire'
p394
I411
sS'w-2=injure'
p395
I571
sS'nsubj=militant'
p396
I166
sS'advcl=reduce'
p397
I7
sS'nsubjpass=family'
p398
I201
sS'w-1=degree'
p399
I440
sS'xcomp=american'
p400
I654
sS'w-2=come'
p401
I542
sS'w-2=meet'
p402
I585
sS"w+2=''"
p403
I330
sS'conj=march'
p404
I72
sS'conj=hurl'
p405
I67
sS'nn=degree'
p406
I139
sS'dobj=victim'
p407
I128
sS'w+2=pure'
p408
I398
sS'w-2=transport'
p409
I635
sS'nsubj=home'
p410
I162
sS'w-2=program'
p411
I602
sS'w+2=ash'
p412
I343
sS'w-2=gas'
p413
I559
sS'w+2=clear'
p414
I353
sS'advmod=why'
p415
I31
sS'w-2=have'
p416
I563
sS'w+1=fossil'
p417
I283
sS'cc=and'
p418
I46
sS'w-2=village'
p419
I641
sS'w+1=also'
p420
I255
sS'conj=damage'
p421
I63
sS'w+1=by'
p422
I268
sS'w+1=be'
p423
I261
sS'w+1=wreckage'
p424
I327
sS'nsubjpass=fuel'
p425
I203
sS'nsubjpass=settlement'
p426
I208
sS"w+2='s"
p427
I331
sS'w-2=shipment'
p428
I613
sS'nsubjpass=wife'
p429
I214
sS'w-1=home'
p430
I453
sS'conj=say'
p431
I76
sS'w+1=home'
p432
I287
sS'w-2=ice'
p433
I567
sS'w-2=let'
p434
I578
sS'w-2=amid'
p435
I517
sS'w+1=in'
p436
I289
sS'w+2=to'
p437
I412
sS'w+1=it'
p438
I292
sS'nsubj=young'
p439
I192
sS'advmod=down'
p440
I15
sS'nsubj=#PRP#'
p441
I142
sS'nsubj=Market'
p442
I145
sS'w-1=from'
p443
I447
sS'w-2=Diallo'
p444
I507
sS'w-2=Maasai'
p445
I511
sS'w+2=shell'
p446
I401
sS'w+2=alive'
p447
I340
sS'w+1=into'
p448
I290
sS'w-1=symbol'
p449
I483
sS'w-2=barn'
p450
I526
sS'advcl=finish'
p451
I4
sS'w-1=young'
p452
I501
sS'poss=#PRP#'
p453
I218
sS'xcomp=make'
p454
I658
sS'dobj=six-day'
p455
I120
sS'w+1=school'
p456
I307
sS'aux=could'
p457
I37
sS'prep=like'
p458
I233
sS'nsubj=zanu-pf'
p459
I194
sS'w-2=the'
p460
I628
sS'w-2=show'
p461
I617
sS'prep=beyond'
p462
I226
sS'w-1=partially'
p463
I469
sS'w-2=these'
p464
I629
sS'w-1=tolerate'
p465
I491
sS'nsubjpass=part'
p466
I207
sS'w-2=home'
p467
I565
sS'w+1=today'
p468
I318
sS'w-1=material'
p469
I458
sS'w-1=might'
p470
I459
sS'w+2=inside'
p471
I375
sS"w+1='s"
p472
I245
sS'w+2=skin'
p473
I403
sS'nsubj=worker'
p474
I191
sS'w-2=be'
p475
I529
sS'w-2=sort'
p476
I621
sS'prep=of'
p477
I234
sS'conj=chant'
p478
I59
sS'xcomp=prompt'
p479
I659
sS'nsubj=symbol'
p480
I183
sS'w+1=three'
p481
I315
sS'prep=on'
p482
I235
sS'mark=after'
p483
I132
sS'w-1=largely'
p484
I455
sS'nsubjpass=some'
p485
I209
sS'nsubj=fuel'
p486
I160
sS'w+2=hole'
p487
I370
sS'w-2=less'
p488
I577
sS'nsubj=which'
p489
I188
sS'nn=flame'
p490
I140
sS'conj=take'
p491
I79
sS'conj=violence'
p492
I81
sS'w+1=.'
p493
I247
sS'w+1=all'
p494
I254
sS'w+1=body'
p495
I266
sS'w+2=that'
p496
I407
sS'conj=protest'
p497
I73
sS'nsubj=everything'
p498
I158
sS'dobj=hole'
p499
I111
sS'w-1=who'
p500
I497
sS'nsubj=church'
p501
I153
sS'w-2=want'
p502
I643
sS'w-1=or'
p503
I467
sS'nsubj=Wood'
p504
I149
sS'w-2=footage'
p505
I557
sS'nsubjpass=Cherkasov'
p506
I197
sS'conj=escalate'
p507
I65
sS'w+1=carbon-based'
p508
I271
sS'dobj=woman'
p509
I130
sS'ccomp=implement'
p510
I52
sS'w-2=observe'
p511
I591
sS'w-1=of'
p512
I466
sS'conj=set'
p513
I77
sS'w+2=smoke'
p514
I404
sS'w+2=out'
p515
I394
sS'w-2=to'
p516
I633
sS'w+2=and'
p517
I341
sS'dobj=trash'
p518
I126
sS'w-2=and'
p519
I518
sS'w+1=up'
p520
I320
sS'w-1=start'
p521
I480
sS'w-2=tortured'
p522
I634
sS'nsubj=problem'
p523
I174
sS'w-1=let'
p524
I456
sS'w-2=try'
p525
I637
sS'dep=let'
p526
I86
sS'conj=high'
p527
I66
sS'w+1=phosphorus'
p528
I306
sS'w-2=lighter'
p529
I579
sS'nsubj=element'
p530
I156
sS'w-2=he'
p531
I564
sS'w+1=flare'
p532
I280
sS'w-2=steal'
p533
I623
sS'w+1=more'
p534
I296
sS'nsubj=spirit'
p535
I181
sS'w+1=with'
p536
I324
sS'w-2=church'
p537
I538
sS'dobj=house'
p538
I113
sS'w-2=say'
p539
I611
sS'nsubjpass=home'
p540
I204
sS'w+2=into'
p541
I376
sS'w+2=city'
p542
I352
sS'ccomp=shout'
p543
I54
sS'prep=at'
p544
I223
sS'prep=as'
p545
I222
sS'dobj=skin'
p546
I121
sS'ccomp=hut'
p547
I51
sS'w-2=,'
p548
I504
sS'w-2=.'
p549
I506
sS'w-1=and'
p550
I429
sS'w+2=make'
p551
I383
sS'dobj=number'
p552
I117
sS'aux=have'
p553
I39
sS'advcl=vent'
p554
I10
sS'advmod=today'
p555
I28
sS'w+2=hotel'
p556
I372
sS'nsubj=militiaman'
p557
I168
sS'w-1=,'
p558
I424
sS'w-2=not'
p559
I590
sS'w-2=while'
p560
I646
sS'w-2=wildfire'
p561
I648
sS'w-2=as'
p562
I524
sS'advcl=angry'
p563
I0
sS'xcomp=flush'
p564
I655
sS'nsubj=Palestinians'
p565
I147
sS'w+2=one'
p566
I391
sS'w-1=which'
p567
I496
sS'w-2=pause'
p568
I596
sS'conj=throw'
p569
I80
sS'aux=should'
p570
I41
sS'w+1=during'
p571
I277
sS'w-1=system'
p572
I484
sS'w-1=tank'
p573
I485
sS'w-2=out'
p574
I594
sS'w-1=then'
p575
I488
sS'w+1=down'
p576
I276
sS'w+1=people'
p577
I304
sS'w-2=intersection'
p578
I573
sS'w+1=fuel'
p579
I284
sS'w-2=loot'
p580
I580
sS'w+2=1,800'
p581
I334
sS'det=a'
p582
I89
sS'nsubjpass=which'
p583
I213
sS'nsubjpass=house'
p584
I205
sS'w+1=garbage'
p585
I285
sS'nsubjpass=body'
p586
I199
sS'w-2=murderous'
p587
I588
sS'nsubj=barn'
p588
I150
sS'advcl=christian'
p589
I2
sS'w-1=he'
p590
I452
sS'dobj=land'
p591
I115
sS'dobj=school'
p592
I118
sS'w+1=Monday'
p593
I251
sS'w+1=mean'
p594
I295
sS'w-1=-rrb-'
p595
I425
sS'advcl=know'
p596
I5
sS'parataxis=do'
p597
I215
sS'w+2=they'
p598
I409
sS'amod=third'
p599
I34
sS'nsubj=tire'
p600
I185
sS'w-2=we'
p601
I644
sS'w-1=youth'
p602
I502
sS'dobj=building'
p603
I95
sS'w+1=forest'
p604
I282
sS'prep=against'
p605
I220
sS'w-1=protester'
p606
I474
sS'cc=well'
p607
I48
sS'w-1=village'
p608
I493
sS'w-1=cause'
p609
I435
sS'conj=release'
p610
I75
sS'w-2=this'
p611
I632
sS'advmod=but'
p612
I12
sS'w-1=government'
p613
I450
sS'w-1=dump'
p614
I443
sS'w-1=property'
p615
I473
sS'nsubj=situation'
p616
I179
sS'w-1=de-orbit'
p617
I439
sS'ccomp=mean'
p618
I53
sS'w+2=within'
p619
I422
sS'w-1=plane'
p620
I472
sS'w+2=other'
p621
I393
sS'conj=store'
p622
I78
sS'prep=down'
p623
I228
sS'w+2=cooking'
p624
I355
sS'aux=to'
p625
I42
sS'w-2=you'
p626
I650
sS'w-2=should'
p627
I616
sS'nsubj=de-orbit'
p628
I154
sS'w+2=the'
p629
I408
sS'w-1=get'
p630
I449
sS'w-2=can'
p631
I534
sS'dobj=some'
p632
I122
sS'w-2=gasoline'
p633
I560
sS'dobj=shell'
p634
I119
sS'w-2=basically'
p635
I528
sS'w-1=monk'
p636
I463
sS'w-1=for'
p637
I446
sS'w+1=,'
p638
I246
sS'w+1=out'
p639
I301
sS'nsubj=protester'
p640
I176
sS'w+2=flag'
p641
I362
sS'w+2=.'
p642
I333
sS'w+2=,'
p643
I332
sS'w+1=;'
p644
I249
sS'w+2=!'
p645
I329
sS'neg=not'
p646
I137
sS'nsubj=member'
p647
I165
sS'prep=during'
p648
I229
sS'w+1=I'
p649
I250
sS'dobj=town'
p650
I125
sS'w-1=another'
p651
I430
sS'w+2=Junction'
p652
I337
sS'ccomp=come'
p653
I50
sS'w-1=Kenya'
p654
I427
sS'mark=with'
p655
I136
sS'w+1=a'
p656
I253
sS'w-1=not'
p657
I465
sS'prt=down'
p658
I241
sS'w-1=begin'
p659
I432
sS'w+1=U.S.'
p660
I252
sS'w-2=office'
p661
I593
sS'w-2=because'
p662
I530
sS'w-1=that'
p663
I486
sS'nsubjpass=all'
p664
I198
sS'w-1=fuel'
p665
I448
sS'w+2=a'
p666
I338
sS'w+1=themselves'
p667
I312
sS'advmod=basically'
p668
I11
ssS'dtype'
p669
cnumpy
float64
p670
sS'feature_names_'
p671
(lp672
g563
ag115
ag589
ag231
ag451
ag596
ag346
ag397
ag32
ag283
ag554
ag668
ag612
ag342
ag217
ag440
ag173
ag381
ag142
ag13
ag246
ag91
ag128
ag391
ag272
ag8
ag355
ag383
ag555
ag248
ag178
ag415
ag344
ag387
ag599
ag332
ag105
ag457
ag361
ag553
ag81
ag570
ag625
ag365
ag268
ag345
ag418
ag374
ag607
ag242
ag653
ag547
ag510
ag618
ag543
ag106
ag357
ag167
ag371
ag478
ag198
ag174
ag349
ag421
ag57
ag507
ag527
ag405
ag264
ag156
ag111
ag320
ag404
ag497
ag69
ag610
ag431
ag513
ag622
ag491
ag569
ag492
ag267
ag329
ag18
ag266
ag526
ag261
ag112
ag582
ag188
ag215
ag304
ag165
ag296
ag603
ag183
ag152
ag263
ag370
ag358
ag254
ag275
ag153
ag79
ag42
ag373
ag155
ag210
ag34
ag44
ag499
ag243
ag538
ag207
ag591
ag288
ag552
ag592
ag634
ag455
ag546
ag632
ag136
ag135
ag650
ag518
ag295
ag407
ag187
ag509
ag271
ag483
ag201
ag80
ag359
ag655
ag646
ag14
ag406
ag490
ag190
ag441
ag67
ag230
ag442
ag182
ag565
ag206
ag504
ag588
ag234
ag245
ag501
ag628
ag43
ag530
ag335
ag498
ag367
ag486
ag45
ag410
ag141
ag41
ag647
ag396
ag125
ag557
ag276
ag385
ag60
ag372
ag291
ag523
ag39
ag640
ag49
ag16
ag616
ag356
ag535
ag162
ag480
ag157
ag600
ag192
ag85
ag489
ag203
ag72
ag474
ag439
ag191
ag459
ag55
ag35
ag506
ag664
ag586
ag348
ag398
ag253
ag425
ag540
ag584
ag11
ag466
ag426
ag485
ag27
ag312
ag66
ag583
ag429
ag597
ag297
ag260
ag453
ag104
ag605
ag107
ag545
ag544
ag364
ag129
ag462
ag40
ag623
ag648
ag251
ag130
ag313
ag458
ag477
ag482
ag225
ag38
ag144
ag314
ag199
ag658
ag233
ag161
ag240
ag472
ag638
ag493
ag53
ag644
ag649
ag593
ag660
ag656
ag494
ag420
ag278
ag147
ag33
ag226
ag228
ag423
ag336
ag200
ag100
ag52
ag495
ag50
ag422
ag352
ag204
ag508
ag61
ag216
ag241
ag51
ag576
ag571
ag9
ag239
ag532
ag132
ag604
ag417
ag579
ag585
ag114
ag432
ag202
ag436
ag448
ag159
ag438
ag281
ag249
ag594
ag534
ag280
ag83
ag390
ag86
ag639
ag93
ag338
ag577
ag287
ag528
ag456
ag74
ag108
ag273
ag118
ag667
ag123
ag331
ag481
ag166
ag308
ag468
ag262
ag520
ag119
ag95
ag289
ag536
ag158
ag257
ag424
ag219
ag645
ag403
ag427
ag643
ag642
ag581
ag134
ag321
ag652
ag666
ag290
ag447
ag517
ag258
ag412
ag122
ag195
ag340
ag117
ag222
ag310
ag294
ag293
ag542
ag414
ag31
ag624
ag180
ag193
ag378
ag46
ag21
ag302
ag641
ag277
ag47
ag322
ag392
ag84
ag311
ag120
ag487
ag121
ag556
ag172
ag94
ag471
ag541
ag382
ag137
ag380
ag68
ag181
ag154
ag551
ag212
ag22
ag337
ag113
ag25
ag306
ag307
ag566
ag301
ag621
ag515
ag362
ag109
ag252
ag408
ag143
ag56
ag446
ag59
ag473
ag514
ag148
ag175
ag496
ag629
ag598
ag341
ag394
ag437
ag317
ag323
ag12
ag29
ag73
ag366
ag164
ag96
ag184
ag619
ag269
ag558
ag595
ag36
ag654
ag179
ag550
ag651
ag65
ag659
ag63
ag237
ag609
ag185
ag138
ag103
ag617
ag399
ag48
ag232
ag614
ag151
ag330
ag637
ag443
ag665
ag630
ag613
ag92
ag590
ag430
ag351
ag484
ag524
ag140
ag469
ag470
ag347
ag76
ag282
ag636
ag20
ag657
ag512
ag503
ag353
ag463
ag292
ag171
ag620
ag615
ag606
ag318
ag133
ag99
ag90
ag10
ag521
ag146
ag211
ag449
ag572
ag573
ag663
ag170
ag575
ag360
ag208
ag465
ag213
ag608
ag26
ag131
ag567
ag500
ag58
ag244
ag116
ag452
ag602
ag303
ag548
ag168
ag549
ag444
ag315
ag286
ag97
ag445
ag376
ag298
ag64
ag127
ag149
ag435
ag519
ag227
ag299
ag265
ag235
ag102
ag562
ag223
ag450
ag214
ag635
ag475
ag662
ag284
ag325
ag319
ag631
ag88
ag15
ag354
ag537
ag17
ag98
ag255
ag401
ag194
ag163
ag305
ag327
ag229
ag209
ag309
ag177
ag377
ag220
ag334
ag70
ag75
ag189
ag505
ag326
ag413
ag633
ag339
ag124
ag416
ag531
ag467
ag23
ag433
ag384
ag110
ag386
ag395
ag328
ag578
ag389
ag256
ag368
ag488
ag434
ag529
ag580
ag197
ag247
ag87
ag89
ag402
ag236
ag150
ag587
ag259
ag559
ag511
ag28
ag661
ag574
ag126
ag568
ag19
ag176
ag30
ag363
ag238
ag411
ag101
ag369
ag160
ag54
ag333
ag78
ag279
ag24
ag539
ag250
ag428
ag71
ag205
ag627
ag461
ag186
ag375
ag139
ag476
ag77
ag533
ag274
ag316
ag145
ag224
ag460
ag464
ag37
ag169
ag611
ag516
ag522
ag409
ag379
ag525
ag196
ag393
ag388
ag419
ag300
ag502
ag601
ag350
ag560
ag82
ag561
ag270
ag626
ag324
ag221
ag62
ag400
ag564
ag285
ag218
ag454
ag479
ag343
asS'separator'
p673
S'='
sS'sparse'
p674
I01
sb.