ccopy_reg
_reconstructor
p1
(csklearn.feature_extraction.dict_vectorizer
DictVectorizer
p2
c__builtin__
object
p3
NtRp4
(dp5
S'vocabulary_'
p6
(dp7
S'w+1=Senegar-Mitchell'
p8
I391
sS'conj=endemic'
p9
I72
sS'dobj=Prize'
p10
I115
sS'nsubj=Pentagon'
p11
I254
sS'w-1=Joy'
p12
I646
sS'advmod=more'
p13
I25
sS'w+1=nearly'
p14
I442
sS'w+2=grammy'
p15
I544
sS'w-2=staff'
p16
I884
sS'w+2=World'
p17
I501
sS'w-1=assistant'
p18
I675
sS'prep=before'
p19
I355
sS'w-2=people'
p20
I869
sS'w+2=among'
p21
I506
sS'w+2=daily'
p22
I526
sS'nsubj=Blige'
p23
I227
sS'dobj=percent'
p24
I167
sS'w-1=Christoff'
p25
I638
sS'dobj=sort'
p26
I186
sS'conj=request'
p27
I84
sS'dobj=Davis'
p28
I104
sS'w-2=straight'
p29
I885
sS'nsubj=child'
p30
I283
sS'w-1=West'
p31
I662
sS'dobj=paycheck'
p32
I166
sS'mark=like'
p33
I216
sS'w+1=triple'
p34
I469
sS'dobj=pay'
p35
I165
sS'w+2=buy'
p36
I519
sS'w-1=approach'
p37
I673
sS'w+1=minimum'
p38
I437
sS'w-2=new'
p39
I860
sS'w+2=reputation'
p40
I595
sS'w-2=Chili'
p41
I763
sS'w-2=just'
p42
I844
sS'w-2=nation'
p43
I859
sS'w+2=14'
p44
I482
sS'w+2=American'
p45
I490
sS'advcl=worry'
p46
I10
sS'w-2=they'
p47
I894
sS'prep=than'
p48
I368
sS'w-1=Vasco'
p49
I661
sS'w-1=trio'
p50
I736
sS'iobj=Plant'
p51
I203
sS'w+2=paycheck'
p52
I583
sS'w-2=crackdown'
p53
I817
sS'w-1=Pyongyang'
p54
I654
sS'prep=between'
p55
I356
sS'w-2=country'
p56
I816
sS'w+1=impressive'
p57
I428
sS'dobj=group'
p58
I147
sS'w-1=Maryland'
p59
I649
sS'w+2=master'
p60
I562
sS'nsubj=government'
p61
I300
sS'w-2=Democrats'
p62
I767
sS'prep=in'
p63
I362
sS'w+2=change'
p64
I522
sS'w+2=Grammy'
p65
I494
sS'w-1=skin'
p66
I726
sS'w-1=25.684'
p67
I634
sS'w-1=can'
p68
I681
sS'nsubj=both'
p69
I275
sS'w+2=gold'
p70
I543
sS'w+1=top'
p71
I468
sS'w-2=3.16'
p72
I754
sS'advmod=so'
p73
I34
sS'advmod=really'
p74
I32
sS'nsubj=influence'
p75
I304
sS'advmod=annually'
p76
I15
sS'nsubj=Young'
p77
I267
sS'advmod=just'
p78
I22
sS'w-2=support'
p79
I890
sS'nsubj=sign'
p80
I328
sS'w+1=in'
p81
I429
sS'dobj=beating'
p82
I125
sS'w-1=will'
p83
I743
sS'dobj=automatic'
p84
I123
sS'w+1=large'
p85
I432
sS'w+2=attention'
p86
I509
sS'w+2=engineering'
p87
I532
sS'nsubj=proposal'
p88
I322
sS'w+1=platinum'
p89
I448
sS'w-1=be'
p90
I676
sS'advmod=eventually'
p91
I18
sS"nsubj='s"
p92
I224
sS'w+2=livelihood'
p93
I559
sS'ccomp=bear'
p94
I55
sS'w-2=producer'
p95
I872
sS'w+1=she'
p96
I457
sS'w-1=Whipple'
p97
I663
sS'w-2=alive'
p98
I802
sS'dobj=nickname'
p99
I159
sS'w+2=70'
p100
I488
sS'w-1=star'
p101
I728
sS'ccomp=part'
p102
I59
sS'mark=because'
p103
I213
sS'w-1=Egypt'
p104
I640
sS'w+2=country'
p105
I524
sS'w-2=2001'
p106
I752
sS'iobj=#NUMBER#'
p107
I198
sS'w+1=partly'
p108
I447
sS'w+1=citizenship'
p109
I411
sS'w+2=to'
p110
I621
sS'w+1=on'
p111
I444
sS'w+2=ridicule'
p112
I598
sS'dobj=honor'
p113
I148
sS'w+2=fraction'
p114
I541
sS'w+2=first'
p115
I536
sS'w-2=market'
p116
I850
sS'w-2=continue'
p117
I813
sS'dep=what'
p118
I97
sS'w-1=have'
p119
I699
sS'ccomp=say'
p120
I63
sS'nsubj=Mostin'
p121
I252
sS'ccomp=prove'
p122
I60
sS'w+2=if'
p123
I551
sS'conj=need'
p124
I78
sS'nsubj=Egyptians'
p125
I236
sS'w+1=money'
p126
I438
sS'w+1=act'
p127
I395
sS'w-1=Ford'
p128
I642
sS'w-2=hope'
p129
I835
sS'w+2=200'
p130
I484
sS'w+2=greater'
p131
I545
sS'nsubj=Mary'
p132
I248
sS'w-2=may'
p133
I851
sS'w-1=Zimbabwe'
p134
I666
sS'ccomp=have'
p135
I57
sS'w-1=could'
p136
I683
sS'w+2=number'
p137
I575
sS'advmod=once'
p138
I29
sS'prep=about'
p139
I349
sS'aux=can'
p140
I42
sS'complm=that'
p141
I64
sS'prep=around'
p142
I352
sS'w+2=medal'
p143
I563
sS'w-1=really'
p144
I721
sS'tmod=month'
p145
I374
sS'nsubj=Somalis'
p146
I257
sS'w-2=Casey'
p147
I762
sS'w-2=Somalis'
p148
I790
sS'w-1=Streep'
p149
I656
sS'w+2=world'
p150
I627
sS'nsubj=thoroughbred'
p151
I338
sS'w+1=olympic'
p152
I443
sS'w+2=primary'
p153
I588
sS'nsubj=approach'
p154
I272
sS'advcl=be'
p155
I3
sS'w-2=mechanic'
p156
I854
sS'w-2=Baghdad'
p157
I760
sS'w+2=by'
p158
I520
sS'w+1=music'
p159
I440
sS'w+1=the'
p160
I461
sS'w-1=money'
p161
I709
sS'acomp=more'
p162
I1
sS'w+1=praise'
p163
I449
sS'xcomp=#PRP#'
p164
I916
sS'w+2=living'
p165
I560
sS'advmod=only'
p166
I30
sS'dobj=bread'
p167
I128
sS'w-2=instance'
p168
I840
sS'w+1=they'
p169
I463
sS'w-2=Tibbets'
p170
I793
sS'w-2=Crocodile'
p171
I764
sS'w-2=group'
p172
I828
sS'nsubj=West'
p173
I264
sS'w+1=over'
p174
I446
sS'w-2=Switzerland'
p175
I792
sS'dobj=record'
p176
I178
sS'w-1=already'
p177
I670
sS'w+1=wages'
p178
I472
sS'nsubjpass=#PRP#'
p179
I346
sS'dobj=living'
p180
I153
sS'aux=would'
p181
I49
sS'dobj=dollar'
p182
I141
sS'w+1=for'
p183
I422
sS'w-1=about'
p184
I667
sS'w-1=Americans'
p185
I635
sS'w+2=point'
p186
I586
sS'w+2=mining'
p187
I564
sS'nsubj=Tibbets'
p188
I261
sS'dobj=thing'
p189
I190
sS'advmod=yet'
p190
I39
sS'w-2=top'
p191
I897
sS'w-2=that'
p192
I892
sS"w-2='70"
p193
I748
sS'advmod=partly'
p194
I31
sS'advmod=largely'
p195
I23
sS'w+2=192'
p196
I483
sS'prep=to'
p197
I370
sS'dobj=grammy'
p198
I146
sS'w+2=trust'
p199
I622
sS'dobj=victory'
p200
I194
sS'conj=controversial'
p201
I68
sS'iobj=Mourides'
p202
I202
sS'w+2=record'
p203
I593
sS'advmod=ago'
p204
I11
sS'xcomp=win'
p205
I928
sS'w+1=and'
p206
I397
sS'nsubj=Dreamgirls'
p207
I234
sS'nsubj=network'
p208
I312
sS"w-2=De'Asia"
p209
I766
sS'dobj=third'
p210
I191
sS'nsubj=Monroe'
p211
I251
sS'nsubj=lawmaker'
p212
I306
sS'nsubj=Mirren'
p213
I250
sS'dobj=more'
p214
I157
sS'w-1=family'
p215
I691
sS'w+2=for'
p216
I539
sS'w-1=help'
p217
I701
sS'w+1=any'
p218
I399
sS'advmod=enough'
p219
I17
sS'w-1=producer'
p220
I719
sS'w-1=Grafton'
p221
I643
sS'nsubj=that'
p222
I337
sS'w-1=it'
p223
I704
sS'w-1=employee'
p224
I688
sS'w+2=duet'
p225
I530
sS'prt=up'
p226
I373
sS'advmod=alone'
p227
I12
sS'w-2=opportunity'
p228
I867
sS'w-2=here'
p229
I834
sS'nsubj=song'
p230
I332
sS'dobj=nomination'
p231
I161
sS'w+1=second'
p232
I454
sS'w+2=sufficient'
p233
I608
sS'w-2=teaching'
p234
I891
sS'dobj=same'
p235
I183
sS'w-2=Egyptians'
p236
I768
sS'nsubj=group'
p237
I301
sS'w-1=professor'
p238
I720
sS'dobj=reputation'
p239
I179
sS'aux=could'
p240
I43
sS'w+2=decent'
p241
I527
sS'w-2=Field'
p242
I771
sS'w+1=seven'
p243
I455
sS'mark=if'
p244
I215
sS'w+2=act'
p245
I503
sS'w-2=camel'
p246
I805
sS'w+2=Emmy'
p247
I492
sS'parataxis=add'
p248
I348
sS'w-2=hazard'
p249
I831
sS'w+2=negative'
p250
I570
sS'nsubj=professor'
p251
I321
sS'dobj=livelihood'
p252
I152
sS'nsubj=Grafton'
p253
I242
sS'advmod=where'
p254
I38
sS'iobj=#PRP#'
p255
I199
sS'w+2=lot'
p256
I561
sS'conj=reflect'
p257
I83
sS'w+2=nod'
p258
I572
sS'nsubj=pirate'
p259
I318
sS'dobj=Ortega'
p260
I111
sS'w-2=Gore'
p261
I774
sS'w-1=act'
p262
I668
sS'xcomp=spin'
p263
I924
sS'nsubj=Cash'
p264
I229
sS'dobj=bulldozer'
p265
I130
sS'ccomp=live'
p266
I58
sS'w-2=player'
p267
I870
sS'nsubj=all'
p268
I270
sS'w+1=Hell'
p269
I386
sS'w+2=higher'
p270
I548
sS'w-1=field'
p271
I692
sS'mark=than'
p272
I219
sS'w+2=30'
p273
I486
sS'dobj=country'
p274
I135
sS'dobj=doctorate'
p275
I140
sS'w-2=500'
p276
I755
sS'dobj=praise'
p277
I171
sS'dobj=power'
p278
I170
sS'w+2=honor'
p279
I549
sS'w-2=rate'
p280
I874
sS'iobj=Billboard'
p281
I200
sS'w+1=both'
p282
I408
sS'dobj=Grammys'
p283
I107
sS'w+1=beating'
p284
I402
sS'w+2=nation'
p285
I568
sS'w+2=2008'
p286
I485
sS'w-2=of'
p287
I863
sS'w-2=cocaine'
p288
I811
sS'dobj=cent'
p289
I131
sS'w-2=on'
p290
I865
sS'w-1=to'
p291
I735
sS'nsubj=band'
p292
I274
sS'nsubj=Davis'
p293
I232
sS'nsubj=adventure'
p294
I269
sS'w+2=more'
p295
I566
sS'w-2=ability'
p296
I799
sS'dobj=#PRP#'
p297
I99
sS'nsubj=enclave'
p298
I294
sS'w-2=do'
p299
I820
sS'csubj=consider'
p300
I86
sS'nsubj=cocaine'
p301
I284
sS'nsubj=boy'
p302
I276
sS'dobj=Hell'
p303
I108
sS'nsubj=report'
p304
I324
sS'conj=score'
p305
I85
sS'nsubj=farmer'
p306
I296
sS'nsubj=decentralization'
p307
I289
sS'acomp=much'
p308
I2
sS'dobj=Mauresmo'
p309
I110
sS'iobj=nickname'
p310
I208
sS'nsubj=singer'
p311
I329
sS'w+1=black'
p312
I407
sS'w+1=prize'
p313
I450
sS'w-1=-rrb-'
p314
I631
sS'w+2=hundred'
p315
I550
sS'prep=over'
p316
I366
sS'w+1=as'
p317
I400
sS'nsubj=Winehouse'
p318
I266
sS'dobj=money'
p319
I156
sS'nsubj=ceo'
p320
I281
sS'w-2=January'
p321
I778
sS'nsubj=performance'
p322
I317
sS'w-2=mobster'
p323
I856
sS'nsubj=company'
p324
I285
sS'dobj=less'
p325
I151
sS'w+1=he'
p326
I426
sS'w-2=song'
p327
I881
sS'w+2=all'
p328
I505
sS'conj=give'
p329
I74
sS'w-2=night'
p330
I862
sS'mark=for'
p331
I214
sS'w-1=country'
p332
I684
sS'w-1=would'
p333
I746
sS'nsubj=election'
p334
I293
sS'w-2=Laurence'
p335
I781
sS'w+2=Mourides'
p336
I496
sS'advmod=here'
p337
I19
sS'w-2=expect'
p338
I822
sS'w-2=J.'
p339
I777
sS'conj=as'
p340
I66
sS'nsubj=image'
p341
I303
sS'w-2=able'
p342
I800
sS'dep=Number'
p343
I89
sS'w+2=because'
p344
I514
sS'w-1=lawmaker'
p345
I707
sS'iobj=woman'
p346
I210
sS'w+1=$'
p347
I377
sS'w-1=those'
p348
I734
sS'w+1=two'
p349
I470
sS'dobj=equity'
p350
I142
sS'advmod=when'
p351
I37
sS'nsubj=Fishburne'
p352
I238
sS'w-2=game'
p353
I826
sS'w-2=idea'
p354
I837
sS'w+2=custom'
p355
I525
sS'dep=#PRP#'
p356
I88
sS'w-2=she'
p357
I878
sS'prep=for'
p358
I360
sS'w+1=10,000'
p359
I380
sS'dep=that'
p360
I96
sS'w-1=stingy'
p361
I730
sS'w+1=we'
p362
I473
sS'dobj=spot'
p363
I187
sS'w+2=41st'
p364
I487
sS'w-1=boxer'
p365
I678
sS'w-2=co-star'
p366
I810
sS'w+2=at'
p367
I508
sS'w+2=Grammys'
p368
I495
sS'w+1=equity'
p369
I417
sS'w-2=U.S.'
p370
I795
sS'dep=make'
p371
I94
sS'w-2=Mr.'
p372
I788
sS'w-1=here'
p373
I702
sS'w-1=once'
p374
I714
sS'dobj=Championships'
p375
I103
sS'w-1=Fishburne'
p376
I641
sS'dep=#NUMBER#'
p377
I87
sS'nsubj=camel'
p378
I278
sS'auxpass=be'
p379
I50
sS'nsubj=Streep'
p380
I259
sS'w-1=song'
p381
I727
sS'w+2=after'
p382
I504
sS'w-2=last'
p383
I845
sS'conj=develop'
p384
I69
sS'w-2=United'
p385
I797
sS'w-1=himself'
p386
I703
sS'w+2=number-one'
p387
I576
sS'advmod=still'
p388
I35
sS'conj=improve'
p389
I76
sS'advmod=much'
p390
I26
sS'w-1=fully'
p391
I696
sS'nsubj=dap'
p392
I288
sS'w-2=must'
p393
I858
sS'w-2=Toey'
p394
I794
sS'nsubj=Australia'
p395
I226
sS'nsubj=operation'
p396
I313
sS'w-2=Holbrooke'
p397
I775
sS'w-2=Paris'
p398
I789
sS'nsubj=#NUMBER#'
p399
I222
sS'w+2=she'
p400
I603
sS'w-2=city'
p401
I809
sS'w+2=peacetime'
p402
I584
sS'nsubj=teaching'
p403
I336
sS'w+2=with'
p404
I626
sS'w-2=Bennett'
p405
I761
sS'dobj=what'
p406
I196
sS'w+2=three-quarter'
p407
I617
sS"w-1=''"
p408
I629
sS'nsubj=Giamatti'
p409
I240
sS'w-2=those'
p410
I895
sS'dobj=appearance'
p411
I121
sS'w-2=younger'
p412
I915
sS'w-2=Gary'
p413
I772
sS'dobj=lot'
p414
I154
sS'dobj=citizenship'
p415
I134
sS'nsubj=Jason'
p416
I245
sS'dobj=nod'
p417
I160
sS'nsubj=Gore'
p418
I241
sS'w-1=people'
p419
I718
sS'w+2=public'
p420
I590
sS'dobj=ovation'
p421
I164
sS"w-1='"
p422
I628
sS'conj=employ'
p423
I71
sS'w-2=worker'
p424
I910
sS'nsubj=Field'
p425
I237
sS'prep=outside'
p426
I365
sS'w+1=Forest'
p427
I384
sS'dobj=medal'
p428
I155
sS"w-2=''"
p429
I747
sS'w+1=four'
p430
I423
sS'w-2=Europe'
p431
I769
sS'w+2=outside'
p432
I582
sS'w-2=midfielder'
p433
I855
sS'w-2=style'
p434
I889
sS'w+2=on'
p435
I579
sS'w+1=to'
p436
I466
sS'w+2=bronze'
p437
I518
sS'w-1=that'
p438
I732
sS'w+2=average'
p439
I510
sS'w-1=teaching'
p440
I731
sS'w-1=Jason'
p441
I645
sS'nsubj=Holbrooke'
p442
I244
sS'dobj=Performance'
p443
I114
sS'w+2=he'
p444
I547
sS'nsubj=capital'
p445
I280
sS'nsubj=showing'
p446
I327
sS'w-2=struggle'
p447
I887
sS'conj=have'
p448
I75
sS'prep=with'
p449
I372
sS'w-1=show'
p450
I724
sS'w+2=billion'
p451
I517
sS'w+1=critical'
p452
I412
sS'w+2=least'
p453
I556
sS'w+2=Golden'
p454
I493
sS'iobj=country'
p455
I206
sS'nsubj=staff'
p456
I333
sS'nsubj=veteran'
p457
I340
sS'nsubj=lecturer'
p458
I308
sS'w+1=there'
p459
I462
sS'dobj=Ali'
p460
I101
sS'w+2=five'
p461
I538
sS"w-2='s"
p462
I749
sS'w-1=she'
p463
I723
sS'acomp=less'
p464
I0
sS'nsubj=Nigeria'
p465
I253
sS'conj=not'
p466
I79
sS'nsubj=which'
p467
I341
sS'w+2=from'
p468
I542
sS'w+2=two'
p469
I623
sS'nsubj=gift'
p470
I299
sS'w-2=young'
p471
I914
sS'w+2=half'
p472
I546
sS'cc=well'
p473
I54
sS'w-2=when'
p474
I905
sS'w-2=instead'
p475
I841
sS'w-2=Atonement'
p476
I758
sS'w+2=now'
p477
I574
sS'dobj=Rehab'
p478
I116
sS'w-1=Cash'
p479
I637
sS'w-2=global'
p480
I827
sS'advmod=often'
p481
I28
sS'dobj=crown'
p482
I137
sS'w+2=rower'
p483
I599
sS'nsubj=butterfly'
p484
I277
sS'w+1=international'
p485
I430
sS'nsubj=exporter'
p486
I295
sS'w+2=every'
p487
I533
sS'xcomp=slaughter'
p488
I923
sS'w+2=berth'
p489
I515
sS'xcomp=survive'
p490
I926
sS'nsubj=Madlala-Routledge'
p491
I247
sS'w+1=too'
p492
I467
sS'w+2=much'
p493
I567
sS'w-2=skill'
p494
I880
sS'w-1=Nigeria'
p495
I651
sS'dobj=race'
p496
I175
sS'w+2=small'
p497
I605
sS'conj=asthe'
p498
I67
sS'nsubj=player'
p499
I319
sS'w-2=variety'
p500
I901
sS'w+2=this'
p501
I615
sS'dobj=degree'
p502
I138
sS'w-2=student'
p503
I888
sS'dobj=Artist'
p504
I102
sS'iobj=Whitacker'
p505
I205
sS'w+1=several'
p506
I456
sS'nsubj=star'
p507
I334
sS'w+1=between'
p508
I404
sS'xcomp=feed'
p509
I919
sS'w-2=college'
p510
I812
sS'w-2=adventure'
p511
I801
sS'w+2=thing'
p512
I614
sS'w+2=wage'
p513
I625
sS'w-2=child'
p514
I808
sS'conj=admit'
p515
I65
sS'nsubj=some'
p516
I331
sS'w+2=legally'
p517
I557
sS'w-1=belief'
p518
I677
sS'w-2=singles'
p519
I879
sS'dobj=boy'
p520
I127
sS'prep=while'
p521
I371
sS'mark=while'
p522
I220
sS'w-2=means'
p523
I853
sS'w-1=win'
p524
I744
sS'w-2=sell'
p525
I876
sS'aux=do'
p526
I44
sS'w-2=Amy'
p527
I757
sS'dobj=nairobbery'
p528
I158
sS'w+1=at'
p529
I401
sS'w-2=with'
p530
I909
sS'advcl=start'
p531
I7
sS'aux=will'
p532
I48
sS'dobj=place'
p533
I168
sS'advmod=already'
p534
I13
sS'w-1=Winehouse'
p535
I664
sS'w+1=less'
p536
I433
sS'w-2=university'
p537
I900
sS'nsubj=Whipple'
p538
I265
sS'w+2=ire'
p539
I553
sS'w-1=while'
p540
I741
sS'w-1=1980'
p541
I632
sS'nsubj=people'
p542
I316
sS'prep=per'
p543
I367
sS'iobj=Senegar-Mitchell'
p544
I204
sS'w-2=Fey'
p545
I770
sS'conj=pitch'
p546
I80
sS'w-2=candidate'
p547
I807
sS'w+2=salary'
p548
I600
sS'nsubj=work'
p549
I344
sS'nsubj=candidate'
p550
I279
sS'dobj=Oscars'
p551
I113
sS'w+1=big'
p552
I405
sS'w+2=one-seventh'
p553
I581
sS'w+2=profit'
p554
I589
sS'w-2=Mauritania'
p555
I785
sS'dobj=change'
p556
I132
sS'nsubj=Pyongyang'
p557
I256
sS'w+1=eight'
p558
I415
sS'w+2=first-time'
p559
I537
sS'w-1=eventually'
p560
I689
sS'conj=learn'
p561
I77
sS'w-2=lawyer'
p562
I846
sS'w+2=empowerment'
p563
I531
sS'w-1=Mirren'
p564
I650
sS'advcl=rush'
p565
I6
sS'w-2=in'
p566
I838
sS'w-1=recently'
p567
I722
sS'nsubj=service'
p568
I326
sS'iobj=grammy'
p569
I207
sS'dobj=attention'
p570
I122
sS'w-2=it'
p571
I843
sS'w-1=woman'
p572
I745
sS'w+1=scorecard'
p573
I453
sS'nsubj=Guiliani'
p574
I243
sS'dep=run'
p575
I95
sS'w-1=States'
p576
I655
sS'w+1=far'
p577
I420
sS'w+1=respect'
p578
I451
sS'w-1=Keys'
p579
I647
sS'cc=also'
p580
I51
sS'dobj=prize'
p581
I173
sS'nsubj=Ford'
p582
I239
sS'w+2=relief'
p583
I594
sS'nsubj=skin'
p584
I330
sS'nsubj=woman'
p585
I343
sS'w+2=Whitacker'
p586
I500
sS'nsubj=hazard'
p587
I302
sS'w+1=extra'
p588
I419
sS'w+2=revenue'
p589
I597
sS'w-1=after'
p590
I669
sS'w+2=place'
p591
I585
sS'nsubj=act'
p592
I268
sS'w-2=nice'
p593
I861
sS'ccomp=berth'
p594
I56
sS'nsubj=country'
p595
I286
sS'nsubj=discovery'
p596
I291
sS'w-2=and'
p597
I803
sS'dobj=farmer'
p598
I144
sS'w-2=worry'
p599
I912
sS'w+2=four'
p600
I540
sS'xcomp=work'
p601
I929
sS'advmod=also'
p602
I14
sS'dobj=respect'
p603
I180
sS'w-2=Johnny'
p604
I779
sS'nsubj=lawyer'
p605
I307
sS'nsubj=record'
p606
I323
sS'nsubj=assistant'
p607
I273
sS'mark=although'
p608
I212
sS'ccomp=report'
p609
I61
sS'w-1=Uganda'
p610
I659
sS'w-2=way'
p611
I903
sS'w+1=even'
p612
I418
sS'w+1=slightly'
p613
I459
sS'w-1=butterfly'
p614
I679
sS'advcl=pursue'
p615
I5
sS'w-2=Mary'
p616
I784
sS'w-2=two'
p617
I899
sS'dobj=wage'
p618
I195
sS'w-2=States'
p619
I791
sS'dobj=income'
p620
I149
sS'dobj=revenue'
p621
I181
sS'w+1=Kenya'
p622
I387
sS'w-2=Leone'
p623
I782
sS'w-1=wages'
p624
I738
sS'w-2=have'
p625
I830
sS'advcl=underway'
p626
I8
sS'cc=and'
p627
I52
sS'nsubj=student'
p628
I335
sS'aux=#NUMBER#'
p629
I40
sS'nsubj=Egypt'
p630
I235
sS'advmod=currently'
p631
I16
sS'nsubj=Democrats'
p632
I233
sS'w+2=through'
p633
I618
sS'nsubj=reporting'
p634
I325
sS'w+1=by'
p635
I410
sS'w+1=criticism'
p636
I413
sS'w+2=so'
p637
I606
sS'w+2=respect'
p638
I596
sS'w+2=nomination'
p639
I573
sS'w+2=rather'
p640
I591
sS'w-1=government'
p641
I697
sS'w+1=here'
p642
I427
sS'nsubj=film'
p643
I297
sS'w+1=50'
p644
I382
sS'w+2=Oscar'
p645
I497
sS'w-2=2004'
p646
I753
sS'dobj=real'
p647
I177
sS'w-1=2.13'
p648
I633
sS'nsubj=Troup'
p649
I262
sS'w-1=Peppers'
p650
I653
sS'tmod=year'
p651
I376
sS'nsubj=D'
p652
I231
sS'w+2=title'
p653
I620
sS'w+1=it'
p654
I431
sS'w-1=Young'
p655
I665
sS'nsubj=#PRP#'
p656
I223
sS'w+1=about'
p657
I393
sS'w-2=Maria'
p658
I783
sS'w-1=from'
p659
I695
sS'w-1=graphene'
p660
I698
sS'w+1=little'
p661
I434
sS'w+2=little'
p662
I558
sS'w+2=though'
p663
I616
sS'w+2=family'
p664
I534
sS'nsubj=dweller'
p665
I292
sS'w-1=typically'
p666
I737
sS'w-2=desire'
p667
I819
sS'cc=but'
p668
I53
sS'w-2=decide'
p669
I818
sS'w-2=set'
p670
I877
sS'w-2=operation'
p671
I866
sS'nsubj=parent'
p672
I314
sS'w-2=whose'
p673
I907
sS'w-1=start'
p674
I729
sS'dobj=#NUMBER#'
p675
I98
sS'dobj=support'
p676
I189
sS'w-2=or'
p677
I868
sS'w-1=Davis'
p678
I639
sS'advcl=play'
p679
I4
sS'w-1=company'
p680
I682
sS'w-2=intensity'
p681
I842
sS'w-2=the'
p682
I893
sS'dobj=trust'
p683
I193
sS'nsubj=who'
p684
I342
sS'nsubj=intensity'
p685
I305
sS'nsubj=Christoff'
p686
I230
sS'w-2=win'
p687
I908
sS'w-2=McCain'
p688
I786
sS'conj=provide'
p689
I81
sS'w-2=money'
p690
I857
sS'dep=amount'
p691
I90
sS'aux=must'
p692
I46
sS'w-2=like'
p693
I847
sS'dobj=fraction'
p694
I145
sS'w+2=teaching'
p695
I610
sS'dep=degree'
p696
I92
sS'w+2=time'
p697
I619
sS'nsubj=worker'
p698
I345
sS'w-2=be'
p699
I804
sS'w+2=civil'
p700
I523
sS'conj=earn'
p701
I70
sS'w-2=what'
p702
I904
sS'prep=of'
p703
I363
sS'w-2=income'
p704
I839
sS'xcomp=buy'
p705
I918
sS'w+1=three'
p706
I465
sS'prep=on'
p707
I364
sS'mark=after'
p708
I211
sS'w-1=itself'
p709
I705
sS'w+1=opportunity'
p710
I445
sS'nsubj=man'
p711
I309
sS'w+1=Grammys'
p712
I385
sS'w+1=go'
p713
I425
sS'nsubj=midfielder'
p714
I310
sS'w+2=1'
p715
I479
sS'w+1=bread'
p716
I409
sS'tmod=week'
p717
I375
sS'w-1=do'
p718
I685
sS'w-2=where'
p719
I906
sS'dobj=$'
p720
I100
sS'dobj=Jesus'
p721
I109
sS'xcomp=open'
p722
I921
sS'w+1=six'
p723
I458
sS'advmod=recently'
p724
I33
sS'prep=compare'
p725
I358
sS'w+2=of'
p726
I577
sS'nsubj=crackdown'
p727
I287
sS'w+2=same'
p728
I601
sS'w-2=hard'
p729
I829
sS'nsubj=Keys'
p730
I246
sS'w+1=admiration'
p731
I396
sS'nsubj=patrolman'
p732
I315
sS'w-2=to'
p733
I896
sS"w+2=''"
p734
I476
sS'nsubj=most'
p735
I311
sS'w+2=.'
p736
I478
sS'w+2=and'
p737
I507
sS'w-1=who'
p738
I742
sS'w-2=want'
p739
I902
sS'dobj=admiration'
p740
I118
sS'w-1=Guiliani'
p741
I644
sS'nsubj=Casey'
p742
I228
sS'w+1=Ortega'
p743
I388
sS'w-1=of'
p744
I712
sS'w-2=Kashmir'
p745
I780
sS'w-2=oil'
p746
I864
sS'advcl=work'
p747
I9
sS'nsubj=Americans'
p748
I225
sS'dep=be'
p749
I91
sS'w-2=field'
p750
I824
sS'w+1=up'
p751
I471
sS'w-1=exporter'
p752
I690
sS'w+1=while'
p753
I474
sS'w+2=cent'
p754
I521
sS'mark=so'
p755
I218
sS'w+2=real'
p756
I592
sS'w+2=Billboard'
p757
I491
sS'w-2=Australia'
p758
I759
sS'w+1=this'
p759
I464
sS'w+1=debt'
p760
I414
sS'xcomp=sufficient'
p761
I925
sS'nsubj=champion'
p762
I282
sS'w+1=Oscars'
p763
I389
sS'w+2=doctorate'
p764
I529
sS'w+2=80'
p765
I489
sS'w+2=slaughter'
p766
I604
sS'w+1=more'
p767
I439
sS'w+1=262'
p768
I381
sS'xcomp=pick'
p769
I922
sS'w-2=world'
p770
I911
sS'prep=during'
p771
I359
sS'advmod=now'
p772
I27
sS'dobj=salary'
p773
I182
sS'w-2=say'
p774
I875
sS'w-2=possible'
p775
I871
sS'w-2=quarterfinal'
p776
I873
sS'w+2=law'
p777
I554
sS'w+2=the'
p778
I612
sS'prep=at'
p779
I354
sS'nsubj=friend'
p780
I298
sS'prep=as'
p781
I353
sS'w-1=area'
p782
I674
sS'w-2=,'
p783
I750
sS'w-2=.'
p784
I751
sS'nsubjpass=trust'
p785
I347
sS'w-1=and'
p786
I672
sS'w-2=try'
p787
I898
sS'dobj=number'
p788
I162
sS'aux=have'
p789
I45
sS'w+1=billion'
p790
I406
sS'w+2=lease'
p791
I555
sS'w-1=flip-flop'
p792
I694
sS'w-2=:'
p793
I756
sS'prep=among'
p794
I351
sS'w+2=victory'
p795
I624
sS'w-1=,'
p796
I630
sS'nsubj=Teachers'
p797
I260
sS'w+2=11'
p798
I480
sS'w+2=12'
p799
I481
sS'dobj=share'
p800
I184
sS'xcomp=act'
p801
I917
sS'w-2=I'
p802
I776
sS'w-1=dweller'
p803
I686
sS'w+2=money'
p804
I565
sS'w-2=sparkling'
p805
I883
sS'w-2=man'
p806
I849
sS'w+1=meager'
p807
I436
sS'w-2=Gaza'
p808
I773
sS'w-1=also'
p809
I671
sS'w-2=how'
p810
I836
sS'prep=through'
p811
I369
sS'w+2=one'
p812
I580
sS'w-1=which'
p813
I740
sS'dobj=opportunity'
p814
I163
sS'w+1=another'
p815
I398
sS'w-2=council'
p816
I815
sS'dobj=award'
p817
I124
sS'dobj=distinction'
p818
I139
sS'dobj=status'
p819
I188
sS'dobj=title'
p820
I192
sS'w-2=a'
p821
I798
sS'w-1=they'
p822
I733
sS'nsubj=McCain'
p823
I249
sS'dobj=Globe'
p824
I106
sS'w-2=enclave'
p825
I821
sS'ccomp=ridicule'
p826
I62
sS'iobj=nomination'
p827
I209
sS'w-1=Tuesday'
p828
I658
sS'w+2=olympic'
p829
I578
sS'dobj=another'
p830
I120
sS'w-2=corruption'
p831
I814
sS'dobj=album'
p832
I119
sS'w-1=he'
p833
I700
sS'nsubj=Vasco'
p834
I263
sS'xcomp=nickname'
p835
I920
sS'w+1=many'
p836
I435
sS'dobj=chart-topper'
p837
I133
sS'w+2=nickname'
p838
I571
sS'dobj=profit'
p839
I174
sS'dobj=primary'
p840
I172
sS'w+1=from'
p841
I424
sS'w+2=farmer'
p842
I535
sS'dobj=criticism'
p843
I136
sS'w+2=Ph.'
p844
I498
sS'w+1=Plant'
p845
I390
sS'w+2=they'
p846
I613
sS'dep=feel'
p847
I93
sS'prep=after'
p848
I350
sS'w+2=best'
p849
I516
sS'w+1=must'
p850
I441
sS'w-1=Teachers'
p851
I657
sS'w-1=film'
p852
I693
sS'conj=rebel'
p853
I82
sS'w-2=year'
p854
I913
sS'dobj=berth'
p855
I126
sS'w+1=enough'
p856
I416
sS'w-2=mayor'
p857
I852
sS'w-2=soul'
p858
I882
sS'dobj=export'
p859
I143
sS'dobj=year'
p860
I197
sS'advmod=in'
p861
I21
sS'w+2=need'
p862
I569
sS'dobj=reaction'
p863
I176
sS'w-1=parent'
p864
I716
sS'w+1=Afghan'
p865
I383
sS'nsubj=producer'
p866
I320
sS'w-2=Merryl'
p867
I787
sS'w-2=likely'
p868
I848
sS'w+2=than'
p869
I611
sS'mark=since'
p870
I217
sS'w+1=five'
p871
I421
sS'advmod=how'
p872
I20
sS'dobj=accolade'
p873
I117
sS'w+1=run'
p874
I452
sS'w+2=U.S.'
p875
I499
sS'nsubj=dedication'
p876
I290
sS'dobj=point'
p877
I169
sS'dobj=Emmy'
p878
I105
sS'w-1=singer'
p879
I725
sS'prep=from'
p880
I361
sS'nsubj=trio'
p881
I339
sS'w-2=help'
p882
I833
sS'aux=to'
p883
I47
sS'dobj=Oscar'
p884
I112
sS'w-1=Valley'
p885
I660
sS'w-1=warming'
p886
I739
sS'w-1=only'
p887
I715
sS'w-1=election'
p888
I687
sS'w+1=accolade'
p889
I394
sS'w-2=can'
p890
I806
sS'w+2=praise'
p891
I587
sS'dobj=some'
p892
I185
sS'w+2=income'
p893
I552
sS'dobj=bronze'
p894
I129
sS'nsubj=Peppers'
p895
I255
sS'advmod=later'
p896
I24
sS'w+1=,'
p897
I378
sS'w+1=.'
p898
I379
sS'w-1=by'
p899
I680
sS'w+2=standing'
p900
I607
sS'w-1=largely'
p901
I706
sS'w+1=some'
p902
I460
sS'w+1=berth'
p903
I403
sS'w+2=,'
p904
I477
sS'w-1=often'
p905
I713
sS'w-2=strongman'
p906
I886
sS'neg=not'
p907
I221
sS'w+2=$'
p908
I475
sS'w-2=farmer'
p909
I823
sS'dobj=ire'
p910
I150
sS'w-1=Madlala-Routledge'
p911
I648
sS'w-1=Pentagon'
p912
I652
sS'w+2=second'
p913
I602
sS'w-2=Union'
p914
I796
sS'nsubj=Sopranos'
p915
I258
sS'w+2=degree'
p916
I528
sS'prep=by'
p917
I357
sS'w+2=award'
p918
I511
sS'iobj=Kenya'
p919
I201
sS'w+2=bachelor'
p920
I512
sS'w-1=Blige'
p921
I636
sS'w+2=support'
p922
I609
sS'w+1=a'
p923
I392
sS'w-1=now'
p924
I711
sS'w-1=not'
p925
I710
sS'w+2=a'
p926
I502
sS'w-2=he'
p927
I832
sS'w-2=David'
p928
I765
sS'xcomp=tax-free'
p929
I927
sS'nsubj=appearance'
p930
I271
sS'aux=be'
p931
I41
sS'w-2=for'
p932
I825
sS'w-1=patrolman'
p933
I717
sS'w+2=be'
p934
I513
sS'conj=focus'
p935
I73
sS'w-1=man'
p936
I708
sS'advmod=typically'
p937
I36
ssS'dtype'
p938
cnumpy
float64
p939
sS'feature_names_'
p940
(lp941
g464
ag162
ag308
ag155
ag679
ag615
ag565
ag531
ag626
ag747
ag46
ag204
ag227
ag534
ag602
ag76
ag631
ag219
ag91
ag337
ag872
ag861
ag78
ag195
ag896
ag13
ag390
ag772
ag481
ag138
ag166
ag194
ag74
ag724
ag73
ag388
ag937
ag351
ag254
ag190
ag629
ag931
ag140
ag240
ag526
ag789
ag692
ag883
ag532
ag181
ag379
ag580
ag627
ag668
ag473
ag94
ag594
ag135
ag266
ag102
ag122
ag609
ag826
ag120
ag141
ag515
ag340
ag498
ag201
ag384
ag701
ag423
ag9
ag935
ag329
ag448
ag389
ag561
ag124
ag466
ag546
ag689
ag853
ag257
ag27
ag305
ag300
ag377
ag356
ag343
ag691
ag749
ag696
ag847
ag371
ag575
ag360
ag118
ag675
ag297
ag720
ag460
ag504
ag375
ag28
ag878
ag824
ag283
ag303
ag721
ag309
ag260
ag884
ag551
ag443
ag10
ag478
ag873
ag740
ag832
ag830
ag411
ag570
ag84
ag817
ag82
ag855
ag520
ag167
ag894
ag265
ag289
ag556
ag837
ag415
ag274
ag843
ag482
ag502
ag818
ag275
ag182
ag350
ag859
ag598
ag694
ag198
ag58
ag113
ag620
ag910
ag325
ag252
ag180
ag414
ag428
ag319
ag214
ag528
ag99
ag417
ag231
ag788
ag814
ag421
ag35
ag32
ag24
ag533
ag877
ag278
ag277
ag840
ag581
ag839
ag496
ag863
ag647
ag176
ag239
ag603
ag621
ag773
ag235
ag800
ag892
ag26
ag363
ag819
ag676
ag189
ag210
ag820
ag683
ag200
ag618
ag406
ag860
ag107
ag255
ag281
ag919
ag202
ag51
ag544
ag505
ag455
ag569
ag310
ag827
ag346
ag708
ag608
ag103
ag331
ag244
ag33
ag870
ag755
ag272
ag522
ag907
ag399
ag656
ag92
ag748
ag395
ag23
ag742
ag264
ag686
ag652
ag293
ag632
ag207
ag630
ag125
ag425
ag352
ag582
ag409
ag418
ag253
ag574
ag442
ag416
ag730
ag491
ag132
ag823
ag213
ag211
ag121
ag465
ag11
ag895
ag557
ag146
ag915
ag380
ag797
ag188
ag649
ag834
ag173
ag538
ag318
ag77
ag592
ag294
ag268
ag930
ag154
ag607
ag292
ag69
ag302
ag484
ag378
ag550
ag445
ag320
ag762
ag30
ag301
ag324
ag595
ag727
ag392
ag307
ag876
ag596
ag665
ag334
ag298
ag486
ag306
ag643
ag780
ag470
ag61
ag237
ag587
ag341
ag75
ag685
ag212
ag605
ag458
ag711
ag714
ag735
ag208
ag396
ag672
ag732
ag542
ag322
ag259
ag499
ag866
ag251
ag88
ag606
ag304
ag634
ag568
ag446
ag80
ag311
ag584
ag516
ag230
ag456
ag507
ag628
ag403
ag222
ag151
ag881
ag457
ag467
ag684
ag585
ag549
ag698
ag179
ag785
ag248
ag139
ag848
ag794
ag142
ag781
ag779
ag19
ag55
ag917
ag725
ag771
ag358
ag880
ag63
ag703
ag707
ag426
ag316
ag543
ag48
ag811
ag197
ag521
ag449
ag226
ag145
ag717
ag651
ag347
ag897
ag898
ag359
ag768
ag644
ag865
ag427
ag712
ag269
ag622
ag743
ag763
ag845
ag8
ag923
ag657
ag889
ag127
ag731
ag206
ag815
ag218
ag317
ag529
ag284
ag903
ag508
ag552
ag790
ag312
ag282
ag716
ag635
ag109
ag452
ag636
ag760
ag558
ag856
ag369
ag612
ag588
ag577
ag871
ag183
ag430
ag841
ag713
ag326
ag642
ag57
ag81
ag485
ag654
ag85
ag536
ag661
ag836
ag807
ag38
ag126
ag767
ag159
ag850
ag14
ag152
ag111
ag710
ag174
ag108
ag89
ag163
ag313
ag578
ag874
ag573
ag232
ag243
ag506
ag96
ag723
ag613
ag902
ag160
ag459
ag169
ag759
ag706
ag436
ag492
ag71
ag34
ag349
ag751
ag178
ag362
ag753
ag908
ag734
ag904
ag736
ag715
ag798
ag799
ag44
ag196
ag130
ag286
ag273
ag364
ag100
ag765
ag45
ag757
ag247
ag454
ag65
ag368
ag336
ag645
ag844
ag875
ag586
ag17
ag926
ag245
ag382
ag328
ag21
ag737
ag367
ag86
ag439
ag918
ag920
ag934
ag344
ag489
ag849
ag451
ag437
ag36
ag158
ag754
ag64
ag700
ag105
ag355
ag22
ag241
ag916
ag764
ag225
ag563
ag87
ag487
ag664
ag842
ag115
ag559
ag461
ag216
ag600
ag114
ag468
ag70
ag15
ag131
ag472
ag444
ag270
ag279
ag315
ag123
ag893
ag539
ag777
ag791
ag453
ag517
ag662
ag93
ag165
ag256
ag60
ag143
ag187
ag804
ag295
ag493
ag285
ag862
ag250
ag838
ag258
ag639
ag477
ag137
ag387
ag726
ag829
ag435
ag812
ag553
ag432
ag52
ag402
ag591
ag186
ag891
ag153
ag554
ag420
ag640
ag756
ag203
ag583
ag40
ag638
ag589
ag112
ag483
ag548
ag728
ag913
ag400
ag766
ag497
ag637
ag900
ag233
ag922
ag695
ag869
ag778
ag846
ag512
ag501
ag663
ag407
ag633
ag697
ag653
ag110
ag199
ag469
ag795
ag513
ag404
ag150
ag422
ag408
ag796
ag314
ag541
ag648
ag67
ag185
ag921
ag479
ag25
ag678
ag104
ag376
ag128
ag221
ag741
ag441
ag12
ag579
ag911
ag59
ag564
ag495
ag912
ag650
ag54
ag576
ag149
ag851
ag828
ag610
ag885
ag49
ag31
ag97
ag535
ag655
ag134
ag184
ag262
ag590
ag177
ag809
ag786
ag37
ag782
ag18
ag90
ag518
ag365
ag614
ag899
ag68
ag680
ag136
ag332
ag718
ag803
ag888
ag224
ag560
ag752
ag215
ag271
ag852
ag792
ag659
ag391
ag641
ag660
ag119
ag833
ag217
ag373
ag386
ag223
ag709
ag901
ag345
ag936
ag161
ag925
ag924
ag744
ag905
ag374
ag887
ag864
ag933
ag419
ag220
ag238
ag144
ag567
ag463
ag450
ag879
ag66
ag381
ag101
ag674
ag361
ag440
ag438
ag822
ag348
ag291
ag50
ag666
ag624
ag886
ag813
ag540
ag738
ag83
ag524
ag572
ag333
ag429
ag193
ag462
ag783
ag784
ag106
ag646
ag72
ag276
ag793
ag527
ag476
ag758
ag157
ag405
ag147
ag41
ag171
ag928
ag209
ag62
ag236
ag431
ag545
ag242
ag413
ag808
ag261
ag397
ag802
ag339
ag321
ag604
ag745
ag335
ag623
ag658
ag616
ag555
ag688
ag867
ag372
ag398
ag148
ag619
ag175
ag170
ag394
ag370
ag914
ag385
ag821
ag296
ag342
ag511
ag98
ag597
ag699
ag246
ag890
ag547
ag514
ag401
ag366
ag288
ag510
ag117
ag831
ag816
ag56
ag53
ag669
ag667
ag299
ag825
ag338
ag909
ag750
ag932
ag353
ag480
ag172
ag729
ag625
ag249
ag927
ag882
ag229
ag129
ag810
ag354
ag566
ag704
ag168
ag475
ag681
ag571
ag42
ag383
ag562
ag693
ag868
ag806
ag116
ag133
ag857
ag523
ag156
ag433
ag323
ag690
ag393
ag43
ag39
ag593
ag330
ag287
ag746
ag290
ag671
ag228
ag677
ag20
ag267
ag775
ag95
ag776
ag280
ag774
ag525
ag670
ag357
ag519
ag494
ag327
ag858
ag805
ag16
ag29
ag906
ag447
ag503
ag434
ag79
ag234
ag192
ag682
ag47
ag410
ag733
ag191
ag787
ag617
ag537
ag500
ag739
ag611
ag702
ag474
ag719
ag673
ag687
ag530
ag424
ag770
ag599
ag854
ag471
ag412
ag164
ag801
ag705
ag509
ag835
ag722
ag769
ag488
ag263
ag761
ag490
ag929
ag205
ag601
asS'separator'
p942
S'='
sS'sparse'
p943
I01
sb.