ccopy_reg
_reconstructor
p1
(csklearn.feature_extraction.dict_vectorizer
DictVectorizer
p2
c__builtin__
object
p3
NtRp4
(dp5
S'sort'
p6
I01
sS'feature_names_'
p7
(lp8
S'advcl=need'
p9
aS'advcl=put'
p10
aS'advcl=try'
p11
aS'advmod=actually'
p12
aS'advmod=also'
p13
aS'advmod=close'
p14
aS'advmod=directly'
p15
aS'advmod=even'
p16
aS'advmod=here'
p17
aS'advmod=how'
p18
aS'advmod=more'
p19
aS'advmod=only'
p20
aS'advmod=usually'
p21
aS'advmod=well'
p22
aS'amod=al-awlaki'
p23
aS'amod=better'
p24
aS'amod=broader'
p25
aS'amod=collaborative'
p26
aS'amod=consular'
p27
aS'amod=control'
p28
aS'amod=difficult'
p29
aS'amod=direct'
p30
aS'amod=duty-free'
p31
aS'amod=easier'
p32
aS'amod=easy'
p33
aS'amod=equal'
p34
aS'amod=equitable'
p35
aS'amod=european'
p36
aS'amod=fair'
p37
aS'amod=fairer'
p38
aS'amod=first'
p39
aS'amod=free'
p40
aS'amod=full'
p41
aS'amod=give'
p42
aS'amod=good'
p43
aS'amod=greater'
p44
aS'amod=guarantee'
p45
aS'amod=humanitarian'
p46
aS'amod=immediate'
p47
aS'amod=improved'
p48
aS'amod=inadequate'
p49
aS'amod=increase'
p50
aS'amod=inequitable'
p51
aS'amod=insufficient'
p52
aS'amod=intermittent'
p53
aS'amod=international'
p54
aS'amod=liberalize'
p55
aS'amod=limit'
p56
aS'amod=limited'
p57
aS'amod=little'
p58
aS'amod=local'
p59
aS'amod=more'
p60
aS'amod=much'
p61
aS'amod=only'
p62
aS'amod=open'
p63
aS'amod=other'
p64
aS'amod=palestinian'
p65
aS'amod=poor'
p66
aS'amod=preferential'
p67
aS'amod=prompt'
p68
aS'amod=public'
p69
aS'amod=regular'
p70
aS'amod=safe'
p71
aS'amod=same'
p72
aS'amod=secure'
p73
aS'amod=sole'
p74
aS'amod=southern'
p75
aS'amod=timely'
p76
aS'amod=unequal'
p77
aS'amod=unhindered'
p78
aS'amod=universal'
p79
aS'amod=unrestricted'
p80
aS'amod=vast'
p81
aS'amod=vital'
p82
aS'amod=wider'
p83
aS'amod=win'
p84
aS'amod=wireless'
p85
aS'appos=chance'
p86
aS'aux=can'
p87
aS'aux=have'
p88
aS'aux=to'
p89
aS'aux=will'
p90
aS'auxpass=be'
p91
aS'cc=and'
p92
aS'cc=or'
p93
aS'ccomp=advantage'
p94
aS'ccomp=echo'
p95
aS'ccomp=have'
p96
aS'ccomp=say'
p97
aS'complm=that'
p98
aS'conj=ability'
p99
aS'conj=appointment'
p100
aS'conj=chance'
p101
aS'conj=cost'
p102
aS'conj=else'
p103
aS'conj=enable'
p104
aS'conj=environment'
p105
aS'conj=have'
p106
aS'conj=keep'
p107
aS'conj=ownership'
p108
aS'conj=quality'
p109
aS'conj=regulation'
p110
aS'conj=service'
p111
aS'conj=shipping'
p112
aS'conj=sniper'
p113
aS'conj=transparency'
p114
aS'cop=be'
p115
aS'csubj=want'
p116
aS'csubjpass=be'
p117
aS'dep=AIDS'
p118
aS'dep=aid'
p119
aS'dep=folk'
p120
aS'dep=forget'
p121
aS'dep=grow'
p122
aS'dep=increase'
p123
aS'dep=information'
p124
aS'dep=internet'
p125
aS'dep=possible'
p126
aS'dep=reach'
p127
aS'dep=team'
p128
aS'dep=to'
p129
aS'det=a'
p130
aS'det=all'
p131
aS'det=any'
p132
aS'det=both'
p133
aS'det=each'
p134
aS'det=every'
p135
aS'det=no'
p136
aS'det=the'
p137
aS'dobj=#PRP#'
p138
aS'dobj=area'
p139
aS'dobj=book'
p140
aS'dobj=catalogue'
p141
aS'dobj=chemical'
p142
aS'dobj=count'
p143
aS'dobj=database'
p144
aS'dobj=drug'
p145
aS'dobj=facility'
p146
aS'dobj=information'
p147
aS'dobj=market'
p148
aS'dobj=money'
p149
aS'dobj=payroll'
p150
aS'dobj=people'
p151
aS'dobj=place'
p152
aS'dobj=power'
p153
aS'dobj=region'
p154
aS'dobj=resource'
p155
aS'dobj=service'
p156
aS'dobj=site'
p157
aS'dobj=website'
p158
aS'expl=there'
p159
aS'infmod=care'
p160
aS'infmod=modify'
p161
aS'infmod=sound'
p162
aS'mark=because'
p163
aS'mark=for'
p164
aS'mark=if'
p165
aS'neg=not'
p166
aS'nn=Asia'
p167
aS'nn=Congress'
p168
aS'nn=Delhi'
p169
aS'nn=Food'
p170
aS'nn=Gaining'
p171
aS'nn=Georgia'
p172
aS'nn=India'
p173
aS'nn=International'
p174
aS'nn=Internet'
p175
aS'nn=Russia'
p176
aS'nn=TV'
p177
aS'nn=aid'
p178
aS'nn=computer'
p179
aS'nn=convoy'
p180
aS'nn=detainee'
p181
aS'nn=development'
p182
aS'nn=government'
p183
aS'nn=hiv'
p184
aS'nn=increase'
p185
aS'nn=internet'
p186
aS'nn=journalist'
p187
aS'nn=lawmaker'
p188
aS'nn=less'
p189
aS'nn=limit'
p190
aS'nn=market'
p191
aS'nn=mdc'
p192
aS'nn=media'
p193
aS'nn=multimedia'
p194
aS'nn=official'
p195
aS'nn=opposition'
p196
aS'nn=percent'
p197
aS'nn=prosecution'
p198
aS'nn=state'
p199
aS'nn=treatment'
p200
aS'nn=web'
p201
aS'nsubj=#PRP#'
p202
aS'nsubj=anyone'
p203
aS'nsubj=area'
p204
aS'nsubj=party'
p205
aS'nsubj=people'
p206
aS'nsubj=problem'
p207
aS'nsubj=thing'
p208
aS'nsubj=who'
p209
aS'nsubjpass=output'
p210
aS'nsubjpass=that'
p211
aS'num=#NUMBER#'
p212
aS'num=more'
p213
aS'parataxis=place'
p214
aS'poss=#PRP#'
p215
aS'poss=Colombia'
p216
aS'poss=Iran'
p217
aS'poss=Israel'
p218
aS'poss=Peru'
p219
aS'poss=Pyongyang'
p220
aS'poss=Zimbabwe'
p221
aS'poss=country'
p222
aS'poss=girl'
p223
aS'poss=insurgent'
p224
aS'poss=party'
p225
aS'poss=violence'
p226
aS'poss=woman'
p227
aS'poss=world'
p228
aS'prep=about'
p229
aS'prep=at'
p230
aS'prep=because'
p231
aS'prep=behind'
p232
aS'prep=by'
p233
aS'prep=for'
p234
aS'prep=from'
p235
aS'prep=in'
p236
aS'prep=include'
p237
aS'prep=of'
p238
aS'prep=on'
p239
aS'prep=through'
p240
aS'prep=throughout'
p241
aS'prep=to'
p242
aS'prep=with'
p243
aS'prep=without'
p244
aS'rcmod=be'
p245
aS'rcmod=help'
p246
aS'rcmod=insufficient'
p247
aS'rcmod=to'
p248
aS'w+1=,'
p249
aS'w+1=--'
p250
aS'w+1=-lrb-'
p251
aS'w+1=.'
p252
aS'w+1=Asia'
p253
aS'w+1=Gori'
p254
aS'w+1=Senator'
p255
aS'w+1=a'
p256
aS'w+1=actually'
p257
aS'w+1=ahead'
p258
aS'w+1=and'
p259
aS'w+1=any'
p260
aS'w+1=appropriate'
p261
aS'w+1=at'
p262
aS'w+1=basic'
p263
aS'w+1=be'
p264
aS'w+1=behind'
p265
aS'w+1=by'
p266
aS'w+1=capital'
p267
aS'w+1=certain'
p268
aS'w+1=clean'
p269
aS'w+1=collaborative'
p270
aS'w+1=database'
p271
aS'w+1=difficult'
p272
aS'w+1=drug'
p273
aS'w+1=during'
p274
aS'w+1=each'
p275
aS'w+1=even'
p276
aS'w+1=expert'
p277
aS'w+1=food'
p278
aS'w+1=for'
p279
aS'w+1=forinternational'
p280
aS'w+1=from'
p281
aS'w+1=give'
p282
aS'w+1=have'
p283
aS'w+1=important'
p284
aS'w+1=in'
p285
aS'w+1=information'
p286
aS'w+1=international'
p287
aS'w+1=into'
p288
aS'w+1=journal'
p289
aS'w+1=loan'
p290
aS'w+1=locust-prone'
p291
aS'w+1=must'
p292
aS'w+1=of'
p293
aS'w+1=offer'
p294
aS'w+1=on'
p295
aS'w+1=point'
p296
aS'w+1=power'
p297
aS'w+1=program'
p298
aS'w+1=regional'
p299
aS'w+1=remain'
p300
aS'w+1=road'
p301
aS'w+1=satellite'
p302
aS'w+1=such'
p303
aS'w+1=terrain'
p304
aS'w+1=that'
p305
aS'w+1=the'
p306
aS'w+1=these'
p307
aS'w+1=they'
p308
aS'w+1=this'
p309
aS'w+1=those'
p310
aS'w+1=through'
p311
aS'w+1=to'
p312
aS'w+1=whenever'
p313
aS'w+1=where'
p314
aS'w+1=with'
p315
aS'w+1=without'
p316
aS'w+1=would'
p317
aS"w+2=''"
p318
aS'w+2=,'
p319
aS'w+2=.'
p320
aS'w+2=75'
p321
aS'w+2=AIDS'
p322
aS'w+2=Aung'
p323
aS'w+2=Azerbaijan'
p324
aS'w+2=Clay'
p325
aS'w+2=Darfur'
p326
aS'w+2=Doble'
p327
aS'w+2=I'
p328
aS'w+2=Indonesia'
p329
aS'w+2=Kashmir'
p330
aS'w+2=Marseille'
p331
aS'w+2=Mizoram'
p332
aS'w+2=Mount'
p333
aS'w+2=Mr.'
p334
aS'w+2=Niger'
p335
aS'w+2=Obama'
p336
aS'w+2=PLoS'
p337
aS'w+2=Peru'
p338
aS'w+2=Russia'
p339
aS'w+2=Somalia'
p340
aS'w+2=South'
p341
aS'w+2=U.S.'
p342
aS'w+2=Vietnam'
p343
aS'w+2=Wednesday'
p344
aS'w+2=a'
p345
aS'w+2=about'
p346
aS'w+2=advanced'
p347
aS'w+2=affordable'
p348
aS'w+2=african'
p349
aS'w+2=agricultural'
p350
aS'w+2=aid'
p351
aS'w+2=air'
p352
aS'w+2=airfield'
p353
aS'w+2=airport'
p354
aS'w+2=all'
p355
aS'w+2=american'
p356
aS'w+2=and'
p357
aS'w+2=anti-retroviral'
p358
aS'w+2=antiretroviral'
p359
aS'w+2=any'
p360
aS'w+2=appropriate'
p361
aS'w+2=area'
p362
aS'w+2=assistance'
p363
aS'w+2=at'
p364
aS'w+2=attorney'
p365
aS'w+2=attract'
p366
aS'w+2=bank'
p367
aS'w+2=basic'
p368
aS'w+2=be'
p369
aS'w+2=because'
p370
aS'w+2=become'
p371
aS'w+2=bed'
p372
aS'w+2=book'
p373
aS'w+2=building'
p374
aS'w+2=cable'
p375
aS'w+2=campaign'
p376
aS'w+2=capital'
p377
aS'w+2=capitalremain'
p378
aS'w+2=care'
p379
aS'w+2=catalogue'
p380
aS'w+2=cd-4'
p381
aS'w+2=certain'
p382
aS'w+2=channel'
p383
aS'w+2=chemical'
p384
aS'w+2=child'
p385
aS'w+2=chinese'
p386
aS'w+2=city'
p387
aS'w+2=civilian'
p388
aS'w+2=clean'
p389
aS'w+2=cleaner'
p390
aS'w+2=commercial'
p391
aS'w+2=community'
p392
aS'w+2=comprehensive'
p393
aS'w+2=computer'
p394
aS'w+2=conventional'
p395
aS'w+2=cover'
p396
aS'w+2=credit'
p397
aS'w+2=cyclone'
p398
aS'w+2=cyclone-affected'
p399
aS'w+2=defense'
p400
aS'w+2=dental'
p401
aS'w+2=deny'
p402
aS'w+2=detention'
p403
aS'w+2=develop'
p404
aS'w+2=different'
p405
aS'w+2=difficult'
p406
aS'w+2=directly'
p407
aS'w+2=document'
p408
aS'w+2=documentation'
p409
aS'w+2=dollar'
p410
aS'w+2=drinkable'
p411
aS'w+2=drug'
p412
aS'w+2=each'
p413
aS'w+2=early'
p414
aS'w+2=education'
p415
aS'w+2=electricity'
p416
aS'w+2=emergency'
p417
aS'w+2=employment'
p418
aS'w+2=encrypted'
p419
aS'w+2=ensure'
p420
aS'w+2=essential'
p421
aS'w+2=european'
p422
aS'w+2=even'
p423
aS'w+2=every'
p424
aS'w+2=evidence'
p425
aS'w+2=excellent'
p426
aS'w+2=expert'
p427
aS'w+2=family'
p428
aS'w+2=finance'
p429
aS'w+2=finances'
p430
aS'w+2=financial'
p431
aS'w+2=financing'
p432
aS'w+2=fish'
p433
aS'w+2=food'
p434
aS'w+2=for'
p435
aS'w+2=foreign'
p436
aS'w+2=forget'
p437
aS'w+2=fresh'
p438
aS'w+2=from'
p439
aS'w+2=fund'
p440
aS'w+2=funding'
p441
aS'w+2=georgian'
p442
aS'w+2=global'
p443
aS'w+2=government'
p444
aS'w+2=grid'
p445
aS'w+2=gun'
p446
aS'w+2=have'
p447
aS'w+2=he'
p448
aS'w+2=health'
p449
aS'w+2=healthcare'
p450
aS'w+2=help'
p451
aS'w+2=high-speed'
p452
aS'w+2=hiv'
p453
aS'w+2=home'
p454
aS'w+2=huge'
p455
aS'w+2=humanitarian'
p456
aS'w+2=import'
p457
aS'w+2=improve'
p458
aS'w+2=in'
p459
aS'w+2=include'
p460
aS'w+2=independent'
p461
aS'w+2=individual'
p462
aS'w+2=information'
p463
aS'w+2=ingredient'
p464
aS'w+2=internal'
p465
aS'w+2=international'
p466
aS'w+2=internet'
p467
aS'w+2=iron'
p468
aS'w+2=it'
p469
aS'w+2=its'
p470
aS'w+2=job'
p471
aS'w+2=justice'
p472
aS'w+2=knowledge'
p473
aS'w+2=land'
p474
aS'w+2=laptop'
p475
aS'w+2=latrine'
p476
aS'w+2=law'
p477
aS'w+2=lawyer'
p478
aS'w+2=legal'
p479
aS'w+2=life'
p480
aS'w+2=life-saving'
p481
aS'w+2=lifesaving'
p482
aS'w+2=line'
p483
aS'w+2=loan'
p484
aS'w+2=mail'
p485
aS'w+2=manufacture'
p486
aS'w+2=market'
p487
aS'w+2=medical'
p488
aS'w+2=medication'
p489
aS'w+2=medicine'
p490
aS'w+2=mental'
p491
aS'w+2=modern'
p492
aS'w+2=modify'
p493
aS'w+2=money'
p494
aS'w+2=more'
p495
aS'w+2=much'
p496
aS'w+2=musical'
p497
aS'w+2=national'
p498
aS'w+2=nationwide'
p499
aS'w+2=navigation'
p500
aS'w+2=necessary'
p501
aS'w+2=new'
p502
aS'w+2=nuclear'
p503
aS'w+2=of'
p504
aS'w+2=official'
p505
aS'w+2=oil'
p506
aS'w+2=one'
p507
aS'w+2=only'
p508
aS'w+2=opposition'
p509
aS'w+2=or'
p510
aS'w+2=organ'
p511
aS'w+2=original'
p512
aS'w+2=other'
p513
aS'w+2=ownership'
p514
aS'w+2=part'
p515
aS'w+2=particular'
p516
aS'w+2=payroll'
p517
aS'w+2=people'
p518
aS'w+2=permission'
p519
aS'w+2=peruvian'
p520
aS'w+2=photograph'
p521
aS'w+2=pit'
p522
aS'w+2=place'
p523
aS'w+2=polish'
p524
aS'w+2=political'
p525
aS'w+2=polling'
p526
aS'w+2=population'
p527
aS'w+2=power'
p528
aS'w+2=powerful'
p529
aS'w+2=prenatal'
p530
aS'w+2=prevent'
p531
aS'w+2=prevention'
p532
aS'w+2=primary'
p533
aS'w+2=problem'
p534
aS'w+2=proper'
p535
aS'w+2=provide'
p536
aS'w+2=psycho-social'
p537
aS'w+2=public'
p538
aS'w+2=publish'
p539
aS'w+2=quality'
p540
aS'w+2=radio'
p541
aS'w+2=recent'
p542
aS'w+2=record'
p543
aS'w+2=refugee'
p544
aS'w+2=region'
p545
aS'w+2=regional'
p546
aS'w+2=relief'
p547
aS'w+2=representative'
p548
aS'w+2=resource'
p549
aS'w+2=road'
p550
aS'w+2=run'
p551
aS'w+2=russian'
p552
aS'w+2=safe'
p553
aS'w+2=same'
p554
aS'w+2=sanitation'
p555
aS'w+2=schooling'
p556
aS'w+2=science'
p557
aS'w+2=sensitive'
p558
aS'w+2=service'
p559
aS'w+2=she'
p560
aS'w+2=ship'
p561
aS'w+2=shipping'
p562
aS'w+2=site'
p563
aS'w+2=sniper'
p564
aS'w+2=social'
p565
aS'w+2=some'
p566
aS'w+2=somewhat'
p567
aS'w+2=sound'
p568
aS'w+2=state'
p569
aS'w+2=state-run'
p570
aS'w+2=such'
p571
aS'w+2=surround'
p572
aS'w+2=team'
p573
aS'w+2=technology'
p574
aS'w+2=telephone'
p575
aS'w+2=television'
p576
aS'w+2=ten'
p577
aS'w+2=term'
p578
aS'w+2=territory'
p579
aS'w+2=terror'
p580
aS'w+2=the'
p581
aS'w+2=these'
p582
aS'w+2=they'
p583
aS'w+2=thing'
p584
aS'w+2=this'
p585
aS'w+2=those'
p586
aS'w+2=to'
p587
aS'w+2=toilet'
p588
aS'w+2=tool'
p589
aS'w+2=transparency'
p590
aS'w+2=transport'
p591
aS'w+2=treatment'
p592
aS'w+2=university'
p593
aS'w+2=use'
p594
aS'w+2=vast'
p595
aS'w+2=very'
p596
aS'w+2=village'
p597
aS'w+2=vital'
p598
aS'w+2=vulnerable'
p599
aS'w+2=water'
p600
aS'w+2=water-generated'
p601
aS'w+2=we'
p602
aS'w+2=web-related'
p603
aS'w+2=website'
p604
aS'w+2=what'
p605
aS'w+2=whatever'
p606
aS'w+2=which'
p607
aS'w+2=while'
p608
aS'w+2=will'
p609
aS'w+2=woman'
p610
aS'w+2=worker'
p611
aS"w-1='"
p612
aS"w-1=''"
p613
aS"w-1='s"
p614
aS'w-1=,'
p615
aS'w-1=.'
p616
aS'w-1=Asia'
p617
aS'w-1=Congress'
p618
aS'w-1=Delhi'
p619
aS'w-1=Food'
p620
aS'w-1=Gaining'
p621
aS'w-1=Georgia'
p622
aS'w-1=Health'
p623
aS'w-1=India'
p624
aS'w-1=International'
p625
aS'w-1=Internet'
p626
aS'w-1=Russia'
p627
aS'w-1=TV'
p628
aS'w-1=achieve'
p629
aS'w-1=actually'
p630
aS'w-1=affect'
p631
aS'w-1=after'
p632
aS'w-1=aid'
p633
aS'w-1=al-awlaki'
p634
aS'w-1=all'
p635
aS'w-1=allow'
p636
aS'w-1=also'
p637
aS'w-1=and'
p638
aS'w-1=any'
p639
aS'w-1=around'
p640
aS'w-1=as'
p641
aS'w-1=ballot'
p642
aS'w-1=be'
p643
aS'w-1=better'
p644
aS'w-1=block'
p645
aS'w-1=boost'
p646
aS'w-1=border'
p647
aS'w-1=broader'
p648
aS'w-1=but'
p649
aS'w-1=call'
p650
aS'w-1=can'
p651
aS'w-1=civilian'
p652
aS'w-1=computer'
p653
aS'w-1=consular'
p654
aS'w-1=control'
p655
aS'w-1=controlled'
p656
aS'w-1=convoy'
p657
aS'w-1=create'
p658
aS'w-1=crew'
p659
aS'w-1=deny'
p660
aS'w-1=detainee'
p661
aS'w-1=difficult'
p662
aS'w-1=direct'
p663
aS'w-1=duty-free'
p664
aS'w-1=ease'
p665
aS'w-1=easier'
p666
aS'w-1=easily'
p667
aS'w-1=easy'
p668
aS'w-1=ensure'
p669
aS'w-1=entrepreneur'
p670
aS'w-1=equal'
p671
aS'w-1=equitable'
p672
aS'w-1=european'
p673
aS'w-1=even'
p674
aS'w-1=every'
p675
aS'w-1=expand'
p676
aS'w-1=facilitate'
p677
aS'w-1=fair'
p678
aS'w-1=find'
p679
aS'w-1=firm'
p680
aS'w-1=first'
p681
aS'w-1=for'
p682
aS'w-1=free'
p683
aS'w-1=from'
p684
aS'w-1=full'
p685
aS'w-1=gain'
p686
aS'w-1=get'
p687
aS'w-1=give'
p688
aS'w-1=givethem'
p689
aS'w-1=globalized'
p690
aS'w-1=good'
p691
aS'w-1=government'
p692
aS'w-1=grant'
p693
aS'w-1=greater'
p694
aS'w-1=guarantee'
p695
aS'w-1=have'
p696
aS'w-1=hinder'
p697
aS'w-1=hiv'
p698
aS'w-1=humanitarian'
p699
aS'w-1=hurt'
p700
aS'w-1=immediate'
p701
aS'w-1=improve'
p702
aS'w-1=improved'
p703
aS'w-1=in'
p704
aS'w-1=inadequate'
p705
aS'w-1=include'
p706
aS'w-1=increase'
p707
aS'w-1=inequitable'
p708
aS'w-1=insufficient'
p709
aS'w-1=intermittent'
p710
aS'w-1=internet'
p711
aS'w-1=its'
p712
aS'w-1=journalist'
p713
aS'w-1=key'
p714
aS'w-1=lack'
p715
aS'w-1=lawmaker'
p716
aS'w-1=less'
p717
aS'w-1=like'
p718
aS'w-1=limit'
p719
aS'w-1=limited'
p720
aS'w-1=little'
p721
aS'w-1=local'
p722
aS'w-1=lose'
p723
aS'w-1=make'
p724
aS'w-1=market'
p725
aS'w-1=mdc'
p726
aS'w-1=media'
p727
aS'w-1=more'
p728
aS'w-1=much'
p729
aS'w-1=multimedia'
p730
aS'w-1=my'
p731
aS'w-1=need'
p732
aS'w-1=no'
p733
aS'w-1=not'
p734
aS'w-1=of'
p735
aS'w-1=off'
p736
aS'w-1=official'
p737
aS'w-1=often'
p738
aS'w-1=on'
p739
aS'w-1=only'
p740
aS'w-1=open'
p741
aS'w-1=opposition'
p742
aS'w-1=or'
p743
aS'w-1=other'
p744
aS'w-1=over'
p745
aS'w-1=palestinian'
p746
aS'w-1=people'
p747
aS'w-1=percent'
p748
aS'w-1=poor'
p749
aS'w-1=preferential'
p750
aS'w-1=prompt'
p751
aS'w-1=prosecution'
p752
aS'w-1=provide'
p753
aS'w-1=public'
p754
aS'w-1=reduce'
p755
aS'w-1=regular'
p756
aS'w-1=request'
p757
aS'w-1=restrict'
p758
aS'w-1=same'
p759
aS'w-1=say'
p760
aS'w-1=secure'
p761
aS'w-1=seek'
p762
aS'w-1=sole'
p763
aS'w-1=southern'
p764
aS'w-1=start'
p765
aS'w-1=state'
p766
aS'w-1=student'
p767
aS'w-1=surveyor'
p768
aS'w-1=that'
p769
aS'w-1=the'
p770
aS'w-1=therefore'
p771
aS'w-1=they'
p772
aS'w-1=timely'
p773
aS'w-1=to'
p774
aS'w-1=treatment'
p775
aS'w-1=unhindered'
p776
aS'w-1=unimpeded'
p777
aS'w-1=universal'
p778
aS'w-1=unlock'
p779
aS'w-1=unrestricted'
p780
aS'w-1=up'
p781
aS'w-1=usually'
p782
aS'w-1=vast'
p783
aS'w-1=vital'
p784
aS'w-1=want'
p785
aS'w-1=we'
p786
aS'w-1=web'
p787
aS'w-1=where'
p788
aS'w-1=wider'
p789
aS'w-1=win'
p790
aS'w-1=wireless'
p791
aS'w-1=with'
p792
aS'w-1=without'
p793
aS'w-1=you'
p794
aS"w-2=''"
p795
aS"w-2='s"
p796
aS'w-2=,'
p797
aS'w-2=-'
p798
aS'w-2=.'
p799
aS'w-2=100'
p800
aS'w-2=1998'
p801
aS'w-2=African'
p802
aS'w-2=Amnesty'
p803
aS'w-2=Bakare'
p804
aS'w-2=Chauzy'
p805
aS'w-2=Cross'
p806
aS'w-2=Darfur'
p807
aS'w-2=Global'
p808
aS'w-2=India'
p809
aS'w-2=Iran'
p810
aS'w-2=Israel'
p811
aS'w-2=Kasparov'
p812
aS'w-2=Malawians'
p813
aS'w-2=National'
p814
aS'w-2=New'
p815
aS'w-2=Pyongyang'
p816
aS'w-2=Russia'
p817
aS'w-2=Russians'
p818
aS'w-2=Scott'
p819
aS'w-2=Turkey'
p820
aS'w-2=a'
p821
aS'w-2=ability'
p822
aS'w-2=able'
p823
aS'w-2=add'
p824
aS'w-2=agency'
p825
aS'w-2=agreement'
p826
aS'w-2=aid'
p827
aS'w-2=allow'
p828
aS'w-2=also'
p829
aS'w-2=amount'
p830
aS'w-2=and'
p831
aS'w-2=anyone'
p832
aS'w-2=area'
p833
aS'w-2=argue'
p834
aS'w-2=at'
p835
aS'w-2=attorney'
p836
aS'w-2=authority'
p837
aS'w-2=be'
p838
aS'w-2=before'
p839
aS'w-2=believe'
p840
aS'w-2=block'
p841
aS'w-2=boat'
p842
aS'w-2=both'
p843
aS'w-2=bring'
p844
aS'w-2=broadband'
p845
aS'w-2=by'
p846
aS'w-2=call'
p847
aS'w-2=camp'
p848
aS'w-2=can'
p849
aS'w-2=candidate'
p850
aS'w-2=caution'
p851
aS'w-2=child'
p852
aS'w-2=childcare'
p853
aS'w-2=class'
p854
aS'w-2=clearly'
p855
aS'w-2=collect'
p856
aS'w-2=combatant'
p857
aS'w-2=company'
p858
aS'w-2=constraint'
p859
aS'w-2=consular'
p860
aS'w-2=control'
p861
aS'w-2=could'
p862
aS'w-2=country'
p863
aS'w-2=cut'
p864
aS'w-2=day'
p865
aS'w-2=delay'
p866
aS'w-2=demand'
p867
aS'w-2=demonstrator'
p868
aS'w-2=deny'
p869
aS'w-2=department'
p870
aS'w-2=depend'
p871
aS'w-2=deprive'
p872
aS'w-2=diet'
p873
aS'w-2=difficult'
p874
aS'w-2=difficulty'
p875
aS'w-2=direct'
p876
aS'w-2=dispute'
p877
aS'w-2=drug'
p878
aS'w-2=drunk'
p879
aS'w-2=each'
p880
aS'w-2=ease'
p881
aS'w-2=education'
p882
aS'w-2=effectively'
p883
aS'w-2=else'
p884
aS'w-2=employee'
p885
aS'w-2=ensure'
p886
aS'w-2=equal'
p887
aS'w-2=even'
p888
aS'w-2=everyone'
p889
aS'w-2=exchange'
p890
aS'w-2=expectancy'
p891
aS'w-2=expert'
p892
aS'w-2=fairer'
p893
aS'w-2=fall'
p894
aS'w-2=farmer'
p895
aS'w-2=favor'
p896
aS'w-2=federal'
p897
aS'w-2=fee'
p898
aS'w-2=find'
p899
aS'w-2=food'
p900
aS'w-2=for'
p901
aS'w-2=fourth'
p902
aS'w-2=gain'
p903
aS'w-2=get'
p904
aS'w-2=girl'
p905
aS'w-2=give'
p906
aS'w-2=government'
p907
aS'w-2=grant'
p908
aS'w-2=greater'
p909
aS'w-2=greatly'
p910
aS'w-2=group'
p911
aS'w-2=hard'
p912
aS'w-2=have'
p913
aS'w-2=haven'
p914
aS'w-2=help'
p915
aS'w-2=home'
p916
aS'w-2=housing'
p917
aS'w-2=how'
p918
aS'w-2=however'
p919
aS'w-2=humanitarian'
p920
aS'w-2=if'
p921
aS'w-2=immediate'
p922
aS'w-2=improve'
p923
aS'w-2=in'
p924
aS'w-2=increase'
p925
aS'w-2=indonesian'
p926
aS'w-2=insurgent'
p927
aS'w-2=international'
p928
aS'w-2=involve'
p929
aS'w-2=issue'
p930
aS'w-2=it'
p931
aS'w-2=job'
p932
aS'w-2=kind'
p933
aS'w-2=lack'
p934
aS'w-2=law'
p935
aS'w-2=liberalize'
p936
aS'w-2=like'
p937
aS'w-2=limit'
p938
aS'w-2=limited'
p939
aS'w-2=live'
p940
aS'w-2=lock'
p941
aS'w-2=loss'
p942
aS'w-2=may'
p943
aS'w-2=mean'
p944
aS'w-2=means'
p945
aS'w-2=member'
p946
aS'w-2=military'
p947
aS'w-2=money'
p948
aS'w-2=more'
p949
aS'w-2=movement'
p950
aS'w-2=must'
p951
aS'w-2=need'
p952
aS'w-2=never'
p953
aS'w-2=new'
p954
aS'w-2=nor'
p955
aS'w-2=not'
p956
aS'w-2=now'
p957
aS'w-2=odds'
p958
aS'w-2=of'
p959
aS'w-2=off'
p960
aS'w-2=offer'
p961
aS'w-2=often'
p962
aS'w-2=on'
p963
aS'w-2=only'
p964
aS'w-2=open'
p965
aS'w-2=or'
p966
aS'w-2=other'
p967
aS'w-2=party'
p968
aS'w-2=past'
p969
aS'w-2=people'
p970
aS'w-2=permit'
p971
aS'w-2=pipeline'
p972
aS'w-2=population'
p973
aS'w-2=prevent'
p974
aS'w-2=previously'
p975
aS'w-2=process'
p976
aS'w-2=provide'
p977
aS'w-2=push'
p978
aS'w-2=quota-free'
p979
aS'w-2=reach'
p980
aS'w-2=relation'
p981
aS'w-2=relief'
p982
aS'w-2=repeatedly'
p983
aS'w-2=request'
p984
aS'w-2=research'
p985
aS'w-2=researcher'
p986
aS'w-2=resident'
p987
aS'w-2=restrict'
p988
aS'w-2=right'
p989
aS'w-2=rights'
p990
aS'w-2=rock'
p991
aS'w-2=say'
p992
aS'w-2=school'
p993
aS'w-2=screening'
p994
aS'w-2=secure'
p995
aS'w-2=security'
p996
aS'w-2=see'
p997
aS'w-2=seek'
p998
aS'w-2=service'
p999
aS'w-2=she'
p1000
aS'w-2=should'
p1001
aS'w-2=situation'
p1002
aS'w-2=state'
p1003
aS'w-2=step'
p1004
aS'w-2=still'
p1005
aS'w-2=strictly'
p1006
aS'w-2=student'
p1007
aS'w-2=subsidy'
p1008
aS'w-2=such'
p1009
aS'w-2=support'
p1010
aS'w-2=team'
p1011
aS'w-2=terrorism'
p1012
aS'w-2=than'
p1013
aS'w-2=that'
p1014
aS'w-2=the'
p1015
aS'w-2=there'
p1016
aS'w-2=they'
p1017
aS'w-2=this'
p1018
aS'w-2=those'
p1019
aS'w-2=time'
p1020
aS'w-2=to'
p1021
aS'w-2=toilet'
p1022
aS'w-2=towards'
p1023
aS'w-2=unable'
p1024
aS'w-2=unequal'
p1025
aS'w-2=upgrade'
p1026
aS'w-2=uptake'
p1027
aS'w-2=vehicle'
p1028
aS'w-2=victim'
p1029
aS'w-2=vie'
p1030
aS'w-2=viewer'
p1031
aS'w-2=vote'
p1032
aS'w-2=wait'
p1033
aS'w-2=way'
p1034
aS'w-2=we'
p1035
aS'w-2=well'
p1036
aS'w-2=who'
p1037
aS'w-2=will'
p1038
aS'w-2=wireless'
p1039
aS'w-2=with'
p1040
aS'w-2=without'
p1041
aS'w-2=woman'
p1042
aS'w-2=work'
p1043
aS'w-2=worker'
p1044
aS'w-2=world'
p1045
aS'w-2=would'
p1046
aS'w-2=yet'
p1047
aS'w-2=you'
p1048
aS'xcomp=make'
p1049
asS'dtype'
p1050
cnumpy
float64
p1051
sS'vocabulary_'
p1052
(dp1053
g225
I216
sg62
I53
sg1039
I1030
sg617
I608
sg19
I10
sg557
I548
sg136
I127
sg147
I138
sg911
I902
sg1035
I1026
sg970
I961
sg12
I3
sg512
I503
sg457
I448
sg189
I180
sg164
I155
sg449
I440
sg421
I412
sg381
I372
sg375
I366
sg250
I241
sg703
I694
sg431
I422
sg22
I13
sg388
I379
sg596
I587
sg167
I158
sg961
I952
sg284
I275
sg112
I103
sg466
I457
sg954
I945
sg979
I970
sg647
I638
sg83
I74
sg594
I585
sg762
I753
sg119
I110
sg820
I811
sg958
I949
sg927
I918
sg624
I615
sg965
I956
sg962
I953
sg776
I767
sg952
I943
sg611
I602
sg131
I122
sg1017
I1008
sg422
I413
sg718
I709
sg818
I809
sg233
I224
sg181
I172
sg568
I559
sg863
I854
sg933
I924
sg305
I296
sg658
I649
sg322
I313
sg626
I617
sg629
I620
sg455
I446
sg725
I716
sg298
I289
sg900
I891
sg760
I751
sg679
I670
sg385
I376
sg242
I233
sg111
I102
sg860
I851
sg670
I661
sg595
I586
sg67
I58
sg661
I652
sg542
I533
sg627
I618
sg778
I769
sg172
I163
sg95
I86
sg109
I100
sg534
I525
sg854
I845
sg257
I248
sg894
I885
sg708
I699
sg713
I704
sg782
I773
sg950
I941
sg985
I976
sg289
I280
sg646
I637
sg726
I717
sg530
I521
sg643
I634
sg920
I911
sg715
I706
sg315
I306
sg885
I876
sg438
I429
sg752
I743
sg1015
I1006
sg588
I579
sg232
I223
sg573
I564
sg263
I254
sg853
I844
sg537
I528
sg1020
I1011
sg311
I302
sg461
I452
sg321
I312
sg221
I212
sg417
I408
sg217
I208
sg688
I679
sg526
I517
sg462
I453
sg540
I531
sg184
I175
sg601
I592
sg492
I483
sg163
I154
sg977
I968
sg1037
I1028
sg529
I520
sg683
I674
sg868
I859
sg503
I494
sg478
I469
sg766
I757
sg270
I261
sg803
I794
sg587
I578
sg295
I286
sg197
I188
sg441
I432
sg864
I855
sg767
I758
sg981
I972
sg474
I465
sg916
I907
sg129
I120
sg24
I15
sg712
I703
sg696
I687
sg97
I88
sg592
I583
sg783
I774
sg435
I426
sg1012
I1003
sg70
I61
sg716
I707
sg55
I46
sg730
I721
sg459
I450
sg605
I596
sg469
I460
sg691
I682
sg964
I955
sg424
I415
sg898
I889
sg903
I894
sg96
I87
sg825
I816
sg229
I220
sg87
I78
sg98
I89
sg177
I168
sg576
I567
sg811
I802
sg160
I151
sg479
I470
sg139
I130
sg689
I680
sg278
I269
sg107
I98
sg754
I745
sg118
I109
sg794
I785
sg609
I600
sg707
I698
sg210
I201
sg533
I524
sg254
I245
sg936
I927
sg440
I431
sg740
I731
sg358
I349
sg227
I218
sg274
I265
sg1014
I1005
sg306
I297
sg294
I285
sg354
I345
sg214
I205
sg418
I409
sg736
I727
sg20
I11
sg369
I360
sg380
I371
sg308
I299
sg445
I436
sg926
I917
sg310
I301
sg28
I19
sg606
I597
sg552
I543
sg236
I227
sg279
I270
sg593
I584
sg195
I186
sg621
I612
sg968
I959
sg738
I729
sg802
I793
sg158
I149
sg748
I739
sg467
I458
sg813
I804
sg42
I33
sg660
I651
sg511
I502
sg628
I619
sg880
I871
sg386
I377
sg85
I76
sg684
I675
sg1031
I1022
sg71
I62
sg482
I473
sg575
I566
sg810
I801
sg702
I693
sg543
I534
sg447
I438
sg259
I250
sg423
I414
sg558
I549
sg331
I322
sg313
I304
sg475
I466
sg81
I72
sg600
I591
sg855
I846
sg723
I714
sg645
I636
sg420
I411
sg260
I251
sg709
I700
sg245
I236
sg333
I324
sg292
I283
sg77
I68
sg402
I393
sg907
I898
sg74
I65
sg17
I8
sg1024
I1015
sg680
I671
sg1025
I1016
sg664
I655
sg1008
I999
sg400
I391
sg180
I171
sg582
I573
sg704
I695
sg602
I593
sg620
I611
sg861
I852
sg896
I887
sg516
I507
sg770
I761
sg659
I650
sg291
I282
sg873
I864
sg505
I496
sg165
I156
sg1036
I1027
sg528
I519
sg178
I169
sg751
I742
sg427
I418
sg349
I340
sg1043
I1034
sg989
I980
sg1003
I994
sg324
I315
sg73
I64
sg711
I702
sg105
I96
sg972
I963
sg338
I329
sg851
I842
sg925
I916
sg514
I505
sg500
I491
sg31
I22
sg200
I191
sg283
I274
sg347
I338
sg840
I831
sg498
I489
sg137
I128
sg48
I39
sg816
I807
sg563
I554
sg471
I462
sg151
I142
sg11
I2
sg237
I228
sg162
I153
sg690
I681
sg546
I537
sg153
I144
sg966
I957
sg209
I200
sg539
I530
sg396
I387
sg406
I397
sg598
I589
sg959
I950
sg865
I856
sg545
I536
sg798
I789
sg963
I954
sg774
I765
sg665
I656
sg47
I38
sg495
I486
sg836
I827
sg835
I826
sg693
I684
sg340
I331
sg694
I685
sg38
I29
sg551
I542
sg577
I568
sg198
I189
sg216
I207
sg271
I262
sg1019
I1010
sg852
I843
sg446
I437
sg630
I621
sg35
I26
sg667
I658
sg822
I813
sg564
I555
sg393
I384
sg382
I373
sg946
I937
sg719
I710
sg755
I746
sg481
I472
sg120
I111
sg608
I599
sg196
I187
sg262
I253
sg669
I660
sg524
I515
sg267
I258
sg574
I565
sg355
I346
sg248
I239
sg806
I797
sg761
I752
sg717
I708
sg176
I167
sg45
I36
sg975
I966
sg928
I919
sg947
I938
sg150
I141
sg788
I779
sg651
I642
sg731
I722
sg589
I580
sg411
I402
sg650
I641
sg823
I814
sg350
I341
sg827
I818
sg792
I783
sg370
I361
sg144
I135
sg656
I647
sg314
I305
sg1023
I1014
sg201
I192
sg728
I719
sg416
I407
sg990
I981
sg127
I118
sg764
I755
sg1010
I1001
sg1000
I991
sg234
I225
sg191
I182
sg253
I244
sg673
I664
sg390
I381
sg888
I879
sg506
I497
sg830
I821
sg527
I518
sg644
I635
sg364
I355
sg941
I932
sg483
I474
sg121
I112
sg619
I610
sg729
I720
sg460
I451
sg194
I185
sg317
I308
sg889
I880
sg569
I560
sg663
I654
sg579
I570
sg91
I82
sg304
I295
sg614
I605
sg570
I561
sg732
I723
sg870
I861
sg326
I317
sg567
I558
sg710
I701
sg391
I382
sg46
I37
sg339
I330
sg379
I370
sg413
I404
sg922
I913
sg186
I177
sg599
I590
sg442
I433
sg807
I798
sg878
I869
sg476
I467
sg918
I909
sg211
I202
sg78
I69
sg939
I930
sg867
I858
sg282
I273
sg25
I16
sg456
I447
sg657
I648
sg560
I551
sg541
I532
sg848
I839
sg190
I181
sg801
I792
sg812
I803
sg488
I479
sg856
I847
sg613
I604
sg757
I748
sg662
I653
sg706
I697
sg368
I359
sg323
I314
sg352
I343
sg520
I511
sg747
I738
sg154
I145
sg538
I529
sg389
I380
sg174
I165
sg351
I342
sg998
I989
sg859
I850
sg960
I951
sg192
I183
sg452
I443
sg828
I819
sg510
I501
sg432
I423
sg325
I316
sg795
I786
sg971
I962
sg785
I776
sg203
I194
sg487
I478
sg489
I480
sg834
I825
sg486
I477
sg312
I303
sg722
I713
sg468
I459
sg33
I24
sg327
I318
sg675
I666
sg434
I425
sg638
I629
sg132
I123
sg672
I663
sg106
I97
sg104
I95
sg844
I835
sg549
I540
sg286
I277
sg639
I630
sg362
I353
sg374
I365
sg1016
I1007
sg199
I190
sg223
I214
sg398
I389
sg974
I965
sg443
I434
sg244
I235
sg519
I510
sg780
I771
sg356
I347
sg301
I292
sg521
I512
sg9
I0
sg796
I787
sg101
I92
sg781
I772
sg944
I935
sg1006
I997
sg290
I281
sg697
I688
sg140
I131
sg494
I485
sg556
I547
sg987
I978
sg372
I363
sg634
I625
sg501
I492
sg819
I810
sg365
I356
sg403
I394
sg686
I677
sg269
I260
sg287
I278
sg366
I357
sg727
I718
sg329
I320
sg341
I332
sg1046
I1037
sg842
I833
sg496
I487
sg353
I344
sg586
I577
sg14
I5
sg986
I977
sg470
I461
sg884
I875
sg555
I546
sg585
I576
sg94
I85
sg169
I160
sg58
I49
sg622
I613
sg394
I385
sg804
I795
sg39
I30
sg737
I728
sg51
I42
sg16
I7
sg882
I873
sg744
I735
sg43
I34
sg980
I971
sg241
I232
sg348
I339
sg359
I350
sg226
I217
sg145
I136
sg945
I936
sg790
I781
sg32
I23
sg258
I249
sg800
I791
sg742
I733
sg397
I388
sg204
I195
sg1040
I1031
sg124
I115
sg829
I820
sg90
I81
sg603
I594
sg185
I176
sg213
I204
sg152
I143
sg502
I493
sg565
I556
sg995
I986
sg103
I94
sg159
I150
sg206
I197
sg243
I234
sg698
I689
sg93
I84
sg367
I358
sg808
I799
sg61
I52
sg857
I848
sg1005
I996
sg484
I475
sg890
I881
sg924
I915
sg170
I161
sg741
I732
sg220
I211
sg580
I571
sg921
I912
sg809
I800
sg448
I439
sg850
I841
sg991
I982
sg699
I690
sg69
I60
sg814
I805
sg532
I523
sg383
I374
sg931
I922
sg401
I392
sg410
I401
sg59
I50
sg231
I222
sg473
I464
sg999
I990
sg1022
I1013
sg1029
I1020
sg591
I582
sg395
I386
sg547
I538
sg623
I614
sg892
I883
sg677
I668
sg316
I307
sg82
I73
sg451
I442
sg405
I396
sg746
I737
sg50
I41
sg212
I203
sg523
I514
sg268
I259
sg318
I309
sg791
I782
sg378
I369
sg336
I327
sg143
I134
sg826
I817
sg26
I17
sg653
I644
sg29
I20
sg562
I553
sg1030
I1021
sg1007
I998
sg218
I209
sg1042
I1033
sg1034
I1025
sg273
I264
sg276
I267
sg869
I860
sg705
I696
sg789
I780
sg182
I173
sg847
I838
sg377
I368
sg913
I904
sg92
I83
sg779
I770
sg572
I563
sg75
I66
sg883
I874
sg86
I77
sg701
I692
sg23
I14
sg775
I766
sg266
I257
sg34
I25
sg49
I40
sg264
I255
sg404
I395
sg168
I159
sg392
I383
sg988
I979
sg299
I290
sg649
I640
sg535
I526
sg277
I268
sg187
I178
sg1011
I1002
sg102
I93
sg414
I405
sg1041
I1032
sg982
I973
sg996
I987
sg429
I420
sg566
I557
sg604
I595
sg285
I276
sg919
I910
sg251
I242
sg904
I895
sg202
I193
sg76
I67
sg787
I778
sg337
I328
sg571
I562
sg997
I988
sg114
I105
sg13
I4
sg428
I419
sg135
I126
sg255
I246
sg288
I279
sg141
I132
sg265
I256
sg193
I184
sg142
I133
sg879
I870
sg700
I691
sg122
I113
sg215
I206
sg636
I627
sg1049
I1040
sg678
I669
sg955
I946
sg899
I890
sg625
I616
sg773
I764
sg733
I724
sg79
I70
sg876
I867
sg841
I832
sg63
I54
sg99
I90
sg756
I747
sg188
I179
sg793
I784
sg948
I939
sg208
I199
sg631
I622
sg937
I928
sg745
I736
sg1026
I1017
sg493
I484
sg497
I488
sg724
I715
sg52
I43
sg454
I445
sg917
I908
sg893
I884
sg976
I967
sg817
I808
sg607
I598
sg117
I108
sg837
I828
sg559
I550
sg334
I325
sg838
I829
sg110
I101
sg238
I229
sg148
I139
sg951
I942
sg239
I230
sg133
I124
sg839
I830
sg179
I170
sg246
I237
sg654
I645
sg846
I837
sg123
I114
sg759
I750
sg858
I849
sg36
I27
sg632
I623
sg973
I964
sg862
I853
sg280
I271
sg499
I490
sg1033
I1024
sg453
I444
sg472
I463
sg618
I609
sg54
I45
sg768
I759
sg993
I984
sg57
I48
sg361
I352
sg504
I495
sg425
I416
sg30
I21
sg749
I740
sg750
I741
sg64
I55
sg1028
I1019
sg554
I545
sg912
I903
sg633
I624
sg763
I754
sg60
I51
sg597
I588
sg320
I311
sg80
I71
sg463
I454
sg940
I931
sg360
I351
sg743
I734
sg1009
I1000
sg681
I672
sg113
I104
sg44
I35
sg671
I662
sg490
I481
sg735
I726
sg935
I926
sg949
I940
sg832
I823
sg1021
I1012
sg357
I348
sg831
I822
sg908
I899
sg877
I868
sg173
I164
sg765
I756
sg307
I298
sg1032
I1023
sg994
I985
sg207
I198
sg346
I337
sg426
I417
sg508
I499
sg108
I99
sg553
I544
sg309
I300
sg881
I872
sg115
I106
sg72
I63
sg205
I196
sg171
I162
sg1027
I1018
sg938
I929
sg134
I125
sg296
I287
sg138
I129
sg419
I410
sg1045
I1036
sg128
I119
sg228
I219
sg992
I983
sg584
I575
sg373
I364
sg695
I686
sg387
I378
sg581
I572
sg230
I221
sg1038
I1029
sg155
I146
sg797
I788
sg335
I326
sg799
I790
sg983
I974
sg910
I901
sg88
I79
sg612
I603
sg300
I291
sg905
I896
sg914
I905
sg616
I607
sg615
I606
sg956
I947
sg957
I948
sg433
I424
sg815
I806
sg281
I272
sg41
I32
sg458
I449
sg525
I516
sg183
I174
sg637
I628
sg436
I427
sg240
I231
sg344
I335
sg272
I263
sg507
I498
sg943
I934
sg967
I958
sg407
I398
sg522
I513
sg175
I166
sg1044
I1035
sg444
I435
sg157
I148
sg821
I812
sg399
I390
sg772
I763
sg130
I121
sg146
I137
sg932
I923
sg65
I56
sg430
I421
sg275
I266
sg875
I866
sg161
I152
sg753
I744
sg648
I639
sg1047
I1038
sg668
I659
sg929
I920
sg53
I44
sg10
I1
sg721
I712
sg156
I147
sg590
I581
sg714
I705
sg784
I775
sg805
I796
sg149
I140
sg412
I403
sg1002
I993
sg984
I975
sg886
I877
sg68
I59
sg550
I541
sg66
I57
sg642
I633
sg583
I574
sg930
I921
sg666
I657
sg515
I506
sg247
I238
sg953
I944
sg777
I768
sg518
I509
sg485
I476
sg517
I508
sg222
I213
sg84
I75
sg871
I862
sg655
I646
sg544
I535
sg224
I215
sg942
I933
sg464
I455
sg866
I857
sg371
I362
sg363
I354
sg332
I323
sg843
I834
sg902
I893
sg845
I836
sg531
I522
sg1018
I1009
sg18
I9
sg293
I284
sg384
I375
sg342
I333
sg437
I428
sg674
I665
sg635
I626
sg692
I683
sg934
I925
sg872
I863
sg235
I226
sg909
I900
sg219
I210
sg578
I569
sg513
I504
sg915
I906
sg771
I762
sg450
I441
sg56
I47
sg610
I601
sg640
I631
sg786
I777
sg89
I80
sg1048
I1039
sg1001
I992
sg477
I468
sg40
I31
sg303
I294
sg978
I969
sg687
I678
sg509
I500
sg685
I676
sg758
I749
sg720
I711
sg652
I643
sg330
I321
sg15
I6
sg261
I252
sg891
I882
sg682
I673
sg249
I240
sg252
I243
sg906
I897
sg409
I400
sg302
I293
sg536
I527
sg849
I840
sg319
I310
sg125
I116
sg1004
I995
sg969
I960
sg166
I157
sg37
I28
sg895
I886
sg27
I18
sg376
I367
sg824
I815
sg116
I107
sg465
I456
sg480
I471
sg491
I482
sg328
I319
sg548
I539
sg923
I914
sg21
I12
sg676
I667
sg739
I730
sg256
I247
sg897
I888
sg734
I725
sg126
I117
sg343
I334
sg874
I865
sg641
I632
sg1013
I1004
sg415
I406
sg769
I760
sg408
I399
sg901
I892
sg439
I430
sg297
I288
sg887
I878
sg833
I824
sg345
I336
sg100
I91
sg561
I552
ssS'separator'
p1054
S'='
sS'sparse'
p1055
I01
sb.