ccopy_reg
_reconstructor
p1
(csklearn.feature_extraction.dict_vectorizer
DictVectorizer
p2
c__builtin__
object
p3
NtRp4
(dp5
S'vocabulary_'
p6
(dp7
S'w-2=whatever'
p8
I1544
sS'w-1=major'
p9
I1149
sS'amod=average'
p10
I46
sS'advmod=more'
p11
I24
sS'det=no'
p12
I231
sS'w+2=solution'
p13
I972
sS'w+2=health'
p14
I853
sS'nsubj=violence'
p15
I473
sS'dep=Iraq'
p16
I203
sS'w-1=healthcare'
p17
I1118
sS'w+1=south'
p18
I673
sS'w+1=around'
p19
I582
sS'w-1=economic'
p20
I1085
sS'w+2=hard'
p21
I848
sS'nn=entry'
p22
I345
sS'nsubj=malaria'
p23
I432
sS'w+1=benefit'
p24
I589
sS'amod=ordinary'
p25
I98
sS'nn=interest'
p26
I358
sS'iobj=percent'
p27
I315
sS'w-1=net'
p28
I1162
sS'w+2=educate'
p29
I815
sS'w+2=recent'
p30
I943
sS'nsubj=liter'
p31
I431
sS'advmod=annually'
p32
I15
sS'w+2=several'
p33
I963
sS'w+2=size'
p34
I967
sS'dep=cost'
p35
I209
sS'w-1=will'
p36
I1250
sS'w-2=care'
p37
I1316
sS'nsubj=trend'
p38
I471
sS'w-2=long-term'
p39
I1408
sS'w+2=run'
p40
I956
sS'cc=rather'
p41
I143
sS'nsubj=expensive'
p42
I420
sS'w+2=internet'
p43
I872
sS'w+2=promote'
p44
I935
sS'w+1=she'
p45
I668
sS'w-2=time'
p46
I1518
sS'w-1=food'
p47
I1103
sS'poss=Iraq'
p48
I496
sS'w+2=individual'
p49
I868
sS'w-2=typically'
p50
I1529
sS'w-1=fertilizer'
p51
I1099
sS'w+1=of'
p52
I652
sS'conj=economic'
p53
I163
sS'w+2=last'
p54
I881
sS'w+1=life'
p55
I637
sS'w-2=continue'
p56
I1329
sS'ccomp=say'
p57
I145
sS'w+2=Tehran'
p58
I741
sS'w-2=all'
p59
I1287
sS'w-2=trend'
p60
I1526
sS'w-1=could'
p61
I1069
sS'w+2=you'
p62
I1026
sS'prep=around'
p63
I507
sS'w-2=petroleum'
p64
I1450
sS'w+1=two'
p65
I686
sS'partmod=follow'
p66
I488
sS'advcl=be'
p67
I3
sS'w-2=report'
p68
I1476
sS'w-2=that'
p69
I1508
sS'nsubj=barrier'
p70
I400
sS'w+1=the'
p71
I680
sS'w+1=England'
p72
I559
sS'w-2=than'
p73
I1507
sS'dobj=equivalent'
p74
I259
sS'w-2=though'
p75
I1517
sS'w-2=number'
p76
I1432
sS'nsubj=these'
p77
I468
sS'dobj=dollar'
p78
I254
sS'w+1=Africa'
p79
I557
sS'w+2=international'
p80
I871
sS'amod=monthly'
p81
I90
sS'amod=project'
p82
I104
sS'amod=inflation-wracked'
p83
I76
sS'w+1=within'
p84
I695
sS'w+2=obtain'
p85
I911
sS'poss=#PRP#'
p86
I495
sS'w+2=broadband'
p87
I772
sS'csubj=acquire'
p88
I196
sS'conj=blow'
p89
I153
sS'w-1=steep'
p90
I1210
sS'w-1=reconstruction'
p91
I1193
sS'w+2=amount'
p92
I755
sS'amod=value'
p93
I127
sS'w-2=address'
p94
I1281
sS'amod=steep'
p95
I120
sS'conj=be'
p96
I151
sS'w-2=treatment'
p97
I1524
sS'w+2=depress'
p98
I804
sS'aux=could'
p99
I132
sS'w+2=power'
p100
I928
sS'w+2=Raymonds'
p101
I736
sS'amod=continue'
p102
I51
sS'amod=lower'
p103
I86
sS'w-1=harder'
p104
I1113
sS'w+1=plus'
p105
I657
sS'conj=draw'
p106
I162
sS'nsubj=drug'
p107
I417
sS'nsubj=comb'
p108
I404
sS'nsubj=war'
p109
I477
sS'w+1=Europe'
p110
I560
sS'w+2=400,000'
p111
I718
sS'prep=out'
p112
I519
sS'w+2=36'
p113
I716
sS'w+2=35'
p114
I714
sS'w+1=worldwide'
p115
I696
sS'w+2=estimate'
p116
I820
sS'w-2=offset'
p117
I1434
sS'w+2=cover'
p118
I797
sS'xcomp=implement'
p119
I1564
sS'w+2=politically'
p120
I926
sS'w-1=to'
p121
I1226
sS'nsubj=lack'
p122
I430
sS'dobj=#PRP#'
p123
I238
sS'w-2=do'
p124
I1348
sS'amod=massive'
p125
I88
sS'conj=provide'
p126
I176
sS'nn=drilling'
p127
I340
sS'w+2=solar'
p128
I971
sS'w-2=delay'
p129
I1341
sS'amod=high'
p130
I71
sS'w+2=state'
p131
I977
sS'w+2=hundred'
p132
I860
sS'w-1=slash'
p133
I1205
sS'iobj=$'
p134
I289
sS'w+2=force'
p135
I833
sS'w-1=less'
p136
I1142
sS'nsubj=tablet'
p137
I464
sS'w-1=burial'
p138
I1057
sS'w-1=would'
p139
I1252
sS'dep=economy'
p140
I212
sS'w-2=hour'
p141
I1384
sS'w+2=because'
p142
I765
sS'dobj=AM'
p143
I240
sS'nsubj=promise'
p144
I447
sS'amod=institutional'
p145
I78
sS'w-1=more'
p146
I1157
sS'w-2=rocket'
p147
I1481
sS'w-1=start-up'
p148
I1209
sS'dep=dollar'
p149
I211
sS'w+2=kenyan'
p150
I877
sS'dep=#PRP#'
p151
I201
sS'dobj=majority'
p152
I268
sS'advmod=by'
p153
I17
sS'w+1=tie'
p154
I682
sS'w+2=might'
p155
I899
sS'w-2=second'
p156
I1484
sS'w+2=live'
p157
I889
sS'w+2=Ivory'
p158
I733
sS'nsubj=damage'
p159
I411
sS'w+1=housing'
p160
I623
sS'w+2=conflict-management'
p161
I788
sS'nn=telephone'
p162
I375
sS'w-2=manage'
p163
I1414
sS'w+2=cheaper'
p164
I781
sS'nsubj=submarine'
p165
I460
sS'w-1=operate'
p166
I1173
sS'nsubj=set'
p167
I454
sS'w+2=rice'
p168
I951
sS'w-2=while'
p169
I1547
sS'w+2=follow'
p170
I830
sS'nn=malaria'
p171
I364
sS'w+2=move'
p172
I905
sS'w-2=up'
p173
I1532
sS'w-2=those'
p174
I1516
sS'conj=recognize'
p175
I178
sS'w-2=worth'
p176
I1552
sS'w-1=labor'
p177
I1138
sS'w-1=project'
p178
I1190
sS'w+2=selling'
p179
I961
sS'acomp=effective'
p180
I0
sS'amod=start-up'
p181
I119
sS'w+2=taxpayer'
p182
I984
sS'nsubj=year'
p183
I479
sS'det=that'
p184
I232
sS'partmod=associate'
p185
I486
sS'det=any'
p186
I229
sS'dobj=rupee'
p187
I274
sS'w-2=bring'
p188
I1309
sS'w+2=least'
p189
I883
sS'conj=carry'
p190
I154
sS'iobj=country'
p191
I304
sS'w-1=parent'
p192
I1181
sS'w-2=boost'
p193
I1308
sS'advmod=far'
p194
I21
sS'w-2=commerce'
p195
I1323
sS'w+2=exorbitant'
p196
I824
sS'w+1=freight'
p197
I617
sS'w-1=sheer'
p198
I1202
sS'w-1=up'
p199
I1237
sS'acomp=less'
p200
I1
sS'rcmod=have'
p201
I535
sS'w-2=lessen'
p202
I1404
sS'iobj=Gore'
p203
I293
sS'w-1=plan'
p204
I1183
sS'amod=potential'
p205
I103
sS'w+2=slower'
p206
I969
sS'predet=all'
p207
I504
sS'w-2=go'
p208
I1376
sS'nsubj=package'
p209
I437
sS'w+2=seek'
p210
I960
sS'w-2=mission'
p211
I1424
sS'w+2=launch'
p212
I882
sS'dobj=use'
p213
I282
sS'w-1=hide'
p214
I1119
sS'w+2=countless'
p215
I795
sS'w+2=this'
p216
I993
sS'w-1=escalate'
p217
I1093
sS'w-2=deepwater'
p218
I1339
sS'w-2=travel'
p219
I1523
sS'nn=oil'
p220
I365
sS'w+1=between'
p221
I590
sS'w+1=considerably'
p222
I596
sS'w+2=really'
p223
I941
sS'w-1=other'
p224
I1176
sS'w+2=20'
p225
I709
sS'w+2=27'
p226
I711
sS'w-1=auto'
p227
I1047
sS'mark=while'
p228
I321
sS'w-2=with'
p229
I1550
sS'nn=victim'
p230
I384
sS'nn=defense'
p231
I336
sS'w-2=area'
p232
I1291
sS'w+1=cell'
p233
I594
sS'w+2=military'
p234
I900
sS'w-2=fear'
p235
I1365
sS'w-1=most'
p236
I1158
sS'prep=compare'
p237
I512
sS'w+2=rule'
p238
I955
sS'w-1=cemetery'
p239
I1061
sS'w-2=in'
p240
I1387
sS'amod=public'
p241
I105
sS'iobj=Ford'
p242
I292
sS'w-2=it'
p243
I1396
sS'w+2=nearly'
p244
I908
sS'amod=increase'
p245
I74
sS'amod=few'
p246
I63
sS'nn=egg'
p247
I342
sS'amod=mount'
p248
I92
sS'num=triple'
p249
I484
sS'w+2=station'
p250
I978
sS'w-2=disease'
p251
I1345
sS'w-1=monthly'
p252
I1156
sS'w-1=few'
p253
I1100
sS'mark=although'
p254
I318
sS'nsubj=schoolbook'
p255
I453
sS'dep=contribute'
p256
I208
sS'dep=some'
p257
I222
sS'w-2=entire'
p258
I1356
sS'w-1=real'
p259
I1192
sS'dobj=Iraq'
p260
I243
sS'w-2=States'
p261
I1277
sS'w+2=prescription'
p262
I929
sS'iobj=lot'
p263
I312
sS'w-2=call'
p264
I1313
sS'w-2=have'
p265
I1379
sS'nn=health'
p266
I351
sS'w+1=will'
p267
I694
sS'iobj=job'
p268
I311
sS'w+2=develop'
p269
I805
sS'nsubjpass=fuel'
p270
I480
sS'amod=financial'
p271
I64
sS'w-2=russian'
p272
I1482
sS'w-2=suggest'
p273
I1501
sS'poss=manufacturer'
p274
I500
sS'w+1=if'
p275
I625
sS'dobj=than'
p276
I277
sS'w+1=in'
p277
I626
sS'w-2=full'
p278
I1370
sS'w+1=cut'
p279
I599
sS'w+1=it'
p280
I629
sS'dobj=that'
p281
I278
sS'w+1=on'
p282
I653
sS'nsubj=#PRP#'
p283
I388
sS'w+1=about'
p284
I572
sS'w-1=very'
p285
I1241
sS'w+2=trigger'
p286
I1007
sS'w-2=instant'
p287
I1394
sS'w+2=get'
p288
I841
sS'advmod=ahead'
p289
I10
sS'w+2=adaptable'
p290
I749
sS'dobj=#NUMBER#'
p291
I237
sS'w+1=might'
p292
I645
sS'w-2=increase'
p293
I1389
sS'w+2=cut'
p294
I800
sS'w+2=reunification'
p295
I950
sS'amod=greater'
p296
I70
sS'w+2=war'
p297
I1015
sS'advmod=all'
p298
I11
sS'poss=whose'
p299
I502
sS'w-2=down'
p300
I1351
sS'w+2=indonesian'
p301
I869
sS'w-1=material'
p302
I1152
sS'w-2=reduce'
p303
I1472
sS'w-2=general'
p304
I1372
sS'w-1=control'
p305
I1068
sS'conj=scope'
p306
I187
sS'advmod=dearly'
p307
I18
sS'w-1=economy'
p308
I1086
sS'dep=transport'
p309
I224
sS'w-2=length'
p310
I1402
sS'w-1=excessive'
p311
I1096
sS'amod=limited'
p312
I82
sS'w-1=eventually'
p313
I1095
sS'amod=other'
p314
I99
sS'w-2=more'
p315
I1425
sS'w+1=money'
p316
I647
sS'w-2=what'
p317
I1543
sS'w-2=higher'
p318
I1383
sS'w+2=each'
p319
I811
sS'w-2=almost'
p320
I1288
sS'xcomp=run'
p321
I1570
sS'w+2=expatriate'
p322
I825
sS'w-2=to'
p323
I1519
sS'rcmod=concern'
p324
I533
sS'w-2=and'
p325
I1289
sS'w-2=sit-in'
p326
I1487
sS'w-2=one'
p327
I1436
sS'w+1=savings'
p328
I665
sS'tmod=time'
p329
I544
sS'w-2=any'
p330
I1290
sS'w+2=korean'
p331
I878
sS'prep=since'
p332
I523
sS'w+1=dozen'
p333
I604
sS'w+2=rental'
p334
I946
sS'w-2=spread'
p335
I1496
sS'dobj=average'
p336
I249
sS'w-1=human'
p337
I1124
sS'xcomp=secure'
p338
I1571
sS'dobj=economy'
p339
I257
sS'nn=fuel'
p340
I350
sS'w+2=food'
p341
I831
sS'w-1=and'
p342
I1043
sS'w-1=industry'
p343
I1131
sS'w-1=cigarette'
p344
I1064
sS'w-1=China'
p345
I1033
sS'w+2=10'
p346
I704
sS'amod=social'
p347
I117
sS'xcomp=convert'
p348
I1557
sS'w-1=ride'
p349
I1196
sS'w+2=foreign'
p350
I834
sS'w-1=security'
p351
I1200
sS'w-2=other'
p352
I1439
sS'w+2=government'
p353
I845
sS'w+1=down'
p354
I603
sS'w-2=look'
p355
I1409
sS'w-1=they'
p356
I1222
sS'w+1=price'
p357
I659
sS'w-1=high'
p358
I1120
sS'w-1=borrowing'
p359
I1055
sS'nn=labor'
p360
I360
sS'w-2=pen'
p361
I1447
sS'w+2=rise'
p362
I953
sS'w-1=-lrb-'
p363
I1030
sS'w+2=risk'
p364
I954
sS'nsubj=snub'
p365
I456
sS'w+1=mean'
p366
I643
sS'w-2=so-called'
p367
I1493
sS'w-2=very'
p368
I1536
sS'w-1=now'
p369
I1166
sS'w+1=which'
p370
I692
sS'w+2=around'
p371
I757
sS'dep=more'
p372
I217
sS'w-2=pardon'
p373
I1444
sS'w-1=tremendous'
p374
I1234
sS'nsubj=case'
p375
I402
sS'w-2=priest'
p376
I1457
sS'rcmod=pay'
p377
I539
sS'advmod=before'
p378
I16
sS'w-1=ordinary'
p379
I1175
sS'advmod=upward'
p380
I37
sS'w+2=battery'
p381
I763
sS'nn=transmission'
p382
I380
sS'amod=fixed'
p383
I65
sS'w-1=all'
p384
I1041
sS'iobj=U.S.'
p385
I298
sS'w+2=depend'
p386
I803
sS'amod=domestic'
p387
I54
sS'w+2=East'
p388
I730
sS'w-2=impose'
p389
I1385
sS'w-1=election'
p390
I1088
sS'w-1=rent'
p391
I1195
sS'w-1=full'
p392
I1107
sS'w-1=additional'
p393
I1038
sS'w-2=car'
p394
I1315
sS'w-2=give'
p395
I1374
sS'dobj=House'
p396
I242
sS'w-2=can'
p397
I1314
sS'w-1=total'
p398
I1227
sS'w+2=campaign'
p399
I776
sS'w-1=housing'
p400
I1123
sS'w+2=life'
p401
I887
sS'amod=russian'
p402
I110
sS'w+1=Mr.'
p403
I567
sS'w-1=actual'
p404
I1037
sS'w+1=hundred'
p405
I624
sS'w+2=indian'
p406
I867
sS'amod=reduce'
p407
I108
sS'w+2=business'
p408
I774
sS'w+2=611'
p409
I723
sS'w+2=smoking-related'
p410
I970
sS'w+1=roughly'
p411
I664
sS'dep=low'
p412
I215
sS'w-2=billion'
p413
I1306
sS'w+2=translate'
p414
I1002
sS'w+2=import'
p415
I863
sS'amod=large'
p416
I79
sS'w+2=goods'
p417
I844
sS'conj=not'
p418
I173
sS'w-2=complain'
p419
I1325
sS'nn=election'
p420
I343
sS'dobj=much'
p421
I272
sS'w+2=between'
p422
I768
sS'w-2=container'
p423
I1327
sS'nn=water'
p424
I386
sS'w-1=import'
p425
I1126
sS'det=all'
p426
I228
sS'w+1=that'
p427
I679
sS'iobj=some'
p428
I316
sS'iobj=Turkey'
p429
I297
sS'w-1=say'
p430
I1199
sS'rcmod=prevent'
p431
I540
sS'amod=actual'
p432
I42
sS'w-1=care'
p433
I1060
sS'iobj=automaker'
p434
I299
sS'dobj=industry'
p435
I264
sS'amod=non-food'
p436
I95
sS'partmod=link'
p437
I490
sS'nsubj=reaction'
p438
I448
sS'w-1=gas'
p439
I1108
sS'advmod=just'
p440
I23
sS'nn=industry'
p441
I357
sS'amod=so-called'
p442
I115
sS'w-1=usually'
p443
I1239
sS'aux=may'
p444
I135
sS'w+1=retailer'
p445
I662
sS'w+2=producer'
p446
I933
sS'nsubj=incursion'
p447
I426
sS'w-2=conversion'
p448
I1332
sS'advmod=greatly'
p449
I22
sS'w-2=the'
p450
I1509
sS'w+2=proximity'
p451
I938
sS'w+1=job'
p452
I632
sS'nn=burial'
p453
I327
sS'w+2=build'
p454
I773
sS'csubj=compound'
p455
I197
sS'w+1=just'
p456
I633
sS'nsubj=mission'
p457
I434
sS'w+2=petroleum'
p458
I921
sS'iobj=taxpayer'
p459
I317
sS'dep=what'
p460
I225
sS'w-1=have'
p461
I1114
sS'w+2=in'
p462
I864
sS'w-2=week'
p463
I1542
sS'advmod=#PRP#'
p464
I9
sS'w-1=interest'
p465
I1133
sS'prep=about'
p466
I505
sS'aux=can'
p467
I131
sS'w+2=thousand'
p468
I994
sS'acomp=more'
p469
I2
sS'advmod=drastically'
p470
I19
sS'advmod=only'
p471
I28
sS'w+2=combat'
p472
I786
sS'amod=economic'
p473
I56
sS'w+2=300-400'
p474
I713
sS'w+1=for'
p475
I615
sS'w+2=point'
p476
I925
sS'prep=to'
p477
I525
sS'nn=China'
p478
I323
sS'w-2=minimize'
p479
I1422
sS'w-2=soar'
p480
I1494
sS'w+2=even'
p481
I821
sS'w+2=wheat'
p482
I1019
sS'w+2=increase'
p483
I866
sS'w-2=project'
p484
I1461
sS'w+2=for'
p485
I832
sS'w+1=neutral'
p486
I650
sS'w+2=adapt'
p487
I748
sS'iobj=exporter'
p488
I307
sS'w-1=such'
p489
I1213
sS'w+2=we'
p490
I1016
sS'w-2=control'
p491
I1331
sS'dobj=election'
p492
I258
sS'w-2=change'
p493
I1320
sS'w+2=hurt'
p494
I861
sS'w-2=expect'
p495
I1362
sS'nsubj=initiative'
p496
I427
sS'conj=remediation'
p497
I181
sS'w-1=big'
p498
I1053
sS'w-2=cause'
p499
I1318
sS'iobj=#PRP#'
p500
I288
sS'advmod=whatever'
p501
I39
sS'nn=treatment'
p502
I383
sS'nsubj=all'
p503
I395
sS'w-2=Iraq'
p504
I1270
sS'conj=sacrifice'
p505
I185
sS'det=the'
p506
I233
sS'w-2=below'
p507
I1304
sS'w+2=ease'
p508
I813
sS'w+2=top'
p509
I999
sS'dobj=support'
p510
I276
sS'dobj=cent'
p511
I251
sS'w+1=approximately'
p512
I581
sS'amod=escalate'
p513
I59
sS'w+2=twice'
p514
I1008
sS'w-1=greater'
p515
I1112
sS'w+2=intervention'
p516
I873
sS'w+2=here'
p517
I854
sS'w-2=percent'
p518
I1449
sS'nn=coffee'
p519
I333
sS'nsubj=that'
p520
I467
sS'w+2=scope'
p521
I958
sS'prep=over'
p522
I520
sS'w+2=actually'
p523
I747
sS'nn=auto'
p524
I325
sS'amod=political'
p525
I102
sS'w+2=measure'
p526
I897
sS'w+1=airline'
p527
I574
sS'w-1=environmental'
p528
I1092
sS'w-1=where'
p529
I1247
sS'w+2=continue'
p530
I792
sS'w-1=water'
p531
I1244
sS'w-1=with'
p532
I1251
sS'nsubj=degree'
p533
I414
sS'conj=harm'
p534
I167
sS'w-2=health'
p535
I1380
sS'w+2=mitigation'
p536
I902
sS'nsubj=technology'
p537
I465
sS'advmod=alone'
p538
I13
sS'w-1=trade'
p539
I1228
sS'dobj=figure'
p540
I261
sS'parataxis=say'
p541
I485
sS'w+2=due'
p542
I810
sS'w-1=individual'
p543
I1130
sS'w+2=while'
p544
I1021
sS'nsubj=involvement'
p545
I428
sS'w-1=one'
p546
I1170
sS'w-2=ever-rising'
p547
I1360
sS'w+2=million'
p548
I901
sS'w-2=over'
p549
I1440
sS'w+2=good'
p550
I843
sS'w-1=large'
p551
I1140
sS'w+2=create'
p552
I798
sS'w+2=say'
p553
I957
sS'w-2=cure'
p554
I1334
sS'iobj=church'
p555
I301
sS'w+1=american'
p556
I576
sS'conj=salary'
p557
I186
sS'w-2=estimate'
p558
I1358
sS'w+1=under'
p559
I687
sS'w-2=display'
p560
I1346
sS'w-2=deal'
p561
I1336
sS'w-1=donut'
p562
I1082
sS'w-1=identify'
p563
I1125
sS'rcmod=claim'
p564
I532
sS'w+2=basic'
p565
I762
sS'dobj=lot'
p566
I267
sS'w-2=charge'
p567
I1321
sS'w+2=year'
p568
I1025
sS'xcomp=adapt'
p569
I1553
sS'nn=war'
p570
I385
sS'w+1=to'
p571
I683
sS'w-2=keep'
p572
I1399
sS'w+2=long-term'
p573
I891
sS'w-2=cover'
p574
I1333
sS'w+2=he'
p575
I852
sS'nn=economy'
p576
I341
sS'w-1=any'
p577
I1045
sS'amod=ever-rising'
p578
I61
sS'w+2=re-negotiate'
p579
I940
sS'w-1=pay'
p580
I1182
sS'w-1=drilling'
p581
I1083
sS'w+1=disadvantage'
p582
I602
sS'w-1=coffee'
p583
I1065
sS'w-2=global'
p584
I1375
sS'w+1=South'
p585
I568
sS'w+2=better'
p586
I767
sS'dobj=fortune'
p587
I262
sS'w+1=say'
p588
I666
sS'w-2=build'
p589
I1310
sS'w-2=AIDS'
p590
I1265
sS'conj=plan'
p591
I175
sS'w-2=potential'
p592
I1454
sS'w+2=economic'
p593
I814
sS'w+2=havetragic'
p594
I851
sS'iobj=Microsoft'
p595
I296
sS'prep=up'
p596
I527
sS'w-1=usual'
p597
I1238
sS'nsubj=battery'
p598
I401
sS'w-2=decade'
p599
I1337
sS'w+1=among'
p600
I577
sS'amod=full'
p601
I66
sS'advmod=there'
p602
I33
sS'w-1=always'
p603
I1042
sS'w+1=could'
p604
I598
sS'w+2=carry'
p605
I779
sS'w+2=many'
p606
I896
sS'conj=spark'
p607
I191
sS'w+1=less'
p608
I636
sS'w-2=presenter'
p609
I1455
sS'nsubj=decision'
p610
I413
sS'w+1=Microsoft'
p611
I566
sS'amod=global'
p612
I68
sS'w-1=energy'
p613
I1090
sS'amod=much'
p614
I93
sS'w-1=fraud'
p615
I1105
sS'w+2=its'
p616
I876
sS'w+2=borrowing'
p617
I771
sS'partmod=require'
p618
I491
sS'w-2=plan'
p619
I1452
sS'w-2=referendum'
p620
I1474
sS'w+2=earmark'
p621
I812
sS'w-1=institutional'
p622
I1132
sS'w+2=fuel'
p623
I836
sS'w+1=slightly'
p624
I669
sS'w+2=transportation'
p625
I1004
sS'infmod=transport'
p626
I286
sS'nsubj=surgery'
p627
I462
sS'conj=use'
p628
I192
sS'w+2=private'
p629
I930
sS'amod=lot'
p630
I84
sS'amod=low'
p631
I85
sS'w+2=dollar'
p632
I808
sS'w-1=detention'
p633
I1078
sS'w-2=conflict'
p634
I1326
sS'dobj=dose'
p635
I255
sS'w-1=investment'
p636
I1134
sS'w+1=may'
p637
I642
sS'poss=fair'
p638
I499
sS'xcomp=take'
p639
I1572
sS'w-2=despite'
p640
I1342
sS'advmod=almost'
p641
I12
sS'w-1=affair'
p642
I1040
sS'w+2=natural'
p643
I907
sS'w+2=some'
p644
I973
sS'iobj=patient'
p645
I314
sS'dep=continent'
p646
I207
sS'w+2=wedding'
p647
I1017
sS'dobj=U.S.'
p648
I246
sS'w+2=overall'
p649
I917
sS'cc=but'
p650
I142
sS'nsubj=sit-in'
p651
I455
sS'amod=own'
p652
I101
sS'w+2=airfare'
p653
I752
sS'nn=living'
p654
I362
sS'advcl=plan'
p655
I8
sS'w-2=direct'
p656
I1344
sS'nn=slash'
p657
I372
sS'w+2=5,000'
p658
I720
sS'amod=tremendous'
p659
I123
sS'nsubj=fee'
p660
I422
sS'partmod=tie'
p661
I493
sS'w+1=million'
p662
I646
sS'w-1=cent'
p663
I1062
sS'w+2=which'
p664
I1020
sS'dobj=business'
p665
I250
sS'w+2=bad'
p666
I761
sS'nn=trade'
p667
I378
sS'w-2=take'
p668
I1505
sS'w-1=itself'
p669
I1137
sS'w+1=go'
p670
I620
sS'nsubj=which'
p671
I478
sS'amod=sheer'
p672
I112
sS'rcmod=incur'
p673
I537
sS'amod=individual'
p674
I75
sS'w+1=poorercountry'
p675
I658
sS'w+2=benefit'
p676
I766
sS'w-2=treatments-the'
p677
I1525
sS'w+2=less'
p678
I885
sS'w-2=continuously'
p679
I1330
sS'w+2=right'
p680
I952
sS'w-2=traffic'
p681
I1522
sS'w+2=up'
p682
I1009
sS'w-2=between'
p683
I1305
sS'nn=maintenance'
p684
I363
sS'w-1=land'
p685
I1139
sS'w+2=housing'
p686
I858
sS'w+1=life-saving'
p687
I638
sS'nsubj=system'
p688
I463
sS'conj=some'
p689
I190
sS'w-1=surgery'
p690
I1214
sS'w+1=up'
p691
I688
sS'w+1=while'
p692
I693
sS'w-2=vote'
p693
I1538
sS'neg=not'
p694
I322
sS'amod=effective'
p695
I57
sS'w+1=more'
p696
I648
sS'w-2=much'
p697
I1428
sS'w-2=,'
p698
I1257
sS'w-2=-'
p699
I1258
sS'w-2=.'
p700
I1260
sS'w-1=egg'
p701
I1087
sS'nn=home'
p702
I354
sS"w-2='"
p703
I1254
sS'aux=have'
p704
I134
sS'w+2=worse'
p705
I1024
sS'w-2=think'
p706
I1514
sS'w+2=Iran'
p707
I732
sS'w-2=:'
p708
I1264
sS'w+1=depress'
p709
I601
sS'w-1=non-food'
p710
I1164
sS'nsubj=bailout'
p711
I399
sS'iobj=dollar'
p712
I305
sS'amod=spiral'
p713
I118
sS'w+2=phone'
p714
I922
sS'nsubj=bag'
p715
I398
sS'w+2=Korea'
p716
I734
sS'w-2=Saturday'
p717
I1276
sS'w-2=a'
p718
I1278
sS'w-2=low'
p719
I1411
sS'w-2=lot'
p720
I1410
sS'w-2=job'
p721
I1397
sS'w-1=he'
p722
I1115
sS'w+1=rather'
p723
I661
sS'w+2=Secretary'
p724
I739
sS'w+1=anything'
p725
I579
sS'w-1=malaria'
p726
I1150
sS'partmod=attach'
p727
I487
sS'w-1=battery'
p728
I1050
sS'w-1=transaction'
p729
I1229
sS'w-2=Afghanistan'
p730
I1266
sS'w-2=procedure'
p731
I1458
sS'w-2=tablet'
p732
I1504
sS'dobj=vote'
p733
I283
sS'nsubj=strike'
p734
I459
sS'w-1=potential'
p735
I1186
sS'w-2=enormous'
p736
I1355
sS'w-2=develop'
p737
I1343
sS'nn=borrowing'
p738
I326
sS'w-2=likely'
p739
I1406
sS'w-2=lengthy'
p740
I1403
sS'w-2=this'
p741
I1515
sS'mark=since'
p742
I320
sS'w+1=medical'
p743
I644
sS'w+2=U.S.'
p744
I742
sS'dobj=point'
p745
I273
sS'prep=from'
p746
I515
sS'w+2=term'
p747
I986
sS'w-2=kidnap'
p748
I1400
sS'w-2=goods'
p749
I1377
sS'w-1=my'
p750
I1161
sS'w-2=push'
p751
I1466
sS'w+2=opposition'
p752
I916
sS'w-2=size'
p753
I1488
sS'w-1=limited'
p754
I1143
sS'w+1=$'
p755
I547
sS'w+1=-'
p756
I550
sS'w+1=,'
p757
I549
sS'w+1=.'
p758
I552
sS'w-1=animal'
p759
I1044
sS'w-2=incur'
p760
I1390
sS'w+1=:'
p761
I555
sS'w-2=Bay'
p762
I1268
sS'w-2=real'
p763
I1469
sS'w+1=I'
p764
I563
sS'w-2=high'
p765
I1382
sS'w+2=support'
p766
I982
sS'w+1=a'
p767
I571
sS'nsubj=treatment'
p768
I470
sS'w-2=trade'
p769
I1521
sS'w-1=great'
p770
I1111
sS'w+1=he'
p771
I622
sS'w-2=because'
p772
I1302
sS'w-1=that'
p773
I1219
sS'w-2=reflect'
p774
I1475
sS'preconj=both'
p775
I503
sS'xcomp=travel'
p776
I1574
sS'w-2=people'
p777
I1448
sS'conj=lose'
p778
I171
sS'nn=investment'
p779
I359
sS'dep=know'
p780
I214
sS'w-2=mount'
p781
I1426
sS'w+1=Thailand'
p782
I569
sS'xcomp=use'
p783
I1575
sS'nn=country'
p784
I334
sS'advcl=make'
p785
I7
sS'w-2=effect'
p786
I1353
sS'w+1=Italy'
p787
I565
sS'amod=rise'
p788
I109
sS'nsubj=pandemic'
p789
I438
sS'w+2=child'
p790
I782
sS'nn=food'
p791
I348
sS'nsubj=container'
p792
I408
sS'rcmod=estimate'
p793
I534
sS'w+1=only'
p794
I655
sS'w-2=from'
p795
I1369
sS'poss=war'
p796
I501
sS'nn=reconstruction'
p797
I369
sS'w+2=high'
p798
I855
sS'nn=Lada'
p799
I324
sS'w-2=employee'
p800
I1354
sS'dobj=trip'
p801
I280
sS'w+1=taxpayer'
p802
I677
sS'w-2=20'
p803
I1261
sS'w+2=client'
p804
I784
sS'w-2=trim'
p805
I1527
sS'w+2=country'
p806
I796
sS'w-2=today'
p807
I1520
sS'w+2=to'
p808
I997
sS'w-2=decide'
p809
I1338
sS'w-1=student'
p810
I1212
sS'w+2=accommodation'
p811
I745
sS'w+2=patient'
p812
I919
sS'w-2=market'
p813
I1415
sS'w+2=Los'
p814
I735
sS'amod=closed'
p815
I49
sS'w-1=its'
p816
I1136
sS'nsubj=Tuzmen'
p817
I392
sS'nsubj=price'
p818
I444
sS'w+1=item'
p819
I630
sS'w+2=aviation'
p820
I760
sS'complm=that'
p821
I147
sS'w+2=property'
p822
I936
sS'w+1=where'
p823
I691
sS'w+2=vote'
p824
I1013
sS'w+1=five'
p825
I614
sS'w-1=salary'
p826
I1198
sS'w-2=operate'
p827
I1437
sS'w-1=raise'
p828
I1191
sS'w+2=sugar'
p829
I980
sS'w+2=living'
p830
I890
sS'xcomp=do'
p831
I1560
sS'w-2=for'
p832
I1367
sS'w+1=they'
p833
I681
sS'prep=in'
p834
I516
sS'w+1=attach'
p835
I586
sS'advmod=yet'
p836
I40
sS'w+2=greatly'
p837
I846
sS'rcmod=cause'
p838
I531
sS'w-1=obviously'
p839
I1167
sS'nn=transport'
p840
I381
sS'dobj=more'
p841
I271
sS'w-1=it'
p842
I1135
sS'nsubj=voyage'
p843
I474
sS'w+2=tool'
p844
I998
sS'det=this'
p845
I235
sS'w-1=in'
p846
I1127
sS'w+1=estimate'
p847
I610
sS'w-1=the'
p848
I1220
sS'conj=consumer'
p849
I157
sS'nsubj=experience'
p850
I421
sS'amod=ongoing'
p851
I96
sS'csubj=stick'
p852
I199
sS'dobj=close'
p853
I252
sS'w+2=not'
p854
I910
sS'nsubj=reality'
p855
I449
sS'w+2=company'
p856
I787
sS'w+2=day'
p857
I801
sS'w+2=lot'
p858
I893
sS'rcmod=be'
p859
I530
sS'csubj=do'
p860
I198
sS'ccomp=live'
p861
I144
sS'w+2=higher'
p862
I856
sS'det=these'
p863
I234
sS'prep=by'
p864
I511
sS'w-2=african'
p865
I1286
sS'conj=proximity'
p866
I177
sS'w+1=factor'
p867
I613
sS'iobj=Iraq'
p868
I294
sS'w-2=or'
p869
I1438
sS'xcomp=develop'
p870
I1559
sS'w-2=of'
p871
I1433
sS'w+1=can'
p872
I593
sS'w-1=Lada'
p873
I1034
sS'w-2=on'
p874
I1435
sS'w+2=restructure'
p875
I948
sS'w-2=own'
p876
I1442
sS'w-1=program'
p877
I1189
sS'conj=value'
p878
I193
sS'nsubj=detention'
p879
I416
sS'w-2=degree'
p880
I1340
sS'w-1=reduce'
p881
I1194
sS'w+1=as'
p882
I583
sS'w+1=at'
p883
I585
sS'w+2=retail'
p884
I949
sS'w-1=car'
p885
I1059
sS'dobj=less'
p886
I265
sS'amod=general'
p887
I67
sS'w-2=microstamp'
p888
I1419
sS'amod=excessive'
p889
I62
sS'mark=for'
p890
I319
sS'w+2=financial'
p891
I828
sS'iobj=Africa'
p892
I290
sS'w-1=can'
p893
I1058
sS'amod=instant'
p894
I77
sS'w-1=skyrocket'
p895
I1204
sS'w-1=rise'
p896
I1197
sS'amod=yearly'
p897
I128
sS'w-1=those'
p898
I1225
sS'det=those'
p899
I236
sS'dobj=Australia'
p900
I241
sS'w-2=support'
p901
I1502
sS'w+2=deal'
p902
I802
sS'w+1=we'
p903
I690
sS'w+2=oil'
p904
I913
sS'conj=clog'
p905
I156
sS'w-2=50'
p906
I1263
sS'w-2=continent'
p907
I1328
sS'w-1=social'
p908
I1207
sS'w-1=direct'
p909
I1080
sS'w-2=dna'
p910
I1347
sS'auxpass=be'
p911
I140
sS"w-1='s"
p912
I1028
sS'iobj=government'
p913
I309
sS'w+2=16,000'
p914
I706
sS'w-2=last'
p915
I1401
sS'rel=about'
p916
I543
sS'amod=major'
p917
I87
sS'iobj=manufacturer'
p918
I313
sS'nn=housing'
p919
I355
sS'rcmod=spur'
p920
I542
sS'w+2=AM'
p921
I726
sS'w-2=mine'
p922
I1421
sS'nsubj=operation'
p923
I436
sS'w+1=rise'
p924
I663
sS'nsubj=#NUMBER#'
p925
I387
sS'w+2=global'
p926
I842
sS'iobj=company'
p927
I302
sS'w+2=Russia'
p928
I738
sS'nn=import'
p929
I356
sS'w+1=its'
p930
I631
sS'dep=prevent'
p931
I221
sS'dobj=what'
p932
I284
sS"w-1=''"
p933
I1027
sS'w-1=transportation'
p934
I1232
sS'nn=transaction'
p935
I379
sS'w-2=place'
p936
I1451
sS'w+1=Americans'
p937
I558
sS'xcomp=transport'
p938
I1573
sS'amod=$'
p939
I41
sS'w-2=expensive'
p940
I1363
sS'w-1=no'
p941
I1163
sS'dep=bring'
p942
I204
sS'conj=adaptable'
p943
I150
sS"w-2=''"
p944
I1255
sS'nsubj=this'
p945
I469
sS'dobj=government'
p946
I263
sS'w+1=four'
p947
I616
sS'amod=administrative'
p948
I45
sS'w+2=manufacture'
p949
I895
sS'nsubj=improvement'
p950
I425
sS'w+2=ten'
p951
I985
sS'amod=necessary'
p952
I94
sS'conj=have'
p953
I168
sS'w+2=grow'
p954
I847
sS'w-2=pandemic'
p955
I1443
sS'w-2=there'
p956
I1511
sS'w+2=hauler'
p957
I849
sS'w+2=provide'
p958
I937
sS'w-2=add'
p959
I1280
sS"w-2='s"
p960
I1256
sS'w-2=commuter'
p961
I1324
sS'advcl=have'
p962
I4
sS'w+2=replace'
p963
I947
sS'w-1=overhead'
p964
I1179
sS'w-2=no'
p965
I1430
sS'csubj=take'
p966
I200
sS'w+1=120,000'
p967
I553
sS'w+1=because'
p968
I588
sS'dobj=approximately'
p969
I248
sS'w+2=every'
p970
I822
sS'w-1=pardon'
p971
I1180
sS'nsubj=support'
p972
I461
sS'w+2=South'
p973
I740
sS'w-2=boat'
p974
I1307
sS'w+2=much'
p975
I906
sS'w+2=90'
p976
I725
sS'amod=significant'
p977
I113
sS'nsubj=space'
p978
I457
sS'w-2=which'
p979
I1546
sS'advmod=even'
p980
I20
sS'w+2=wage'
p981
I1014
sS'amod=overall'
p982
I100
sS'w-1=thing'
p983
I1223
sS'dobj=$'
p984
I239
sS'w+1=labor'
p985
I634
sS'w-2=closed'
p986
I1322
sS'w+2=care'
p987
I778
sS'aux=will'
p988
I138
sS'w-1=value'
p989
I1240
sS'w-2=Life'
p990
I1272
sS'prep=with'
p991
I528
sS'w+2=spike'
p992
I975
sS'w-2=recover'
p993
I1471
sS'w+1=associate'
p994
I584
sS'w+2=peacekeep'
p995
I920
sS'w-2=pay'
p996
I1446
sS'xcomp=liter'
p997
I1566
sS'w-2=unfairly'
p998
I1530
sS'w-1=victim'
p999
I1242
sS'w-1=street'
p1000
I1211
sS'nsubj=pen'
p1001
I440
sS'w+2=do'
p1002
I807
sS'xcomp=execute'
p1003
I1561
sS'amod=local'
p1004
I83
sS'w-2=vehicle'
p1005
I1535
sS'nsubj=advice'
p1006
I393
sS'conj=climb'
p1007
I155
sS'w+2=transport'
p1008
I1003
sS'w-2=rice'
p1009
I1479
sS'iobj=industry'
p1010
I310
sS'w-2=slash'
p1011
I1490
sS'det=both'
p1012
I230
sS'nn=productivity'
p1013
I368
sS'w+2=largest'
p1014
I880
sS'w+2=gambling'
p1015
I837
sS'w+2=value'
p1016
I1011
sS'amod=current'
p1017
I52
sS'w+2=tortilla'
p1018
I1000
sS'w-2=range'
p1019
I1468
sS'w-2=Mars'
p1020
I1273
sS'w-2=5'
p1021
I1262
sS'w-2=provide'
p1022
I1464
sS'w-2=reasonable'
p1023
I1470
sS'w-1=these'
p1024
I1221
sS'w+2=capital'
p1025
I777
sS'cc=and'
p1026
I141
sS'w-2=certain'
p1027
I1319
sS'w-1=yearly'
p1028
I1253
sS'w-2=productivity'
p1029
I1460
sS'w+1=by'
p1030
I592
sS'w+1=be'
p1031
I587
sS'w-1=week'
p1032
I1246
sS'w-1=spiral'
p1033
I1208
sS'amod=trim'
p1034
I124
sS'nsubj=money'
p1035
I435
sS'w-2=overall'
p1036
I1441
sS'w+1=Iraq'
p1037
I564
sS'w-2=war'
p1038
I1541
sS'w-1=home'
p1039
I1122
sS'w+1=tremendously'
p1040
I684
sS'nsubj=pressure'
p1041
I443
sS'advmod=way'
p1042
I38
sS'tmod=year'
p1043
I546
sS'amod=additional'
p1044
I44
sS'amod=true'
p1045
I125
sS'w-2=promise'
p1046
I1462
sS'w+1=into'
p1047
I627
sS'w+2=climate'
p1048
I785
sS'nsubj=condition'
p1049
I405
sS'w+1=upward'
p1050
I689
sS'w-1=least'
p1051
I1141
sS'w+1=anywhere'
p1052
I580
sS'w+1=-rrb-'
p1053
I551
sS'appos=handful'
p1054
I129
sS'w-2=these'
p1055
I1512
sS'poss=company'
p1056
I497
sS'w+2=time'
p1057
I996
sS'nn=fraud'
p1058
I349
sS'w+2=service'
p1059
I962
sS'nsubj=program'
p1060
I445
sS'conj=element'
p1061
I164
sS'conj=regulation'
p1062
I179
sS'prep=of'
p1063
I517
sS'amod=such'
p1064
I121
sS'prep=on'
p1065
I518
sS'w+2=implement'
p1066
I862
sS'w-2=reduction'
p1067
I1473
sS'w+1=communication'
p1068
I595
sS'amod=direct'
p1069
I53
sS'w+2=than'
p1070
I987
sS'partmod=trigger'
p1071
I494
sS'w+2=that'
p1072
I988
sS'w+2=also'
p1073
I753
sS'amod=more'
p1074
I91
sS'w-2=sheep'
p1075
I1485
sS'w+2=and'
p1076
I756
sS'advcl=last'
p1077
I5
sS'w-2=get'
p1078
I1373
sS'w-2=live'
p1079
I1407
sS'nsubj=policy'
p1080
I441
sS'w-2=involvement'
p1081
I1395
sS'w-1=chinese'
p1082
I1063
sS'w-2=affect'
p1083
I1284
sS'w-2=system'
p1084
I1503
sS'w-1=of'
p1085
I1168
sS'w-2=inflation-wracked'
p1086
I1392
sS'w-1=local'
p1087
I1145
sS'w+2=it'
p1088
I875
sS'w-1=higher'
p1089
I1121
sS'w+2=pursue'
p1090
I939
sS'conj=credit'
p1091
I159
sS'w-1=political'
p1092
I1185
sS'advmod=obviously'
p1093
I27
sS'w+1=Gerald'
p1094
I561
sS'w-1=plant'
p1095
I1184
sS'w-2=waiver'
p1096
I1539
sS'w-2=afford'
p1097
I1285
sS'w+2=diesel'
p1098
I806
sS'advmod=now'
p1099
I26
sS'w+1=trigger'
p1100
I685
sS'w-2=triple'
p1101
I1528
sS'dep=$'
p1102
I202
sS'w+2=into'
p1103
I874
sS'w-2=will'
p1104
I1548
sS'poss=degree'
p1105
I498
sS'nn=fertilizer'
p1106
I347
sS'w+2=Americans'
p1107
I727
sS'xcomp=process'
p1108
I1568
sS'w-2=technology'
p1109
I1506
sS'w+2=make'
p1110
I894
sS'w+1=billion'
p1111
I591
sS'w+2=only'
p1112
I915
sS'conj=lack'
p1113
I170
sS'w-2=not'
p1114
I1431
sS'w+1=african'
p1115
I573
sS'amod=human'
p1116
I73
sS'w-2=Nixon'
p1117
I1274
sS'xcomp=manufacture'
p1118
I1567
sS'w-2=at'
p1119
I1294
sS'nsubj=Admittance'
p1120
I389
sS'w-2=as'
p1121
I1293
sS'w+2=rebuild'
p1122
I942
sS'w-2=may'
p1123
I1417
sS'cop=be'
p1124
I195
sS'w+1=during'
p1125
I606
sS'w-1=system'
p1126
I1215
sS'dobj=time'
p1127
I279
sS'w-1=oil'
p1128
I1169
sS'det=a'
p1129
I227
sS'w-1=experience'
p1130
I1097
sS'w-1=low'
p1131
I1146
sS'w-2=include'
p1132
I1388
sS'w-2=reveal'
p1133
I1478
sS'dobj=money'
p1134
I269
sS'w+2=drug'
p1135
I809
sS'xcomp=file'
p1136
I1562
sS'w+2=liability'
p1137
I886
sS'nn=terrorism'
p1138
I376
sS'nsubj=ride'
p1139
I451
sS'amod=less'
p1140
I81
sS'complm=whether'
p1141
I148
sS'w+1=eye'
p1142
I612
sS'w-2=Gardasil'
p1143
I1269
sS'w-1=out'
p1144
I1177
sS'nsubj=stadium'
p1145
I458
sS'w+2=have'
p1146
I850
sS'w+2=without'
p1147
I1023
sS'nsubj=microstamp'
p1148
I433
sS'w-1=genocide'
p1149
I1110
sS'nn=test'
p1150
I377
sS'nn=supply'
p1151
I374
sS'w-2=protest'
p1152
I1463
sS'w+1=projection'
p1153
I660
sS'w-2=ethanol'
p1154
I1359
sS'w-1=barrier'
p1155
I1049
sS'nn=health-care'
p1156
I352
sS'w-1=financial'
p1157
I1101
sS'nsubj=upgrade'
p1158
I472
sS'xcomp=build'
p1159
I1555
sS'w+2=borrow'
p1160
I770
sS'aux=to'
p1161
I137
sS'w-2=measure'
p1162
I1418
sS'w-2=requirement'
p1163
I1477
sS'w+2=energy'
p1164
I816
sS'w-2=gasoline'
p1165
I1371
sS'w+2=training'
p1166
I1001
sS'w-1=for'
p1167
I1104
sS'w+2=american'
p1168
I754
sS'w+2=most'
p1169
I904
sS'w+2=privately'
p1170
I931
sS'w+2=about'
p1171
I744
sS'w-1=cut'
p1172
I1074
sS'prep=during'
p1173
I513
sS'w+2=take'
p1174
I983
sS'w-2=dollar'
p1175
I1349
sS'partmod=ship'
p1176
I492
sS'nsubj=test'
p1177
I466
sS'advmod=plus'
p1178
I29
sS'w+2=produce'
p1179
I932
sS'w-1=not'
p1180
I1165
sS'w+2=significant'
p1181
I965
sS'w+2=Republican'
p1182
I737
sS'conj=operation'
p1183
I174
sS'aux=be'
p1184
I130
sS'w-1=soar'
p1185
I1206
sS'w-1=fuel'
p1186
I1106
sS'nn=cent'
p1187
I331
sS'w-1=entry'
p1188
I1091
sS'nn=energy'
p1189
I344
sS'w+2=industry'
p1190
I870
sS'w+1=emergency'
p1191
I609
sS'nn=cycle'
p1192
I335
sS'amod=due'
p1193
I55
sS'dobj=anything'
p1194
I247
sS'dep=owner'
p1195
I219
sS'w-2=exaggerate'
p1196
I1361
sS'advmod=up'
p1197
I36
sS'w-1=treatment'
p1198
I1233
sS'w+2=use'
p1199
I1010
sS'w-1=mount'
p1200
I1159
sS'w-2=just'
p1201
I1398
sS'w-2=then'
p1202
I1510
sS'nsubj=animal'
p1203
I396
sS'w-2=they'
p1204
I1513
sS'prep=than'
p1205
I524
sS'dobj=country'
p1206
I253
sS'prep=between'
p1207
I510
sS'w-1=,'
p1208
I1029
sS'w+2=Catholic'
p1209
I729
sS'w+2=equipment'
p1210
I818
sS'nn=student'
p1211
I373
sS'w+2=treat'
p1212
I1006
sS'w-1=administrative'
p1213
I1039
sS'amod=big'
p1214
I47
sS'nsubj=cost'
p1215
I409
sS'w-1=fixed'
p1216
I1102
sS'w+2=crude'
p1217
I799
sS'conj=market'
p1218
I172
sS'w+2=travel'
p1219
I1005
sS'w-1=significant'
p1220
I1203
sS'w+2=inaction'
p1221
I865
sS'w-1=be'
p1222
I1051
sS'w-2=skyrocket'
p1223
I1489
sS'nsubj=aircraft'
p1224
I394
sS'nsubj=automaker'
p1225
I397
sS'amod=environmental'
p1226
I58
sS'w+1=effective'
p1227
I607
sS'w-2=rise'
p1228
I1480
sS'aux=might'
p1229
I136
sS'w+2=continent'
p1230
I791
sS'iobj=#NUMBER#'
p1231
I287
sS'w-2=without'
p1232
I1551
sS'w+2=front'
p1233
I835
sS'w-2=extra'
p1234
I1364
sS'dep=though'
p1235
I223
sS'w+2=what'
p1236
I1018
sS'nsubj=Gardasil'
p1237
I391
sS'amod=skyrocket'
p1238
I114
sS'w+2=everything'
p1239
I823
sS'nn=care'
p1240
I329
sS'w-1=which'
p1241
I1248
sS'dobj=month'
p1242
I270
sS'w-1=increase'
p1243
I1128
sS'w-1=whose'
p1244
I1249
sS'conj=benefit'
p1245
I152
sS'w-2=maintenance'
p1246
I1413
sS'w-1=only'
p1247
I1172
sS'w+2=by'
p1248
I775
sS'w+2=be'
p1249
I764
sS'nsubj=rise'
p1250
I452
sS'w-1=estimate'
p1251
I1094
sS'w-1=develop'
p1252
I1079
sS'w+2=gasoline'
p1253
I839
sS'advmod=too'
p1254
I34
sS'aux=would'
p1255
I139
sS'nn=land'
p1256
I361
sS'amod=bigger'
p1257
I48
sS'w-1=massive'
p1258
I1151
sS'w-2=raise'
p1259
I1467
sS'w-2=Korea'
p1260
I1271
sS'nn=healthcare'
p1261
I353
sS'amod=estimate'
p1262
I60
sS'w+1=and'
p1263
I578
sS'advmod=probably'
p1264
I31
sS'amod=great'
p1265
I69
sS'conj=dog'
p1266
I161
sS'prt=up'
p1267
I529
sS'w-1=living'
p1268
I1144
sS'w+2=these'
p1269
I991
sS'w-1=maintenance'
p1270
I1148
sS'nn=operating'
p1271
I366
sS'w-1=test'
p1272
I1218
sS'amod=real'
p1273
I107
sS'w-2=attention'
p1274
I1295
sS'nn=donut'
p1275
I339
sS'amod=least'
p1276
I80
sS'w-2=bail'
p1277
I1298
sS'w+2=african'
p1278
I750
sS'advcl=lose'
p1279
I6
sS'w-1=telephone'
p1280
I1216
sS'amod=medical'
p1281
I89
sS'nn=disease'
p1282
I338
sS'w+1=have'
p1283
I621
sS'w+1=Gore'
p1284
I562
sS'w-2=life'
p1285
I1405
sS'w+1=ten'
p1286
I678
sS'w-2=use'
p1287
I1534
sS'nsubj=congestion'
p1288
I407
sS'w-2=lower'
p1289
I1412
sS'iobj=continent'
p1290
I303
sS'nsubj=pardon'
p1291
I439
sS'nsubj=exam'
p1292
I419
sS'conj=error'
p1293
I165
sS'w+2=more'
p1294
I903
sS'rcmod=high'
p1295
I536
sS'nsubj=chemical'
p1296
I403
sS'nn=dialysis'
p1297
I337
sS'w-2=about'
p1298
I1279
sS'amod=soar'
p1299
I116
sS'w+1=soar'
p1300
I671
sS'w+2=action'
p1301
I746
sS'nsubj=project'
p1302
I446
sS'conj=#NUMBER#'
p1303
I149
sS'w+1=from'
p1304
I618
sS'w+1=nearly'
p1305
I649
sS'w-1=country'
p1306
I1070
sS'w-2=military'
p1307
I1420
sS'w-1=both'
p1308
I1056
sS'w-1=health-care'
p1309
I1117
sS'w+2=reduce'
p1310
I944
sS'w+1=make'
p1311
I640
sS'w-2=escalate'
p1312
I1357
sS'iobj=business'
p1313
I300
sS'tmod=today'
p1314
I545
sS'w-2=bed'
p1315
I1303
sS'w-2=cut'
p1316
I1335
sS'w+2=three'
p1317
I995
sS'w+2=28'
p1318
I712
sS'nn=ferry-boat'
p1319
I346
sS'w+2=entitlement'
p1320
I817
sS'w+2=fertilizer'
p1321
I827
sS'w-2=initiative'
p1322
I1393
sS'prep=for'
p1323
I514
sS'nn=transportation'
p1324
I382
sS'dobj=so'
p1325
I275
sS'nn=production'
p1326
I367
sS'w-2=ground'
p1327
I1378
sS'w+2=piracy'
p1328
I923
sS'dobj=euro'
p1329
I260
sS'w+2=60'
p1330
I722
sS'w+2=as'
p1331
I758
sS'w-1=much'
p1332
I1160
sS'dep=make'
p1333
I216
sS'w+1=would'
p1334
I697
sS'w+1=40'
p1335
I554
sS'prep=plus'
p1336
I522
sS'w+2=could'
p1337
I794
sS'w-1=true'
p1338
I1235
sS'advmod=always'
p1339
I14
sS'w-2=some'
p1340
I1495
sS'advmod=much'
p1341
I25
sS'w-1=overall'
p1342
I1178
sS'dobj=dozen'
p1343
I256
sS'w-1=defense'
p1344
I1077
sS'w-2=Apollo'
p1345
I1267
sS'w+2=skyrocket'
p1346
I968
sS'dep=call'
p1347
I205
sS'w+2=she'
p1348
I964
sS'advmod=than'
p1349
I32
sS'xcomp=avert'
p1350
I1554
sS'w+2=with'
p1351
I1022
sS'w+2=play'
p1352
I924
sS'amod=total'
p1353
I122
sS'w+2=medical'
p1354
I898
sS'w-2=subsidize'
p1355
I1500
sS'w+2=air'
p1356
I751
sS'nsubj=encyclopedia'
p1357
I418
sS'dobj=Italy'
p1358
I244
sS'w+2=church'
p1359
I783
sS'iobj=economy'
p1360
I306
sS'nn=cigarette'
p1361
I332
sS'w-2=violence'
p1362
I1537
sS'w+2=hire'
p1363
I857
sS'w+2=of'
p1364
I912
sS'w-1=decision'
p1365
I1076
sS'dobj=upward'
p1366
I281
sS'w-1=bigger'
p1367
I1054
sS'w+2=average'
p1368
I759
sS'w-2=bailout'
p1369
I1299
sS'w+1=so'
p1370
I670
sS'dobj=Party'
p1371
I245
sS'prep=per'
p1372
I521
sS'w+2=billion'
p1373
I769
sS'w-2=strike'
p1374
I1499
sS'dep=fix'
p1375
I213
sS'w-2=wine'
p1376
I1549
sS'w+2=20,000'
p1377
I710
sS'nn=cemetery'
p1378
I330
sS'w+2=150,000'
p1379
I705
sS'w-2=matter'
p1380
I1416
sS'w+2=five'
p1381
I829
sS'w-1=transmission'
p1382
I1230
sS'w-1=medical'
p1383
I1154
sS'dep=whatever'
p1384
I226
sS'amod=usual'
p1385
I126
sS'nsubj=gas'
p1386
I423
sS'w+2=lose'
p1387
I892
sS'w+1=structure'
p1388
I674
sS'w-2=walkout'
p1389
I1540
sS'w-2=incursion'
p1390
I1391
sS'xcomp=launch'
p1391
I1565
sS'w+1=over'
p1392
I656
sS'xcomp=close'
p1393
I1556
sS'iobj=Korea'
p1394
I295
sS'w+2=supply'
p1395
I981
sS'ccomp=support'
p1396
I146
sS'w-2=here'
p1397
I1381
sS'w+1=several'
p1398
I667
sS'w-1=below'
p1399
I1052
sS'partmod=involve'
p1400
I489
sS'nsubj=goods'
p1401
I424
sS'w+1=gap'
p1402
I619
sS'nsubj=DRAM'
p1403
I390
sS'conj=risk'
p1404
I183
sS'xcomp=replace'
p1405
I1569
sS'nsubj=requirement'
p1406
I450
sS'aux=do'
p1407
I133
sS'w+2=35,000'
p1408
I715
sS'w-2=public'
p1409
I1465
sS'w+2=container'
p1410
I790
sS'w-1=cronyism'
p1411
I1072
sS'w-2=average'
p1412
I1297
sS'nsubj=conflict'
p1413
I406
sS'w+2=gas'
p1414
I838
sS'w+1=link'
p1415
I639
sS'w+2=leave'
p1416
I884
sS'dep=pay'
p1417
I220
sS'conj=relief'
p1418
I180
sS'w-2=--'
p1419
I1259
sS'rcmod=say'
p1420
I541
sS'w-2=nation'
p1421
I1429
sS'w-1=gearwheel'
p1422
I1109
sS'w-1=domestic'
p1423
I1081
sS'dep=country'
p1424
I210
sS'w-1=terrorism'
p1425
I1217
sS'w-1=indirect'
p1426
I1129
sS'w+2=owner'
p1427
I918
sS'nsubj=deal'
p1428
I412
sS'w+1=one'
p1429
I654
sS'w+2=lakh'
p1430
I879
sS'w-1=operating'
p1431
I1174
sS'w+2=production'
p1432
I934
sS'prep=accord'
p1433
I506
sS'num=#NUMBER#'
p1434
I482
sS'nn=car'
p1435
I328
sS"w+2=''"
p1436
I699
sS'nsubj=country'
p1437
I410
sS'w-1=this'
p1438
I1224
sS'w+1=Turkey'
p1439
I570
sS'w+2=consumer'
p1440
I789
sS'w+1=even'
p1441
I611
sS'amod=considerable'
p1442
I50
sS'w+2=six'
p1443
I966
sS'conj=work'
p1444
I194
sS'amod=add'
p1445
I43
sS'xcomp=get'
p1446
I1563
sS'w+2=170'
p1447
I707
sS'w+2=Ford'
p1448
I731
sS'prep=under'
p1449
I526
sS'w+2=50'
p1450
I721
sS'w+1=also'
p1451
I575
sS'conj=damage'
p1452
I160
sS'w-2=dystonium'
p1453
I1352
sS'w-2=pretty'
p1454
I1456
sS"w+2='s"
p1455
I700
sS'w-2=when'
p1456
I1545
sS'conj=cost'
p1457
I158
sS'xcomp=cut'
p1458
I1558
sS'w-2=Organization'
p1459
I1275
sS'nn=security'
p1460
I371
sS'w-1=health'
p1461
I1116
sS'w+2=equivalent'
p1462
I819
sS'nsubj=kind'
p1463
I429
sS"w+1=''"
p1464
I548
sS'w+1=involve'
p1465
I628
sS'w-1=production'
p1466
I1188
sS'w+2=start'
p1467
I976
sS'w+1=drastically'
p1468
I605
sS'advmod=politically'
p1469
I30
sS'w+2=contribute'
p1470
I793
sS'dep=much'
p1471
I218
sS'w-2=cataract'
p1472
I1317
sS'w-2=around'
p1473
I1292
sS'conj=requirement'
p1474
I182
sS'w-2=upgrade'
p1475
I1533
sS'w-1=might'
p1476
I1155
sS'w-2=bear'
p1477
I1301
sS'w-2=be'
p1478
I1300
sS'rcmod=need'
p1479
I538
sS'nsubj=delay'
p1480
I415
sS'w-1=considerable'
p1481
I1066
sS'w+1=control'
p1482
I597
sS'w-2=by'
p1483
I1312
sS'w+2=human'
p1484
I859
sS'w-1=cover'
p1485
I1071
sS'conj=expensive'
p1486
I166
sS'w-1=typically'
p1487
I1236
sS'w-2=stadium'
p1488
I1497
sS'w-1=average'
p1489
I1048
sS'w+1=manufacturer'
p1490
I641
sS'w+1=some'
p1491
I672
sS'w+2=8,000'
p1492
I724
sS'nsubj=walkout'
p1493
I476
sS'amod=higher'
p1494
I72
sS'w-2=significantly'
p1495
I1486
sS'conj=see'
p1496
I188
sS'w+1=no'
p1497
I651
sS'w-1=war'
p1498
I1243
sS'w-1=drug'
p1499
I1084
sS'w+2=politician'
p1500
I927
sS'iobj=Church'
p1501
I291
sS'w-1=ferry-boat'
p1502
I1098
sS'w+1=?'
p1503
I556
sS'conj=high'
p1504
I169
sS'w+2=no'
p1505
I909
sS'dep=client'
p1506
I206
sS'amod=operate'
p1507
I97
sS'w-2=say'
p1508
I1483
sS'w+2=the'
p1509
I989
sS'prep=at'
p1510
I509
sS'w-1=probably'
p1511
I1187
sS'prep=as'
p1512
I508
sS'w-1=continue'
p1513
I1067
sS'w-2=but'
p1514
I1311
sS'w-1=.'
p1515
I1032
sS'nsubj=waiver'
p1516
I475
sS'w-2=production'
p1517
I1459
sS'w+2=vary'
p1518
I1012
sS'conj=size'
p1519
I189
sS'dobj=life'
p1520
I266
sS'w+2=one'
p1521
I914
sS'w-2=fee'
p1522
I1366
sS'w-2=free'
p1523
I1368
sS'amod=serious'
p1524
I111
sS'w+2=such'
p1525
I979
sS'w-1=a'
p1526
I1036
sS'w-1=`'
p1527
I1035
sS'amod=quicker'
p1528
I106
sS'conj=run'
p1529
I184
sS'w-2=so'
p1530
I1492
sS'nsubjpass=technology'
p1531
I481
sS'w+2=security'
p1532
I959
sS'w+2=gathering'
p1533
I840
sS'w-1=-rrb-'
p1534
I1031
sS'w-2=plus'
p1535
I1453
sS'w+2=they'
p1536
I992
sS'nn=salary'
p1537
I370
sS'w-2=unnecessarily'
p1538
I1531
sS'w+2=then'
p1539
I990
sS'w+2=refugee'
p1540
I945
sS'nsubj=position'
p1541
I442
sS'dobj=year'
p1542
I285
sS'w-2=move'
p1543
I1427
sS'w+1=last'
p1544
I635
sS'w-1=current'
p1545
I1073
sS'num=time'
p1546
I483
sS'w+1=efficiency'
p1547
I608
sS'w+2=expose'
p1548
I826
sS'w+2=cataract'
p1549
I780
sS'w-1=ongoing'
p1550
I1171
sS'w+1=sustainable'
p1551
I676
sS'w-2=doubt'
p1552
I1350
sS'w-2=start'
p1553
I1498
sS'w-2=advice'
p1554
I1283
sS'w-2=automaker'
p1555
I1296
sS'w-1=we'
p1556
I1245
sS'w+1=such'
p1557
I675
sS'w-1=cycle'
p1558
I1075
sS'w+2=2'
p1559
I708
sS'w+2=1'
p1560
I703
sS'w+2=5'
p1561
I719
sS'w+1=dakar'
p1562
I600
sS'w+2=.'
p1563
I702
sS'w+2=,'
p1564
I701
sS'w-2=advertisement'
p1565
I1282
sS'w-2=pass'
p1566
I1445
sS'w+2=$'
p1567
I698
sS'w-1=transport'
p1568
I1231
sS'w+2=southeast'
p1569
I974
sS'w-1=serious'
p1570
I1201
sS'w-1=lower'
p1571
I1147
sS'w+2=Burkina'
p1572
I728
sS'w-2=improvement'
p1573
I1386
sS'iobj=farmer'
p1574
I308
sS'w+2=limited'
p1575
I888
sS'w-2=missile'
p1576
I1423
sS'w-1=may'
p1577
I1153
sS'w-1=at'
p1578
I1046
sS'w-2=snub'
p1579
I1491
sS'w+2=40'
p1580
I717
sS'w-1=empty'
p1581
I1089
sS'w+2=a'
p1582
I743
sS'advmod=typically'
p1583
I35
ssS'dtype'
p1584
cnumpy
float64
p1585
sS'feature_names_'
p1586
(lp1587
g180
ag200
ag469
ag67
ag962
ag1077
ag1279
ag785
ag655
ag464
ag289
ag298
ag641
ag538
ag1339
ag32
ag378
ag153
ag307
ag470
ag980
ag194
ag449
ag440
ag11
ag1341
ag1099
ag1093
ag471
ag1178
ag1469
ag1264
ag1349
ag602
ag1254
ag1583
ag1197
ag380
ag1042
ag501
ag836
ag939
ag432
ag1445
ag1044
ag948
ag10
ag1214
ag1257
ag815
ag1442
ag102
ag1017
ag1069
ag387
ag1193
ag473
ag695
ag1226
ag513
ag1262
ag578
ag889
ag246
ag271
ag383
ag601
ag887
ag612
ag1265
ag296
ag130
ag1494
ag1116
ag245
ag674
ag83
ag894
ag145
ag416
ag1276
ag1140
ag312
ag1004
ag630
ag631
ag103
ag917
ag125
ag1281
ag81
ag1074
ag248
ag614
ag952
ag436
ag851
ag1507
ag25
ag314
ag982
ag652
ag525
ag205
ag82
ag241
ag1528
ag1273
ag407
ag788
ag402
ag1524
ag672
ag977
ag1238
ag442
ag1299
ag347
ag713
ag181
ag95
ag1064
ag1353
ag659
ag1034
ag1045
ag1385
ag93
ag897
ag1054
ag1184
ag467
ag99
ag1407
ag704
ag444
ag1229
ag1161
ag988
ag1255
ag911
ag1026
ag650
ag41
ag861
ag57
ag1396
ag821
ag1141
ag1303
ag943
ag96
ag1245
ag89
ag190
ag1007
ag905
ag849
ag1457
ag1091
ag1452
ag1266
ag106
ag53
ag1061
ag1293
ag1486
ag534
ag953
ag1504
ag1113
ag778
ag1218
ag418
ag1183
ag591
ag126
ag866
ag175
ag1062
ag1418
ag497
ag1474
ag1404
ag1529
ag505
ag557
ag306
ag1496
ag1519
ag689
ag607
ag628
ag878
ag1444
ag1124
ag88
ag455
ag860
ag852
ag966
ag151
ag1102
ag16
ag942
ag1347
ag1506
ag646
ag256
ag35
ag1424
ag149
ag140
ag1375
ag780
ag412
ag1333
ag372
ag1471
ag1195
ag1417
ag931
ag257
ag1235
ag309
ag460
ag1384
ag1129
ag426
ag186
ag1012
ag12
ag184
ag506
ag863
ag845
ag899
ag291
ag123
ag984
ag143
ag900
ag396
ag260
ag1358
ag1371
ag648
ag1194
ag969
ag336
ag665
ag511
ag853
ag1206
ag78
ag635
ag1343
ag339
ag492
ag74
ag1329
ag540
ag587
ag946
ag435
ag886
ag1520
ag566
ag152
ag1134
ag1242
ag841
ag421
ag745
ag187
ag1325
ag510
ag276
ag281
ag1127
ag801
ag1366
ag213
ag733
ag932
ag1542
ag626
ag1231
ag500
ag134
ag892
ag1501
ag242
ag203
ag868
ag1394
ag595
ag429
ag385
ag434
ag1313
ag555
ag927
ag1290
ag191
ag712
ag1360
ag488
ag1574
ag913
ag1010
ag268
ag263
ag918
ag645
ag27
ag428
ag459
ag254
ag890
ag742
ag228
ag694
ag478
ag799
ag524
ag738
ag453
ag1435
ag1240
ag1378
ag1187
ag1361
ag519
ag784
ag1192
ag231
ag1297
ag1282
ag1275
ag127
ag576
ag247
ag420
ag1189
ag22
ag1319
ag1106
ag791
ag1058
ag340
ag266
ag1156
ag1261
ag702
ag919
ag929
ag441
ag26
ag779
ag360
ag1256
ag654
ag684
ag171
ag220
ag1271
ag1326
ag1013
ag797
ag1537
ag1460
ag657
ag1211
ag1151
ag162
ag1138
ag1150
ag667
ag935
ag382
ag840
ag1324
ag502
ag230
ag570
ag424
ag925
ag283
ag1120
ag1403
ag1237
ag817
ag1006
ag1224
ag503
ag1203
ag1225
ag715
ag711
ag70
ag598
ag375
ag1296
ag108
ag1049
ag1413
ag1288
ag792
ag1215
ag1437
ag159
ag1428
ag610
ag533
ag1480
ag879
ag107
ag1357
ag1292
ag42
ag850
ag660
ag1386
ag1401
ag950
ag447
ag496
ag545
ag1463
ag122
ag31
ag23
ag1148
ag457
ag1035
ag923
ag209
ag789
ag1291
ag1001
ag1080
ag1541
ag1041
ag818
ag1060
ag1302
ag144
ag438
ag855
ag1406
ag1139
ag1250
ag255
ag167
ag651
ag365
ag978
ag1145
ag734
ag165
ag972
ag627
ag688
ag137
ag537
ag1177
ag520
ag77
ag945
ag768
ag38
ag1158
ag15
ag843
ag1516
ag1493
ag109
ag671
ag183
ag270
ag1531
ag1434
ag1546
ag249
ag541
ag185
ag727
ag66
ag1400
ag437
ag618
ag1176
ag661
ag1071
ag86
ag48
ag1056
ag1105
ag638
ag274
ag796
ag299
ag775
ag207
ag466
ag1433
ag63
ag1512
ag1510
ag1207
ag864
ag237
ag1173
ag1323
ag746
ag834
ag1063
ag1065
ag112
ag522
ag1372
ag1336
ag332
ag1205
ag477
ag1449
ag596
ag991
ag1267
ag859
ag838
ag564
ag324
ag793
ag201
ag1295
ag673
ag1479
ag377
ag431
ag1420
ag920
ag916
ag329
ag1314
ag1043
ag755
ag1464
ag757
ag756
ag1053
ag758
ag967
ag1335
ag761
ag1503
ag79
ag937
ag72
ag110
ag1094
ag1284
ag764
ag1037
ag787
ag611
ag403
ag585
ag782
ag1439
ag767
ag284
ag1115
ag527
ag1451
ag556
ag600
ag1263
ag725
ag1052
ag512
ag19
ag882
ag994
ag883
ag835
ag1031
ag968
ag24
ag221
ag1111
ag1030
ag872
ag233
ag1068
ag222
ag1482
ag604
ag279
ag1562
ag709
ag582
ag354
ag333
ag1468
ag1125
ag1227
ag1547
ag1191
ag847
ag1441
ag1142
ag867
ag825
ag475
ag947
ag197
ag1304
ag1402
ag670
ag1283
ag771
ag160
ag405
ag275
ag277
ag1047
ag1465
ag280
ag819
ag930
ag452
ag456
ag985
ag1544
ag608
ag55
ag687
ag1415
ag1311
ag1490
ag637
ag366
ag743
ag292
ag662
ag316
ag696
ag1305
ag486
ag1497
ag52
ag282
ag1429
ag794
ag1392
ag105
ag675
ag357
ag1153
ag723
ag445
ag924
ag411
ag328
ag588
ag1398
ag45
ag624
ag1370
ag1300
ag1491
ag18
ag1388
ag1557
ag1551
ag802
ag1286
ag427
ag71
ag833
ag154
ag571
ag1040
ag1100
ag65
ag559
ag691
ag1050
ag903
ag823
ag370
ag692
ag267
ag84
ag115
ag1334
ag1567
ag1436
ag1455
ag1564
ag1563
ag1560
ag346
ag1379
ag914
ag1447
ag1559
ag225
ag1377
ag226
ag1318
ag474
ag114
ag1408
ag113
ag1580
ag111
ag1561
ag658
ag1450
ag1330
ag409
ag1492
ag976
ag921
ag1107
ag1572
ag1209
ag388
ag1448
ag707
ag158
ag716
ag814
ag101
ag1182
ag928
ag724
ag973
ag58
ag744
ag1582
ag1171
ag811
ag1301
ag523
ag487
ag290
ag1278
ag1356
ag653
ag1073
ag1168
ag92
ag1076
ag371
ag1331
ag1368
ag820
ag666
ag565
ag381
ag1249
ag142
ag676
ag586
ag422
ag1373
ag1160
ag617
ag87
ag454
ag408
ag1248
ag399
ag1025
ag987
ag605
ag1549
ag164
ag790
ag1359
ag804
ag1048
ag472
ag856
ag161
ag1440
ag1410
ag1230
ag530
ag1470
ag1337
ag215
ag806
ag118
ag552
ag1217
ag294
ag857
ag902
ag386
ag98
ag269
ag1098
ag1002
ag632
ag1135
ag542
ag319
ag621
ag508
ag593
ag29
ag1164
ag1320
ag1210
ag1462
ag116
ag481
ag970
ag1239
ag196
ag322
ag1548
ag1321
ag891
ag1381
ag170
ag341
ag485
ag135
ag350
ag1233
ag623
ag1015
ag1414
ag1253
ag1533
ag288
ag926
ag550
ag417
ag353
ag837
ag954
ag21
ag957
ag1146
ag594
ag575
ag14
ag517
ag798
ag862
ag1363
ag686
ag1484
ag132
ag494
ag1066
ag415
ag462
ag1221
ag483
ag406
ag49
ag301
ag1190
ag80
ag43
ag516
ag1103
ag1088
ag616
ag150
ag331
ag1430
ag1014
ag54
ag212
ag189
ag1416
ag678
ag1137
ag401
ag1575
ag157
ag830
ag573
ag1387
ag858
ag1110
ag949
ag606
ag526
ag1354
ag155
ag234
ag548
ag536
ag1294
ag1169
ag172
ag975
ag643
ag244
ag1505
ag854
ag85
ag1364
ag904
ag1521
ag1112
ag752
ag649
ag1427
ag812
ag995
ag458
ag714
ag1328
ag1352
ag476
ag120
ag1500
ag100
ag262
ag629
ag1170
ag1179
ag446
ag1432
ag44
ag822
ag958
ag451
ag1090
ag579
ag223
ag1122
ag30
ag1310
ag1540
ag334
ag963
ag875
ag884
ag295
ag168
ag680
ag362
ag364
ag238
ag40
ag553
ag521
ag1532
ag210
ag179
ag1059
ag33
ag1348
ag1181
ag1443
ag34
ag1346
ag206
ag410
ag128
ag13
ag644
ag1569
ag992
ag1467
ag131
ag250
ag1525
ag829
ag1395
ag766
ag1174
ag182
ag951
ag747
ag1070
ag1072
ag1509
ag1539
ag1269
ag1536
ag216
ag468
ag1317
ag1057
ag808
ag844
ag509
ag1018
ag1166
ag414
ag1008
ag625
ag1219
ag1212
ag286
ag514
ag682
ag1199
ag1016
ag1518
ag824
ag981
ag297
ag490
ag647
ag1236
ag482
ag664
ag544
ag1351
ag1147
ag705
ag568
ag62
ag933
ag912
ag1208
ag363
ag1534
ag1515
ag345
ag873
ag1527
ag1526
ag404
ag393
ag1213
ag642
ag384
ag603
ag342
ag759
ag577
ag1578
ag227
ag1489
ag1155
ag728
ag1222
ag1399
ag498
ag1367
ag359
ag1308
ag138
ag893
ag885
ag433
ag239
ag663
ag1082
ag344
ag583
ag1481
ag1513
ag305
ag61
ag1306
ag1485
ag1411
ag1545
ag1172
ag1558
ag1365
ag1344
ag633
ag1252
ag909
ag1423
ag562
ag581
ag1499
ag20
ag308
ag701
ag390
ag1581
ag613
ag1188
ag528
ag217
ag1251
ag313
ag311
ag1130
ag1502
ag51
ag253
ag1157
ag1216
ag47
ag1167
ag615
ag1186
ag392
ag439
ag1422
ag1149
ag770
ag515
ag104
ag461
ag722
ag1461
ag1309
ag17
ag214
ag358
ag1089
ag1039
ag400
ag337
ag563
ag425
ag846
ag1243
ag1426
ag543
ag343
ag622
ag465
ag636
ag842
ag816
ag669
ag177
ag685
ag551
ag1051
ag136
ag754
ag1268
ag1087
ag1131
ag1571
ag1270
ag9
ag726
ag1258
ag302
ag1577
ag1383
ag1476
ag252
ag146
ag236
ag1200
ag1332
ag750
ag28
ag941
ag710
ag1180
ag369
ag839
ag1085
ag1128
ag546
ag1550
ag1247
ag166
ag1431
ag379
ag224
ag1144
ag1342
ag964
ag971
ag192
ag580
ag204
ag1095
ag1092
ag735
ag1511
ag1466
ag877
ag178
ag828
ag259
ag91
ag881
ag391
ag349
ag896
ag826
ag430
ag351
ag1570
ag198
ag1220
ag895
ag133
ag1185
ag908
ag1033
ag148
ag90
ag1000
ag810
ag489
ag690
ag1126
ag1280
ag1425
ag1272
ag773
ag848
ag1024
ag356
ag983
ag1438
ag898
ag121
ag398
ag539
ag729
ag1382
ag1568
ag934
ag1198
ag374
ag1338
ag1487
ag199
ag597
ag443
ag989
ag285
ag999
ag1498
ag531
ag1556
ag1032
ag529
ag1241
ag1244
ag36
ag532
ag139
ag1028
ag703
ag944
ag960
ag698
ag699
ag1419
ag700
ag803
ag1021
ag906
ag708
ag590
ag730
ag1345
ag762
ag1143
ag504
ag1260
ag990
ag1020
ag1117
ag1459
ag717
ag261
ag718
ag1298
ag959
ag94
ag1565
ag1554
ag1083
ag1097
ag865
ag59
ag320
ag325
ag330
ag232
ag1473
ag1121
ag1119
ag1274
ag1555
ag1412
ag1277
ag1369
ag1478
ag1477
ag772
ag1315
ag507
ag683
ag413
ag974
ag193
ag188
ag589
ag1514
ag1483
ag264
ag397
ag394
ag37
ag1472
ag499
ag1027
ag493
ag567
ag986
ag195
ag961
ag419
ag634
ag423
ag907
ag56
ag679
ag491
ag448
ag574
ag554
ag1316
ag561
ag599
ag809
ag218
ag880
ag129
ag640
ag737
ag656
ag251
ag560
ag910
ag124
ag1175
ag1552
ag300
ag1453
ag786
ag800
ag736
ag258
ag1312
ag558
ag1154
ag547
ag1196
ag495
ag940
ag1234
ag235
ag1522
ag832
ag1523
ag795
ag278
ag1165
ag304
ag1078
ag395
ag584
ag208
ag749
ag1327
ag265
ag535
ag1397
ag765
ag318
ag141
ag389
ag1573
ag240
ag1132
ag293
ag760
ag1390
ag1086
ag1322
ag287
ag1081
ag243
ag721
ag1201
ag572
ag748
ag915
ag310
ag740
ag202
ag1285
ag739
ag1079
ag39
ag355
ag720
ag719
ag1289
ag1246
ag163
ag813
ag1380
ag1123
ag1162
ag888
ag1307
ag922
ag479
ag1576
ag211
ag315
ag781
ag1543
ag697
ag1421
ag965
ag1114
ag76
ag871
ag117
ag874
ag327
ag827
ag869
ag352
ag549
ag1036
ag876
ag955
ag373
ag1566
ag996
ag361
ag777
ag518
ag64
ag936
ag619
ag1535
ag592
ag609
ag1454
ag376
ag731
ag1517
ag1029
ag484
ag1046
ag1152
ag1022
ag1409
ag751
ag1259
ag1019
ag763
ag1023
ag993
ag303
ag1067
ag620
ag774
ag68
ag1163
ag1133
ag1009
ag1228
ag147
ag272
ag1508
ag156
ag1075
ag1495
ag326
ag753
ag1223
ag1011
ag1579
ag1530
ag367
ag480
ag1340
ag335
ag1488
ag1553
ag1374
ag1355
ag273
ag901
ag1084
ag732
ag668
ag1109
ag73
ag69
ag450
ag1202
ag956
ag1055
ag1204
ag706
ag741
ag174
ag75
ag46
ag323
ag807
ag769
ag681
ag219
ag97
ag677
ag60
ag805
ag1101
ag50
ag998
ag1538
ag173
ag1475
ag1287
ag1005
ag368
ag1362
ag693
ag1096
ag1389
ag1038
ag463
ag317
ag8
ag1456
ag979
ag169
ag1104
ag1376
ag229
ag1232
ag176
ag569
ag1350
ag1159
ag1393
ag348
ag1458
ag870
ag831
ag1003
ag1136
ag1446
ag119
ag1391
ag997
ag1118
ag1108
ag1405
ag321
ag338
ag639
ag938
ag776
ag783
asS'separator'
p1588
S'='
sS'sparse'
p1589
I01
sb.