ccopy_reg
_reconstructor
p1
(csklearn.feature_extraction.dict_vectorizer
DictVectorizer
p2
c__builtin__
object
p3
NtRp4
(dp5
S'sort'
p6
I01
sS'feature_names_'
p7
(lp8
S'acomp=french'
p9
aS'acomp=good'
p10
aS'acomp=italian'
p11
aS'acomp=loud'
p12
aS'acomp=much'
p13
aS'acomp=plainly'
p14
aS'acomp=slower'
p15
aS'acomp=wolof'
p16
aS'advcl=#NUMBER#'
p17
aS'advcl=acknowledge'
p18
aS'advcl=act'
p19
aS'advcl=adjourn'
p20
aS'advcl=admit'
p21
aS'advcl=afraid'
p22
aS'advcl=agree'
p23
aS'advcl=ally'
p24
aS'advcl=announce'
p25
aS'advcl=approve'
p26
aS'advcl=arrest'
p27
aS'advcl=arrive'
p28
aS'advcl=award'
p29
aS'advcl=batter'
p30
aS'advcl=be'
p31
aS'advcl=bear'
p32
aS'advcl=before'
p33
aS'advcl=begin'
p34
aS'advcl=believe'
p35
aS'advcl=build'
p36
aS'advcl=bulwark'
p37
aS'advcl=call'
p38
aS'advcl=can'
p39
aS'advcl=cease'
p40
aS'advcl=close'
p41
aS'advcl=come'
p42
aS'advcl=confirm'
p43
aS'advcl=continue'
p44
aS'advcl=convene'
p45
aS'advcl=critical'
p46
aS'advcl=defend'
p47
aS'advcl=deliver'
p48
aS'advcl=describe'
p49
aS'advcl=die'
p50
aS'advcl=elect'
p51
aS'advcl=express'
p52
aS'advcl=fellow'
p53
aS'advcl=go'
p54
aS'advcl=have'
p55
aS'advcl=hear'
p56
aS'advcl=hold'
p57
aS'advcl=issue'
p58
aS'advcl=kill'
p59
aS'advcl=know'
p60
aS'advcl=launch'
p61
aS'advcl=learn'
p62
aS'advcl=leave'
p63
aS'advcl=lift'
p64
aS'advcl=lower'
p65
aS'advcl=make'
p66
aS'advcl=meet'
p67
aS'advcl=nation'
p68
aS'advcl=of'
p69
aS'advcl=open'
p70
aS'advcl=outline'
p71
aS'advcl=pause'
p72
aS'advcl=play'
p73
aS'advcl=premiere'
p74
aS'advcl=present'
p75
aS'advcl=president'
p76
aS'advcl=protest'
p77
aS'advcl=put'
p78
aS'advcl=react'
p79
aS'advcl=refrain'
p80
aS'advcl=return'
p81
aS'advcl=rise'
p82
aS'advcl=say'
p83
aS'advcl=seek'
p84
aS'advcl=sign'
p85
aS'advcl=silent'
p86
aS'advcl=speak'
p87
aS'advcl=spend'
p88
aS'advcl=stump'
p89
aS'advcl=tell'
p90
aS'advcl=think'
p91
aS'advcl=tour'
p92
aS'advcl=travel'
p93
aS'advcl=try'
p94
aS'advcl=unveil'
p95
aS'advcl=win'
p96
aS'advcl=worry'
p97
aS'advcl=wrap'
p98
aS'advmod=about'
p99
aS'advmod=abroad'
p100
aS'advmod=afterward'
p101
aS'advmod=afterwards'
p102
aS'advmod=again'
p103
aS'advmod=ago'
p104
aS'advmod=ahead'
p105
aS'advmod=all'
p106
aS'advmod=alone'
p107
aS'advmod=also'
p108
aS'advmod=anonymously'
p109
aS'advmod=as'
p110
aS'advmod=at'
p111
aS'advmod=authoritatively'
p112
aS'advmod=barely'
p113
aS'advmod=before'
p114
aS'advmod=briefly'
p115
aS'advmod=broadly'
p116
aS'advmod=clearly'
p117
aS'advmod=credibly'
p118
aS'advmod=directly'
p119
aS'advmod=earlier'
p120
aS'advmod=enthusiastically'
p121
aS'advmod=even'
p122
aS'advmod=ever'
p123
aS'advmod=everywhere'
p124
aS'advmod=extensively'
p125
aS'advmod=face-to-face'
p126
aS'advmod=far'
p127
aS'advmod=favorably'
p128
aS'advmod=first'
p129
aS'advmod=fluently'
p130
aS'advmod=forthrightly'
p131
aS'advmod=frankly'
p132
aS'advmod=freely'
p133
aS'advmod=frequently'
p134
aS'advmod=generally'
p135
aS'advmod=here'
p136
aS'advmod=hopefully'
p137
aS'advmod=how'
p138
aS'advmod=however'
p139
aS'advmod=in'
p140
aS'advmod=instead'
p141
aS'advmod=just'
p142
aS'advmod=later'
p143
aS'advmod=less'
p144
aS'advmod=long'
p145
aS'advmod=longer'
p146
aS'advmod=louder'
p147
aS'advmod=loudly'
p148
aS'advmod=malevolently'
p149
aS'advmod=medically'
p150
aS'advmod=more'
p151
aS'advmod=now'
p152
aS'advmod=occasionally'
p153
aS'advmod=often'
p154
aS'advmod=on'
p155
aS'advmod=only'
p156
aS'advmod=openly'
p157
aS'advmod=optimistically'
p158
aS'advmod=out'
p159
aS'advmod=particularly'
p160
aS'advmod=passionately'
p161
aS'advmod=personally'
p162
aS'advmod=positively'
p163
aS'advmod=practically'
p164
aS'advmod=privately'
p165
aS'advmod=properly'
p166
aS'advmod=publicly'
p167
aS'advmod=quietly'
p168
aS'advmod=rarely'
p169
aS'advmod=really'
p170
aS'advmod=recently'
p171
aS'advmod=seldom'
p172
aS'advmod=sheikhly'
p173
aS'advmod=shortly'
p174
aS'advmod=so'
p175
aS'advmod=softly'
p176
aS'advmod=specifically'
p177
aS'advmod=still'
p178
aS'advmod=strictly'
p179
aS'advmod=strongly'
p180
aS'advmod=subsequently'
p181
aS'advmod=then'
p182
aS'advmod=there'
p183
aS'advmod=though'
p184
aS'advmod=together'
p185
aS'advmod=too'
p186
aS'advmod=unfortunately'
p187
aS'advmod=up'
p188
aS'advmod=usually'
p189
aS'advmod=vehemently'
p190
aS'advmod=virtually'
p191
aS'advmod=well'
p192
aS'advmod=when'
p193
aS'advmod=where'
p194
aS'advmod=widely'
p195
aS"aux='ll"
p196
aS'aux=be'
p197
aS'aux=can'
p198
aS'aux=could'
p199
aS'aux=do'
p200
aS'aux=have'
p201
aS'aux=must'
p202
aS'aux=should'
p203
aS'aux=to'
p204
aS'aux=will'
p205
aS'aux=would'
p206
aS'auxpass=be'
p207
aS'cc=and'
p208
aS'cc=but'
p209
aS'cc=nor'
p210
aS'cc=or'
p211
aS'ccomp=address'
p212
aS'ccomp=allow'
p213
aS'ccomp=ban'
p214
aS'ccomp=be'
p215
aS'ccomp=begin'
p216
aS'ccomp=can'
p217
aS'ccomp=challenge'
p218
aS'ccomp=close'
p219
aS'ccomp=come'
p220
aS'ccomp=consider'
p221
aS'ccomp=continue'
p222
aS'ccomp=defeat'
p223
aS'ccomp=do'
p224
aS'ccomp=earlier'
p225
aS'ccomp=express'
p226
aS'ccomp=fall'
p227
aS'ccomp=find'
p228
aS'ccomp=get'
p229
aS'ccomp=go'
p230
aS'ccomp=good'
p231
aS'ccomp=hand'
p232
aS'ccomp=have'
p233
aS'ccomp=head'
p234
aS'ccomp=hear'
p235
aS'ccomp=insoluble'
p236
aS'ccomp=know'
p237
aS'ccomp=learn'
p238
aS'ccomp=leave'
p239
aS'ccomp=live'
p240
aS'ccomp=lose'
p241
aS'ccomp=meet'
p242
aS'ccomp=outlet'
p243
aS'ccomp=prophetic'
p244
aS'ccomp=recover'
p245
aS'ccomp=reduce'
p246
aS'ccomp=reject'
p247
aS'ccomp=release'
p248
aS'ccomp=say'
p249
aS'ccomp=speak'
p250
aS'ccomp=sue'
p251
aS'ccomp=suggest'
p252
aS'ccomp=support'
p253
aS'ccomp=sya'
p254
aS'ccomp=talk'
p255
aS'ccomp=trace'
p256
aS'ccomp=use'
p257
aS'ccomp=vital'
p258
aS'ccomp=voice'
p259
aS'ccomp=will'
p260
aS'ccomp=win'
p261
aS'complm=that'
p262
aS'complm=whether'
p263
aS'conj=#NUMBER#'
p264
aS'conj=able'
p265
aS'conj=address'
p266
aS'conj=advise'
p267
aS'conj=affect'
p268
aS'conj=agree'
p269
aS'conj=ally'
p270
aS'conj=appreciate'
p271
aS'conj=arrive'
p272
aS'conj=as'
p273
aS'conj=at'
p274
aS'conj=be'
p275
aS'conj=blind'
p276
aS'conj=call'
p277
aS'conj=carry'
p278
aS'conj=charm'
p279
aS'conj=come'
p280
aS'conj=commit'
p281
aS'conj=communicate'
p282
aS'conj=condition'
p283
aS'conj=continue'
p284
aS'conj=describe'
p285
aS'conj=develop'
p286
aS'conj=do'
p287
aS'conj=elect'
p288
aS'conj=embrace'
p289
aS'conj=end'
p290
aS'conj=endorse'
p291
aS'conj=express'
p292
aS'conj=feel'
p293
aS'conj=file'
p294
aS'conj=focus'
p295
aS'conj=give'
p296
aS'conj=go'
p297
aS'conj=gratified'
p298
aS'conj=have'
p299
aS'conj=hear'
p300
aS'conj=impose'
p301
aS'conj=keep'
p302
aS'conj=know'
p303
aS'conj=lack'
p304
aS'conj=less'
p305
aS'conj=let'
p306
aS'conj=look'
p307
aS'conj=make'
p308
aS'conj=match'
p309
aS'conj=mean'
p310
aS'conj=meet'
p311
aS'conj=need'
p312
aS'conj=negotiate'
p313
aS'conj=offer'
p314
aS'conj=oppose'
p315
aS'conj=oppression'
p316
aS'conj=outline'
p317
aS'conj=part'
p318
aS'conj=powerful'
p319
aS'conj=prefer'
p320
aS'conj=promise'
p321
aS'conj=pursue'
p322
aS'conj=quote'
p323
aS'conj=react'
p324
aS'conj=respect'
p325
aS'conj=say'
p326
aS'conj=scold'
p327
aS'conj=see'
p328
aS'conj=shut'
p329
aS'conj=sing'
p330
aS'conj=speak'
p331
aS'conj=stand'
p332
aS'conj=strike'
p333
aS'conj=surround'
p334
aS'conj=take'
p335
aS'conj=tear'
p336
aS'conj=technology'
p337
aS'conj=tell'
p338
aS'conj=translate'
p339
aS'conj=try'
p340
aS'conj=urge'
p341
aS'conj=veto'
p342
aS'conj=vow'
p343
aS'conj=warn'
p344
aS'conj=willing'
p345
aS'conj=with'
p346
aS'conj=work'
p347
aS'csubj=let'
p348
aS'dep=English'
p349
aS'dep=General'
p350
aS'dep=Hwa'
p351
aS'dep=about'
p352
aS'dep=achieve'
p353
aS'dep=across'
p354
aS'dep=after'
p355
aS'dep=assign'
p356
aS'dep=be'
p357
aS'dep=because'
p358
aS'dep=before'
p359
aS'dep=but'
p360
aS'dep=come'
p361
aS'dep=complex'
p362
aS'dep=cooker'
p363
aS'dep=day'
p364
aS'dep=each'
p365
aS'dep=eloquently'
p366
aS'dep=express'
p367
aS'dep=forum'
p368
aS'dep=get'
p369
aS'dep=greek'
p370
aS'dep=hold'
p371
aS'dep=if'
p372
aS'dep=important'
p373
aS'dep=include'
p374
aS'dep=kill'
p375
aS'dep=make'
p376
aS'dep=order'
p377
aS'dep=out'
p378
aS'dep=outline'
p379
aS'dep=program'
p380
aS'dep=say'
p381
aS'dep=so'
p382
aS'dep=talk'
p383
aS'dep=thank'
p384
aS'dep=thing'
p385
aS'dep=to'
p386
aS'dep=use'
p387
aS'dep=warn'
p388
aS'dobj=#DATE#'
p389
aS'dobj=#NUMBER#'
p390
aS'dobj=#PRP#'
p391
aS'dobj=Accomplished'
p392
aS'dobj=Arabic'
p393
aS'dobj=Dari'
p394
aS'dobj=English'
p395
aS'dobj=Farsi'
p396
aS'dobj=French'
p397
aS'dobj=Gdansk'
p398
aS'dobj=Kurdish'
p399
aS'dobj=Nairobi'
p400
aS'dobj=Polish'
p401
aS'dobj=Portuguese'
p402
aS'dobj=Rotana'
p403
aS'dobj=Russian'
p404
aS'dobj=Tamil'
p405
aS'dobj=Treaty'
p406
aS'dobj=Vietnamese'
p407
aS'dobj=a'
p408
aS'dobj=amount'
p409
aS'dobj=anything'
p410
aS'dobj=arabic'
p411
aS'dobj=business'
p412
aS'dobj=chinese'
p413
aS'dobj=city'
p414
aS'dobj=day'
p415
aS'dobj=debate'
p416
aS'dobj=dialect'
p417
aS'dobj=dialogue'
p418
aS'dobj=diva'
p419
aS'dobj=earlier'
p420
aS'dobj=element'
p421
aS'dobj=energizer'
p422
aS'dobj=english'
p423
aS'dobj=figure'
p424
aS'dobj=french'
p425
aS'dobj=head'
p426
aS'dobj=hour'
p427
aS'dobj=issue'
p428
aS'dobj=language'
p429
aS'dobj=little'
p430
aS'dobj=mind'
p431
aS'dobj=minister'
p432
aS'dobj=minute'
p433
aS'dobj=more'
p434
aS'dobj=out'
p435
aS'dobj=poetry'
p436
aS'dobj=polish'
p437
aS'dobj=program'
p438
aS'dobj=publicly'
p439
aS'dobj=pular'
p440
aS'dobj=record'
p441
aS'dobj=responsibility'
p442
aS'dobj=soul'
p443
aS'dobj=talk'
p444
aS'dobj=that'
p445
aS'dobj=tribe'
p446
aS'dobj=truth'
p447
aS'dobj=turkish'
p448
aS'dobj=volume'
p449
aS'dobj=way'
p450
aS'dobj=while'
p451
aS'dobj=whom'
p452
aS'dobj=word'
p453
aS'mark=about'
p454
aS'mark=after'
p455
aS'mark=although'
p456
aS'mark=as'
p457
aS'mark=because'
p458
aS'mark=before'
p459
aS'mark=if'
p460
aS'mark=in'
p461
aS'mark=like'
p462
aS'mark=so'
p463
aS'mark=though'
p464
aS'mark=unless'
p465
aS'mark=until'
p466
aS'mark=while'
p467
aS'mark=with'
p468
aS'neg=never'
p469
aS'neg=not'
p470
aS'nsubj=#NUMBER#'
p471
aS'nsubj=#PRP#'
p472
aS'nsubj=Ababda'
p473
aS'nsubj=Abbas'
p474
aS'nsubj=Adams'
p475
aS'nsubj=Ahmadinejad'
p476
aS'nsubj=Ahmedinejad'
p477
aS'nsubj=Al-Mahdi'
p478
aS'nsubj=Alexander'
p479
aS'nsubj=Ali'
p480
aS'nsubj=Almagdaci'
p481
aS'nsubj=Ambassador'
p482
aS'nsubj=America'
p483
aS'nsubj=Americans'
p484
aS'nsubj=Andrus'
p485
aS'nsubj=Annan'
p486
aS'nsubj=Anwar'
p487
aS'nsubj=Apparthurai'
p488
aS'nsubj=Arcega'
p489
aS'nsubj=Ashton'
p490
aS'nsubj=Bala'
p491
aS'nsubj=Ballmer'
p492
aS'nsubj=Ban'
p493
aS'nsubj=Barak'
p494
aS'nsubj=Barber'
p495
aS'nsubj=Bedie'
p496
aS'nsubj=Berenbach'
p497
aS'nsubj=Bernanke'
p498
aS'nsubj=Bettu'
p499
aS'nsubj=Bhowmick'
p500
aS'nsubj=Bhutto'
p501
aS'nsubj=Bindir'
p502
aS'nsubj=Blair'
p503
aS'nsubj=Bland'
p504
aS'nsubj=Bobb'
p505
aS'nsubj=Boehner'
p506
aS'nsubj=Boucher'
p507
aS'nsubj=Bowen'
p508
aS'nsubj=Brown'
p509
aS'nsubj=Buanne'
p510
aS'nsubj=Bush'
p511
aS'nsubj=Byung-je'
p512
aS'nsubj=Carter'
p513
aS'nsubj=Castelfranco'
p514
aS'nsubj=Castro'
p515
aS'nsubj=Castroneves'
p516
aS'nsubj=Chan'
p517
aS'nsubj=Chaudry'
p518
aS'nsubj=Chavez'
p519
aS'nsubj=Cheema'
p520
aS'nsubj=Chehouane'
p521
aS'nsubj=China'
p522
aS'nsubj=Clark'
p523
aS'nsubj=Clinton'
p524
aS'nsubj=Cohen'
p525
aS'nsubj=Comiteau'
p526
aS'nsubj=Commissioner'
p527
aS'nsubj=Congress'
p528
aS'nsubj=Control'
p529
aS'nsubj=Cook'
p530
aS'nsubj=Corun'
p531
aS'nsubj=Craddock'
p532
aS'nsubj=Crocker'
p533
aS'nsubj=David'
p534
aS'nsubj=Dean'
p535
aS'nsubj=Dementiev'
p536
aS'nsubj=Democrat'
p537
aS'nsubj=DiGiovanni'
p538
aS'nsubj=Difford'
p539
aS'nsubj=Dlomo'
p540
aS'nsubj=Dodd'
p541
aS'nsubj=Douglas'
p542
aS'nsubj=Dovi'
p543
aS'nsubj=Duck-soo'
p544
aS'nsubj=Edwards'
p545
aS'nsubj=Egyptians'
p546
aS'nsubj=Ellison'
p547
aS'nsubj=Emanuel'
p548
aS'nsubj=Emmanuel'
p549
aS'nsubj=Erdogan'
p550
aS'nsubj=Estimate'
p551
aS'nsubj=Fatah'
p552
aS'nsubj=Fernald'
p553
aS'nsubj=Fitzgerald'
p554
aS'nsubj=Frazer'
p555
aS'nsubj=Fried'
p556
aS'nsubj=Gaddafi'
p557
aS'nsubj=Garcia'
p558
aS'nsubj=Gates'
p559
aS'nsubj=Gbagbo'
p560
aS'nsubj=General'
p561
aS'nsubj=Ghuneim'
p562
aS'nsubj=Gilmore'
p563
aS'nsubj=Gingrich'
p564
aS'nsubj=Giuliani'
p565
aS'nsubj=Gore'
p566
aS'nsubj=Got'
p567
aS'nsubj=Graham'
p568
aS'nsubj=Greenstein'
p569
aS'nsubj=Hagel'
p570
aS'nsubj=Hakim'
p571
aS'nsubj=Hamas'
p572
aS'nsubj=Hamid'
p573
aS'nsubj=Hayden'
p574
aS'nsubj=Hertling'
p575
aS'nsubj=Hieu'
p576
aS'nsubj=Hikes'
p577
aS'nsubj=Hill'
p578
aS'nsubj=Holmes'
p579
aS'nsubj=Huckabee'
p580
aS'nsubj=Hughes'
p581
aS'nsubj=Hunt'
p582
aS'nsubj=Hussain'
p583
aS'nsubj=In-kook'
p584
aS'nsubj=Indonesia'
p585
aS'nsubj=Isaya'
p586
aS'nsubj=Ishmael'
p587
aS'nsubj=Israeli'
p588
aS'nsubj=Israelis'
p589
aS'nsubj=Ivanov'
p590
aS'nsubj=Iwu'
p591
aS'nsubj=JP'
p592
aS'nsubj=Jallow'
p593
aS'nsubj=Janaqow'
p594
aS'nsubj=Jawad'
p595
aS'nsubj=Jianchao'
p596
aS'nsubj=Johansen'
p597
aS'nsubj=Johnston'
p598
aS'nsubj=Jones'
p599
aS'nsubj=Jr.'
p600
aS'nsubj=Kabalan'
p601
aS'nsubj=Kaczynski'
p602
aS'nsubj=Kagame'
p603
aS'nsubj=Kaka'
p604
aS'nsubj=Khanna'
p605
aS'nsubj=Kim'
p606
aS'nsubj=King'
p607
aS'nsubj=Korea'
p608
aS'nsubj=Kosachev'
p609
aS'nsubj=Kouchner'
p610
aS'nsubj=Kwan'
p611
aS'nsubj=Lagarde'
p612
aS'nsubj=Leavitt'
p613
aS'nsubj=Lee'
p614
aS'nsubj=Levin'
p615
aS'nsubj=Lewis'
p616
aS'nsubj=Libby'
p617
aS'nsubj=Linstrand'
p618
aS'nsubj=Lugar'
p619
aS'nsubj=Machimura'
p620
aS'nsubj=Magid'
p621
aS'nsubj=Maliki'
p622
aS'nsubj=Malinick'
p623
aS'nsubj=Maphosa'
p624
aS'nsubj=Marie'
p625
aS'nsubj=Matlin'
p626
aS'nsubj=McCain'
p627
aS'nsubj=McCarthy'
p628
aS'nsubj=McConnell'
p629
aS'nsubj=McTeer'
p630
aS'nsubj=Meir'
p631
aS'nsubj=Melia'
p632
aS'nsubj=Mello'
p633
aS'nsubj=Merkel'
p634
aS'nsubj=Meshaal'
p635
aS'nsubj=Miliband'
p636
aS'nsubj=Misedah'
p637
aS'nsubj=Mitchell'
p638
aS'nsubj=Moran'
p639
aS'nsubj=Morrar'
p640
aS'nsubj=Motlanthe'
p641
aS'nsubj=Mueller'
p642
aS'nsubj=Mugabe'
p643
aS'nsubj=Mukoko'
p644
aS'nsubj=Musharraf'
p645
aS'nsubj=Mutharika'
p646
aS'nsubj=Nayelegu'
p647
aS'nsubj=Ndiaye'
p648
aS'nsubj=Negroponte'
p649
aS"nsubj=O'Neil"
p650
aS"nsubj=O'Sullivan"
p651
aS'nsubj=Obama'
p652
aS'nsubj=Olmert'
p653
aS'nsubj=Orszag'
p654
aS'nsubj=Otti'
p655
aS'nsubj=Oxfam'
p656
aS'nsubj=Padden'
p657
aS'nsubj=Palacio'
p658
aS'nsubj=Paulson'
p659
aS'nsubj=Pelosi'
p660
aS'nsubj=Perino'
p661
aS'nsubj=Petraeus'
p662
aS'nsubj=Poet'
p663
aS'nsubj=Pope'
p664
aS'nsubj=President'
p665
aS'nsubj=Presto'
p666
aS'nsubj=Putin'
p667
aS'nsubj=Queen'
p668
aS'nsubj=Ramos'
p669
aS'nsubj=Ramos-Horta'
p670
aS'nsubj=Rassman'
p671
aS'nsubj=Reid'
p672
aS'nsubj=Rice'
p673
aS'nsubj=Romney'
p674
aS'nsubj=Roosevelt'
p675
aS'nsubj=Rubaie'
p676
aS'nsubj=Ruth'
p677
aS'nsubj=Saakashvili'
p678
aS'nsubj=Salih'
p679
aS'nsubj=Sanchez'
p680
aS'nsubj=Sanguini'
p681
aS'nsubj=Sarkozy'
p682
aS'nsubj=Sasha'
p683
aS'nsubj=Scharfenberg'
p684
aS'nsubj=Scheffer'
p685
aS'nsubj=Schwarzenegger'
p686
aS'nsubj=Secretary'
p687
aS'nsubj=Senator'
p688
aS'nsubj=Sharif'
p689
aS'nsubj=Sharpton'
p690
aS'nsubj=Sheehan'
p691
aS'nsubj=Shevtsova'
p692
aS'nsubj=Silverman'
p693
aS'nsubj=Singh'
p694
aS'nsubj=Smith'
p695
aS'nsubj=Soebiandono'
p696
aS'nsubj=Solana'
p697
aS'nsubj=Soomro'
p698
aS'nsubj=Spanta'
p699
aS'nsubj=Speckhard'
p700
aS'nsubj=Specter'
p701
aS'nsubj=Spokesman'
p702
aS'nsubj=States'
p703
aS'nsubj=Steelman'
p704
aS'nsubj=Stoltenberg'
p705
aS'nsubj=Suleiman'
p706
aS'nsubj=Swicord'
p707
aS'nsubj=Thompson'
p708
aS'nsubj=Toure'
p709
aS'nsubj=Tran'
p710
aS'nsubj=Tsvangirai'
p711
aS'nsubj=U.N.'
p712
aS'nsubj=Undersecretary'
p713
aS'nsubj=Union'
p714
aS'nsubj=Uribe'
p715
aS'nsubj=Veale'
p716
aS'nsubj=Virginia'
p717
aS'nsubj=Wade'
p718
aS'nsubj=Walters'
p719
aS'nsubj=Wardak'
p720
aS'nsubj=Watada'
p721
aS'nsubj=Welch'
p722
aS'nsubj=Wellman'
p723
aS'nsubj=Whitman'
p724
aS'nsubj=Wolof'
p725
aS'nsubj=Worth'
p726
aS'nsubj=Wright'
p727
aS'nsubj=Yarmuth'
p728
aS'nsubj=Yeo'
p729
aS'nsubj=Yudhoyono'
p730
aS'nsubj=Zahau'
p731
aS'nsubj=Zed'
p732
aS'nsubj=ability'
p733
aS'nsubj=action'
p734
aS'nsubj=activist'
p735
aS'nsubj=admiral'
p736
aS'nsubj=agreement'
p737
aS'nsubj=al-Hakim'
p738
aS'nsubj=al-Malki'
p739
aS'nsubj=all'
p740
aS'nsubj=ambassador'
p741
aS'nsubj=ancient'
p742
aS'nsubj=army'
p743
aS'nsubj=assistant'
p744
aS'nsubj=bulletin'
p745
aS'nsubj=camera'
p746
aS'nsubj=candidate'
p747
aS'nsubj=capacity'
p748
aS'nsubj=cast'
p749
aS'nsubj=challenger'
p750
aS'nsubj=character'
p751
aS'nsubj=charisma'
p752
aS'nsubj=child'
p753
aS'nsubj=coach'
p754
aS'nsubj=colleague'
p755
aS'nsubj=community'
p756
aS'nsubj=contender'
p757
aS'nsubj=country'
p758
aS'nsubj=critic'
p759
aS'nsubj=defector'
p760
aS'nsubj=delegate'
p761
aS'nsubj=delegation'
p762
aS'nsubj=diplomat'
p763
aS'nsubj=document'
p764
aS'nsubj=effect'
p765
aS'nsubj=event'
p766
aS'nsubj=everyone'
p767
aS'nsubj=expert'
p768
aS'nsubj=family'
p769
aS'nsubj=friend'
p770
aS'nsubj=general'
p771
aS'nsubj=government'
p772
aS'nsubj=governor'
p773
aS'nsubj=grandson'
p774
aS'nsubj=group'
p775
aS'nsubj=hertle'
p776
aS'nsubj=imam'
p777
aS'nsubj=immigrant'
p778
aS'nsubj=issue'
p779
aS'nsubj=journalist'
p780
aS'nsubj=ki-moon'
p781
aS'nsubj=lady'
p782
aS'nsubj=lawyer'
p783
aS'nsubj=leader'
p784
aS'nsubj=lesson'
p785
aS'nsubj=majority'
p786
aS'nsubj=man'
p787
aS'nsubj=many'
p788
aS'nsubj=mayor'
p789
aS'nsubj=media'
p790
aS'nsubj=member'
p791
aS'nsubj=minister'
p792
aS'nsubj=most'
p793
aS'nsubj=motto'
p794
aS'nsubj=museum'
p795
aS'nsubj=muslim'
p796
aS'nsubj=nation'
p797
aS'nsubj=no'
p798
aS'nsubj=nobody'
p799
aS'nsubj=none'
p800
aS'nsubj=observer'
p801
aS'nsubj=officer'
p802
aS'nsubj=official'
p803
aS'nsubj=opportunity'
p804
aS'nsubj=organization'
p805
aS'nsubj=other'
p806
aS'nsubj=parent'
p807
aS'nsubj=parveena'
p808
aS'nsubj=patient'
p809
aS'nsubj=people'
p810
aS'nsubj=percent'
p811
aS'nsubj=person'
p812
aS'nsubj=philanthropist'
p813
aS'nsubj=point'
p814
aS'nsubj=pope'
p815
aS'nsubj=power'
p816
aS'nsubj=preacher'
p817
aS'nsubj=president'
p818
aS'nsubj=priority'
p819
aS'nsubj=punishment'
p820
aS'nsubj=quarter'
p821
aS'nsubj=rebel'
p822
aS'nsubj=recording'
p823
aS'nsubj=refugee'
p824
aS'nsubj=representative'
p825
aS'nsubj=responder'
p826
aS'nsubj=result'
p827
aS'nsubj=rightsgroup'
p828
aS'nsubj=robbery'
p829
aS'nsubj=secretary'
p830
aS'nsubj=seller'
p831
aS'nsubj=senator'
p832
aS'nsubj=sheik'
p833
aS'nsubj=society'
p834
aS'nsubj=soldier'
p835
aS'nsubj=some'
p836
aS'nsubj=someone'
p837
aS'nsubj=song'
p838
aS'nsubj=species'
p839
aS'nsubj=spokesman'
p840
aS'nsubj=staff'
p841
aS'nsubj=stream'
p842
aS'nsubj=term'
p843
aS'nsubj=text'
p844
aS'nsubj=that'
p845
aS'nsubj=third'
p846
aS'nsubj=time'
p847
aS'nsubj=venue'
p848
aS'nsubj=version'
p849
aS'nsubj=veteran'
p850
aS'nsubj=vice-director'
p851
aS'nsubj=violence'
p852
aS'nsubj=visit'
p853
aS'nsubj=voice'
p854
aS'nsubj=voter'
p855
aS'nsubj=whip'
p856
aS'nsubj=who'
p857
aS'nsubj=woman'
p858
aS'nsubj=world'
p859
aS'nsubj=writer'
p860
aS'nsubj=youngster'
p861
aS'nsubj=youth'
p862
aS'nsubjpass=#PRP#'
p863
aS'nsubjpass=Arabic'
p864
aS'nsubjpass=Dutch'
p865
aS'nsubjpass=English'
p866
aS'nsubjpass=French'
p867
aS'nsubjpass=language'
p868
aS'nsubjpass=that'
p869
aS'nsubjpass=which'
p870
aS'nsubjpass=word'
p871
aS'parataxis=ally'
p872
aS'parataxis=plan'
p873
aS'parataxis=say'
p874
aS'parataxis=stress'
p875
aS'parataxis=think'
p876
aS'partmod=adopt'
p877
aS'partmod=colony'
p878
aS'partmod=look'
p879
aS'partmod=make'
p880
aS'partmod=sit'
p881
aS'partmod=speak'
p882
aS'pcomp=for'
p883
aS'prep=aboard'
p884
aS'prep=about'
p885
aS'prep=after'
p886
aS'prep=against'
p887
aS'prep=alongside'
p888
aS'prep=among'
p889
aS'prep=as'
p890
aS'prep=at'
p891
aS'prep=base'
p892
aS'prep=before'
p893
aS'prep=by'
p894
aS'prep=combine'
p895
aS'prep=compare'
p896
aS'prep=despite'
p897
aS'prep=during'
p898
aS'prep=follow'
p899
aS'prep=for'
p900
aS'prep=from'
p901
aS'prep=in'
p902
aS'prep=include'
p903
aS'prep=into'
p904
aS'prep=late'
p905
aS'prep=like'
p906
aS'prep=near'
p907
aS'prep=not'
p908
aS'prep=of'
p909
aS'prep=on'
p910
aS'prep=out'
p911
aS'prep=outside'
p912
aS'prep=over'
p913
aS'prep=since'
p914
aS'prep=than'
p915
aS'prep=through'
p916
aS'prep=to'
p917
aS'prep=toward'
p918
aS'prep=under'
p919
aS'prep=while'
p920
aS'prep=with'
p921
aS'prep=without'
p922
aS'prt=in'
p923
aS'prt=out'
p924
aS'prt=up'
p925
aS'purpcl=find'
p926
aS'purpcl=get'
p927
aS'rel=around'
p928
aS'rel=during'
p929
aS'rel=in'
p930
aS'tmod=#DATE#'
p931
aS'tmod=#NUMBER#'
p932
aS'tmod=Ministry'
p933
aS'tmod=afternoon'
p934
aS'tmod=ambassador'
p935
aS'tmod=day'
p936
aS'tmod=evening'
p937
aS'tmod=morning'
p938
aS'tmod=night'
p939
aS'tmod=time'
p940
aS'tmod=today'
p941
aS'tmod=week'
p942
aS'tmod=weekend'
p943
aS'tmod=year'
p944
aS"w+1=''"
p945
aS'w+1=,'
p946
aS'w+1=-'
p947
aS'w+1=-lrb-'
p948
aS'w+1=-rrb-'
p949
aS'w+1=.'
p950
aS'w+1=12'
p951
aS'w+1=Arabic'
p952
aS'w+1=Dari'
p953
aS'w+1=English'
p954
aS'w+1=Farsi'
p955
aS'w+1=French'
p956
aS'w+1=Friday'
p957
aS'w+1=Kurdish'
p958
aS'w+1=Malay'
p959
aS'w+1=Monday'
p960
aS'w+1=Ms.'
p961
aS'w+1=Nairobi'
p962
aS'w+1=Polish'
p963
aS'w+1=Portuguese'
p964
aS'w+1=Russian'
p965
aS'w+1=Sunday'
p966
aS'w+1=Tamil'
p967
aS'w+1=Thursday'
p968
aS'w+1=Tuesday'
p969
aS'w+1=Vietnamese'
p970
aS'w+1=Wednesday'
p971
aS'w+1=Wolof'
p972
aS'w+1=a'
p973
aS'w+1=about'
p974
aS'w+1=after'
p975
aS'w+1=afterwards'
p976
aS'w+1=against'
p977
aS'w+1=ahead'
p978
aS'w+1=all'
p979
aS'w+1=alone'
p980
aS'w+1=alongside'
p981
aS'w+1=already'
p982
aS'w+1=also'
p983
aS'w+1=amid'
p984
aS'w+1=among'
p985
aS'w+1=and'
p986
aS'w+1=anonymously'
p987
aS'w+1=anything'
p988
aS'w+1=arabic'
p989
aS'w+1=as'
p990
aS'w+1=at'
p991
aS'w+1=attack'
p992
aS'w+1=authoritatively'
p993
aS'w+1=basic'
p994
aS'w+1=be'
p995
aS'w+1=before'
p996
aS'w+1=behind'
p997
aS'w+1=both'
p998
aS'w+1=briefly'
p999
aS'w+1=by'
p1000
aS'w+1=clearly'
p1001
aS'w+1=concede'
p1002
aS'w+1=credibly'
p1003
aS'w+1=day'
p1004
aS'w+1=different'
p1005
aS'w+1=directly'
p1006
aS'w+1=during'
p1007
aS'w+1=earlier'
p1008
aS'w+1=enthusiastically'
p1009
aS'w+1=even'
p1010
aS'w+1=extensively'
p1011
aS'w+1=favorably'
p1012
aS'w+1=first'
p1013
aS'w+1=fluent'
p1014
aS'w+1=follow'
p1015
aS'w+1=for'
p1016
aS'w+1=four'
p1017
aS'w+1=frankly'
p1018
aS'w+1=freely'
p1019
aS'w+1=french'
p1020
aS'w+1=frequently'
p1021
aS'w+1=from'
p1022
aS'w+1=generally'
p1023
aS'w+1=good'
p1024
aS'w+1=he'
p1025
aS'w+1=here'
p1026
aS'w+1=hopefully'
p1027
aS'w+1=hour'
p1028
aS'w+1=in'
p1029
aS'w+1=include'
p1030
aS'w+1=instead'
p1031
aS'w+1=into'
p1032
aS'w+1=it'
p1033
aS'w+1=italian'
p1034
aS'w+1=its'
p1035
aS'w+1=just'
p1036
aS'w+1=language'
p1037
aS'w+1=late'
p1038
aS'w+1=later'
p1039
aS'w+1=little'
p1040
aS'w+1=local'
p1041
aS'w+1=loud'
p1042
aS'w+1=louder'
p1043
aS'w+1=loudly'
p1044
aS'w+1=malevolently'
p1045
aS'w+1=minute'
p1046
aS'w+1=more'
p1047
aS'w+1=near'
p1048
aS'w+1=no'
p1049
aS'w+1=not'
p1050
aS'w+1=now'
p1051
aS'w+1=of'
p1052
aS'w+1=on'
p1053
aS'w+1=one'
p1054
aS'w+1=only'
p1055
aS'w+1=openly'
p1056
aS'w+1=optimistically'
p1057
aS'w+1=out'
p1058
aS'w+1=outside'
p1059
aS'w+1=over'
p1060
aS'w+1=particularly'
p1061
aS'w+1=passionately'
p1062
aS'w+1=pay'
p1063
aS'w+1=perfect'
p1064
aS'w+1=personally'
p1065
aS'w+1=polish'
p1066
aS'w+1=positively'
p1067
aS'w+1=privately'
p1068
aS'w+1=properly'
p1069
aS'w+1=publicly'
p1070
aS'w+1=pular'
p1071
aS'w+1=quietly'
p1072
aS'w+1=reasonable'
p1073
aS'w+1=recently'
p1074
aS'w+1=seven'
p1075
aS'w+1=several'
p1076
aS'w+1=shortly'
p1077
aS'w+1=simple'
p1078
aS'w+1=six'
p1079
aS'w+1=softly'
p1080
aS'w+1=some'
p1081
aS'w+1=specifically'
p1082
aS'w+1=strongly'
p1083
aS'w+1=than'
p1084
aS'w+1=the'
p1085
aS'w+1=they'
p1086
aS'w+1=this'
p1087
aS'w+1=though'
p1088
aS'w+1=through'
p1089
aS'w+1=thru'
p1090
aS'w+1=to'
p1091
aS'w+1=today'
p1092
aS'w+1=together'
p1093
aS'w+1=too'
p1094
aS'w+1=tribal'
p1095
aS'w+1=tribe'
p1096
aS'w+1=turkish'
p1097
aS'w+1=up'
p1098
aS'w+1=upon'
p1099
aS'w+1=very'
p1100
aS'w+1=via'
p1101
aS'w+1=volume'
p1102
aS'w+1=vulgar'
p1103
aS'w+1=wear'
p1104
aS'w+1=well'
p1105
aS'w+1=when'
p1106
aS'w+1=with'
p1107
aS'w+1=wolof'
p1108
aS'w+1=word'
p1109
aS"w+2=''"
p1110
aS'w+2=,'
p1111
aS'w+2=-lrb-'
p1112
aS'w+2=.'
p1113
aS'w+2=2003'
p1114
aS'w+2=ABC'
p1115
aS'w+2=Abu'
p1116
aS'w+2=Afghanistan'
p1117
aS'w+2=Air'
p1118
aS'w+2=Algerian'
p1119
aS'w+2=American'
p1120
aS'w+2=Arabic'
p1121
aS'w+2=Baghdad'
p1122
aS'w+2=Bahrain'
p1123
aS'w+2=Bangkok'
p1124
aS'w+2=Barzani'
p1125
aS'w+2=Beijing'
p1126
aS'w+2=Belgrade'
p1127
aS'w+2=Benin'
p1128
aS'w+2=Berlin'
p1129
aS'w+2=Bhutto'
p1130
aS'w+2=Bloomberg'
p1131
aS'w+2=Britain'
p1132
aS'w+2=Bucharest'
p1133
aS'w+2=Burkina'
p1134
aS'w+2=CBS'
p1135
aS'w+2=CNBC'
p1136
aS'w+2=CNN'
p1137
aS'w+2=Cairo'
p1138
aS'w+2=California'
p1139
aS'w+2=Camp'
p1140
aS'w+2=Cape'
p1141
aS'w+2=Capitol'
p1142
aS'w+2=Chicago'
p1143
aS'w+2=China'
p1144
aS'w+2=Chris'
p1145
aS'w+2=Clara'
p1146
aS'w+2=Columbus'
p1147
aS'w+2=Crawford'
p1148
aS'w+2=Dakar'
p1149
aS'w+2=Damascus'
p1150
aS'w+2=Dari'
p1151
aS'w+2=Davos'
p1152
aS'w+2=Dawn'
p1153
aS'w+2=Defense'
p1154
aS'w+2=Denmark'
p1155
aS'w+2=Dubai'
p1156
aS'w+2=English'
p1157
aS'w+2=Eric'
p1158
aS'w+2=Eritrea'
p1159
aS'w+2=FBI'
p1160
aS'w+2=Face'
p1161
aS'w+2=Fort'
p1162
aS'w+2=Fox'
p1163
aS'w+2=France'
p1164
aS'w+2=French'
p1165
aS'w+2=Friday'
p1166
aS'w+2=Gaza'
p1167
aS'w+2=General'
p1168
aS'w+2=Geneva'
p1169
aS'w+2=Germany'
p1170
aS'w+2=Ghana'
p1171
aS'w+2=Hamas'
p1172
aS'w+2=Hausa'
p1173
aS'w+2=Hindi'
p1174
aS'w+2=Hong'
p1175
aS'w+2=I'
p1176
aS'w+2=India'
p1177
aS'w+2=Indonesia'
p1178
aS'w+2=Iowa'
p1179
aS'w+2=Iran'
p1180
aS'w+2=Iraq'
p1181
aS'w+2=Israel'
p1182
aS'w+2=Jerusalem'
p1183
aS'w+2=Jordan'
p1184
aS'w+2=Kampala'
p1185
aS'w+2=Ketumile'
p1186
aS'w+2=King'
p1187
aS'w+2=Kouchner'
p1188
aS'w+2=Kuwait'
p1189
aS'w+2=London'
p1190
aS'w+2=Los'
p1191
aS'w+2=Louise'
p1192
aS'w+2=Lovari'
p1193
aS'w+2=MSNBC'
p1194
aS'w+2=Madrid'
p1195
aS'w+2=Mark'
p1196
aS'w+2=Maryland'
p1197
aS'w+2=McQueen'
p1198
aS'w+2=Mike'
p1199
aS'w+2=Monrovia'
p1200
aS'w+2=Moscow'
p1201
aS'w+2=Mr.'
p1202
aS'w+2=Muslims'
p1203
aS'w+2=NBC'
p1204
aS'w+2=New'
p1205
aS'w+2=Ohio'
p1206
aS'w+2=Omaha'
p1207
aS'w+2=Pakistan'
p1208
aS'w+2=Paris'
p1209
aS'w+2=Parliament'
p1210
aS'w+2=Pennsylvania'
p1211
aS'w+2=Philadelphia'
p1212
aS'w+2=President'
p1213
aS'w+2=Prime'
p1214
aS'w+2=Ramadan'
p1215
aS'w+2=Rami'
p1216
aS'w+2=Republicans'
p1217
aS'w+2=Riyadh'
p1218
aS'w+2=Romania'
p1219
aS'w+2=Rome'
p1220
aS'w+2=Rotana'
p1221
aS'w+2=Russia'
p1222
aS'w+2=Rwanda'
p1223
aS'w+2=SADC'
p1224
aS'w+2=Saint'
p1225
aS'w+2=Secretary'
p1226
aS'w+2=Senegal'
p1227
aS'w+2=Seoul'
p1228
aS'w+2=Sindh'
p1229
aS'w+2=Sky'
p1230
aS'w+2=State'
p1231
aS'w+2=Sudan'
p1232
aS'w+2=Sunday'
p1233
aS'w+2=Swahili'
p1234
aS'w+2=Tamil'
p1235
aS'w+2=Tanzania'
p1236
aS'w+2=Tehran'
p1237
aS'w+2=Texas'
p1238
aS'w+2=Tikrit'
p1239
aS'w+2=Tokyo'
p1240
aS'w+2=Tuesday'
p1241
aS'w+2=U.S.'
p1242
aS'w+2=Uganda'
p1243
aS'w+2=Washington'
p1244
aS'w+2=Wednesday'
p1245
aS'w+2=WednesdayAlso'
p1246
aS'w+2=World'
p1247
aS'w+2=Yuma'
p1248
aS'w+2=a'
p1249
aS'w+2=about'
p1250
aS'w+2=actor'
p1251
aS'w+2=african'
p1252
aS'w+2=after'
p1253
aS'w+2=against'
p1254
aS'w+2=akar'
p1255
aS'w+2=all'
p1256
aS'w+2=although'
p1257
aS'w+2=american'
p1258
aS'w+2=amount'
p1259
aS'w+2=and'
p1260
aS'w+2=announce'
p1261
aS'w+2=another'
p1262
aS'w+2=any'
p1263
aS'w+2=arabic'
p1264
aS'w+2=area'
p1265
aS'w+2=arrival'
p1266
aS'w+2=as'
p1267
aS'w+2=aspiring'
p1268
aS'w+2=at'
p1269
aS'w+2=author'
p1270
aS'w+2=be'
p1271
aS'w+2=before'
p1272
aS'w+2=behalf'
p1273
aS'w+2=black'
p1274
aS'w+2=blessing'
p1275
aS'w+2=bond'
p1276
aS'w+2=both'
p1277
aS'w+2=brassage'
p1278
aS'w+2=british'
p1279
aS'w+2=burma'
p1280
aS'w+2=business'
p1281
aS'w+2=by'
p1282
aS'w+2=can'
p1283
aS'w+2=century'
p1284
aS'w+2=ceremony'
p1285
aS'w+2=certain'
p1286
aS'w+2=certainly'
p1287
aS'w+2=characteristic'
p1288
aS'w+2=chinese'
p1289
aS'w+2=citizen'
p1290
aS'w+2=civilian'
p1291
aS'w+2=clearly'
p1292
aS'w+2=climate'
p1293
aS'w+2=closed'
p1294
aS'w+2=college'
p1295
aS'w+2=colombian'
p1296
aS'w+2=community'
p1297
aS'w+2=condition'
p1298
aS'w+2=cooperation'
p1299
aS'w+2=corporate'
p1300
aS'w+2=court'
p1301
aS'w+2=crowd'
p1302
aS'w+2=crude'
p1303
aS'w+2=curious'
p1304
aS'w+2=day'
p1305
aS'w+2=decline'
p1306
aS'w+2=democrat'
p1307
aS'w+2=dialect'
p1308
aS'w+2=director'
p1309
aS'w+2=do'
p1310
aS'w+2=during'
p1311
aS'w+2=each'
p1312
aS'w+2=economic'
p1313
aS'w+2=economist'
p1314
aS'w+2=effort'
p1315
aS'w+2=eight'
p1316
aS'w+2=either'
p1317
aS'w+2=end'
p1318
aS'w+2=energy'
p1319
aS'w+2=english'
p1320
aS'w+2=ethanol'
p1321
aS'w+2=even'
p1322
aS'w+2=every'
p1323
aS'w+2=everybody'
p1324
aS'w+2=everyone'
p1325
aS'w+2=everything'
p1326
aS'w+2=expand'
p1327
aS'w+2=experience'
p1328
aS'w+2=family'
p1329
aS'w+2=favor'
p1330
aS'w+2=fight'
p1331
aS'w+2=first'
p1332
aS'w+2=fluently'
p1333
aS'w+2=focus'
p1334
aS'w+2=follow'
p1335
aS'w+2=for'
p1336
aS'w+2=forcefully'
p1337
aS'w+2=foreign'
p1338
aS'w+2=former'
p1339
aS'w+2=forthrightly'
p1340
aS'w+2=freedom'
p1341
aS'w+2=freely'
p1342
aS'w+2=french'
p1343
aS'w+2=from'
p1344
aS'w+2=front'
p1345
aS'w+2=gazan'
p1346
aS'w+2=gender'
p1347
aS'w+2=general'
p1348
aS'w+2=good'
p1349
aS'w+2=graduation'
p1350
aS'w+2=have'
p1351
aS'w+2=he'
p1352
aS'w+2=health'
p1353
aS'w+2=himself'
p1354
aS'w+2=hiv'
p1355
aS'w+2=home'
p1356
aS'w+2=however'
p1357
aS'w+2=hundred'
p1358
aS'w+2=hungarian'
p1359
aS'w+2=in'
p1360
aS'w+2=inconvenient'
p1361
aS'w+2=increase'
p1362
aS'w+2=indian'
p1363
aS'w+2=indigenous'
p1364
aS'w+2=inside'
p1365
aS'w+2=international'
p1366
aS'w+2=intimidation'
p1367
aS'w+2=iraqi'
p1368
aS'w+2=israeli'
p1369
aS'w+2=it'
p1370
aS'w+2=italian'
p1371
aS'w+2=its'
p1372
aS'w+2=itself'
p1373
aS'w+2=jeweler'
p1374
aS'w+2=journalist'
p1375
aS'w+2=just'
p1376
aS'w+2=kony'
p1377
aS'w+2=language'
p1378
aS'w+2=large'
p1379
aS'w+2=lash'
p1380
aS'w+2=late'
p1381
aS'w+2=lawmaker'
p1382
aS'w+2=leader'
p1383
aS'w+2=least'
p1384
aS'w+2=legislation'
p1385
aS'w+2=length'
p1386
aS'w+2=little'
p1387
aS'w+2=lobbyist'
p1388
aS'w+2=local'
p1389
aS'w+2=longtime'
p1390
aS'w+2=loudly'
p1391
aS'w+2=make'
p1392
aS'w+2=man'
p1393
aS'w+2=many'
p1394
aS'w+2=mark'
p1395
aS'w+2=media'
p1396
aS'w+2=medical'
p1397
aS'w+2=meet'
p1398
aS'w+2=member'
p1399
aS'w+2=mind'
p1400
aS'w+2=morning'
p1401
aS'w+2=mostly'
p1402
aS'w+2=movement'
p1403
aS'w+2=much'
p1404
aS'w+2=my'
p1405
aS'w+2=myself'
p1406
aS'w+2=national'
p1407
aS'w+2=native'
p1408
aS'w+2=networking'
p1409
aS'w+2=news'
p1410
aS'w+2=nigerian'
p1411
aS'w+2=night'
p1412
aS'w+2=nomadic'
p1413
aS'w+2=nor'
p1414
aS'w+2=not'
p1415
aS'w+2=note'
p1416
aS'w+2=nuclear'
p1417
aS'w+2=numerous'
p1418
aS'w+2=of'
p1419
aS'w+2=official'
p1420
aS'w+2=okrika'
p1421
aS'w+2=older'
p1422
aS'w+2=on'
p1423
aS'w+2=one'
p1424
aS'w+2=only'
p1425
aS'w+2=operate'
p1426
aS'w+2=opposition'
p1427
aS'w+2=or'
p1428
aS'w+2=other'
p1429
aS'w+2=over'
p1430
aS'w+2=overseas'
p1431
aS'w+2=own'
p1432
aS'w+2=palestinian'
p1433
aS'w+2=parent'
p1434
aS'w+2=parliament'
p1435
aS'w+2=party'
p1436
aS'w+2=peace'
p1437
aS'w+2=people'
p1438
aS'w+2=phone'
p1439
aS'w+2=pilot'
p1440
aS'w+2=place'
p1441
aS'w+2=plainly'
p1442
aS'w+2=plan'
p1443
aS'w+2=poetry'
p1444
aS'w+2=police'
p1445
aS'w+2=policemen'
p1446
aS'w+2=positive'
p1447
aS'w+2=potential'
p1448
aS'w+2=power'
p1449
aS'w+2=press'
p1450
aS'w+2=pretty'
p1451
aS'w+2=pride'
p1452
aS'w+2=problem'
p1453
aS'w+2=progress'
p1454
aS'w+2=public'
p1455
aS'w+2=publicly'
p1456
aS'w+2=radio'
p1457
aS'w+2=rampant'
p1458
aS'w+2=reaction'
p1459
aS'w+2=rebel'
p1460
aS'w+2=rebuild'
p1461
aS'w+2=recent'
p1462
aS'w+2=reconciliation'
p1463
aS'w+2=reduce'
p1464
aS'w+2=religious'
p1465
aS'w+2=report'
p1466
aS'w+2=reporter'
p1467
aS'w+2=risk'
p1468
aS'w+2=russian'
p1469
aS'w+2=same'
p1470
aS'w+2=satellite'
p1471
aS'w+2=say'
p1472
aS'w+2=school'
p1473
aS'w+2=senior'
p1474
aS'w+2=serious'
p1475
aS'w+2=several'
p1476
aS'w+2=she'
p1477
aS'w+2=short'
p1478
aS'w+2=significant'
p1479
aS'w+2=so'
p1480
aS'w+2=softly'
p1481
aS'w+2=soldier'
p1482
aS'w+2=somali'
p1483
aS'w+2=some'
p1484
aS'w+2=someone'
p1485
aS'w+2=state'
p1486
aS'w+2=state-run'
p1487
aS'w+2=stately'
p1488
aS'w+2=stigma'
p1489
aS'w+2=strongly'
p1490
aS'w+2=student'
p1491
aS'w+2=such'
p1492
aS'w+2=supporter'
p1493
aS'w+2=syrian'
p1494
aS'w+2=talk'
p1495
aS'w+2=teacher'
p1496
aS'w+2=telephone'
p1497
aS'w+2=ten'
p1498
aS'w+2=term'
p1499
aS'w+2=than'
p1500
aS'w+2=that'
p1501
aS'w+2=the'
p1502
aS'w+2=themselves'
p1503
aS'w+2=then'
p1504
aS'w+2=these'
p1505
aS'w+2=they'
p1506
aS'w+2=this'
p1507
aS'w+2=those'
p1508
aS'w+2=thousand'
p1509
aS'w+2=three'
p1510
aS'w+2=time'
p1511
aS'w+2=to'
p1512
aS'w+2=tour'
p1513
aS'w+2=tribunal'
p1514
aS'w+2=tribute'
p1515
aS'w+2=troop'
p1516
aS'w+2=truth'
p1517
aS'w+2=turkish'
p1518
aS'w+2=two'
p1519
aS'w+2=u.s'
p1520
aS'w+2=unemployment'
p1521
aS'w+2=university'
p1522
aS'w+2=unsatisfied'
p1523
aS'w+2=until'
p1524
aS'w+2=very'
p1525
aS'w+2=victim'
p1526
aS'w+2=video'
p1527
aS'w+2=vietnamese'
p1528
aS'w+2=villager'
p1529
aS'w+2=visitor'
p1530
aS'w+2=voter'
p1531
aS'w+2=we'
p1532
aS'w+2=week'
p1533
aS'w+2=well'
p1534
aS'w+2=what'
p1535
aS'w+2=when'
p1536
aS'w+2=while'
p1537
aS'w+2=whose'
p1538
aS'w+2=win'
p1539
aS'w+2=with'
p1540
aS'w+2=woman'
p1541
aS'w+2=word'
p1542
aS'w+2=worker'
p1543
aS'w+2=world'
p1544
aS'w+2=wound'
p1545
aS'w+2=year'
p1546
aS'w+2=yet'
p1547
aS'w+2=you'
p1548
aS'w+2=zanu-pf'
p1549
aS"w-1=''"
p1550
aS"w-1='ll"
p1551
aS"w-1='s"
p1552
aS'w-1=,'
p1553
aS'w-1=-'
p1554
aS'w-1=-lrb-'
p1555
aS'w-1=.'
p1556
aS'w-1=:'
p1557
aS'w-1=;'
p1558
aS'w-1=Abbas'
p1559
aS'w-1=Adams'
p1560
aS'w-1=Africa'
p1561
aS'w-1=Ahmadinejad'
p1562
aS'w-1=Al-Mahdi'
p1563
aS'w-1=Almagdaci'
p1564
aS'w-1=America'
p1565
aS'w-1=Americans'
p1566
aS'w-1=Angelou'
p1567
aS'w-1=Annan'
p1568
aS'w-1=Anwar'
p1569
aS'w-1=Arcega'
p1570
aS'w-1=Ashton'
p1571
aS'w-1=Bala'
p1572
aS'w-1=Ballmer'
p1573
aS'w-1=Ban'
p1574
aS'w-1=Barak'
p1575
aS'w-1=Barber'
p1576
aS'w-1=Begaj'
p1577
aS'w-1=Berenbach'
p1578
aS'w-1=Bernanke'
p1579
aS'w-1=Besharin'
p1580
aS'w-1=Bhowmick'
p1581
aS'w-1=Bhutto'
p1582
aS'w-1=Blair'
p1583
aS'w-1=Bobb'
p1584
aS'w-1=Boehner'
p1585
aS'w-1=Boucher'
p1586
aS'w-1=Brown'
p1587
aS'w-1=Buanne'
p1588
aS'w-1=Burns'
p1589
aS'w-1=Bush'
p1590
aS'w-1=Byung-je'
p1591
aS'w-1=Carter'
p1592
aS'w-1=Castelfranco'
p1593
aS'w-1=Chaudry'
p1594
aS'w-1=Chavez'
p1595
aS'w-1=Cheema'
p1596
aS'w-1=Chehouane'
p1597
aS'w-1=Church'
p1598
aS'w-1=Clinton'
p1599
aS'w-1=Comiteau'
p1600
aS'w-1=Congress'
p1601
aS'w-1=Cook'
p1602
aS'w-1=Crocker'
p1603
aS'w-1=Dementiev'
p1604
aS'w-1=Difford'
p1605
aS'w-1=Dovi'
p1606
aS'w-1=Edwards'
p1607
aS'w-1=Egyptians'
p1608
aS'w-1=Ellison'
p1609
aS'w-1=Emanuel'
p1610
aS'w-1=Emmanuel'
p1611
aS'w-1=Estimate'
p1612
aS'w-1=Fatah'
p1613
aS'w-1=Fernald'
p1614
aS'w-1=Frazer'
p1615
aS'w-1=Fried'
p1616
aS'w-1=Gaddafi'
p1617
aS'w-1=Garcia'
p1618
aS'w-1=Gates'
p1619
aS'w-1=Gbagbo'
p1620
aS'w-1=Gertz'
p1621
aS'w-1=Ghuneim'
p1622
aS'w-1=Gingrich'
p1623
aS'w-1=Got'
p1624
aS'w-1=Gypsies'
p1625
aS'w-1=Hagel'
p1626
aS'w-1=Hamas'
p1627
aS'w-1=Hamid'
p1628
aS'w-1=Hayden'
p1629
aS'w-1=Hieu'
p1630
aS'w-1=Hill'
p1631
aS'w-1=Holmes'
p1632
aS'w-1=Huckabee'
p1633
aS'w-1=Hughes'
p1634
aS'w-1=Hunt'
p1635
aS'w-1=Hussain'
p1636
aS'w-1=Hwa'
p1637
aS'w-1=I'
p1638
aS'w-1=India'
p1639
aS'w-1=Ishmael'
p1640
aS'w-1=Ivanov'
p1641
aS'w-1=Iwu'
p1642
aS'w-1=JP'
p1643
aS'w-1=Jacobs'
p1644
aS'w-1=Jallow'
p1645
aS'w-1=Janaqow'
p1646
aS'w-1=Jawad'
p1647
aS'w-1=Jianchao'
p1648
aS'w-1=Johansen'
p1649
aS'w-1=Johnston'
p1650
aS'w-1=Kentucky'
p1651
aS'w-1=King'
p1652
aS'w-1=Korea'
p1653
aS'w-1=Kosachev'
p1654
aS'w-1=Kouchner'
p1655
aS'w-1=Kwan'
p1656
aS'w-1=Lagarde'
p1657
aS'w-1=Lee'
p1658
aS'w-1=Levin'
p1659
aS'w-1=Lewis'
p1660
aS'w-1=Linstrand'
p1661
aS'w-1=Lott'
p1662
aS'w-1=Maliki'
p1663
aS'w-1=Maphosa'
p1664
aS'w-1=McCain'
p1665
aS'w-1=McCarthy'
p1666
aS'w-1=McTeer'
p1667
aS'w-1=Meir'
p1668
aS'w-1=Mello'
p1669
aS'w-1=Merkel'
p1670
aS'w-1=Meshaal'
p1671
aS'w-1=Miliband'
p1672
aS'w-1=Mitchell'
p1673
aS'w-1=Monday'
p1674
aS'w-1=Moran'
p1675
aS'w-1=Morgan'
p1676
aS'w-1=Morrar'
p1677
aS'w-1=Mueller'
p1678
aS'w-1=Musharraf'
p1679
aS'w-1=NFL'
p1680
aS'w-1=Nayelegu'
p1681
aS'w-1=Ndiaye'
p1682
aS'w-1=Negroponte'
p1683
aS"w-1=O'Neil"
p1684
aS"w-1=O'Sullivan"
p1685
aS'w-1=Obama'
p1686
aS'w-1=Olmert'
p1687
aS'w-1=Otti'
p1688
aS'w-1=Ouattara'
p1689
aS'w-1=Oxfam'
p1690
aS'w-1=Padden'
p1691
aS'w-1=Palacio'
p1692
aS'w-1=Palestinians'
p1693
aS'w-1=Paulson'
p1694
aS'w-1=Pelosi'
p1695
aS'w-1=Pennsylvania'
p1696
aS'w-1=Perino'
p1697
aS'w-1=Petraeus'
p1698
aS'w-1=Pope'
p1699
aS'w-1=President'
p1700
aS'w-1=Presto'
p1701
aS'w-1=Putin'
p1702
aS'w-1=Rassman'
p1703
aS'w-1=Reid'
p1704
aS'w-1=Rice'
p1705
aS'w-1=Romney'
p1706
aS'w-1=Roosevelt'
p1707
aS'w-1=Rubaie'
p1708
aS'w-1=Ruth'
p1709
aS'w-1=Salih'
p1710
aS'w-1=Sanguini'
p1711
aS'w-1=Sarkozy'
p1712
aS'w-1=Sasha'
p1713
aS'w-1=Saturday'
p1714
aS'w-1=Scharfenberg'
p1715
aS'w-1=Scheffer'
p1716
aS'w-1=Schwarzenegger'
p1717
aS'w-1=Secretary'
p1718
aS'w-1=Sharp'
p1719
aS'w-1=Sharpton'
p1720
aS'w-1=Silverman'
p1721
aS'w-1=Singh'
p1722
aS'w-1=Smith'
p1723
aS'w-1=Solana'
p1724
aS'w-1=Soomro'
p1725
aS'w-1=Spanta'
p1726
aS'w-1=Specter'
p1727
aS'w-1=Straw'
p1728
aS'w-1=Swicord'
p1729
aS'w-1=Tennessee'
p1730
aS'w-1=Thompson'
p1731
aS'w-1=Toure'
p1732
aS'w-1=Tran'
p1733
aS'w-1=Tsvangirai'
p1734
aS'w-1=Virag'
p1735
aS'w-1=Wade'
p1736
aS'w-1=Wardak'
p1737
aS'w-1=Watada'
p1738
aS'w-1=Welch'
p1739
aS'w-1=Wellman'
p1740
aS'w-1=Whitman'
p1741
aS'w-1=Wiesel'
p1742
aS'w-1=Wisconsin'
p1743
aS'w-1=Worth'
p1744
aS'w-1=Yarmuth'
p1745
aS'w-1=Yeo'
p1746
aS'w-1=Yudhoyono'
p1747
aS'w-1=admiral'
p1748
aS'w-1=after'
p1749
aS'w-1=again'
p1750
aS'w-1=air'
p1751
aS'w-1=al-Malki'
p1752
aS'w-1=all'
p1753
aS'w-1=also'
p1754
aS'w-1=ambassador'
p1755
aS'w-1=ancient'
p1756
aS'w-1=and'
p1757
aS'w-1=as'
p1758
aS'w-1=attacker'
p1759
aS'w-1=barely'
p1760
aS'w-1=be'
p1761
aS'w-1=begin'
p1762
aS'w-1=beja'
p1763
aS'w-1=between'
p1764
aS'w-1=bill'
p1765
aS'w-1=board'
p1766
aS'w-1=bridge'
p1767
aS'w-1=briefly'
p1768
aS'w-1=broadly'
p1769
aS'w-1=bulletin'
p1770
aS'w-1=burma'
p1771
aS'w-1=but'
p1772
aS'w-1=by'
p1773
aS'w-1=can'
p1774
aS'w-1=candidate'
p1775
aS'w-1=character'
p1776
aS'w-1=charisma'
p1777
aS'w-1=clearly'
p1778
aS'w-1=community'
p1779
aS'w-1=complex'
p1780
aS'w-1=could'
p1781
aS'w-1=defector'
p1782
aS'w-1=deputy'
p1783
aS'w-1=difficulty'
p1784
aS'w-1=do'
p1785
aS'w-1=document'
p1786
aS'w-1=each'
p1787
aS'w-1=earlier'
p1788
aS'w-1=even'
p1789
aS'w-1=ever'
p1790
aS'w-1=everyone'
p1791
aS'w-1=expert'
p1792
aS'w-1=family'
p1793
aS'w-1=filmmaker'
p1794
aS'w-1=first'
p1795
aS'w-1=for'
p1796
aS'w-1=frankly'
p1797
aS'w-1=friend'
p1798
aS'w-1=from'
p1799
aS'w-1=general'
p1800
aS'w-1=generally'
p1801
aS'w-1=gentleman'
p1802
aS'w-1=gradually'
p1803
aS'w-1=have'
p1804
aS'w-1=he'
p1805
aS'w-1=hear'
p1806
aS'w-1=here'
p1807
aS'w-1=history'
p1808
aS'w-1=in'
p1809
aS'w-1=issue'
p1810
aS'w-1=it'
p1811
aS'w-1=itself'
p1812
aS'w-1=just'
p1813
aS'w-1=keep'
p1814
aS'w-1=ki-moon'
p1815
aS'w-1=language'
p1816
aS'w-1=lawyer'
p1817
aS'w-1=leader'
p1818
aS'w-1=lesson'
p1819
aS'w-1=long'
p1820
aS'w-1=man'
p1821
aS'w-1=medically'
p1822
aS'w-1=member'
p1823
aS'w-1=minister'
p1824
aS'w-1=must'
p1825
aS'w-1=nation'
p1826
aS'w-1=never'
p1827
aS'w-1=no'
p1828
aS'w-1=not'
p1829
aS'w-1=observer'
p1830
aS'w-1=occasionally'
p1831
aS'w-1=of'
p1832
aS'w-1=official'
p1833
aS'w-1=often'
p1834
aS'w-1=one'
p1835
aS'w-1=only'
p1836
aS'w-1=openly'
p1837
aS'w-1=parveena'
p1838
aS'w-1=people'
p1839
aS'w-1=perseverance'
p1840
aS'w-1=personally'
p1841
aS'w-1=philanthropist'
p1842
aS'w-1=planet'
p1843
aS'w-1=pope'
p1844
aS'w-1=practically'
p1845
aS'w-1=president'
p1846
aS'w-1=rarely'
p1847
aS'w-1=really'
p1848
aS'w-1=recently'
p1849
aS'w-1=relatively'
p1850
aS'w-1=repeatedly'
p1851
aS'w-1=result'
p1852
aS'w-1=say'
p1853
aS'w-1=scientist'
p1854
aS'w-1=secretary'
p1855
aS'w-1=seldom'
p1856
aS'w-1=seller'
p1857
aS'w-1=senator'
p1858
aS'w-1=servant'
p1859
aS'w-1=she'
p1860
aS'w-1=sheikhly'
p1861
aS'w-1=should'
p1862
aS'w-1=so'
p1863
aS'w-1=some'
p1864
aS'w-1=somebody'
p1865
aS'w-1=song'
p1866
aS'w-1=species'
p1867
aS'w-1=staff'
p1868
aS'w-1=start'
p1869
aS'w-1=state'
p1870
aS'w-1=still'
p1871
aS'w-1=strictly'
p1872
aS'w-1=strongly'
p1873
aS'w-1=subsequently'
p1874
aS'w-1=that'
p1875
aS'w-1=the'
p1876
aS'w-1=then'
p1877
aS'w-1=they'
p1878
aS'w-1=think'
p1879
aS'w-1=those'
p1880
aS'w-1=time'
p1881
aS'w-1=to'
p1882
aS'w-1=two'
p1883
aS'w-1=up'
p1884
aS'w-1=usually'
p1885
aS'w-1=vein'
p1886
aS'w-1=victim'
p1887
aS'w-1=virtually'
p1888
aS'w-1=we'
p1889
aS'w-1=week'
p1890
aS'w-1=while'
p1891
aS'w-1=who'
p1892
aS'w-1=widely'
p1893
aS'w-1=will'
p1894
aS'w-1=with'
p1895
aS'w-1=woman'
p1896
aS'w-1=would'
p1897
aS'w-1=you'
p1898
aS'w-1=youth'
p1899
aS"w-2='"
p1900
aS"w-2=''"
p1901
aS"w-2='s"
p1902
aS'w-2=,'
p1903
aS'w-2=-'
p1904
aS'w-2=-rrb-'
p1905
aS'w-2=.'
p1906
aS'w-2=100,000'
p1907
aS'w-2=12'
p1908
aS'w-2=1880'
p1909
aS'w-2=1974'
p1910
aS'w-2=20'
p1911
aS'w-2=2005'
p1912
aS'w-2=2008'
p1913
aS'w-2=250,000'
p1914
aS'w-2=3,000'
p1915
aS'w-2=30'
p1916
aS'w-2=70'
p1917
aS'w-2=:'
p1918
aS'w-2=Ababa'
p1919
aS'w-2=Abbas'
p1920
aS'w-2=Abd'
p1921
aS'w-2=Abdirahman'
p1922
aS'w-2=Afghanistan'
p1923
aS'w-2=Africa'
p1924
aS'w-2=Ahmadinejad'
p1925
aS'w-2=Ahmedinejad'
p1926
aS'w-2=Alan'
p1927
aS'w-2=Alassane'
p1928
aS'w-2=Alpha'
p1929
aS'w-2=Amado'
p1930
aS'w-2=America'
p1931
aS'w-2=Andrei'
p1932
aS'w-2=Apparthurai'
p1933
aS'w-2=Arabic'
p1934
aS'w-2=Armando'
p1935
aS'w-2=Arshad'
p1936
aS'w-2=Ashkenazi'
p1937
aS'w-2=Atalay'
p1938
aS'w-2=Azerbaijan'
p1939
aS'w-2=Baghdad'
p1940
aS'w-2=Bambang'
p1941
aS'w-2=Bank'
p1942
aS'w-2=Barack'
p1943
aS'w-2=Barbara'
p1944
aS'w-2=Biyela'
p1945
aS'w-2=Blair'
p1946
aS'w-2=Blatt'
p1947
aS'w-2=Brazil'
p1948
aS'w-2=Brian'
p1949
aS'w-2=Britain'
p1950
aS'w-2=Bryan'
p1951
aS'w-2=Bryza'
p1952
aS'w-2=Bush'
p1953
aS'w-2=Castro'
p1954
aS'w-2=Catherine'
p1955
aS'w-2=Cavaney'
p1956
aS'w-2=Center'
p1957
aS'w-2=Chalise'
p1958
aS'w-2=Chan'
p1959
aS'w-2=Changwen'
p1960
aS'w-2=Cho'
p1961
aS'w-2=Choi'
p1962
aS'w-2=Chris'
p1963
aS'w-2=Churkin'
p1964
aS'w-2=Clark'
p1965
aS'w-2=Coast'
p1966
aS'w-2=Cohen'
p1967
aS'w-2=Coleman'
p1968
aS'w-2=Commissioner'
p1969
aS'w-2=Congress'
p1970
aS'w-2=Congressman'
p1971
aS'w-2=Corps'
p1972
aS'w-2=Crocker'
p1973
aS'w-2=Cuba'
p1974
aS'w-2=Cyprus'
p1975
aS'w-2=Dadfar'
p1976
aS'w-2=Dakar'
p1977
aS'w-2=Daniel'
p1978
aS'w-2=Darfur'
p1979
aS'w-2=David'
p1980
aS'w-2=December'
p1981
aS'w-2=Dillin'
p1982
aS'w-2=Dodd'
p1983
aS'w-2=Duck-soo'
p1984
aS'w-2=Dustin'
p1985
aS'w-2=Dutch'
p1986
aS'w-2=East'
p1987
aS'w-2=Efam'
p1988
aS'w-2=Eliasson'
p1989
aS'w-2=Elie'
p1990
aS'w-2=Emile'
p1991
aS'w-2=Emmanuel'
p1992
aS'w-2=Erdogan'
p1993
aS'w-2=Erekat'
p1994
aS'w-2=Europe'
p1995
aS'w-2=Family'
p1996
aS'w-2=Fitzgerald'
p1997
aS'w-2=Foundation'
p1998
aS'w-2=French'
p1999
aS'w-2=Friday'
p2000
aS'w-2=Gadio'
p2001
aS'w-2=Gandhi'
p2002
aS'w-2=Gates'
p2003
aS'w-2=Gaza'
p2004
aS'w-2=Gbagbo'
p2005
aS'w-2=General'
p2006
aS'w-2=Gerry'
p2007
aS'w-2=Gilmore'
p2008
aS'w-2=Giuliani'
p2009
aS'w-2=Goma'
p2010
aS'w-2=Gomis'
p2011
aS'w-2=Hamas'
p2012
aS'w-2=Henry'
p2013
aS'w-2=Hertling'
p2014
aS'w-2=Hezbollah'
p2015
aS'w-2=Hill'
p2016
aS'w-2=Hillary'
p2017
aS'w-2=Hope'
p2018
aS'w-2=House'
p2019
aS'w-2=Huckabee'
p2020
aS'w-2=I'
p2021
aS'w-2=II'
p2022
aS'w-2=India'
p2023
aS'w-2=Intelligence'
p2024
aS'w-2=Iowa'
p2025
aS'w-2=Iran'
p2026
aS'w-2=Iraq'
p2027
aS'w-2=Israel'
p2028
aS'w-2=Israelis'
p2029
aS'w-2=Jack'
p2030
aS'w-2=Jallow'
p2031
aS'w-2=Janice'
p2032
aS'w-2=January'
p2033
aS'w-2=Javier'
p2034
aS'w-2=Jeff'
p2035
aS'w-2=Jerusalem'
p2036
aS'w-2=Jim'
p2037
aS'w-2=John'
p2038
aS'w-2=Johnson'
p2039
aS'w-2=Jones'
p2040
aS'w-2=Kabul'
p2041
aS'w-2=Kagame'
p2042
aS'w-2=Kaka'
p2043
aS'w-2=Kari'
p2044
aS'w-2=Kevin'
p2045
aS'w-2=Khaled'
p2046
aS'w-2=Khartoum'
p2047
aS'w-2=Killic'
p2048
aS'w-2=Kim'
p2049
aS'w-2=Kofi'
p2050
aS'w-2=Konare'
p2051
aS'w-2=Konstantin'
p2052
aS'w-2=Kosovo'
p2053
aS'w-2=Kufuor'
p2054
aS'w-2=Lauren'
p2055
aS'w-2=Leavitt'
p2056
aS'w-2=Lebanon'
p2057
aS'w-2=Levin'
p2058
aS'w-2=Libya'
p2059
aS'w-2=Lieutenant'
p2060
aS'w-2=Liu'
p2061
aS'w-2=London'
p2062
aS'w-2=Louisiana'
p2063
aS'w-2=Lugar'
p2064
aS'w-2=Lula'
p2065
aS'w-2=Machimura'
p2066
aS'w-2=Mahmoud'
p2067
aS'w-2=Manmohan'
p2068
aS'w-2=March'
p2069
aS'w-2=Marie'
p2070
aS'w-2=Matlin'
p2071
aS'w-2=Maurice'
p2072
aS'w-2=McClellan'
p2073
aS'w-2=McKinnon'
p2074
aS'w-2=Melia'
p2075
aS'w-2=Merkel'
p2076
aS'w-2=Mike'
p2077
aS'w-2=Mil'
p2078
aS'w-2=Miliband'
p2079
aS'w-2=Military'
p2080
aS'w-2=Milliband'
p2081
aS'w-2=Minister'
p2082
aS'w-2=Minster'
p2083
aS'w-2=Misedah'
p2084
aS'w-2=Missouri'
p2085
aS'w-2=Mituli'
p2086
aS'w-2=Mona'
p2087
aS'w-2=Motlanthe'
p2088
aS'w-2=Mr.'
p2089
aS'w-2=Mrs.'
p2090
aS'w-2=Ms.'
p2091
aS'w-2=Mubarak'
p2092
aS'w-2=Mugabe'
p2093
aS'w-2=Muhammadmian'
p2094
aS'w-2=Mulally'
p2095
aS'w-2=Museum'
p2096
aS'w-2=Museveni'
p2097
aS'w-2=Musharraf'
p2098
aS'w-2=Mutharika'
p2099
aS'w-2=Nakagawa'
p2100
aS'w-2=Nancy'
p2101
aS'w-2=Nations'
p2102
aS'w-2=Nevada'
p2103
aS'w-2=Nguebla'
p2104
aS'w-2=Nicholas'
p2105
aS'w-2=Nicholson'
p2106
aS'w-2=Nilanjana'
p2107
aS'w-2=North'
p2108
aS'w-2=Nugent'
p2109
aS'w-2=Nuzman'
p2110
aS'w-2=Obama'
p2111
aS'w-2=Odinga'
p2112
aS'w-2=Odunze'
p2113
aS'w-2=Olmert'
p2114
aS'w-2=Omar'
p2115
aS'w-2=Organization'
p2116
aS'w-2=Orszag'
p2117
aS'w-2=PKK'
p2118
aS'w-2=Pace'
p2119
aS'w-2=Pakistan'
p2120
aS'w-2=Palestinians'
p2121
aS'w-2=Paul'
p2122
aS'w-2=Paulson'
p2123
aS'w-2=Petraeus'
p2124
aS'w-2=Phillip'
p2125
aS'w-2=Phuong'
p2126
aS'w-2=Pitsuwan'
p2127
aS'w-2=Poland'
p2128
aS'w-2=President'
p2129
aS'w-2=Priorities'
p2130
aS'w-2=Prodi'
p2131
aS'w-2=Promotion'
p2132
aS'w-2=Province'
p2133
aS'w-2=Putin'
p2134
aS'w-2=Rafaael'
p2135
aS'w-2=Rahm'
p2136
aS'w-2=Raje'
p2137
aS'w-2=Ramos'
p2138
aS'w-2=Reconstruction'
p2139
aS'w-2=Reid'
p2140
aS'w-2=Republican'
p2141
aS'w-2=Republicans'
p2142
aS'w-2=Riad'
p2143
aS'w-2=Rice'
p2144
aS'w-2=Rudd'
p2145
aS'w-2=Russia'
p2146
aS'w-2=Ryan'
p2147
aS'w-2=Saakashvili'
p2148
aS'w-2=Sabina'
p2149
aS'w-2=Sabri'
p2150
aS'w-2=Sanchez'
p2151
aS'w-2=Sani'
p2152
aS'w-2=Sarkozy'
p2153
aS'w-2=Scheffer'
p2154
aS'w-2=Scott'
p2155
aS'w-2=Secretary'
p2156
aS'w-2=Secretary-General'
p2157
aS'w-2=Securitate'
p2158
aS'w-2=Senate'
p2159
aS'w-2=Senator'
p2160
aS'w-2=Shujat'
p2161
aS'w-2=Singh'
p2162
aS'w-2=South'
p2163
aS'w-2=Speckhard'
p2164
aS'w-2=States'
p2165
aS'w-2=Steve'
p2166
aS'w-2=Stoltenberg'
p2167
aS'w-2=Strip'
p2168
aS'w-2=Sudan'
p2169
aS'w-2=Surayud'
p2170
aS'w-2=Suzanne'
p2171
aS'w-2=Tayeb'
p2172
aS'w-2=Tendai'
p2173
aS'w-2=Thompson'
p2174
aS'w-2=Tomas'
p2175
aS'w-2=Trent'
p2176
aS'w-2=Tuesday'
p2177
aS'w-2=U.S.'
p2178
aS'w-2=University'
p2179
aS'w-2=Uribe'
p2180
aS'w-2=VI'
p2181
aS'w-2=Valon'
p2182
aS'w-2=Veale'
p2183
aS'w-2=Walters'
p2184
aS'w-2=Warner'
p2185
aS'w-2=Washington'
p2186
aS'w-2=West'
p2187
aS'w-2=Wilson'
p2188
aS'w-2=Wisconsin'
p2189
aS'w-2=Wolfowitz'
p2190
aS'w-2=Wright'
p2191
aS'w-2=Zulima'
p2192
aS'w-2=Zwai'
p2193
aS'w-2=a'
p2194
aS'w-2=ability'
p2195
aS'w-2=able'
p2196
aS'w-2=abroad'
p2197
aS'w-2=accept'
p2198
aS'w-2=act'
p2199
aS'w-2=action'
p2200
aS'w-2=ad'
p2201
aS'w-2=administration'
p2202
aS'w-2=afraid'
p2203
aS'w-2=african'
p2204
aS'w-2=after'
p2205
aS'w-2=agenda'
p2206
aS'w-2=ago'
p2207
aS'w-2=agree'
p2208
aS'w-2=agreement'
p2209
aS'w-2=aid'
p2210
aS'w-2=alliance'
p2211
aS'w-2=allow'
p2212
aS'w-2=american'
p2213
aS'w-2=among'
p2214
aS'w-2=and'
p2215
aS'w-2=announcement'
p2216
aS'w-2=answer'
p2217
aS'w-2=anymore'
p2218
aS'w-2=anyone'
p2219
aS'w-2=arabic-language'
p2220
aS'w-2=area'
p2221
aS'w-2=arm'
p2222
aS'w-2=arrest'
p2223
aS'w-2=arrival'
p2224
aS'w-2=as'
p2225
aS'w-2=ashamed'
p2226
aS'w-2=asset'
p2227
aS'w-2=assistance'
p2228
aS'w-2=attack'
p2229
aS'w-2=attempt'
p2230
aS'w-2=attorney'
p2231
aS'w-2=audience'
p2232
aS'w-2=authority'
p2233
aS'w-2=authorize'
p2234
aS'w-2=avail'
p2235
aS'w-2=available'
p2236
aS'w-2=ban'
p2237
aS'w-2=base'
p2238
aS'w-2=be'
p2239
aS'w-2=because'
p2240
aS'w-2=before'
p2241
aS'w-2=better'
p2242
aS'w-2=billboard'
p2243
aS'w-2=billionaire'
p2244
aS'w-2=blast'
p2245
aS'w-2=blockade'
p2246
aS'w-2=blog'
p2247
aS'w-2=blunt'
p2248
aS'w-2=board'
p2249
aS'w-2=book'
p2250
aS'w-2=border'
p2251
aS'w-2=both'
p2252
aS'w-2=boycott'
p2253
aS'w-2=british'
p2254
aS'w-2=building'
p2255
aS'w-2=bus'
p2256
aS'w-2=but'
p2257
aS'w-2=call'
p2258
aS'w-2=calm'
p2259
aS'w-2=camera'
p2260
aS'w-2=can'
p2261
aS'w-2=candidate'
p2262
aS'w-2=capacity'
p2263
aS'w-2=capital'
p2264
aS'w-2=card'
p2265
aS'w-2=carefully'
p2266
aS'w-2=case'
p2267
aS'w-2=cattle'
p2268
aS'w-2=cause'
p2269
aS'w-2=cave'
p2270
aS'w-2=cell'
p2271
aS'w-2=chance'
p2272
aS'w-2=change'
p2273
aS'w-2=charade'
p2274
aS'w-2=check'
p2275
aS'w-2=chief'
p2276
aS'w-2=child'
p2277
aS'w-2=church'
p2278
aS'w-2=citizen'
p2279
aS'w-2=citizenship'
p2280
aS'w-2=civilian'
p2281
aS'w-2=claim'
p2282
aS'w-2=close'
p2283
aS'w-2=colleague'
p2284
aS'w-2=colonialism'
p2285
aS'w-2=come'
p2286
aS'w-2=community'
p2287
aS'w-2=company'
p2288
aS'w-2=compel'
p2289
aS'w-2=compromise'
p2290
aS'w-2=concern'
p2291
aS'w-2=concert'
p2292
aS'w-2=confidence'
p2293
aS'w-2=conflict'
p2294
aS'w-2=congress'
p2295
aS'w-2=consequence'
p2296
aS'w-2=constitution'
p2297
aS'w-2=contender'
p2298
aS'w-2=continue'
p2299
aS'w-2=control'
p2300
aS'w-2=corn'
p2301
aS'w-2=could'
p2302
aS'w-2=count'
p2303
aS'w-2=country'
p2304
aS'w-2=coup'
p2305
aS'w-2=cousin'
p2306
aS'w-2=craft'
p2307
aS'w-2=crisis'
p2308
aS'w-2=critic'
p2309
aS'w-2=critical'
p2310
aS'w-2=day'
p2311
aS'w-2=deal'
p2312
aS'w-2=decade'
p2313
aS'w-2=decide'
p2314
aS'w-2=decision'
p2315
aS'w-2=decline'
p2316
aS'w-2=defendant'
p2317
aS'w-2=defense'
p2318
aS'w-2=degradation'
p2319
aS'w-2=delegation'
p2320
aS'w-2=desk'
p2321
aS'w-2=destruction'
p2322
aS'w-2=detention'
p2323
aS'w-2=die'
p2324
aS'w-2=difference'
p2325
aS'w-2=diplomat'
p2326
aS'w-2=direction'
p2327
aS'w-2=discrimination'
p2328
aS'w-2=disease'
p2329
aS'w-2=disguise'
p2330
aS'w-2=diverse'
p2331
aS'w-2=division'
p2332
aS'w-2=do'
p2333
aS'w-2=down'
p2334
aS'w-2=due'
p2335
aS'w-2=duty'
p2336
aS'w-2=each'
p2337
aS'w-2=earlier'
p2338
aS'w-2=easy'
p2339
aS'w-2=economy'
p2340
aS'w-2=effort'
p2341
aS'w-2=election'
p2342
aS'w-2=electorate'
p2343
aS'w-2=elocute'
p2344
aS'w-2=eloquently'
p2345
aS'w-2=else'
p2346
aS'w-2=elsewhere'
p2347
aS'w-2=emergency'
p2348
aS'w-2=employment'
p2349
aS'w-2=end'
p2350
aS'w-2=enemy'
p2351
aS'w-2=enough'
p2352
aS'w-2=ensemble'
p2353
aS'w-2=establish'
p2354
aS'w-2=evening'
p2355
aS'w-2=evidence'
p2356
aS'w-2=exist'
p2357
aS'w-2=expect'
p2358
aS'w-2=export'
p2359
aS'w-2=extremism'
p2360
aS'w-2=fail'
p2361
aS'w-2=failure'
p2362
aS'w-2=family'
p2363
aS'w-2=far'
p2364
aS'w-2=farce'
p2365
aS'w-2=fatah'
p2366
aS'w-2=fate'
p2367
aS'w-2=father'
p2368
aS'w-2=fear'
p2369
aS'w-2=few'
p2370
aS'w-2=first'
p2371
aS'w-2=flame'
p2372
aS'w-2=food'
p2373
aS'w-2=for'
p2374
aS'w-2=force'
p2375
aS'w-2=foreign'
p2376
aS'w-2=forget'
p2377
aS'w-2=former'
p2378
aS'w-2=forward'
p2379
aS'w-2=free'
p2380
aS'w-2=french'
p2381
aS'w-2=frequently'
p2382
aS'w-2=from'
p2383
aS'w-2=frontrunner'
p2384
aS'w-2=future'
p2385
aS'w-2=general'
p2386
aS'w-2=german'
p2387
aS'w-2=go'
p2388
aS'w-2=goal'
p2389
aS'w-2=government'
p2390
aS'w-2=governor'
p2391
aS'w-2=graduate'
p2392
aS'w-2=ground'
p2393
aS'w-2=group'
p2394
aS'w-2=grow'
p2395
aS'w-2=gun'
p2396
aS'w-2=haggard'
p2397
aS'w-2=halt'
p2398
aS'w-2=hand'
p2399
aS'w-2=hard'
p2400
aS'w-2=have'
p2401
aS'w-2=he'
p2402
aS'w-2=healthier'
p2403
aS'w-2=hear'
p2404
aS'w-2=help'
p2405
aS'w-2=here'
p2406
aS'w-2=hertle'
p2407
aS'w-2=himself'
p2408
aS'w-2=history'
p2409
aS'w-2=home'
p2410
aS'w-2=honor'
p2411
aS'w-2=honorable'
p2412
aS'w-2=hope'
p2413
aS'w-2=hostage'
p2414
aS'w-2=house'
p2415
aS'w-2=how'
p2416
aS'w-2=however'
p2417
aS'w-2=if'
p2418
aS'w-2=imam'
p2419
aS'w-2=immigrant'
p2420
aS'w-2=imperative'
p2421
aS'w-2=important'
p2422
aS'w-2=impossible'
p2423
aS'w-2=improve'
p2424
aS'w-2=in'
p2425
aS'w-2=indian'
p2426
aS'w-2=industry'
p2427
aS'w-2=initiative'
p2428
aS'w-2=instability'
p2429
aS'w-2=institution'
p2430
aS'w-2=intend'
p2431
aS'w-2=intention'
p2432
aS'w-2=interest'
p2433
aS'w-2=interfaith'
p2434
aS'w-2=internet'
p2435
aS'w-2=interpreter'
p2436
aS'w-2=intimidation'
p2437
aS'w-2=invitation'
p2438
aS'w-2=invite'
p2439
aS'w-2=iranian'
p2440
aS'w-2=issue'
p2441
aS'w-2=it'
p2442
aS'w-2=italian'
p2443
aS'w-2=itself'
p2444
aS'w-2=jacket'
p2445
aS'w-2=jam'
p2446
aS'w-2=journalist'
p2447
aS'w-2=juncture'
p2448
aS'w-2=juror'
p2449
aS'w-2=just'
p2450
aS'w-2=know'
p2451
aS'w-2=korean'
p2452
aS'w-2=lady'
p2453
aS'w-2=landscape'
p2454
aS'w-2=language'
p2455
aS'w-2=last'
p2456
aS'w-2=later'
p2457
aS'w-2=latest'
p2458
aS'w-2=laundry'
p2459
aS'w-2=law'
p2460
aS'w-2=lawful'
p2461
aS'w-2=lawmaker'
p2462
aS'w-2=leader'
p2463
aS'w-2=leadership'
p2464
aS'w-2=learn'
p2465
aS'w-2=legislation'
p2466
aS'w-2=let'
p2467
aS'w-2=life'
p2468
aS'w-2=line'
p2469
aS'w-2=longer'
p2470
aS'w-2=loud'
p2471
aS'w-2=love'
p2472
aS'w-2=lt'
p2473
aS'w-2=maintain'
p2474
aS'w-2=make'
p2475
aS'w-2=man'
p2476
aS'w-2=manage'
p2477
aS'w-2=market'
p2478
aS'w-2=marvel'
p2479
aS'w-2=matter'
p2480
aS'w-2=maya'
p2481
aS'w-2=mayor'
p2482
aS'w-2=means'
p2483
aS'w-2=measure'
p2484
aS'w-2=media'
p2485
aS'w-2=meet'
p2486
aS'w-2=meeting'
p2487
aS'w-2=member'
p2488
aS'w-2=merely'
p2489
aS'w-2=message'
p2490
aS'w-2=mid-September'
p2491
aS'w-2=militancy'
p2492
aS'w-2=militant'
p2493
aS'w-2=military'
p2494
aS'w-2=million'
p2495
aS'w-2=mind'
p2496
aS'w-2=minister'
p2497
aS'w-2=mission'
p2498
aS'w-2=monarch'
p2499
aS'w-2=month'
p2500
aS'w-2=more'
p2501
aS'w-2=most'
p2502
aS'w-2=mother'
p2503
aS'w-2=muslim'
p2504
aS'w-2=mystery'
p2505
aS'w-2=nation'
p2506
aS'w-2=necessary'
p2507
aS'w-2=need'
p2508
aS'w-2=negotiation'
p2509
aS'w-2=neighborhood'
p2510
aS'w-2=neither'
p2511
aS'w-2=night'
p2512
aS'w-2=no'
p2513
aS'w-2=nobody'
p2514
aS'w-2=nonetheless'
p2515
aS'w-2=north'
p2516
aS'w-2=not'
p2517
aS'w-2=note'
p2518
aS'w-2=now'
p2519
aS'w-2=obligation'
p2520
aS'w-2=observer'
p2521
aS'w-2=of'
p2522
aS'w-2=offer'
p2523
aS'w-2=officer'
p2524
aS'w-2=official'
p2525
aS'w-2=oil'
p2526
aS'w-2=on'
p2527
aS'w-2=once'
p2528
aS'w-2=one'
p2529
aS'w-2=only'
p2530
aS'w-2=opponent'
p2531
aS'w-2=opportunity'
p2532
aS'w-2=oppression'
p2533
aS'w-2=or'
p2534
aS'w-2=orator'
p2535
aS'w-2=order'
p2536
aS'w-2=organization'
p2537
aS'w-2=out'
p2538
aS'w-2=over'
p2539
aS'w-2=overestimate'
p2540
aS'w-2=own'
p2541
aS'w-2=palestinian'
p2542
aS'w-2=paralyzed'
p2543
aS'w-2=parliament'
p2544
aS'w-2=partnership'
p2545
aS'w-2=party'
p2546
aS'w-2=peace'
p2547
aS'w-2=pension'
p2548
aS'w-2=people'
p2549
aS'w-2=performance'
p2550
aS'w-2=personally'
p2551
aS'w-2=pilot'
p2552
aS'w-2=place'
p2553
aS'w-2=plan'
p2554
aS'w-2=plant'
p2555
aS'w-2=platform'
p2556
aS'w-2=plight'
p2557
aS'w-2=plug'
p2558
aS'w-2=policy'
p2559
aS'w-2=politician'
p2560
aS'w-2=politics'
p2561
aS'w-2=pond'
p2562
aS'w-2=population'
p2563
aS'w-2=position'
p2564
aS'w-2=possible'
p2565
aS'w-2=power'
p2566
aS'w-2=prayer'
p2567
aS'w-2=preacher'
p2568
aS'w-2=prepare'
p2569
aS'w-2=presence'
p2570
aS'w-2=present'
p2571
aS'w-2=president'
p2572
aS'w-2=press'
p2573
aS'w-2=presume'
p2574
aS'w-2=price'
p2575
aS'w-2=prime'
p2576
aS'w-2=priority'
p2577
aS'w-2=prison'
p2578
aS'w-2=probe'
p2579
aS'w-2=problem'
p2580
aS'w-2=procedure'
p2581
aS'w-2=process'
p2582
aS'w-2=producer'
p2583
aS'w-2=product'
p2584
aS'w-2=program'
p2585
aS'w-2=progress'
p2586
aS'w-2=promise'
p2587
aS'w-2=protocol'
p2588
aS'w-2=provide'
p2589
aS'w-2=public'
p2590
aS'w-2=purpose'
p2591
aS'w-2=question'
p2592
aS'w-2=quit'
p2593
aS'w-2=race'
p2594
aS'w-2=rate'
p2595
aS'w-2=re-election'
p2596
aS'w-2=reach'
p2597
aS'w-2=ready'
p2598
aS'w-2=reason'
p2599
aS'w-2=rebel'
p2600
aS'w-2=reform'
p2601
aS'w-2=refuge'
p2602
aS'w-2=refuse'
p2603
aS'w-2=region'
p2604
aS'w-2=reinforcement'
p2605
aS'w-2=release'
p2606
aS'w-2=remain'
p2607
aS'w-2=remark'
p2608
aS'w-2=report'
p2609
aS'w-2=reporter'
p2610
aS'w-2=republic'
p2611
aS'w-2=require'
p2612
aS'w-2=resident'
p2613
aS'w-2=responsibility'
p2614
aS'w-2=restore'
p2615
aS'w-2=result'
p2616
aS'w-2=reticent'
p2617
aS'w-2=return'
p2618
aS'w-2=right'
p2619
aS'w-2=rights'
p2620
aS'w-2=rise'
p2621
aS'w-2=road'
p2622
aS'w-2=sailor'
p2623
aS'w-2=same'
p2624
aS'w-2=say'
p2625
aS'w-2=scared'
p2626
aS'w-2=schedule'
p2627
aS'w-2=seafood'
p2628
aS'w-2=sector'
p2629
aS'w-2=see'
p2630
aS'w-2=serb'
p2631
aS'w-2=service'
p2632
aS'w-2=set'
p2633
aS'w-2=setback'
p2634
aS'w-2=settlement'
p2635
aS'w-2=she'
p2636
aS'w-2=shipbuilding'
p2637
aS'w-2=significant'
p2638
aS'w-2=since'
p2639
aS'w-2=situation'
p2640
aS'w-2=slate'
p2641
aS'w-2=so'
p2642
aS'w-2=soldier'
p2643
aS'w-2=some'
p2644
aS'w-2=somebody'
p2645
aS'w-2=soon'
p2646
aS'w-2=speak'
p2647
aS'w-2=special'
p2648
aS'w-2=spokesman'
p2649
aS'w-2=stake'
p2650
aS'w-2=start'
p2651
aS'w-2=state'
p2652
aS'w-2=status'
p2653
aS'w-2=step'
p2654
aS'w-2=still'
p2655
aS'w-2=story'
p2656
aS'w-2=stronger'
p2657
aS'w-2=student'
p2658
aS'w-2=subside'
p2659
aS'w-2=such'
p2660
aS'w-2=suit'
p2661
aS'w-2=summit'
p2662
aS'w-2=support'
p2663
aS'w-2=supporter'
p2664
aS'w-2=surrogate'
p2665
aS'w-2=survey'
p2666
aS'w-2=system'
p2667
aS'w-2=takeover'
p2668
aS'w-2=tax'
p2669
aS'w-2=team'
p2670
aS'w-2=teenager'
p2671
aS'w-2=temptation'
p2672
aS'w-2=term'
p2673
aS'w-2=terrorism'
p2674
aS'w-2=terrorist'
p2675
aS'w-2=that'
p2676
aS'w-2=the'
p2677
aS'w-2=then'
p2678
aS'w-2=these'
p2679
aS'w-2=they'
p2680
aS'w-2=think'
p2681
aS'w-2=those'
p2682
aS'w-2=though'
p2683
aS'w-2=threat'
p2684
aS'w-2=three'
p2685
aS'w-2=time'
p2686
aS'w-2=to'
p2687
aS'w-2=toddler'
p2688
aS'w-2=too'
p2689
aS'w-2=torture'
p2690
aS'w-2=trade'
p2691
aS'w-2=trafficker'
p2692
aS'w-2=troops'
p2693
aS'w-2=try'
p2694
aS'w-2=tutsi'
p2695
aS'w-2=two'
p2696
aS'w-2=unable'
p2697
aS'w-2=under'
p2698
aS'w-2=undetected'
p2699
aS'w-2=union'
p2700
aS'w-2=up'
p2701
aS'w-2=use'
p2702
aS'w-2=venue'
p2703
aS'w-2=victim'
p2704
aS'w-2=village'
p2705
aS'w-2=violence'
p2706
aS'w-2=visit'
p2707
aS'w-2=voice'
p2708
aS'w-2=voter'
p2709
aS'w-2=wall'
p2710
aS'w-2=want'
p2711
aS'w-2=war'
p2712
aS'w-2=warming'
p2713
aS'w-2=wave'
p2714
aS'w-2=way'
p2715
aS'w-2=we'
p2716
aS'w-2=weapon'
p2717
aS'w-2=well'
p2718
aS'w-2=when'
p2719
aS'w-2=where'
p2720
aS'w-2=which'
p2721
aS'w-2=who'
p2722
aS'w-2=whom'
p2723
aS'w-2=why'
p2724
aS'w-2=wide'
p2725
aS'w-2=wife'
p2726
aS'w-2=will'
p2727
aS'w-2=willing'
p2728
aS'w-2=woman'
p2729
aS'w-2=word'
p2730
aS'w-2=work'
p2731
aS'w-2=worker'
p2732
aS'w-2=world'
p2733
aS'w-2=write'
p2734
aS'w-2=year'
p2735
aS'w-2=yet'
p2736
aS'w-2=you'
p2737
aS'w-2=young'
p2738
aS'xcomp=#PRP#'
p2739
aS'xcomp=achieve'
p2740
aS'xcomp=act'
p2741
aS'xcomp=add'
p2742
aS'xcomp=arabic'
p2743
aS'xcomp=boost'
p2744
aS'xcomp=break'
p2745
aS'xcomp=bring'
p2746
aS'xcomp=build'
p2747
aS'xcomp=condemn'
p2748
aS'xcomp=confirm'
p2749
aS'xcomp=consider'
p2750
aS'xcomp=deal'
p2751
aS'xcomp=defend'
p2752
aS'xcomp=demand'
p2753
aS'xcomp=deny'
p2754
aS'xcomp=do'
p2755
aS'xcomp=explain'
p2756
aS'xcomp=express'
p2757
aS'xcomp=face'
p2758
aS'xcomp=fear'
p2759
aS'xcomp=follow'
p2760
aS'xcomp=fundraise'
p2761
aS'xcomp=gain'
p2762
aS'xcomp=gender'
p2763
aS'xcomp=hear'
p2764
aS'xcomp=help'
p2765
aS'xcomp=increase'
p2766
aS'xcomp=interpreter'
p2767
aS'xcomp=join'
p2768
aS'xcomp=launch'
p2769
aS'xcomp=make'
p2770
aS'xcomp=mark'
p2771
aS'xcomp=meet'
p2772
aS'xcomp=mention'
p2773
aS'xcomp=note'
p2774
aS'xcomp=pass'
p2775
aS'xcomp=policemen'
p2776
aS'xcomp=prepare'
p2777
aS'xcomp=press'
p2778
aS'xcomp=promise'
p2779
aS'xcomp=promote'
p2780
aS'xcomp=protect'
p2781
aS'xcomp=put'
p2782
aS'xcomp=reach'
p2783
aS'xcomp=reaffirm'
p2784
aS'xcomp=recall'
p2785
aS'xcomp=recount'
p2786
aS'xcomp=require'
p2787
aS'xcomp=say'
p2788
aS'xcomp=stop'
p2789
aS'xcomp=study'
p2790
aS'xcomp=tell'
p2791
aS'xcomp=to'
p2792
aS'xcomp=upcome'
p2793
aS'xcomp=wear'
p2794
asS'dtype'
p2795
cnumpy
float64
p2796
sS'vocabulary_'
p2797
(dp2798
g115
I106
sg837
I828
sg1201
I1192
sg151
I142
sg1992
I1983
sg305
I296
sg924
I915
sg1247
I1238
sg1491
I1482
sg1739
I1730
sg598
I589
sg582
I573
sg81
I72
sg643
I634
sg1770
I1761
sg2000
I1991
sg1353
I1344
sg852
I843
sg487
I478
sg1489
I1480
sg1126
I1117
sg1291
I1282
sg2222
I2213
sg2523
I2514
sg33
I24
sg2459
I2450
sg1366
I1357
sg1826
I1817
sg563
I554
sg2574
I2565
sg1115
I1106
sg345
I336
sg2508
I2499
sg589
I580
sg2564
I2555
sg1204
I1195
sg2746
I2737
sg2559
I2550
sg822
I813
sg1300
I1291
sg2093
I2084
sg277
I268
sg1736
I1727
sg67
I58
sg1169
I1160
sg1628
I1619
sg1652
I1643
sg1280
I1271
sg1514
I1505
sg1591
I1582
sg2766
I2757
sg2743
I2734
sg1568
I1559
sg320
I311
sg687
I678
sg1462
I1453
sg474
I465
sg664
I655
sg2244
I2235
sg1235
I1226
sg1894
I1885
sg1324
I1315
sg2265
I2256
sg1970
I1961
sg536
I527
sg1436
I1427
sg1868
I1859
sg387
I378
sg1943
I1934
sg2214
I2205
sg588
I579
sg1697
I1688
sg585
I576
sg647
I638
sg1033
I1024
sg2686
I2677
sg2241
I2232
sg2720
I2711
sg226
I217
sg397
I388
sg762
I753
sg274
I265
sg2722
I2713
sg1845
I1836
sg1052
I1043
sg1417
I1408
sg1912
I1903
sg1053
I1044
sg214
I205
sg1895
I1886
sg2422
I2413
sg1380
I1371
sg1473
I1464
sg1864
I1855
sg2592
I2583
sg2582
I2573
sg1161
I1152
sg1924
I1915
sg249
I240
sg678
I669
sg2094
I2085
sg1316
I1307
sg1237
I1228
sg1607
I1598
sg289
I280
sg2470
I2461
sg233
I224
sg1781
I1772
sg2077
I2068
sg1548
I1539
sg2321
I2312
sg181
I172
sg1714
I1705
sg497
I488
sg2587
I2578
sg1898
I1889
sg1421
I1412
sg2197
I2188
sg31
I22
sg2609
I2600
sg2676
I2667
sg1085
I1076
sg2243
I2234
sg751
I742
sg1482
I1473
sg1584
I1575
sg1024
I1015
sg2622
I2613
sg2330
I2321
sg525
I516
sg25
I16
sg131
I122
sg1819
I1810
sg454
I445
sg1972
I1963
sg602
I593
sg1702
I1693
sg2279
I2270
sg1815
I1806
sg2463
I2454
sg928
I919
sg367
I358
sg1613
I1604
sg2724
I2715
sg2007
I1998
sg310
I301
sg1570
I1561
sg1593
I1584
sg2337
I2328
sg697
I688
sg38
I29
sg1069
I1060
sg2621
I2612
sg1632
I1623
sg513
I504
sg2536
I2527
sg2636
I2627
sg105
I96
sg1576
I1567
sg18
I9
sg453
I444
sg313
I304
sg2349
I2340
sg1164
I1155
sg760
I751
sg1862
I1853
sg646
I637
sg404
I395
sg972
I963
sg845
I836
sg2449
I2440
sg2775
I2766
sg2391
I2382
sg2790
I2781
sg136
I127
sg1715
I1706
sg1259
I1250
sg2578
I2569
sg1666
I1657
sg2188
I2179
sg173
I164
sg775
I766
sg275
I266
sg2087
I2078
sg701
I692
sg937
I928
sg2357
I2348
sg349
I340
sg2355
I2346
sg1120
I1111
sg2615
I2606
sg2143
I2134
sg1449
I1440
sg1210
I1201
sg1481
I1472
sg1710
I1701
sg642
I633
sg194
I185
sg2346
I2337
sg575
I566
sg2181
I2172
sg1385
I1376
sg2208
I2199
sg1339
I1330
sg1536
I1527
sg1080
I1071
sg607
I598
sg1695
I1686
sg2789
I2780
sg1957
I1948
sg236
I227
sg521
I512
sg911
I902
sg424
I415
sg862
I853
sg1269
I1260
sg2287
I2278
sg1190
I1181
sg903
I894
sg2251
I2242
sg1685
I1676
sg1095
I1086
sg2661
I2652
sg534
I525
sg998
I989
sg2037
I2028
sg993
I984
sg1881
I1872
sg1357
I1348
sg1882
I1873
sg1361
I1352
sg1795
I1786
sg1883
I1874
sg2466
I2457
sg391
I382
sg1728
I1719
sg2333
I2324
sg1442
I1433
sg362
I353
sg1308
I1299
sg1243
I1234
sg552
I543
sg2395
I2386
sg1173
I1164
sg702
I693
sg13
I4
sg1234
I1225
sg121
I112
sg1333
I1324
sg2177
I2168
sg1822
I1813
sg1537
I1528
sg1358
I1349
sg610
I601
sg125
I116
sg30
I21
sg2783
I2774
sg1025
I1016
sg2696
I2687
sg1256
I1247
sg1843
I1834
sg366
I357
sg1866
I1857
sg1920
I1911
sg1381
I1372
sg337
I328
sg86
I77
sg2146
I2137
sg2078
I2069
sg1962
I1953
sg1677
I1668
sg2542
I2533
sg1503
I1494
sg1089
I1080
sg350
I341
sg1375
I1366
sg1184
I1175
sg1643
I1634
sg685
I676
sg505
I496
sg1776
I1767
sg1511
I1502
sg2065
I2056
sg1651
I1642
sg1835
I1826
sg2788
I2779
sg2734
I2725
sg957
I948
sg2168
I2159
sg286
I277
sg2284
I2275
sg2336
I2327
sg1682
I1673
sg736
I727
sg982
I973
sg100
I91
sg1787
I1778
sg684
I675
sg1177
I1168
sg971
I962
sg2787
I2778
sg492
I483
sg1222
I1213
sg1975
I1966
sg235
I226
sg1603
I1594
sg818
I809
sg608
I599
sg2492
I2483
sg172
I163
sg234
I225
sg2253
I2244
sg1767
I1758
sg1335
I1326
sg2009
I2000
sg437
I428
sg417
I408
sg1048
I1039
sg1971
I1962
sg1306
I1297
sg1205
I1196
sg2034
I2025
sg2082
I2073
sg1683
I1674
sg2701
I2692
sg2682
I2673
sg2035
I2026
sg2431
I2422
sg17
I8
sg1182
I1173
sg566
I557
sg1476
I1467
sg2343
I2334
sg1455
I1446
sg318
I309
sg133
I124
sg1304
I1295
sg1830
I1821
sg1910
I1901
sg2316
I2307
sg1538
I1529
sg1579
I1570
sg644
I635
sg2322
I2313
sg738
I729
sg293
I284
sg2526
I2517
sg371
I362
sg1413
I1404
sg2046
I2037
sg542
I533
sg605
I596
sg1343
I1334
sg2382
I2373
sg2599
I2590
sg1384
I1375
sg278
I269
sg1265
I1256
sg1129
I1120
sg85
I76
sg2230
I2221
sg127
I118
sg37
I28
sg1158
I1149
sg2036
I2027
sg2281
I2272
sg1019
I1010
sg1884
I1875
sg2737
I2728
sg1827
I1818
sg188
I179
sg2738
I2729
sg2772
I2763
sg2155
I2146
sg2080
I2071
sg2548
I2539
sg495
I486
sg378
I369
sg2388
I2379
sg1935
I1926
sg2674
I2665
sg288
I279
sg2675
I2666
sg1029
I1020
sg334
I325
sg1340
I1331
sg878
I869
sg1861
I1852
sg1296
I1287
sg2672
I2663
sg1507
I1498
sg2211
I2202
sg2543
I2534
sg671
I662
sg1132
I1123
sg1456
I1447
sg778
I769
sg2472
I2463
sg1285
I1276
sg1295
I1286
sg771
I762
sg1466
I1457
sg840
I831
sg665
I656
sg1744
I1735
sg1068
I1059
sg2018
I2009
sg2495
I2486
sg2358
I2349
sg467
I458
sg2618
I2609
sg382
I373
sg978
I969
sg1934
I1925
sg1665
I1656
sg966
I957
sg167
I158
sg601
I592
sg353
I344
sg1947
I1938
sg515
I506
sg2685
I2676
sg2452
I2443
sg2221
I2212
sg912
I903
sg165
I156
sg211
I202
sg756
I747
sg2617
I2608
sg1105
I1096
sg1001
I992
sg2693
I2684
sg2369
I2360
sg1154
I1145
sg1534
I1525
sg2447
I2438
sg1698
I1689
sg448
I439
sg2079
I2070
sg896
I887
sg967
I958
sg1704
I1695
sg2418
I2409
sg769
I760
sg2425
I2416
sg881
I872
sg346
I337
sg699
I690
sg405
I396
sg1148
I1139
sg2442
I2433
sg35
I26
sg2362
I2353
sg444
I435
sg2133
I2124
sg1941
I1932
sg1722
I1713
sg2105
I2096
sg279
I270
sg2544
I2535
sg2365
I2356
sg1657
I1648
sg952
I943
sg1207
I1198
sg2172
I2163
sg261
I252
sg213
I204
sg705
I696
sg1691
I1682
sg1633
I1624
sg987
I978
sg2010
I2001
sg1988
I1979
sg2326
I2317
sg2271
I2262
sg108
I99
sg2329
I2320
sg195
I186
sg744
I735
sg2368
I2359
sg1079
I1070
sg2602
I2593
sg1737
I1728
sg1798
I1789
sg847
I838
sg2165
I2156
sg422
I413
sg2259
I2250
sg2258
I2249
sg2401
I2392
sg755
I746
sg1156
I1147
sg394
I385
sg2060
I2051
sg2033
I2024
sg2646
I2637
sg1251
I1242
sg1813
I1804
sg666
I657
sg1870
I1861
sg1636
I1627
sg2759
I2750
sg825
I816
sg656
I647
sg2644
I2635
sg2467
I2458
sg1873
I1864
sg1171
I1162
sg259
I250
sg1298
I1289
sg445
I436
sg1913
I1904
sg472
I463
sg974
I965
sg2414
I2405
sg473
I464
sg1387
I1378
sg564
I555
sg2692
I2683
sg961
I952
sg2117
I2108
sg2216
I2207
sg390
I381
sg1128
I1119
sg956
I947
sg554
I545
sg1221
I1212
sg804
I795
sg691
I682
sg2577
I2568
sg548
I539
sg2002
I1993
sg106
I97
sg2403
I2394
sg2334
I2325
sg2220
I2211
sg291
I282
sg604
I595
sg1647
I1638
sg2179
I2170
sg2376
I2367
sg1194
I1185
sg2698
I2689
sg1678
I1669
sg455
I446
sg587
I578
sg1785
I1776
sg280
I271
sg933
I924
sg217
I208
sg23
I14
sg1766
I1757
sg2175
I2166
sg2048
I2039
sg2224
I2215
sg2411
I2402
sg2501
I2492
sg258
I249
sg187
I178
sg2107
I2098
sg163
I154
sg45
I36
sg793
I784
sg1659
I1650
sg848
I839
sg342
I333
sg357
I348
sg2032
I2023
sg1312
I1303
sg2144
I2135
sg383
I374
sg1073
I1064
sg2489
I2480
sg773
I764
sg1307
I1298
sg2623
I2614
sg2379
I2370
sg875
I866
sg2687
I2678
sg2215
I2206
sg1609
I1600
sg2339
I2330
sg951
I942
sg1978
I1969
sg1650
I1641
sg2145
I2136
sg2684
I2675
sg2529
I2520
sg1274
I1265
sg1930
I1921
sg2402
I2393
sg148
I139
sg309
I300
sg339
I330
sg1915
I1906
sg2278
I2269
sg95
I86
sg1814
I1805
sg2530
I2521
sg749
I740
sg2784
I2775
sg1352
I1343
sg526
I517
sg1078
I1069
sg2611
I2602
sg292
I283
sg1109
I1100
sg1956
I1947
sg2518
I2509
sg1224
I1215
sg2250
I2241
sg1637
I1628
sg1338
I1329
sg2069
I2060
sg808
I799
sg831
I822
sg419
I410
sg203
I194
sg940
I931
sg2570
I2561
sg1877
I1868
sg53
I44
sg2352
I2343
sg1878
I1869
sg2765
I2756
sg2158
I2149
sg1314
I1305
sg1648
I1639
sg879
I870
sg1624
I1615
sg1555
I1546
sg1468
I1459
sg1063
I1054
sg2267
I2258
sg2213
I2204
sg960
I951
sg603
I594
sg2650
I2641
sg871
I862
sg499
I490
sg914
I905
sg2441
I2432
sg886
I877
sg1854
I1845
sg1899
I1890
sg1618
I1609
sg82
I73
sg887
I878
sg380
I371
sg1146
I1137
sg841
I832
sg1097
I1088
sg114
I105
sg2545
I2536
sg2404
I2395
sg2427
I2418
sg223
I214
sg1753
I1744
sg2005
I1996
sg661
I652
sg368
I359
sg1429
I1420
sg812
I803
sg1991
I1982
sg866
I857
sg540
I531
sg996
I987
sg435
I426
sg1701
I1692
sg1163
I1154
sg54
I45
sg1931
I1922
sg2714
I2705
sg1061
I1052
sg300
I291
sg1523
I1514
sg679
I670
sg1483
I1474
sg844
I835
sg1058
I1049
sg1768
I1759
sg2364
I2355
sg2671
I2662
sg48
I39
sg2261
I2252
sg2654
I2645
sg470
I461
sg2276
I2267
sg2255
I2246
sg1933
I1924
sg1147
I1138
sg2761
I2752
sg1583
I1574
sg861
I852
sg2132
I2123
sg268
I259
sg1825
I1816
sg1363
I1354
sg2147
I2138
sg1984
I1975
sg1281
I1272
sg2507
I2498
sg1299
I1290
sg2186
I2177
sg2169
I2160
sg182
I173
sg785
I776
sg1008
I999
sg225
I216
sg2716
I2707
sg1059
I1050
sg2084
I2075
sg1692
I1683
sg2031
I2022
sg659
I650
sg1155
I1146
sg238
I229
sg729
I720
sg446
I437
sg1743
I1734
sg713
I704
sg2610
I2601
sg1209
I1200
sg36
I27
sg1526
I1517
sg1431
I1422
sg323
I314
sg1528
I1519
sg1543
I1534
sg1341
I1332
sg788
I779
sg591
I582
sg1198
I1189
sg1279
I1270
sg325
I316
sg2161
I2152
sg1589
I1580
sg153
I144
sg2493
I2484
sg1572
I1563
sg1853
I1844
sg1084
I1075
sg731
I722
sg561
I552
sg725
I716
sg228
I219
sg1403
I1394
sg2496
I2487
sg175
I166
sg1437
I1428
sg142
I133
sg210
I201
sg1257
I1248
sg1074
I1065
sg365
I356
sg28
I19
sg1746
I1737
sg2785
I2776
sg1885
I1876
sg1859
I1850
sg2768
I2759
sg1686
I1677
sg522
I513
sg1347
I1338
sg636
I627
sg528
I519
sg1157
I1148
sg2677
I2668
sg1471
I1462
sg746
I737
sg63
I54
sg518
I509
sg784
I775
sg42
I33
sg1217
I1208
sg1036
I1027
sg190
I181
sg1011
I1002
sg962
I953
sg696
I687
sg1705
I1696
sg1218
I1209
sg712
I703
sg227
I218
sg828
I819
sg1332
I1323
sg2366
I2357
sg1998
I1989
sg1804
I1795
sg2159
I2150
sg2347
I2338
sg396
I387
sg1700
I1691
sg1112
I1103
sg1360
I1351
sg255
I246
sg1640
I1631
sg1370
I1361
sg2293
I2284
sg2568
I2559
sg1786
I1777
sg1494
I1485
sg180
I171
sg885
I876
sg198
I189
sg2028
I2019
sg2006
I1997
sg2641
I2632
sg111
I102
sg407
I398
sg1317
I1308
sg110
I101
sg1626
I1617
sg2740
I2731
sg39
I30
sg2657
I2648
sg750
I741
sg1007
I998
sg321
I312
sg2121
I2112
sg520
I511
sg1386
I1377
sg805
I796
sg66
I57
sg449
I440
sg2263
I2254
sg2588
I2579
sg1192
I1183
sg1016
I1007
sg1566
I1557
sg290
I281
sg2190
I2181
sg819
I810
sg2725
I2716
sg2794
I2785
sg917
I908
sg438
I429
sg1893
I1884
sg2709
I2700
sg409
I400
sg1521
I1512
sg2462
I2453
sg308
I299
sg1871
I1862
sg584
I575
sg1322
I1313
sg109
I100
sg1362
I1353
sg494
I485
sg179
I170
sg389
I380
sg2030
I2021
sg2013
I2004
sg1067
I1058
sg1336
I1327
sg452
I443
sg155
I146
sg823
I814
sg2125
I2116
sg2303
I2294
sg2697
I2688
sg777
I768
sg2573
I2564
sg597
I588
sg1532
I1523
sg2426
I2417
sg2300
I2291
sg1460
I1451
sg572
I563
sg1401
I1392
sg1639
I1630
sg593
I584
sg1493
I1484
sg1014
I1005
sg2273
I2264
sg2055
I2046
sg2072
I2063
sg1997
I1988
sg1724
I1715
sg184
I175
sg169
I160
sg630
I621
sg556
I547
sg2269
I2260
sg271
I262
sg2236
I2227
sg9
I0
sg1908
I1899
sg2758
I2749
sg2282
I2273
sg1427
I1418
sg1831
I1822
sg740
I731
sg1407
I1398
sg416
I407
sg1100
I1091
sg1039
I1030
sg1454
I1445
sg1851
I1842
sg997
I988
sg2656
I2647
sg930
I921
sg2095
I2086
sg1465
I1456
sg2586
I2577
sg2248
I2239
sg791
I782
sg2309
I2300
sg537
I528
sg61
I52
sg177
I168
sg882
I873
sg1183
I1174
sg2673
I2664
sg68
I59
sg1517
I1508
sg2138
I2129
sg2140
I2131
sg1099
I1090
sg1228
I1219
sg594
I585
sg2277
I2268
sg1667
I1658
sg1703
I1694
sg2227
I2218
sg1800
I1791
sg519
I510
sg89
I80
sg2782
I2773
sg1816
I1807
sg162
I153
sg2192
I2183
sg781
I772
sg2600
I2591
sg913
I904
sg1435
I1426
sg739
I730
sg1031
I1022
sg332
I323
sg2436
I2427
sg296
I287
sg2723
I2714
sg1075
I1066
sg869
I860
sg2003
I1994
sg306
I297
sg817
I808
sg855
I846
sg776
I767
sg1951
I1942
sg2196
I2187
sg215
I206
sg586
I577
sg1711
I1702
sg1989
I1980
sg2299
I2290
sg576
I567
sg1432
I1423
sg2054
I2045
sg1824
I1815
sg1062
I1053
sg2226
I2217
sg329
I320
sg1174
I1165
sg792
I783
sg107
I98
sg2174
I2165
sg1562
I1553
sg1495
I1486
sg1598
I1589
sg1149
I1140
sg164
I155
sg874
I865
sg2631
I2622
sg1653
I1644
sg2708
I2699
sg1545
I1536
sg1486
I1477
sg2479
I2470
sg1850
I1841
sg700
I691
sg1195
I1186
sg2612
I2603
sg270
I261
sg2234
I2225
sg2779
I2770
sg348
I339
sg1103
I1094
sg1334
I1325
sg1236
I1227
sg795
I786
sg2539
I2530
sg1349
I1340
sg667
I658
sg2504
I2495
sg1994
I1985
sg1472
I1463
sg1684
I1675
sg2127
I2118
sg20
I11
sg2301
I2292
sg1457
I1448
sg2218
I2209
sg2260
I2251
sg1142
I1133
sg1070
I1061
sg1740
I1731
sg2312
I2303
sg1088
I1079
sg1490
I1481
sg2235
I2226
sg359
I350
sg420
I411
sg800
I791
sg727
I718
sg1958
I1949
sg1351
I1342
sg1546
I1537
sg2443
I2434
sg1121
I1112
sg2212
I2203
sg686
I677
sg2049
I2040
sg403
I394
sg1995
I1986
sg1720
I1711
sg2205
I2196
sg1091
I1082
sg2752
I2743
sg768
I759
sg1215
I1206
sg868
I859
sg2649
I2640
sg810
I801
sg1244
I1235
sg752
I743
sg241
I232
sg113
I104
sg733
I724
sg1139
I1130
sg1030
I1021
sg482
I473
sg129
I120
sg850
I841
sg126
I117
sg595
I586
sg2433
I2424
sg1023
I1014
sg2371
I2362
sg1513
I1504
sg550
I541
sg1525
I1516
sg2170
I2161
sg2111
I2102
sg2613
I2604
sg876
I867
sg1321
I1312
sg2469
I2460
sg174
I165
sg2151
I2142
sg1373
I1364
sg2327
I2318
sg1415
I1406
sg2134
I2125
sg1551
I1542
sg2058
I2049
sg2050
I2041
sg1661
I1652
sg1406
I1397
sg1508
I1499
sg932
I923
sg1020
I1011
sg936
I927
sg1313
I1304
sg1803
I1794
sg562
I553
sg2325
I2316
sg231
I222
sg1707
I1698
sg2306
I2297
sg1571
I1562
sg2313
I2304
sg1006
I997
sg1840
I1831
sg183
I174
sg1959
I1950
sg400
I391
sg1045
I1036
sg1185
I1176
sg1430
I1421
sg74
I65
sg2157
I2148
sg2122
I2113
sg1394
I1385
sg1727
I1718
sg703
I694
sg1391
I1382
sg765
I756
sg743
I734
sg77
I68
sg246
I237
sg1372
I1363
sg2289
I2280
sg283
I274
sg2554
I2545
sg1694
I1685
sg1364
I1355
sg2338
I2329
sg341
I332
sg859
I850
sg2262
I2253
sg1760
I1751
sg2311
I2302
sg266
I257
sg1602
I1593
sg2777
I2768
sg706
I697
sg2688
I2679
sg1108
I1099
sg958
I949
sg2632
I2623
sg2360
I2351
sg489
I480
sg2110
I2101
sg918
I909
sg839
I830
sg29
I20
sg633
I624
sg877
I868
sg693
I684
sg704
I695
sg2042
I2033
sg1937
I1928
sg1096
I1087
sg1669
I1660
sg1530
I1521
sg284
I275
sg1966
I1957
sg354
I345
sg2187
I2178
sg2359
I2350
sg2400
I2391
sg782
I773
sg2294
I2285
sg1439
I1430
sg2067
I2058
sg1056
I1047
sg2291
I2282
sg1841
I1832
sg716
I707
sg2292
I2283
sg1641
I1632
sg732
I723
sg2193
I2184
sg1294
I1285
sg94
I85
sg1921
I1912
sg1945
I1936
sg2076
I2067
sg682
I673
sg330
I321
sg1026
I1017
sg2285
I2276
sg2792
I2783
sg1478
I1469
sg219
I210
sg369
I360
sg1484
I1475
sg803
I794
sg2062
I2053
sg774
I765
sg2044
I2035
sg1398
I1389
sg1649
I1640
sg1348
I1339
sg209
I200
sg1719
I1710
sg628
I619
sg381
I372
sg1446
I1437
sg807
I798
sg2770
I2761
sg73
I64
sg640
I631
sg1765
I1756
sg797
I788
sg2647
I2638
sg980
I971
sg1232
I1223
sg96
I87
sg2286
I2277
sg1255
I1246
sg1092
I1083
sg953
I944
sg1319
I1310
sg2141
I2132
sg2490
I2481
sg715
I706
sg298
I289
sg2560
I2551
sg723
I714
sg2774
I2765
sg2176
I2167
sg2726
I2717
sg1812
I1803
sg787
I778
sg2045
I2036
sg2245
I2236
sg1655
I1646
sg926
I917
sg616
I607
sg99
I90
sg612
I603
sg335
I326
sg364
I355
sg1043
I1034
sg361
I352
sg1355
I1346
sg2753
I2744
sg171
I162
sg2198
I2189
sg2348
I2339
sg352
I343
sg1458
I1449
sg2149
I2140
sg1716
I1707
sg905
I896
sg375
I366
sg2012
I2003
sg1124
I1115
sg892
I883
sg1892
I1883
sg1520
I1511
sg737
I728
sg2088
I2079
sg141
I132
sg1135
I1126
sg2302
I2293
sg2460
I2451
sg2106
I2097
sg1620
I1611
sg2757
I2748
sg1098
I1089
sg1869
I1860
sg1359
I1350
sg2397
I2388
sg2694
I2685
sg1842
I1833
sg1627
I1618
sg1808
I1799
sg1047
I1038
sg1844
I1835
sg1107
I1098
sg898
I889
sg2389
I2380
sg2372
I2363
sg1038
I1029
sg989
I980
sg2638
I2629
sg1916
I1907
sg2515
I2506
sg1903
I1894
sg1904
I1895
sg1906
I1897
sg538
I529
sg247
I238
sg80
I71
sg1181
I1172
sg1900
I1891
sg201
I192
sg600
I591
sg2645
I2636
sg2681
I2672
sg1180
I1171
sg1918
I1909
sg763
I754
sg523
I514
sg50
I41
sg2029
I2020
sg2148
I2139
sg2163
I2154
sg2021
I2012
sg1015
I1006
sg2114
I2105
sg101
I92
sg2729
I2720
sg1082
I1073
sg2315
I2306
sg2416
I2407
sg1245
I1236
sg1354
I1345
sg2668
I2659
sg2068
I2059
sg1166
I1157
sg1529
I1520
sg734
I725
sg11
I2
sg2571
I2562
sg2264
I2255
sg1485
I1476
sg2703
I2694
sg1445
I1436
sg1093
I1084
sg514
I505
sg1138
I1129
sg1441
I1432
sg2475
I2466
sg1805
I1796
sg1226
I1217
sg988
I979
sg2488
I2479
sg2195
I2186
sg1187
I1178
sg1996
I1987
sg469
I460
sg1820
I1811
sg2454
I2445
sg645
I636
sg806
I797
sg1730
I1721
sg2249
I2240
sg232
I223
sg1474
I1465
sg1923
I1914
sg2581
I2572
sg26
I17
sg224
I215
sg1865
I1856
sg1151
I1142
sg1199
I1190
sg833
I824
sg1434
I1425
sg442
I433
sg439
I430
sg984
I975
sg1573
I1564
sg1028
I1019
sg502
I493
sg2066
I2057
sg1790
I1781
sg1242
I1233
sg1837
I1828
sg1789
I1780
sg2008
I1999
sg901
I892
sg1499
I1490
sg1106
I1097
sg139
I130
sg2593
I2584
sg98
I89
sg2290
I2281
sg2767
I2758
sg551
I542
sg2473
I2464
sg577
I568
sg635
I626
sg2732
I2723
sg1202
I1193
sg947
I938
sg946
I937
sg950
I941
sg1220
I1211
sg355
I346
sg544
I535
sg1595
I1586
sg2660
I2651
sg676
I667
sg338
I329
sg1629
I1620
sg1426
I1417
sg1211
I1202
sg549
I540
sg884
I875
sg1560
I1551
sg485
I476
sg468
I459
sg2566
I2557
sg973
I964
sg1131
I1122
sg295
I286
sg2691
I2682
sg711
I702
sg1541
I1532
sg2240
I2231
sg1875
I1866
sg2274
I2265
sg2392
I2383
sg166
I157
sg1083
I1074
sg649
I640
sg981
I972
sg493
I484
sg824
I815
sg2202
I2193
sg2549
I2540
sg846
I837
sg2113
I2104
sg531
I522
sg757
I748
sg1944
I1935
sg135
I126
sg1311
I1302
sg560
I551
sg191
I182
sg143
I134
sg52
I43
sg753
I744
sg2754
I2745
sg2074
I2065
sg1565
I1556
sg2223
I2214
sg2238
I2229
sg97
I88
sg22
I13
sg1671
I1662
sg1125
I1116
sg2150
I2141
sg1009
I1000
sg2086
I2077
sg1564
I1555
sg1897
I1888
sg1907
I1898
sg1748
I1739
sg2547
I2538
sg1642
I1633
sg1725
I1716
sg2432
I2423
sg2742
I2733
sg1968
I1959
sg1055
I1046
sg2383
I2374
sg1094
I1085
sg1453
I1444
sg625
I616
sg1116
I1107
sg2417
I2408
sg2575
I2566
sg1225
I1216
sg1136
I1127
sg301
I292
sg2419
I2410
sg451
I442
sg2206
I2197
sg2363
I2354
sg1450
I1441
sg717
I708
sg1911
I1902
sg854
I845
sg254
I245
sg2503
I2494
sg1320
I1311
sg2482
I2473
sg938
I929
sg1512
I1503
sg1444
I1435
sg130
I121
sg410
I401
sg2314
I2305
sg669
I660
sg282
I273
sg532
I523
sg2478
I2469
sg2410
I2401
sg1741
I1732
sg1792
I1783
sg1668
I1659
sg1806
I1797
sg2331
I2322
sg944
I935
sg2319
I2310
sg1601
I1592
sg312
I303
sg230
I221
sg1203
I1194
sg1081
I1072
sg2298
I2289
sg2199
I2190
sg262
I253
sg1368
I1359
sg1848
I1839
sg2736
I2727
sg1738
I1729
sg1544
I1535
sg1689
I1680
sg1622
I1613
sg377
I368
sg1213
I1204
sg1050
I1041
sg2409
I2400
sg1051
I1042
sg620
I611
sg1240
I1231
sg137
I128
sg356
I347
sg2755
I2746
sg2374
I2365
sg2552
I2543
sg1086
I1077
sg2385
I2376
sg441
I432
sg902
I893
sg1189
I1180
sg1631
I1622
sg1606
I1597
sg1752
I1743
sg992
I983
sg1402
I1393
sg1674
I1665
sg1330
I1321
sg1605
I1596
sg1779
I1770
sg415
I406
sg2780
I2771
sg1690
I1681
sg1289
I1280
sg2705
I2696
sg1524
I1515
sg343
I334
sg801
I792
sg1497
I1488
sg476
I467
sg2487
I2478
sg567
I558
sg2516
I2507
sg2377
I2368
sg2634
I2625
sg728
I719
sg1783
I1774
sg2256
I2247
sg1708
I1699
sg963
I954
sg1718
I1709
sg176
I167
sg1580
I1571
sg1712
I1703
sg1645
I1636
sg1811
I1802
sg2390
I2381
sg2237
I2228
sg1961
I1952
sg2532
I2523
sg1681
I1672
sg62
I53
sg838
I829
sg2678
I2669
sg1809
I1800
sg670
I661
sg2664
I2655
sg58
I49
sg2412
I2403
sg722
I713
sg1876
I1867
sg124
I115
sg460
I451
sg681
I672
sg461
I452
sg488
I479
sg1414
I1405
sg2731
I2722
sg710
I701
sg2652
I2643
sg1178
I1169
sg2730
I2721
sg1305
I1296
sg599
I590
sg985
I976
sg2629
I2620
sg1949
I1940
sg708
I699
sg1847
I1838
sg16
I7
sg2639
I2630
sg1496
I1487
sg240
I231
sg1117
I1108
sg730
I721
sg779
I770
sg1969
I1960
sg490
I481
sg719
I710
sg2534
I2525
sg857
I848
sg1856
I1847
sg2522
I2513
sg2167
I2158
sg2527
I2518
sg1967
I1958
sg609
I600
sg611
I602
sg1395
I1386
sg2541
I2532
sg1600
I1591
sg2429
I2420
sg897
I888
sg486
I477
sg2569
I2560
sg459
I450
sg71
I62
sg2551
I2542
sg864
I855
sg2283
I2274
sg2203
I2194
sg1286
I1277
sg1549
I1540
sg2229
I2220
sg1283
I1274
sg1757
I1748
sg990
I981
sg991
I982
sg802
I793
sg512
I503
sg1693
I1684
sg2596
I2587
sg2308
I2299
sg327
I318
sg1672
I1663
sg1480
I1471
sg2444
I2435
sg867
I858
sg1328
I1319
sg1619
I1610
sg134
I125
sg2762
I2753
sg1774
I1765
sg2525
I2516
sg2579
I2570
sg2345
I2336
sg120
I111
sg816
I807
sg237
I228
sg2584
I2575
sg1002
I993
sg2051
I2042
sg1880
I1871
sg193
I184
sg653
I644
sg2620
I2611
sg2605
I2596
sg2751
I2742
sg2663
I2654
sg1064
I1055
sg2707
I2698
sg2474
I2465
sg431
I422
sg634
I625
sg655
I646
sg1268
I1259
sg2643
I2634
sg10
I1
sg2231
I2222
sg1948
I1939
sg688
I679
sg207
I198
sg1552
I1543
sg1673
I1664
sg2776
I2767
sg1253
I1244
sg2521
I2512
sg632
I623
sg2456
I2447
sg412
I403
sg269
I260
sg629
I620
sg1675
I1666
sg178
I169
sg1723
I1714
sg657
I648
sg2354
I2345
sg150
I141
sg2399
I2390
sg2387
I2378
sg2017
I2008
sg471
I462
sg1769
I1760
sg830
I821
sg1035
I1026
sg2567
I2558
sg2446
I2437
sg1867
I1858
sg1550
I1541
sg1239
I1230
sg1071
I1062
sg1367
I1358
sg384
I375
sg1721
I1712
sg939
I930
sg2553
I2544
sg2502
I2493
sg2204
I2195
sg2408
I2399
sg287
I278
sg1828
I1819
sg2120
I2111
sg90
I81
sg1709
I1700
sg1952
I1943
sg1119
I1110
sg1901
I1892
sg1017
I1008
sg2185
I2176
sg2112
I2103
sg1547
I1538
sg344
I335
sg1592
I1583
sg813
I804
sg1325
I1316
sg555
I546
sg1498
I1489
sg1392
I1383
sg1745
I1736
sg1699
I1690
sg299
I290
sg480
I471
sg1412
I1403
sg1539
I1530
sg583
I574
sg2421
I2412
sg2310
I2301
sg2103
I2094
sg307
I298
sg1963
I1954
sg1258
I1249
sg1670
I1661
sg1902
I1893
sg2351
I2342
sg959
I950
sg55
I46
sg2591
I2582
sg1946
I1937
sg1350
I1341
sg2485
I2476
sg1309
I1300
sg2513
I2504
sg1926
I1917
sg2130
I2121
sg386
I377
sg1323
I1314
sg1852
I1843
sg1706
I1697
sg2562
I2553
sg1404
I1395
sg1938
I1929
sg2745
I2736
sg464
I455
sg1327
I1318
sg829
I820
sg2131
I2122
sg331
I322
sg2721
I2712
sg1833
I1824
sg2595
I2586
sg122
I113
sg2039
I2030
sg1463
I1454
sg2635
I2626
sg836
I827
sg2142
I2133
sg2471
I2462
sg920
I911
sg294
I285
sg123
I114
sg2483
I2474
sg2781
I2772
sg1389
I1380
sg2744
I2735
sg205
I196
sg1979
I1970
sg229
I220
sg1582
I1573
sg2550
I2541
sg1400
I1391
sg49
I40
sg1233
I1224
sg921
I912
sg2014
I2005
sg2509
I2500
sg1578
I1569
sg1212
I1203
sg256
I247
sg2464
I2455
sg1734
I1725
sg91
I82
sg2023
I2014
sg2531
I2522
sg1849
I1840
sg2572
I2563
sg1034
I1025
sg2704
I2695
sg1310
I1301
sg1371
I1362
sg43
I34
sg674
I665
sg1518
I1509
sg2296
I2287
sg2173
I2164
sg2367
I2358
sg447
I438
sg1018
I1009
sg579
I570
sg970
I961
sg2669
I2660
sg2437
I2428
sg1749
I1740
sg843
I834
sg2750
I2741
sg1561
I1552
sg2771
I2762
sg1888
I1879
sg2154
I2145
sg720
I711
sg158
I149
sg2658
I2649
sg1346
I1337
sg880
I871
sg2764
I2755
sg2589
I2580
sg641
I632
sg208
I199
sg19
I10
sg571
I562
sg2071
I2062
sg1000
I991
sg2344
I2335
sg995
I986
sg1890
I1881
sg2217
I2208
sg1297
I1288
sg2254
I2245
sg465
I456
sg2670
I2661
sg2712
I2703
sg2524
I2515
sg326
I317
sg1964
I1955
sg2715
I2706
sg2135
I2126
sg948
I939
sg2420
I2411
sg1581
I1572
sg252
I243
sg503
I494
sg1040
I1031
sg2630
I2621
sg1329
I1320
sg2128
I2119
sg1032
I1023
sg2136
I2127
sg402
I393
sg1293
I1284
sg2633
I2624
sg2594
I2585
sg2546
I2537
sg2627
I2618
sg1771
I1762
sg199
I190
sg906
I897
sg2129
I2120
sg1713
I1704
sg949
I940
sg372
I363
sg2679
I2670
sg87
I78
sg1144
I1135
sg1664
I1655
sg475
I466
sg934
I925
sg1782
I1773
sg316
I307
sg570
I561
sg1266
I1257
sg1150
I1141
sg1679
I1670
sg481
I472
sg1788
I1779
sg590
I581
sg1577
I1568
sg1077
I1068
sg1365
I1356
sg1569
I1560
sg2533
I2524
sg724
I715
sg909
I900
sg1797
I1788
sg2268
I2259
sg910
I901
sg2101
I2092
sg2763
I2754
sg1515
I1506
sg2119
I2110
sg1874
I1865
sg1214
I1205
sg618
I609
sg2288
I2279
sg1337
I1328
sg2102
I2093
sg2430
I2421
sg524
I515
sg2695
I2686
sg767
I758
sg1219
I1210
sg1574
I1565
sg747
I738
sg1027
I1018
sg1452
I1443
sg496
I487
sg1922
I1913
sg858
I849
sg2305
I2296
sg1470
I1461
sg558
I549
sg1501
I1492
sg1993
I1984
sg721
I712
sg484
I475
sg2090
I2081
sg2480
I2471
sg631
I622
sg56
I47
sg75
I66
sg2386
I2377
sg1066
I1057
sg2667
I2658
sg2015
I2006
sg83
I74
sg1832
I1823
sg1750
I1741
sg1331
I1322
sg2219
I2210
sg297
I288
sg1318
I1309
sg2413
I2404
sg1416
I1407
sg510
I501
sg267
I258
sg1621
I1612
sg1955
I1946
sg1013
I1004
sg1087
I1078
sg260
I251
sg663
I654
sg336
I327
sg1422
I1413
sg1863
I1854
sg265
I256
sg152
I143
sg895
I886
sg2616
I2607
sg1170
I1161
sg2727
I2718
sg615
I606
sg1383
I1374
sg2439
I2430
sg2100
I2091
sg2440
I2431
sg2713
I2704
sg726
I717
sg2059
I2050
sg1261
I1252
sg304
I295
sg32
I23
sg889
I880
sg1287
I1278
sg2517
I2508
sg2519
I2510
sg2109
I2100
sg1623
I1614
sg650
I641
sg433
I424
sg1735
I1726
sg2225
I2216
sg2476
I2467
sg1461
I1452
sg1754
I1745
sg1379
I1370
sg2201
I2192
sg1654
I1645
sg826
I817
sg21
I12
sg2124
I2115
sg317
I308
sg1977
I1968
sg2538
I2529
sg1942
I1933
sg2555
I2546
sg856
I847
sg221
I212
sg637
I628
sg168
I159
sg2099
I2090
sg1953
I1944
sg78
I69
sg1342
I1333
sg2182
I2173
sg2520
I2511
sg1587
I1578
sg370
I361
sg351
I342
sg60
I51
sg1057
I1048
sg1747
I1738
sg263
I254
sg479
I470
sg374
I365
sg1159
I1150
sg425
I416
sg436
I427
sg2184
I2175
sg873
I864
sg1433
I1424
sg660
I651
sg1594
I1585
sg1137
I1128
sg626
I617
sg2733
I2724
sg535
I526
sg140
I131
sg315
I306
sg1141
I1132
sg440
I431
sg1500
I1491
sg809
I800
sg102
I93
sg530
I521
sg157
I148
sg1374
I1365
sg1241
I1232
sg2092
I2083
sg1227
I1218
sg196
I187
sg1917
I1908
sg204
I195
sg501
I492
sg2484
I2475
sg411
I402
sg935
I926
sg2356
I2347
sg2081
I2072
sg1635
I1626
sg2083
I2074
sg498
I489
sg1940
I1931
sg1796
I1787
sg2604
I2595
sg1914
I1905
sg1817
I1808
sg1611
I1602
sg1250
I1241
sg1976
I1967
sg2398
I2389
sg1206
I1197
sg834
I825
sg1928
I1919
sg1987
I1978
sg1794
I1785
sg1277
I1268
sg2760
I2751
sg943
I934
sg2424
I2415
sg2056
I2047
sg1829
I1820
sg1762
I1753
sg1479
I1470
sg1980
I1971
sg1777
I1768
sg527
I518
sg2375
I2366
sg197
I188
sg156
I147
sg1231
I1222
sg477
I468
sg2064
I2055
sg1284
I1275
sg893
I884
sg398
I389
sg1802
I1793
sg421
I412
sg638
I629
sg1838
I1829
sg2557
I2548
sg543
I534
sg1660
I1651
sg1909
I1900
sg427
I418
sg1965
I1956
sg2415
I2406
sg2793
I2784
sg569
I560
sg462
I453
sg192
I183
sg2342
I2333
sg2378
I2369
sg2156
I2147
sg2450
I2441
sg1775
I1766
sg1857
I1848
sg559
I550
sg272
I263
sg504
I495
sg2247
I2238
sg2680
I2671
sg915
I906
sg51
I42
sg894
I885
sg2304
I2295
sg2603
I2594
sg491
I482
sg2491
I2482
sg772
I763
sg541
I532
sg2481
I2472
sg1925
I1916
sg2373
I2364
sg2108
I2099
sg1575
I1566
sg2242
I2233
sg899
I890
sg40
I31
sg170
I161
sg2606
I2597
sg1037
I1028
sg1216
I1207
sg1303
I1294
sg1041
I1032
sg128
I119
sg2448
I2439
sg1773
I1764
sg1999
I1990
sg1761
I1752
sg1688
I1679
sg2511
I2502
sg2189
I2180
sg1567
I1558
sg1974
I1965
sg2160
I2151
sg1378
I1369
sg853
I844
sg621
I612
sg1238
I1229
sg149
I140
sg1846
I1837
sg1590
I1581
sg927
I918
sg1726
I1717
sg458
I449
sg1954
I1945
sg2407
I2398
sg242
I233
sg1610
I1601
sg761
I752
sg2075
I2066
sg15
I6
sg1388
I1379
sg832
I823
sg1345
I1336
sg1408
I1399
sg2699
I2690
sg799
I790
sg796
I787
sg860
I851
sg546
I537
sg1535
I1526
sg2057
I2048
sg529
I520
sg1326
I1317
sg2514
I2505
sg333
I324
sg2323
I2314
sg2353
I2344
sg1616
I1607
sg2085
I2076
sg1302
I1293
sg1950
I1941
sg302
I293
sg2020
I2011
sg2498
I2489
sg1475
I1466
sg1799
I1790
sg2747
I2738
sg2341
I2332
sg1836
I1827
sg500
I491
sg1282
I1273
sg2070
I2061
sg2739
I2730
sg1927
I1918
sg1858
I1849
sg1271
I1262
sg2505
I2496
sg2394
I2385
sg2123
I2114
sg2320
I2311
sg2689
I2680
sg863
I854
sg1003
I994
sg186
I177
sg1469
I1460
sg709
I700
sg2024
I2015
sg206
I197
sg1527
I1518
sg1522
I1513
sg2510
I2501
sg1072
I1063
sg680
I671
sg1208
I1199
sg883
I874
sg2194
I2185
sg2001
I1992
sg2423
I2414
sg104
I95
sg820
I811
sg923
I914
sg2653
I2644
sg1732
I1723
sg1090
I1081
sg2384
I2375
sg222
I213
sg1793
I1784
sg745
I736
sg1418
I1409
sg1599
I1590
sg1973
I1964
sg986
I977
sg2153
I2144
sg672
I663
sg925
I916
sg41
I32
sg281
I272
sg1586
I1577
sg1505
I1496
sg116
I107
sg596
I587
sg954
I945
sg185
I176
sg399
I390
sg568
I559
sg392
I383
sg507
I498
sg2718
I2709
sg385
I376
sg1252
I1243
sg2137
I2128
sg2535
I2526
sg119
I110
sg2317
I2308
sg2016
I2007
sg1153
I1144
sg2396
I2387
sg624
I615
sg1778
I1769
sg578
I569
sg654
I645
sg118
I109
sg675
I666
sg414
I405
sg1162
I1153
sg1597
I1588
sg742
I733
sg1152
I1143
sg88
I79
sg160
I151
sg2126
I2117
sg2468
I2459
sg2207
I2198
sg2702
I2693
sg426
I417
sg2011
I2002
sg908
I899
sg619
I610
sg2171
I2162
sg1114
I1105
sg2053
I2044
sg2019
I2010
sg1179
I1170
sg1288
I1279
sg2335
I2326
sg557
I548
sg1044
I1035
sg69
I60
sg695
I686
sg2038
I2029
sg2166
I2157
sg1186
I1177
sg651
I642
sg770
I761
sg573
I564
sg714
I705
sg1290
I1281
sg314
I305
sg508
I499
sg623
I614
sg1810
I1801
sg1390
I1381
sg2666
I2657
sg2275
I2266
sg2272
I2263
sg1254
I1245
sg264
I255
sg1022
I1013
sg1167
I1158
sg2098
I2089
sg2512
I2503
sg1614
I1605
sg1879
I1870
sg1763
I1754
sg1612
I1603
sg2494
I2485
sg1464
I1455
sg14
I5
sg2457
I2448
sg273
I264
sg941
I932
sg379
I370
sg2659
I2650
sg2210
I2201
sg1143
I1134
sg1510
I1501
sg581
I572
sg2648
I2639
sg1175
I1166
sg393
I384
sg2428
I2419
sg2598
I2589
sg79
I70
sg827
I818
sg2073
I2064
sg900
I891
sg1696
I1687
sg694
I685
sg2435
I2426
sg639
I630
sg2332
I2323
sg2162
I2153
sg2393
I2384
sg690
I681
sg511
I502
sg965
I956
sg1127
I1118
sg1448
I1439
sg790
I781
sg1267
I1258
sg245
I236
sg2178
I2169
sg376
I367
sg2089
I2080
sg1807
I1798
sg1165
I1156
sg1982
I1973
sg218
I209
sg2063
I2054
sg1801
I1792
sg1193
I1184
sg1487
I1478
sg324
I315
sg1687
I1678
sg147
I138
sg145
I136
sg2477
I2468
sg388
I379
sg1596
I1587
sg1396
I1387
sg1755
I1746
sg741
I732
sg1197
I1188
sg2601
I2592
sg2748
I2739
sg1443
I1434
sg65
I56
sg1133
I1124
sg1477
I1468
sg1617
I1608
sg2040
I2031
sg1929
I1920
sg322
I313
sg1608
I1599
sg1540
I1531
sg1397
I1388
sg1905
I1896
sg1604
I1595
sg44
I35
sg842
I833
sg1839
I1830
sg257
I248
sg2451
I2442
sg2706
I2697
sg2500
I2491
sg1428
I1419
sg1751
I1742
sg2690
I2681
sg1634
I1625
sg1005
I996
sg1420
I1411
sg1419
I1410
sg662
I653
sg1292
I1283
sg1423
I1414
sg132
I123
sg758
I749
sg1680
I1671
sg2540
I2531
sg1123
I1114
sg904
I895
sg46
I37
sg430
I421
sg1405
I1396
sg1376
I1367
sg251
I242
sg1891
I1882
sg1780
I1771
sg922
I913
sg373
I364
sg2624
I2615
sg1004
I995
sg815
I806
sg1411
I1402
sg1662
I1653
sg2445
I2436
sg748
I739
sg1860
I1851
sg1344
I1335
sg1519
I1510
sg1393
I1384
sg161
I152
sg2022
I2013
sg2561
I2552
sg250
I241
sg2655
I2646
sg1656
I1647
sg2455
I2446
sg2252
I2243
sg154
I145
sg851
I842
sg2361
I2352
sg1676
I1667
sg673
I664
sg1588
I1579
sg533
I524
sg622
I613
sg2769
I2760
sg2438
I2429
sg2607
I2598
sg1060
I1051
sg1658
I1649
sg1644
I1635
sg1764
I1755
sg1981
I1972
sg2026
I2017
sg2047
I2038
sg253
I244
sg2406
I2397
sg2741
I2732
sg1467
I1458
sg1615
I1606
sg1076
I1067
sg2027
I2018
sg2710
I2701
sg1488
I1479
sg2232
I2223
sg1270
I1261
sg1168
I1159
sg1275
I1266
sg2246
I2237
sg47
I38
sg1646
I1637
sg1273
I1264
sg2637
I2628
sg200
I191
sg2580
I2571
sg1410
I1401
sg2590
I2581
sg516
I507
sg1531
I1522
sg2717
I2708
sg2749
I2740
sg1315
I1306
sg2619
I2610
sg707
I698
sg311
I302
sg1172
I1163
sg1717
I1708
sg1262
I1253
sg766
I757
sg2453
I2444
sg2280
I2271
sg406
I397
sg2180
I2171
sg1438
I1429
sg2183
I2174
sg692
I683
sg2597
I2588
sg1196
I1187
sg2628
I2619
sg2683
I2674
sg1887
I1878
sg2465
I2456
sg1630
I1621
sg2506
I2497
sg443
I434
sg1896
I1887
sg146
I137
sg1382
I1373
sg689
I680
sg1276
I1267
sg2583
I2574
sg652
I643
sg319
I310
sg1054
I1045
sg1223
I1214
sg248
I239
sg1533
I1524
sg2328
I2319
sg2097
I2088
sg70
I61
sg759
I750
sg1110
I1101
sg2537
I2528
sg2405
I2396
sg1983
I1974
sg2461
I2452
sg565
I556
sg1012
I1003
sg783
I774
sg1229
I1220
sg2350
I2341
sg1065
I1056
sg27
I18
sg1886
I1877
sg340
I331
sg1010
I1001
sg545
I536
sg1932
I1923
sg2585
I2576
sg212
I203
sg754
I745
sg347
I338
sg363
I354
sg2061
I2052
sg919
I910
sg2025
I2016
sg983
I974
sg2381
I2372
sg2091
I2082
sg794
I785
sg2662
I2653
sg668
I659
sg1772
I1763
sg2719
I2710
sg574
I565
sg683
I674
sg1791
I1782
sg395
I386
sg592
I583
sg2116
I2107
sg1118
I1109
sg780
I771
sg2786
I2777
sg1130
I1121
sg466
I457
sg244
I235
sg964
I955
sg1104
I1095
sg945
I936
sg617
I608
sg2434
I2425
sg976
I967
sg1377
I1368
sg613
I604
sg614
I605
sg59
I50
sg977
I968
sg2614
I2605
sg1272
I1263
sg2665
I2656
sg24
I15
sg1140
I1131
sg2228
I2219
sg506
I497
sg478
I469
sg798
I789
sg418
I409
sg1936
I1927
sg103
I94
sg2191
I2182
sg202
I193
sg2118
I2109
sg1625
I1616
sg1960
I1951
sg1784
I1775
sg1855
I1846
sg2233
I2224
sg1733
I1724
sg2239
I2230
sg1409
I1400
sg303
I294
sg1447
I1438
sg1451
I1442
sg1188
I1179
sg1990
I1981
sg786
I777
sg401
I392
sg34
I25
sg1102
I1093
sg942
I933
sg969
I960
sg428
I419
sg2576
I2567
sg117
I108
sg509
I500
sg2200
I2191
sg1742
I1733
sg1101
I1092
sg821
I812
sg216
I207
sg1516
I1507
sg979
I970
sg849
I840
sg2486
I2477
sg2556
I2547
sg2139
I2130
sg929
I920
sg1440
I1431
sg2340
I2331
sg1200
I1191
sg517
I508
sg718
I709
sg1356
I1347
sg243
I234
sg2711
I2702
sg1263
I1254
sg735
I726
sg2307
I2298
sg1818
I1809
sg328
I319
sg1145
I1136
sg1759
I1750
sg1559
I1550
sg408
I399
sg144
I135
sg1049
I1040
sg2266
I2257
sg999
I990
sg1260
I1251
sg931
I922
sg1399
I1390
sg276
I267
sg811
I802
sg463
I454
sg1459
I1450
sg1425
I1416
sg2004
I1995
sg2209
I2200
sg865
I856
sg1985
I1976
sg968
I959
sg483
I474
sg2497
I2488
sg2043
I2034
sg553
I544
sg1939
I1930
sg2625
I2616
sg2565
I2556
sg1502
I1493
sg891
I882
sg890
I881
sg1509
I1500
sg2096
I2087
sg2324
I2315
sg2791
I2782
sg1558
I1549
sg1557
I1548
sg2115
I2106
sg2257
I2248
sg1585
I1576
sg2499
I2490
sg1556
I1547
sg1554
I1545
sg1553
I1544
sg2318
I2309
sg2052
I2043
sg1986
I1977
sg429
I420
sg2370
I2361
sg1731
I1722
sg1369
I1360
sg955
I946
sg916
I907
sg1424
I1415
sg1122
I1113
sg1638
I1629
sg2626
I2617
sg2380
I2371
sg434
I425
sg547
I538
sg1492
I1483
sg627
I618
sg2728
I2719
sg1663
I1654
sg1278
I1269
sg870
I861
sg2700
I2691
sg2642
I2633
sg1542
I1533
sg457
I448
sg2778
I2769
sg2104
I2095
sg2295
I2286
sg84
I75
sg92
I83
sg2640
I2631
sg1021
I1012
sg1506
I1497
sg2608
I2599
sg789
I780
sg239
I230
sg606
I597
sg1756
I1747
sg1504
I1495
sg1264
I1255
sg2735
I2726
sg814
I805
sg1919
I1910
sg1729
I1720
sg1248
I1239
sg2528
I2519
sg835
I826
sg360
I351
sg580
I571
sg2756
I2747
sg658
I649
sg57
I48
sg1191
I1182
sg1046
I1037
sg1301
I1292
sg138
I129
sg432
I423
sg159
I150
sg1823
I1814
sg1160
I1151
sg2651
I2642
sg677
I668
sg975
I966
sg2152
I2143
sg1246
I1237
sg1889
I1880
sg872
I863
sg994
I985
sg1230
I1221
sg2458
I2449
sg93
I84
sg72
I63
sg358
I349
sg112
I103
sg2773
I2764
sg648
I639
sg2563
I2554
sg423
I414
sg1113
I1104
sg1111
I1102
sg1834
I1825
sg64
I55
sg907
I898
sg698
I689
sg285
I276
sg764
I755
sg450
I441
sg2558
I2549
sg456
I447
sg1176
I1167
sg1134
I1125
sg220
I211
sg76
I67
sg189
I180
sg1872
I1863
sg2297
I2288
sg1563
I1554
sg2164
I2155
sg413
I404
sg539
I530
sg2270
I2261
sg1758
I1749
sg12
I3
sg2041
I2032
sg888
I879
sg1249
I1240
sg1042
I1033
sg1821
I1812
ssS'separator'
p2799
S'='
sS'sparse'
p2800
I01
sb.