ccopy_reg
_reconstructor
p1
(csklearn.feature_extraction.dict_vectorizer
DictVectorizer
p2
c__builtin__
object
p3
NtRp4
(dp5
S'sort'
p6
I01
sS'feature_names_'
p7
(lp8
S'acomp=much'
p9
aS'advcl=afraid'
p10
aS'advcl=hit'
p11
aS'advmod=already'
p12
aS'advmod=early'
p13
aS'advmod=just'
p14
aS'advmod=more'
p15
aS'advmod=next'
p16
aS'advmod=now'
p17
aS'advmod=only'
p18
aS'advmod=so'
p19
aS'advmod=thanks'
p20
aS'advmod=there'
p21
aS'amod=annual'
p22
aS'amod=bad'
p23
aS'amod=bountiful'
p24
aS'amod=critical'
p25
aS'amod=damaging'
p26
aS'amod=decent'
p27
aS'amod=due'
p28
aS'amod=good'
p29
aS'amod=illegal'
p30
aS'amod=last'
p31
aS'amod=lose'
p32
aS'amod=main'
p33
aS'amod=many'
p34
aS'amod=mechanical'
p35
aS'amod=next'
p36
aS'amod=olive'
p37
aS'amod=poor'
p38
aS'amod=reasonable'
p39
aS'amod=rich'
p40
aS'amod=significant'
p41
aS'amod=smaller'
p42
aS'amod=worst'
p43
aS'aux=be'
p44
aS'aux=can'
p45
aS'aux=have'
p46
aS'aux=to'
p47
aS'aux=will'
p48
aS'auxpass=be'
p49
aS'cc=and'
p50
aS'complm=that'
p51
aS'conj=base'
p52
aS'conj=eat'
p53
aS'conj=livelihood'
p54
aS'conj=price'
p55
aS'conj=ship'
p56
aS'conj=supply'
p57
aS'conj=that'
p58
aS'cop=be'
p59
aS'dep=what'
p60
aS'det=a'
p61
aS'det=another'
p62
aS'det=no'
p63
aS'det=the'
p64
aS'dobj=cell'
p65
aS'dobj=crop'
p66
aS'dobj=food'
p67
aS'dobj=ginseng'
p68
aS'dobj=ingredient'
p69
aS'dobj=kilo'
p70
aS'dobj=leek'
p71
aS'dobj=nut'
p72
aS'dobj=organ'
p73
aS'dobj=peanut'
p74
aS'dobj=plant'
p75
aS'dobj=pound'
p76
aS'dobj=power'
p77
aS'dobj=season'
p78
aS'dobj=timber'
p79
aS'dobj=ton'
p80
aS'dobj=way'
p81
aS'dobj=whale'
p82
aS'mark=after'
p83
aS'mark=if'
p84
aS'mark=until'
p85
aS'mark=while'
p86
aS'nn=Japan'
p87
aS'nn=bumper'
p88
aS'nn=canolum'
p89
aS'nn=cereal'
p90
aS'nn=citrus'
p91
aS'nn=coconut'
p92
aS'nn=corn'
p93
aS'nn=damage'
p94
aS'nn=food'
p95
aS'nn=fruit'
p96
aS'nn=maize'
p97
aS'nn=poppy'
p98
aS'nn=rain'
p99
aS'nn=rice'
p100
aS'nn=rubber'
p101
aS'nn=vegetable'
p102
aS'nn=whale'
p103
aS'nn=wheat'
p104
aS'nsubj=#PRP#'
p105
aS'nsubj=DPRK'
p106
aS'nsubj=Sung-dae'
p107
aS'nsubj=device'
p108
aS'nsubj=who'
p109
aS'nsubj=year'
p110
aS'nsubjpass=animal'
p111
aS'nsubjpass=charge'
p112
aS'nsubjpass=corn'
p113
aS'nsubjpass=forest'
p114
aS'nsubjpass=rice'
p115
aS'nsubjpass=that'
p116
aS'nsubjpass=then'
p117
aS'num=#NUMBER#'
p118
aS'partmod=destroy'
p119
aS'poss=#PRP#'
p120
aS'poss=Australia'
p121
aS'poss=Korea'
p122
aS'poss=Lastyear'
p123
aS'poss=Tokyo'
p124
aS'poss=Zimbabwe'
p125
aS'poss=burma'
p126
aS'poss=lastyear'
p127
aS'poss=summer'
p128
aS'poss=year'
p129
aS'prep=about'
p130
aS'prep=accord'
p131
aS'prep=after'
p132
aS'prep=at'
p133
aS'prep=before'
p134
aS'prep=follow'
p135
aS'prep=for'
p136
aS'prep=from'
p137
aS'prep=in'
p138
aS'prep=include'
p139
aS'prep=of'
p140
aS'prep=off'
p141
aS'prep=than'
p142
aS'prep=toward'
p143
aS'prep=until'
p144
aS'rcmod=begin'
p145
aS'rcmod=take'
p146
aS'tmod=month'
p147
aS'tmod=year'
p148
aS"w+1=''"
p149
aS'w+1=,'
p150
aS'w+1=-rrb-'
p151
aS'w+1=.'
p152
aS'w+1=Biotech'
p153
aS'w+1=a'
p154
aS'w+1=about'
p155
aS'w+1=and'
p156
aS'w+1=at'
p157
aS'w+1=be'
p158
aS'w+1=because'
p159
aS'w+1=before'
p160
aS'w+1=by'
p161
aS'w+1=cashew'
p162
aS'w+1=contribute'
p163
aS'w+1=could'
p164
aS'w+1=crop'
p165
aS'w+1=destroy'
p166
aS'w+1=due'
p167
aS'w+1=early'
p168
aS'w+1=electrical'
p169
aS'w+1=energy'
p170
aS'w+1=essentially'
p171
aS'w+1=fall'
p172
aS'w+1=feast'
p173
aS'w+1=for'
p174
aS'w+1=from'
p175
aS'w+1=ginseng'
p176
aS'w+1=have'
p177
aS'w+1=he'
p178
aS'w+1=in'
p179
aS'w+1=into'
p180
aS'w+1=its'
p181
aS'w+1=later'
p182
aS'w+1=more'
p183
aS'w+1=new'
p184
aS'w+1=next'
p185
aS'w+1=of'
p186
aS'w+1=organ'
p187
aS'w+1=period'
p188
aS'w+1=processing'
p189
aS'w+1=remain'
p190
aS'w+1=say'
p191
aS'w+1=six'
p192
aS'w+1=so'
p193
aS'w+1=some'
p194
aS'w+1=stem'
p195
aS'w+1=sustainably'
p196
aS'w+1=the'
p197
aS'w+1=there'
p198
aS'w+1=they'
p199
aS'w+1=this'
p200
aS'w+1=timber'
p201
aS'w+1=to'
p202
aS'w+1=until'
p203
aS'w+1=water'
p204
aS'w+1=we'
p205
aS'w+1=wheat'
p206
aS'w+1=when'
p207
aS'w+1=which'
p208
aS'w+1=wild'
p209
aS'w+1=will'
p210
aS'w+1=with'
p211
aS'w+1=would'
p212
aS"w+2=''"
p213
aS'w+2=,'
p214
aS'w+2=.'
p215
aS'w+2=2007'
p216
aS'w+2=50'
p217
aS'w+2=August'
p218
aS'w+2=Foundation'
p219
aS'w+2=Indonesia'
p220
aS'w+2=North'
p221
aS'w+2=September'
p222
aS'w+2=a'
p223
aS'w+2=about'
p224
aS'w+2=after'
p225
aS'w+2=all'
p226
aS'w+2=also'
p227
aS'w+2=and'
p228
aS'w+2=arrive'
p229
aS'w+2=as'
p230
aS'w+2=at'
p231
aS'w+2=be'
p232
aS'w+2=begin'
p233
aS'w+2=below'
p234
aS'w+2=cell'
p235
aS'w+2=coffee'
p236
aS'w+2=complete'
p237
aS'w+2=could'
p238
aS'w+2=crop'
p239
aS'w+2=ease'
p240
aS'w+2=elevation'
p241
aS'w+2=expect'
p242
aS'w+2=export'
p243
aS'w+2=fail'
p244
aS'w+2=few'
p245
aS'w+2=food'
p246
aS'w+2=from'
p247
aS'w+2=go'
p248
aS'w+2=have'
p249
aS'w+2=help'
p250
aS'w+2=high'
p251
aS'w+2=human'
p252
aS'w+2=identify'
p253
aS'w+2=in'
p254
aS'w+2=include'
p255
aS'w+2=key'
p256
aS'w+2=larger'
p257
aS'w+2=leek'
p258
aS'w+2=live'
p259
aS'w+2=local'
p260
aS'w+2=loss'
p261
aS'w+2=low'
p262
aS'w+2=many'
p263
aS'w+2=medicinal'
p264
aS'w+2=month'
p265
aS'w+2=much'
p266
aS'w+2=next'
p267
aS'w+2=not'
p268
aS'w+2=nowadays'
p269
aS'w+2=nut'
p270
aS'w+2=of'
p271
aS'w+2=on'
p272
aS'w+2=patient'
p273
aS'w+2=peanut'
p274
aS'w+2=pest'
p275
aS'w+2=plant'
p276
aS'w+2=power'
p277
aS'w+2=rate'
p278
aS'w+2=research'
p279
aS'w+2=rice'
p280
aS'w+2=rise'
p281
aS'w+2=season'
p282
aS'w+2=see'
p283
aS'w+2=sell'
p284
aS'w+2=set'
p285
aS'w+2=she'
p286
aS'w+2=ship'
p287
aS'w+2=so'
p288
aS'w+2=sometimes'
p289
aS'w+2=supply'
p290
aS'w+2=than'
p291
aS'w+2=that'
p292
aS'w+2=the'
p293
aS'w+2=they'
p294
aS'w+2=this'
p295
aS'w+2=to'
p296
aS'w+2=top'
p297
aS'w+2=two'
p298
aS'w+2=until'
p299
aS'w+2=useable'
p300
aS'w+2=whale'
p301
aS'w+2=when'
p302
aS'w+2=where'
p303
aS'w+2=which'
p304
aS'w+2=while'
p305
aS'w+2=work'
p306
aS'w+2=year'
p307
aS"w-1='s"
p308
aS'w-1=-lrb-'
p309
aS'w-1=.'
p310
aS'w-1=2007'
p311
aS'w-1=Japan'
p312
aS'w-1=a'
p313
aS'w-1=african'
p314
aS'w-1=after'
p315
aS'w-1=already'
p316
aS'w-1=and'
p317
aS'w-1=as'
p318
aS'w-1=autumn'
p319
aS'w-1=await'
p320
aS'w-1=bad'
p321
aS'w-1=be'
p322
aS'w-1=bean'
p323
aS'w-1=before'
p324
aS'w-1=bountiful'
p325
aS'w-1=bumper'
p326
aS'w-1=but'
p327
aS'w-1=can'
p328
aS'w-1=canolum'
p329
aS'w-1=cereal'
p330
aS'w-1=citrus'
p331
aS'w-1=coconut'
p332
aS'w-1=corn'
p333
aS'w-1=damaging'
p334
aS'w-1=decent'
p335
aS'w-1=doctor'
p336
aS'w-1=during'
p337
aS'w-1=fail'
p338
aS'w-1=farmer'
p339
aS'w-1=food'
p340
aS'w-1=for'
p341
aS'w-1=forecast'
p342
aS'w-1=from'
p343
aS'w-1=fruit'
p344
aS'w-1=good'
p345
aS'w-1=hand'
p346
aS'w-1=hunter'
p347
aS'w-1=illegal'
p348
aS'w-1=it'
p349
aS'w-1=just'
p350
aS'w-1=keep'
p351
aS'w-1=last'
p352
aS'w-1=lose'
p353
aS'w-1=maize'
p354
aS'w-1=many'
p355
aS'w-1=mechanical'
p356
aS'w-1=next'
p357
aS'w-1=no'
p358
aS'w-1=of'
p359
aS'w-1=olive'
p360
aS'w-1=plutonium'
p361
aS'w-1=poor'
p362
aS'w-1=poppy'
p363
aS'w-1=post'
p364
aS'w-1=potentially'
p365
aS'w-1=rice'
p366
aS'w-1=rich'
p367
aS'w-1=rubber'
p368
aS'w-1=seafood'
p369
aS'w-1=significant'
p370
aS'w-1=smaller'
p371
aS'w-1=that'
p372
aS'w-1=the'
p373
aS'w-1=they'
p374
aS'w-1=those'
p375
aS'w-1=three'
p376
aS'w-1=to'
p377
aS'w-1=vegetable'
p378
aS'w-1=whale'
p379
aS'w-1=wheat'
p380
aS'w-1=who'
p381
aS'w-1=will'
p382
aS'w-1=with'
p383
aS'w-1=worst'
p384
aS"w-2=''"
p385
aS"w-2='s"
p386
aS'w-2=,'
p387
aS'w-2=.'
p388
aS'w-2=Korea'
p389
aS'w-2=a'
p390
aS'w-2=able'
p391
aS'w-2=after'
p392
aS'w-2=amount'
p393
aS'w-2=and'
p394
aS'w-2=animal'
p395
aS'w-2=annual'
p396
aS'w-2=another'
p397
aS'w-2=as'
p398
aS'w-2=average'
p399
aS'w-2=be'
p400
aS'w-2=blame'
p401
aS'w-2=by'
p402
aS'w-2=can'
p403
aS'w-2=cane'
p404
aS'w-2=collect'
p405
aS'w-2=compromise'
p406
aS'w-2=continue'
p407
aS'w-2=corn'
p408
aS'w-2=critical'
p409
aS'w-2=cut'
p410
aS'w-2=damage'
p411
aS'w-2=day'
p412
aS'w-2=device'
p413
aS'w-2=drought-induced'
p414
aS'w-2=ease'
p415
aS'w-2=enjoy'
p416
aS'w-2=expect'
p417
aS'w-2=farm'
p418
aS'w-2=from'
p419
aS'w-2=gathering'
p420
aS'w-2=get'
p421
aS'w-2=good'
p422
aS'w-2=grow'
p423
aS'w-2=hard'
p424
aS'w-2=have'
p425
aS'w-2=he'
p426
aS'w-2=increase'
p427
aS'w-2=induce'
p428
aS'w-2=its'
p429
aS'w-2=lastyear'
p430
aS'w-2=likely'
p431
aS'w-2=log'
p432
aS'w-2=main'
p433
aS'w-2=mean'
p434
aS'w-2=meat'
p435
aS'w-2=next'
p436
aS'w-2=no'
p437
aS'w-2=now'
p438
aS'w-2=of'
p439
aS'w-2=only'
p440
aS'w-2=or'
p441
aS'w-2=peanut'
p442
aS'w-2=people'
p443
aS'w-2=pesticide'
p444
aS'w-2=plant'
p445
aS'w-2=prepare'
p446
aS'w-2=prevent'
p447
aS'w-2=proper'
p448
aS'w-2=rain'
p449
aS'w-2=ready'
p450
aS'w-2=reasonable'
p451
aS'w-2=record'
p452
aS'w-2=ripe'
p453
aS'w-2=say'
p454
aS'w-2=see'
p455
aS'w-2=sell'
p456
aS'w-2=staple'
p457
aS'w-2=still'
p458
aS'w-2=stock'
p459
aS'w-2=summer'
p460
aS'w-2=than'
p461
aS'w-2=that'
p462
aS'w-2=the'
p463
aS'w-2=then'
p464
aS'w-2=they'
p465
aS'w-2=to'
p466
aS'w-2=we'
p467
aS'w-2=week'
p468
aS'w-2=whale'
p469
aS'w-2=what'
p470
aS'w-2=with'
p471
aS'w-2=work'
p472
aS'w-2=year'
p473
aS'w-2=you'
p474
aS'xcomp=destroy'
p475
aS'xcomp=protect'
p476
asS'dtype'
p477
cnumpy
float64
p478
sS'vocabulary_'
p479
(dp480
g170
I161
sg134
I125
sg35
I26
sg27
I18
sg15
I6
sg336
I327
sg63
I54
sg467
I458
sg245
I236
sg443
I434
sg28
I19
sg123
I114
sg190
I181
sg321
I312
sg261
I252
sg267
I258
sg100
I91
sg162
I153
sg42
I33
sg203
I194
sg353
I344
sg464
I455
sg368
I359
sg465
I456
sg142
I133
sg275
I266
sg314
I305
sg257
I248
sg423
I414
sg91
I82
sg337
I328
sg95
I86
sg347
I338
sg129
I120
sg135
I126
sg19
I10
sg419
I410
sg14
I5
sg179
I170
sg382
I373
sg115
I106
sg370
I361
sg251
I242
sg306
I297
sg322
I313
sg463
I454
sg270
I261
sg85
I76
sg418
I409
sg284
I275
sg125
I116
sg340
I331
sg398
I389
sg82
I73
sg171
I162
sg475
I466
sg165
I156
sg253
I244
sg186
I177
sg296
I287
sg153
I144
sg384
I375
sg273
I264
sg333
I324
sg383
I374
sg407
I398
sg60
I51
sg279
I270
sg76
I67
sg244
I235
sg254
I245
sg468
I459
sg345
I336
sg455
I446
sg440
I431
sg194
I185
sg130
I121
sg45
I36
sg51
I42
sg201
I192
sg147
I138
sg460
I451
sg332
I323
sg339
I330
sg243
I234
sg299
I290
sg361
I352
sg462
I453
sg197
I188
sg354
I345
sg89
I80
sg461
I452
sg18
I9
sg232
I223
sg300
I291
sg199
I190
sg39
I30
sg316
I307
sg138
I129
sg79
I70
sg174
I165
sg301
I292
sg452
I443
sg453
I444
sg343
I334
sg365
I356
sg389
I380
sg420
I411
sg156
I147
sg54
I45
sg80
I71
sg94
I85
sg182
I173
sg404
I395
sg169
I160
sg349
I340
sg373
I364
sg274
I265
sg84
I75
sg277
I268
sg331
I322
sg472
I463
sg10
I1
sg268
I259
sg220
I211
sg262
I253
sg302
I293
sg427
I418
sg357
I348
sg355
I346
sg346
I337
sg177
I168
sg64
I55
sg231
I222
sg70
I61
sg240
I231
sg75
I66
sg139
I130
sg145
I136
sg297
I288
sg216
I207
sg283
I274
sg71
I62
sg77
I68
sg441
I432
sg109
I100
sg335
I326
sg285
I276
sg439
I430
sg289
I280
sg377
I368
sg173
I164
sg93
I84
sg124
I115
sg312
I303
sg446
I437
sg106
I97
sg9
I0
sg108
I99
sg265
I256
sg406
I397
sg397
I388
sg157
I148
sg436
I427
sg178
I169
sg226
I217
sg378
I369
sg288
I279
sg116
I107
sg328
I319
sg444
I435
sg99
I90
sg417
I408
sg391
I382
sg114
I105
sg414
I405
sg410
I401
sg20
I11
sg375
I366
sg393
I384
sg450
I441
sg146
I137
sg326
I317
sg396
I387
sg136
I127
sg235
I226
sg205
I196
sg264
I255
sg344
I335
sg429
I420
sg303
I294
sg230
I221
sg242
I233
sg255
I246
sg212
I203
sg305
I296
sg290
I281
sg259
I250
sg107
I98
sg49
I40
sg308
I299
sg238
I229
sg225
I216
sg121
I112
sg48
I39
sg364
I355
sg185
I176
sg400
I391
sg198
I189
sg280
I271
sg258
I249
sg408
I399
sg286
I277
sg181
I172
sg380
I371
sg102
I93
sg405
I396
sg88
I79
sg34
I25
sg127
I118
sg451
I442
sg433
I424
sg141
I132
sg307
I298
sg358
I349
sg376
I367
sg459
I450
sg385
I376
sg271
I262
sg117
I108
sg392
I383
sg272
I263
sg202
I193
sg110
I101
sg97
I88
sg379
I370
sg246
I237
sg317
I308
sg395
I386
sg193
I184
sg53
I44
sg98
I89
sg413
I404
sg447
I438
sg37
I28
sg449
I440
sg360
I351
sg233
I224
sg222
I213
sg386
I377
sg320
I311
sg434
I425
sg247
I238
sg298
I289
sg435
I426
sg52
I43
sg16
I7
sg437
I428
sg73
I64
sg176
I167
sg62
I53
sg159
I150
sg191
I182
sg442
I433
sg266
I257
sg276
I267
sg122
I113
sg41
I32
sg112
I103
sg295
I286
sg40
I31
sg189
I180
sg144
I135
sg29
I20
sg195
I186
sg21
I12
sg188
I179
sg187
I178
sg86
I77
sg164
I155
sg476
I467
sg260
I251
sg471
I462
sg11
I2
sg12
I3
sg399
I390
sg448
I439
sg458
I449
sg412
I403
sg352
I343
sg96
I87
sg319
I310
sg143
I134
sg219
I210
sg204
I195
sg250
I241
sg32
I23
sg131
I122
sg118
I109
sg57
I48
sg218
I209
sg213
I204
sg263
I254
sg90
I81
sg24
I15
sg43
I34
sg236
I227
sg56
I47
sg206
I197
sg229
I220
sg425
I416
sg50
I41
sg69
I60
sg217
I208
sg161
I152
sg210
I201
sg158
I149
sg209
I200
sg474
I465
sg327
I318
sg66
I57
sg92
I83
sg148
I139
sg30
I21
sg105
I96
sg155
I146
sg13
I4
sg248
I239
sg456
I447
sg78
I69
sg180
I171
sg269
I260
sg119
I110
sg120
I111
sg151
I142
sg342
I333
sg338
I329
sg65
I56
sg184
I175
sg239
I230
sg163
I154
sg36
I27
sg304
I295
sg149
I140
sg363
I354
sg140
I131
sg83
I74
sg402
I393
sg311
I302
sg55
I46
sg252
I243
sg128
I119
sg315
I306
sg256
I247
sg192
I183
sg325
I316
sg362
I353
sg26
I17
sg291
I282
sg25
I16
sg424
I415
sg292
I283
sg221
I212
sg227
I218
sg470
I461
sg381
I372
sg421
I412
sg104
I95
sg411
I402
sg359
I350
sg234
I225
sg466
I457
sg228
I219
sg394
I385
sg282
I273
sg200
I191
sg415
I406
sg59
I50
sg457
I448
sg426
I417
sg23
I14
sg208
I199
sg183
I174
sg367
I358
sg211
I202
sg17
I8
sg454
I445
sg351
I342
sg293
I284
sg133
I124
sg58
I49
sg387
I378
sg388
I379
sg46
I37
sg22
I13
sg81
I72
sg310
I301
sg438
I429
sg278
I269
sg67
I58
sg72
I63
sg469
I460
sg167
I158
sg432
I423
sg31
I22
sg445
I436
sg390
I381
sg374
I365
sg61
I52
sg313
I304
sg428
I419
sg281
I272
sg309
I300
sg324
I315
sg175
I166
sg366
I357
sg401
I392
sg38
I29
sg294
I285
sg422
I413
sg113
I104
sg132
I123
sg111
I102
sg473
I464
sg168
I159
sg249
I240
sg103
I94
sg172
I163
sg323
I314
sg241
I232
sg431
I422
sg33
I24
sg87
I78
sg196
I187
sg409
I400
sg101
I92
sg137
I128
sg330
I321
sg207
I198
sg47
I38
sg160
I151
sg334
I325
sg166
I157
sg403
I394
sg341
I332
sg150
I141
sg152
I143
sg430
I421
sg215
I206
sg371
I362
sg214
I205
sg68
I59
sg224
I215
sg74
I65
sg416
I407
sg126
I117
sg237
I228
sg154
I145
sg350
I341
sg369
I360
sg318
I309
sg372
I363
sg44
I35
sg348
I339
sg356
I347
sg223
I214
sg329
I320
sg287
I278
ssS'separator'
p481
S'='
sS'sparse'
p482
I01
sb.