ccopy_reg
_reconstructor
p1
(csklearn.feature_extraction.dict_vectorizer
DictVectorizer
p2
c__builtin__
object
p3
NtRp4
(dp5
S'sort'
p6
I01
sS'feature_names_'
p7
(lp8
S'appos=right'
p9
aS'det=no'
p10
aS'det=the'
p11
aS'poss=#PRP#'
p12
aS'prep=of'
p13
aS'w+1=-lrb-'
p14
aS'w+1=.'
p15
aS'w+1=of'
p16
aS'w+1=outside'
p17
aS'w+2=government'
p18
aS'w+2=right'
p19
aS'w+2=the'
p20
aS'w-1=he'
p21
aS'w-1=its'
p22
aS'w-1=no'
p23
aS'w-1=the'
p24
aS'w-2=.'
p25
aS'w-2=absolutely'
p26
aS'w-2=accept'
p27
aS'w-2=and'
p28
aS'w-2=establish'
p29
aS'w-2=lose'
p30
aS'w-2=which'
p31
asS'dtype'
p32
cnumpy
float64
p33
sS'vocabulary_'
p34
(dp35
g27
I18
sg21
I12
sg10
I1
sg20
I11
sg17
I8
sg26
I17
sg23
I14
sg25
I16
sg11
I2
sg15
I6
sg19
I10
sg12
I3
sg28
I19
sg29
I20
sg31
I22
sg9
I0
sg16
I7
sg18
I9
sg13
I4
sg24
I15
sg14
I5
sg30
I21
sg22
I13
ssS'separator'
p36
S'='
sS'sparse'
p37
I01
sb.