ccopy_reg
_reconstructor
p1
(csklearn.feature_extraction.dict_vectorizer
DictVectorizer
p2
c__builtin__
object
p3
NtRp4
(dp5
S'vocabulary_'
p6
(dp7
S'auxpass=be'
p8
I0
sS'prep=with'
p9
I2
sS'w-2=Amalia'
p10
I6
sS'w+2=they'
p11
I4
sS'w+1=with'
p12
I3
sS'w-1=be'
p13
I5
sS'nsubjpass=Georg'
p14
I1
ssS'dtype'
p15
cnumpy
float64
p16
sS'feature_names_'
p17
(lp18
g8
ag14
ag9
ag12
ag11
ag13
ag10
asS'separator'
p19
S'='
sS'sparse'
p20
I01
sb.