ccopy_reg
_reconstructor
p1
(csklearn.feature_extraction.dict_vectorizer
DictVectorizer
p2
c__builtin__
object
p3
NtRp4
(dp5
S'sort'
p6
I01
sS'feature_names_'
p7
(lp8
S'advcl=get'
p9
aS'advcl=meet'
p10
aS'advcl=sportsman'
p11
aS'advmod=always'
p12
aS'advmod=apparently'
p13
aS'advmod=clearly'
p14
aS'advmod=here'
p15
aS'advmod=lately'
p16
aS'advmod=particularly'
p17
aS'advmod=too'
p18
aS'advmod=very'
p19
aS'aux=be'
p20
aS'aux=can'
p21
aS'aux=have'
p22
aS'aux=to'
p23
aS'auxpass=be'
p24
aS'cc=and'
p25
aS'cc=but'
p26
aS'ccomp=affect'
p27
aS'ccomp=brief'
p28
aS'ccomp=interested'
p29
aS'complm=that'
p30
aS'conj=States'
p31
aS'conj=eager'
p32
aS'conj=head'
p33
aS'dep=concern'
p34
aS'dobj=Iraqis'
p35
aS'dobj=States'
p36
aS'dobj=activist'
p37
aS'dobj=contact'
p38
aS'dobj=desire'
p39
aS'dobj=student'
p40
aS'mark=because'
p41
aS'nsubj=#PRP#'
p42
aS'nsubj=attitude'
p43
aS'nsubj=strike'
p44
aS'nsubj=that'
p45
aS'nsubj=violence'
p46
aS'nsubjpass=#PRP#'
p47
aS'nsubjpass=Catell'
p48
aS'nsubjpass=ETA'
p49
aS'nsubjpass=effort'
p50
aS'nsubjpass=opinion'
p51
aS'nsubjpass=people'
p52
aS'nsubjpass=voter'
p53
aS'nsubjpass=who'
p54
aS'prep=at'
p55
aS'prep=by'
p56
aS'prep=for'
p57
aS'prep=from'
p58
aS'prep=in'
p59
aS'prep=on'
p60
aS'prep=over'
p61
aS'prep=with'
p62
aS"w+1=''"
p63
aS'w+1=at'
p64
aS'w+1=by'
p65
aS'w+1=effort'
p66
aS'w+1=if'
p67
aS'w+1=international'
p68
aS'w+1=many'
p69
aS'w+1=on'
p70
aS'w+1=over'
p71
aS'w+1=that'
p72
aS'w+1=the'
p73
aS'w+1=to'
p74
aS'w+1=try'
p75
aS'w+1=when'
p76
aS'w+1=with'
p77
aS'w+1=woman'
p78
aS"w+2='s"
p79
aS'w+2=Congress'
p80
aS'w+2=Iraqis'
p81
aS'w+2=Millie'
p82
aS'w+2=United'
p83
aS'w+2=authoritarian'
p84
aS'w+2=censorship'
p85
aS'w+2=contact'
p86
aS'w+2=continue'
p87
aS'w+2=demand'
p88
aS'w+2=desire'
p89
aS'w+2=economic'
p90
aS'w+2=find'
p91
aS'w+2=for'
p92
aS'w+2=have'
p93
aS'w+2=republican'
p94
aS'w+2=rise'
p95
aS'w+2=sometimes'
p96
aS'w+2=standing'
p97
aS'w+2=student'
p98
aS'w+2=the'
p99
aS'w+2=this'
p100
aS'w+2=to'
p101
aS'w+2=we'
p102
aS'w+2=you'
p103
aS"w-1=''"
p104
aS'w-1=,'
p105
aS'w-1=.'
p106
aS'w-1=always'
p107
aS'w-1=and'
p108
aS'w-1=apparently'
p109
aS'w-1=appear'
p110
aS'w-1=be'
p111
aS'w-1=can'
p112
aS'w-1=clearly'
p113
aS'w-1=member'
p114
aS'w-1=particularly'
p115
aS'w-1=strike'
p116
aS'w-1=that'
p117
aS'w-1=to'
p118
aS'w-1=very'
p119
aS'w-1=violence'
p120
aS"w-2='ll"
p121
aS'w-2=,'
p122
aS'w-2=Catell'
p123
aS'w-2=ETA'
p124
aS'w-2=Uganda'
p125
aS'w-2=appear'
p126
aS'w-2=be'
p127
aS'w-2=continue'
p128
aS'w-2=down'
p129
aS'w-2=effort'
p130
aS'w-2=gap'
p131
aS'w-2=have'
p132
aS'w-2=he'
p133
aS'w-2=here'
p134
aS'w-2=it'
p135
aS'w-2=people'
p136
aS'w-2=pilgrim'
p137
aS'w-2=service'
p138
aS'w-2=team'
p139
aS'w-2=the'
p140
aS'w-2=they'
p141
aS'w-2=try'
p142
aS'w-2=union'
p143
aS'w-2=voter'
p144
aS'xcomp=block'
p145
aS'xcomp=consider'
p146
aS'xcomp=find'
p147
aS'xcomp=live'
p148
aS'xcomp=sustain'
p149
aS'xcomp=try'
p150
asS'dtype'
p151
cnumpy
float64
p152
sS'vocabulary_'
p153
(dp154
g14
I5
sg89
I80
sg98
I89
sg86
I77
sg13
I4
sg136
I127
sg52
I43
sg68
I59
sg46
I37
sg35
I26
sg71
I62
sg84
I75
sg36
I27
sg90
I81
sg134
I125
sg74
I65
sg141
I132
sg118
I109
sg17
I8
sg56
I47
sg96
I87
sg72
I63
sg10
I1
sg107
I98
sg142
I133
sg38
I29
sg140
I131
sg133
I124
sg120
I111
sg113
I104
sg77
I68
sg37
I28
sg99
I90
sg55
I46
sg64
I55
sg122
I113
sg62
I53
sg22
I13
sg149
I140
sg111
I102
sg106
I97
sg105
I96
sg87
I78
sg112
I103
sg129
I120
sg83
I74
sg16
I7
sg39
I30
sg135
I126
sg128
I119
sg34
I25
sg41
I32
sg31
I22
sg103
I94
sg138
I129
sg148
I139
sg101
I92
sg70
I61
sg57
I48
sg114
I105
sg9
I0
sg40
I31
sg53
I44
sg146
I137
sg95
I86
sg85
I76
sg69
I60
sg91
I82
sg43
I34
sg75
I66
sg126
I117
sg24
I15
sg21
I12
sg30
I21
sg27
I18
sg115
I106
sg150
I141
sg100
I91
sg33
I24
sg12
I3
sg131
I122
sg54
I45
sg94
I85
sg25
I16
sg147
I138
sg130
I121
sg44
I35
sg73
I64
sg51
I42
sg49
I40
sg66
I57
sg23
I14
sg48
I39
sg121
I112
sg79
I70
sg139
I130
sg47
I38
sg123
I114
sg18
I9
sg67
I58
sg59
I50
sg28
I19
sg132
I123
sg82
I73
sg143
I134
sg42
I33
sg29
I20
sg58
I49
sg104
I95
sg116
I107
sg76
I67
sg63
I54
sg125
I116
sg119
I110
sg26
I17
sg144
I135
sg93
I84
sg81
I72
sg61
I52
sg145
I136
sg137
I128
sg50
I41
sg97
I88
sg32
I23
sg92
I83
sg45
I36
sg78
I69
sg108
I99
sg15
I6
sg19
I10
sg65
I56
sg124
I115
sg102
I93
sg80
I71
sg11
I2
sg127
I118
sg88
I79
sg109
I100
sg60
I51
sg117
I108
sg20
I11
sg110
I101
ssS'separator'
p155
S'='
sS'sparse'
p156
I01
sb.