ccopy_reg
_reconstructor
p1
(csklearn.feature_extraction.dict_vectorizer
DictVectorizer
p2
c__builtin__
object
p3
NtRp4
(dp5
S'vocabulary_'
p6
(dp7
S'advmod=then'
p8
I15
sS'w+1=become'
p9
I394
sS'amod=small'
p10
I88
sS'w-1=major'
p11
I990
sS'w+1=they'
p12
I516
sS'w+2=full'
p13
I708
sS'w+2=Michael'
p14
I598
sS'amod=pakistani'
p15
I76
sS'w+2=newly'
p16
I744
sS'w-2=british'
p17
I1139
sS'w+2=star'
p18
I802
sS'amod=short'
p19
I87
sS'det=no'
p20
I196
sS'w+2=much-needed'
p21
I741
sS'w+1=shoot'
p22
I497
sS'amod=groovy'
p23
I46
sS'w-1=war'
p24
I1063
sS'appos=Rocky'
p25
I107
sS'w-1=1969'
p26
I856
sS'w-2=original'
p27
I1242
sS'w-1=anti-whaling'
p28
I907
sS'w-1=top'
p29
I1057
sS"w-1='"
p30
I845
sS'w+2=apocolypto'
p31
I635
sS'w-1=cripple'
p32
I935
sS'w-2=first'
p33
I1181
sS'w+2=Hamm'
p34
I573
sS'w-1=1962'
p35
I854
sS'w+1=cover'
p36
I411
sS'w-1=australian'
p37
I912
sS'dep=number'
p38
I184
sS'nn=fantasy-adventure'
p39
I234
sS'w+2=proper'
p40
I770
sS'rcmod=have'
p41
I329
sS'w+2=next'
p42
I746
sS'w+1=part'
p43
I478
sS'nn=Kramer'
p44
I218
sS'w+2=but'
p45
I653
sS'nn=Bollywood'
p46
I211
sS'w+2=very'
p47
I824
sS'w+2=patriot'
p48
I760
sS'w-1=debut'
p49
I938
sS'w+1=writer'
p50
I541
sS'w-1=100'
p51
I851
sS'w+1=adaptation'
p52
I377
sS'w+2=mo'
p53
I737
sS'w-2=new'
p54
I1231
sS'w-1=Hindi'
p55
I884
sS'amod=smaller'
p56
I90
sS'w+2=soul'
p57
I799
sS'nsubjpass=sequence'
p58
I263
sS'w-2=enter'
p59
I1174
sS'w-2=young'
p60
I1325
sS'nsubj=Kodachrome'
p61
I250
sS'w-1=sci-fus'
p62
I1024
sS'w-1=detective'
p63
I940
sS'w-2=open'
p64
I1240
sS'w+2=dead'
p65
I674
sS'w-1=third'
p66
I1050
sS'dep=Stone'
p67
I171
sS'w+1=depict'
p68
I416
sS'w-2=base'
p69
I1129
sS'w+2=hottest'
p70
I716
sS'w-2=radio'
p71
I1257
sS'w-2=effect'
p72
I1169
sS'w+2=Noriega'
p73
I602
sS'nn=Disney'
p74
I212
sS'w-2=Ultimatum'
p75
I1102
sS'prep=by'
p76
I305
sS'prep=between'
p77
I304
sS'w-1=,'
p78
I848
sS'conj=novel'
p79
I147
sS'dep=Munnabhai'
p80
I169
sS'w+1=that'
p81
I513
sS'w-1=create'
p82
I934
sS'amod=oscar-worthy'
p83
I73
sS'w-1=action'
p84
I896
sS'w+2=Jean'
p85
I583
sS'ccomp=complete'
p86
I126
sS'w+2=writer-director'
p87
I842
sS'w+2=character'
p88
I658
sS'amod=gross'
p89
I47
sS'w-1=during'
p90
I944
sS'w-2=advertisement'
p91
I1115
sS'w+1=Khuda'
p92
I362
sS'w-1=deeper'
p93
I939
sS'amod=highest-grossing'
p94
I50
sS'conj=comedy-thriller'
p95
I136
sS'w+1=Beowulf'
p96
I353
sS'w-1=Cannes'
p97
I879
sS'w-1=popular'
p98
I1017
sS'w+2=base'
p99
I642
sS'w+2=director'
p100
I680
sS'w-2=more'
p101
I1224
sS'w-2=Harryhausen'
p102
I1092
sS'w-1=new'
p103
I997
sS'w-2=romantic'
p104
I1263
sS'w-2=stingray'
p105
I1280
sS'conj=any'
p106
I134
sS'w+1=top'
p107
I520
sS'w-2=computer-animated'
p108
I1153
sS'poss=year'
p109
I297
sS'w+2=Scorpion'
p110
I609
sS'prep=follow'
p111
I306
sS'w-2=from'
p112
I1186
sS'w+2=well'
p113
I827
sS'w+2=Hannibal'
p114
I574
sS'appos=song'
p115
I114
sS'w+2=several'
p116
I791
sS'w+2=tree'
p117
I818
sS'w-2=cancel'
p118
I1143
sS'w+2=distributor'
p119
I681
sS'rcmod=get'
p120
I327
sS'w-1=highest-grossing'
p121
I970
sS'w-2=who'
p122
I1318
sS'conj=series'
p123
I151
sS'w-1=small-budget'
p124
I1035
sS'w-1=american'
p125
I901
sS'w+2=begin'
p126
I648
sS'conj=documentary'
p127
I138
sS'w-1=by'
p128
I925
sS'w+2=stage'
p129
I801
sS'w-2=gross'
p130
I1196
sS'w-1=be'
p131
I914
sS'w-2=among'
p132
I1121
sS'nsubjpass=celebrity'
p133
I260
sS'rcmod=feature'
p134
I326
sS'w+1=transcend'
p135
I521
sS'w-1=three-day'
p136
I1055
sS'w-2=groovy'
p137
I1195
sS'w+2=somali-born'
p138
I795
sS'w+1=school'
p139
I492
sS'w-2=shoot'
p140
I1273
sS'w+2=internet'
p141
I722
sS'amod=well-received'
p142
I99
sS'w-2=20'
p143
I1077
sS'w-2=actress'
p144
I1112
sS'w+1=through'
p145
I518
sS'w+1=``'
p146
I372
sS'nn=Wars'
p147
I221
sS'amod=gothic'
p148
I45
sS'amod=imaginative'
p149
I53
sS'w+2=FESPACO'
p150
I569
sS'w-1=bollywood-style'
p151
I920
sS'amod=environmental'
p152
I39
sS'w+1=editing'
p153
I424
sS'w+1=help'
p154
I443
sS'w-2=mean'
p155
I1223
sS'nn=hit'
p156
I239
sS'partmod=make'
p157
I274
sS'nn=Hausa'
p158
I214
sS'w+2=country'
p159
I670
sS'amod=most'
p160
I65
sS'w+1=of'
p161
I470
sS'w-2=2003'
p162
I1078
sS'w+2=atrocity'
p163
I640
sS'nn=debut'
p164
I230
sS'w+2=cop'
p165
I669
sS'w-2=2006'
p166
I1079
sS'w+2=to'
p167
I817
sS'conj=dozen'
p168
I139
sS'w-2=many'
p169
I1221
sS'w-2=span'
p170
I1277
sS'w+2=first'
p171
I704
sS'w+2=tv'
p172
I820
sS'w-1=art'
p173
I909
sS'appos=country'
p174
I110
sS'w-2=fund'
p175
I1189
sS'w-1=some'
p176
I1037
sS'w+2=broadcast'
p177
I651
sS'w-2=during'
p178
I1168
sS'amod=better'
p179
I27
sS'dep=patriot'
p180
I185
sS'rcmod=like'
p181
I332
sS'w-1=40th'
p182
I871
sS'ccomp=say'
p183
I128
sS'w+2=fail'
p184
I698
sS'amod=emotional'
p185
I36
sS'w+1=United'
p186
I371
sS'w+2=postpone'
p187
I767
sS'w-1=semi-documentary'
p188
I1026
sS'dep=World'
p189
I174
sS'conj=studio'
p190
I155
sS'w+1=mark'
p191
I463
sS'w+2=why'
p192
I834
sS'w+1=feature'
p193
I432
sS'w+2=it'
p194
I723
sS'w+2=cast'
p195
I656
sS'w-2=prepare'
p196
I1250
sS'nn=Fox'
p197
I213
sS'amod=popular'
p198
I78
sS'w+2=who'
p199
I833
sS'w-2=only'
p200
I1239
sS'w-1=second'
p201
I1025
sS'advmod=once'
p202
I13
sS'rcmod=Got'
p203
I315
sS'complm=that'
p204
I129
sS'w+2=San'
p205
I607
sS'w+2=protest'
p206
I771
sS'w+1=alien'
p207
I379
sS'w-1=those'
p208
I1052
sS'w+1=expose'
p209
I431
sS'amod=english-language'
p210
I37
sS'w-2=Youths'
p211
I1105
sS'advmod=at'
p212
I7
sS'w-2=break'
p213
I1138
sS'poss=America'
p214
I284
sS'w-1=emotional'
p215
I947
sS'nn=heist'
p216
I238
sS'tmod=#DATE#'
p217
I343
sS'poss=other'
p218
I293
sS'w-1=whose'
p219
I1067
sS'w-1=next'
p220
I998
sS'w+1=tell'
p221
I512
sS'advcl=be'
p222
I0
sS'w-1=more'
p223
I994
sS'w+2=by'
p224
I654
sS'w+2=Kite'
p225
I590
sS'w+1=the'
p226
I514
sS'w+2=fill'
p227
I702
sS'w+2=Ruppert'
p228
I606
sS'w+2=produce'
p229
I768
sS'advmod=allegedly'
p230
I5
sS'rcmod=receive'
p231
I337
sS'w-2=finish'
p232
I1180
sS'w+2=be'
p233
I644
sS'w+1=producer'
p234
I484
sS'poss=Wajda'
p235
I291
sS'w+2=add'
p236
I625
sS'w-2=celebrate'
p237
I1145
sS'w-1=gross'
p238
I964
sS'w-2=my'
p239
I1229
sS'w-1=develop'
p240
I941
sS'amod=typical'
p241
I96
sS'amod=indian'
p242
I55
sS'nsubjpass=#PRP#'
p243
I258
sS'w+1=submission'
p244
I507
sS'conj=literature'
p245
I144
sS'prep=in'
p246
I309
sS'predet=the'
p247
I300
sS'aux=would'
p248
I119
sS'conj=host'
p249
I142
sS'w-2=reason'
p250
I1258
sS'w+1=for'
p251
I436
sS'amod=historical'
p252
I51
sS'nn=Twilight'
p253
I219
sS'ccomp=away'
p254
I124
sS'w-1=comedy'
p255
I931
sS'w-2=Century'
p256
I1089
sS'w+2=dance'
p257
I672
sS'w+1=legend'
p258
I454
sS'w+1=often'
p259
I471
sS'w-2=inspire'
p260
I1207
sS'w-1=and'
p261
I902
sS'w+2=multi-media'
p262
I742
sS'w-2=by'
p263
I1141
sS'w-2=recent'
p264
I1259
sS'w-1=from'
p265
I962
sS'w+2=oscar-winning'
p266
I757
sS'amod=original'
p267
I71
sS'w-2=a'
p268
I1107
sS'w+2=rally'
p269
I775
sS'w-2=condemn'
p270
I1154
sS'w+2=come'
p271
I665
sS'amod=old'
p272
I70
sS'poss=Vision'
p273
I290
sS'w+2=documentary'
p274
I683
sS'w+1=and'
p275
I383
sS'w-1=they'
p276
I1049
sS'conj=opera'
p277
I148
sS'appos=apocolypto'
p278
I108
sS'poss=today'
p279
I294
sS'w-2=project'
p280
I1254
sS'w+2=how'
p281
I717
sS'w+1=look'
p282
I458
sS'w-2=science'
p283
I1265
sS'prep=for'
p284
I307
sS'amod=prominent'
p285
I80
sS'w-2=stunt'
p286
I1282
sS'w-2=Ponti'
p287
I1096
sS'w+2=shoot'
p288
I792
sS'w+2=prompt'
p289
I769
sS'w+2=for'
p290
I705
sS'w+1=Dumbo'
p291
I357
sS'w+2=Franco'
p292
I572
sS'w+1=any'
p293
I385
sS'w+2=Rocky'
p294
I605
sS'appos=Network'
p295
I106
sS'w-2=because'
p296
I1131
sS'nsubj=that'
p297
I255
sS'dobj=Twilight'
p298
I204
sS'w-1=successful'
p299
I1043
sS'w-1=low-budget'
p300
I989
sS'w-2=ban'
p301
I1128
sS'dep=any'
p302
I176
sS'w+1=almost'
p303
I380
sS'w+2=established'
p304
I693
sS'det=this'
p305
I201
sS'w-1=cult'
p306
I936
sS'w+2=line'
p307
I729
sS'w-2=feature'
p308
I1177
sS'w-1=in'
p309
I977
sS'dobj=movie'
p310
I207
sS'w+2=we'
p311
I826
sS'w+1=we'
p312
I528
sS'w-1=withering'
p313
I1069
sS'w-2=several'
p314
I1271
sS'w+1=poke'
p315
I480
sS'conj=filmmaker'
p316
I141
sS'w+2=secret'
p317
I789
sS'w+1=project'
p318
I486
sS'w-1=animated'
p319
I903
sS'w+2=IranAlysse'
p320
I580
sS'w-2=portray'
p321
I1249
sS'w+2=Thomas'
p322
I614
sS'w-1=use'
p323
I1061
sS'rcmod=protest'
p324
I336
sS'w-1=early'
p325
I946
sS'w-1=short'
p326
I1031
sS'w+2=act'
p327
I623
sS'w-2=light-hearted'
p328
I1214
sS'w-1=feature'
p329
I955
sS'w-1=french'
p330
I960
sS'w-2=travel'
p331
I1304
sS'w+2=african'
p332
I627
sS'conj=production'
p333
I149
sS'w+2=compete'
p334
I666
sS'amod=first'
p335
I41
sS'nn=street'
p336
I246
sS'w+2=not'
p337
I748
sS'nn=horror'
p338
I240
sS'w-2=toward'
p339
I1302
sS'advmod=where'
p340
I18
sS'appos=other'
p341
I113
sS'w-1=bosnian'
p342
I921
sS'w-2=Sondheim'
p343
I1098
sS'amod=american'
p344
I21
sS'advmod=constantly'
p345
I8
sS'rcmod=direct'
p346
I321
sS'conj=advertisement'
p347
I133
sS'w-2=kind'
p348
I1212
sS'w-2=Gore'
p349
I1091
sS'rcmod=be'
p350
I318
sS'w+2=122'
p351
I548
sS'amod=#NUMBER#'
p352
I19
sS'w+2=music'
p353
I743
sS'w-1=Hollywood'
p354
I885
sS'w-1=Hausa'
p355
I883
sS'w-1=like'
p356
I988
sS'w-1=current'
p357
I937
sS'w+2=something'
p358
I797
sS'w+1=have'
p359
I441
sS'w+2=Walt'
p360
I618
sS'partmod=write'
p361
I282
sS'w-1=fantasy'
p362
I953
sS'tmod=Tron'
p363
I344
sS'det=the'
p364
I199
sS'w+1=very'
p365
I527
sS'w-2=its'
p366
I1210
sS'det=these'
p367
I200
sS'w-2=make'
p368
I1220
sS'w+1=worldwide'
p369
I539
sS'w-2=through'
p370
I1297
sS'prep=include'
p371
I310
sS'w-2=,'
p372
I1072
sS'conj=blockbuster'
p373
I135
sS'w-2=watch'
p374
I1310
sS'w-2=we'
p375
I1311
sS'w+2=Toronto'
p376
I615
sS'w+2=where'
p377
I830
sS'w+2=2002'
p378
I551
sS'w-2=or'
p379
I1241
sS'w+2=draw'
p380
I685
sS'w-1=80'
p381
I875
sS'w+1=devotee'
p382
I417
sS'amod=animated'
p383
I22
sS'w+2=Sarandon'
p384
I608
sS'w+2=set'
p385
I790
sS'w-1=family'
p386
I952
sS'poss=child'
p387
I292
sS'w+1=work'
p388
I537
sS'w+1=can'
p389
I400
sS'w-1=recent'
p390
I1021
sS'w-2=on'
p391
I1237
sS'w-1=later'
p392
I986
sS'w+2=fifth'
p393
I701
sS'w+2=demonstration'
p394
I676
sS'w+2=Lage'
p395
I594
sS'w-1=first'
p396
I958
sS'w+2=entertainment'
p397
I689
sS'w+1=actor'
p398
I375
sS'w-1=two'
p399
I1058
sS'w-2=often'
p400
I1236
sS'w+2=spending'
p401
I800
sS'w+1=Kabluey'
p402
I361
sS'dobj=#PRP#'
p403
I203
sS'w-2=hit'
p404
I1200
sS'w-2=do'
p405
I1164
sS'dep=Beowulf'
p406
I167
sS'w+2=Krishh'
p407
I591
sS'nsubjpass=much'
p408
I261
sS'w+2=adapt'
p409
I624
sS'poss=Gibson'
p410
I286
sS'w-2=which'
p411
I1316
sS'appos=#NUMBER#'
p412
I100
sS'poss=Gore'
p413
I287
sS'w+1=showcase'
p414
I500
sS'w-2=child'
p415
I1146
sS'w-2=fun'
p416
I1188
sS'w+2=entirely'
p417
I690
sS'w-2=remember'
p418
I1261
sS'partmod=inspire'
p419
I273
sS'w-1=40'
p420
I870
sS'w+2=AIDS'
p421
I555
sS'w-1=night'
p422
I999
sS'w-2=Star'
p423
I1100
sS'w-2=delay'
p424
I1159
sS'w+2=bulky'
p425
I652
sS'w-2=contribution'
p426
I1155
sS'w+2=allow'
p427
I629
sS'w+1=still'
p428
I504
sS'w+1=call'
p429
I399
sS'w+1=prize'
p430
I483
sS'w-2=take'
p431
I1287
sS'w-2=and'
p432
I1122
sS'w+2=quickly'
p433
I774
sS'w+1=come'
p434
I406
sS'w+1=as'
p435
I386
sS'nn=fantasy'
p436
I233
sS'w-1=horror'
p437
I975
sS'w+1=at'
p438
I388
sS'w+1=monster'
p439
I466
sS'w+1=capital'
p440
I401
sS'w+1=concept'
p441
I409
sS'amod=political'
p442
I77
sS'w-1=veteran'
p443
I1062
sS'w+2=all'
p444
I628
sS'w+1=take'
p445
I511
sS'rcmod=adapt'
p446
I317
sS'w-2=than'
p447
I1288
sS'w+2=recover'
p448
I782
sS'w+2=question'
p449
I773
sS'w+2=non-african'
p450
I747
sS'w+1=comedy'
p451
I407
sS'w-2=Hausa'
p452
I1093
sS'w-1=environmental'
p453
I949
sS'nsubj=story'
p454
I254
sS'w+2=fanny'
p455
I699
sS'w+2=live'
p456
I730
sS'w-1=into'
p457
I981
sS'dep=Barbarian'
p458
I166
sS'w+1=Persepolis'
p459
I366
sS'w+1=make'
p460
I460
sS'w-1=but'
p461
I924
sS'w+1=stock'
p462
I505
sS'w+2=fresh'
p463
I706
sS'w-2=able'
p464
I1108
sS'ccomp=be'
p465
I125
sS'advcl=shoot'
p466
I2
sS'det=some'
p467
I197
sS'w-2=ensure'
p468
I1173
sS'amod=romantic'
p469
I82
sS'w-2=this'
p470
I1295
sS'w-2=behind'
p471
I1134
sS'w+1=usually'
p472
I525
sS'w+2=Mr.'
p473
I600
sS'w+1=where'
p474
I531
sS'w+2=1978'
p475
I550
sS'advmod=elaborate'
p476
I9
sS'w+2=popular'
p477
I765
sS'advmod=when'
p478
I17
sS'det=those'
p479
I202
sS'w+2=dark'
p480
I673
sS'nn=Batman'
p481
I210
sS'rcmod=explore'
p482
I324
sS'rcmod=dramatize'
p483
I323
sS'w+2=with'
p484
I838
sS'w+1=production'
p485
I485
sS'dep=#PRP#'
p486
I164
sS'w-2=she'
p487
I1272
sS'amod=bollywood-style'
p488
I28
sS'dep=story'
p489
I190
sS'nn=War'
p490
I220
sS'w+2=location'
p491
I731
sS'partmod=call'
p492
I270
sS'w+2=perplexing'
p493
I761
sS'w+2=Tree'
p494
I616
sS'w+1=draw'
p495
I421
sS'amod=low-budget'
p496
I61
sS'w-2=write'
p497
I1322
sS'w+2=describe'
p498
I677
sS'w+2=scratch'
p499
I788
sS'w-1=allegedly'
p500
I900
sS'w+2=they'
p501
I815
sS'w+2=look'
p502
I732
sS'w-1=better'
p503
I919
sS'conj=music'
p504
I146
sS'w+2=talk'
p505
I807
sS'w+2=at'
p506
I639
sS'w-2=good'
p507
I1193
sS'w+2=edit'
p508
I687
sS'w+2=these'
p509
I814
sS'w-2=classic'
p510
I1148
sS'w+2=1938'
p511
I549
sS'w+2=as'
p512
I638
sS'w-2=select'
p513
I1268
sS'w+2=worth'
p514
I840
sS'w+1=balance'
p515
I389
sS'w+2=include'
p516
I720
sS'w-1=Watch'
p517
I894
sS'w+1=would'
p518
I540
sS'w+2=which'
p519
I831
sS'w+2=while'
p520
I832
sS'conj=thing'
p521
I157
sS'w-2=Spike'
p522
I1099
sS'dep=#NUMBER#'
p523
I163
sS'w-2=life'
p524
I1213
sS'w-2=Theater'
p525
I1101
sS'auxpass=be'
p526
I120
sS'w+2=tell'
p527
I809
sS'w+2=Story'
p528
I612
sS'w-1=celluloid'
p529
I927
sS'w+2=Baba'
p530
I559
sS"w-1='s"
p531
I847
sS'w-2=ideally'
p532
I1202
sS'w-2=year'
p533
I1323
sS'partmod=re-release'
p534
I276
sS'w+2=Jihad'
p535
I584
sS'w-2=think'
p536
I1294
sS'w+1=set'
p537
I496
sS'w+2=Diamond'
p538
I566
sS'amod=top'
p539
I95
sS'w-1=Bollywood'
p540
I878
sS'w-1=10'
p541
I850
sS'w-2=approach'
p542
I1124
sS'w+2=Andrzej'
p543
I557
sS'w-2=over'
p544
I1245
sS'w+1=use'
p545
I524
sS'w-1=asian'
p546
I911
sS'w+2=Robert'
p547
I604
sS'w-2=full-length'
p548
I1187
sS'w+1=role'
p549
I490
sS'w+2=schedule'
p550
I787
sS'num=dozen'
p551
I267
sS'w+2=love'
p552
I733
sS'w+1=critic'
p553
I414
sS'w+1=there'
p554
I515
sS'dep=London'
p555
I168
sS'w+2=recent'
p556
I780
sS'w+1=festival'
p557
I434
sS'w-1=classic'
p558
I929
sS'w-1=coming-of-age'
p559
I932
sS'nsubjpass=statement'
p560
I264
sS'w+1=like'
p561
I455
sS'w+1=franchise'
p562
I437
sS'w+2=poor'
p563
I764
sS'w+2=finish'
p564
I703
sS'w+2=steadily'
p565
I803
sS'w+2=global'
p566
I709
sS'w+2=really'
p567
I778
sS'w+1=o'
p568
I469
sS'w-1=prolific'
p569
I1019
sS'w+2=elevate'
p570
I688
sS'w-2=popular'
p571
I1248
sS'w-2=dimension'
p572
I1162
sS'w+2=color'
p573
I664
sS'w+2=IndiaNew'
p574
I578
sS'w+1=gear'
p575
I439
sS'w-1=annual'
p576
I904
sS'w+2=Ledger'
p577
I595
sS'w-2=body'
p578
I1136
sS'w+1=script'
p579
I493
sS'w+2=opposite'
p580
I755
sS'w-2=oscar-winning'
p581
I1243
sS'nn=night'
p582
I242
sS'w-1=50'
p583
I873
sS'dep=question'
p584
I186
sS'w+2=Denzel'
p585
I565
sS'w-2=imagine'
p586
I1203
sS'w+2=soon'
p587
I798
sS'w+2=Central'
p588
I563
sS'w-1=indian'
p589
I979
sS'w-2=most'
p590
I1225
sS'w+2=have'
p591
I711
sS'prep=on'
p592
I313
sS'w+1=Red'
p593
I368
sS'advmod=secretly'
p594
I14
sS'w-2=that'
p595
I1289
sS'w-1=upcome'
p596
I1059
sS'w-2=non-african'
p597
I1232
sS'w-1=no'
p598
I1000
sS'w-1=oscar-worthy'
p599
I1009
sS'w-1=three'
p600
I1054
sS'advcl=tell'
p601
I3
sS'w-2=submit'
p602
I1283
sS'w-2=allow'
p603
I1118
sS'conj=television'
p604
I156
sS'w-2=documentary'
p605
I1165
sS'w+2=Pirates'
p606
I603
sS'w+1=start'
p607
I503
sS'w+1=provide'
p608
I487
sS'w+1=debut'
p609
I415
sS'nsubj=this'
p610
I256
sS'w+2=choice'
p611
I659
sS'w-2=``'
p612
I1106
sS'w+2=of'
p613
I750
sS'w+1=explore'
p614
I430
sS'nn=war'
p615
I247
sS'nsubj=vintage'
p616
I257
sS'w-1=one'
p617
I1006
sS'w+2=on'
p618
I751
sS'w+1=to'
p619
I519
sS'w-1=48-hour'
p620
I872
sS'det=that'
p621
I198
sS'amod=major'
p622
I62
sS'w-1=every'
p623
I950
sS'w-1=propaganda'
p624
I1020
sS'w+2=he'
p625
I712
sS'w+2=make'
p626
I734
sS'conj=resource'
p627
I150
sS'w-1=political'
p628
I1015
sS'w+1=analysis'
p629
I382
sS'w+1=populated'
p630
I481
sS'w-2=role'
p631
I1262
sS'rcmod=tell'
p632
I342
sS'w-1=english-language'
p633
I948
sS'w-1=20'
p634
I862
sS'w+2=billion'
p635
I649
sS'w+1=lineup'
p636
I456
sS'w+2=India'
p637
I577
sS'partmod=star'
p638
I279
sS'w-1=any'
p639
I908
sS'w+2=Fitna'
p640
I571
sS'w-2=move'
p641
I1226
sS'w-2=lot'
p642
I1216
sS'w+1=include'
p643
I447
sS'w-1=while'
p644
I1066
sS'w-1=popcorn-action'
p645
I1016
sS'w-1=come'
p646
I930
sS'w+2=say'
p647
I786
sS'nn=family'
p648
I232
sS'amod=oscar-winning'
p649
I72
sS'prep=without'
p650
I314
sS'w+2=Cabaret'
p651
I562
sS'w+1=location'
p652
I457
sS'w-2=low-budget'
p653
I1218
sS'w+2=Islam'
p654
I581
sS'w-1=1995'
p655
I861
sS'advmod=far'
p656
I10
sS'w+2=recommend'
p657
I781
sS'w-1=scene'
p658
I1022
sS'w-2=add'
p659
I1114
sS'w+1=last'
p660
I453
sS'w+2=September'
p661
I610
sS'w+2=opening'
p662
I754
sS"w-2='s"
p663
I1071
sS'w-2=Rights'
p664
I1097
sS'w-1=she'
p665
I1030
sS'w-2=you'
p666
I1324
sS'w-2=actor'
p667
I1111
sS'advcl=have'
p668
I1
sS'advmod=up'
p669
I16
sS'w+2=from'
p670
I707
sS'w-2=capture'
p671
I1144
sS'w-1=1967'
p672
I855
sS'w-2=after'
p673
I1116
sS'w-2=sequence'
p674
I1269
sS'partmod=base'
p675
I269
sS'w+2=claim'
p676
I662
sS'w+1=Christmas'
p677
I354
sS'dep=man'
p678
I182
sS'amod=successful'
p679
I92
sS'w+2=rely'
p680
I784
sS'rcmod=play'
p681
I334
sS'rcmod=describe'
p682
I320
sS'advmod=often'
p683
I12
sS'w-2=emphasis'
p684
I1171
sS'predet=all'
p685
I299
sS'w-2=go'
p686
I1192
sS'w+2=fahrenheit'
p687
I697
sS'w+1=show'
p688
I499
sS'w+2=would'
p689
I841
sS"w+2='"
p690
I542
sS'det=another'
p691
I194
sS'w+1=because'
p692
I393
sS'w-2=swedish'
p693
I1286
sS'xcomp=add'
p694
I1326
sS'w+2=every'
p695
I694
sS'w-2=Bergman'
p696
I1088
sS'w+2=Joya'
p697
I585
sS'w-1=hindi-language'
p698
I971
sS'w-2=they'
p699
I1293
sS'w-2=spool'
p700
I1278
sS'w-2=material'
p701
I1222
sS'amod=history-every'
p702
I52
sS'w+1=over'
p703
I477
sS'amod=semi-documentary'
p704
I84
sS'conj=u.s.-produced'
p705
I159
sS'w-2=into'
p706
I1208
sS'w+2=much'
p707
I740
sS'w+2=Stone'
p708
I611
sS'w-2=mumbai-based'
p709
I1227
sS'w+2=history'
p710
I715
sS'w-2=statement'
p711
I1279
sS'w-2=gothic'
p712
I1194
sS'w+2=Hollywood'
p713
I575
sS'w+2=93'
p714
I552
sS'w-2=explain'
p715
I1176
sS'w+2=receive'
p716
I779
sS'w+2=this'
p717
I816
sS'amod=subsequent'
p718
I91
sS'w-2=end'
p719
I1172
sS'w+2=Britain'
p720
I560
sS'cop=become'
p721
I162
sS'nn=feature'
p722
I235
sS'w-1=the'
p723
I1047
sS'w+2=in'
p724
I719
sS'w+1=between'
p725
I396
sS'amod=later'
p726
I58
sS'rcmod=release'
p727
I338
sS'w-2=five'
p728
I1182
sS"w-1=''"
p729
I846
sS'w+1=directly'
p730
I418
sS'w-1=other'
p731
I1010
sS'amod=good'
p732
I44
sS'nn=propaganda'
p733
I244
sS'w-1=cameraman'
p734
I926
sS'w-1=language'
p735
I984
sS'conj=wall'
p736
I160
sS'amod=best'
p737
I26
sS'w-2=adapt'
p738
I1113
sS'conj=#NUMBER#'
p739
I130
sS'dobj=documentary'
p740
I206
sS'w-2=conviction'
p741
I1156
sS'w-2=?'
p742
I1083
sS'w+1=Guess'
p743
I359
sS'w-1=win'
p744
I1068
sS'amod=feature-length'
p745
I40
sS'amod=high-quality'
p746
I49
sS'amod=new'
p747
I67
sS'rcmod=store'
p748
I341
sS'w-2=detective'
p749
I1160
sS'w-2=week'
p750
I1312
sS'w+2=reach'
p751
I776
sS'w-2=with'
p752
I1320
sS'w+1=secretly'
p753
I494
sS'w-2=also'
p754
I1119
sS'w-1=32'
p755
I869
sS'rcmod=act'
p756
I316
sS'num=more'
p757
I268
sS'w-2=industry'
p758
I1206
sS'w-1=Lee'
p759
I888
sS'w-2=three'
p760
I1296
sS'expl=there'
p761
I208
sS'w-2=frame'
p762
I1185
sS'w+2=Sunday'
p763
I613
sS'w-1=against'
p764
I899
sS'w-2=highest'
p765
I1199
sS'rcmod=hope'
p766
I330
sS'w+2=another'
p767
I634
sS'w-2=it'
p768
I1209
sS'w-1=well-received'
p769
I1065
sS'cc=or'
p770
I122
sS'w-1=hit'
p771
I974
sS'w-1=1987'
p772
I858
sS'amod=novel'
p773
I69
sS'w-1=1989'
p774
I859
sS'w-2=play'
p775
I1247
sS'w+1=when'
p776
I530
sS'w+2=call'
p777
I655
sS'w-2=exchange'
p778
I1175
sS'w-2=time'
p779
I1298
sS'w-2=come'
p780
I1150
sS'w-1=most'
p781
I995
sS'w+2=its'
p782
I725
sS'w+1=weave'
p783
I529
sS'w+1=win'
p784
I534
sS'w-2=plan'
p785
I1246
sS'nn=sci-fus'
p786
I245
sS'w+2=independent'
p787
I721
sS'partmod=shoot'
p788
I278
sS'w+1=Ocean'
p789
I365
sS'w-1=swedish'
p790
I1044
sS'w+2=highlight'
p791
I714
sS'w+2=Kurt'
p792
I592
sS'w-2=in'
p793
I1204
sS'w-1=300'
p794
I868
sS'dep=year'
p795
I192
sS'w+2=dramatize'
p796
I684
sS'w+2=Zuckerberg'
p797
I619
sS'w+2=do'
p798
I682
sS'w-1=last'
p799
I985
sS'w+2=italian'
p800
I724
sS'w+2=nothing'
p801
I749
sS'w-1=spotlight'
p802
I1038
sS'w+1=career'
p803
I402
sS'nn=Hindi'
p804
I215
sS'w-2=begin'
p805
I1133
sS'w-1=street'
p806
I1040
sS'w+2=detail'
p807
I678
sS'w-2=;'
p808
I1082
sS'w-2=debunk'
p809
I1158
sS'w+1=director'
p810
I419
sS'w+2=because'
p811
I645
sS'w+2=show'
p812
I793
sS'w-1=brief'
p813
I923
sS'w+2=Dennis'
p814
I564
sS'partmod=gear'
p815
I272
sS'w+2=help'
p816
I713
sS'det=both'
p817
I195
sS'w-1=palestinian'
p818
I1013
sS'w+1=portray'
p819
I482
sS'rcmod=include'
p820
I331
sS'conj=edit'
p821
I140
sS'w+1=succeed'
p822
I508
sS'amod=earlier'
p823
I34
sS'conj=legacy'
p824
I143
sS'w-2=recognize'
p825
I1260
sS"w+2=''"
p826
I543
sS'appos=II'
p827
I104
sS'w+1=Elizabeth'
p828
I358
sS'w-1=this'
p829
I1051
sS'nn=documentary'
p830
I231
sS'w+1=version'
p831
I526
sS'advmod=also'
p832
I6
sS'w-2=become'
p833
I1132
sS'amod=current'
p834
I32
sS'w+1=character'
p835
I403
sS'w+2=classic'
p836
I663
sS'w-1=Pakistani'
p837
I889
sS'w-1=certainly'
p838
I928
sS'w+1=soundtrack'
p839
I501
sS'w-1=television'
p840
I1045
sS'w-2=cinematography'
p841
I1147
sS'amod=deeper'
p842
I33
sS'w+1=man'
p843
I462
sS'dep=rally'
p844
I187
sS'w+2=about'
p845
I621
sS'w+1=adapt'
p846
I376
sS'amod=early'
p847
I35
sS'w-2=widely'
p848
I1319
sS'amod=full-length'
p849
I43
sS'w-1=dozen'
p850
I943
sS'w+1=should'
p851
I498
sS'w+2=arrive'
p852
I637
sS'w-2=audience'
p853
I1127
sS'w+1=institute'
p854
I450
sS'w-2=develop'
p855
I1161
sS'w+2=Japan'
p856
I582
sS'w+2=Disney'
p857
I567
sS'w-2=have'
p858
I1197
sS'amod=upcoming'
p859
I98
sS'cc=and'
p860
I121
sS'w+2=Luigi'
p861
I597
sS'w+1=company'
p862
I408
sS'appos=truth'
p863
I115
sS'w+1=also'
p864
I381
sS'w-2=collection'
p865
I1149
sS'w+1=by'
p866
I398
sS'w-1=anti-soviet'
p867
I906
sS'w+1=lose'
p868
I459
sS'w+1=will'
p869
I533
sS'w+1=be'
p870
I392
sS'advcl=write'
p871
I4
sS'w+1=hero'
p872
I445
sS'w+1=opposite'
p873
I475
sS'nn=cult'
p874
I229
sS'w+1=crew'
p875
I413
sS'w+1=Malalai'
p876
I363
sS"w+2='s"
p877
I544
sS'w+1=here'
p878
I444
sS'w-2=when'
p879
I1314
sS'w+2=Kyrgyzstan'
p880
I593
sS'w-2=war'
p881
I1309
sS'w-1=many'
p882
I992
sS'w+1=air'
p883
I378
sS'w+2=some'
p884
I796
sS'w-2=upcome'
p885
I1306
sS'w+1=inspire'
p886
I449
sS'w+1=in'
p887
I446
sS'w-2=be'
p888
I1130
sS'dep=Wizard'
p889
I173
sS'w-2=tradition'
p890
I1303
sS'w+2=portray'
p891
I766
sS'dep=truth'
p892
I191
sS'w+1=on'
p893
I472
sS'nsubj=#PRP#'
p894
I248
sS'w-1=latest'
p895
I987
sS'w+1=about'
p896
I374
sS'w-1=these'
p897
I1048
sS'w-2=produce'
p898
I1252
sS'nsubj=scene'
p899
I253
sS'w-1=imaginative'
p900
I976
sS'w+2=go'
p901
I710
sS'w-2=see'
p902
I1267
sS'w+1=open'
p903
I474
sS'w+2=year'
p904
I843
sS'w-1=Fox'
p905
I882
sS'w+2=Kelly'
p906
I589
sS"w+1=''"
p907
I345
sS'w+1=into'
p908
I451
sS'w+1=star'
p909
I502
sS'w-2=35th'
p910
I1080
sS'w+1=involve'
p911
I452
sS'nn=Kodachrome'
p912
I217
sS'w+1=Ned'
p913
I364
sS'w+1=barely'
p914
I390
sS'amod=own'
p915
I75
sS'partmod=pick'
p916
I275
sS'w+2=movie'
p917
I739
sS'w-2=vividly'
p918
I1308
sS'w-2=prestigious'
p919
I1251
sS'poss=#PRP#'
p920
I283
sS'w+1=Tron'
p921
I369
sS'w-1=help'
p922
I968
sS'rcmod=go'
p923
I328
sS'w-2=together'
p924
I1300
sS'w+2=circuit'
p925
I661
sS'w+2=smaller-scale'
p926
I794
sS'w-1=several'
p927
I1029
sS'prep=like'
p928
I311
sS'w-2=the'
p929
I1290
sS'w+1=-rrb-'
p930
I349
sS'w+2=cut'
p931
I671
sS'w+2=up'
p932
I822
sS'w-2=direct'
p933
I1163
sS'w-2=top'
p934
I1301
sS'w-2=program'
p935
I1253
sS'w-2=about'
p936
I1109
sS'w+1=creator'
p937
I412
sS'amod=entitle'
p938
I38
sS'nsubj=development'
p939
I251
sS'w-2=these'
p940
I1292
sS'w+2=Federico'
p941
I570
sS'dep=in'
p942
I181
sS'w-1=small'
p943
I1034
sS'nsubjpass=part'
p944
I262
sS"possessive='s"
p945
I298
sS'w-2=video'
p946
I1307
sS'w-2=complain'
p947
I1152
sS'w+1=recreate'
p948
I489
sS'poss=whose'
p949
I295
sS'w-2=finance'
p950
I1179
sS'w-2=Americans'
p951
I1086
sS'w-1=subsequent'
p952
I1042
sS'w-2=set'
p953
I1270
sS'w+2=more'
p954
I738
sS'w-1=make'
p955
I991
sS'ccomp=real'
p956
I127
sS'appos=Colonel'
p957
I102
sS'w-1=submit'
p958
I1041
sS'w-1=earlier'
p959
I945
sS'amod=next'
p960
I68
sS'w+2=or'
p961
I756
sS'amod=musical'
p962
I66
sS"w+1='s"
p963
I346
sS'w+2=?'
p964
I554
sS'w-2=not'
p965
I1233
sS'w-1=own'
p966
I1011
sS'w-1=its'
p967
I982
sS'prep=of'
p968
I312
sS'amod=thought-provoking'
p969
I94
sS'w+2=Kay'
p970
I588
sS'w+2=Katyn'
p971
I587
sS'w-2=of'
p972
I1235
sS'amod=award-winning'
p973
I25
sS'w-2=Knowles'
p974
I1094
sS'amod=bosnian'
p975
I29
sS'w-2=second-highest'
p976
I1266
sS'nsubjpass=Ultimatum'
p977
I259
sS'w-1=2004'
p978
I864
sS'nn=art'
p979
I226
sS'w-1=2007'
p980
I865
sS'w+1=go'
p981
I440
sS"w-2=''"
p982
I1070
sS'amod=produce'
p983
I79
sS'w-1=after'
p984
I898
sS'w-1=236'
p985
I866
sS'w-1=for'
p986
I959
sS'w+2=particularly'
p987
I759
sS'num=#NUMBER#'
p988
I266
sS'w-2=work'
p989
I1321
sS'w-2=love'
p990
I1217
sS'w+1=online'
p991
I473
sS'w-2=where'
p992
I1315
sS'rcmod=boring'
p993
I319
sS'w+2=both'
p994
I650
sS'w-1=30'
p995
I867
sS'w+2=deal'
p996
I675
sS'w-1=fiction'
p997
I957
sS'amod=international'
p998
I56
sS'w+1=out'
p999
I476
sS'w-1=constantly'
p1000
I933
sS'w-2=best'
p1001
I1135
sS'w-1=to'
p1002
I1056
sS'nn=fiction'
p1003
I236
sS'amod=other'
p1004
I74
sS'w+2=out'
p1005
I758
sS'dep=about'
p1006
I175
sS'w+1=without'
p1007
I536
sS'w-1=old'
p1008
I1004
sS'w-2=support'
p1009
I1285
sS'w+2=almost'
p1010
I630
sS'w+2=that'
p1011
I810
sS'amod=australian'
p1012
I24
sS'w+2=also'
p1013
I632
sS'w-2=to'
p1014
I1299
sS'amod=more'
p1015
I64
sS'w-1=Kodachrome'
p1016
I886
sS'w-2=what'
p1017
I1313
sS'dep=state'
p1018
I189
sS'w-1=on'
p1019
I1005
sS'nn=language'
p1020
I241
sS'w+1=blood'
p1021
I397
sS'w-2=get'
p1022
I1190
sS'w+2=Ingmar'
p1023
I579
sS'poss=Harryhausen'
p1024
I288
sS'partmod=depict'
p1025
I271
sS'nn=action'
p1026
I224
sS'w-2=successful'
p1027
I1284
sS'w+1=studio'
p1028
I506
sS'w-1=modern'
p1029
I993
sS'w-1=six'
p1030
I1033
sS'dep=Atonement'
p1031
I165
sS'w+2=each'
p1032
I686
sS'w+2=-'
p1033
I546
sS'w-2=hope'
p1034
I1201
sS'w+2=pick'
p1035
I763
sS'conj=movie'
p1036
I145
sS'w-2=-lrb-'
p1037
I1074
sS'w+1=Circle'
p1038
I355
sS'w+1=Twilight'
p1039
I370
sS'w-1=of'
p1040
I1003
sS'w-1=both'
p1041
I922
sS'w-2=musical'
p1042
I1228
sS'w-1=history-every'
p1043
I973
sS'w+2=what'
p1044
I829
sS'w+1=reach'
p1045
I488
sS'w-1=800'
p1046
I876
sS'w+1=clip'
p1047
I404
sS'w+2=and'
p1048
I633
sS'nn=french\\/belgian'
p1049
I237
sS'w-1=produce'
p1050
I1018
sS'conj=Runner'
p1051
I132
sS'rcmod=screening'
p1052
I339
sS'w+1=up'
p1053
I523
sS'rcmod=fail'
p1054
I325
sS'w-1=good'
p1055
I963
sS'w-1=expensive'
p1056
I951
sS'w+1=while'
p1057
I532
sS'w-1=start'
p1058
I1039
sS'w-2=mainstream'
p1059
I1219
sS'conj=show'
p1060
I153
sS'w-2=competition'
p1061
I1151
sS'w+1=series'
p1062
I495
sS'w+1=examine'
p1063
I428
sS'rcmod=make'
p1064
I333
sS'w-2=one'
p1065
I1238
sS'w+1=entry'
p1066
I426
sS'w+1=world'
p1067
I538
sS'cop=be'
p1068
I161
sS'appos=Heart'
p1069
I103
sS'w-1=high-quality'
p1070
I969
sS'amod=latest'
p1071
I59
sS'w-1=Batman'
p1072
I877
sS'w-2=he'
p1073
I1198
sS'w-1=U.S.'
p1074
I891
sS'appos=battle'
p1075
I109
sS'amod=computer-animated'
p1076
I31
sS'w-1=thought-provoking'
p1077
I1053
sS'amod=harrowing'
p1078
I48
sS'nn=Hollywood'
p1079
I216
sS'w+1=begin'
p1080
I395
sS'partmod=take'
p1081
I280
sS'w+1=with'
p1082
I535
sS'w+2=join'
p1083
I726
sS'dep=clip'
p1084
I179
sS'w+2=submission'
p1085
I804
sS'advmod=now'
p1086
I11
sS'w+1=suggest'
p1087
I510
sS'w+2=feature'
p1088
I700
sS'w+2=satisfy'
p1089
I785
sS'w+2=accuse'
p1090
I622
sS'w+2=the'
p1091
I811
sS'prep=at'
p1092
I303
sS'nn=adventure'
p1093
I225
sS'prep=as'
p1094
I302
sS'w+1=feel'
p1095
I433
sS'w-2=-'
p1096
I1073
sS'w-2=.'
p1097
I1075
sS'nn=Wilders'
p1098
I223
sS'w+2=veteran'
p1099
I825
sS'w-1=heist'
p1100
I967
sS'w+2=Atonement'
p1101
I558
sS'aux=have'
p1102
I117
sS'w-2=although'
p1103
I1120
sS'w-2=but'
p1104
I1140
sS'w+2=already'
p1105
I631
sS'w-1=Kramer'
p1106
I887
sS'w+1=base'
p1107
I391
sS'w-2=argue'
p1108
I1125
sS'w-2=:'
p1109
I1081
sS'w+2=personal'
p1110
I762
sS'w+1=ask'
p1111
I387
sS'w-1=.'
p1112
I849
sS'dep=begin'
p1113
I177
sS'w+1=executive'
p1114
I429
sS'w+2=explore'
p1115
I696
sS'w-2=now'
p1116
I1234
sS'w-2=while'
p1117
I1317
sS'amod=classic'
p1118
I30
sS'w-2=four'
p1119
I1184
sS'w+1=every'
p1120
I427
sS'w-2=Development'
p1121
I1090
sS'w-1=senegalese'
p1122
I1027
sS'w+1=answer'
p1123
I384
sS'w-1=harrowing'
p1124
I965
sS'w-2=song'
p1125
I1276
sS'w+2=ready'
p1126
I777
sS'w-2=as'
p1127
I1126
sS'w-1=1972'
p1128
I857
sS'w-1=original'
p1129
I1007
sS'w+1=this'
p1130
I517
sS'w+1=industry'
p1131
I448
sS'prep=about'
p1132
I301
sS'w-2=promote'
p1133
I1256
sS'conj=criticize'
p1134
I137
sS'w+2=one'
p1135
I752
sS'w-2=other'
p1136
I1244
sS'w-2=stubbornly'
p1137
I1281
sS'amod=recent'
p1138
I81
sS'w+2=you'
p1139
I844
sS'w+1=during'
p1140
I422
sS'w-1=150'
p1141
I853
sS'amod=last'
p1142
I57
sS'amod=serious'
p1143
I85
sS'w-1=1994'
p1144
I860
sS'w-2=nearly'
p1145
I1230
sS'w+2=television'
p1146
I808
sS'w+2=turn'
p1147
I819
sS'w+1=musical'
p1148
I467
sS'w-2=look'
p1149
I1215
sS'w+2=such'
p1150
I806
sS'w-2=some'
p1151
I1275
sS'w+2=before'
p1152
I647
sS'det=a'
p1153
I193
sS'w-1=a'
p1154
I895
sS'w-2=job'
p1155
I1211
sS'w-1=best'
p1156
I917
sS'w+2=successful'
p1157
I805
sS'rcmod=star'
p1158
I340
sS'conj=Jones'
p1159
I131
sS'w+2=Music'
p1160
I601
sS'w+1=piracy'
p1161
I479
sS'partmod=weave'
p1162
I281
sS'amod=independent'
p1163
I54
sS'nsubj=here'
p1164
I252
sS'dep=season'
p1165
I188
sS'w-1=he'
p1166
I966
sS'amod=small-budget'
p1167
I89
sS'w+2=complete'
p1168
I667
sS'w-2=include'
p1169
I1205
sS'w-1=feature-length'
p1170
I956
sS'w+2=there'
p1171
I813
sS'w-1=before'
p1172
I915
sS'amod=light-hearted'
p1173
I60
sS'w+1=mean'
p1174
I465
sS'w+1=try'
p1175
I522
sS'w-1=70'
p1176
I874
sS'w-1=period'
p1177
I1014
sS'w+1=from'
p1178
I438
sS'w+2=win'
p1179
I837
sS'w+2=reject'
p1180
I783
sS'w+1=roughly'
p1181
I491
sS'nsubjpass=video'
p1182
I265
sS'w+1=may'
p1183
I464
sS'w-1=now'
p1184
I1001
sS'w+2=mexican-born'
p1185
I736
sS'dep=direct'
p1186
I180
sS'w-2=18th'
p1187
I1076
sS'w+2=wide'
p1188
I835
sS'w-2=Kodachrome'
p1189
I1095
sS'nsubj=Geffen'
p1190
I249
sS'nn=period'
p1191
I243
sS'amod=several'
p1192
I86
sS'amod=third'
p1193
I93
sS'dep=United'
p1194
I172
sS'w+2=various'
p1195
I823
sS'w-2=Almighty'
p1196
I1084
sS'w-1=Twilight'
p1197
I890
sS'w+2=around'
p1198
I636
sS'w-1=numerous'
p1199
I1002
sS'w+1=must'
p1200
I468
sS'w-2=all'
p1201
I1117
sS'w-1=award-winning'
p1202
I913
sS'w+2=then'
p1203
I812
sS'w+2=Leonard'
p1204
I596
sS'w-1=War'
p1205
I892
sS'amod=many'
p1206
I63
sS'amod=second'
p1207
I83
sS'w-2=Awarding'
p1208
I1087
sS'w-1=200'
p1209
I863
sS'w-2=show'
p1210
I1274
sS'w-1=15-minute'
p1211
I852
sS'w-2=two'
p1212
I1305
sS'w-2=call'
p1213
I1142
sS'conj=shorts'
p1214
I152
sS'w-2=dozen'
p1215
I1166
sS'w+1=entertainment'
p1216
I425
sS'w-2=drive'
p1217
I1167
sS'w+2=become'
p1218
I646
sS'poss=Moore'
p1219
I289
sS'w-1=documentary'
p1220
I942
sS'conj=speech'
p1221
I154
sS'w+2=will'
p1222
I836
sS'cc=well'
p1223
I123
sS'w-1=begin'
p1224
I916
sS'appos=Katyn'
p1225
I105
sS'w+1=earn'
p1226
I423
sS'w+2=Vanessa'
p1227
I617
sS'poss=world'
p1228
I296
sS'w+2=Mon'
p1229
I599
sS'amod=upcome'
p1230
I97
sS'appos=orchid'
p1231
I112
sS'dep=no'
p1232
I183
sS'neg=not'
p1233
I209
sS'w-2=Vision'
p1234
I1103
sS'w-1=fantasy-adventure'
p1235
I954
sS'w-1=pakistani'
p1236
I1012
sS'w-1=oscar-winning'
p1237
I1008
sS'w-2=say'
p1238
I1264
sS'w+2=entitle'
p1239
I691
sS'rcmod=produce'
p1240
I335
sS'w+2=direct'
p1241
I679
sS'w-1=historical'
p1242
I972
sS'appos=fahrenheit'
p1243
I111
sS'prep=from'
p1244
I308
sS'w-1=best-known'
p1245
I918
sS'nn=comedy'
p1246
I228
sS'w+1=Conan'
p1247
I356
sS'w+2=East'
p1248
I568
sS'w+2=let'
p1249
I728
sS'w-1=Digital'
p1250
I880
sS'w-1=as'
p1251
I910
sS'w+2=conclude'
p1252
I668
sS'w-2=elaborate'
p1253
I1170
sS'w-1=we'
p1254
I1064
sS'rcmod=document'
p1255
I322
sS'aux=to'
p1256
I118
sS'w+2=advertisement'
p1257
I626
sS'w-1=french\\/belgian'
p1258
I961
sS'nn=Watch'
p1259
I222
sS'w-2=America'
p1260
I1085
sS'w+1=Recount'
p1261
I367
sS'w-1=my'
p1262
I996
sS'w+1=such'
p1263
I509
sS'w-1=show'
p1264
I1032
sS'amod=alien'
p1265
I20
sS'w+2=Africa'
p1266
I556
sS'w-1=Wars'
p1267
I893
sS'w+2=Budapest'
p1268
I561
sS'w+2=:'
p1269
I553
sS'dep=city'
p1270
I178
sS'w-2=fight'
p1271
I1178
sS'w-2=another'
p1272
I1123
sS'partmod=set'
p1273
I277
sS'w+1=-'
p1274
I348
sS'w+1=,'
p1275
I347
sS'w+1=.'
p1276
I350
sS'w-2=give'
p1277
I1191
sS'w-1=independent'
p1278
I978
sS'conj=tv'
p1279
I158
sS'w+2=provide'
p1280
I772
sS'w+2=.'
p1281
I547
sS'w-1=smaller'
p1282
I1036
sS'w+2=,'
p1283
I545
sS'amod=french'
p1284
I42
sS'w-1=Disney'
p1285
I881
sS'w+1=;'
p1286
I352
sS'w+1=:'
p1287
I351
sS'w-2=crew'
p1288
I1157
sS'appos=Ali'
p1289
I101
sS'dobj=demonstration'
p1290
I205
sS'poss=Bergman'
p1291
I285
sS'w+2=if'
p1292
I718
sS'w-1=serious'
p1293
I1028
sS'w+2=newly-wed'
p1294
I745
sS'w+1=I'
p1295
I360
sS'w+1=do'
p1296
I420
sS'w-2=prominent'
p1297
I1255
sS'w-1=international'
p1298
I980
sS'w-1=another'
p1299
I905
sS'w+2=award'
p1300
I641
sS'w+2=mean'
p1301
I735
sS'w-1=adventure'
p1302
I897
sS'w-1=upcoming'
p1303
I1060
sS'w+2=two-time'
p1304
I821
sS'w-2=Wilders'
p1305
I1104
sS'w+2=I'
p1306
I576
sS'w+2=choose'
p1307
I660
sS'w+1=conclude'
p1308
I410
sS'w+1=column'
p1309
I405
sS'w+2=well-known'
p1310
I828
sS'w-1=sci-fi'
p1311
I1023
sS'w+2=center'
p1312
I657
sS'w+1=maker'
p1313
I461
sS'w+1=a'
p1314
I373
sS'w-1=just'
p1315
I983
sS'w-2=acclaimed'
p1316
I1110
sS'w+2=especially'
p1317
I692
sS'w+2=battle'
p1318
I643
sS'w+2=explain'
p1319
I695
sS'w+1=he'
p1320
I442
sS'w+2=woman'
p1321
I839
sS'w+1=focus'
p1322
I435
sS'nn=celluloid'
p1323
I227
sS'dep=Persepolis'
p1324
I170
sS'w-1=that'
p1325
I1046
sS'aux=be'
p1326
I116
sS'w-2=for'
p1327
I1183
sS'w+2=Kathleen'
p1328
I586
sS'amod=asian'
p1329
I23
sS'w+2=open'
p1330
I753
sS'w+2=know'
p1331
I727
sS'w-2=book'
p1332
I1137
sS'w+2=a'
p1333
I620
sS'w-2=there'
p1334
I1291
ssS'dtype'
p1335
cnumpy
float64
p1336
sS'feature_names_'
p1337
(lp1338
g222
ag668
ag466
ag601
ag871
ag230
ag832
ag212
ag345
ag476
ag656
ag1086
ag683
ag202
ag594
ag8
ag669
ag478
ag340
ag352
ag1265
ag344
ag383
ag1329
ag1012
ag973
ag737
ag179
ag488
ag975
ag1118
ag1076
ag834
ag842
ag823
ag847
ag185
ag210
ag938
ag152
ag745
ag335
ag1284
ag849
ag732
ag148
ag23
ag89
ag1078
ag746
ag94
ag252
ag702
ag149
ag1163
ag242
ag998
ag1142
ag726
ag1071
ag1173
ag496
ag622
ag1206
ag1015
ag160
ag962
ag747
ag960
ag773
ag272
ag267
ag649
ag83
ag1004
ag915
ag15
ag442
ag198
ag983
ag285
ag1138
ag469
ag1207
ag704
ag1143
ag1192
ag19
ag10
ag1167
ag56
ag718
ag679
ag1193
ag969
ag539
ag241
ag1230
ag859
ag142
ag412
ag1289
ag957
ag1069
ag827
ag1225
ag295
ag25
ag278
ag1075
ag174
ag1243
ag1231
ag341
ag115
ag863
ag1326
ag1102
ag1256
ag248
ag526
ag860
ag770
ag1223
ag254
ag465
ag86
ag956
ag183
ag204
ag739
ag1159
ag1051
ag347
ag106
ag373
ag95
ag1134
ag127
ag168
ag821
ag316
ag249
ag824
ag245
ag1036
ag504
ag79
ag277
ag333
ag627
ag123
ag1214
ag1060
ag1221
ag190
ag604
ag521
ag1279
ag705
ag736
ag1068
ag721
ag523
ag486
ag1031
ag458
ag406
ag555
ag80
ag1324
ag67
ag1194
ag889
ag189
ag1006
ag302
ag1113
ag1270
ag1084
ag1186
ag942
ag678
ag1232
ag38
ag180
ag584
ag844
ag1165
ag1018
ag489
ag892
ag795
ag1153
ag691
ag817
ag20
ag467
ag621
ag364
ag367
ag305
ag479
ag403
ag298
ag1290
ag740
ag310
ag761
ag1233
ag481
ag46
ag74
ag197
ag158
ag804
ag1079
ag912
ag44
ag253
ag490
ag147
ag1259
ag1098
ag1026
ag1093
ag979
ag1323
ag1246
ag874
ag164
ag830
ag648
ag436
ag39
ag722
ag1003
ag1049
ag216
ag156
ag338
ag1020
ag582
ag1191
ag733
ag786
ag336
ag615
ag894
ag1190
ag61
ag939
ag1164
ag899
ag454
ag297
ag610
ag616
ag243
ag977
ag133
ag408
ag944
ag58
ag560
ag1182
ag988
ag551
ag757
ag675
ag492
ag1025
ag815
ag419
ag157
ag916
ag534
ag1273
ag788
ag638
ag1081
ag1162
ag361
ag920
ag214
ag1291
ag410
ag413
ag1024
ag1219
ag273
ag235
ag387
ag218
ag279
ag949
ag1228
ag109
ag945
ag685
ag247
ag1132
ag1094
ag1092
ag77
ag76
ag111
ag284
ag1244
ag246
ag371
ag928
ag968
ag592
ag650
ag203
ag756
ag446
ag350
ag993
ag682
ag346
ag1255
ag483
ag482
ag1054
ag134
ag120
ag923
ag41
ag766
ag820
ag181
ag1064
ag681
ag1240
ag324
ag231
ag727
ag1052
ag1158
ag748
ag632
ag217
ag363
ag907
ag963
ag1275
ag1274
ag930
ag1276
ag1287
ag1286
ag96
ag677
ag1038
ag1247
ag291
ag828
ag743
ag1295
ag402
ag92
ag876
ag913
ag789
ag459
ag1261
ag593
ag921
ag1039
ag186
ag146
ag1314
ag896
ag398
ag846
ag52
ag883
ag207
ag303
ag864
ag629
ag275
ag1123
ag293
ag435
ag1111
ag438
ag515
ag914
ag1107
ag870
ag692
ag9
ag1080
ag725
ag1021
ag866
ag429
ag389
ag440
ag803
ag835
ag1047
ag1309
ag434
ag451
ag862
ag441
ag1308
ag36
ag937
ag875
ag553
ag609
ag68
ag382
ag730
ag810
ag1296
ag495
ag1140
ag1226
ag153
ag1216
ag1066
ag1120
ag1063
ag1114
ag614
ag209
ag193
ag1095
ag557
ag1322
ag251
ag562
ag1178
ag575
ag981
ag359
ag1320
ag154
ag878
ag872
ag887
ag643
ag1131
ag886
ag854
ag908
ag911
ag660
ag258
ag561
ag636
ag652
ag282
ag868
ag460
ag1313
ag843
ag191
ag1183
ag1174
ag439
ag1148
ag1200
ag568
ag161
ag259
ag893
ag991
ag903
ag873
ag999
ag703
ag43
ag1161
ag315
ag630
ag819
ag430
ag234
ag485
ag318
ag608
ag1045
ag948
ag549
ag1181
ag139
ag579
ag753
ag1062
ag537
ag22
ag851
ag688
ag414
ag839
ag909
ag607
ag428
ag462
ag1028
ag244
ag822
ag1263
ag1087
ag445
ag221
ag81
ag226
ag554
ag12
ag1130
ag145
ag619
ag107
ag135
ag1175
ag1053
ag545
ag472
ag831
ag365
ag312
ag783
ag776
ag474
ag1057
ag869
ag784
ag1082
ag1007
ag388
ag1067
ag369
ag518
ag50
ag690
ag826
ag877
ag1283
ag1033
ag1281
ag351
ag511
ag475
ag378
ag714
ag1269
ag964
ag421
ag1266
ag543
ag1101
ag530
ag720
ag1268
ag651
ag588
ag814
ag585
ag538
ag857
ag1248
ag150
ag941
ag640
ag292
ag34
ag114
ag713
ag1306
ag637
ag574
ag1023
ag320
ag654
ag856
ag85
ag535
ag697
ag1328
ag971
ag970
ag906
ag225
ag407
ag792
ag880
ag395
ag577
ag1204
ag861
ag14
ag1229
ag473
ag1160
ag73
ag606
ag547
ag294
ag228
ag205
ag384
ag110
ag661
ag708
ag528
ag763
ag322
ag376
ag494
ag1227
ag360
ag797
ag1333
ag845
ag1090
ag327
ag409
ag236
ag1257
ag332
ag444
ag427
ag1010
ag1105
ag1013
ag1048
ag767
ag31
ag1198
ag852
ag512
ag506
ag163
ag1300
ag99
ag1318
ag233
ag811
ag1218
ag1152
ag126
ag635
ag994
ag177
ag425
ag45
ag224
ag777
ag195
ag1312
ag88
ag611
ag1307
ag925
ag676
ag836
ag573
ag271
ag334
ag1168
ag1252
ag165
ag159
ag931
ag257
ag480
ag65
ag996
ag394
ag498
ag807
ag1241
ag100
ag119
ag798
ag274
ag796
ag380
ag1032
ag508
ag570
ag397
ag417
ag1239
ag1317
ag304
ag695
ag1319
ag1115
ag687
ag184
ag455
ag1088
ag393
ag227
ag564
ag171
ag290
ag463
ag670
ag13
ag566
ag901
ag591
ag625
ag816
ag791
ag710
ag70
ag281
ag1292
ag724
ag516
ag787
ag141
ag194
ag800
ag782
ag1083
ag1331
ag1249
ag307
ag456
ag491
ag502
ag552
ag626
ag1301
ag1185
ag53
ag954
ag917
ag707
ag21
ag262
ag353
ag16
ag1294
ag42
ag450
ag337
ag801
ag613
ag618
ag1135
ag1330
ag662
ag580
ag961
ag266
ag1005
ag987
ag48
ag493
ag1110
ag1035
ag563
ag477
ag891
ag187
ag229
ag289
ag40
ag206
ag1280
ag449
ag433
ag269
ag751
ag1126
ag567
ag716
ag556
ag657
ag448
ag1180
ag680
ag1089
ag647
ag550
ag499
ag317
ag385
ag116
ag288
ag812
ag926
ag138
ag884
ag358
ag587
ag57
ag401
ag129
ag18
ag565
ag1085
ag1157
ag1150
ag505
ag1146
ag527
ag1011
ag1091
ag1203
ag1171
ag509
ag501
ag717
ag167
ag117
ag1147
ag172
ag1304
ag932
ag1195
ag47
ag1099
ag311
ag113
ag1310
ag1044
ag377
ag519
ag520
ag199
ag192
ag1188
ag1222
ag1179
ag484
ag1321
ag514
ag689
ag87
ag904
ag1139
ag30
ag729
ag531
ag78
ag1112
ag541
ag51
ag1211
ag1141
ag35
ag672
ag26
ag1128
ag772
ag774
ag1144
ag655
ag634
ag1209
ag978
ag980
ag985
ag995
ag794
ag755
ag420
ag182
ag620
ag583
ag1176
ag381
ag1046
ag1072
ag540
ag97
ag1250
ag1285
ag905
ag355
ag55
ag354
ag1016
ag1106
ag759
ag837
ag1197
ag1074
ag1205
ag1267
ag517
ag1154
ag84
ag1302
ag984
ag764
ag500
ag125
ag261
ag319
ag576
ag1299
ag867
ag28
ag639
ag173
ag1251
ag546
ag37
ag1202
ag131
ag1172
ag1224
ag1156
ag1245
ag503
ag151
ag342
ag1041
ag813
ag461
ag128
ag734
ag529
ag838
ag558
ag646
ag255
ag559
ag1000
ag82
ag32
ag306
ag357
ag49
ag93
ag63
ag240
ag1220
ag850
ag90
ag959
ag325
ag215
ag633
ag453
ag623
ag1056
ag386
ag362
ag1235
ag329
ag1170
ag997
ag396
ag986
ag330
ag1258
ag265
ag1055
ag238
ag1124
ag1166
ag1100
ag922
ag1070
ag121
ag698
ag1242
ag1043
ag771
ag437
ag900
ag309
ag1278
ag589
ag1298
ag457
ag967
ag1315
ag735
ag799
ag392
ag895
ag356
ag300
ag11
ag955
ag882
ag1029
ag223
ag781
ag1262
ag103
ag220
ag422
ag598
ag1184
ag1199
ag1040
ag1008
ag1019
ag617
ag1129
ag1237
ag599
ag731
ag966
ag1236
ag818
ag1177
ag628
ag645
ag98
ag1050
ag569
ag624
ag390
ag658
ag1311
ag62
ag201
ag188
ag1122
ag1293
ag927
ag665
ag326
ag1264
ag1030
ag943
ag124
ag1282
ag176
ag802
ag1058
ag806
ag958
ag952
ag299
ag790
ag840
ag1325
ag723
ag897
ag276
ag66
ag829
ag208
ag1077
ag600
ag136
ag1002
ag29
ag399
ag596
ag1303
ag323
ag443
ag24
ag1254
ag769
ag644
ag219
ag744
ag313
ag982
ag663
ag372
ag1096
ag1037
ag1097
ag1187
ag143
ag162
ag166
ag910
ag1109
ag808
ag742
ag1196
ag1260
ag951
ag1208
ag696
ag256
ag1121
ag349
ag102
ag452
ag974
ag1189
ag287
ag664
ag343
ag522
ag423
ag525
ag75
ag1234
ag1305
ag211
ag612
ag268
ag464
ag936
ag1316
ag667
ag144
ag738
ag659
ag91
ag673
ag1201
ag603
ag754
ag1103
ag132
ag432
ag1272
ag542
ag1108
ag1127
ag853
ag301
ag69
ag888
ag296
ag833
ag805
ag471
ag1001
ag578
ag1332
ag213
ag17
ag1104
ag263
ag1213
ag118
ag671
ag237
ag415
ag841
ag510
ag865
ag780
ag1061
ag947
ag108
ag270
ag426
ag741
ag1288
ag809
ag424
ag749
ag855
ag572
ag933
ag405
ag605
ag1215
ag1217
ag178
ag72
ag1253
ag684
ag719
ag468
ag59
ag778
ag715
ag308
ag1271
ag950
ag232
ag33
ag728
ag1327
ag1119
ag762
ag112
ag548
ag416
ag175
ag1022
ag1277
ag686
ag507
ag712
ag137
ag130
ag858
ag1073
ag765
ag404
ag1034
ag532
ag586
ag793
ag1169
ag758
ag260
ag706
ag768
ag366
ag1155
ag348
ag524
ag328
ag1149
ag642
ag990
ag653
ag1059
ag368
ag169
ag701
ag155
ag101
ag590
ag641
ag709
ag1042
ag239
ag1145
ag54
ag597
ag965
ag1116
ag972
ag400
ag391
ag1065
ag200
ag64
ag379
ag27
ag581
ag1136
ag544
ag785
ag775
ag571
ag321
ag196
ag919
ag898
ag935
ag280
ag1297
ag1133
ag71
ag250
ag264
ag825
ag418
ag631
ag104
ag1238
ag283
ag976
ag902
ag513
ag674
ag953
ag314
ag487
ag140
ag1210
ag1151
ag1125
ag170
ag700
ag711
ag105
ag1137
ag286
ag602
ag1027
ag1009
ag693
ag431
ag447
ag595
ag929
ag1334
ag940
ag699
ag536
ag470
ag760
ag370
ag779
ag1014
ag924
ag934
ag339
ag890
ag331
ag1212
ag885
ag946
ag918
ag881
ag374
ag375
ag750
ag1017
ag879
ag992
ag411
ag1117
ag122
ag848
ag752
ag989
ag497
ag533
ag666
ag60
ag694
asS'separator'
p1339
S'='
sS'sparse'
p1340
I01
sb.