ccopy_reg
_reconstructor
p1
(csklearn.feature_extraction.dict_vectorizer
DictVectorizer
p2
c__builtin__
object
p3
NtRp4
(dp5
S'vocabulary_'
p6
(dp7
S'w-2=territory'
p8
I961
sS'csubj=allow'
p9
I93
sS'advcl=erupt'
p10
I1
sS'w+2=operation'
p11
I638
sS'nsubj=separation'
p12
I320
sS'w-1=:'
p13
I707
sS'w-2=community'
p14
I841
sS'w-2=unless'
p15
I976
sS'w-2=bill'
p16
I830
sS'dobj=law'
p17
I176
sS'w-2=organization'
p18
I913
sS'w-2=people'
p19
I917
sS'w+2=among'
p20
I545
sS'dobj=perception'
p21
I204
sS'advmod=generally'
p22
I20
sS'w+1=financial'
p23
I440
sS'dep=limit'
p24
I99
sS"w+2='"
p25
I512
sS"w+2='s"
p26
I514
sS'w+2=between'
p27
I558
sS'dobj=element'
p28
I149
sS'w+2=financial'
p29
I592
sS'w-2=election'
p30
I862
sS'w-1=should'
p31
I762
sS'w+1=anti-corruption'
p32
I409
sS'w+1=hope'
p33
I446
sS'w-1=nation'
p34
I749
sS'w-2=Hamas'
p35
I788
sS'w+1=diplomatic'
p36
I427
sS'nsubj=process'
p37
I313
sS'advmod=while'
p38
I38
sS'w-2=then'
p39
I965
sS'w-2=thing'
p40
I967
sS'w-2=need'
p41
I905
sS'conj=imperative'
p42
I72
sS'dobj=player'
p43
I205
sS'prep=than'
p44
I368
sS'w+1=property'
p45
I483
sS'prep=by'
p46
I360
sS'prep=within'
p47
I374
sS'w+2=nation'
p48
I632
sS'w-2=country'
p49
I845
sS'nsubj=dollar'
p50
I287
sS'w+2=parliament'
p51
I643
sS'w+1=that'
p52
I497
sS'dobj=firm'
p53
I154
sS'w-1=study'
p54
I764
sS'nsubj=government'
p55
I297
sS'w-2=not'
p56
I907
sS'w-2=militant'
p57
I899
sS'w-1=would'
p58
I773
sS'dobj=both'
p59
I132
sS'w-1=can'
p60
I720
sS'w+1=euro-atlantic'
p61
I437
sS'prep=to'
p62
I371
sS'w+1=investigation'
p63
I455
sS'w+2=across'
p64
I536
sS'w+1=Russia'
p65
I402
sS'w-2=vow'
p66
I979
sS'w+2=hand'
p67
I601
sS'dep=regional'
p68
I101
sS'w-2=enhance'
p69
I864
sS'w+2=disease'
p70
I583
sS'dobj=abililty'
p71
I117
sS'w+1=these'
p72
I499
sS'advmod=so'
p73
I34
sS'w+1=only'
p74
I473
sS'w-2=focus'
p75
I868
sS'nsubj=study'
p76
I324
sS'w-2=prosecutor'
p77
I931
sS'w-2=way'
p78
I982
sS'w+2=jet'
p79
I614
sS'w-1=will'
p80
I771
sS'w+1=understanding'
p81
I507
sS'nsubj=vote'
p82
I329
sS'w-2=outside'
p83
I914
sS'dobj=effort'
p84
I148
sS'nsubj=rule'
p85
I318
sS'conj=reassure'
p86
I83
sS'w-2=leader'
p87
I887
sS'w+1=cooperation'
p88
I422
sS'w-1=by'
p89
I719
sS'w-1=be'
p90
I717
sS'dep=improve'
p91
I97
sS'w+2=delivery'
p92
I580
sS'w+1=program'
p93
I482
sS'advcl=withstand'
p94
I12
sS'dobj=might'
p95
I186
sS'w-1=leadership'
p96
I743
sS'w+2=team'
p97
I687
sS'w-2=expectation'
p98
I867
sS'w+1=she'
p99
I492
sS'xcomp=give'
p100
I1002
sS'dobj=arsenal'
p101
I125
sS'dobj=partnership'
p102
I201
sS'w-2=where'
p103
I984
sS'w+1=economy'
p104
I432
sS'w+2=commission'
p105
I565
sS'w-2=problem'
p106
I926
sS'w+2=individual'
p107
I607
sS'advcl=take'
p108
I8
sS'w+2=country'
p109
I575
sS'w-2=today'
p110
I971
sS'w-2=also'
p111
I817
sS'w+1=of'
p112
I472
sS'w-2=soon'
p113
I949
sS'mark=unless'
p114
I254
sS'w+2=July'
p115
I525
sS'w+2=to'
p116
I691
sS'w+1=Iran'
p117
I392
sS'w+2=Darfur'
p118
I522
sS'w+2=squad'
p119
I681
sS'nsubjpass=position'
p120
I339
sS'w-2=priority'
p121
I924
sS'w+2=election'
p122
I589
sS'w+2=health'
p123
I603
sS'w-2=continue'
p124
I843
sS'w-1=have'
p125
I736
sS'ccomp=say'
p126
I56
sS'w-2=Senate'
p127
I802
sS'w-2=terrorism'
p128
I962
sS'w+2=regime'
p129
I662
sS'w-2=industry'
p130
I880
sS'w+2=in'
p131
I605
sS'w+2=partnership'
p132
I646
sS'conj=trigger'
p133
I88
sS'dobj=position'
p134
I207
sS'w+2=management'
p135
I622
sS'w+1=India'
p136
I391
sS'w-2=Mills'
p137
I798
sS'dobj=bond'
p138
I131
sS'w-2=aim'
p139
I815
sS'w+2=anti-terrorism'
p140
I547
sS'w-1=could'
p141
I721
sS'w-2=act'
p142
I811
sS'prep=about'
p143
I349
sS'aux=can'
p144
I40
sS'complm=that'
p145
I57
sS'prep=around'
p146
I355
sS'dobj=rule'
p147
I223
sS'w-2=Treaty'
p148
I806
sS'w+1=nuclear'
p149
I471
sS'w+2=legal'
p150
I616
sS'dobj=area'
p151
I123
sS'conj=complement'
p152
I60
sS'conj=keep'
p153
I76
sS'w+1=parliament'
p154
I476
sS'w+1=witness'
p155
I511
sS'w-2=promise'
p156
I930
sS'w-1=you'
p157
I774
sS'w+2=force'
p158
I595
sS'xcomp=fight'
p159
I1001
sS'dep=order'
p160
I100
sS'w+2=President'
p161
I529
sS'w-2=effort'
p162
I861
sS'w-1=only'
p163
I754
sS'w+2=common'
p164
I566
sS'xcomp=Agency'
p165
I991
sS'w+1=the'
p166
I498
sS'advmod=only'
p167
I28
sS'w+2=be'
p168
I555
sS'nsubj=next'
p169
I308
sS'w+1=they'
p170
I500
sS'nsubj=Israel'
p171
I266
sS'dobj=argument'
p172
I124
sS'w+1=those'
p173
I501
sS'advcl=interconnect'
p174
I2
sS'w-2=would'
p175
I988
sS'w+2=government'
p176
I600
sS'conj=reduce'
p177
I84
sS'prep=in'
p178
I363
sS'dobj=test'
p179
I245
sS'dobj=ability'
p180
I118
sS'aux=would'
p181
I48
sS'nsubjpass=radical'
p182
I341
sS'w+1=for'
p183
I441
sS'w+2=argumentof'
p184
I549
sS'nsubj=Seoul'
p185
I269
sS'w-2=gathering'
p186
I869
sS'w-2=African'
p187
I783
sS'dobj=military'
p188
I188
sS'w-2=agree'
p189
I813
sS'w-2=that'
p190
I963
sS'prep=amid'
p191
I353
sS'w+1=democratic'
p192
I425
sS'dobj=disease'
p193
I146
sS'dobj=program'
p194
I213
sS'nsubj=Agreement'
p195
I259
sS'w-1=at'
p196
I716
sS'w+2=sense'
p197
I676
sS'w+2=political'
p198
I651
sS'w-2=meeting'
p199
I898
sS'w-1=reporter'
p200
I758
sS'w+2=random'
p201
I660
sS'w-2=support'
p202
I954
sS'conj=make'
p203
I78
sS'w+2=perception'
p204
I649
sS'xcomp=improve'
p205
I1006
sS'w+1=and'
p206
I408
sS'w-2=sign'
p207
I945
sS'w-1=measure'
p208
I746
sS'nsubj=inability'
p209
I298
sS'w+1=essential'
p210
I436
sS'w+2=friendship'
p211
I597
sS'nsubj=attempt'
p212
I277
sS'advmod=probably'
p213
I30
sS'w+2=society'
p214
I679
sS'partmod=work'
p215
I348
sS'w-2=principal'
p216
I923
sS'w-1=help'
p217
I737
sS'w-2=measure'
p218
I897
sS'w+2=economic'
p219
I584
sS'nsubj=Developments'
p220
I261
sS'w-2=order'
p221
I912
sS'nsubj=that'
p222
I325
sS'w-1=it'
p223
I741
sS'advmod=further'
p224
I19
sS'w+2=trade'
p225
I692
sS'nsubj=cooperation'
p226
I283
sS'ccomp=critical'
p227
I52
sS'w+1=call'
p228
I418
sS'dobj=oversight'
p229
I197
sS'w+2=sentiment'
p230
I677
sS'w+2=sanction'
p231
I674
sS'w-1=significantly'
p232
I763
sS'w+2=link'
p233
I618
sS'w-2=visit'
p234
I978
sS'dobj=fabric'
p235
I152
sS'w-2=assassination'
p236
I822
sS'w+1=auditory'
p237
I412
sS'w+2=badly'
p238
I553
sS'w-1=the'
p239
I766
sS'w-1=move'
p240
I747
sS'nsubj=experience'
p241
I291
sS'w-2=democracy'
p242
I850
sS'dobj=sense'
p243
I227
sS'w+2=power'
p244
I653
sS'nsubj=move'
p245
I306
sS'w-2=deepen'
p246
I849
sS'dobj=role'
p247
I222
sS'mark=in'
p248
I253
sS'w+2=african'
p249
I537
sS'w+2=property'
p250
I657
sS'w-2=work'
p251
I987
sS'w-2=position'
p252
I921
sS'w+2=belief'
p253
I557
sS'w-2=state'
p254
I951
sS'conj=protect'
p255
I80
sS'conj=isolate'
p256
I74
sS'advmod=where'
p257
I37
sS'w-2=project'
p258
I929
sS'w+1=islamic'
p259
I456
sS'w+1=tolerance'
p260
I504
sS'w+2=provision'
p261
I659
sS'conj=join'
p262
I75
sS'xcomp=ease'
p263
I998
sS'xcomp=face'
p264
I1000
sS'w-2=policy'
p265
I920
sS'w+2=insurgent'
p266
I609
sS'dobj=intelligence'
p267
I173
sS'nsubj=way'
p268
I330
sS'w+2=national'
p269
I633
sS'xcomp=tackle'
p270
I1012
sS'w-2=mean'
p271
I896
sS'nsubj=troops'
p272
I328
sS'w-1=experience'
p273
I729
sS'w+1=later'
p274
I461
sS'w+2=body'
p275
I560
sS'dobj=people'
p276
I203
sS'advcl=try'
p277
I9
sS'w+2=Kibaki'
p278
I526
sS'w+1=banking'
p279
I413
sS'dobj=mission'
p280
I190
sS'w-2=border'
p281
I832
sS'w-1=world'
p282
I772
sS'conj=uphold'
p283
I89
sS'dobj=power'
p284
I208
sS'w+2=parliamentary'
p285
I644
sS'nsubj=who'
p286
I331
sS'w+1=both'
p287
I415
sS'nsubj=ruling'
p288
I319
sS'w-1=for'
p289
I731
sS'w+1=math'
p290
I465
sS'w-2=of'
p291
I908
sS'w-2=tax'
p292
I958
sS'w-2=have'
p293
I872
sS'w-2=probable'
p294
I925
sS'w+2=for'
p295
I594
sS'dobj=private'
p296
I211
sS'w-2=on'
p297
I909
sS'w-1=to'
p298
I767
sS'w-2=deploy'
p299
I851
sS'dobj=parliament'
p300
I198
sS'w-2=surveillance'
p301
I956
sS'w+1=its'
p302
I458
sS'dobj=endurance'
p303
I150
sS'dobj=assistance'
p304
I127
sS'dobj=#PRP#'
p305
I105
sS'w-2=commitment'
p306
I840
sS'w-2=do'
p307
I857
sS'dobj=opposition'
p308
I196
sS'nsubj=authority'
p309
I278
sS'w-1=lake'
p310
I742
sS'dobj=presence'
p311
I209
sS'dobj=gathering'
p312
I161
sS'dobj=skeptic'
p313
I230
sS'w+2=against'
p314
I538
sS'w-2=solution'
p315
I948
sS'nsubjpass=everyone'
p316
I335
sS'w+2=independence'
p317
I606
sS'w-2=ability'
p318
I808
sS'xcomp=withstand'
p319
I1015
sS'w+2=surveillance'
p320
I685
sS'w+2=DRC'
p321
I521
sS'advcl=seize'
p322
I7
sS'conj=weaken'
p323
I91
sS'ccomp=give'
p324
I54
sS'w-2=protect'
p325
I932
sS'dobj=defens'
p326
I142
sS'advmod=however'
p327
I23
sS'w-2=and'
p328
I818
sS'dobj=skill'
p329
I231
sS'dobj=protection'
p330
I214
sS'dobj=aspiration'
p331
I126
sS'nsubj=Russia'
p332
I268
sS'dobj=cooperation'
p333
I141
sS'nsubj=project'
p334
I314
sS'nsubj=company'
p335
I282
sS'conj=limit'
p336
I77
sS'nsubj=meeting'
p337
I304
sS'w+2=under-funded'
p338
I694
sS'w+1=relation'
p339
I487
sS'w+1=Israel'
p340
I394
sS'w+1=Jordan'
p341
I397
sS'conj=give'
p342
I69
sS'w-2=government'
p343
I871
sS'nsubjpass=that'
p344
I343
sS'w+2=measure'
p345
I625
sS'dobj=independence'
p346
I167
sS'w-1=Estimate'
p347
I710
sS'w-2=Ivan'
p348
I795
sS'conj=open'
p349
I79
sS'w-1=both'
p350
I718
sS'nsubj=election'
p351
I290
sS'w+1=port'
p352
I479
sS'w+1=coordination'
p353
I423
sS'w-2=may'
p354
I895
sS'w-2=Russia'
p355
I801
sS'dobj=mechanism'
p356
I185
sS'w-2=biosecurity'
p357
I831
sS'w+2=Abbas'
p358
I518
sS'w+2=case'
p359
I564
sS'w-2=able'
p360
I809
sS'w-1=likely'
p361
I744
sS'nsubj=policy'
p362
I311
sS'w+1=health'
p363
I445
sS'w+1=vigilance'
p364
I508
sS'w+2=because'
p365
I556
sS'w+1=Afghanistan'
p366
I379
sS'dobj=side'
p367
I229
sS'w-1=Washington'
p368
I711
sS'w-2=ever'
p369
I865
sS'w-2=will'
p370
I986
sS'w-2=initiative'
p371
I881
sS'w-2=rights'
p372
I940
sS'nsubj=result'
p373
I316
sS'w+1=disaster'
p374
I428
sS'xcomp=deal'
p375
I996
sS'dep=#PRP#'
p376
I96
sS'dobj=majority'
p377
I181
sS'w-2=about'
p378
I810
sS'prep=for'
p379
I362
sS'w-2=Agreement'
p380
I784
sS'dobj=mind'
p381
I189
sS'w+1=we'
p382
I509
sS'w-2=together'
p383
I972
sS'w+2=effort'
p384
I588
sS'advmod=abroad'
p385
I14
sS'dobj=investigation'
p386
I174
sS'w-2=U.S.'
p387
I807
sS'parataxis=say'
p388
I346
sS'w+2=Taleban'
p389
I530
sS'dobj=provision'
p390
I215
sS'w+2=while'
p391
I698
sS'w-2=commit'
p392
I839
sS'w+2=levee'
p393
I617
sS'dobj=commission'
p394
I136
sS'auxpass=be'
p395
I49
sS'w-1=probably'
p396
I756
sS'w+2=govern'
p397
I599
sS"w-1='s"
p398
I703
sS'conj=ease'
p399
I62
sS'w-2=year'
p400
I989
sS'dobj=community'
p401
I138
sS'w-2=rift'
p402
I939
sS'w-2=letter'
p403
I890
sS'w+2=around'
p404
I550
sS'w+1=pakistani'
p405
I474
sS'dobj=Hamas'
p406
I109
sS'nsubj=Algeria'
p407
I260
sS'prep=before'
p408
I359
sS'w-2=desire'
p409
I853
sS'w+1=Musharraf'
p410
I400
sS'conj=improve'
p411
I73
sS'advmod=much'
p412
I26
sS'advcl=recover'
p413
I4
sS'w+2=implementation'
p414
I604
sS'dobj=local'
p415
I180
sS'w-2=opportunity'
p416
I910
sS'w-2=Afghanistan'
p417
I782
sS'dobj=regulation'
p418
I218
sS'nsubj=set'
p419
I322
sS'advmod=overseas'
p420
I29
sS'w-1=say'
p421
I761
sS'nsubj=effort'
p422
I289
sS'w+2=foundation'
p423
I596
sS'w-2=approach'
p424
I819
sS'prep=of'
p425
I365
sS'nsubj=to'
p426
I327
sS'w+2=banking'
p427
I554
sS'dobj=democracy'
p428
I144
sS'nsubj=agreement'
p429
I273
sS'dobj=development'
p430
I145
sS'w+2=staff'
p431
I682
sS'w-2=deal'
p432
I848
sS'w+2=mission'
p433
I629
sS'conj=enforce'
p434
I65
sS'nsubj=echo'
p435
I288
sS'dobj=hand'
p436
I163
sS'w+1=too'
p437
I505
sS'w-1=fact'
p438
I730
sS'w-2=up'
p439
I977
sS'w-2=those'
p440
I969
sS'w+1=my'
p441
I469
sS'nsubjpass=Authority'
p442
I333
sS'w+1=bond'
p443
I414
sS'dobj=framework'
p444
I158
sS'xcomp=hand'
p445
I1004
sS'w+2=role'
p446
I671
sS'w+2=aim'
p447
I540
sS'nsubj=yuan'
p448
I332
sS'dobj=body'
p449
I130
sS'advmod=likely'
p450
I25
sS'dep=with'
p451
I104
sS'w+1=reciprocal'
p452
I485
sS'w-2=wallet'
p453
I980
sS'w-2=month'
p454
I902
sS'w-2=allow'
p455
I816
sS'w-1=economy'
p456
I726
sS'w-2=tell'
p457
I959
sS"w-2=''"
p458
I775
sS'nsubj=rift'
p459
I317
sS'nsubj=this'
p460
I326
sS'dobj=government'
p461
I162
sS'w+2=of'
p462
I636
sS'dep=urgent'
p463
I102
sS'w+2=sovereignty'
p464
I680
sS'w+2=on'
p465
I637
sS'w+1=to'
p466
I503
sS'w-2=Kraus'
p467
I796
sS'w-2=signal'
p468
I946
sS'w-2=diaspora'
p469
I855
sS'w+1=unannounced'
p470
I506
sS'w-1=we'
p471
I768
sS'w+2=he'
p472
I602
sS'w+1=so'
p473
I495
sS'w-2=struggle'
p474
I953
sS'conj=have'
p475
I70
sS'conj=enable'
p476
I64
sS'dobj=Party'
p477
I112
sS'w+1=Georgia'
p478
I386
sS'w+2=along'
p479
I543
sS'w-2=maintain'
p480
I893
sS'w+1=...'
p481
I378
sS'w+2=partner'
p482
I645
sS'nsubj=anger'
p483
I275
sS'w+1=disease'
p484
I429
sS'w+2=area'
p485
I548
sS'dobj=sentiment'
p486
I228
sS'advcl=weaken'
p487
I11
sS'w-1=while'
p488
I769
sS'w+2=relinquish'
p489
I666
sS'w+2=about'
p490
I535
sS'w-2=credit'
p491
I846
sS'w-2=attempt'
p492
I823
sS'w+1=Germany'
p493
I387
sS'dobj=friendship'
p494
I159
sS'w+1=measure'
p495
I466
sS'dobj=case'
p496
I134
sS'w+2=american'
p497
I544
sS'w+1=political'
p498
I478
sS'w+1=effort'
p499
I433
sS'w-1=in'
p500
I738
sS'w+2=daily'
p501
I577
sS'nsubjpass=force'
p502
I336
sS'xcomp=help'
p503
I1005
sS'advmod=significantly'
p504
I32
sS'w-2=spending'
p505
I950
sS'w-2=who'
p506
I985
sS'w+2=,'
p507
I515
sS'dobj=israeli'
p508
I175
sS'w+2=may'
p509
I624
sS'w+1=local'
p510
I464
sS'w+2=International'
p511
I524
sS'w-2=respect'
p512
I938
sS'nsubj=Iraqis'
p513
I265
sS'w+1=international'
p514
I454
sS'dobj=fortune'
p515
I156
sS'w+1=coca'
p516
I419
sS'dobj=confidence'
p517
I139
sS'w+2=long-standing'
p518
I619
sS'dobj=vaccine'
p519
I250
sS'nsubjpass=resolve'
p520
I342
sS'w+2=much'
p521
I631
sS'dobj=integration'
p522
I172
sS'dobj=security'
p523
I226
sS'dobj=alliance'
p524
I121
sS'w+2=agreement'
p525
I539
sS'w+2=Afghan'
p526
I519
sS'w-1=rule'
p527
I760
sS'dobj=value'
p528
I251
sS'dobj=tie'
p529
I246
sS'w-2=aside'
p530
I821
sS'w+2=ability'
p531
I534
sS'w+1=peace'
p532
I477
sS'dobj=U.N.'
p533
I114
sS'w-2=plan'
p534
I918
sS'w-2=seek'
p535
I942
sS'w-2=Darfur'
p536
I786
sS'nsubj=gain'
p537
I295
sS'advmod=even'
p538
I18
sS'conj=education'
p539
I63
sS'w-2=this'
p540
I968
sS'advmod=there'
p541
I35
sS'prep=throughout'
p542
I370
sS'dobj=delivery'
p543
I143
sS'w-2=million'
p544
I900
sS'w+2=welfare'
p545
I697
sS'advmod=greatly'
p546
I21
sS'prep=while'
p547
I372
sS'mark=while'
p548
I255
sS'w-2=the'
p549
I964
sS'w+2=U.N.'
p550
I531
sS'aux=do'
p551
I42
sS'w-2=Iraq'
p552
I793
sS'dobj=network'
p553
I193
sS'w+1=Jerusalem'
p554
I396
sS'w+2=mind'
p555
I628
sS'w+1=labor'
p556
I460
sS'w-2=bank'
p557
I826
sS'w+2=care'
p558
I563
sS'aux=will'
p559
I47
sS'w+1=UNAMI'
p560
I404
sS'w+2=cope'
p561
I574
sS'nsubjpass=majority'
p562
I338
sS'w+2=many'
p563
I623
sS'w+2=new'
p564
I634
sS'w+2=Democratic'
p565
I523
sS'w-2=area'
p566
I820
sS'dobj=summit'
p567
I241
sS'w+1=restitution'
p568
I489
sS'nsubj=States'
p569
I270
sS'xcomp=cope'
p570
I994
sS'nsubj=people'
p571
I309
sS'prep=with'
p572
I373
sS'w-2=negotiation'
p573
I906
sS'conj=battle'
p574
I58
sS'w+2=military'
p575
I627
sS'nsubj=community'
p576
I281
sS'w-2=citizen'
p577
I837
sS'dobj=relation'
p578
I219
sS'ccomp=idea'
p579
I55
sS'w+2=defens'
p580
I579
sS'xcomp=train'
p581
I1013
sS'w+2=people'
p582
I648
sS'dobj=force'
p583
I155
sS'advmod=therefore'
p584
I36
sS'w-1=greatly'
p585
I735
sS'w-2=suppose'
p586
I955
sS'w-2=earlier'
p587
I860
sS'w+2=with'
p588
I699
sS'w-2=India'
p589
I791
sS'w+2=rule'
p590
I672
sS'w-1=result'
p591
I759
sS'w-2=in'
p592
I878
sS'w-1=recently'
p593
I757
sS'nsubj=service'
p594
I321
sS'dobj=ally'
p595
I122
sS'w-2=nation'
p596
I904
sS'w+2=moderate'
p597
I630
sS'w-1=institutional'
p598
I740
sS'w+2=democracy'
p599
I581
sS'w+2=tie'
p600
I690
sS'w-2=Somaliland'
p601
I804
sS'w+1=slightly'
p602
I494
sS'w+2=summit'
p603
I684
sS'prep=because'
p604
I358
sS'w+1=Britain'
p605
I382
sS'w-2=service'
p606
I943
sS'dobj=struggle'
p607
I240
sS'w-2=begin'
p608
I828
sS'nsubj=militant'
p609
I305
sS'nsubj=deal'
p610
I285
sS'w+1=significantly'
p611
I493
sS'w-2=could'
p612
I844
sS'w+1=public'
p613
I484
sS'w+1=Europe'
p614
I385
sS'conj=use'
p615
I90
sS'w+1=presidential'
p616
I481
sS'w-2=come'
p617
I838
sS'w-2=Kurdistan'
p618
I797
sS'w-1=lso'
p619
I745
sS'nsubj=EU'
p620
I262
sS'nsubj=further'
p621
I294
sS"w-1=''"
p622
I702
sS"w+2=''"
p623
I513
sS'nsubj=country'
p624
I284
sS'dobj=resolve'
p625
I220
sS'xcomp=stem'
p626
I1011
sS'nsubj=funding'
p627
I293
sS'nsubj=$'
p628
I258
sS'w+1=global'
p629
I443
sS'advmod=also'
p630
I16
sS'w+2=value'
p631
I696
sS'w+1=palestinian'
p632
I475
sS'w+2=deepen'
p633
I578
sS'w-2=institution'
p634
I882
sS'dobj=institution'
p635
I170
sS'w+2=private'
p636
I655
sS'dobj=partner'
p637
I200
sS'w-2=business'
p638
I834
sS'w-2=we'
p639
I983
sS'w-2=program'
p640
I928
sS'w-2=States'
p641
I805
sS'w+2=bond'
p642
I561
sS'w-2=call'
p643
I836
sS'conj=work'
p644
I92
sS'advcl=route'
p645
I5
sS'w-2=ago'
p646
I812
sS'cc=and'
p647
I50
sS'w+2=institution'
p648
I608
sS'w+2=non-military'
p649
I635
sS'w+1=anti-west'
p650
I410
sS'w-1=include'
p651
I739
sS'w+1=by'
p652
I417
sS'dobj=stream'
p653
I238
sS'w+1=Egypt'
p654
I384
sS'dobj=insurgent'
p655
I171
sS'dobj=moderate'
p656
I191
sS'nsubj=border'
p657
I279
sS'w+2=Moscow'
p658
I527
sS'w+1=regional'
p659
I486
sS'nsubj=law'
p660
I300
sS'prep=include'
p661
I364
sS'w-2=Intelligence'
p662
I792
sS'w+1=confidence-building'
p663
I420
sS'w+1=Iraq'
p664
I393
sS'xcomp=develop'
p665
I997
sS'w+1=if'
p666
I448
sS'w-2=peace'
p667
I916
sS'w+2=economy'
p668
I585
sS'w-2=let'
p669
I889
sS'dobj=standard'
p670
I235
sS'w+1=in'
p671
I449
sS'w-2=Congress'
p672
I785
sS'w+2=party'
p673
I647
sS'w+1=it'
p674
I457
sS'xcomp=halt'
p675
I1003
sS'nsubj=#PRP#'
p676
I257
sS'dobj=U.S.'
p677
I115
sS'advmod=both'
p678
I17
sS'w+2=major'
p679
I621
sS'w-1=from'
p680
I732
sS'nsubjpass=hand'
p681
I337
sS'w+1=America'
p682
I380
sS'w+1=intellectual'
p683
I453
sS'w+2=confidence'
p684
I570
sS'w+2=1972'
p685
I517
sS'dobj=chance'
p686
I135
sS'cc=but'
p687
I51
sS'w-2=training'
p688
I974
sS'w-2=set'
p689
I944
sS'nsubj=Ivan'
p690
I267
sS'nsubj=IAVI'
p691
I264
sS'dobj=individual'
p692
I168
sS'w-2=1987'
p693
I781
sS'dobj=support'
p694
I242
sS'w+1=development'
p695
I426
sS'dobj=standing'
p696
I236
sS'conj=equip'
p697
I67
sS'aux=could'
p698
I41
sS'w+2=alliance'
p699
I541
sS'xcomp=peacekeep'
p700
I1008
sS'w+1=-rrb-'
p701
I376
sS'w+2=protection'
p702
I658
sS'w+2=struggle'
p703
I683
sS'dobj=state'
p704
I237
sS'w+1=law'
p705
I462
sS'conj=provide'
p706
I81
sS'dep=in'
p707
I98
sS'w-2=money'
p708
I901
sS'w-2=reform'
p709
I935
sS'w+2=Musharraf'
p710
I528
sS'aux=must'
p711
I44
sS'advmod=all'
p712
I15
sS'w-2=crisis'
p713
I847
sS'w+2=vaccine'
p714
I695
sS'w+1=infrastructure'
p715
I450
sS'w-1=country'
p716
I722
sS'w-2=process'
p717
I927
sS'w+2=au'
p718
I552
sS'w-2=authority'
p719
I825
sS'w+2=service'
p720
I678
sS'w+2=educational'
p721
I586
sS'w-2=be'
p722
I827
sS'xcomp=consolidate'
p723
I993
sS'conj=ensure'
p724
I66
sS'w-1=further'
p725
I733
sS'conj=tour'
p726
I87
sS'w-2=dong'
p727
I859
sS'prep=on'
p728
I366
sS'dobj=Taleban'
p729
I113
sS'parataxis=isolate'
p730
I345
sS'w+2=militant'
p731
I626
sS'xcomp=prevent'
p732
I1009
sS'w+2=oversight'
p733
I640
sS'w-2=islamist'
p734
I885
sS'w+1=democracy'
p735
I424
sS'w+2=system'
p736
I686
sS'w-2=company'
p737
I842
sS'dobj=foundation'
p738
I157
sS'w+1=Anwar'
p739
I381
sS'conj=take'
p740
I86
sS'w+2=democratic'
p741
I582
sS'w+2=complement'
p742
I569
sS'xcomp=proactive'
p743
I1010
sS'w+2=conservative'
p744
I571
sS'w+2=efficiency'
p745
I587
sS'advmod=recently'
p746
I31
sS'w-1=eventually'
p747
I728
sS'nsubj=citizen'
p748
I280
sS'nsubj=difference'
p749
I286
sS'dobj=system'
p750
I244
sS'w-2=discussion'
p751
I856
sS'w+1=tie'
p752
I502
sS'w+1=Hamas'
p753
I389
sS'dobj=militant'
p754
I187
sS'w+2=that'
p755
I688
sS'w-2=to'
p756
I970
sS'nsubjpass=bank'
p757
I334
sS'w+2=own'
p758
I641
sS'dobj=hold'
p759
I164
sS'w+2=and'
p760
I546
sS'w-1=who'
p761
I770
sS'dobj=society'
p762
I232
sS'dobj=safeguard'
p763
I224
sS'w-2=want'
p764
I981
sS'dobj=president'
p765
I210
sS'w-1=or'
p766
I755
sS'w+2=u.s'
p767
I693
sS'nsubj=administration'
p768
I272
sS'w-1=;'
p769
I708
sS'w-2=importance'
p770
I877
sS'nsubj=lack'
p771
I299
sS'w-2=-lrb-'
p772
I778
sS'w+2=equip'
p773
I590
sS'w-2=Nations'
p774
I800
sS'w-1=of'
p775
I752
sS'nsubj=police'
p776
I310
sS'w+2=fight'
p777
I591
sS'xcomp=loyal'
p778
I1007
sS'w-2=pledge'
p779
I919
sS'dobj=process'
p780
I212
sS'w+2=it'
p781
I613
sS'w-2=Hezbollah'
p782
I789
sS'w-1=dollar'
p783
I725
sS'w+2=regulation'
p784
I664
sS'nsubj=problem'
p785
I312
sS'prep=across'
p786
I350
sS'conj=show'
p787
I85
sS'w-2=try'
p788
I975
sS'w-2=legislation'
p789
I888
sS'w-2=must'
p790
I903
sS'w-2=agreement'
p791
I814
sS'advcl=visit'
p792
I10
sS'w+1=relationship'
p793
I488
sS'nsubj=allegation'
p794
I274
sS'w-2=he'
p795
I873
sS'w+2=U.S.'
p796
I532
sS'w-2=hurricane'
p797
I876
sS'prep=since'
p798
I367
sS'dobj=tolerance'
p799
I247
sS'w+2=resolve'
p800
I668
sS'w-2=1980s'
p801
I780
sS'advcl=like'
p802
I3
sS'dobj=levee'
p803
I179
sS'dobj=agreement'
p804
I120
sS'w+2=process'
p805
I656
sS'advmod=now'
p806
I27
sS'w-2=attrition'
p807
I824
sS'w-2=say'
p808
I941
sS'w+2=fledgling'
p809
I593
sS'dobj=economy'
p810
I147
sS'w+2=the'
p811
I689
sS'prep=at'
p812
I357
sS'w+1=itself'
p813
I459
sS'prep=as'
p814
I356
sS'dobj=accountability'
p815
I119
sS'w-2=,'
p816
I776
sS'w-2=-'
p817
I777
sS'w+1=non-proliferation'
p818
I470
sS'xcomp=widen'
p819
I1014
sS'w-1=and'
p820
I715
sS'dobj=sanction'
p821
I225
sS'w+1=what'
p822
I510
sS'dobj=understanding'
p823
I249
sS'aux=have'
p824
I43
sS'w-2=iranian'
p825
I884
sS'w-2=but'
p826
I835
sS'dobj=implementation'
p827
I166
sS'prep=among'
p828
I354
sS'w-1=.'
p829
I706
sS'w-1=,'
p830
I704
sS'w-1=difference'
p831
I723
sS'dobj=structure'
p832
I239
sS'w-2=NATO'
p833
I799
sS'nsubj=solution'
p834
I323
sS'w+2=cooperation'
p835
I573
sS'dobj=infrastructure'
p836
I169
sS'w+1=moderate'
p837
I468
sS'csubj=give'
p838
I94
sS'dobj=enforcement'
p839
I151
sS'w-2=it'
p840
I886
sS'w+1=military'
p841
I467
sS'dobj=leadership'
p842
I177
sS'xcomp=ensure'
p843
I999
sS'w+2=israeli'
p844
I612
sS'dobj=regime'
p845
I217
sS'w+1=family'
p846
I439
sS'w-2=so'
p847
I947
sS'w+1=Japan'
p848
I395
sS'advcl=enforce'
p849
I0
sS'w-1=also'
p850
I714
sS'w-2=how'
p851
I875
sS'prep=through'
p852
I369
sS'w+2=presence'
p853
I654
sS'conj=help'
p854
I71
sS'advmod=above'
p855
I13
sS'w+1=security'
p856
I491
sS'w+2=control'
p857
I572
sS'w+2=you'
p858
I701
sS'aux=should'
p859
I45
sS'advmod=slightly'
p860
I33
sS'dobj=Abbas'
p861
I106
sS'dobj=belief'
p862
I128
sS'w+2=iraqi'
p863
I611
sS'dobj=rights'
p864
I221
sS'w+1=post-conflict'
p865
I480
sS'dobj=Union'
p866
I116
sS'dobj=trade'
p867
I248
sS'w+1=Mr.'
p868
I399
sS'w-1=agreement'
p869
I712
sS'w+1=fuel'
p870
I442
sS'conj=bring'
p871
I59
sS'w+2=capacity'
p872
I562
sS'w-2=Israel'
p873
I794
sS'nsubj=finding'
p874
I292
sS'dobj=sovereignty'
p875
I233
sS'nsubjpass=which'
p876
I344
sS'w-2=poverty'
p877
I922
sS'ccomp=fail'
p878
I53
sS'w+2=worldwide'
p879
I700
sS'w+2=repressive'
p880
I667
sS'w-1=-lrb-'
p881
I705
sS'w+2=risk'
p882
I670
sS'w-2=make'
p883
I894
sS'w-2=Seoul'
p884
I803
sS'w-2=yuan'
p885
I990
sS'w+2=security'
p886
I675
sS'dobj=squad'
p887
I234
sS'nsubj=reporter'
p888
I315
sS'w+1=economic'
p889
I431
sS'advcl=seek'
p890
I6
sS'dobj=surveillance'
p891
I243
sS'nsubj=measure'
p892
I303
sS'w+2=communist'
p893
I567
sS'w-2=request'
p894
I937
sS'w-2=bid'
p895
I829
sS'w-2=good'
p896
I870
sS'partmod=give'
p897
I347
sS'w+1=Mexico'
p898
I398
sS'w+1=President'
p899
I401
sS'prep=after'
p900
I351
sS'w+2=Biological'
p901
I520
sS'w-2=EU'
p902
I787
sS'dobj=measure'
p903
I184
sS'conj=fight'
p904
I68
sS'dep=weaken'
p905
I103
sS'dobj=commitment'
p906
I137
sS'w-1=even'
p907
I727
sS'w+2=palestinian'
p908
I642
sS'dobj=policy'
p909
I206
sS'w+2=main'
p910
I620
sS'w-2=opposition'
p911
I911
sS'dobj=Convention'
p912
I108
sS'conj=rally'
p913
I82
sS'w+2=relation'
p914
I665
sS'prep=against'
p915
I352
sS'w-2=there'
p916
I966
sS'nsubj=Washington'
p917
I271
sS'dobj=Jerusalem'
p918
I111
sS'w+2=assistance'
p919
I551
sS'w+1=business'
p920
I416
sS'w-2=develop'
p921
I854
sS'w-2=both'
p922
I833
sS'w+1=drilling'
p923
I430
sS'w-2=term'
p924
I960
sS'w-2=enforcement'
p925
I863
sS'w-2=likely'
p926
I891
sS'w-2=partnership'
p927
I915
sS'w+2=global'
p928
I598
sS'dobj=reform'
p929
I216
sS'w-1=Damascus'
p930
I709
sS'advmod=how'
p931
I22
sS'dobj=fight'
p932
I153
sS'w+2=rights'
p933
I669
sS'dobj=hope'
p934
I165
sS'w+1=Haiti'
p935
I388
sS'dobj=legislation'
p936
I178
sS'w-1=all'
p937
I713
sS'w-1=government'
p938
I734
sS'nsubj=assassination'
p939
I276
sS'w+1=endurance'
p940
I435
sS'dobj=Israel'
p941
I110
sS'w+1=U.S.'
p942
I403
sS'nsubj=legislation'
p943
I302
sS'w-1=do'
p944
I724
sS'w-2=help'
p945
I874
sS'w+1=after'
p946
I407
sS'w-2=take'
p947
I957
sS'w+2=intelligence'
p948
I610
sS'w+2=courageous'
p949
I576
sS'aux=to'
p950
I46
sS'w+1=institution'
p951
I451
sS'dobj=voice'
p952
I252
sS'w+2=law'
p953
I615
sS'w+1=support'
p954
I496
sS'w-2=interest'
p955
I883
sS'w+1=Congress'
p956
I383
sS'nsubj=Estimate'
p957
I263
sS'nsubj=gathering'
p958
I296
sS'w+1=as'
p959
I411
sS'nsubj=nation'
p960
I307
sS'w+2=opposition'
p961
I639
sS'w-2=design'
p962
I852
sS'dobj=part'
p963
I199
sS'w+2=reconstruction'
p964
I661
sS'dobj=market'
p965
I183
sS'w+1=control'
p966
I421
sS'w+2=safeguard'
p967
I673
sS'advmod=later'
p968
I24
sS'w+1=,'
p969
I375
sS'dobj=Agreement'
p970
I107
sS'w+1=.'
p971
I377
sS'w+2=position'
p972
I652
sS'dobj=party'
p973
I202
sS'w+2=.'
p974
I516
sS'w+1=election'
p975
I434
sS'w+1=human'
p976
I447
sS'w+1=integration'
p977
I452
sS'dobj=fundamentalist'
p978
I160
sS'w-2=step'
p979
I952
sS'dobj=management'
p980
I182
sS'nsubjpass=program'
p981
I340
sS'neg=not'
p982
I256
sS'xcomp=bolster'
p983
I992
sS'dobj=operation'
p984
I195
sS'prep=during'
p985
I361
sS'w+1=routine'
p986
I490
sS'w+1=I'
p987
I390
sS'w+2=personal'
p988
I650
sS'w+2=region'
p989
I663
sS'w-2=dollar'
p990
I858
sS'w-2=.'
p991
I779
sS'nsubj=leadership'
p992
I301
sS'dobj=non-proliferation'
p993
I194
sS'w-2=re-election'
p994
I933
sS'w-2=IAVI'
p995
I790
sS'w-2=reconstitute'
p996
I934
sS'w+1=accountability'
p997
I406
sS'w-2=maghreb'
p998
I892
sS'w-1=on'
p999
I753
sS'conj=deepen'
p1000
I61
sS'w-2=renew'
p1001
I936
sS'dobj=capacity'
p1002
I133
sS'dobj=nation'
p1003
I192
sS'dobj=control'
p1004
I140
sS'w+1=a'
p1005
I405
sS'w-1=now'
p1006
I751
sS'w-1=not'
p1007
I750
sS'w+2=ally'
p1008
I542
sS'w-1=must'
p1009
I748
sS'w-2=trade'
p1010
I973
sS'w-2=exercise'
p1011
I866
sS'csubj=need'
p1012
I95
sS'w+1=he'
p1013
I444
sS'w+1=exist'
p1014
I438
sS'dobj=bid'
p1015
I129
sS'w-1=that'
p1016
I765
sS'aux=be'
p1017
I39
sS'xcomp=crack'
p1018
I995
sS'w+1=legal'
p1019
I463
sS'w-2=includemeasure'
p1020
I879
sS'w+2=bid'
p1021
I559
sS'w+2=a'
p1022
I533
sS'w+2=community'
p1023
I568
ssS'dtype'
p1024
cnumpy
float64
p1025
sS'feature_names_'
p1026
(lp1027
g849
ag10
ag174
ag802
ag413
ag645
ag890
ag322
ag108
ag277
ag792
ag487
ag94
ag855
ag385
ag712
ag630
ag678
ag538
ag224
ag22
ag546
ag931
ag327
ag968
ag450
ag412
ag806
ag167
ag420
ag213
ag746
ag504
ag860
ag73
ag541
ag584
ag257
ag38
ag1017
ag144
ag698
ag551
ag824
ag711
ag859
ag950
ag559
ag181
ag395
ag647
ag687
ag227
ag878
ag324
ag579
ag126
ag145
ag574
ag871
ag152
ag1000
ag399
ag539
ag476
ag434
ag724
ag697
ag904
ag342
ag475
ag854
ag42
ag411
ag256
ag262
ag153
ag336
ag203
ag349
ag255
ag706
ag913
ag86
ag177
ag787
ag740
ag726
ag133
ag283
ag615
ag323
ag644
ag9
ag838
ag1012
ag376
ag91
ag707
ag24
ag160
ag68
ag463
ag905
ag451
ag305
ag861
ag970
ag912
ag406
ag941
ag918
ag477
ag729
ag533
ag677
ag866
ag71
ag180
ag815
ag804
ag524
ag595
ag151
ag172
ag101
ag331
ag304
ag862
ag1015
ag449
ag138
ag59
ag1002
ag496
ag686
ag394
ag906
ag401
ag517
ag1004
ag333
ag326
ag543
ag428
ag430
ag193
ag810
ag84
ag28
ag303
ag839
ag235
ag932
ag53
ag583
ag515
ag738
ag444
ag494
ag978
ag312
ag461
ag436
ag759
ag934
ag827
ag346
ag692
ag836
ag635
ag655
ag522
ag267
ag386
ag508
ag17
ag842
ag936
ag803
ag415
ag377
ag980
ag965
ag903
ag356
ag95
ag754
ag188
ag381
ag280
ag656
ag1003
ag553
ag993
ag984
ag308
ag229
ag300
ag963
ag637
ag102
ag973
ag276
ag21
ag43
ag909
ag134
ag284
ag311
ag765
ag296
ag780
ag194
ag330
ag390
ag929
ag845
ag418
ag578
ag625
ag864
ag247
ag147
ag763
ag821
ag523
ag243
ag486
ag367
ag313
ag329
ag762
ag875
ag887
ag670
ag696
ag704
ag653
ag832
ag607
ag567
ag694
ag891
ag750
ag179
ag529
ag799
ag867
ag823
ag519
ag528
ag952
ag248
ag114
ag548
ag982
ag676
ag628
ag195
ag407
ag220
ag620
ag957
ag691
ag513
ag171
ag690
ag332
ag185
ag569
ag917
ag768
ag429
ag794
ag483
ag939
ag212
ag309
ag657
ag748
ag576
ag335
ag226
ag624
ag610
ag749
ag50
ag435
ag422
ag351
ag241
ag874
ag627
ag621
ag537
ag958
ag55
ag209
ag771
ag660
ag992
ag943
ag892
ag337
ag609
ag245
ag960
ag169
ag571
ag776
ag362
ag785
ag37
ag334
ag888
ag373
ag459
ag85
ag288
ag12
ag594
ag419
ag834
ag76
ag222
ag460
ag426
ag272
ag82
ag268
ag286
ag448
ag442
ag757
ag316
ag502
ag681
ag562
ag120
ag981
ag182
ag520
ag344
ag876
ag730
ag388
ag897
ag215
ag143
ag786
ag900
ag915
ag191
ag828
ag146
ag814
ag812
ag604
ag408
ag46
ag985
ag379
ag178
ag661
ag425
ag728
ag798
ag44
ag852
ag542
ag62
ag547
ag572
ag47
ag969
ag701
ag971
ag481
ag366
ag682
ag739
ag605
ag956
ag654
ag614
ag478
ag493
ag935
ag753
ag987
ag136
ag117
ag664
ag340
ag848
ag554
ag341
ag898
ag868
ag410
ag899
ag65
ag942
ag560
ag1005
ag997
ag946
ag206
ag32
ag650
ag959
ag237
ag279
ag443
ag287
ag920
ag652
ag228
ag516
ag663
ag966
ag88
ag353
ag735
ag192
ag695
ag36
ag374
ag484
ag923
ag889
ag104
ag499
ag975
ag940
ag210
ag61
ag1014
ag846
ag23
ag183
ag870
ag629
ag1013
ag363
ag33
ag976
ag666
ag671
ag715
ag951
ag977
ag683
ag514
ag63
ag259
ag674
ag302
ag813
ag556
ag274
ag705
ag1019
ag510
ag290
ag495
ag841
ag837
ag441
ag818
ag149
ag112
ag74
ag405
ag632
ag154
ag532
ag498
ag352
ag865
ag616
ag93
ag45
ag613
ag452
ag659
ag339
ag793
ag568
ag986
ag856
ag99
ag611
ag602
ag473
ag954
ag52
ag166
ag72
ag170
ag173
ag752
ag466
ag260
ag437
ag470
ag81
ag364
ag382
ag822
ag155
ag25
ag623
ag26
ag507
ag974
ag685
ag358
ag526
ag901
ag321
ag118
ag565
ag511
ag115
ag278
ag658
ag710
ag161
ag389
ag550
ag796
ag1022
ag531
ag490
ag64
ag249
ag314
ag525
ag447
ag699
ag1008
ag479
ag497
ag20
ag760
ag140
ag485
ag184
ag404
ag919
ag718
ag238
ag427
ag168
ag365
ag253
ag27
ag1021
ag275
ag642
ag872
ag558
ag359
ag105
ag164
ag893
ag1023
ag742
ag684
ag744
ag857
ag835
ag561
ag109
ag949
ag501
ag633
ag580
ag92
ag599
ag741
ag70
ag219
ag668
ag721
ag745
ag384
ag122
ag773
ag777
ag29
ag809
ag295
ag158
ag423
ag211
ag928
ag397
ag176
ag67
ag472
ag123
ag414
ag131
ag317
ag107
ag648
ag266
ag948
ag863
ag844
ag781
ag79
ag953
ag150
ag393
ag233
ag518
ag910
ag679
ag135
ag563
ag509
ag345
ag731
ag575
ag555
ag433
ag597
ag521
ag48
ag269
ag564
ag649
ag462
ag465
ag11
ag961
ag733
ag758
ag908
ag51
ag285
ag482
ag132
ag673
ag582
ag204
ag988
ag198
ag972
ag244
ag853
ag636
ag805
ag250
ag702
ag261
ag201
ag964
ag129
ag989
ag784
ag914
ag489
ag880
ag800
ag933
ag882
ag446
ag590
ag967
ag231
ag886
ag197
ag230
ag720
ag214
ag464
ag119
ag431
ag703
ag603
ag320
ag736
ag97
ag755
ag811
ag600
ag116
ag225
ag767
ag338
ag714
ag631
ag545
ag391
ag588
ag879
ag858
ag622
ag398
ag830
ag881
ag829
ag13
ag769
ag930
ag347
ag368
ag869
ag937
ag850
ag820
ag196
ag90
ag350
ag89
ag60
ag141
ag716
ag831
ag944
ag783
ag456
ag907
ag747
ag273
ag438
ag289
ag680
ag725
ag938
ag585
ag125
ag217
ag500
ag651
ag598
ag223
ag310
ag96
ag361
ag619
ag208
ag240
ag1009
ag34
ag1007
ag1006
ag775
ag999
ag163
ag766
ag396
ag593
ag200
ag591
ag527
ag421
ag31
ag232
ag54
ag1016
ag239
ag298
ag471
ag488
ag761
ag80
ag282
ag58
ag157
ag458
ag816
ag817
ag772
ag991
ag801
ag693
ag417
ag187
ag380
ag672
ag536
ag902
ag35
ag782
ag995
ag589
ag662
ag552
ag873
ag348
ag467
ag618
ag137
ag833
ag774
ag355
ag127
ag884
ag601
ag641
ag148
ag387
ag318
ag360
ag378
ag142
ag646
ag189
ag791
ag139
ag455
ag111
ag328
ag424
ag566
ag530
ag236
ag492
ag807
ag719
ag557
ag722
ag608
ag895
ag16
ag357
ag281
ag922
ag638
ag826
ag643
ag577
ag617
ag392
ag306
ag14
ag737
ag124
ag612
ag49
ag491
ag713
ag432
ag246
ag242
ag299
ag962
ag409
ag921
ag469
ag751
ag307
ag990
ag727
ag587
ag162
ag30
ag925
ag69
ag369
ag1011
ag98
ag75
ag186
ag896
ag343
ag293
ag795
ag945
ag851
ag797
ag770
ag592
ag1020
ag130
ag371
ag634
ag955
ag825
ag734
ag840
ag87
ag789
ag669
ag403
ag926
ag998
ag480
ag883
ag354
ag271
ag218
ag199
ag57
ag544
ag708
ag454
ag790
ag596
ag41
ag573
ag56
ag291
ag297
ag416
ag911
ag221
ag18
ag83
ag927
ag667
ag19
ag534
ag779
ag265
ag252
ag877
ag216
ag121
ag294
ag106
ag717
ag640
ag258
ag156
ag77
ag325
ag994
ag996
ag709
ag1001
ag894
ag512
ag402
ag372
ag808
ag535
ag606
ag689
ag207
ag468
ag847
ag315
ag113
ag505
ag254
ag979
ag474
ag202
ag586
ag301
ag947
ag292
ag457
ag924
ag8
ag128
ag190
ag549
ag39
ag916
ag40
ag540
ag440
ag756
ag110
ag383
ag1010
ag688
ag788
ag15
ag439
ag234
ag66
ag453
ag764
ag78
ag639
ag103
ag506
ag370
ag251
ag175
ag400
ag885
ag165
ag983
ag723
ag570
ag1018
ag375
ag665
ag263
ag843
ag264
ag159
ag100
ag675
ag445
ag503
ag205
ag778
ag700
ag732
ag743
ag626
ag270
ag581
ag819
ag319
asS'separator'
p1028
S'='
sS'sparse'
p1029
I01
sb.