ccopy_reg
_reconstructor
p1
(csklearn.feature_extraction.dict_vectorizer
DictVectorizer
p2
c__builtin__
object
p3
NtRp4
(dp5
S'vocabulary_'
p6
(dp7
S'w+1=go'
p8
I29
sS'w+2=back'
p9
I43
sS'w+1=already'
p10
I26
sS'dobj=who'
p11
I17
sS'w-1=Ponti'
p12
I53
sS'w-1=be'
p13
I54
sS'dobj=#PRP#'
p14
I11
sS'w-1=of'
p15
I58
sS'w-2=carry'
p16
I65
sS'w-2=reason'
p17
I72
sS'w-1=new'
p18
I57
sS'dobj=product'
p19
I15
sS"possessive='s"
p20
I21
sS'w-1=brand'
p21
I55
sS'w+2=.'
p22
I38
sS'nsubj=Ponti'
p23
I19
sS'dobj=operative'
p24
I13
sS'w-2=earlier'
p25
I68
sS'w+1=and'
p26
I27
sS'xcomp=succeed'
p27
I79
sS'nsubj=people'
p28
I20
sS'w+1=he'
p29
I30
sS'w+2=son'
p30
I51
sS'w+1=frequently'
p31
I28
sS'appos=Hager'
p32
I3
sS'conj=stand'
p33
I8
sS'w+2=probably'
p34
I49
sS'w+1=,'
p35
I24
sS'det=the'
p36
I9
sS'w+1=.'
p37
I25
sS'w+2=for'
p38
I47
sS'w-2=terrorist'
p39
I74
sS'w+2=provide'
p40
I50
sS'advmod=probably'
p41
I1
sS'w-2=to'
p42
I77
sS'dobj=people'
p43
I14
sS'det=these'
p44
I10
sS'w-1=these'
p45
I62
sS'w-1=,'
p46
I52
sS'w-2=,'
p47
I63
sS'w-1=the'
p48
I61
sS'conj=provide'
p49
I7
sS'w+2=people'
p50
I48
sS'cc=and'
p51
I5
sS'w+2=:'
p52
I40
sS'advmod=on'
p53
I0
sS'w+1=she'
p54
I33
sS'amod=prospective'
p55
I2
sS'w-2=though'
p56
I76
sS'w-2=variety'
p57
I78
sS'dobj=training'
p58
I16
sS'w+1=product'
p59
I32
sS'w-1=cell'
p60
I56
sS'w+2=Henry'
p61
I41
sS'w+2=be'
p62
I44
sS'w+2=,'
p63
I37
sS'w+2=30th'
p64
I39
sS'w-2=celebrate'
p65
I66
sS"w+1='s"
p66
I23
sS'w+1=two'
p67
I35
sS'w-2=name'
p68
I70
sS'w-1=on'
p69
I59
sS'w+1=travels'
p70
I34
sS'w+2=end'
p71
I46
sS'w-2=he'
p72
I69
sS'w-2=out'
p73
I71
sS'w-2=recruit'
p74
I73
sS'dobj=Gamal'
p75
I12
sS'w+2=bride'
p76
I45
sS'w+1=operative'
p77
I31
sS'conj=bride'
p78
I6
sS'w-2=contend'
p79
I67
sS'aux=be'
p80
I4
sS'prep=for'
p81
I22
sS'w-1=prospective'
p82
I60
sS'w+1=want'
p83
I36
sS'w-2=.'
p84
I64
sS'nsubj=#PRP#'
p85
I18
sS'w+2=a'
p86
I42
sS'w-2=the'
p87
I75
ssS'dtype'
p88
cnumpy
float64
p89
sS'feature_names_'
p90
(lp91
g53
ag41
ag55
ag32
ag80
ag51
ag78
ag49
ag33
ag36
ag44
ag14
ag75
ag24
ag43
ag19
ag58
ag11
ag85
ag23
ag28
ag20
ag81
ag66
ag35
ag37
ag10
ag26
ag31
ag8
ag29
ag77
ag59
ag54
ag70
ag67
ag83
ag63
ag22
ag64
ag52
ag61
ag86
ag9
ag62
ag76
ag71
ag38
ag50
ag34
ag40
ag30
ag46
ag12
ag13
ag21
ag60
ag18
ag15
ag69
ag82
ag48
ag45
ag47
ag84
ag16
ag65
ag79
ag25
ag72
ag68
ag73
ag17
ag74
ag39
ag87
ag56
ag42
ag57
ag27
asS'separator'
p92
S'='
sS'sparse'
p93
I01
sb.