ccopy_reg
_reconstructor
p1
(csklearn.feature_extraction.dict_vectorizer
DictVectorizer
p2
c__builtin__
object
p3
NtRp4
(dp5
S'vocabulary_'
p6
(dp7
S'amod=first'
p8
I11
sS'nsubjpass=many'
p9
I64
sS'nsubj=crew'
p10
I58
sS'advmod=directly'
p11
I5
sS'w-2=carry'
p12
I215
sS'w-1=for'
p13
I174
sS'w-2=herder'
p14
I224
sS'prep=onto'
p15
I77
sS'conj=return'
p16
I32
sS'dobj=goods'
p17
I42
sS'w-2=would'
p18
I249
sS'conj=come'
p19
I27
sS'w+1=12,000'
p20
I84
sS'w-1=by'
p21
I166
sS'w-2=you'
p22
I250
sS'w+2=human'
p23
I134
sS'w-2=roadside'
p24
I231
sS'nn=plane'
p25
I52
sS'w+2=ton'
p26
I152
sS'w+2=goods'
p27
I132
sS'w-2=first'
p28
I220
sS'w+1=water'
p29
I110
sS'w+1=tanker'
p30
I105
sS'w-1=emergency'
p31
I173
sS'det=the'
p32
I39
sS'w+1=boat'
p33
I88
sS'w-2=can'
p34
I214
sS'dobj=water'
p35
I48
sS'w-1=who'
p36
I200
sS'w-1=ton'
p37
I194
sS'w-1=through'
p38
I192
sS'w-2=week'
p39
I246
sS'rel=in'
p40
I81
sS'dobj=newspaper'
p41
I43
sS'w+2=this'
p42
I151
sS'w+2=trove'
p43
I153
sS'w+2=on'
p44
I140
sS'w+1=corn'
p45
I90
sS'w-2=rather'
p46
I229
sS'w+1=crate'
p47
I91
sS'w+2=talent'
p48
I149
sS'w-2=the'
p49
I240
sS'w-2=they'
p50
I241
sS'w-1=to'
p51
I193
sS'w+2=16'
p52
I115
sS'prep=by'
p53
I71
sS'w-2=and'
p54
I208
sS'w-1=,'
p55
I162
sS'w+2=sometimes'
p56
I146
sS'w+1=up'
p57
I109
sS'w+1=directly'
p58
I92
sS'w+1=that'
p59
I106
sS'w-2=refuse'
p60
I230
sS'w-1=lighten'
p61
I180
sS'w-1=heavy'
p62
I178
sS'w+2=sand'
p63
I143
sS'nsubjpass=center'
p64
I63
sS'w+1=completely'
p65
I89
sS'advmod=completely'
p66
I4
sS'w+1=here'
p67
I95
sS'w-1=tanker'
p68
I188
sS'w+2=28'
p69
I116
sS'w-1=can'
p70
I167
sS'nn=tractor-trailer'
p71
I54
sS'w-2=fuel'
p72
I221
sS'nn=ton'
p73
I53
sS'xcomp=export'
p74
I254
sS'amod=carry'
p75
I10
sS'w+1=with'
p76
I112
sS'w+1=back'
p77
I87
sS'advmod=now'
p78
I8
sS'nsubj=consumer'
p79
I57
sS'advmod=fully'
p80
I6
sS'w-2=three'
p81
I242
sS'w-1=plane'
p82
I186
sS'conj=deliver'
p83
I28
sS'w+2=into'
p84
I136
sS'w+2=hundred'
p85
I135
sS'w-1=vest'
p86
I197
sS'prep=at'
p87
I70
sS'rcmod=do'
p88
I80
sS'w-2=closer'
p89
I216
sS'prep=with'
p90
I78
sS'cc=or'
p91
I25
sS'w+2=debt'
p92
I121
sS'w-2=two'
p93
I245
sS'amod=much'
p94
I14
sS'aux=have'
p95
I20
sS'w-2=staff'
p96
I235
sS'w+2=gas'
p97
I131
sS'w-1=be'
p98
I165
sS'amod=whole'
p99
I17
sS'nsubjpass=plan'
p100
I65
sS'conj=offload'
p101
I30
sS'w+2=steal'
p102
I147
sS'w+2=fresh'
p103
I128
sS'w+2=with'
p104
I160
sS'w+1=she'
p105
I103
sS'w-2=day'
p106
I218
sS'tmod=today'
p107
I82
sS'w+2=offload'
p108
I139
sS'w-2=before'
p109
I210
sS'w-2=woman'
p110
I248
sS'w-2=3,000'
p111
I202
sS'w+1=newspaper'
p112
I99
sS'w-1=consumer'
p113
I170
sS'w+2=foreign'
p114
I127
sS'w-1=truck'
p115
I196
sS'w-2=amount'
p116
I207
sS'w-2=suicide'
p117
I237
sS'w+2=you'
p118
I161
sS'w+1=of'
p119
I100
sS'dobj=pole'
p120
I44
sS'w-1=viral'
p121
I198
sS'w+1=on'
p122
I101
sS'w-1=of'
p123
I184
sS'conj=want'
p124
I34
sS'w-2=a'
p125
I206
sS'w+1=which'
p126
I111
sS'dep=#PRP#'
p127
I35
sS'w-2=she'
p128
I234
sS'w-2=Hill'
p129
I204
sS'prep=for'
p130
I72
sS'det=a'
p131
I37
sS'w-1=a'
p132
I164
sS'w-2=how'
p133
I226
sS'w-1=have'
p134
I176
sS'w-2=Liboi'
p135
I205
sS'w+2=waste'
p136
I156
sS'num=#NUMBER#'
p137
I68
sS'w-2=Barmukh'
p138
I203
sS'w+2=something'
p139
I145
sS'w+2=at'
p140
I118
sS'w+1=truck'
p141
I108
sS'w+2=steel'
p142
I148
sS'w-1=he'
p143
I177
sS'dep=cargo'
p144
I36
sS'w+1=from'
p145
I94
sS'w-2=truck'
p146
I244
sS'w-1=would'
p147
I201
sS'advmod=once'
p148
I9
sS'auxpass=be'
p149
I23
sS'aux=can'
p150
I19
sS'complm=that'
p151
I26
sS'w-1=carry'
p152
I169
sS'w+2=they'
p153
I150
sS'advmod=abroad'
p154
I1
sS'w+2=ball'
p155
I119
sS'conj=passenger'
p156
I31
sS'w-1=dozen'
p157
I171
sS'w+1=pole'
p158
I102
sS'w+2=export'
p159
I125
sS'w-2=handle'
p160
I222
sS'w-2=stop'
p161
I236
sS'w-2=to'
p162
I243
sS'w-2=have'
p163
I223
sS'w+2=explosive'
p164
I123
sS'cc=and'
p165
I24
sS'w+1=2,000'
p166
I85
sS'w-1=large'
p167
I179
sS'w-2=that'
p168
I239
sS'w+2=metric'
p169
I137
sS'w-2=several'
p170
I233
sS'w+2=onto'
p171
I141
sS'num=dozen'
p172
I69
sS'w+1=they'
p173
I107
sS'w+2=wfp'
p174
I158
sS'amod=large'
p175
I13
sS'nsubj=#NUMBER#'
p176
I55
sS'nsubjpass=#PRP#'
p177
I61
sS'w-1=tractor-trailer'
p178
I195
sS'w+2=she'
p179
I144
sS'w+1=if'
p180
I96
sS'prep=in'
p181
I73
sS'aux=would'
p182
I22
sS'dobj=cargo'
p183
I40
sS'w+1=for'
p184
I93
sS'w-2=boat'
p185
I211
sS'dobj=tissue'
p186
I45
sS'w+1=it'
p187
I98
sS'mark=until'
p188
I50
sS'w-1=printer'
p189
I187
sS'nsubj=#PRP#'
p190
I56
sS'w-1=dump'
p191
I172
sS'w-1=neighborhood'
p192
I182
sS'w+2=of'
p193
I138
sS'w+2=basic'
p194
I120
sS'w-2=take'
p195
I238
sS'w-2=roll'
p196
I232
sS'dobj=crate'
p197
I41
sS'w-2=dump'
p198
I219
sS'w+1=into'
p199
I97
sS'w-1=we'
p200
I199
sS'conj=unload'
p201
I33
sS'aux=to'
p202
I21
sS'w-2=burning'
p203
I212
sS'w-1=people'
p204
I185
sS'amod=heavy'
p205
I12
sS'xcomp=announce'
p206
I251
sS'w+2=have'
p207
I133
sS'amod=shed'
p208
I15
sS'nsubjpass=plantation'
p209
I66
sS'w-2=off'
p210
I228
sS'w+1=and'
p211
I86
sS'advmod=ago'
p212
I2
sS'xcomp=clear'
p213
I252
sS'w+2=fun'
p214
I129
sS'dobj=ton'
p215
I46
sS'w-1=Utapao'
p216
I163
sS'w+1=,'
p217
I83
sS'advcl=receive'
p218
I0
sS'w+2=fund'
p219
I130
sS'amod=viral'
p220
I16
sS'w+2=diseased'
p221
I122
sS'w+2=.'
p222
I114
sS'w+2=pallet'
p223
I142
sS'w+2=,'
p224
I113
sS'xcomp=hold'
p225
I255
sS'nn=emergency'
p226
I51
sS'det=that'
p227
I38
sS'w-2=crew'
p228
I217
sS'nsubj=that'
p229
I60
sS'w-1=fully'
p230
I175
sS'advmod=back'
p231
I3
sS'w+2=food'
p232
I126
sS'prt=up'
p233
I79
sS'advmod=here'
p234
I7
sS'conj=do'
p235
I29
sS'prep=into'
p236
I74
sS'w-2=here'
p237
I225
sS'w+2=white'
p238
I159
sS'w-1=car'
p239
I168
sS'dobj=which'
p240
I49
sS'w+2=truck'
p241
I154
sS'w-2=whole'
p242
I247
sS'w+2=we'
p243
I157
sS'w-1=much'
p244
I181
sS'w+2=unload'
p245
I155
sS'w-1=now'
p246
I183
sS'w-2=be'
p247
I209
sS'w+2=a'
p248
I117
sS'nsubj=staff'
p249
I59
sS'w+2=explosiveshitt'
p250
I124
sS'prep=of'
p251
I75
sS'w-1=than'
p252
I189
sS'w-1=the'
p253
I191
sS'w-2=of'
p254
I227
sS'prep=on'
p255
I76
sS'w-1=that'
p256
I190
sS'aux=be'
p257
I18
sS'nsubjpass=truck'
p258
I67
sS'xcomp=cross'
p259
I253
sS'w-2=camel'
p260
I213
sS'nsubjpass=camel'
p261
I62
sS'w+1=shed'
p262
I104
sS'dobj=truck'
p263
I47
ssS'dtype'
p264
cnumpy
float64
p265
sS'feature_names_'
p266
(lp267
g218
ag154
ag212
ag231
ag66
ag11
ag80
ag234
ag78
ag148
ag75
ag8
ag205
ag175
ag94
ag208
ag220
ag99
ag257
ag150
ag95
ag202
ag182
ag149
ag165
ag91
ag151
ag19
ag83
ag235
ag101
ag156
ag16
ag201
ag124
ag127
ag144
ag131
ag227
ag32
ag183
ag197
ag17
ag41
ag120
ag186
ag215
ag263
ag35
ag240
ag188
ag226
ag25
ag73
ag71
ag176
ag190
ag79
ag10
ag249
ag229
ag177
ag261
ag64
ag9
ag100
ag209
ag258
ag137
ag172
ag87
ag53
ag130
ag181
ag236
ag251
ag255
ag15
ag90
ag233
ag88
ag40
ag107
ag217
ag20
ag166
ag211
ag77
ag33
ag65
ag45
ag47
ag58
ag184
ag145
ag67
ag180
ag199
ag187
ag112
ag119
ag122
ag158
ag105
ag262
ag30
ag59
ag173
ag141
ag57
ag29
ag126
ag76
ag224
ag222
ag52
ag69
ag248
ag140
ag155
ag194
ag92
ag221
ag164
ag250
ag159
ag232
ag114
ag103
ag214
ag219
ag97
ag27
ag207
ag23
ag85
ag84
ag169
ag193
ag108
ag44
ag171
ag223
ag63
ag179
ag139
ag56
ag102
ag142
ag48
ag153
ag42
ag26
ag43
ag241
ag245
ag136
ag243
ag174
ag238
ag104
ag118
ag55
ag216
ag132
ag98
ag21
ag70
ag239
ag152
ag113
ag157
ag191
ag31
ag13
ag230
ag134
ag143
ag62
ag167
ag61
ag244
ag192
ag246
ag123
ag204
ag82
ag189
ag68
ag252
ag256
ag253
ag38
ag51
ag37
ag178
ag115
ag86
ag121
ag200
ag36
ag147
ag111
ag138
ag129
ag135
ag125
ag116
ag54
ag247
ag109
ag185
ag203
ag260
ag34
ag12
ag89
ag228
ag106
ag198
ag28
ag72
ag160
ag163
ag14
ag237
ag133
ag254
ag210
ag46
ag60
ag24
ag196
ag170
ag128
ag96
ag161
ag117
ag195
ag168
ag49
ag50
ag81
ag162
ag146
ag93
ag39
ag242
ag110
ag18
ag22
ag206
ag213
ag259
ag74
ag225
asS'separator'
p268
S'='
sS'sparse'
p269
I01
sb.