ccopy_reg
_reconstructor
p1
(csklearn.feature_extraction.dict_vectorizer
DictVectorizer
p2
c__builtin__
object
p3
NtRp4
(dp5
S'vocabulary_'
p6
(dp7
S'advmod=then'
p8
I37
sS'prep=before'
p9
I311
sS'dobj=expense'
p10
I144
sS'aux=have'
p11
I48
sS'w+2=judge'
p12
I450
sS'w+2=mid-2009'
p13
I457
sS'dep=do'
p14
I96
sS'w+2=few'
p15
I434
sS'w-2=research'
p16
I718
sS'advcl=return'
p17
I9
sS'nsubjpass=imam'
p18
I291
sS'w-2=Varese'
p19
I630
sS'dobj=hostage'
p20
I155
sS'w+2=perfect'
p21
I475
sS'mark=like'
p22
I217
sS'xcomp=help'
p23
I763
sS'nsubj=republic'
p24
I267
sS'nsubj=investigator'
p25
I260
sS'dobj=Morgan'
p26
I111
sS'w-2=container'
p27
I659
sS'advcl=serve'
p28
I11
sS'w-2=site'
p29
I728
sS'nsubj=attack'
p30
I249
sS'dobj=garbage'
p31
I150
sS'w-2=need'
p32
I696
sS'w-2=they'
p33
I737
sS'nsubj=business'
p34
I252
sS'w-1=-'
p35
I517
sS'prep=by'
p36
I312
sS'prep=within'
p37
I326
sS'w+1=house'
p38
I365
sS'dobj=cup'
p39
I135
sS'conj=call'
p40
I68
sS'w-2=not'
p41
I699
sS'w-1=would'
p42
I600
sS'w-2=Chavez'
p43
I609
sS'nsubj=satellite'
p44
I270
sS'dobj=crabmeat'
p45
I133
sS'dobj=Aura'
p46
I105
sS'w+1=these'
p47
I381
sS'advmod=so'
p48
I36
sS'advmod=really'
p49
I34
sS'w-2=focus'
p50
I670
sS'w-2=refrigerator'
p51
I715
sS'w+2=mother'
p52
I460
sS'advmod=just'
p53
I24
sS'w-1=will'
p54
I597
sS'w-1=journalist'
p55
I561
sS'w-1=Iraq'
p56
I526
sS'dobj=creation'
p57
I134
sS'aux=may'
p58
I49
sS'dobj=mate'
p59
I166
sS'w-1=be'
p60
I539
sS'w-1=day'
p61
I548
sS'nsubj=Indonesia'
p62
I233
sS'dobj=judge'
p63
I158
sS'w-2=investment'
p64
I686
sS'w+2=run'
p65
I485
sS'w-2=able'
p66
I632
sS'w+2=fruit'
p67
I440
sS'w+1=she'
p68
I378
sS'w-2=21'
p69
I607
sS'nsubj=so'
p70
I276
sS'w-2=time'
p71
I739
sS'w+2=client'
p72
I425
sS'nsubjpass=other'
p73
I294
sS'w-2=where'
p74
I750
sS'w-2=go'
p75
I673
sS'w-1=Bush'
p76
I522
sS'w+2=200-400'
p77
I396
sS'w-2=provide'
p78
I713
sS'w-2=who'
p79
I751
sS'nsubj=vulture'
p80
I281
sS'w+1=half'
p81
I363
sS'w+1=on'
p82
I371
sS'w-1=crab'
p83
I546
sS'w+2=first'
p84
I436
sS'w+2=during'
p85
I429
sS'w-1=authority'
p86
I538
sS'nsubj=senator'
p87
I272
sS'w-2=police'
p88
I710
sS'w+2=appear'
p89
I408
sS'ccomp=say'
p90
I62
sS'csubj=like'
p91
I94
sS'dobj=pace'
p92
I175
sS'w-2=migrant'
p93
I693
sS'w+2=in'
p94
I446
sS'dobj=team'
p95
I199
sS'w+2=who'
p96
I510
sS'dobj=sign'
p97
I189
sS'w-1=could'
p98
I545
sS'advmod=once'
p99
I32
sS'prep=about'
p100
I305
sS'aux=can'
p101
I45
sS'dobj=candidate'
p102
I127
sS'conj=visible'
p103
I93
sS'w+2=surprise'
p104
I496
sS'w-1=really'
p105
I581
sS'tmod=month'
p106
I333
sS'w+2=vote'
p107
I507
sS'dobj=card'
p108
I128
sS'w-1=you'
p109
I601
sS'w-2=admit'
p110
I633
sS'dobj=Pashto'
p111
I112
sS'prep=to'
p112
I323
sS'w+2=President'
p113
I400
sS'dobj=mail'
p114
I161
sS'advcl=be'
p115
I1
sS'w+2=by'
p116
I419
sS'w+1=the'
p117
I380
sS'w+2=vice'
p118
I506
sS'advmod=only'
p119
I33
sS'w+1=they'
p120
I382
sS'ccomp=old'
p121
I60
sS'w-1=inspire'
p122
I559
sS'w-2=ring'
p123
I719
sS'dobj=speed'
p124
I192
sS'nsubjpass=#PRP#'
p125
I286
sS'w-2=investigator'
p126
I685
sS'dobj=rights'
p127
I186
sS'nsubj=Too'
p128
I245
sS'prep=in'
p129
I316
sS'dobj=debt'
p130
I136
sS'aux=would'
p131
I54
sS'w-2=Korea'
p132
I617
sS'w+1=for'
p133
I361
sS'w-2=toy'
p134
I741
sS'xcomp=thing'
p135
I767
sS'w+2=mostly'
p136
I459
sS'w-2=that'
p137
I733
sS'prep=amid'
p138
I307
sS'w-1=side'
p139
I586
sS'w-2=slow'
p140
I729
sS'w+2=speed'
p141
I489
sS'nsubj=demand'
p142
I254
sS'w-1=skeleton'
p143
I587
sS'dobj=victory'
p144
I209
sS'w+1=potential'
p145
I374
sS'w-2=growth'
p146
I674
sS'w-2=look'
p147
I691
sS'conj=pack'
p148
I80
sS'w-2=booking'
p149
I647
sS'conj=make'
p150
I77
sS'poss=#PRP#'
p151
I302
sS'dobj=thread'
p152
I202
sS'w+1=and'
p153
I351
sS'w-2=she'
p154
I725
sS'dobj=audience'
p155
I122
sS'dobj=poison'
p156
I184
sS'dobj=somebody'
p157
I191
sS'w-1=still'
p158
I589
sS'nsubj=filmmaker'
p159
I258
sS'w-2=ambulance'
p160
I636
sS'w-2=leftist'
p161
I690
sS'dep=end'
p162
I97
sS'nsubjpass=candidate'
p163
I290
sS'xcomp=come'
p164
I761
sS'w+2=for'
p165
I437
sS'w-1=sound'
p166
I588
sS'w-1=should'
p167
I585
sS'w-1=Clinton'
p168
I524
sS'nsubj=that'
p169
I278
sS'advcl=Tamil'
p170
I0
sS'prt=up'
p171
I329
sS'ccomp=defend'
p172
I58
sS'w-2=opportunity'
p173
I704
sS'w+2=baby'
p174
I413
sS'w+2=winner'
p175
I511
sS'w-2=then'
p176
I735
sS'conj=patient'
p177
I81
sS'w+2=these'
p178
I498
sS'w+2=pace'
p179
I471
sS'w-1=in'
p180
I558
sS'conj=choose'
p181
I70
sS'w+1=fight'
p182
I359
sS'w+2=poison'
p183
I476
sS'conj=be'
p184
I66
sS'w-1=apparently'
p185
I537
sS'nsubj=Welch'
p186
I246
sS'w+2=official'
p187
I466
sS'w+2=issue'
p188
I448
sS'mark=if'
p189
I216
sS'nsubj=Police'
p190
I242
sS'w+2=we'
p191
I508
sS'dobj=truck'
p192
I207
sS'w-2=work'
p193
I755
sS'nsubj=Imaging'
p194
I232
sS'w+2=not'
p195
I464
sS'w+2=fairly'
p196
I432
sS'advmod=where'
p197
I40
sS'nsubj=agency'
p198
I247
sS'dobj=rubbish'
p199
I187
sS'nsubjpass=signal'
p200
I297
sS'w+2=nominee'
p201
I463
sS'w+2=steam'
p202
I492
sS'w-2=senator'
p203
I724
sS'conj=center'
p204
I69
sS'w+1=cotton'
p205
I356
sS'w-2=business'
p206
I649
sS'w-1=mining'
p207
I565
sS'dobj=people'
p208
I180
sS'w+2=similar'
p209
I487
sS'w+1=Clinton'
p210
I342
sS'dobj=support'
p211
I197
sS'nsubj=who'
p212
I283
sS'conj=tortured'
p213
I92
sS'w-1=worker'
p214
I599
sS'dobj=surprise'
p215
I198
sS'w-2=of'
p216
I701
sS'w-2=child'
p217
I656
sS'dobj=issue'
p218
I157
sS'w-1=to'
p219
I593
sS'w-2=store'
p220
I731
sS'advmod=especially'
p221
I18
sS'conj=begin'
p222
I67
sS'dobj=parliament'
p223
I176
sS'advcl=popular'
p224
I8
sS'w+2=more'
p225
I458
sS'w-1=two'
p226
I594
sS'w+2=passenger'
p227
I474
sS'dobj=#PRP#'
p228
I104
sS'w-2=do'
p229
I663
sS'nsubj=authority'
p230
I250
sS'w-2=steam'
p231
I730
sS'w+2=architect'
p232
I409
sS'parataxis=know'
p233
I300
sS'conj=shoot'
p234
I89
sS'w-2=back'
p235
I643
sS'dobj=Solo'
p236
I113
sS'nsubj=Chavez'
p237
I228
sS'w+2=candidate'
p238
I421
sS'advcl=seize'
p239
I10
sS'w-2=attack'
p240
I641
sS'w-1=it'
p241
I560
sS'w-2=MRI'
p242
I618
sS'w+2=can'
p243
I420
sS'nsubj=Michael'
p244
I237
sS'w+2=fill'
p245
I435
sS'w-1=date'
p246
I547
sS'w+2=support'
p247
I495
sS'dobj=artifact'
p248
I121
sS'w+1=Spiderman'
p249
I348
sS'nsubj=Grisman'
p250
I230
sS'w-2=Cross'
p251
I611
sS'prt=out'
p252
I328
sS'mark=for'
p253
I215
sS'nsubjpass=that'
p254
I298
sS'nsubj=voter'
p255
I280
sS'dobj=password'
p256
I179
sS'w-1=can'
p257
I541
sS'dobj=abnormality'
p258
I116
sS'dobj=box'
p259
I125
sS'w+1=through'
p260
I383
sS'w-2=chance'
p261
I654
sS'nsubj=booking'
p262
I251
sS'w-2=gather'
p263
I672
sS'advmod=easily'
p264
I17
sS'advmod=when'
p265
I39
sS'xcomp=replace'
p266
I765
sS'w-1=employer'
p267
I550
sS'ccomp=love'
p268
I59
sS'amod=presidential'
p269
I43
sS'w-2=Ford'
p270
I613
sS'prep=for'
p271
I314
sS'w-2=music'
p272
I695
sS'dobj=student'
p273
I196
sS'w+1=we'
p274
I388
sS'nsubj=force'
p275
I259
sS'dobj=spot'
p276
I193
sS'w+1=112'
p277
I341
sS'w-2=partial'
p278
I706
sS'w-2=memo'
p279
I692
sS'nsubj=Bush'
p280
I227
sS'w+2=at'
p281
I412
sS'dobj=mantle'
p282
I164
sS'w+2=as'
p283
I411
sS'w+1=--'
p284
I338
sS'w-2=U.S.'
p285
I629
sS'w+1=trash'
p286
I385
sS'w-2=decision'
p287
I661
sS'amod=cherry'
p288
I42
sS'w+2=state'
p289
I491
sS'nsubj=Senator'
p290
I244
sS'w-1=Basescu'
p291
I521
sS'auxpass=be'
p292
I55
sS'w+2=govern'
p293
I443
sS"w-1='s"
p294
I515
sS'w-2=department'
p295
I662
sS'advmod=long'
p296
I26
sS'w+2=good'
p297
I442
sS'advmod=much'
p298
I28
sS'dobj=Huckabee'
p299
I109
sS'w-2=seeker'
p300
I723
sS'dobj=goalkeeper'
p301
I152
sS'w-2=be'
p302
I644
sS'nn=vice'
p303
I223
sS'dobj=Clinton'
p304
I106
sS'w-2=how'
p305
I677
sS'w-1=politician'
p306
I578
sS'dobj=phone'
p307
I182
sS'nsubj=#NUMBER#'
p308
I224
sS'dep=hire'
p309
I98
sS'w+2=anybody'
p310
I407
sS'w+2=really'
p311
I482
sS'dobj=council'
p312
I131
sS'w-1=must'
p313
I566
sS'nsubj=Basescu'
p314
I226
sS'w-2=republican'
p315
I716
sS'w+2=with'
p316
I512
sS'w+1=crab'
p317
I357
sS'w+1=season'
p318
I377
sS'dobj=steam'
p319
I194
sS'w-2=Too'
p320
I628
sS'w-2=those'
p321
I738
sS'w+1=my'
p322
I370
sS'w-2=Grisman'
p323
I614
sS'tmod=night'
p324
I334
sS'nsubj=Scala'
p325
I243
sS'nsubj=ship'
p326
I273
sS'dobj=favorite'
p327
I145
sS'w+2=clearer'
p328
I424
sS'w+1=somebody'
p329
I379
sS'w-2=off'
p330
I702
sS"w-2=''"
p331
I602
sS'w+2=of'
p332
I465
sS'w-2=after'
p333
I634
sS'nsubj=fighting'
p334
I257
sS'dobj=fruit'
p335
I149
sS'w+1=to'
p336
I384
sS'w-2=signal'
p337
I727
sS'poss=Obama'
p338
I304
sS'nsubj=skeleton'
p339
I275
sS'w+2=he'
p340
I445
sS'nsubj=NetAid'
p341
I239
sS'dobj=name'
p342
I172
sS'w-2=vulture'
p343
I746
sS'xcomp=fill'
p344
I762
sS'parataxis=ton'
p345
I301
sS'conj=prune'
p346
I83
sS'w-2=big'
p347
I645
sS'w+2=least'
p348
I453
sS'w+2=just'
p349
I451
sS'w+2=part'
p350
I472
sS'w-2=negotiation'
p351
I697
sS'dobj=girl'
p352
I151
sS'w-1=...'
p353
I520
sS'advmod=first'
p354
I22
sS'prep=without'
p355
I327
sS'w-2=Sunday'
p356
I627
sS'w-1=guitar'
p357
I555
sS'w+2=trash'
p358
I502
sS'w-1=NetAid'
p359
I529
sS'advmod=far'
p360
I20
sS'w-1=finally'
p361
I551
sS'nsubj=Pen'
p362
I241
sS'prep=inside'
p363
I317
sS'w+2=rubbish'
p364
I484
sS"w-2='s"
p365
I603
sS'w+1=scapegoat'
p366
I376
sS'w-1=never'
p367
I567
sS'advcl=have'
p368
I4
sS'advmod=up'
p369
I38
sS'w+2=from'
p370
I439
sS'w+2=two'
p371
I504
sS'w+2=party'
p372
I473
sS'w-1=Obama'
p373
I530
sS'w-1=coffee'
p374
I544
sS'w-2=Obama'
p375
I622
sS'dobj=guy'
p376
I153
sS'dobj=trophy'
p377
I206
sS'advmod=often'
p378
I31
sS'xcomp=look'
p379
I764
sS'dobj=mandolin'
p380
I163
sS'w-1=president'
p381
I579
sS'w-1=cargo'
p382
I542
sS'w+2=garbage'
p383
I441
sS'w-2=would'
p384
I757
sS'dobj=evidence'
p385
I143
sS'w+2=break'
p386
I418
sS'dobj=arm'
p387
I120
sS'w-1=do'
p388
I549
sS'tmod=day'
p389
I332
sS'w+1=Vietnam'
p390
I349
sS'w+2=this'
p391
I501
sS'w-2=character'
p392
I655
sS'prep=up'
p393
I324
sS'w-1=Police'
p394
I531
sS'w+1=between'
p395
I353
sS'w+2=thing'
p396
I500
sS'w-1=other'
p397
I575
sS'w-2=automotive'
p398
I642
sS'w+2=General'
p399
I398
sS'nsubj=some'
p400
I277
sS'nn=guitar'
p401
I221
sS'prep=throughout'
p402
I322
sS'w-2=expect'
p403
I666
sS'dobj=drug'
p404
I141
sS'nsubjpass=pressure'
p405
I296
sS'w-1=cherry'
p406
I543
sS'dep=so'
p407
I101
sS'aux=do'
p408
I47
sS'w-1=McCain'
p409
I527
sS'dobj=winner'
p410
I211
sS'w+1=Gimpel'
p411
I343
sS'w-2=also'
p412
I635
sS'aux=will'
p413
I53
sS'xcomp=change'
p414
I759
sS'w-2=industry'
p415
I682
sS'w+1=vegetable'
p416
I387
sS'w+2=new'
p417
I462
sS'w-2=patient'
p418
I707
sS'w+2=when'
p419
I509
sS'dobj=piece'
p420
I183
sS'w+2=low-hanging'
p421
I454
sS'w-2=know'
p422
I689
sS'w-2=crustacean'
p423
I660
sS'dobj=kid'
p424
I160
sS'nsubj=people'
p425
I265
sS'prep=with'
p426
I325
sS'advmod=finally'
p427
I21
sS'w+2=once'
p428
I468
sS'nsubjpass=Union'
p429
I288
sS'w+2=arm'
p430
I410
sS'nsubj=work'
p431
I284
sS'w+1=Huckabee'
p432
I344
sS'w-2=why'
p433
I752
sS'w+2=its'
p434
I449
sS'w-2=compel'
p435
I658
sS'w-2=if'
p436
I678
sS'ccomp=seem'
p437
I63
sS'advmod=fairly'
p438
I19
sS'w-2=--'
p439
I605
sS'w-2=in'
p440
I681
sS'w-1=recently'
p441
I582
sS'w-2=president'
p442
I711
sS'conj=put'
p443
I84
sS'w-1=woman'
p444
I598
sS'conj=quicken'
p445
I85
sS'w-2=infection'
p446
I683
sS'w-2=Mrs.'
p447
I620
sS'w+1=who'
p448
I390
sS'w-1=presidential'
p449
I580
sS'w-2=film'
p450
I668
sS'dobj=cancer'
p451
I126
sS'nsubj=Obama'
p452
I240
sS'w-1=for'
p453
I553
sS'w-2=it'
p454
I688
sS'w+1=one'
p455
I372
sS'w+1=presidential'
p456
I375
sS'w-2=come'
p457
I657
sS'dobj=client'
p458
I129
sS'w-2=Colombia'
p459
I610
sS'w+2=abnormality'
p460
I403
sS'w-1=after'
p461
I534
sS'advcl=open'
p462
I6
sS'w-1=pace'
p463
I576
sS'w+2=four'
p464
I438
sS'w-1=boy'
p465
I540
sS'advmod=also'
p466
I14
sS'dobj=member'
p467
I167
sS'dobj=detail'
p468
I138
sS'w-2=woman'
p469
I754
sS'nsubj=sale'
p470
I269
sS'nsubj=Helicopters'
p471
I231
sS'dobj=architect'
p472
I119
sS'w-2=filmmaker'
p473
I669
sS'advmod=why'
p474
I41
sS'nsubjpass=who'
p475
I299
sS'w-2=have'
p476
I675
sS'cc=and'
p477
I56
sS'nsubj=Clinton'
p478
I229
sS'nsubj=Mammograms'
p479
I235
sS'w+2=50'
p480
I397
sS'w-2=use'
p481
I743
sS'w+1=by'
p482
I354
sS'w-1=just'
p483
I562
sS'w+1=be'
p484
I352
sS'w-2=Indonesia'
p485
I616
sS'conj=mix'
p486
I78
sS'nsubj=employer'
p487
I256
sS'w+2=student'
p488
I494
sS'w-1=Michael'
p489
I528
sS'w-2=when'
p490
I749
sS'w+2=Johnson'
p491
I399
sS'w-1=people'
p492
I577
sS'conj=say'
p493
I87
sS'w+2=some'
p494
I488
sS'dobj=difference'
p495
I139
sS'dobj=fiddle'
p496
I146
sS'tmod=year'
p497
I336
sS'nsubj=journalist'
p498
I262
sS'nsubj=republican'
p499
I268
sS'w+1=it'
p500
I366
sS'dobj=that'
p501
I200
sS'nsubj=#PRP#'
p502
I225
sS'advmod=early'
p503
I16
sS'w-1=from'
p504
I554
sS'w+2=clean'
p505
I423
sS'dobj=theme'
p506
I201
sS'dobj=vegetable'
p507
I208
sS'w-2=want'
p508
I747
sS"w+1=''"
p509
I337
sS'dobj=Johnson'
p510
I110
sS'conj=leave'
p511
I76
sS'conj=agree'
p512
I65
sS'conj=expose'
p513
I72
sS'cc=but'
p514
I57
sS'nsubj=Lee'
p515
I234
sS'conj=guess'
p516
I74
sS'dobj=#NUMBER#'
p517
I103
sS'w+2=strongest'
p518
I493
sS'aux=could'
p519
I46
sS'dobj=anybody'
p520
I117
sS'w-2=President'
p521
I624
sS'w-2=the'
p522
I734
sS'w-2=sale'
p523
I720
sS'w+1=-rrb-'
p524
I339
sS'dobj=topic'
p525
I204
sS'dep=if'
p526
I99
sS'xcomp=clean'
p527
I760
sS'w-2=McCain'
p528
I619
sS'w-2=these'
p529
I736
sS'advmod=again'
p530
I13
sS'dep=necessarily'
p531
I100
sS'aux=must'
p532
I50
sS'conj=get'
p533
I73
sS'w-2=down'
p534
I664
sS'w-2=famous'
p535
I667
sS'w+2=crop'
p536
I427
sS'w+2=bad'
p537
I414
sS'w-2=caucus'
p538
I653
sS'w+2=truck'
p539
I503
sS'advcl=orbit'
p540
I7
sS'dobj=applicant'
p541
I118
sS'dobj=passenger'
p542
I178
sS'advmod=mainly'
p543
I27
sS'prep=of'
p544
I319
sS'nsubjpass=music'
p545
I293
sS'w-1=have'
p546
I556
sS'prep=on'
p547
I320
sS'mark=after'
p548
I213
sS'w+2=pretty'
p549
I479
sS'dobj=Gimpel'
p550
I108
sS'nsubj=man'
p551
I263
sS'w-2=insurgent'
p552
I684
sS'dobj=delegate'
p553
I137
sS'w-2=imam'
p554
I679
sS'nsubj=which'
p555
I282
sS'advcl=begin'
p556
I2
sS'w+1=fresh'
p557
I362
sS'conj=take'
p558
I91
sS'rcmod=state'
p559
I330
sS'w+2=presidential'
p560
I478
sS'conj=come'
p561
I71
sS'w+2=key'
p562
I452
sS'nsubj=reconstruction'
p563
I266
sS'advmod=apparently'
p564
I15
sS'w+1=out'
p565
I373
sS'advmod=recently'
p566
I35
sS'w+2=prime'
p567
I480
sS'w+2=evidence'
p568
I431
sS'w-1=satellite'
p569
I583
sS'w+2=right'
p570
I483
sS'w-2=to'
p571
I740
sS'w-2=can'
p572
I651
sS'dobj=Spiderman'
p573
I114
sS'w-1=who'
p574
I596
sS'tmod=#DATE#'
p575
I331
sS'w-1=or'
p576
I574
sS'w+1=minister'
p577
I369
sS'w-1=first'
p578
I552
sS'w+2=up'
p579
I505
sS'w-2=Cameroonian'
p580
I608
sS'w-2=importance'
p581
I680
sS'xcomp=run'
p582
I766
sS'w+2=inside'
p583
I447
sS'dobj=woman'
p584
I212
sS'w+2=on'
p585
I467
sS'dobj=cotton'
p586
I130
sS'w-1=of'
p587
I570
sS'w-2=more'
p588
I694
sS'advcl=work'
p589
I12
sS'w+2=and'
p590
I406
sS'dobj=trash'
p591
I205
sS'w-2=and'
p592
I637
sS'w+1=up'
p593
I386
sS'w-2=secretary'
p594
I722
sS'dobj=micronutrient'
p595
I168
sS'neg=not'
p596
I219
sS'w-2=try'
p597
I742
sS'w+2=close'
p598
I426
sS'w-2=one'
p599
I703
sS'advmod=nearly'
p600
I29
sS'w-2=worker'
p601
I756
sS'nsubj=NASA'
p602
I238
sS'w-2=he'
p603
I676
sS'w-2=NASA'
p604
I621
sS'w+1=which'
p605
I389
sS'dobj=kettle'
p606
I159
sS'advmod=now'
p607
I30
sS'dobj=scapegoat'
p608
I188
sS'dobj=house'
p609
I156
sS'w-2=say'
p610
I721
sS'w+1=five'
p611
I360
sS'w+2=the'
p612
I497
sS'prep=at'
p613
I310
sS'w+1=itself'
p614
I367
sS'prep=as'
p615
I309
sS'nsubjpass=Ford'
p616
I287
sS'w-2=,'
p617
I604
sS'w-2=.'
p618
I606
sS'nsubjpass=patrol'
p619
I295
sS'w-1=and'
p620
I536
sS'dobj=story'
p621
I195
sS'conj=refer'
p622
I86
sS'w-2=but'
p623
I650
sS'conj=place'
p624
I82
sS'w+1=cancer'
p625
I355
sS'prep=among'
p626
I308
sS'w-1=.'
p627
I519
sS'dobj=object'
p628
I174
sS'w-1=,'
p629
I516
sS'tmod=season'
p630
I335
sS'w-2=now'
p631
I700
sS'w+2=13'
p632
I395
sS'dobj=food'
p633
I148
sS'w+2=endorsement'
p634
I430
sS'w-2=I'
p635
I615
sS'conj=send'
p636
I88
sS'w-2=at'
p637
I640
sS'w+2=box'
p638
I417
sS'w-2=as'
p639
I638
sS'w+2=member'
p640
I456
sS'nn=Cabinet'
p641
I220
sS'w-2=press'
p642
I712
sS'w-1=also'
p643
I535
sS'nsubj=side'
p644
I274
sS'prep=through'
p645
I321
sS'w+2=one'
p646
I469
sS'w+2=favorite'
p647
I433
sS'w-2=other'
p648
I705
sS'w-2=empty'
p649
I665
sS'w+1=you'
p650
I392
sS'w-1=I'
p651
I525
sS'complm=that'
p652
I64
sS'aux=should'
p653
I51
sS'dobj=award'
p654
I123
sS'dobj=Duncan'
p655
I107
sS'w-1=then'
p656
I591
sS'w-2=a'
p657
I631
sS'dobj=time'
p658
I203
sS'ccomp=promise'
p659
I61
sS'w-1=they'
p660
I592
sS'nsubj=McCain'
p661
I236
sS'w+1=winner'
p662
I391
sS'det=a'
p663
I102
sS'w-1=a'
p664
I533
sS'w-1=`'
p665
I532
sS'nsubj=investment'
p666
I261
sS'w+1=crabmeat'
p667
I358
sS'w+1=Morgan'
p668
I346
sS'w+2=sign'
p669
I486
sS'nsubjpass=body'
p670
I289
sS'mark=as'
p671
I214
sS'w-1=he'
p672
I557
sS'w-2=case'
p673
I652
sS'w-2=vice'
p674
I744
sS'w-1=-rrb-'
p675
I518
sS'dobj=money'
p676
I170
sS'w+2=drug'
p677
I428
sS'neg=never'
p678
I218
sS'w-2=per'
p679
I709
sS'advcl=know'
p680
I5
sS'w-2=request'
p681
I717
sS'w+2=again'
p682
I404
sS'w+2=they'
p683
I499
sS'w-2=issue'
p684
I687
sS'prep=after'
p685
I306
sS'w+2=best'
p686
I415
sS'w-2=we'
p687
I748
sS'dobj=mother'
p688
I171
sS'w+2=spot'
p689
I490
sS'nsubj=pace'
p690
I264
sS'w+2=mail'
p691
I455
sS'w+2=have'
p692
I444
sS'w-2=patrol'
p693
I708
sS'w+2=without'
p694
I513
sS'w-2=for'
p695
I671
sS'dobj=signal'
p696
I190
sS'conj=sit'
p697
I90
sS'w+1=Solo'
p698
I347
sS'dobj=nominee'
p699
I173
sS'w-2=both'
p700
I648
sS'conj=move'
p701
I79
sS'nsubj=seeker'
p702
I271
sS'dobj=Vietnam'
p703
I115
sS'advmod=how'
p704
I23
sS'dobj=fight'
p705
I147
sS'w-2=Singapore'
p706
I626
sS'w-2=voter'
p707
I745
sS'nn=mining'
p708
I222
sS'w-2=Ohio'
p709
I623
sS'dobj=minister'
p710
I169
sS'w-1=ship'
p711
I584
sS'prep=from'
p712
I315
sS'w-1=Cabinet'
p713
I523
sS'w+2=other'
p714
I470
sS'nsubj=campaign'
p715
I253
sS'dobj=who'
p716
I210
sS'w-2=take'
p717
I732
sS'poss=Ahmedinejad'
p718
I303
sS'nsubj=department'
p719
I255
sS'w-1=we'
p720
I595
sS'aux=to'
p721
I52
sS'w-2=you'
p722
I758
sS'w-2=should'
p723
I726
sS'nsubj=use'
p724
I279
sS'advcl=go'
p725
I3
sS'dobj=man'
p726
I162
sS'w-1=only'
p727
I573
sS'w+2=name'
p728
I461
sS'w+2=Saturn'
p729
I401
sS'dobj=person'
p730
I181
sS'dobj=part'
p731
I177
sS'w-2=will'
p732
I753
sS'w-2=really'
p733
I714
sS'nsubj=worker'
p734
I285
sS'dobj=market'
p735
I165
sS'advmod=later'
p736
I25
sS'w+2=punch'
p737
I481
sS'w+1=.'
p738
I340
sS'w+2=position'
p739
I477
sS'dep=after'
p740
I95
sS'w+2=.'
p741
I394
sS'w+2=,'
p742
I393
sS'w-1=often'
p743
I571
sS'w-2=biofuel'
p744
I646
sS'dobj=document'
p745
I140
sS'prep=near'
p746
I318
sS'w-2=norwegian'
p747
I698
sS'prep=during'
p748
I313
sS'nsubjpass=migrant'
p749
I292
sS'w-2=Senator'
p750
I625
sS'nsubj=ambulance'
p751
I248
sS'w-2=ask'
p752
I639
sS'w+2=choose'
p753
I422
sS'w+1=Lyndon'
p754
I345
sS'w-1=on'
p755
I572
sS'w+2=you'
p756
I514
sS'w+1=a'
p757
I350
sS'w-1=now'
p758
I569
sS'w-1=not'
p759
I568
sS'w-1=later'
p760
I563
sS'dobj=punch'
p761
I185
sS'dobj=crab'
p762
I132
sS'w+2=bit'
p763
I416
sS'w-1=may'
p764
I564
sS'w+1=he'
p765
I364
sS'w-2=D.C.'
p766
I612
sS'w-1=that'
p767
I590
sS'aux=be'
p768
I44
sS'conj=initiate'
p769
I75
sS'w+1=method'
p770
I368
sS'dobj=half'
p771
I154
sS'w+2=all'
p772
I405
sS'dobj=endorsement'
p773
I142
sS'w+2=a'
p774
I402
sS'dobj=bit'
p775
I124
ssS'dtype'
p776
cnumpy
float64
p777
sS'feature_names_'
p778
(lp779
g170
ag115
ag556
ag725
ag368
ag680
ag462
ag540
ag224
ag17
ag239
ag28
ag589
ag530
ag466
ag564
ag503
ag264
ag221
ag438
ag360
ag427
ag354
ag704
ag53
ag736
ag296
ag543
ag298
ag600
ag607
ag378
ag99
ag119
ag49
ag566
ag48
ag8
ag369
ag265
ag197
ag474
ag288
ag269
ag768
ag101
ag519
ag408
ag11
ag58
ag532
ag653
ag721
ag413
ag131
ag292
ag477
ag514
ag172
ag268
ag121
ag659
ag90
ag437
ag652
ag512
ag184
ag222
ag40
ag204
ag181
ag561
ag513
ag533
ag516
ag769
ag511
ag150
ag486
ag701
ag148
ag177
ag624
ag346
ag443
ag445
ag622
ag493
ag636
ag234
ag697
ag558
ag213
ag103
ag91
ag740
ag14
ag162
ag309
ag526
ag531
ag407
ag663
ag517
ag228
ag46
ag304
ag655
ag550
ag299
ag510
ag26
ag111
ag236
ag573
ag703
ag258
ag520
ag541
ag472
ag387
ag248
ag155
ag654
ag775
ag259
ag451
ag102
ag108
ag458
ag586
ag312
ag762
ag45
ag57
ag39
ag130
ag553
ag468
ag495
ag745
ag404
ag773
ag385
ag10
ag327
ag496
ag705
ag633
ag335
ag31
ag352
ag301
ag376
ag771
ag20
ag609
ag218
ag63
ag606
ag424
ag114
ag726
ag380
ag282
ag735
ag59
ag467
ag595
ag710
ag676
ag688
ag342
ag699
ag628
ag92
ag223
ag731
ag542
ag256
ag208
ag730
ag307
ag420
ag156
ag761
ag127
ag199
ag608
ag97
ag696
ag157
ag124
ag276
ag319
ag621
ag273
ag211
ag215
ag95
ag501
ag506
ag152
ag658
ag525
ag591
ag377
ag192
ag507
ag144
ag716
ag410
ag584
ag548
ag671
ag253
ag189
ag22
ag678
ag596
ag641
ag401
ag708
ag303
ag308
ag502
ag314
ag280
ag237
ag478
ag250
ag471
ag194
ag62
ag515
ag479
ag661
ag244
ag602
ag341
ag452
ag362
ag190
ag325
ag290
ag128
ag186
ag198
ag751
ag30
ag230
ag262
ag34
ag715
ag142
ag719
ag487
ag334
ag159
ag275
ag25
ag666
ag498
ag551
ag690
ag425
ag563
ag24
ag499
ag470
ag44
ag702
ag87
ag326
ag644
ag339
ag70
ag400
ag169
ag724
ag255
ag80
ag555
ag212
ag431
ag734
ag125
ag616
ag429
ag670
ag163
ag18
ag749
ag545
ag73
ag619
ag405
ag200
ag254
ag475
ag233
ag345
ag151
ag718
ag338
ag100
ag685
ag138
ag626
ag615
ag613
ag9
ag36
ag748
ag271
ag712
ag129
ag363
ag746
ag544
ag547
ag645
ag402
ag112
ag393
ag426
ag37
ag355
ag252
ag171
ag559
ag575
ag389
ag106
ag324
ag630
ag497
ag509
ag284
ag524
ag738
ag277
ag210
ag411
ag432
ag754
ag668
ag698
ag249
ag390
ag757
ag153
ag484
ag395
ag482
ag625
ag205
ag317
ag667
ag182
ag611
ag133
ag557
ag81
ag765
ag38
ag500
ag614
ag770
ag577
ag322
ag82
ag455
ag565
ag145
ag456
ag366
ag318
ag68
ag329
ag117
ag47
ag120
ag260
ag336
ag286
ag593
ag416
ag274
ag605
ag448
ag662
ag650
ag742
ag741
ag632
ag77
ag480
ag399
ag491
ag113
ag729
ag774
ag460
ag682
ag772
ag590
ag310
ag89
ag232
ag430
ag283
ag281
ag174
ag537
ag686
ag763
ag638
ag386
ag116
ag243
ag238
ag753
ag505
ag328
ag72
ag598
ag536
ag677
ag85
ag634
ag568
ag196
ag647
ag15
ag245
ag84
ag165
ag464
ag370
ag67
ag383
ag297
ag293
ag692
ag340
ag94
ag583
ag188
ag434
ag12
ag349
ag562
ag348
ag421
ag691
ag640
ag13
ag225
ag136
ag52
ag728
ag417
ag201
ag195
ag332
ag187
ag585
ag428
ag646
ag714
ag179
ag350
ag372
ag227
ag21
ag183
ag739
ag560
ag549
ag567
ag737
ag311
ag570
ag364
ag65
ag669
ag209
ag494
ag141
ag689
ag289
ag202
ag518
ag488
ag247
ag104
ag612
ag178
ag683
ag396
ag391
ag358
ag539
ag371
ag579
ag118
ag107
ag191
ag419
ag96
ag175
ag316
ag694
ag756
ag294
ag629
ag35
ag675
ag627
ag353
ag291
ag76
ag713
ag168
ag651
ag56
ag409
ag489
ag359
ag373
ag394
ag665
ag664
ag461
ag643
ag620
ag185
ag86
ag60
ag465
ag257
ag382
ag406
ag374
ag98
ag83
ag246
ag61
ag388
ag267
ag361
ag578
ag453
ag504
ag357
ag546
ag672
ag180
ag122
ag241
ag55
ag483
ag760
ag764
ag207
ag313
ag367
ag759
ag758
ag587
ag743
ag755
ag727
ag576
ag397
ag463
ag492
ag306
ag381
ag449
ag105
ag441
ag569
ag711
ag167
ag139
ag143
ag166
ag158
ag767
ag656
ag660
ag219
ag226
ag720
ag574
ag54
ag444
ag214
ag42
ag109
ag331
ag365
ag617
ag439
ag618
ag69
ag580
ag43
ag459
ag251
ag766
ag270
ag323
ag635
ag485
ag132
ag242
ag528
ag447
ag604
ag375
ag709
ag521
ag750
ag706
ag356
ag320
ag285
ag19
ag657
ag66
ag110
ag333
ag412
ag160
ag592
ag639
ag752
ag637
ag240
ag398
ag235
ag302
ag347
ag744
ag149
ag700
ag206
ag623
ag572
ag673
ag538
ag261
ag392
ag217
ag457
ag435
ag27
ag423
ag287
ag295
ag229
ag534
ag649
ag403
ag535
ag450
ag473
ag50
ag695
ag263
ag75
ag146
ag476
ag603
ag305
ag436
ag554
ag581
ag440
ag415
ag446
ag552
ag126
ag64
ag684
ag454
ag422
ag161
ag147
ag279
ag93
ag588
ag272
ag32
ag351
ag747
ag41
ag631
ag216
ag330
ag599
ag173
ag648
ag278
ag418
ag693
ag679
ag88
ag442
ag642
ag78
ag733
ag51
ag315
ag681
ag16
ag123
ag523
ag610
ag594
ag300
ag203
ag154
ag723
ag337
ag29
ag140
ag231
ag220
ag717
ag137
ag522
ag176
ag529
ag33
ag321
ag71
ag571
ag134
ag597
ag481
ag674
ag707
ag343
ag508
ag687
ag490
ag74
ag79
ag433
ag732
ag469
ag193
ag601
ag384
ag722
ag414
ag527
ag164
ag344
ag23
ag379
ag266
ag582
ag135
asS'separator'
p780
S'='
sS'sparse'
p781
I01
sb.