ccopy_reg
_reconstructor
p1
(csklearn.feature_extraction.dict_vectorizer
DictVectorizer
p2
c__builtin__
object
p3
NtRp4
(dp5
S'vocabulary_'
p6
(dp7
S'advmod=then'
p8
I34
sS'dobj=killing'
p9
I118
sS'nsubj=destruction'
p10
I165
sS'csubj=come'
p11
I79
sS'dep=not'
p12
I86
sS'w-2=option'
p13
I546
sS'nsubjpass=these'
p14
I211
sS'w+2=problem'
p15
I391
sS'nsubj=country'
p16
I164
sS'w-2=people'
p17
I548
sS'w-1=never'
p18
I435
sS'dobj=percent'
p19
I129
sS'dobj=anything'
p20
I100
sS'w+2=essential'
p21
I353
sS'w+1=disagreement'
p22
I256
sS'w+2=number'
p23
I382
sS'w+1=part'
p24
I278
sS'w+1=those'
p25
I300
sS'w-2=election'
p26
I497
sS'nsubjpass=dilemma'
p27
I199
sS'w-1=should'
p28
I442
sS'w-2=offer'
p29
I542
sS'w+2=corruption'
p30
I335
sS'w-2=new'
p31
I537
sS'w+1=diplomatic'
p32
I255
sS'w+2=use'
p33
I408
sS'w-2=just'
p34
I525
sS'dobj=homelessness'
p35
I115
sS'w-2=need'
p36
I536
sS'dobj=theproblem'
p37
I141
sS'w-2=they'
p38
I572
sS'prep=by'
p39
I218
sS'w+2=discussion'
p40
I346
sS'prep=within'
p41
I226
sS'nsubj=importance'
p42
I171
sS'w+2=larger'
p43
I370
sS'w-1=,'
p44
I414
sS'w-2=country'
p45
I483
sS'w+1=that'
p46
I293
sS'dobj=peace'
p47
I128
sS'nsubj=government'
p48
I169
sS'prep=in'
p49
I221
sS'w-1=would'
p50
I452
sS'w+1=overnight'
p51
I277
sS'nsubjpass=issue'
p52
I201
sS'dep=crisis'
p53
I83
sS'w+1=Togo'
p54
I240
sS'w+2=behind'
p55
I324
sS'w+1=these'
p56
I297
sS'w+1=only'
p57
I275
sS'advcl=clean'
p58
I1
sS'advmod=just'
p59
I23
sS'w-2=way'
p60
I588
sS'w-1=will'
p61
I450
sS'conj=encourage'
p62
I67
sS'nsubj=signatory'
p63
I182
sS'w+2=high'
p64
I359
sS'w-2=robotic'
p65
I560
sS'w+2=engineering'
p66
I352
sS'nsubjpass=lot'
p67
I202
sS'w-1=be'
p68
I421
sS'w+2=communal'
p69
I330
sS'parataxis=take'
p70
I213
sS'w+1=family'
p71
I260
sS'w-2=the'
p72
I571
sS'prep=behind'
p73
I217
sS'w-2=cooperate'
p74
I481
sS'w-2=power'
p75
I553
sS'w-2=time'
p76
I575
sS'ccomp=be'
p77
I53
sS'advmod=thoroughly'
p78
I35
sS'w+2=emergency'
p79
I350
sS'advcl=reach'
p80
I4
sS'dep=til'
p81
I92
sS'nsubj=what'
p82
I191
sS'dobj=everything'
p83
I111
sS'advcl=take'
p84
I6
sS'w+2=country'
p85
I336
sS'dobj=price'
p86
I132
sS'w+2=continent'
p87
I333
sS'w-2=answer'
p88
I468
sS'nsubj=more'
p89
I172
sS'w+1=half'
p90
I261
sS'w+2=to'
p91
I405
sS'w+1=crime'
p92
I254
sS'nsubjpass=rebel'
p93
I206
sS'w-2=home'
p94
I514
sS'conj=distort'
p95
I66
sS'w-2=process'
p96
I556
sS'w+2=grievance'
p97
I356
sS'w-1=have'
p98
I430
sS'ccomp=say'
p99
I62
sS'w+2=core'
p100
I334
sS'w+2=-lrb-'
p101
I312
sS'nsubj=Egyptians'
p102
I155
sS'w+2=in'
p103
I363
sS'w-2=unfit'
p104
I583
sS'w+2=percent'
p105
I388
sS'w-2=hope'
p106
I515
sS'w-2=all'
p107
I466
sS'w-2=only'
p108
I544
sS'w-1=could'
p109
I423
sS'aux=can'
p110
I40
sS'complm=that'
p111
I64
sS'advmod=diplomatically'
p112
I17
sS'dobj=matter'
p113
I122
sS'advmod=at'
p114
I15
sS'w-2=strategy'
p115
I566
sS'w+2=world'
p116
I413
sS'nsubjpass=percent'
p117
I204
sS'dep=order'
p118
I87
sS'nsubj=surveillance'
p119
I185
sS'w-2=effort'
p120
I496
sS'advcl=be'
p121
I0
sS'w-2=quality'
p122
I559
sS'w+2=by'
p123
I327
sS'w+1=the'
p124
I294
sS'w-2=than'
p125
I569
sS'advmod=only'
p126
I26
sS'w+2=be'
p127
I322
sS'w-2=mystery'
p128
I534
sS'w+1=they'
p129
I298
sS'nsubj=consensus'
p130
I162
sS'w-2=dog'
p131
I495
sS'w-2=capacity'
p132
I479
sS'advmod=somehow'
p133
I31
sS'nsubjpass=#PRP#'
p134
I194
sS'w+1=mystery'
p135
I272
sS'w+1=problem'
p136
I282
sS'aux=would'
p137
I48
sS'w+2=intractable'
p138
I364
sS'w-1=about'
p139
I417
sS'w-2=leader'
p140
I527
sS'w+1=Africa'
p141
I235
sS'w+1=immediately'
p142
I262
sS'ccomp=require'
p143
I60
sS'prep=to'
p144
I224
sS'w+2=diplomatically'
p145
I344
sS'dobj=program'
p146
I134
sS'w-1=problem'
p147
I440
sS'w+1=several'
p148
I287
sS'w+2=political'
p149
I389
sS'w+2=unemployment'
p150
I407
sS'xcomp=crisis'
p151
I597
sS'advmod=ago'
p152
I11
sS'w+1=and'
p153
I245
sS'w-1=they'
p154
I444
sS'w+1=theproblem'
p155
I296
sS'w-2=nothing'
p156
I539
sS'dobj=disappearance'
p157
I107
sS'dobj=insurgency'
p158
I116
sS'w+1=later'
p159
I267
sS'w+2=for'
p160
I355
sS'w+1=other'
p161
I276
sS'w+1=any'
p162
I246
sS'w-2=order'
p163
I547
sS'nsubj=that'
p164
I187
sS'w-1=it'
p165
I433
sS'w-2=government'
p166
I507
sS'dep=that'
p167
I91
sS'w-2=opportunity'
p168
I545
sS'w+2=this'
p169
I404
sS'w-2=idea'
p170
I517
sS'w+2=diplomacy'
p171
I343
sS'w-1=in'
p172
I432
sS'w+2=we'
p173
I410
sS'w+1=tough'
p174
I304
sS'dobj=all'
p175
I98
sS'w-2=moment'
p176
I532
sS'w-2=Egyptians'
p177
I456
sS'advmod=together'
p178
I36
sS'advmod=apart'
p179
I14
sS'nsubj=oil'
p180
I174
sS'w+2=Middle'
p181
I316
sS'w-2=unlikely'
p182
I584
sS'w-2=obligation'
p183
I541
sS'w+2=issue'
p184
I365
sS'dobj=crime'
p185
I103
sS'mark=if'
p186
I146
sS'w+2=maturity'
p187
I375
sS'w+2=whole'
p188
I411
sS'mark=in'
p189
I147
sS'w-2=dilemma'
p190
I489
sS'w-2=work'
p191
I594
sS'w+2=not'
p192
I380
sS'w+2=lot'
p193
I372
sS'nsubj=Pakistan'
p194
I158
sS'advcl=without'
p195
I8
sS'csubj=do'
p196
I80
sS'dobj=dispute'
p197
I108
sS'ccomp=want'
p198
I63
sS'nsubj=way'
p199
I190
sS'w-2=believe'
p200
I475
sS'mark=than'
p201
I148
sS'w+1=very'
p202
I305
sS'w+2=killing'
p203
I368
sS'w+2=crisis'
p204
I338
sS'w-2=distract'
p205
I492
sS'w+2=regional'
p206
I395
sS'dobj=puzzle'
p207
I135
sS'dobj=overnight'
p208
I126
sS'nsubj=who'
p209
I192
sS'nsubj=note'
p210
I173
sS'w+2=nation'
p211
I378
sS'w+2=politically'
p212
I390
sS'dobj=issue'
p213
I117
sS'w-1=to'
p214
I445
sS'conj=answer'
p215
I65
sS'nsubjpass=status'
p216
I210
sS'w-2=expert'
p217
I500
sS'w-2=we'
p218
I589
sS'dobj=#PRP#'
p219
I95
sS'w-2=do'
p220
I494
sS'nsubj=head'
p221
I170
sS'nsubj=authority'
p222
I160
sS'w+2=here'
p223
I358
sS'w-1=actually'
p224
I418
sS'dobj=this'
p225
I142
sS'advmod=back'
p226
I16
sS'w+1=at'
p227
I248
sS'nsubj=project'
p228
I179
sS'conj=independence'
p229
I70
sS'nsubj=sanction'
p230
I181
sS'w+1=themselves'
p231
I295
sS'dep=loom'
p232
I85
sS'w+2=dispute'
p233
I347
sS'w-1=country'
p234
I424
sS'dobj=root'
p235
I137
sS'w-2=try'
p236
I582
sS'w+2=root'
p237
I396
sS'w-1=pipe'
p238
I438
sS'ccomp=russian'
p239
I61
sS'nsubj=election'
p240
I167
sS'w-1=can'
p241
I422
sS'dobj=many'
p242
I121
sS'advmod=here'
p243
I20
sS'w-2=expect'
p244
I499
sS'w+2=nuclear'
p245
I381
sS'w+1=everything'
p246
I258
sS'tmod=today'
p247
I228
sS'w-2=able'
p248
I462
sS'w+1=through'
p249
I302
sS'w-2=identify'
p250
I518
sS'w-1=say'
p251
I441
sS'auxpass=be'
p252
I49
sS'w+2=because'
p253
I323
sS'w+2=most'
p254
I377
sS'w+2=own'
p255
I387
sS'advmod=easily'
p256
I18
sS'w-1=minister'
p257
I434
sS'w-1=diplomatically'
p258
I425
sS'w+1=extra-judicial'
p259
I259
sS'nsubj=council'
p260
I163
sS'nsubj=technology'
p261
I186
sS'prep=for'
p262
I219
sS'advmod=alone'
p263
I13
sS'w-1=ultimately'
p264
I447
sS'w+1=we'
p265
I306
sS'w-2=together'
p266
I578
sS'w+2=ago'
p267
I319
sS'w+2=loom'
p268
I371
sS'dobj=unemployment'
p269
I143
sS'w+2=at'
p270
I321
sS'w-2=issue'
p271
I523
sS'w-2=dialog'
p272
I487
sS'conj=think'
p273
I77
sS'advmod=otherwise'
p274
I27
sS'w+1=soon'
p275
I291
sS'w-2=approach'
p276
I469
sS'w-2=desire'
p277
I485
sS'w+1=chronic'
p278
I252
sS'conj=improve'
p279
I69
sS'dobj=murder'
p280
I123
sS'w+2=Thursday'
p281
I317
sS'w-2=creativity'
p282
I484
sS'conj=stabilize'
p283
I75
sS'ccomp=lack'
p284
I57
sS'nsubj=#NUMBER#'
p285
I153
sS'nsubj=aid'
p286
I159
sS'w+1=its'
p287
I266
sS'w+2=disappearance'
p288
I345
sS'w+2=question'
p289
I393
sS'w+1=though'
p290
I301
sS'w+2=crime'
p291
I337
sS'w+1=much'
p292
I271
sS'w-2=divert'
p293
I493
sS'ccomp=claim'
p294
I54
sS'dobj=lot'
p295
I120
sS'dobj=emergency'
p296
I110
sS'advmod=solely'
p297
I30
sS'w+2=public'
p298
I392
sS'w-2=Pakistan'
p299
I458
sS'w-2=violence'
p300
I586
sS'w+2=Abyei'
p301
I314
sS'w+2=or'
p302
I385
sS"w-2=''"
p303
I453
sS'nsubj=this'
p304
I188
sS'w-2=tradition'
p305
I579
sS'w+2=of'
p306
I383
sS'nsubjpass=situation'
p307
I207
sS'dobj=future'
p308
I112
sS'conj=support'
p309
I76
sS'w-1=prasad'
p310
I439
sS'nsubj=year'
p311
I193
sS'nsubj=expert'
p312
I168
sS'w+2=separatist'
p313
I398
sS'w+2=he'
p314
I357
sS'w+2=just'
p315
I366
sS'prep=without'
p316
I227
sS'w-2=attempt'
p317
I470
sS'w-2=helpful'
p318
I513
sS'w-2=achieve'
p319
I463
sS'w+1=political'
p320
I280
sS'w-2=must'
p321
I533
sS'w+2=five'
p322
I354
sS'nsubj=capacity'
p323
I161
sS'w+1=racially-motivated'
p324
I284
sS'advcl=have'
p325
I2
sS'w-2=Zimbabwe'
p326
I460
sS'nsubj=Kenyans'
p327
I156
sS'w-2=confession'
p328
I480
sS'w+1=South'
p329
I239
sS'aux=be'
p330
I39
sS'w-2=fail'
p331
I501
sS'w+1=international'
p332
I264
sS'w+1=because'
p333
I250
sS'dobj=South'
p334
I97
sS'w+1=long'
p335
I268
sS'ccomp=need'
p336
I59
sS'advmod=ultimately'
p337
I37
sS'w-2=would'
p338
I595
sS'w-2=side'
p339
I564
sS'auxpass=get'
p340
I50
sS'w+2=capable'
p341
I328
sS'w-2=travel'
p342
I580
sS'w+1=peace'
p343
I279
sS'w+2=domestic'
p344
I349
sS'w-2=adapt'
p345
I465
sS'w-1=go'
p346
I429
sS'mark=while'
p347
I150
sS'w-2=means'
p348
I528
sS'dep=so'
p349
I88
sS'aux=do'
p350
I42
sS'nsubj=prasad'
p351
I177
sS'w-2=problem'
p352
I555
sS'w-2=interested'
p353
I521
sS'w-2=basis'
p354
I472
sS'aux=will'
p355
I47
sS'w-2=key'
p356
I526
sS'nsubjpass=dispute'
p357
I200
sS'xcomp=factor'
p358
I598
sS'tmod=un'
p359
I229
sS'nsubj=people'
p360
I175
sS'prep=with'
p361
I225
sS'w+2=military'
p362
I376
sS'w-2=play'
p363
I550
sS'w-2=troops'
p364
I581
sS'w-2=plan'
p365
I549
sS'w-1=toward'
p366
I446
sS'w-2=it'
p367
I524
sS'dobj=problem'
p368
I133
sS'prep=because'
p369
I216
sS'w+1=America'
p370
I236
sS'w+1=one'
p371
I274
sS'w+2=different'
p372
I342
sS'w-1=after'
p373
I419
sS'nsubj=Mediterranean'
p374
I157
sS"w+2=''"
p375
I309
sS'w+1=neither'
p376
I273
sS'w-2=up'
p377
I585
sS'w-2=diplomat'
p378
I490
sS'nsubjpass=case'
p379
I197
sS'w+2=kidney'
p380
I367
sS'w-2=woman'
p381
I593
sS'w-2=go'
p382
I505
sS'dobj=political'
p383
I130
sS'mark=because'
p384
I145
sS'w-2=program'
p385
I557
sS'nsubj=time'
p386
I189
sS'w-2=who'
p387
I591
sS'w+1=Kenya'
p388
I238
sS'advmod=why'
p389
I38
sS'w-2=have'
p390
I509
sS'cc=and'
p391
I51
sS'dobj=any'
p392
I99
sS'w+1=Aceh'
p393
I234
sS'w+2=current'
p394
I339
sS'w+1=by'
p395
I251
sS'w+1=be'
p396
I249
sS'w+2=community'
p397
I331
sS'w-2=what'
p398
I590
sS'w+1=regional'
p399
I285
sS"w+2='s"
p400
I310
sS'w+1=Iraq'
p401
I237
sS'w+1=seemingly'
p402
I286
sS'dep=try'
p403
I93
sS'w+2=division'
p404
I348
sS'dobj=difference'
p405
I105
sS'nsubjpass=mystery'
p406
I203
sS'w+1=in'
p407
I263
sS'w+1=it'
p408
I265
sS'mark=until'
p409
I149
sS'nsubj=#PRP#'
p410
I154
sS'nsubjpass=Economic'
p411
I195
sS'w+2=major'
p412
I373
sS'w-1=from'
p413
I427
sS'dobj=mystery'
p414
I124
sS'w-2=want'
p415
I587
sS'w-2=promise'
p416
I558
sS'cc=but'
p417
I52
sS'w-2=role'
p418
I561
sS'w+2=climate'
p419
I329
sS'w+2=conflict'
p420
I332
sS'nsubj=repression'
p421
I180
sS'w+1=social'
p422
I288
sS'csubj=send'
p423
I81
sS'w+2=burmese'
p424
I326
sS'dobj=#NUMBER#'
p425
I94
sS'w-1=help'
p426
I431
sS'advmod=politically'
p427
I29
sS'aux=could'
p428
I41
sS'w+1=-rrb-'
p429
I231
sS'w+2=negotiation'
p430
I379
sS'w-1=without'
p431
I451
sS'w+2=kind'
p432
I369
sS'nsubjpass=stalemate'
p433
I209
sS'aux=must'
p434
I44
sS'advmod=all'
p435
I12
sS'advcl=win'
p436
I7
sS'w+1=successive'
p437
I292
sS'nsubj=posture'
p438
I176
sS'w+1=today'
p439
I303
sS'dobj=grievance'
p440
I113
sS'w-2=authority'
p441
I471
sS'nsubj=program'
p442
I178
sS'w-2=be'
p443
I473
sS'prep=of'
p444
I222
sS'w-2=politician'
p445
I551
sS'w+2=impasse'
p446
I362
sS'nsubjpass=crisis'
p447
I198
sS'nsubjpass=some'
p448
I208
sS'dobj=question'
p449
I136
sS'w-1=for'
p450
I426
sS'w-2=could'
p451
I482
sS'w-2=prime'
p452
I554
sS'w-2=action'
p453
I464
sS'dobj=background'
p454
I101
sS'w+2=difference'
p455
I341
sS'w+1=all'
p456
I244
sS'w-2=failure'
p457
I502
sS'conj=need'
p458
I71
sS'w-2=middle'
p459
I530
sS'dobj=conflict'
p460
I102
sS'w-2=talk'
p461
I567
sS'w-2=hard'
p462
I508
sS'w+2=that'
p463
I401
sS'dep=take'
p464
I90
sS'w+2=.'
p465
I313
sS'dep=solve'
p466
I89
sS'dobj=disagreement'
p467
I106
sS'w-2=get'
p468
I504
sS'advmod=especially'
p469
I19
sS'w+2=together'
p470
I406
sS'w-2=and'
p471
I467
sS'w+1=militarily'
p472
I270
sS'conj=pass'
p473
I72
sS'dobj=situation'
p474
I139
sS'advcl=say'
p475
I5
sS'w-1=of'
p476
I437
sS'advcl=work'
p477
I9
sS'w+2=and'
p478
I320
sS'w+2=matter'
p479
I374
sS'w-2=dispute'
p480
I491
sS'w+2=homelessness'
p481
I360
sS'advmod=actually'
p482
I10
sS'w+1=solely'
p483
I289
sS'w+2=real'
p484
I394
sS'w+2=only'
p485
I384
sS'dep=let'
p486
I84
sS'w-2=one'
p487
I543
sS'w+1=this'
p488
I299
sS'w+1=puzzle'
p489
I283
sS'w-2=enough'
p490
I498
sS'w-2=he'
p491
I510
sS'advmod=sustainably'
p492
I33
sS'w-2=minister'
p493
I531
sS'w-2=to'
p494
I577
sS'w+1=with'
p495
I308
sS'w-2=goal'
p496
I506
sS'advmod=now'
p497
I25
sS'w-2=possible'
p498
I552
sS'dobj=shortage'
p499
I138
sS'w+2=the'
p500
I402
sS'prep=at'
p501
I215
sS'w-2=will'
p502
I592
sS'advmod=peacefully'
p503
I28
sS'w-2=,'
p504
I454
sS'w-2=.'
p505
I455
sS'w-1=and'
p506
I420
sS'w-2=technology'
p507
I568
sS'w+1=what'
p508
I307
sS'dobj=number'
p509
I125
sS'aux=have'
p510
I43
sS'conj=serve'
p511
I74
sS'conj=together'
p512
I78
sS'dobj=kind'
p513
I119
sS'w-2=not'
p514
I538
sS'w-2=now'
p515
I540
sS'w+1=african'
p516
I243
sS'w-2=South'
p517
I459
sS'advmod=soon'
p518
I32
sS'w-2=how'
p519
I516
sS'prep=through'
p520
I223
sS'conj=help'
p521
I68
sS'aux=should'
p522
I45
sS'advcl=make'
p523
I3
sS'w+2=such'
p524
I400
sS'w-2=til'
p525
I574
sS'dobj=crisis'
p526
I104
sS'nsubjpass=which'
p527
I212
sS'w+1=press'
p528
I281
sS'w-2=serious'
p529
I562
sS'dobj=view'
p530
I144
sS'w-1=-lrb-'
p531
I415
sS'w-1=Mediterranean'
p532
I416
sS'nsubj=dialog'
p533
I166
sS'xcomp=press'
p534
I599
sS'w-2=involve'
p535
I522
sS'w+2=security'
p536
I397
sS'w+1=many'
p537
I269
sS'w+1=economic'
p538
I257
sS'w+1=anything'
p539
I247
sS'advmod=immediately'
p540
I22
sS'w-2=solution'
p541
I565
sS'neg=never'
p542
I151
sS'w-2=bid'
p543
I476
sS'w+2=violent'
p544
I409
sS'w+2=they'
p545
I403
sS'dobj=politically'
p546
I131
sS'dobj=Iraq'
p547
I96
sS'prep=after'
p548
I214
sS'w-2=board'
p549
I477
sS'w+2=immediate'
p550
I361
sS'w+2=situation'
p551
I399
sS'ccomp=effect'
p552
I56
sS'ccomp=do'
p553
I55
sS'w-1=what'
p554
I449
sS'w-2=timeframe'
p555
I576
sS'nsubj=strike'
p556
I183
sS'w-1=sustainably'
p557
I443
sS'w+2=without'
p558
I412
sS'w+2=border'
p559
I325
sS'w-2=develop'
p560
I486
sS'w+1=100'
p561
I233
sS'conj=review'
p562
I73
sS'w-2=this'
p563
I573
sS'advmod=how'
p564
I21
sS'w+2=Litvinenko'
p565
I315
sS'prep=from'
p566
I220
sS'w-2=difficult'
p567
I488
sS'w+2=other'
p568
I386
sS'w-2=help'
p569
I512
sS'w-1=we'
p570
I448
sS'aux=to'
p571
I46
sS'w-2=you'
p572
I596
sS'w-2=should'
p573
I563
sS'w-2=measure'
p574
I529
sS'nsubj=surge'
p575
I184
sS'w-1=get'
p576
I428
sS'w-2=can'
p577
I478
sS'dobj=part'
p578
I127
sS'w+2=energy'
p579
I351
sS'dobj=some'
p580
I140
sS'nsubjpass=problem'
p581
I205
sS'dobj=division'
p582
I109
sS'advmod=later'
p583
I24
sS'w+1=,'
p584
I230
sS'w+1=.'
p585
I232
sS'w-2=that'
p586
I570
sS'dep=after'
p587
I82
sS'w+1=some'
p588
I290
sS'w+2=,'
p589
I311
sS'w-2=importance'
p590
I519
sS'neg=not'
p591
I152
sS'w-2=Zimbabweans'
p592
I461
sS'w+1=common'
p593
I253
sS'w-2=headway'
p594
I511
sS'ccomp=means'
p595
I58
sS'w+1=a'
p596
I242
sS'w-1=not'
p597
I436
sS'w-2=Kenyans'
p598
I457
sS'w-2=inefficiency'
p599
I520
sS'w+1=U.S.'
p600
I241
sS'w-2=because'
p601
I474
sS'w-2=force'
p602
I503
sS'nsubjpass=all'
p603
I196
sS'w+2=dialogue'
p604
I340
sS'w-2=necessary'
p605
I535
sS'dobj=half'
p606
I114
sS'w+2=a'
p607
I318
ssS'dtype'
p608
cnumpy
float64
p609
sS'feature_names_'
p610
(lp611
g121
ag58
ag325
ag523
ag80
ag475
ag84
ag436
ag195
ag477
ag482
ag152
ag435
ag263
ag179
ag114
ag226
ag112
ag256
ag469
ag243
ag564
ag540
ag59
ag583
ag497
ag126
ag274
ag503
ag427
ag297
ag133
ag518
ag492
ag8
ag78
ag178
ag337
ag389
ag330
ag110
ag428
ag350
ag510
ag434
ag522
ag571
ag355
ag137
ag252
ag340
ag391
ag417
ag77
ag294
ag553
ag552
ag284
ag595
ag336
ag143
ag239
ag99
ag198
ag111
ag215
ag95
ag62
ag521
ag279
ag229
ag458
ag473
ag562
ag511
ag283
ag309
ag273
ag512
ag11
ag196
ag423
ag587
ag53
ag486
ag232
ag12
ag118
ag349
ag466
ag464
ag167
ag81
ag403
ag425
ag219
ag547
ag334
ag175
ag392
ag20
ag454
ag460
ag185
ag526
ag405
ag467
ag157
ag197
ag582
ag296
ag83
ag308
ag440
ag606
ag35
ag158
ag213
ag9
ag513
ag295
ag242
ag113
ag280
ag414
ag509
ag208
ag578
ag47
ag19
ag383
ag546
ag86
ag368
ag146
ag207
ag449
ag235
ag499
ag474
ag580
ag37
ag225
ag269
ag530
ag384
ag186
ag189
ag201
ag409
ag347
ag542
ag591
ag285
ag410
ag102
ag327
ag374
ag194
ag286
ag222
ag323
ag130
ag260
ag16
ag10
ag533
ag240
ag312
ag48
ag221
ag42
ag89
ag210
ag180
ag360
ag438
ag351
ag442
ag228
ag421
ag230
ag63
ag556
ag575
ag119
ag261
ag164
ag304
ag386
ag199
ag82
ag209
ag311
ag134
ag411
ag603
ag379
ag447
ag27
ag357
ag52
ag67
ag406
ag117
ag581
ag93
ag307
ag448
ag433
ag216
ag14
ag527
ag70
ag548
ag501
ag369
ag73
ag39
ag262
ag566
ag49
ag444
ag520
ag144
ag361
ag41
ag316
ag247
ag359
ag584
ag429
ag585
ag561
ag393
ag141
ag370
ag401
ag388
ag329
ag54
ag600
ag596
ag516
ag456
ag153
ag162
ag539
ag227
ag396
ag333
ag395
ag278
ag593
ag92
ag32
ag22
ag538
ag246
ag259
ag71
ag90
ag142
ag407
ag332
ag408
ag287
ag159
ag335
ag537
ag472
ag292
ag135
ag376
ag371
ag57
ag161
ag51
ag24
ag343
ag320
ag528
ag136
ag489
ag324
ag399
ag402
ag148
ag422
ag483
ag588
ag275
ag437
ag46
ag124
ag231
ag155
ag56
ag129
ag488
ag25
ag290
ag249
ag439
ag174
ag202
ag265
ag508
ag495
ag375
ag400
ag589
ag101
ag465
ag301
ag565
ag181
ag281
ag607
ag267
ag478
ag270
ag127
ag253
ag55
ag559
ag424
ag123
ag341
ag419
ag69
ag397
ag420
ag87
ag100
ag30
ag85
ag291
ag204
ag394
ag604
ag455
ag372
ag171
ag145
ag288
ag40
ag233
ag404
ag344
ag79
ag579
ag66
ag21
ag322
ag160
ag97
ag314
ag223
ag64
ag481
ag550
ag446
ag103
ag138
ag184
ag315
ag380
ag203
ag432
ag43
ag268
ag193
ag412
ag479
ag187
ag362
ag254
ag211
ag430
ag192
ag245
ag23
ag306
ag485
ag302
ag568
ag255
ag105
ag149
ag212
ag15
ag298
ag289
ag484
ag206
ag237
ag536
ag313
ag551
ag524
ag463
ag500
ag545
ag169
ag91
ag470
ag150
ag33
ag544
ag173
ag188
ag558
ag116
ag44
ag531
ag532
ag139
ag224
ag373
ag506
ag68
ag241
ag109
ag234
ag258
ag450
ag413
ag576
ag346
ag98
ag426
ag172
ag165
ag257
ag18
ag597
ag476
ag238
ag310
ag147
ag251
ag28
ag557
ag154
ag214
ag366
ag264
ag570
ag554
ag61
ag431
ag50
ag303
ag504
ag505
ag177
ag598
ag299
ag517
ag326
ag592
ag248
ag319
ag453
ag345
ag107
ag471
ag88
ag276
ag317
ag441
ag354
ag443
ag601
ag200
ag543
ag549
ag577
ag132
ag328
ag74
ag451
ag45
ag282
ag277
ag560
ag272
ag567
ag190
ag378
ag480
ag205
ag293
ag220
ag131
ag120
ag26
ag490
ag244
ag217
ag331
ag457
ag602
ag468
ag382
ag496
ag166
ag462
ag390
ag491
ag594
ag569
ag318
ag94
ag106
ag519
ag170
ag250
ag590
ag599
ag353
ag535
ag271
ag367
ag34
ag356
ag140
ag348
ag574
ag459
ag493
ag176
ag321
ag128
ag605
ag36
ag31
ag514
ag156
ag515
ag183
ag29
ag487
ag108
ag168
ag13
ag163
ag17
ag365
ag363
ag445
ag498
ag75
ag452
ag352
ag96
ag385
ag416
ag122
ag65
ag418
ag529
ag573
ag339
ag541
ag115
ag461
ag507
ag125
ag586
ag72
ag38
ag563
ag525
ag76
ag555
ag494
ag266
ag305
ag342
ag364
ag236
ag104
ag182
ag377
ag300
ag415
ag60
ag218
ag398
ag387
ag502
ag381
ag191
ag338
ag572
ag151
ag358
ag534
asS'separator'
p612
S'='
sS'sparse'
p613
I01
sb.