ccopy_reg
_reconstructor
p1
(csklearn.feature_extraction.dict_vectorizer
DictVectorizer
p2
c__builtin__
object
p3
NtRp4
(dp5
S'sort'
p6
I01
sS'feature_names_'
p7
(lp8
S'advcl=able'
p9
aS'advcl=active'
p10
aS'advcl=bring'
p11
aS'advcl=chase'
p12
aS'advcl=come'
p13
aS'advcl=find'
p14
aS'advcl=know'
p15
aS'advcl=low'
p16
aS'advcl=substitute'
p17
aS'advcl=walk'
p18
aS'advmod=early'
p19
aS'advmod=generally'
p20
aS'advmod=here'
p21
aS'advmod=naturally'
p22
aS'advmod=necessarily'
p23
aS'advmod=often'
p24
aS'advmod=partly'
p25
aS'advmod=primarily'
p26
aS'advmod=really'
p27
aS'advmod=so'
p28
aS'advmod=still'
p29
aS'advmod=then'
p30
aS'advmod=therefore'
p31
aS'advmod=usually'
p32
aS'advmod=where'
p33
aS'advmod=why'
p34
aS'aux=can'
p35
aS'aux=do'
p36
aS'aux=have'
p37
aS'aux=may'
p38
aS'aux=to'
p39
aS'aux=will'
p40
aS'aux=would'
p41
aS'cc=and'
p42
aS'cc=but'
p43
aS'cc=or'
p44
aS'ccomp=come'
p45
aS'ccomp=determine'
p46
aS'ccomp=fall'
p47
aS'ccomp=have'
p48
aS'ccomp=land'
p49
aS'ccomp=period'
p50
aS'ccomp=say'
p51
aS'complm=that'
p52
aS'conj=allow'
p53
aS'conj=eat'
p54
aS'conj=frightened'
p55
aS'conj=happen'
p56
aS'conj=have'
p57
aS'conj=make'
p58
aS'conj=show'
p59
aS'conj=support'
p60
aS'conj=take'
p61
aS'conj=want'
p62
aS'conj=work'
p63
aS'dep=#NUMBER#'
p64
aS'dep=be'
p65
aS'dep=because'
p66
aS'dep=child'
p67
aS'dep=develop'
p68
aS'dep=know'
p69
aS'dep=sell'
p70
aS'dep=what'
p71
aS'dobj=cage'
p72
aS'dobj=farm'
p73
aS'dobj=field'
p74
aS'dobj=garden'
p75
aS'dobj=many'
p76
aS'dobj=pen'
p77
aS'dobj=poppy'
p78
aS'dobj=row'
p79
aS'dobj=variety'
p80
aS'expl=there'
p81
aS'mark=although'
p82
aS'mark=because'
p83
aS'mark=while'
p84
aS'neg=not'
p85
aS'nsubj=#NUMBER#'
p86
aS'nsubj=#PRP#'
p87
aS'nsubj=Ackridge'
p88
aS'nsubj=Americans'
p89
aS'nsubj=Arab-Americans'
p90
aS'nsubj=Congress'
p91
aS'nsubj=Democrats'
p92
aS'nsubj=Georgians'
p93
aS'nsubj=Hispanics'
p94
aS'nsubj=In'
p95
aS'nsubj=Muslims'
p96
aS'nsubj=Nanthana'
p97
aS'nsubj=Nina'
p98
aS'nsubj=Politics'
p99
aS'nsubj=Russia'
p100
aS'nsubj=Trade'
p101
aS'nsubj=West'
p102
aS'nsubj=alcoholic'
p103
aS'nsubj=animal'
p104
aS'nsubj=ankle'
p105
aS'nsubj=artist'
p106
aS'nsubj=black'
p107
aS'nsubj=blog'
p108
aS'nsubj=boy'
p109
aS'nsubj=broadcaster'
p110
aS'nsubj=campaign'
p111
aS'nsubj=child'
p112
aS'nsubj=christian'
p113
aS'nsubj=company'
p114
aS'nsubj=constituency'
p115
aS'nsubj=country'
p116
aS'nsubj=court'
p117
aS'nsubj=dozen'
p118
aS'nsubj=driver'
p119
aS'nsubj=each'
p120
aS'nsubj=enthusiast'
p121
aS'nsubj=family'
p122
aS'nsubj=farmer'
p123
aS'nsubj=fat'
p124
aS'nsubj=field'
p125
aS'nsubj=force'
p126
aS'nsubj=foreigner'
p127
aS'nsubj=homeless'
p128
aS'nsubj=interest'
p129
aS'nsubj=journalist'
p130
aS'nsubj=kid'
p131
aS'nsubj=leader'
p132
aS'nsubj=liberal'
p133
aS'nsubj=lot'
p134
aS'nsubj=media'
p135
aS'nsubj=meeting'
p136
aS'nsubj=parachute'
p137
aS'nsubj=party'
p138
aS'nsubj=passion'
p139
aS'nsubj=people'
p140
aS'nsubj=president'
p141
aS'nsubj=pressure'
p142
aS'nsubj=project'
p143
aS'nsubj=region'
p144
aS'nsubj=republican'
p145
aS'nsubj=road'
p146
aS'nsubj=salsa'
p147
aS'nsubj=seeker'
p148
aS'nsubj=session'
p149
aS'nsubj=set'
p150
aS'nsubj=small'
p151
aS'nsubj=smoker'
p152
aS'nsubj=soda'
p153
aS'nsubj=soldier'
p154
aS'nsubj=speaker'
p155
aS'nsubj=statement'
p156
aS'nsubj=that'
p157
aS'nsubj=tourist'
p158
aS'nsubj=traveler'
p159
aS'nsubj=victim'
p160
aS'nsubj=voter'
p161
aS'nsubj=which'
p162
aS'nsubj=who'
p163
aS'nsubj=woman'
p164
aS'parataxis=go'
p165
aS'parataxis=look'
p166
aS'parataxis=work'
p167
aS'prep=accord'
p168
aS'prep=as'
p169
aS'prep=by'
p170
aS'prep=combine'
p171
aS'prep=compare'
p172
aS'prep=from'
p173
aS'prep=give'
p174
aS'prep=in'
p175
aS'prep=of'
p176
aS'prep=on'
p177
aS'prep=outside'
p178
aS'prep=over'
p179
aS'prep=since'
p180
aS'prep=to'
p181
aS'prep=within'
p182
aS'purpcl=encourage'
p183
aS'rel=in'
p184
aS'w+1=,'
p185
aS'w+1=34'
p186
aS'w+1=a'
p187
aS'w+1=by'
p188
aS'w+1=garden'
p189
aS'w+1=he'
p190
aS'w+1=many'
p191
aS'w+1=neat'
p192
aS'w+1=not'
p193
aS'w+1=pen'
p194
aS'w+1=primarily'
p195
aS'w+1=still'
p196
aS'w+1=they'
p197
aS'w+1=to'
p198
aS'w+2=,'
p199
aS'w+2=I'
p200
aS'w+2=a'
p201
aS'w+2=act'
p202
aS'w+2=actually'
p203
aS'w+2=agree'
p204
aS'w+2=and'
p205
aS'w+2=attract'
p206
aS'w+2=avoid'
p207
aS'w+2=back'
p208
aS'w+2=be'
p209
aS'w+2=beloved'
p210
aS'w+2=boil'
p211
aS'w+2=carry'
p212
aS'w+2=concentrate'
p213
aS'w+2=consolidate'
p214
aS'w+2=control'
p215
aS'w+2=crop'
p216
aS'w+2=cut'
p217
aS'w+2=deal'
p218
aS'w+2=demonstrate'
p219
aS'w+2=die'
p220
aS'w+2=disappear'
p221
aS'w+2=discourage'
p222
aS'w+2=dismiss'
p223
aS'w+2=disproportionately'
p224
aS'w+2=do'
p225
aS'w+2=dominate'
p226
aS'w+2=drag'
p227
aS'w+2=either'
p228
aS'w+2=elevate'
p229
aS'w+2=empathize'
p230
aS'w+2=employ'
p231
aS'w+2=face'
p232
aS'w+2=fail'
p233
aS'w+2=fall'
p234
aS'w+2=favor'
p235
aS'w+2=feel'
p236
aS'w+2=field'
p237
aS'w+2=fill'
p238
aS'w+2=find'
p239
aS'w+2=focus'
p240
aS'w+2=fund'
p241
aS'w+2=get'
p242
aS'w+2=give'
p243
aS'w+2=go'
p244
aS'w+2=green'
p245
aS'w+2=grow'
p246
aS'w+2=hang'
p247
aS'w+2=have'
p248
aS'w+2=hedge'
p249
aS'w+2=hold'
p250
aS'w+2=ignore'
p251
aS'w+2=impede'
p252
aS'w+2=keep'
p253
aS'w+2=last'
p254
aS'w+2=lean'
p255
aS'w+2=like'
p256
aS'w+2=look'
p257
aS'w+2=lump'
p258
aS'w+2=make'
p259
aS'w+2=mask'
p260
aS'w+2=of'
p261
aS'w+2=own'
p262
aS'w+2=oyster'
p263
aS'w+2=prefer'
p264
aS'w+2=produce'
p265
aS'w+2=project'
p266
aS'w+2=rally'
p267
aS'w+2=reject'
p268
aS'w+2=resist'
p269
aS'w+2=rice'
p270
aS'w+2=run'
p271
aS'w+2=say'
p272
aS'w+2=see'
p273
aS'w+2=share'
p274
aS'w+2=shift'
p275
aS'w+2=side'
p276
aS'w+2=spare'
p277
aS'w+2=stay'
p278
aS'w+2=stick'
p279
aS'w+2=support'
p280
aS'w+2=sympathize'
p281
aS'w+2=take'
p282
aS'w+2=they'
p283
aS'w+2=think'
p284
aS'w+2=to'
p285
aS'w+2=travel'
p286
aS'w+2=trust'
p287
aS'w+2=typecast'
p288
aS'w+2=use'
p289
aS'w+2=variety'
p290
aS'w+2=vegetable'
p291
aS'w+2=view'
p292
aS'w+2=vote'
p293
aS'w+2=want'
p294
aS'w+2=wind'
p295
aS'w-1=,'
p296
aS'w-1=-'
p297
aS'w-1=Ackridge'
p298
aS'w-1=Africa'
p299
aS'w-1=Americans'
p300
aS'w-1=Arab-Americans'
p301
aS'w-1=Congress'
p302
aS'w-1=Democrats'
p303
aS'w-1=Georgians'
p304
aS'w-1=House'
p305
aS'w-1=I'
p306
aS'w-1=Muslims'
p307
aS'w-1=Nebraska'
p308
aS'w-1=Niger'
p309
aS'w-1=Nina'
p310
aS'w-1=West'
p311
aS'w-1=adopt'
p312
aS'w-1=alcoholic'
p313
aS'w-1=and'
p314
aS'w-1=ankle'
p315
aS'w-1=artist'
p316
aS'w-1=boy'
p317
aS'w-1=broadcaster'
p318
aS'w-1=campaign'
p319
aS'w-1=candidate'
p320
aS'w-1=christian'
p321
aS'w-1=country'
p322
aS'w-1=do'
p323
aS'w-1=driver'
p324
aS'w-1=election'
p325
aS'w-1=farmer'
p326
aS'w-1=fat'
p327
aS'w-1=field'
p328
aS'w-1=fire'
p329
aS'w-1=generally'
p330
aS'w-1=have'
p331
aS'w-1=he'
p332
aS'w-1=here'
p333
aS'w-1=homeless'
p334
aS'w-1=hunter'
p335
aS'w-1=it'
p336
aS'w-1=leader'
p337
aS'w-1=liberal'
p338
aS'w-1=may'
p339
aS'w-1=media'
p340
aS'w-1=meeting'
p341
aS'w-1=necessarily'
p342
aS'w-1=one'
p343
aS'w-1=particle'
p344
aS'w-1=passion'
p345
aS'w-1=past'
p346
aS'w-1=people'
p347
aS'w-1=pressure'
p348
aS'w-1=process'
p349
aS'w-1=project'
p350
aS'w-1=really'
p351
aS'w-1=republican'
p352
aS'w-1=seeker'
p353
aS'w-1=seller'
p354
aS'w-1=session'
p355
aS'w-1=smoker'
p356
aS'w-1=soldier'
p357
aS'w-1=song'
p358
aS'w-1=state'
p359
aS'w-1=statement'
p360
aS'w-1=that'
p361
aS'w-1=there'
p362
aS'w-1=they'
p363
aS'w-1=to'
p364
aS'w-1=upload'
p365
aS'w-1=usually'
p366
aS'w-1=voter'
p367
aS'w-1=we'
p368
aS'w-1=which'
p369
aS'w-1=who'
p370
aS'w-1=will'
p371
aS'w-1=woman'
p372
aS'w-1=world'
p373
aS'w-1=would'
p374
aS'w-1=you'
p375
aS"w-2=''"
p376
aS'w-2=,'
p377
aS'w-2=.'
p378
aS'w-2=Africa'
p379
aS'w-2=Hampshire'
p380
aS'w-2=Hispanics'
p381
aS'w-2=La'
p382
aS'w-2=Mitterrand'
p383
aS'w-2=Nanthana'
p384
aS'w-2=Republicans'
p385
aS'w-2=Russia'
p386
aS'w-2=Sally'
p387
aS'w-2=U.S'
p388
aS'w-2=although'
p389
aS'w-2=and'
p390
aS'w-2=asylum'
p391
aS'w-2=because'
p392
aS'w-2=behavior'
p393
aS'w-2=black'
p394
aS'w-2=blood'
p395
aS'w-2=body'
p396
aS'w-2=but'
p397
aS'w-2=caucus'
p398
aS'w-2=christian'
p399
aS'w-2=cigarette'
p400
aS'w-2=circumstance'
p401
aS'w-2=civilian'
p402
aS'w-2=committee'
p403
aS'w-2=component'
p404
aS'w-2=constituency'
p405
aS'w-2=cooking'
p406
aS'w-2=costly'
p407
aS'w-2=develop'
p408
aS'w-2=donor'
p409
aS'w-2=educate'
p410
aS'w-2=factor'
p411
aS'w-2=family'
p412
aS'w-2=force'
p413
aS'w-2=government'
p414
aS'w-2=he'
p415
aS'w-2=house'
p416
aS'w-2=in'
p417
aS'w-2=interest'
p418
aS'w-2=iranian'
p419
aS'w-2=issue'
p420
aS'w-2=journalist'
p421
aS'w-2=kid'
p422
aS'w-2=know'
p423
aS'w-2=korean'
p424
aS'w-2=local'
p425
aS'w-2=media'
p426
aS'w-2=not'
p427
aS'w-2=nothing'
p428
aS'w-2=of'
p429
aS'w-2=often'
p430
aS'w-2=or'
p431
aS'w-2=over'
p432
aS'w-2=paddy'
p433
aS'w-2=parachute'
p434
aS'w-2=people'
p435
aS'w-2=polarize'
p436
aS'w-2=president'
p437
aS'w-2=primary'
p438
aS'w-2=private'
p439
aS'w-2=regime'
p440
aS'w-2=region'
p441
aS'w-2=restless'
p442
aS'w-2=salsa'
p443
aS'w-2=say'
p444
aS'w-2=school'
p445
aS'w-2=sheep'
p446
aS'w-2=small'
p447
aS'w-2=soda'
p448
aS'w-2=state-owned'
p449
aS'w-2=strategy'
p450
aS'w-2=street'
p451
aS'w-2=sub-saharan'
p452
aS'w-2=suburb'
p453
aS'w-2=such'
p454
aS'w-2=taxi'
p455
aS'w-2=that'
p456
aS'w-2=the'
p457
aS'w-2=then'
p458
aS'w-2=these'
p459
aS'w-2=they'
p460
aS'w-2=think'
p461
aS'w-2=those'
p462
aS'w-2=time'
p463
aS'w-2=to'
p464
aS'w-2=unable'
p465
aS'w-2=victim'
p466
aS'w-2=video'
p467
aS'w-2=water'
p468
aS'w-2=we'
p469
aS'w-2=where'
p470
aS'w-2=who'
p471
aS'w-2=why'
p472
aS'w-2=year'
p473
aS'xcomp=Iraqis'
p474
aS'xcomp=accept'
p475
aS'xcomp=act'
p476
aS'xcomp=affect'
p477
aS'xcomp=agree'
p478
aS'xcomp=attract'
p479
aS'xcomp=avoid'
p480
aS'xcomp=back'
p481
aS'xcomp=be'
p482
aS'xcomp=better'
p483
aS'xcomp=boil'
p484
aS'xcomp=carry'
p485
aS'xcomp=catch'
p486
aS'xcomp=close'
p487
aS'xcomp=come'
p488
aS'xcomp=complacent'
p489
aS'xcomp=concentrate'
p490
aS'xcomp=concerned'
p491
aS'xcomp=condition'
p492
aS'xcomp=conservative'
p493
aS'xcomp=consolidate'
p494
aS'xcomp=control'
p495
aS'xcomp=cut'
p496
aS'xcomp=deal'
p497
aS'xcomp=deforestation'
p498
aS'xcomp=demonstrate'
p499
aS'xcomp=die'
p500
aS'xcomp=disappear'
p501
aS'xcomp=discount'
p502
aS'xcomp=discourage'
p503
aS'xcomp=dismiss'
p504
aS'xcomp=do'
p505
aS'xcomp=dominate'
p506
aS'xcomp=drag'
p507
aS'xcomp=elevate'
p508
aS'xcomp=empathize'
p509
aS'xcomp=employ'
p510
aS'xcomp=face'
p511
aS'xcomp=fail'
p512
aS'xcomp=favor'
p513
aS'xcomp=feel'
p514
aS'xcomp=find'
p515
aS'xcomp=focus'
p516
aS'xcomp=fund'
p517
aS'xcomp=get'
p518
aS'xcomp=give'
p519
aS'xcomp=go'
p520
aS'xcomp=grow'
p521
aS'xcomp=hang'
p522
aS'xcomp=have'
p523
aS'xcomp=hedge'
p524
aS'xcomp=hold'
p525
aS'xcomp=ignore'
p526
aS'xcomp=impede'
p527
aS'xcomp=keep'
p528
aS'xcomp=last'
p529
aS'xcomp=lean'
p530
aS'xcomp=liberal'
p531
aS'xcomp=like'
p532
aS'xcomp=look'
p533
aS'xcomp=lump'
p534
aS'xcomp=make'
p535
aS'xcomp=man'
p536
aS'xcomp=marry'
p537
aS'xcomp=media-oriented'
p538
aS'xcomp=mouthpiece'
p539
aS'xcomp=move'
p540
aS'xcomp=older'
p541
aS'xcomp=operate'
p542
aS'xcomp=opportunity'
p543
aS'xcomp=orient'
p544
aS'xcomp=polarize'
p545
aS'xcomp=police'
p546
aS'xcomp=poor'
p547
aS'xcomp=prefer'
p548
aS'xcomp=prepare'
p549
aS'xcomp=produce'
p550
aS'xcomp=project'
p551
aS'xcomp=rally'
p552
aS'xcomp=reject'
p553
aS'xcomp=release'
p554
aS'xcomp=religious'
p555
aS'xcomp=represent'
p556
aS'xcomp=resist'
p557
aS'xcomp=ripe'
p558
aS'xcomp=run'
p559
aS'xcomp=say'
p560
aS'xcomp=see'
p561
aS'xcomp=serve'
p562
aS'xcomp=share'
p563
aS'xcomp=shift'
p564
aS'xcomp=side'
p565
aS'xcomp=stay'
p566
aS'xcomp=stick'
p567
aS'xcomp=store'
p568
aS'xcomp=support'
p569
aS'xcomp=sympathize'
p570
aS'xcomp=take'
p571
aS'xcomp=think'
p572
aS'xcomp=tourist'
p573
aS'xcomp=trust'
p574
aS'xcomp=turn'
p575
aS'xcomp=typecast'
p576
aS'xcomp=use'
p577
aS'xcomp=very'
p578
aS'xcomp=view'
p579
aS'xcomp=vote'
p580
aS'xcomp=want'
p581
aS'xcomp=wealthier'
p582
aS'xcomp=well-know'
p583
aS'xcomp=wind'
p584
aS'xcomp=worker'
p585
aS'xcomp=worse'
p586
asS'dtype'
p587
cnumpy
float64
p588
sS'vocabulary_'
p589
(dp590
g30
I21
sg499
I490
sg94
I85
sg568
I559
sg131
I122
sg469
I460
sg435
I426
sg310
I301
sg20
I11
sg564
I555
sg380
I371
sg416
I407
sg112
I103
sg153
I144
sg381
I372
sg577
I568
sg151
I142
sg289
I280
sg546
I537
sg453
I444
sg320
I311
sg354
I345
sg458
I449
sg430
I421
sg46
I37
sg104
I95
sg460
I451
sg406
I397
sg311
I302
sg170
I161
sg67
I58
sg182
I173
sg356
I347
sg508
I499
sg491
I482
sg434
I425
sg512
I503
sg374
I365
sg335
I326
sg16
I7
sg247
I238
sg367
I358
sg96
I87
sg28
I19
sg27
I18
sg436
I427
sg484
I475
sg12
I3
sg563
I554
sg586
I577
sg371
I362
sg531
I522
sg366
I357
sg38
I29
sg204
I195
sg224
I215
sg405
I396
sg91
I82
sg412
I403
sg271
I262
sg539
I530
sg519
I510
sg463
I454
sg477
I468
sg506
I497
sg132
I123
sg470
I461
sg87
I78
sg83
I74
sg471
I462
sg277
I268
sg359
I350
sg285
I276
sg583
I574
sg62
I53
sg269
I260
sg158
I149
sg344
I335
sg71
I62
sg379
I370
sg331
I322
sg51
I42
sg400
I391
sg233
I224
sg302
I293
sg211
I202
sg110
I101
sg186
I177
sg455
I446
sg301
I292
sg239
I230
sg263
I254
sg48
I39
sg35
I26
sg52
I43
sg351
I342
sg534
I525
sg326
I317
sg228
I219
sg293
I284
sg365
I356
sg375
I366
sg193
I184
sg288
I279
sg456
I447
sg282
I273
sg346
I337
sg265
I256
sg505
I496
sg209
I200
sg480
I471
sg197
I188
sg160
I151
sg22
I13
sg175
I166
sg41
I32
sg522
I513
sg300
I291
sg572
I563
sg235
I226
sg309
I300
sg25
I16
sg79
I70
sg236
I227
sg181
I172
sg267
I258
sg353
I344
sg287
I278
sg58
I49
sg275
I266
sg528
I519
sg329
I320
sg565
I556
sg500
I491
sg488
I479
sg157
I148
sg336
I327
sg414
I405
sg21
I12
sg465
I456
sg394
I385
sg253
I244
sg550
I541
sg134
I125
sg146
I137
sg569
I560
sg210
I201
sg338
I329
sg307
I298
sg90
I81
sg291
I282
sg202
I193
sg360
I351
sg206
I197
sg355
I346
sg33
I24
sg511
I502
sg407
I398
sg328
I319
sg545
I536
sg410
I401
sg571
I562
sg538
I529
sg273
I264
sg373
I364
sg184
I175
sg431
I422
sg163
I154
sg536
I527
sg318
I309
sg429
I420
sg290
I281
sg227
I218
sg557
I548
sg364
I355
sg502
I493
sg578
I569
sg138
I129
sg324
I315
sg109
I100
sg123
I114
sg570
I561
sg154
I145
sg196
I187
sg179
I170
sg66
I57
sg100
I91
sg387
I378
sg203
I194
sg143
I134
sg114
I105
sg136
I127
sg358
I349
sg322
I313
sg161
I152
sg523
I514
sg478
I469
sg76
I67
sg386
I377
sg566
I557
sg573
I564
sg107
I98
sg70
I61
sg516
I507
sg84
I75
sg447
I438
sg262
I253
sg139
I130
sg50
I41
sg497
I488
sg428
I419
sg501
I492
sg218
I209
sg47
I38
sg560
I551
sg126
I117
sg413
I404
sg257
I248
sg93
I84
sg125
I116
sg135
I126
sg333
I324
sg513
I504
sg562
I553
sg108
I99
sg64
I55
sg440
I431
sg330
I321
sg99
I90
sg343
I334
sg507
I498
sg207
I198
sg279
I270
sg541
I532
sg120
I111
sg305
I296
sg432
I423
sg29
I20
sg141
I132
sg504
I495
sg272
I263
sg150
I141
sg270
I261
sg86
I77
sg575
I566
sg284
I275
sg192
I183
sg229
I220
sg439
I430
sg425
I416
sg208
I199
sg321
I312
sg462
I453
sg347
I338
sg258
I249
sg350
I341
sg178
I169
sg77
I68
sg334
I325
sg376
I367
sg261
I252
sg60
I51
sg449
I440
sg198
I189
sg438
I429
sg314
I305
sg259
I250
sg54
I45
sg57
I48
sg555
I546
sg345
I336
sg246
I237
sg388
I379
sg278
I269
sg492
I483
sg418
I409
sg17
I8
sg101
I92
sg402
I393
sg115
I106
sg119
I110
sg426
I417
sg234
I225
sg327
I318
sg286
I277
sg24
I15
sg80
I71
sg183
I174
sg475
I466
sg340
I331
sg487
I478
sg73
I64
sg61
I52
sg537
I528
sg476
I467
sg106
I97
sg294
I285
sg113
I104
sg195
I186
sg582
I573
sg189
I180
sg117
I108
sg514
I505
sg544
I535
sg385
I376
sg103
I94
sg166
I157
sg521
I512
sg457
I448
sg393
I384
sg36
I27
sg40
I31
sg212
I203
sg424
I415
sg81
I72
sg423
I414
sg133
I124
sg165
I156
sg490
I481
sg467
I458
sg140
I131
sg44
I35
sg395
I386
sg251
I242
sg472
I463
sg421
I412
sg554
I545
sg31
I22
sg295
I286
sg399
I390
sg122
I113
sg292
I283
sg417
I408
sg303
I294
sg437
I428
sg503
I494
sg13
I4
sg510
I501
sg466
I457
sg127
I118
sg372
I363
sg225
I216
sg88
I79
sg549
I540
sg396
I387
sg220
I211
sg357
I348
sg547
I538
sg495
I486
sg252
I243
sg474
I465
sg56
I47
sg168
I159
sg299
I290
sg116
I107
sg317
I308
sg312
I303
sg82
I73
sg551
I542
sg574
I565
sg391
I382
sg144
I135
sg23
I14
sg408
I399
sg34
I25
sg518
I509
sg42
I33
sg529
I520
sg219
I210
sg92
I83
sg188
I179
sg517
I508
sg167
I158
sg526
I517
sg341
I332
sg448
I439
sg69
I60
sg352
I343
sg74
I65
sg496
I487
sg124
I115
sg142
I133
sg10
I1
sg130
I121
sg145
I136
sg442
I433
sg443
I434
sg156
I147
sg19
I10
sg68
I59
sg481
I472
sg315
I306
sg14
I5
sg244
I235
sg78
I69
sg137
I128
sg43
I34
sg254
I245
sg214
I205
sg242
I233
sg255
I246
sg238
I229
sg535
I526
sg260
I251
sg485
I476
sg337
I328
sg313
I304
sg217
I208
sg525
I516
sg459
I450
sg174
I165
sg281
I272
sg147
I138
sg540
I531
sg479
I470
sg422
I413
sg216
I207
sg482
I473
sg398
I389
sg542
I533
sg230
I221
sg553
I544
sg274
I265
sg494
I485
sg176
I167
sg152
I143
sg240
I231
sg177
I168
sg266
I257
sg250
I241
sg451
I442
sg155
I146
sg162
I153
sg194
I185
sg452
I443
sg530
I521
sg533
I524
sg323
I314
sg53
I44
sg72
I63
sg95
I86
sg404
I395
sg445
I436
sg172
I163
sg241
I232
sg164
I155
sg493
I484
sg433
I424
sg584
I575
sg446
I437
sg205
I196
sg370
I361
sg11
I2
sg129
I120
sg276
I267
sg199
I190
sg65
I56
sg559
I550
sg403
I394
sg401
I392
sg464
I455
sg89
I80
sg390
I381
sg237
I228
sg581
I572
sg342
I333
sg543
I534
sg561
I552
sg59
I50
sg226
I217
sg149
I140
sg97
I88
sg415
I406
sg180
I171
sg249
I240
sg18
I9
sg222
I213
sg171
I162
sg444
I435
sg520
I511
sg232
I223
sg169
I160
sg377
I368
sg567
I558
sg378
I369
sg37
I28
sg419
I410
sg397
I388
sg308
I299
sg461
I452
sg297
I288
sg296
I287
sg427
I418
sg483
I474
sg221
I212
sg498
I489
sg489
I480
sg369
I360
sg215
I206
sg306
I297
sg319
I310
sg159
I150
sg349
I340
sg363
I354
sg348
I339
sg75
I66
sg384
I375
sg121
I112
sg245
I236
sg332
I323
sg191
I182
sg486
I477
sg268
I259
sg15
I6
sg579
I570
sg283
I274
sg420
I411
sg243
I234
sg450
I441
sg264
I255
sg473
I464
sg515
I506
sg248
I239
sg580
I571
sg9
I0
sg118
I109
sg63
I54
sg389
I380
sg98
I89
sg383
I374
sg148
I139
sg576
I567
sg173
I164
sg409
I400
sg49
I40
sg111
I102
sg368
I359
sg316
I307
sg39
I30
sg105
I96
sg325
I316
sg556
I547
sg304
I295
sg548
I539
sg128
I119
sg527
I518
sg256
I247
sg524
I515
sg185
I176
sg441
I432
sg223
I214
sg298
I289
sg454
I445
sg532
I523
sg411
I402
sg85
I76
sg552
I543
sg213
I204
sg585
I576
sg55
I46
sg200
I191
sg45
I36
sg32
I23
sg102
I93
sg231
I222
sg280
I271
sg187
I178
sg468
I459
sg382
I373
sg339
I330
sg190
I181
sg26
I17
sg392
I383
sg361
I352
sg558
I549
sg362
I353
sg201
I192
sg509
I500
ssS'separator'
p591
S'='
sS'sparse'
p592
I01
sb.