ccopy_reg
_reconstructor
p1
(csklearn.feature_extraction.dict_vectorizer
DictVectorizer
p2
c__builtin__
object
p3
NtRp4
(dp5
S'vocabulary_'
p6
(dp7
S'w+1=,'
p8
I49
sS'amod=al-qaida'
p9
I9
sS'w-2=no'
p10
I106
sS'w+2=that'
p11
I79
sS'nsubjpass=that'
p12
I44
sS'w-2=to'
p13
I112
sS'w+2=remove'
p14
I77
sS'w-1=al-qaida'
p15
I86
sS'w+1=attend'
p16
I55
sS'w+2=,'
p17
I66
sS'nsubj=who'
p18
I42
sS'w+1=to'
p19
I60
sS'conj=go'
p20
I21
sS'w+2=and'
p21
I69
sS'ccomp=double'
p22
I19
sS'advmod=even'
p23
I3
sS'dobj=#PRP#'
p24
I25
sS'nsubj=some'
p25
I39
sS'w-2=do'
p26
I102
sS'xcomp=attend'
p27
I116
sS'nsubj=fact'
p28
I36
sS'w-2=one'
p29
I108
sS'w+2=read'
p30
I76
sS'w+1=you'
p31
I64
sS'w+2=here'
p32
I72
sS'aux=do'
p33
I11
sS'aux=will'
p34
I13
sS'w+1=with'
p35
I63
sS'advmod=really'
p36
I7
sS'xcomp=go'
p37
I117
sS'dobj=Israelis'
p38
I28
sS'conj=smash'
p39
I22
sS'w+2=the'
p40
I80
sS'w-2=will'
p41
I113
sS'nsubj=States'
p42
I34
sS'w-2=,'
p43
I100
sS'nsubj=people'
p44
I38
sS'prep=with'
p45
I47
sS'w+1=Israelis'
p46
I53
sS'w+1=he'
p47
I56
sS'aux=have'
p48
I12
sS'advcl=ride'
p49
I0
sS'w-2=not'
p50
I107
sS'w-2=the'
p51
I111
sS'w-2=if'
p52
I104
sS'w-1=be'
p53
I87
sS'w-2=fact'
p54
I103
sS'mark=while'
p55
I29
sS'w+2=you'
p56
I84
sS'w+2=so'
p57
I78
sS'w-2=without'
p58
I114
sS'w+2=to'
p59
I81
sS'w+2=immensely'
p60
I73
sS'xcomp=investigate'
p61
I119
sS'prep=for'
p62
I45
sS'w+1=yourself'
p63
I65
sS'w+1=we'
p64
I62
sS'xcomp=remove'
p65
I121
sS'w-1=have'
p66
I89
sS'nsubj=nobody'
p67
I37
sS'w-1=this'
p68
I96
sS'w+1=try'
p69
I61
sS'tmod=chat'
p70
I48
sS'dep=well'
p71
I24
sS'xcomp=read'
p72
I120
sS'auxpass=be'
p73
I15
sS'complm=that'
p74
I20
sS'w-1=one'
p75
I93
sS'xcomp=try'
p76
I122
sS'cc=and'
p77
I16
sS'w+2=vote'
p78
I82
sS'w-1=you'
p79
I98
sS'advmod=why'
p80
I8
sS'ccomp=#PRP#'
p81
I18
sS'xcomp=vote'
p82
I123
sS'w+2=mention'
p83
I75
sS'w-2=that'
p84
I110
sS'w-2=be'
p85
I101
sS'dobj=Barghouti'
p86
I26
sS'w+1=they'
p87
I59
sS'w+2=Barghouti'
p88
I68
sS'nsubj=#NUMBER#'
p89
I31
sS'w-2=would'
p90
I115
sS'prep=in'
p91
I46
sS'aux=would'
p92
I14
sS'w-2=let'
p93
I105
sS'w+1=in'
p94
I57
sS'dep=case'
p95
I23
sS'w-1=even'
p96
I88
sS'w+1=Khaldoun'
p97
I54
sS'nsubj=Bryan'
p98
I33
sS'nsubj=#PRP#'
p99
I32
sS'advmod=out'
p100
I6
sS'w+2=go'
p101
I71
sS'xcomp=immensely'
p102
I118
sS'advcl=understand'
p103
I2
sS'advcl=shortcut'
p104
I1
sS'w-1=we'
p105
I97
sS'cc=but'
p106
I17
sS'advmod=much'
p107
I5
sS'w-1=really'
p108
I94
sS'w+1=Bernabe'
p109
I51
sS"w-2=''"
p110
I99
sS'nsubj=this'
p111
I41
sS'w+2=.'
p112
I67
sS'nsubjpass=Bush'
p113
I43
sS'w+2=for'
p114
I70
sS'neg=not'
p115
I30
sS'w+1=?'
p116
I50
sS'dobj=Bernabe'
p117
I27
sS'nsubj=that'
p118
I40
sS'w-1=it'
p119
I90
sS'nsubj=document'
p120
I35
sS'w+1=seal'
p121
I58
sS'w+1=I'
p122
I52
sS'w+2=investigate'
p123
I74
sS'advmod=here'
p124
I4
sS'w-2=scandal'
p125
I109
sS'w+2=we'
p126
I83
sS'w-1=nobody'
p127
I91
sS'w-1=not'
p128
I92
sS'w-1=that'
p129
I95
sS'aux=be'
p130
I10
sS'w-1=Bryan'
p131
I85
ssS'dtype'
p132
cnumpy
float64
p133
sS'feature_names_'
p134
(lp135
g49
ag104
ag103
ag23
ag124
ag107
ag100
ag36
ag80
ag9
ag130
ag33
ag48
ag34
ag92
ag73
ag77
ag106
ag81
ag22
ag74
ag20
ag39
ag95
ag71
ag24
ag86
ag117
ag38
ag55
ag115
ag89
ag99
ag98
ag42
ag120
ag28
ag67
ag44
ag25
ag118
ag111
ag18
ag113
ag12
ag62
ag91
ag45
ag70
ag8
ag116
ag109
ag122
ag46
ag97
ag16
ag47
ag94
ag121
ag87
ag19
ag69
ag64
ag35
ag31
ag63
ag17
ag112
ag88
ag21
ag114
ag101
ag32
ag60
ag123
ag83
ag30
ag14
ag57
ag11
ag40
ag59
ag78
ag126
ag56
ag131
ag15
ag53
ag96
ag66
ag119
ag127
ag128
ag75
ag108
ag129
ag68
ag105
ag79
ag110
ag43
ag85
ag26
ag54
ag52
ag93
ag10
ag50
ag29
ag125
ag84
ag51
ag13
ag41
ag58
ag90
ag27
ag37
ag102
ag61
ag72
ag65
ag76
ag82
asS'separator'
p136
S'='
sS'sparse'
p137
I01
sb.