ccopy_reg
_reconstructor
p1
(csklearn.feature_extraction.dict_vectorizer
DictVectorizer
p2
c__builtin__
object
p3
NtRp4
(dp5
S'vocabulary_'
p6
(dp7
S'w+1=go'
p8
I120
sS'nsubj=which'
p9
I73
sS'w-2=conservative'
p10
I239
sS'nsubjpass=filmmaker'
p11
I86
sS'w-2=government'
p12
I245
sS'advcl=have'
p13
I3
sS'w-2=intelligence'
p14
I251
sS'ccomp=head'
p15
I27
sS'advmod=clearly'
p16
I8
sS'w+1=,'
p17
I101
sS'w-2=would'
p18
I274
sS'w+2=Afghanistan'
p19
I145
sS'dobj=check'
p20
I55
sS'w+2=there'
p21
I178
sS'w+1=sit'
p22
I133
sS'w-2=person'
p23
I260
sS'w+1=.'
p24
I102
sS'w-2=people'
p25
I259
sS'nsubjpass=expert'
p26
I85
sS'nsubjpass=people'
p27
I90
sS'xcomp=car'
p28
I278
sS'w+1=all'
p29
I106
sS'w-1=to'
p30
I214
sS'conj=hope'
p31
I34
sS'w+2=Mubarak'
p32
I149
sS'w+1=have'
p33
I122
sS'advmod=generally'
p34
I10
sS'xcomp=continue'
p35
I279
sS'dep=sit'
p36
I47
sS'w+2=that'
p37
I176
sS'advmod=well'
p38
I13
sS'dobj=people'
p39
I61
sS'conj=emphasize'
p40
I32
sS'w-1=should'
p41
I210
sS'w+2=and'
p42
I153
sS'w+2=these'
p43
I179
sS'w+2=see'
p44
I172
sS'w-1=Ukraine'
p45
I196
sS'w-1=aesthetically'
p46
I198
sS'w+2=,'
p47
I143
sS'w-1=also'
p48
I199
sS'advcl=figure'
p49
I2
sS'w+2=this'
p50
I181
sS'w+2=vietnamese'
p51
I184
sS'conj=back'
p52
I30
sS'w+2=Monday'
p53
I148
sS'advcl=excite'
p54
I1
sS'w-2=which'
p55
I271
sS'w+1=no'
p56
I128
sS'xcomp=bring'
p57
I277
sS'w+2=what'
p58
I186
sS'prep=by'
p59
I96
sS'w+1=pack'
p60
I129
sS'w-2=and'
p61
I234
sS'dobj=President'
p62
I52
sS'w-1=,'
p63
I192
sS'w+1=handle'
p64
I121
sS'w+1=that'
p65
I135
sS'w+2=not'
p66
I164
sS'dobj=husband'
p67
I57
sS'w-2=do'
p68
I240
sS'dobj=opposition'
p69
I60
sS'w-2=try'
p70
I268
sS'w+2=on'
p71
I166
sS'w+1=?'
p72
I103
sS'dobj=Mubarak'
p73
I51
sS'mark=while'
p74
I64
sS'dep=so'
p75
I48
sS'w-2=she'
p76
I265
sS'aux=do'
p77
I16
sS'nsubjpass=everyone'
p78
I84
sS'w-2=he'
p79
I247
sS'aux=would'
p80
I20
sS'dep=evacuate'
p81
I43
sS'nsubjpass=Champion'
p82
I76
sS'w-1=so'
p83
I211
sS'aux=will'
p84
I19
sS'w+1=share'
p85
I131
sS'w+1=bless'
p86
I109
sS'w-2=everyone'
p87
I243
sS'w-2=say'
p88
I263
sS'w+2=palin'
p89
I169
sS'w-2=seat'
p90
I264
sS'ccomp=build'
p91
I24
sS'w+2=with'
p92
I189
sS'w+2=Nigeria'
p93
I150
sS'prep=at'
p94
I95
sS'w-1=always'
p95
I200
sS'nsubj=States'
p96
I67
sS'w-2=Keating'
p97
I225
sS'w-2=I'
p98
I224
sS'w-2=,'
p99
I218
sS'dobj=move'
p100
I59
sS'prep=with'
p101
I100
sS'parataxis=note'
p102
I92
sS'w-1=and'
p103
I201
sS'xcomp=criticize'
p104
I280
sS'w+2=military'
p105
I163
sS'w-1=.'
p106
I193
sS'conj=satisfied'
p107
I40
sS'conj=experience'
p108
I33
sS'nsubjpass=President'
p109
I79
sS'w-1=be'
p110
I202
sS'nsubjpass=audience'
p111
I83
sS'w+2=how'
p112
I160
sS'nsubjpass=supporter'
p113
I91
sS'nsubjpass=U.S.'
p114
I82
sS'w+1=continue'
p115
I113
sS'w+1=Washington'
p116
I105
sS'w+1=check'
p117
I112
sS'dobj=share'
p118
I62
sS'w-2=official'
p119
I257
sS'nsubjpass=leader'
p120
I88
sS'w+1=she'
p121
I132
sS'nsubjpass=Sharpton'
p122
I81
sS'w-2=in'
p123
I250
sS'w-2=as'
p124
I236
sS'w-2=:'
p125
I220
sS'dobj=military'
p126
I58
sS'w-2=Bush'
p127
I222
sS'advmod=totally'
p128
I12
sS'w+1=help'
p129
I123
sS'w+2=read'
p130
I171
sS'w+2=do'
p131
I155
sS'w-2=hello'
p132
I249
sS'w-1=I'
p133
I195
sS'w+2=you'
p134
I190
sS'aux=should'
p135
I17
sS'w+2=down'
p136
I156
sS'w+1=with'
p137
I141
sS'w-1=generally'
p138
I205
sS'w+1=evacuate'
p139
I116
sS'w-2=everybody'
p140
I242
sS'w+2=to'
p141
I182
sS'xcomp=handle'
p142
I282
sS'nsubj=quiet'
p143
I69
sS'w+1=stop'
p144
I134
sS'w+2=last'
p145
I162
sS'advcl=nervous'
p146
I4
sS'w-1=they'
p147
I213
sS'prep=for'
p148
I97
sS'w-2=environment'
p149
I241
sS'xcomp=do'
p150
I281
sS'w-1=`'
p151
I197
sS'w+2=help'
p152
I159
sS'w+1=at'
p153
I108
sS'prep=accord'
p154
I93
sS'w+2=something'
p155
I173
sS'w+2=talk'
p156
I175
sS"w+2=''"
p157
I142
sS'mark=as'
p158
I63
sS'w-1=he'
p159
I206
sS'w+2=why'
p160
I187
sS'w+2=IAEA'
p161
I147
sS'xcomp=involve'
p162
I284
sS'w+2=one'
p163
I167
sS'xcomp=see'
p164
I286
sS'advmod=also'
p165
I7
sS'ccomp=think'
p166
I28
sS'w-2=all'
p167
I232
sS'w+1=try'
p168
I138
sS'xcomp=read'
p169
I285
sS'w-1=totally'
p170
I215
sS'auxpass=be'
p171
I21
sS'aux=can'
p172
I15
sS'complm=that'
p173
I29
sS'advmod=that'
p174
I11
sS'w+1=people'
p175
I130
sS'w-2=filmmaker'
p176
I244
sS'w+2=they'
p177
I180
sS'dobj=Washington'
p178
I53
sS'w-2=program'
p179
I262
sS'conj=keep'
p180
I35
sS'advmod=aesthetically'
p181
I6
sS'w-2=States'
p182
I229
sS'w-2=we'
p183
I270
sS'w-1=you'
p184
I216
sS'w+2=will'
p185
I188
sS'w-2=to'
p186
I267
sS'w-2=have'
p187
I246
sS'nsubj=each'
p188
I68
sS'cc=and'
p189
I22
sS'w-1=not'
p190
I207
sS'w+1=explain'
p191
I117
sS'w+2=have'
p192
I157
sS'advcl=be'
p193
I0
sS'dep=help'
p194
I45
sS'nsubjpass=official'
p195
I89
sS'w+1=understand'
p196
I139
sS'w+1=the'
p197
I136
sS'w-1=quiet'
p198
I209
sS'w+1=by'
p199
I111
sS'dep=go'
p200
I44
sS'w+1=bring'
p201
I110
sS'w+1=include'
p202
I125
sS'w+2=be'
p203
I154
sS'aux=to'
p204
I18
sS'conj=ready'
p205
I39
sS'conj=optimistic'
p206
I38
sS'w-2=you'
p207
I275
sS'xcomp=bless'
p208
I276
sS'w-2=please'
p209
I261
sS'nsubjpass=#PRP#'
p210
I74
sS'w-2=war'
p211
I269
sS'conj=move'
p212
I37
sS'w+1=if'
p213
I124
sS'prep=in'
p214
I98
sS'nsubj=structure'
p215
I70
sS'conj=be'
p216
I31
sS'w+1=for'
p217
I118
sS'w-2=be'
p218
I237
sS'w-2=leader'
p219
I253
sS'xcomp=improve'
p220
I283
sS'w+2=President'
p221
I151
sS'nsubj=#PRP#'
p222
I66
sS'w-2=why'
p223
I272
sS'w-2=Champion'
p224
I223
sS"w-1=''"
p225
I191
sS'w-1=do'
p226
I204
sS'w-2=Sharpton'
p227
I228
sS'ccomp=forget'
p228
I26
sS'w-2=anything'
p229
I235
sS'w-2=ally'
p230
I233
sS'w-1=clearly'
p231
I203
sS'w+2=traditional'
p232
I183
sS'w+1=use'
p233
I140
sS'cc=but'
p234
I23
sS'w+2=surround'
p235
I174
sS'conj=satisfy'
p236
I41
sS'prep=on'
p237
I99
sS'w+2=the'
p238
I177
sS'w-2=meeting'
p239
I254
sS'nsubjpass=industry'
p240
I87
sS'dep=with'
p241
I49
sS'w+1=as'
p242
I107
sS'dobj=#NUMBER#'
p243
I50
sS'w+2=husband'
p244
I161
sS'w-2=can'
p245
I238
sS'w-2=affect'
p246
I231
sS'w-2=will'
p247
I273
sS'w-2=or'
p248
I258
sS'w-1=that'
p249
I212
sS'w-2=tell'
p250
I266
sS"w-2=''"
p251
I217
sS'w-2=President'
p252
I226
sS'nsubj=this'
p253
I71
sS'dobj=government'
p254
I56
sS'prep=as'
p255
I94
sS'w+2=of'
p256
I165
sS'w+1=move'
p257
I127
sS'w+2=.'
p258
I144
sS'w-2=hell'
p259
I248
sS'nsubjpass=Bush'
p260
I75
sS'w+1=lend'
p261
I126
sS'w+1=to'
p262
I137
sS'w+2=opposition'
p263
I168
sS'nsubjpass=Pelosi'
p264
I78
sS'neg=not'
p265
I65
sS'advcl=raise'
p266
I5
sS'w-2=Afghanistan'
p267
I221
sS'w-2=not'
p268
I256
sS'dep=please'
p269
I46
sS'w+2=he'
p270
I158
sS'conj=worry'
p271
I42
sS'w+1=do'
p272
I115
sS'w-2=it'
p273
I252
sS'w-2=.'
p274
I219
sS'w+2=please'
p275
I170
sS'w+1=Mr.'
p276
I104
sS'w+2=I'
p277
I146
sS'ccomp=come'
p278
I25
sS'w+2=ahead'
p279
I152
sS'w-1=on'
p280
I208
sS'w+2=we'
p281
I185
sS'w-2=U.S.'
p282
I230
sS'dobj=all'
p283
I54
sS'nsubj=tie'
p284
I72
sS'w-2=move'
p285
I255
sS'nsubjpass=Ryan'
p286
I80
sS'w+1=criticize'
p287
I114
sS'conj=know'
p288
I36
sS'w+1=forget'
p289
I119
sS'w-2=Ryan'
p290
I227
sS'nsubjpass=Keating'
p291
I77
sS'w-1=?'
p292
I194
sS'aux=be'
p293
I14
sS'advmod=far'
p294
I9
ssS'dtype'
p295
cnumpy
float64
p296
sS'feature_names_'
p297
(lp298
g193
ag54
ag49
ag13
ag146
ag266
ag181
ag165
ag16
ag294
ag34
ag174
ag128
ag38
ag293
ag172
ag77
ag135
ag204
ag84
ag80
ag171
ag189
ag234
ag91
ag278
ag228
ag15
ag166
ag173
ag52
ag216
ag40
ag108
ag31
ag180
ag288
ag212
ag206
ag205
ag107
ag236
ag271
ag81
ag200
ag194
ag269
ag36
ag75
ag241
ag243
ag73
ag62
ag178
ag283
ag20
ag254
ag67
ag126
ag100
ag69
ag39
ag118
ag158
ag74
ag265
ag222
ag96
ag188
ag143
ag215
ag253
ag284
ag9
ag210
ag260
ag82
ag291
ag264
ag109
ag286
ag122
ag114
ag111
ag78
ag26
ag11
ag240
ag120
ag195
ag27
ag113
ag102
ag154
ag255
ag94
ag59
ag148
ag214
ag237
ag101
ag17
ag24
ag72
ag276
ag116
ag29
ag242
ag153
ag86
ag201
ag199
ag117
ag115
ag287
ag272
ag139
ag191
ag217
ag289
ag8
ag64
ag33
ag129
ag213
ag202
ag261
ag257
ag56
ag60
ag175
ag85
ag121
ag22
ag144
ag65
ag197
ag262
ag168
ag196
ag233
ag137
ag157
ag47
ag258
ag19
ag277
ag161
ag53
ag32
ag93
ag221
ag279
ag42
ag203
ag131
ag136
ag192
ag270
ag152
ag112
ag244
ag145
ag105
ag66
ag256
ag71
ag163
ag263
ag89
ag275
ag130
ag44
ag155
ag235
ag156
ag37
ag238
ag21
ag43
ag177
ag50
ag141
ag232
ag51
ag281
ag58
ag160
ag185
ag92
ag134
ag225
ag63
ag106
ag292
ag133
ag45
ag151
ag46
ag48
ag95
ag103
ag110
ag231
ag226
ag138
ag159
ag190
ag280
ag198
ag41
ag83
ag249
ag147
ag30
ag170
ag184
ag251
ag99
ag274
ag125
ag267
ag127
ag224
ag98
ag97
ag252
ag290
ag227
ag182
ag282
ag246
ag167
ag230
ag61
ag229
ag124
ag218
ag245
ag10
ag68
ag149
ag140
ag87
ag176
ag12
ag187
ag79
ag259
ag132
ag123
ag14
ag273
ag219
ag239
ag285
ag268
ag119
ag248
ag25
ag23
ag209
ag179
ag88
ag90
ag76
ag250
ag186
ag70
ag211
ag183
ag55
ag223
ag247
ag18
ag207
ag208
ag57
ag28
ag35
ag104
ag150
ag142
ag220
ag162
ag169
ag164
asS'separator'
p299
S'='
sS'sparse'
p300
I01
sb.