ccopy_reg
_reconstructor
p1
(csklearn.feature_extraction.dict_vectorizer
DictVectorizer
p2
c__builtin__
object
p3
NtRp4
(dp5
S'sort'
p6
I01
sS'feature_names_'
p7
(lp8
S'advcl=go'
p9
aS'advcl=increase'
p10
aS'advcl=meet'
p11
aS'advcl=report'
p12
aS'advcl=see'
p13
aS'advcl=struggle'
p14
aS'advcl=unveil'
p15
aS'advcl=visit'
p16
aS'advmod=actually'
p17
aS'advmod=ago'
p18
aS'advmod=all'
p19
aS'advmod=also'
p20
aS'advmod=ever'
p21
aS'advmod=just'
p22
aS'advmod=now'
p23
aS'advmod=only'
p24
aS'advmod=perhaps'
p25
aS'advmod=personally'
p26
aS'advmod=probably'
p27
aS'advmod=that'
p28
aS'advmod=there'
p29
aS'advmod=unfortunately'
p30
aS'advmod=when'
p31
aS'advmod=where'
p32
aS'amod=american'
p33
aS'amod=false'
p34
aS'amod=first'
p35
aS'amod=independent'
p36
aS'amod=iraqi'
p37
aS'amod=key'
p38
aS'amod=local'
p39
aS'amod=many'
p40
aS'amod=non-government'
p41
aS'amod=numerous'
p42
aS'amod=other'
p43
aS'amod=potential'
p44
aS'amod=relevant'
p45
aS'amod=several'
p46
aS'amod=various'
p47
aS'appos=Abou'
p48
aS'appos=Blatt'
p49
aS'appos=failure'
p50
aS'appos=first-hand'
p51
aS'aux=be'
p52
aS'aux=have'
p53
aS'aux=to'
p54
aS'aux=will'
p55
aS'auxpass=be'
p56
aS'cc=and'
p57
aS'cc=but'
p58
aS'cc=not'
p59
aS'ccomp=dead'
p60
aS'ccomp=explode'
p61
aS'ccomp=go'
p62
aS'ccomp=overthrow'
p63
aS'ccomp=sign'
p64
aS'ccomp=witness'
p65
aS'complm=that'
p66
aS'conj=barrel'
p67
aS'conj=believe'
p68
aS'conj=bring'
p69
aS'conj=carry'
p70
aS'conj=exhibit'
p71
aS'conj=fight'
p72
aS'conj=half'
p73
aS'conj=judge'
p74
aS'conj=leader'
p75
aS'conj=live'
p76
aS'conj=official'
p77
aS'conj=run'
p78
aS'conj=say'
p79
aS'conj=see'
p80
aS'conj=someone'
p81
aS'cop=be'
p82
aS'csubj=neighbor'
p83
aS'dep=#PRP#'
p84
aS'dep=child'
p85
aS'dep=city'
p86
aS'dep=describe'
p87
aS'dep=diamond'
p88
aS'dep=execution'
p89
aS'dep=launch'
p90
aS'dep=see'
p91
aS'dep=still'
p92
aS'dep=violence'
p93
aS'dep=what'
p94
aS'det=a'
p95
aS'det=all'
p96
aS'det=any'
p97
aS'det=no'
p98
aS'det=some'
p99
aS'det=the'
p100
aS'det=this'
p101
aS'det=those'
p102
aS'dobj=#PRP#'
p103
aS'dobj=a'
p104
aS'dobj=action'
p105
aS'dobj=attack'
p106
aS'dobj=beginning'
p107
aS'dobj=bombing'
p108
aS'dobj=box'
p109
aS'dobj=bullet'
p110
aS'dobj=change'
p111
aS'dobj=clash'
p112
aS'dobj=conflict'
p113
aS'dobj=crisis'
p114
aS'dobj=crown'
p115
aS"dobj=d'etat"
p116
aS'dobj=de-escalation'
p117
aS'dobj=degradation'
p118
aS'dobj=degree'
p119
aS'dobj=demonstration'
p120
aS'dobj=drop'
p121
aS'dobj=effort'
p122
aS'dobj=event'
p123
aS'dobj=exchange'
p124
aS'dobj=execution'
p125
aS'dobj=factor'
p126
aS'dobj=flooding'
p127
aS'dobj=formation'
p128
aS'dobj=group'
p129
aS'dobj=growth'
p130
aS'dobj=impact'
p131
aS'dobj=increase'
p132
aS'dobj=kind'
p133
aS'dobj=landscape'
p134
aS'dobj=many'
p135
aS'dobj=massacre'
p136
aS'dobj=member'
p137
aS'dobj=movement'
p138
aS'dobj=plethora'
p139
aS'dobj=plummet'
p140
aS'dobj=protest'
p141
aS'dobj=re-birth'
p142
aS'dobj=rise'
p143
aS'dobj=sense'
p144
aS'dobj=shooting'
p145
aS'dobj=signing'
p146
aS'dobj=strike'
p147
aS'dobj=that'
p148
aS'dobj=thing'
p149
aS'dobj=time'
p150
aS'dobj=transformation'
p151
aS'dobj=turnout'
p152
aS'dobj=twist'
p153
aS'dobj=unrest'
p154
aS'dobj=upsurge'
p155
aS'dobj=violence'
p156
aS'dobj=wave'
p157
aS'dobj=what'
p158
aS'dobj=worst'
p159
aS'mark=as'
p160
aS'mark=because'
p161
aS'neg=not'
p162
aS'nn=Eye'
p163
aS'nn=Ugwu'
p164
aS'nn=administration'
p165
aS'nn=court'
p166
aS'nn=defense'
p167
aS'nn=document'
p168
aS'nn=expert'
p169
aS'nn=interview'
p170
aS'nn=observer'
p171
aS'nn=survivor'
p172
aS'nsubj=#NUMBER#'
p173
aS'nsubj=#PRP#'
p174
aS'nsubj=Africa'
p175
aS'nsubj=Colombo'
p176
aS'nsubj=Iraqis'
p177
aS'nsubj=Istanbul'
p178
aS'nsubj=Jhagra'
p179
aS'nsubj=Mumbai'
p180
aS'nsubj=Russians'
p181
aS'nsubj=Saleh'
p182
aS'nsubj=Somalia'
p183
aS'nsubj=Zimbabwe'
p184
aS'nsubj=al-Faroon'
p185
aS'nsubj=art'
p186
aS'nsubj=country'
p187
aS'nsubj=daughter'
p188
aS'nsubj=election'
p189
aS'nsubj=ever'
p190
aS'nsubj=leader'
p191
aS'nsubj=many'
p192
aS'nsubj=manyfear'
p193
aS'nsubj=observer'
p194
aS'nsubj=presence'
p195
aS'nsubj=public'
p196
aS'nsubj=recurrence'
p197
aS'nsubj=region'
p198
aS'nsubj=sector'
p199
aS'nsubj=state'
p200
aS'nsubj=that'
p201
aS'nsubj=thing'
p202
aS'nsubj=visitor'
p203
aS'nsubj=vote'
p204
aS'nsubj=which'
p205
aS'nsubj=who'
p206
aS'nsubj=wife'
p207
aS'nsubj=word'
p208
aS'nsubjpass=protest'
p209
aS'num=#NUMBER#'
p210
aS'partmod=appear'
p211
aS'partmod=line'
p212
aS'partmod=taunt'
p213
aS'poss=#PRP#'
p214
aS'poss=Cholmondeley'
p215
aS'prep=against'
p216
aS'prep=as'
p217
aS'prep=at'
p218
aS'prep=because'
p219
aS'prep=before'
p220
aS'prep=by'
p221
aS'prep=during'
p222
aS'prep=for'
p223
aS'prep=from'
p224
aS'prep=in'
p225
aS'prep=include'
p226
aS'prep=like'
p227
aS'prep=of'
p228
aS'prep=on'
p229
aS'prep=outside'
p230
aS'prep=over'
p231
aS'prep=since'
p232
aS'prep=through'
p233
aS'prep=to'
p234
aS'prep=while'
p235
aS'prep=without'
p236
aS'rcmod=argue'
p237
aS'rcmod=begin'
p238
aS'rcmod=call'
p239
aS'rcmod=create'
p240
aS'rcmod=engage'
p241
aS'tmod=act'
p242
aS'tmod=era'
p243
aS'tmod=everyday'
p244
aS'tmod=morning'
p245
aS'tmod=today'
p246
aS'tmod=year'
p247
aS'w+1=,'
p248
aS'w+1=-'
p249
aS'w+1=.'
p250
aS'w+1=a'
p251
aS'w+1=account'
p252
aS'w+1=again'
p253
aS'w+1=against'
p254
aS'w+1=al-qaida'
p255
aS'w+1=allege'
p256
aS'w+1=and'
p257
aS'w+1=appear'
p258
aS'w+1=as'
p259
aS'w+1=at'
p260
aS'w+1=ballot'
p261
aS'w+1=be'
p262
aS'w+1=boom'
p263
aS'w+1=by'
p264
aS'w+1=claim'
p265
aS'w+1=clash'
p266
aS'w+1=confirm'
p267
aS'w+1=could'
p268
aS'w+1=describe'
p269
aS'w+1=do'
p270
aS'w+1=drop'
p271
aS'w+1=early'
p272
aS'w+1=everyday'
p273
aS'w+1=explosive'
p274
aS'w+1=extreme'
p275
aS'w+1=feel'
p276
aS'w+1=five'
p277
aS'w+1=for'
p278
aS'w+1=from'
p279
aS'w+1=genocide'
p280
aS'w+1=have'
p281
aS'w+1=hear'
p282
aS'w+1=huge'
p283
aS'w+1=in'
p284
aS'w+1=it'
p285
aS'w+1=last'
p286
aS'w+1=line'
p287
aS'w+1=many'
p288
aS'w+1=mass'
p289
aS'w+1=massive'
p290
aS'w+1=must'
p291
aS'w+1=nearly'
p292
aS'w+1=numerous'
p293
aS'w+1=of'
p294
aS'w+1=on'
p295
aS'w+1=or'
p296
aS'w+1=over'
p297
aS'w+1=overt'
p298
aS'w+1=paint'
p299
aS'w+1=plummet'
p300
aS'w+1=prepare'
p301
aS'w+1=protection'
p302
aS'w+1=receive'
p303
aS'w+1=relate'
p304
aS'w+1=report'
p305
aS'w+1=retire'
p306
aS'w+1=say'
p307
aS'w+1=see'
p308
aS'w+1=similar'
p309
aS'w+1=since'
p310
aS'w+1=some'
p311
aS'w+1=sporadic'
p312
aS'w+1=such'
p313
aS'w+1=table'
p314
aS'w+1=take'
p315
aS'w+1=taunt'
p316
aS'w+1=tell'
p317
aS'w+1=terror'
p318
aS'w+1=testify'
p319
aS'w+1=testimony'
p320
aS'w+1=that'
p321
aS'w+1=the'
p322
aS'w+1=there'
p323
aS'w+1=these'
p324
aS'w+1=they'
p325
aS'w+1=this'
p326
aS'w+1=through'
p327
aS'w+1=to'
p328
aS'w+1=today'
p329
aS'w+1=two'
p330
aS'w+1=unrest'
p331
aS'w+1=unspeakable'
p332
aS'w+1=very'
p333
aS'w+1=violence'
p334
aS'w+1=violent'
p335
aS'w+1=what'
p336
aS'w+1=when'
p337
aS'w+1=while'
p338
aS'w+1=will'
p339
aS"w+2=''"
p340
aS'w+2=,'
p341
aS'w+2=-lrb-'
p342
aS'w+2=.'
p343
aS'w+2=1947'
p344
aS'w+2=2000'
p345
aS'w+2=5,000'
p346
aS'w+2=Aung'
p347
aS'w+2=Deputy'
p348
aS'w+2=Diouma'
p349
aS'w+2=FBI'
p350
aS'w+2=Friday'
p351
aS'w+2=January'
p352
aS'w+2=Kashmir'
p353
aS'w+2=Mogadishu'
p354
aS'w+2=President'
p355
aS'w+2=Rajasthan'
p356
aS'w+2=Rangoon'
p357
aS'w+2=Saddam'
p358
aS'w+2=Saturday'
p359
aS'w+2=Shabab'
p360
aS'w+2=Syria'
p361
aS'w+2=Thursday'
p362
aS'w+2=Toumba'
p363
aS'w+2=Tuesday'
p364
aS'w+2=U.N.'
p365
aS'w+2=Wednesday'
p366
aS'w+2=Yoduk'
p367
aS'w+2=a'
p368
aS'w+2=about'
p369
aS'w+2=action'
p370
aS'w+2=al-qaida'
p371
aS'w+2=and'
p372
aS'w+2=area'
p373
aS'w+2=artillery'
p374
aS'w+2=as'
p375
aS'w+2=at'
p376
aS'w+2=authority'
p377
aS'w+2=be'
p378
aS'w+2=before'
p379
aS'w+2=beginning'
p380
aS'w+2=between'
p381
aS'w+2=blackwater'
p382
aS'w+2=bomb'
p383
aS'w+2=bombing'
p384
aS'w+2=both'
p385
aS'w+2=box'
p386
aS'w+2=break'
p387
aS'w+2=bullet'
p388
aS'w+2=camp'
p389
aS'w+2=can'
p390
aS'w+2=car'
p391
aS'w+2=change'
p392
aS'w+2=child'
p393
aS'w+2=clash'
p394
aS'w+2=commit'
p395
aS'w+2=confirm'
p396
aS'w+2=congolese'
p397
aS'w+2=consecration'
p398
aS'w+2=crown'
p399
aS'w+2=de'
p400
aS'w+2=de-escalation'
p401
aS'w+2=degree'
p402
aS'w+2=delay'
p403
aS'w+2=divided'
p404
aS'w+2=dramatic'
p405
aS'w+2=during'
p406
aS'w+2=effort'
p407
aS'w+2=eight'
p408
aS'w+2=either'
p409
aS'w+2=employment'
p410
aS'w+2=ethiopian'
p411
aS'w+2=event'
p412
aS'w+2=everyone'
p413
aS'w+2=execution'
p414
aS'w+2=factor'
p415
aS'w+2=failure'
p416
aS'w+2=first-hand'
p417
aS'w+2=fld'
p418
aS'w+2=flooding'
p419
aS'w+2=formation'
p420
aS'w+2=go'
p421
aS'w+2=government'
p422
aS'w+2=group'
p423
aS'w+2=grow'
p424
aS'w+2=growth'
p425
aS'w+2=gunfire'
p426
aS'w+2=he'
p427
aS'w+2=hear'
p428
aS'w+2=help'
p429
aS'w+2=himself'
p430
aS'w+2=history'
p431
aS'w+2=hope'
p432
aS'w+2=hopeful'
p433
aS'w+2=hundred'
p434
aS'w+2=identify'
p435
aS'w+2=impact'
p436
aS'w+2=important'
p437
aS'w+2=in'
p438
aS'w+2=include'
p439
aS'w+2=it'
p440
aS'w+2=its'
p441
aS'w+2=join'
p442
aS'w+2=juror'
p443
aS'w+2=kind'
p444
aS'w+2=last'
p445
aS'w+2=launch'
p446
aS'w+2=likely'
p447
aS'w+2=low'
p448
aS'w+2=major'
p449
aS'w+2=many'
p450
aS'w+2=massacre'
p451
aS'w+2=member'
p452
aS'w+2=mortar'
p453
aS'w+2=most'
p454
aS'w+2=must'
p455
aS'w+2=my'
p456
aS'w+2=new'
p457
aS'w+2=not'
p458
aS'w+2=of'
p459
aS'w+2=offer'
p460
aS'w+2=on-line'
p461
aS'w+2=opposition'
p462
aS'w+2=other'
p463
aS'w+2=overthrow'
p464
aS'w+2=people'
p465
aS'w+2=plethora'
p466
aS'w+2=police'
p467
aS'w+2=present'
p468
aS'w+2=program'
p469
aS'w+2=prosecute'
p470
aS'w+2=protective'
p471
aS'w+2=protest'
p472
aS'w+2=protracted'
p473
aS'w+2=public'
p474
aS'w+2=put'
p475
aS'w+2=rapidly'
p476
aS'w+2=re-birth'
p477
aS'w+2=recent'
p478
aS'w+2=recurrence'
p479
aS'w+2=relative'
p480
aS'w+2=reporter'
p481
aS'w+2=rescuer'
p482
aS'w+2=rioter'
p483
aS'w+2=rise'
p484
aS'w+2=rocket'
p485
aS'w+2=say'
p486
aS'w+2=security'
p487
aS'w+2=see'
p488
aS'w+2=serb'
p489
aS'w+2=several'
p490
aS'w+2=severe'
p491
aS'w+2=sharp'
p492
aS'w+2=shooting'
p493
aS'w+2=signing'
p494
aS'w+2=similar'
p495
aS'w+2=soldier'
p496
aS'w+2=somali'
p497
aS'w+2=some'
p498
aS'w+2=still'
p499
aS'w+2=strike'
p500
aS'w+2=subsequent'
p501
aS'w+2=summarily'
p502
aS'w+2=take'
p503
aS'w+2=tell'
p504
aS'w+2=testify'
p505
aS'w+2=that'
p506
aS'w+2=the'
p507
aS'w+2=they'
p508
aS'w+2=this'
p509
aS'w+2=three'
p510
aS'w+2=time'
p511
aS'w+2=to'
p512
aS'w+2=trade'
p513
aS'w+2=twist'
p514
aS'w+2=u.s.-backed'
p515
aS'w+2=unsafe'
p516
aS'w+2=up'
p517
aS'w+2=verify'
p518
aS'w+2=violence'
p519
aS'w+2=visit'
p520
aS'w+2=wave'
p521
aS'w+2=we'
p522
aS'w+2=what'
p523
aS'w+2=when'
p524
aS'w+2=which'
p525
aS'w+2=with'
p526
aS'w+2=world'
p527
aS'w+2=worst'
p528
aS'w+2=year'
p529
aS"w-1=''"
p530
aS"w-1='s"
p531
aS'w-1=,'
p532
aS'w-1=.'
p533
aS'w-1=140'
p534
aS'w-1=144'
p535
aS'w-1=300'
p536
aS'w-1=76'
p537
aS'w-1=Eye'
p538
aS'w-1=I'
p539
aS'w-1=Jhagra'
p540
aS'w-1=Saleh'
p541
aS'w-1=Ugwu'
p542
aS'w-1=a'
p543
aS'w-1=actually'
p544
aS'w-1=administration'
p545
aS'w-1=after'
p546
aS'w-1=all'
p547
aS'w-1=also'
p548
aS'w-1=american'
p549
aS'w-1=among'
p550
aS'w-1=and'
p551
aS'w-1=any'
p552
aS'w-1=as'
p553
aS'w-1=be'
p554
aS'w-1=bear'
p555
aS'w-1=both'
p556
aS'w-1=but'
p557
aS'w-1=by'
p558
aS'w-1=call'
p559
aS'w-1=court'
p560
aS'w-1=defense'
p561
aS'w-1=document'
p562
aS'w-1=election'
p563
aS'w-1=enter'
p564
aS'w-1=ever'
p565
aS'w-1=expert'
p566
aS'w-1=false'
p567
aS'w-1=first'
p568
aS'w-1=for'
p569
aS'w-1=from'
p570
aS'w-1=get'
p571
aS'w-1=growth'
p572
aS'w-1=have'
p573
aS'w-1=he'
p574
aS'w-1=hear'
p575
aS'w-1=hundred'
p576
aS'w-1=in'
p577
aS'w-1=independent'
p578
aS'w-1=interview'
p579
aS'w-1=iraqi'
p580
aS'w-1=just'
p581
aS'w-1=key'
p582
aS'w-1=leader'
p583
aS'w-1=local'
p584
aS'w-1=many'
p585
aS'w-1=non-government'
p586
aS'w-1=not'
p587
aS'w-1=now'
p588
aS'w-1=numerous'
p589
aS'w-1=observer'
p590
aS'w-1=of'
p591
aS'w-1=on'
p592
aS'w-1=one'
p593
aS'w-1=only'
p594
aS'w-1=or'
p595
aS'w-1=other'
p596
aS'w-1=people'
p597
aS'w-1=percent'
p598
aS'w-1=personally'
p599
aS'w-1=potential'
p600
aS'w-1=prosecution'
p601
aS'w-1=relevant'
p602
aS'w-1=say'
p603
aS'w-1=several'
p604
aS'w-1=she'
p605
aS'w-1=strengthen'
p606
aS'w-1=that'
p607
aS'w-1=the'
p608
aS'w-1=they'
p609
aS'w-1=this'
p610
aS'w-1=those'
p611
aS'w-1=though'
p612
aS'w-1=time'
p613
aS'w-1=to'
p614
aS'w-1=true'
p615
aS'w-1=university'
p616
aS'w-1=various'
p617
aS'w-1=violence'
p618
aS'w-1=we'
p619
aS'w-1=where'
p620
aS'w-1=who'
p621
aS'w-1=will'
p622
aS'w-1=worst'
p623
aS"w-2=''"
p624
aS"w-2='s"
p625
aS'w-2=,'
p626
aS'w-2=-'
p627
aS'w-2=.'
p628
aS'w-2=100'
p629
aS'w-2=Abdullah'
p630
aS'w-2=Africa'
p631
aS'w-2=Africans'
p632
aS'w-2=Albert'
p633
aS'w-2=Basra'
p634
aS'w-2=Bush'
p635
aS'w-2=Center'
p636
aS'w-2=Cholmondeley'
p637
aS'w-2=Colombo'
p638
aS'w-2=Darfur'
p639
aS'w-2=Friday'
p640
aS'w-2=I'
p641
aS'w-2=India'
p642
aS'w-2=Iraq'
p643
aS'w-2=Iraqis'
p644
aS'w-2=Istanbul'
p645
aS'w-2=Jamrud'
p646
aS'w-2=Japan'
p647
aS'w-2=Karachi'
p648
aS'w-2=Kenya'
p649
aS'w-2=Lanka'
p650
aS'w-2=Monday'
p651
aS'w-2=Mumbai'
p652
aS'w-2=Party'
p653
aS'w-2=Rangoon'
p654
aS'w-2=Rwanda'
p655
aS'w-2=Somalia'
p656
aS'w-2=Sudan'
p657
aS'w-2=Sunday'
p658
aS'w-2=Wednesday'
p659
aS'w-2=Zafar'
p660
aS'w-2=Zimbabwe'
p661
aS'w-2=a'
p662
aS'w-2=ablaze'
p663
aS'w-2=abuse'
p664
aS'w-2=accident'
p665
aS'w-2=accord'
p666
aS'w-2=account'
p667
aS'w-2=accuse'
p668
aS'w-2=ago'
p669
aS'w-2=all'
p670
aS'w-2=allow'
p671
aS'w-2=altitude'
p672
aS'w-2=and'
p673
aS'w-2=art'
p674
aS'w-2=as'
p675
aS'w-2=at'
p676
aS'w-2=atmosphere'
p677
aS'w-2=attack'
p678
aS'w-2=authority'
p679
aS'w-2=ballot'
p680
aS'w-2=be'
p681
aS'w-2=building'
p682
aS'w-2=but'
p683
aS'w-2=by'
p684
aS'w-2=call'
p685
aS'w-2=can'
p686
aS'w-2=child'
p687
aS'w-2=civilian'
p688
aS'w-2=constitution'
p689
aS'w-2=continue'
p690
aS'w-2=country'
p691
aS'w-2=courthouse'
p692
aS'w-2=crackdown'
p693
aS'w-2=custody'
p694
aS'w-2=daughter'
p695
aS'w-2=demonstration'
p696
aS'w-2=demonstrator'
p697
aS'w-2=destroy'
p698
aS'w-2=detainee'
p699
aS'w-2=devastation'
p700
aS'w-2=direction'
p701
aS'w-2=disaster'
p702
aS'w-2=district'
p703
aS'w-2=document'
p704
aS'w-2=downside'
p705
aS'w-2=economic'
p706
aS'w-2=even'
p707
aS'w-2=evidence'
p708
aS'w-2=explode'
p709
aS'w-2=explosion'
p710
aS'w-2=first'
p711
aS'w-2=for'
p712
aS'w-2=from'
p713
aS'w-2=gallows'
p714
aS'w-2=hand'
p715
aS'w-2=have'
p716
aS'w-2=he'
p717
aS'w-2=heavily'
p718
aS'w-2=high'
p719
aS'w-2=holiday'
p720
aS'w-2=home'
p721
aS'w-2=horror'
p722
aS'w-2=hour'
p723
aS'w-2=house'
p724
aS'w-2=however'
p725
aS'w-2=identity'
p726
aS'w-2=inconsistency'
p727
aS'w-2=information'
p728
aS'w-2=integration'
p729
aS'w-2=interpreter'
p730
aS'w-2=intersection'
p731
aS'w-2=investigator'
p732
aS'w-2=issue'
p733
aS'w-2=it'
p734
aS'w-2=journalist'
p735
aS'w-2=just'
p736
aS'w-2=kill'
p737
aS'w-2=know'
p738
aS'w-2=leave'
p739
aS'w-2=level'
p740
aS'w-2=life'
p741
aS'w-2=local'
p742
aS'w-2=loudspeaker'
p743
aS'w-2=man'
p744
aS'w-2=many'
p745
aS'w-2=moment'
p746
aS'w-2=mosque'
p747
aS'w-2=motive'
p748
aS'w-2=must'
p749
aS'w-2=network'
p750
aS'w-2=nine'
p751
aS'w-2=no'
p752
aS'w-2=north'
p753
aS'w-2=number'
p754
aS'w-2=of'
p755
aS'w-2=off'
p756
aS'w-2=official'
p757
aS'w-2=on'
p758
aS'w-2=one'
p759
aS'w-2=palace'
p760
aS'w-2=past'
p761
aS'w-2=people'
p762
aS'w-2=pigeon'
p763
aS'w-2=pilgrim'
p764
aS'w-2=police'
p765
aS'w-2=probably'
p766
aS'w-2=protection'
p767
aS'w-2=protest'
p768
aS'w-2=quote'
p769
aS'w-2=raid'
p770
aS'w-2=rally'
p771
aS'w-2=region'
p772
aS'w-2=researcher'
p773
aS'w-2=road'
p774
aS'w-2=safety'
p775
aS'w-2=say'
p776
aS'w-2=scene'
p777
aS'w-2=search'
p778
aS'w-2=sector'
p779
aS'w-2=sexual'
p780
aS'w-2=she'
p781
aS'w-2=some'
p782
aS'w-2=state'
p783
aS'w-2=stem'
p784
aS'w-2=stop'
p785
aS'w-2=street'
p786
aS'w-2=sunroof'
p787
aS'w-2=sure'
p788
aS'w-2=survivor'
p789
aS'w-2=television'
p790
aS'w-2=testify'
p791
aS'w-2=that'
p792
aS'w-2=the'
p793
aS'w-2=then'
p794
aS'w-2=they'
p795
aS'w-2=time'
p796
aS'w-2=to'
p797
aS'w-2=today'
p798
aS'w-2=two'
p799
aS'w-2=vaccine'
p800
aS'w-2=victim'
p801
aS'w-2=visitor'
p802
aS'w-2=vote'
p803
aS'w-2=we'
p804
aS'w-2=what'
p805
aS'w-2=when'
p806
aS'w-2=where'
p807
aS'w-2=which'
p808
aS'w-2=who'
p809
aS'w-2=wife'
p810
aS'w-2=will'
p811
aS'w-2=with'
p812
aS'w-2=withhold'
p813
aS'w-2=year'
p814
aS'xcomp=target'
p815
aS'xcomp=unite'
p816
asS'dtype'
p817
cnumpy
float64
p818
sS'vocabulary_'
p819
(dp820
g220
I211
sg496
I487
sg674
I665
sg98
I89
sg804
I795
sg411
I402
sg762
I753
sg537
I528
sg406
I397
sg456
I447
sg748
I739
sg724
I715
sg381
I372
sg472
I463
sg471
I462
sg236
I227
sg105
I96
sg638
I629
sg110
I101
sg686
I677
sg65
I56
sg348
I339
sg765
I756
sg736
I727
sg302
I293
sg389
I380
sg96
I87
sg795
I786
sg221
I212
sg178
I169
sg192
I183
sg418
I409
sg581
I572
sg176
I167
sg483
I474
sg461
I452
sg321
I312
sg207
I198
sg48
I39
sg11
I2
sg258
I249
sg154
I145
sg633
I624
sg603
I594
sg661
I652
sg293
I284
sg234
I225
sg757
I748
sg50
I41
sg212
I203
sg618
I609
sg131
I122
sg289
I280
sg478
I469
sg324
I315
sg713
I704
sg22
I13
sg490
I481
sg247
I238
sg59
I50
sg622
I613
sg204
I195
sg152
I143
sg645
I636
sg316
I307
sg558
I549
sg554
I545
sg476
I467
sg115
I106
sg567
I558
sg601
I592
sg793
I784
sg491
I482
sg796
I787
sg191
I182
sg807
I798
sg39
I30
sg435
I426
sg161
I152
sg149
I140
sg809
I800
sg798
I789
sg697
I688
sg245
I236
sg512
I503
sg295
I286
sg745
I736
sg445
I436
sg492
I483
sg640
I631
sg455
I446
sg296
I287
sg139
I130
sg566
I557
sg777
I768
sg575
I566
sg631
I622
sg573
I564
sg653
I644
sg211
I202
sg342
I333
sg408
I399
sg438
I429
sg62
I53
sg523
I514
sg440
I431
sg353
I344
sg670
I661
sg788
I779
sg311
I302
sg735
I726
sg138
I129
sg534
I525
sg548
I539
sg535
I526
sg66
I57
sg399
I390
sg116
I107
sg203
I194
sg616
I607
sg91
I82
sg409
I400
sg527
I518
sg241
I232
sg277
I268
sg317
I308
sg355
I346
sg320
I311
sg370
I361
sg446
I437
sg594
I585
sg576
I567
sg412
I403
sg792
I783
sg41
I32
sg620
I611
sg87
I78
sg503
I494
sg410
I401
sg712
I703
sg378
I369
sg787
I778
sg360
I351
sg785
I776
sg151
I142
sg774
I765
sg732
I723
sg422
I413
sg754
I745
sg225
I216
sg278
I269
sg760
I751
sg499
I490
sg61
I52
sg598
I589
sg127
I118
sg814
I805
sg197
I188
sg570
I561
sg199
I190
sg194
I185
sg773
I764
sg146
I137
sg780
I771
sg18
I9
sg473
I464
sg764
I755
sg753
I744
sg666
I657
sg549
I540
sg164
I155
sg502
I493
sg332
I323
sg652
I643
sg78
I69
sg27
I18
sg195
I186
sg650
I641
sg301
I292
sg460
I451
sg257
I248
sg201
I192
sg315
I306
sg367
I358
sg513
I504
sg106
I97
sg136
I127
sg101
I92
sg794
I785
sg38
I29
sg522
I513
sg746
I737
sg677
I668
sg303
I294
sg608
I599
sg437
I428
sg800
I791
sg144
I135
sg604
I595
sg720
I711
sg655
I646
sg656
I647
sg469
I460
sg447
I438
sg35
I26
sg244
I235
sg458
I449
sg702
I693
sg32
I23
sg123
I114
sg448
I439
sg779
I770
sg750
I741
sg524
I515
sg521
I512
sg466
I457
sg585
I576
sg636
I627
sg417
I408
sg237
I228
sg281
I272
sg649
I640
sg100
I91
sg13
I4
sg333
I324
sg741
I732
sg669
I660
sg495
I486
sg344
I335
sg226
I217
sg85
I76
sg238
I229
sg488
I479
sg345
I336
sg206
I197
sg190
I181
sg789
I780
sg755
I746
sg691
I682
sg758
I749
sg614
I605
sg485
I476
sg568
I559
sg401
I392
sg140
I131
sg783
I774
sg129
I120
sg103
I94
sg726
I717
sg155
I146
sg386
I377
sg582
I573
sg425
I416
sg580
I571
sg182
I173
sg391
I382
sg202
I193
sg26
I17
sg678
I669
sg350
I341
sg390
I381
sg398
I389
sg434
I425
sg231
I222
sg259
I250
sg544
I535
sg721
I712
sg464
I455
sg730
I721
sg292
I283
sg392
I383
sg404
I395
sg556
I547
sg189
I180
sg135
I126
sg505
I496
sg723
I714
sg246
I237
sg109
I100
sg327
I318
sg263
I254
sg99
I90
sg623
I614
sg274
I265
sg510
I501
sg602
I593
sg486
I477
sg454
I445
sg611
I602
sg330
I321
sg31
I22
sg102
I93
sg338
I329
sg318
I309
sg393
I384
sg306
I297
sg312
I303
sg84
I75
sg781
I772
sg484
I475
sg223
I214
sg572
I563
sg743
I734
sg707
I698
sg359
I350
sg722
I713
sg132
I123
sg376
I367
sg375
I366
sg541
I532
sg439
I430
sg577
I568
sg76
I67
sg380
I371
sg384
I375
sg654
I645
sg308
I299
sg56
I47
sg504
I495
sg621
I612
sg170
I161
sg593
I584
sg531
I522
sg802
I793
sg242
I233
sg67
I58
sg615
I606
sg690
I681
sg107
I98
sg171
I162
sg500
I491
sg635
I626
sg405
I396
sg813
I804
sg479
I470
sg362
I353
sg304
I295
sg323
I314
sg749
I740
sg561
I552
sg680
I671
sg200
I191
sg173
I164
sg431
I422
sg169
I160
sg663
I654
sg382
I373
sg282
I273
sg482
I473
sg728
I719
sg694
I685
sg540
I531
sg526
I517
sg791
I782
sg158
I149
sg742
I733
sg530
I521
sg40
I31
sg347
I338
sg415
I406
sg597
I588
sg474
I465
sg529
I520
sg443
I434
sg475
I466
sg756
I747
sg371
I362
sg590
I581
sg671
I662
sg624
I615
sg659
I650
sg692
I683
sg90
I81
sg459
I450
sg516
I507
sg328
I319
sg584
I575
sg693
I684
sg607
I598
sg551
I542
sg208
I199
sg374
I365
sg97
I88
sg682
I673
sg612
I603
sg193
I184
sg414
I405
sg501
I492
sg428
I419
sg70
I61
sg552
I543
sg424
I415
sg373
I364
sg122
I113
sg357
I348
sg770
I761
sg397
I388
sg143
I134
sg658
I649
sg34
I25
sg14
I5
sg625
I616
sg688
I679
sg605
I596
sg711
I702
sg647
I638
sg695
I686
sg49
I40
sg319
I310
sg729
I720
sg752
I743
sg470
I461
sg383
I374
sg44
I35
sg477
I468
sg701
I692
sg177
I168
sg420
I411
sg307
I298
sg92
I83
sg542
I533
sg297
I288
sg130
I121
sg387
I378
sg751
I742
sg441
I432
sg509
I500
sg119
I110
sg481
I472
sg93
I84
sg665
I656
sg145
I136
sg310
I301
sg643
I634
sg287
I278
sg290
I281
sg125
I116
sg433
I424
sg596
I587
sg687
I678
sg29
I20
sg778
I769
sg335
I326
sg33
I24
sg235
I226
sg699
I690
sg21
I12
sg268
I259
sg365
I356
sg629
I620
sg767
I758
sg613
I604
sg812
I803
sg55
I46
sg639
I630
sg450
I441
sg457
I448
sg738
I729
sg230
I221
sg275
I266
sg265
I256
sg334
I325
sg325
I316
sg465
I456
sg111
I102
sg705
I696
sg243
I234
sg147
I138
sg163
I154
sg536
I527
sg801
I792
sg734
I725
sg436
I427
sg747
I738
sg395
I386
sg137
I128
sg117
I108
sg599
I590
sg219
I210
sg790
I781
sg255
I246
sg740
I731
sg432
I423
sg113
I104
sg400
I391
sg63
I54
sg727
I718
sg545
I536
sg349
I340
sg429
I420
sg546
I537
sg210
I201
sg352
I343
sg340
I331
sg187
I178
sg518
I509
sg126
I117
sg771
I762
sg20
I11
sg617
I608
sg168
I159
sg668
I659
sg166
I157
sg667
I658
sg644
I635
sg369
I360
sg704
I695
sg198
I189
sg184
I175
sg685
I676
sg769
I760
sg153
I144
sg716
I707
sg57
I48
sg354
I345
sg280
I271
sg294
I285
sg642
I633
sg83
I74
sg264
I255
sg714
I705
sg339
I330
sg262
I253
sg47
I38
sg112
I103
sg124
I115
sg489
I480
sg557
I548
sg806
I797
sg815
I806
sg782
I773
sg79
I70
sg498
I489
sg298
I289
sg606
I597
sg284
I275
sg725
I716
sg285
I276
sg148
I139
sg174
I165
sg361
I352
sg423
I414
sg449
I440
sg579
I570
sg421
I412
sg519
I510
sg630
I621
sg559
I550
sg550
I541
sg700
I691
sg58
I49
sg696
I687
sg403
I394
sg313
I304
sg214
I205
sg637
I628
sg766
I757
sg254
I245
sg672
I663
sg118
I109
sg379
I370
sg209
I200
sg634
I625
sg227
I218
sg560
I551
sg213
I204
sg80
I71
sg394
I385
sg346
I337
sg444
I435
sg710
I701
sg252
I243
sg19
I10
sg179
I170
sg632
I623
sg42
I33
sg329
I320
sg520
I511
sg511
I502
sg525
I516
sg679
I670
sg94
I85
sg586
I577
sg681
I672
sg269
I260
sg228
I219
sg305
I296
sg261
I252
sg89
I80
sg356
I347
sg229
I220
sg810
I801
sg74
I65
sg12
I3
sg786
I777
sg684
I675
sg205
I196
sg416
I407
sg569
I560
sg121
I112
sg763
I754
sg385
I376
sg493
I484
sg331
I322
sg167
I158
sg775
I766
sg648
I639
sg267
I258
sg75
I66
sg43
I34
sg664
I655
sg88
I79
sg240
I231
sg506
I497
sg133
I124
sg64
I55
sg805
I796
sg372
I363
sg715
I706
sg595
I586
sg73
I64
sg266
I257
sg583
I574
sg517
I508
sg172
I163
sg514
I505
sg816
I807
sg808
I799
sg104
I95
sg610
I601
sg591
I582
sg60
I51
sg797
I788
sg592
I583
sg413
I404
sg673
I664
sg452
I443
sg396
I387
sg17
I8
sg803
I794
sg451
I442
sg162
I153
sg698
I689
sg37
I28
sg759
I750
sg326
I317
sg82
I73
sg16
I7
sg363
I354
sg717
I708
sg419
I410
sg157
I148
sg442
I433
sg128
I119
sg23
I14
sg68
I59
sg15
I6
sg776
I767
sg562
I553
sg507
I498
sg218
I209
sg811
I802
sg217
I208
sg626
I617
sg627
I618
sg628
I619
sg427
I418
sg30
I21
sg336
I327
sg53
I44
sg71
I62
sg683
I674
sg718
I709
sg468
I459
sg533
I524
sg660
I651
sg532
I523
sg528
I519
sg402
I393
sg641
I632
sg480
I471
sg676
I667
sg799
I790
sg675
I666
sg744
I735
sg739
I730
sg156
I147
sg300
I291
sg706
I697
sg233
I224
sg366
I357
sg430
I421
sg539
I530
sg351
I342
sg578
I569
sg731
I722
sg662
I653
sg150
I141
sg609
I600
sg69
I60
sg95
I86
sg564
I555
sg543
I534
sg224
I215
sg114
I105
sg467
I458
sg260
I251
sg256
I247
sg36
I27
sg185
I176
sg160
I151
sg574
I565
sg487
I478
sg288
I279
sg309
I300
sg646
I637
sg279
I270
sg45
I36
sg141
I132
sg108
I99
sg253
I244
sg165
I156
sg232
I223
sg28
I19
sg196
I187
sg515
I506
sg508
I499
sg46
I37
sg733
I724
sg180
I171
sg709
I700
sg589
I580
sg291
I282
sg72
I63
sg555
I546
sg272
I263
sg134
I125
sg588
I579
sg703
I694
sg216
I207
sg273
I264
sg358
I349
sg81
I72
sg286
I277
sg175
I166
sg299
I290
sg768
I759
sg181
I172
sg737
I728
sg453
I444
sg565
I556
sg77
I68
sg271
I262
sg547
I538
sg183
I174
sg377
I368
sg186
I177
sg364
I355
sg463
I454
sg337
I328
sg619
I610
sg54
I45
sg9
I0
sg407
I398
sg314
I305
sg494
I485
sg563
I554
sg571
I562
sg462
I453
sg86
I77
sg784
I775
sg10
I1
sg142
I133
sg159
I150
sg188
I179
sg497
I488
sg249
I240
sg248
I239
sg250
I241
sg772
I763
sg25
I16
sg343
I334
sg341
I332
sg761
I752
sg322
I313
sg120
I111
sg276
I267
sg222
I213
sg388
I379
sg708
I699
sg270
I261
sg239
I230
sg719
I710
sg538
I529
sg689
I680
sg651
I642
sg251
I242
sg600
I591
sg587
I578
sg426
I417
sg553
I544
sg215
I206
sg283
I274
sg52
I43
sg24
I15
sg368
I359
sg51
I42
sg657
I648
ssS'separator'
p821
S'='
sS'sparse'
p822
I01
sb.