ccopy_reg
_reconstructor
p1
(csklearn.feature_extraction.dict_vectorizer
DictVectorizer
p2
c__builtin__
object
p3
NtRp4
(dp5
S'sort'
p6
I01
sS'feature_names_'
p7
(lp8
S'advcl=be'
p9
aS'advcl=leave'
p10
aS'advcl=make'
p11
aS'advcl=principle'
p12
aS'advcl=talk'
p13
aS'advmod=again'
p14
aS'advmod=broadly'
p15
aS'advmod=correctly'
p16
aS'advmod=differently'
p17
aS'advmod=here'
p18
aS'advmod=how'
p19
aS'advmod=incorrectly'
p20
aS'advmod=often'
p21
aS'advmod=reportedly'
p22
aS'advmod=strictly'
p23
aS'advmod=widely'
p24
aS'advmod=wrongly'
p25
aS'aux=be'
p26
aS'aux=can'
p27
aS'aux=could'
p28
aS'aux=have'
p29
aS'aux=may'
p30
aS'aux=should'
p31
aS'aux=to'
p32
aS'aux=will'
p33
aS'aux=would'
p34
aS'auxpass=be'
p35
aS'cc=and'
p36
aS'ccomp=derive'
p37
aS'ccomp=involve'
p38
aS'ccomp=provide'
p39
aS'ccomp=take'
p40
aS'complm=that'
p41
aS'complm=whether'
p42
aS'conj=destroy'
p43
aS'dobj=#PRP#'
p44
aS'dobj=Frank'
p45
aS'dobj=Nina'
p46
aS'dobj=Zuckerberg'
p47
aS'dobj=ambivalence'
p48
aS'dobj=crackdown'
p49
aS'dobj=document'
p50
aS'dobj=isolation'
p51
aS'dobj=law'
p52
aS'dobj=lens'
p53
aS'dobj=mandate'
p54
aS'dobj=move'
p55
aS'dobj=number'
p56
aS'dobj=snub'
p57
aS'dobj=statement'
p58
aS'dobj=that'
p59
aS'dobj=thing'
p60
aS'dobj=this'
p61
aS'dobj=vision'
p62
aS'dobj=weakness'
p63
aS'dobj=which'
p64
aS'dobj=withdrawal'
p65
aS'mark=if'
p66
aS'neg=not'
p67
aS'nsubj=#NUMBER#'
p68
aS'nsubj=#PRP#'
p69
aS'nsubj=Colombo'
p70
aS'nsubj=Eisenberg'
p71
aS'nsubj=Muslims'
p72
aS'nsubj=North'
p73
aS'nsubj=Portman'
p74
aS'nsubj=States'
p75
aS'nsubj=Washington'
p76
aS'nsubj=analyst'
p77
aS'nsubj=banner'
p78
aS'nsubj=commander'
p79
aS'nsubj=doctor'
p80
aS'nsubj=economist'
p81
aS'nsubj=faction'
p82
aS'nsubj=immunologist'
p83
aS'nsubj=jihadist'
p84
aS'nsubj=leader'
p85
aS'nsubj=media'
p86
aS'nsubj=part'
p87
aS'nsubj=side'
p88
aS'nsubj=some'
p89
aS'nsubj=that'
p90
aS'nsubj=who'
p91
aS'nsubjpass=#PRP#'
p92
aS'nsubjpass=attack'
p93
aS'nsubjpass=legislation'
p94
aS'nsubjpass=move'
p95
aS'nsubjpass=plan'
p96
aS'nsubjpass=song'
p97
aS'nsubjpass=that'
p98
aS'nsubjpass=this'
p99
aS'nsubjpass=visit'
p100
aS'nsubjpass=wall'
p101
aS'nsubjpass=which'
p102
aS'parataxis=move'
p103
aS'prep=against'
p104
aS'prep=as'
p105
aS'prep=by'
p106
aS'prep=for'
p107
aS'prep=on'
p108
aS'prep=than'
p109
aS'prep=to'
p110
aS'prep=toward'
p111
aS'prep=with'
p112
aS'rel=in'
p113
aS'w+1=.'
p114
aS'w+1=Frank'
p115
aS'w+1=Russia'
p116
aS'w+1=Zuckerberg'
p117
aS'w+1=as'
p118
aS'w+1=by'
p119
aS'w+1=either'
p120
aS'w+1=here'
p121
aS'w+1=in'
p122
aS'w+1=isolation'
p123
aS'w+1=it'
p124
aS'w+1=that'
p125
aS'w+1=the'
p126
aS'w+1=they'
p127
aS'w+1=thing'
p128
aS'w+1=this'
p129
aS'w+1=to'
p130
aS'w+1=tormented'
p131
aS'w+1=vision'
p132
aS'w+1=what'
p133
aS'w+1=widely'
p134
aS"w+2=''"
p135
aS"w+2='s"
p136
aS'w+2=,'
p137
aS'w+2=.'
p138
aS'w+2=Koran'
p139
aS'w+2=Nina'
p140
aS'w+2=President'
p141
aS'w+2=a'
p142
aS'w+2=allow'
p143
aS'w+2=and'
p144
aS'w+2=any'
p145
aS'w+2=as'
p146
aS'w+2=by'
p147
aS'w+2=celebrate'
p148
aS'w+2=correctly'
p149
aS'w+2=crackdown'
p150
aS'w+2=differently'
p151
aS'w+2=document'
p152
aS'w+2=global'
p153
aS'w+2=insulate'
p154
aS'w+2=internal'
p155
aS'w+2=law'
p156
aS'w+2=lens'
p157
aS'w+2=mandate'
p158
aS'w+2=many'
p159
aS'w+2=move'
p160
aS'w+2=number'
p161
aS'w+2=russian'
p162
aS'w+2=show'
p163
aS'w+2=silence'
p164
aS'w+2=snub'
p165
aS'w+2=support'
p166
aS'w+2=sympathetic'
p167
aS'w+2=the'
p168
aS'w+2=three'
p169
aS'w+2=through'
p170
aS'w+2=withdrawal'
p171
aS'w-1=,'
p172
aS'w-1=Colombo'
p173
aS'w-1=Eisenberg'
p174
aS'w-1=Portman'
p175
aS'w-1=States'
p176
aS'w-1=analyst'
p177
aS'w-1=and'
p178
aS'w-1=banner'
p179
aS'w-1=be'
p180
aS'w-1=broadly'
p181
aS'w-1=could'
p182
aS'w-1=economist'
p183
aS'w-1=faction'
p184
aS'w-1=ground'
p185
aS'w-1=he'
p186
aS'w-1=immunologist'
p187
aS'w-1=incorrectly'
p188
aS'w-1=media'
p189
aS'w-1=not'
p190
aS'w-1=often'
p191
aS'w-1=part'
p192
aS'w-1=reportedly'
p193
aS'w-1=strictly'
p194
aS'w-1=they'
p195
aS'w-1=to'
p196
aS'w-1=who'
p197
aS'w-1=widely'
p198
aS'w-1=would'
p199
aS'w-1=wrongly'
p200
aS'w-2=,'
p201
aS'w-2=.'
p202
aS'w-2=Jesse'
p203
aS'w-2=Muslims'
p204
aS'w-2=Natalie'
p205
aS'w-2=United'
p206
aS'w-2=a'
p207
aS'w-2=be'
p208
aS'w-2=can'
p209
aS'w-2=could'
p210
aS'w-2=doctor'
p211
aS'w-2=have'
p212
aS'w-2=if'
p213
aS'w-2=leader'
p214
aS'w-2=local'
p215
aS'w-2=many'
p216
aS'w-2=may'
p217
aS'w-2=most'
p218
aS'w-2=move'
p219
aS'w-2=not'
p220
aS'w-2=one'
p221
aS'w-2=preach'
p222
aS'w-2=risk'
p223
aS'w-2=rival'
p224
aS'w-2=say'
p225
aS'w-2=should'
p226
aS'w-2=side'
p227
aS'w-2=so'
p228
aS'w-2=some'
p229
aS'w-2=that'
p230
aS'w-2=the'
p231
aS'w-2=this'
p232
aS'w-2=try'
p233
aS'w-2=which'
p234
aS'w-2=will'
p235
aS'w-2=world'
p236
aS'w-2=would'
p237
aS'w-2=year'
p238
aS'xcomp=allow'
p239
aS'xcomp=justify'
p240
aS'xcomp=neglect'
p241
aS'xcomp=prepare'
p242
aS'xcomp=turn'
p243
asS'dtype'
p244
cnumpy
float64
p245
sS'vocabulary_'
p246
(dp247
g87
I78
sg52
I43
sg114
I105
sg20
I11
sg56
I47
sg103
I94
sg149
I140
sg37
I28
sg123
I114
sg240
I231
sg25
I16
sg204
I195
sg196
I187
sg101
I92
sg57
I48
sg189
I180
sg49
I40
sg98
I89
sg106
I97
sg135
I126
sg94
I85
sg148
I139
sg82
I73
sg39
I30
sg197
I188
sg227
I218
sg145
I136
sg113
I104
sg91
I82
sg13
I4
sg210
I201
sg241
I232
sg109
I100
sg234
I225
sg173
I164
sg183
I174
sg144
I135
sg187
I178
sg199
I190
sg70
I61
sg80
I71
sg175
I166
sg125
I116
sg62
I53
sg44
I35
sg89
I80
sg93
I84
sg233
I224
sg232
I223
sg40
I31
sg221
I212
sg117
I108
sg164
I155
sg38
I29
sg116
I107
sg61
I52
sg165
I156
sg236
I227
sg76
I67
sg17
I8
sg159
I150
sg143
I134
sg77
I68
sg225
I216
sg171
I162
sg177
I168
sg156
I147
sg168
I159
sg118
I109
sg43
I34
sg99
I90
sg105
I96
sg201
I192
sg202
I193
sg112
I103
sg166
I157
sg30
I21
sg133
I124
sg10
I1
sg79
I70
sg29
I20
sg203
I194
sg180
I171
sg21
I12
sg170
I161
sg96
I87
sg45
I36
sg172
I163
sg220
I211
sg231
I222
sg213
I204
sg51
I42
sg74
I65
sg85
I76
sg71
I62
sg63
I54
sg129
I120
sg223
I214
sg167
I158
sg88
I79
sg155
I146
sg132
I123
sg193
I184
sg217
I208
sg242
I233
sg60
I51
sg176
I167
sg31
I22
sg11
I2
sg138
I129
sg188
I179
sg216
I207
sg111
I102
sg207
I198
sg195
I186
sg107
I98
sg58
I49
sg95
I86
sg139
I130
sg102
I93
sg54
I45
sg169
I160
sg228
I219
sg192
I183
sg73
I64
sg186
I177
sg86
I77
sg146
I137
sg158
I149
sg46
I37
sg48
I39
sg84
I75
sg182
I173
sg161
I152
sg35
I26
sg27
I18
sg41
I32
sg42
I33
sg200
I191
sg224
I215
sg157
I148
sg205
I196
sg206
I197
sg212
I203
sg141
I132
sg36
I27
sg151
I142
sg229
I220
sg9
I0
sg230
I221
sg140
I131
sg126
I117
sg104
I95
sg119
I110
sg120
I111
sg219
I210
sg150
I141
sg127
I118
sg24
I15
sg136
I127
sg68
I59
sg72
I63
sg92
I83
sg181
I172
sg243
I234
sg162
I153
sg131
I122
sg19
I10
sg34
I25
sg122
I113
sg208
I199
sg214
I205
sg124
I115
sg59
I50
sg128
I119
sg69
I60
sg16
I7
sg160
I151
sg215
I206
sg163
I154
sg238
I229
sg22
I13
sg154
I145
sg110
I101
sg97
I88
sg239
I230
sg32
I23
sg226
I217
sg218
I209
sg198
I189
sg184
I175
sg235
I226
sg28
I19
sg152
I143
sg65
I56
sg23
I14
sg147
I138
sg179
I170
sg209
I200
sg137
I128
sg191
I182
sg211
I202
sg130
I121
sg50
I41
sg67
I58
sg14
I5
sg237
I228
sg90
I81
sg222
I213
sg174
I165
sg178
I169
sg121
I112
sg47
I38
sg18
I9
sg55
I46
sg12
I3
sg75
I66
sg64
I55
sg194
I185
sg83
I74
sg15
I6
sg100
I91
sg190
I181
sg153
I144
sg81
I72
sg78
I69
sg108
I99
sg53
I44
sg26
I17
sg33
I24
sg185
I176
sg66
I57
sg115
I106
sg142
I133
sg134
I125
ssS'separator'
p248
S'='
sS'sparse'
p249
I01
sb.