ccopy_reg
_reconstructor
p1
(csklearn.feature_extraction.dict_vectorizer
DictVectorizer
p2
c__builtin__
object
p3
NtRp4
(dp5
S'sort'
p6
I01
sS'feature_names_'
p7
(lp8
S'advmod=eventually'
p9
aS'advmod=how'
p10
aS'advmod=really'
p11
aS'advmod=still'
p12
aS'aux=be'
p13
aS'aux=have'
p14
aS'aux=to'
p15
aS'aux=will'
p16
aS'auxpass=be'
p17
aS'cc=and'
p18
aS'ccomp=break'
p19
aS'complm=that'
p20
aS'conj=continue'
p21
aS'conj=move'
p22
aS'conj=pave'
p23
aS'conj=pre-empt'
p24
aS'conj=prophesy'
p25
aS'conj=restore'
p26
aS'conj=unite'
p27
aS'csubj=fail'
p28
aS'dep=help'
p29
aS'det=the'
p30
aS'dobj=America'
p31
aS'dobj=arm'
p32
aS'dobj=community'
p33
aS'dobj=country'
p34
aS'dobj=division'
p35
aS'dobj=land'
p36
aS'dobj=mission'
p37
aS'dobj=nation'
p38
aS'dobj=people'
p39
aS'dobj=rift'
p40
aS'dobj=sick'
p41
aS'dobj=situation'
p42
aS'dobj=system'
p43
aS'dobj=trauma'
p44
aS'dobj=wound'
p45
aS'neg=not'
p46
aS'nn=arm'
p47
aS'nn=wound'
p48
aS'nsubj=#PRP#'
p49
aS'nsubj=Gates'
p50
aS'nsubj=city'
p51
aS'nsubj=country'
p52
aS'nsubj=effort'
p53
aS'nsubj=remedy'
p54
aS'nsubj=survivor'
p55
aS'nsubj=wouldallow'
p56
aS'nsubjpass=nation'
p57
aS'nsubjpass=wound'
p58
aS'poss=#PRP#'
p59
aS'prep=after'
p60
aS'prep=among'
p61
aS'prep=as'
p62
aS'prep=but'
p63
aS'prep=from'
p64
aS'prep=in'
p65
aS'prep=of'
p66
aS'prep=through'
p67
aS'prep=to'
p68
aS'prep=within'
p69
aS'w+1=,'
p70
aS'w+1=.'
p71
aS'w+1=America'
p72
aS'w+1=a'
p73
aS'w+1=after'
p74
aS'w+1=and'
p75
aS'w+1=as'
p76
aS'w+1=because'
p77
aS'w+1=but'
p78
aS'w+1=deep'
p79
aS'w+1=from'
p80
aS'w+1=its'
p81
aS'w+1=of'
p82
aS'w+1=people'
p83
aS'w+1=the'
p84
aS'w+1=this'
p85
aS'w+1=those'
p86
aS'w+1=to'
p87
aS'w+1=we'
p88
aS'w+1=wound'
p89
aS"w+2=''"
p90
aS'w+2=,'
p91
aS'w+2=a'
p92
aS'w+2=arm'
p93
aS'w+2=bitterly'
p94
aS'w+2=cause'
p95
aS'w+2=community'
p96
aS'w+2=continue'
p97
aS'w+2=country'
p98
aS'w+2=deep'
p99
aS'w+2=division'
p100
aS'w+2=easily'
p101
aS'w+2=he'
p102
aS'w+2=hiv'
p103
aS'w+2=in'
p104
aS'w+2=land'
p105
aS'w+2=linger'
p106
aS'w+2=nation'
p107
aS'w+2=one'
p108
aS'w+2=political'
p109
aS'w+2=power'
p110
aS'w+2=rift'
p111
aS'w+2=sick'
p112
aS'w+2=situation'
p113
aS'w+2=stricken'
p114
aS'w+2=unite'
p115
aS'w+2=war'
p116
aS'w+2=wound'
p117
aS'w+2=year'
p118
aS'w+2=you'
p119
aS"w-1=''"
p120
aS'w-1=arm'
p121
aS'w-1=at'
p122
aS'w-1=be'
p123
aS'w-1=best'
p124
aS'w-1=country'
p125
aS'w-1=definitely'
p126
aS'w-1=he'
p127
aS'w-1=help'
p128
aS'w-1=it'
p129
aS'w-1=percent'
p130
aS'w-1=really'
p131
aS'w-1=region'
p132
aS'w-1=still'
p133
aS'w-1=survivor'
p134
aS'w-1=to'
p135
aS'w-1=will'
p136
aS'w-1=wound'
p137
aS"w-2=''"
p138
aS'w-2=,'
p139
aS'w-2=90'
p140
aS'w-2=Ford'
p141
aS'w-2=able'
p142
aS'w-2=adopt'
p143
aS'w-2=aim'
p144
aS'w-2=and'
p145
aS'w-2=attempt'
p146
aS'w-2=be'
p147
aS'w-2=believe'
p148
aS'w-2=best'
p149
aS'w-2=can'
p150
aS'w-2=chance'
p151
aS'w-2=city'
p152
aS'w-2=country'
p153
aS'w-2=effort'
p154
aS'w-2=endeavor'
p155
aS'w-2=for'
p156
aS'w-2=he'
p157
aS'w-2=help'
p158
aS'w-2=hope'
p159
aS'w-2=intend'
p160
aS'w-2=kurdish'
p161
aS'w-2=nation'
p162
aS'w-2=needed-remedy'
p163
aS'w-2=not'
p164
aS'w-2=power'
p165
aS'w-2=promise'
p166
aS'w-2=seek'
p167
aS'w-2=table'
p168
aS'w-2=the'
p169
aS'w-2=they'
p170
aS'w-2=time'
p171
aS'w-2=to'
p172
aS'w-2=together'
p173
aS'w-2=way'
p174
aS'w-2=who'
p175
aS'w-2=will'
p176
aS'w-2=work'
p177
aS'w-2=wound'
p178
aS'xcomp=refill'
p179
asS'dtype'
p180
cnumpy
float64
p181
sS'vocabulary_'
p182
(dp183
g177
I168
sg112
I103
sg175
I166
sg103
I94
sg149
I140
sg43
I34
sg140
I131
sg148
I139
sg77
I68
sg30
I21
sg51
I42
sg125
I116
sg172
I163
sg39
I30
sg72
I63
sg27
I18
sg37
I28
sg100
I91
sg52
I43
sg163
I154
sg32
I23
sg63
I54
sg50
I41
sg42
I33
sg94
I85
sg170
I161
sg135
I126
sg34
I25
sg22
I13
sg69
I60
sg145
I136
sg107
I98
sg153
I144
sg159
I150
sg89
I80
sg46
I37
sg134
I125
sg85
I76
sg31
I22
sg157
I148
sg48
I39
sg16
I7
sg114
I105
sg11
I2
sg160
I151
sg23
I14
sg76
I67
sg176
I167
sg62
I53
sg136
I127
sg139
I130
sg101
I92
sg14
I5
sg26
I17
sg123
I114
sg9
I0
sg61
I52
sg155
I146
sg28
I19
sg164
I155
sg97
I88
sg169
I160
sg165
I156
sg171
I162
sg142
I133
sg151
I142
sg162
I153
sg40
I31
sg67
I58
sg108
I99
sg144
I135
sg98
I89
sg45
I36
sg82
I73
sg20
I11
sg41
I32
sg95
I86
sg106
I97
sg57
I48
sg132
I123
sg120
I111
sg55
I46
sg124
I115
sg88
I79
sg173
I164
sg143
I134
sg168
I159
sg90
I81
sg104
I95
sg127
I118
sg54
I45
sg21
I12
sg36
I27
sg74
I65
sg117
I108
sg80
I71
sg152
I143
sg17
I8
sg119
I110
sg83
I74
sg131
I122
sg60
I51
sg33
I24
sg113
I104
sg18
I9
sg161
I152
sg154
I145
sg12
I3
sg29
I20
sg79
I70
sg179
I170
sg126
I117
sg84
I75
sg24
I15
sg115
I106
sg156
I147
sg96
I87
sg53
I44
sg86
I77
sg56
I47
sg66
I57
sg65
I56
sg111
I102
sg10
I1
sg81
I72
sg174
I165
sg93
I84
sg49
I40
sg130
I121
sg64
I55
sg105
I96
sg158
I149
sg121
I112
sg166
I157
sg68
I59
sg15
I6
sg109
I100
sg58
I49
sg118
I109
sg59
I50
sg133
I124
sg128
I119
sg75
I66
sg141
I132
sg35
I26
sg138
I129
sg70
I61
sg71
I62
sg150
I141
sg91
I82
sg87
I78
sg178
I169
sg116
I107
sg129
I120
sg102
I93
sg38
I29
sg73
I64
sg147
I138
sg78
I69
sg47
I38
sg122
I113
sg146
I137
sg167
I158
sg13
I4
sg99
I90
sg25
I16
sg110
I101
sg92
I83
sg44
I35
sg137
I128
sg19
I10
ssS'separator'
p184
S'='
sS'sparse'
p185
I01
sb.