ccopy_reg
_reconstructor
p1
(csklearn.feature_extraction.dict_vectorizer
DictVectorizer
p2
c__builtin__
object
p3
NtRp4
(dp5
S'sort'
p6
I01
sS'feature_names_'
p7
(lp8
S'advcl=able'
p9
aS'advcl=expand'
p10
aS'advcl=face'
p11
aS'advcl=know'
p12
aS'advcl=report'
p13
aS'advcl=teach'
p14
aS'advmod=absolutely'
p15
aS'advmod=already'
p16
aS'advmod=also'
p17
aS'advmod=at'
p18
aS'advmod=away'
p19
aS'advmod=back'
p20
aS'advmod=finally'
p21
aS'advmod=however'
p22
aS'advmod=long'
p23
aS'advmod=nevertheless'
p24
aS'advmod=obviously'
p25
aS'advmod=sometimes'
p26
aS'advmod=still'
p27
aS'advmod=then'
p28
aS'advmod=there'
p29
aS'advmod=though'
p30
aS'advmod=truly'
p31
aS'advmod=when'
p32
aS'aux=be'
p33
aS'aux=can'
p34
aS'aux=could'
p35
aS'aux=do'
p36
aS'aux=have'
p37
aS'aux=must'
p38
aS'aux=to'
p39
aS'aux=will'
p40
aS'aux=would'
p41
aS'auxpass=be'
p42
aS'cc=and'
p43
aS'cc=but'
p44
aS'cc=or'
p45
aS'ccomp=#NUMBER#'
p46
aS'ccomp=able'
p47
aS'ccomp=address'
p48
aS'ccomp=advance'
p49
aS'ccomp=alternative'
p50
aS'ccomp=appropriate'
p51
aS'ccomp=attempt'
p52
aS'ccomp=be'
p53
aS'ccomp=believe'
p54
aS'ccomp=candidate'
p55
aS'ccomp=change'
p56
aS'ccomp=city'
p57
aS'ccomp=conservative'
p58
aS'ccomp=continue'
p59
aS'ccomp=contribute'
p60
aS'ccomp=danger'
p61
aS'ccomp=dead'
p62
aS'ccomp=deadlock'
p63
aS'ccomp=define'
p64
aS'ccomp=destroy'
p65
aS'ccomp=disclose'
p66
aS'ccomp=essential'
p67
aS'ccomp=fair'
p68
aS'ccomp=force'
p69
aS'ccomp=gain'
p70
aS'ccomp=go'
p71
aS'ccomp=halt'
p72
aS'ccomp=happen'
p73
aS'ccomp=have'
p74
aS'ccomp=hope'
p75
aS'ccomp=important'
p76
aS'ccomp=involve'
p77
aS'ccomp=join'
p78
aS'ccomp=lie'
p79
aS'ccomp=long'
p80
aS'ccomp=make'
p81
aS'ccomp=match'
p82
aS'ccomp=mistake'
p83
aS'ccomp=move'
p84
aS'ccomp=necessary'
p85
aS'ccomp=need'
p86
aS'ccomp=nominee'
p87
aS'ccomp=noticeable'
p88
aS'ccomp=nudge'
p89
aS'ccomp=offer'
p90
aS'ccomp=ought'
p91
aS'ccomp=overcome'
p92
aS'ccomp=person'
p93
aS'ccomp=pose'
p94
aS'ccomp=put'
p95
aS'ccomp=real'
p96
aS'ccomp=recover'
p97
aS'ccomp=remain'
p98
aS'ccomp=require'
p99
aS'ccomp=resolve'
p100
aS'ccomp=result'
p101
aS'ccomp=return'
p102
aS'ccomp=robbery'
p103
aS'ccomp=serious'
p104
aS'ccomp=serve'
p105
aS'ccomp=share'
p106
aS'ccomp=sincere'
p107
aS'ccomp=solution'
p108
aS'ccomp=spread'
p109
aS'ccomp=start'
p110
aS'ccomp=succeed'
p111
aS'ccomp=suffer'
p112
aS'ccomp=support'
p113
aS'ccomp=tell'
p114
aS'ccomp=terrorist'
p115
aS'ccomp=thing'
p116
aS'ccomp=threat'
p117
aS'ccomp=time'
p118
aS'ccomp=undermine'
p119
aS'ccomp=understand'
p120
aS'ccomp=want'
p121
aS'ccomp=war'
p122
aS'ccomp=way'
p123
aS'ccomp=wear'
p124
aS'ccomp=win'
p125
aS'ccomp=work'
p126
aS'ccomp=worse'
p127
aS'complm=that'
p128
aS'conj=bring'
p129
aS'conj=fail'
p130
aS'conj=grant'
p131
aS'conj=return'
p132
aS'cop=be'
p133
aS'dep=#PRP#'
p134
aS'dep=apprentice'
p135
aS'dep=as'
p136
aS'dep=be'
p137
aS'dep=circumstance'
p138
aS'dep=have'
p139
aS'dep=in'
p140
aS'dep=mainly'
p141
aS'dep=take'
p142
aS'dep=think'
p143
aS'dep=traumatize'
p144
aS'dobj=#PRP#'
p145
aS'dobj=Army'
p146
aS'dobj=Europeans'
p147
aS'dobj=Iran'
p148
aS'dobj=Iranians'
p149
aS'dobj=Israelis'
p150
aS'dobj=Mugabe'
p151
aS'dobj=Odinga'
p152
aS'dobj=Putin'
p153
aS'dobj=administration'
p154
aS'dobj=agency'
p155
aS'dobj=all'
p156
aS'dobj=american'
p157
aS'dobj=anybody'
p158
aS'dobj=army'
p159
aS'dobj=board'
p160
aS'dobj=colleague'
p161
aS'dobj=company'
p162
aS'dobj=conservative'
p163
aS'dobj=consumer'
p164
aS'dobj=country'
p165
aS'dobj=critic'
p166
aS'dobj=dealer'
p167
aS'dobj=delegate'
p168
aS'dobj=democrat'
p169
aS'dobj=engineer'
p170
aS'dobj=french'
p171
aS'dobj=friend'
p172
aS'dobj=generation'
p173
aS'dobj=government'
p174
aS'dobj=group'
p175
aS'dobj=kalenjin'
p176
aS'dobj=kenyan'
p177
aS'dobj=lawmaker'
p178
aS'dobj=leader'
p179
aS'dobj=majority'
p180
aS'dobj=man'
p181
aS'dobj=member'
p182
aS'dobj=militant'
p183
aS'dobj=nation'
p184
aS'dobj=neighbor'
p185
aS'dobj=officeholder'
p186
aS'dobj=opinion'
p187
aS'dobj=organization'
p188
aS'dobj=parliamentarian'
p189
aS'dobj=partner'
p190
aS'dobj=people'
p191
aS'dobj=policymaker'
p192
aS'dobj=population'
p193
aS'dobj=president'
p194
aS'dobj=public'
p195
aS'dobj=reader'
p196
aS'dobj=rebel'
p197
aS'dobj=regime'
p198
aS'dobj=republican'
p199
aS'dobj=rest'
p200
aS'dobj=scientist'
p201
aS'dobj=skeptic'
p202
aS'dobj=some'
p203
aS'dobj=station'
p204
aS'dobj=superdelegate'
p205
aS'dobj=tutor'
p206
aS'dobj=variety'
p207
aS'dobj=victory'
p208
aS'dobj=voter'
p209
aS'dobj=what'
p210
aS'mark=because'
p211
aS'mark=for'
p212
aS'mark=like'
p213
aS'mark=unless'
p214
aS'mark=until'
p215
aS'mark=while'
p216
aS'neg=not'
p217
aS'nsubj=#NUMBER#'
p218
aS'nsubj=#PRP#'
p219
aS'nsubj=Downer'
p220
aS'nsubj=Rudd'
p221
aS'nsubj=States'
p222
aS'nsubj=U.S.'
p223
aS'nsubj=amount'
p224
aS'nsubj=challenge'
p225
aS'nsubj=chance'
p226
aS'nsubj=contractor'
p227
aS'nsubj=diplomacy'
p228
aS'nsubj=effort'
p229
aS'nsubj=hardship'
p230
aS'nsubj=investigation'
p231
aS'nsubj=killing'
p232
aS'nsubj=leader'
p233
aS'nsubj=lot'
p234
aS'nsubj=mediator'
p235
aS'nsubj=mission'
p236
aS'nsubj=nation'
p237
aS'nsubj=pilot'
p238
aS'nsubj=report'
p239
aS'nsubj=talk'
p240
aS'nsubj=that'
p241
aS'nsubj=this'
p242
aS'nsubj=visit'
p243
aS'nsubj=which'
p244
aS'nsubj=year'
p245
aS'nsubjpass=#PRP#'
p246
aS'nsubjpass=Cader'
p247
aS'nsubjpass=Fund'
p248
aS'nsubjpass=Kremlin'
p249
aS'nsubjpass=Lora'
p250
aS'nsubjpass=Makhole'
p251
aS'nsubjpass=Mohammad'
p252
aS'nsubjpass=Moo-hyun'
p253
aS'nsubjpass=Moscow'
p254
aS'nsubjpass=Pumla'
p255
aS'nsubjpass=activist'
p256
aS'nsubjpass=agency'
p257
aS'nsubjpass=commission'
p258
aS'nsubjpass=donor'
p259
aS'nsubjpass=environmentalist'
p260
aS'nsubjpass=everyone'
p261
aS'nsubjpass=friend'
p262
aS'nsubjpass=government'
p263
aS'nsubjpass=insurgent'
p264
aS'nsubjpass=jury'
p265
aS'nsubjpass=liberian'
p266
aS'nsubjpass=local'
p267
aS'nsubjpass=many'
p268
aS'nsubjpass=other'
p269
aS'nsubjpass=people'
p270
aS'nsubjpass=who'
p271
aS'parataxis=know'
p272
aS'parataxis=trouble'
p273
aS'prep=about'
p274
aS'prep=accord'
p275
aS'prep=at'
p276
aS'prep=beyond'
p277
aS'prep=by'
p278
aS'prep=despite'
p279
aS'prep=for'
p280
aS'prep=in'
p281
aS'prep=of'
p282
aS'prep=to'
p283
aS'prep=with'
p284
aS'prt=up'
p285
aS'tmod=#DATE#'
p286
aS'tmod=week'
p287
aS"w+1=''"
p288
aS'w+1=.'
p289
aS'w+1=Americans'
p290
aS'w+1=Chad'
p291
aS'w+1=Cho'
p292
aS'w+1=Eritrea'
p293
aS'w+1=Ethiopia'
p294
aS'w+1=Europeans'
p295
aS'w+1=Hamas'
p296
aS'w+1=I'
p297
aS'w+1=Iran'
p298
aS'w+1=Iranians'
p299
aS'w+1=Iraq'
p300
aS'w+1=Israel'
p301
aS'w+1=Israelis'
p302
aS'w+1=Kenya'
p303
aS'w+1=Khartoum'
p304
aS'w+1=Libya'
p305
aS'w+1=Mr.'
p306
aS'w+1=North'
p307
aS'w+1=Pinetop'
p308
aS'w+1=U.S.'
p309
aS'w+1=a'
p310
aS'w+1=all'
p311
aS'w+1=american'
p312
aS'w+1=anybody'
p313
aS'w+1=at'
p314
aS'w+1=beyond'
p315
aS'w+1=biological'
p316
aS'w+1=both'
p317
aS'w+1=by'
p318
aS'w+1=develop'
p319
aS'w+1=elderly'
p320
aS'w+1=engineer'
p321
aS'w+1=enough'
p322
aS'w+1=factional'
p323
aS'w+1=friend'
p324
aS'w+1=governor'
p325
aS'w+1=he'
p326
aS'w+1=individual'
p327
aS'w+1=influential'
p328
aS'w+1=international'
p329
aS'w+1=iranian'
p330
aS'w+1=iraqi'
p331
aS'w+1=israeli'
p332
aS'w+1=it'
p333
aS'w+1=its'
p334
aS'w+1=kenyan'
p335
aS'w+1=lawmaker'
p336
aS'w+1=leader'
p337
aS'w+1=local'
p338
aS'w+1=many'
p339
aS'w+1=member'
p340
aS'w+1=more'
p341
aS'w+1=of'
p342
aS'w+1=one'
p343
aS'w+1=other'
p344
aS'w+1=ourselves'
p345
aS'w+1=people'
p346
aS'w+1=policymaker'
p347
aS'w+1=public'
p348
aS'w+1=republican'
p349
aS'w+1=rival'
p350
aS'w+1=scientist'
p351
aS'w+1=several'
p352
aS'w+1=she'
p353
aS"w+1=shi'ite"
p354
aS'w+1=skeptic'
p355
aS'w+1=social'
p356
aS'w+1=some'
p357
aS'w+1=that'
p358
aS'w+1=the'
p359
aS'w+1=there'
p360
aS'w+1=they'
p361
aS'w+1=those'
p362
aS'w+1=to'
p363
aS'w+1=top'
p364
aS'w+1=tutor'
p365
aS'w+1=uncommitted'
p366
aS'w+1=up'
p367
aS'w+1=victory'
p368
aS'w+1=voter'
p369
aS'w+1=we'
p370
aS'w+1=would-be'
p371
aS'w+1=you'
p372
aS"w+2='s"
p373
aS'w+2=,'
p374
aS'w+2=-lrb-'
p375
aS'w+2=.'
p376
aS'w+2=Afghan'
p377
aS'w+2=Anbar'
p378
aS'w+2=Cabinet'
p379
aS'w+2=EU'
p380
aS'w+2=European'
p381
aS'w+2=Europeans'
p382
aS'w+2=Iraq'
p383
aS'w+2=Iyad'
p384
aS'w+2=Khartoum'
p385
aS'w+2=Korea'
p386
aS'w+2=Military'
p387
aS'w+2=Mr.'
p388
aS'w+2=Mugabe'
p389
aS'w+2=Musharraf'
p390
aS'w+2=NATO'
p391
aS'w+2=Palestinians'
p392
aS'w+2=Pavarotti'
p393
aS'w+2=Poles'
p394
aS'w+2=President'
p395
aS'w+2=Prime'
p396
aS'w+2=Putin'
p397
aS'w+2=Rod'
p398
aS'w+2=Russia'
p399
aS'w+2=Saudis'
p400
aS'w+2=Sunnis'
p401
aS'w+2=West'
p402
aS'w+2=a'
p403
aS'w+2=accept'
p404
aS'w+2=after'
p405
aS'w+2=aid'
p406
aS'w+2=american'
p407
aS'w+2=and'
p408
aS'w+2=annual'
p409
aS'w+2=any'
p410
aS'w+2=be'
p411
aS'w+2=british'
p412
aS'w+2=carbofuran'
p413
aS'w+2=climate'
p414
aS'w+2=coalition'
p415
aS'w+2=come'
p416
aS'w+2=company'
p417
aS'w+2=conservative'
p418
aS'w+2=consumer'
p419
aS'w+2=country'
p420
aS'w+2=critic'
p421
aS'w+2=democracy'
p422
aS'w+2=democrat'
p423
aS'w+2=democratic'
p424
aS'w+2=diamond'
p425
aS'w+2=do'
p426
aS'w+2=ethnic'
p427
aS'w+2=european'
p428
aS'w+2=even'
p429
aS'w+2=fellow'
p430
aS'w+2=french'
p431
aS'w+2=go'
p432
aS'w+2=government'
p433
aS'w+2=he'
p434
aS'w+2=help'
p435
aS'w+2=hungry'
p436
aS'w+2=if'
p437
aS'w+2=in'
p438
aS'w+2=insert'
p439
aS'w+2=involve'
p440
aS'w+2=iranian'
p441
aS'w+2=israeli'
p442
aS'w+2=key'
p443
aS'w+2=leader'
p444
aS'w+2=least'
p445
aS'w+2=majority'
p446
aS'w+2=member'
p447
aS'w+2=migrant'
p448
aS'w+2=militant'
p449
aS'w+2=military'
p450
aS'w+2=more'
p451
aS'w+2=nation'
p452
aS'w+2=never'
p453
aS'w+2=new'
p454
aS'w+2=north'
p455
aS'w+2=northern'
p456
aS'w+2=not'
p457
aS'w+2=of'
p458
aS'w+2=on'
p459
aS'w+2=one'
p460
aS'w+2=opinion'
p461
aS'w+2=opposition'
p462
aS'w+2=organization'
p463
aS'w+2=own'
p464
aS'w+2=palestinian'
p465
aS'w+2=parliamentarian'
p466
aS'w+2=people'
p467
aS'w+2=population'
p468
aS'w+2=public'
p469
aS'w+2=rebel'
p470
aS'w+2=reclusive'
p471
aS'w+2=reconcile'
p472
aS'w+2=reluctant'
p473
aS'w+2=remain'
p474
aS'w+2=republican'
p475
aS'w+2=rest'
p476
aS'w+2=scientist'
p477
aS'w+2=send'
p478
aS'w+2=show'
p479
aS'w+2=so-called'
p480
aS'w+2=somali'
p481
aS'w+2=something'
p482
aS'w+2=southern'
p483
aS'w+2=station'
p484
aS'w+2=sudanese'
p485
aS'w+2=superdelegate'
p486
aS'w+2=technology'
p487
aS'w+2=terrorist'
p488
aS'w+2=that'
p489
aS'w+2=the'
p490
aS'w+2=there'
p491
aS'w+2=they'
p492
aS'w+2=this'
p493
aS'w+2=to'
p494
aS'w+2=tutor'
p495
aS'w+2=two'
p496
aS'w+2=variety'
p497
aS'w+2=we'
p498
aS'w+2=which'
p499
aS'w+2=why'
p500
aS'w+2=will'
p501
aS'w+2=with'
p502
aS'w-1=,'
p503
aS'w-1=NATO'
p504
aS'w-1=Washington'
p505
aS'w-1=absolutely'
p506
aS'w-1=after'
p507
aS'w-1=all'
p508
aS'w-1=already'
p509
aS'w-1=also'
p510
aS'w-1=and'
p511
aS'w-1=at'
p512
aS'w-1=away'
p513
aS'w-1=back'
p514
aS'w-1=be'
p515
aS'w-1=by'
p516
aS'w-1=can'
p517
aS'w-1=contractor'
p518
aS'w-1=could'
p519
aS'w-1=easy'
p520
aS'w-1=finally'
p521
aS'w-1=for'
p522
aS'w-1=have'
p523
aS'w-1=he'
p524
aS'w-1=help'
p525
aS'w-1=home'
p526
aS'w-1=in'
p527
aS'w-1=must'
p528
aS'w-1=not'
p529
aS'w-1=obviously'
p530
aS'w-1=of'
p531
aS'w-1=on'
p532
aS'w-1=reform'
p533
aS'w-1=sense'
p534
aS'w-1=sometimes'
p535
aS'w-1=still'
p536
aS'w-1=that'
p537
aS'w-1=then'
p538
aS'w-1=to'
p539
aS'w-1=truly'
p540
aS'w-1=very'
p541
aS'w-1=which'
p542
aS'w-1=while'
p543
aS'w-1=will'
p544
aS'w-1=would'
p545
aS'w-2=,'
p546
aS'w-2=-'
p547
aS'w-2=Afghanistan'
p548
aS'w-2=D.C.'
p549
aS'w-2=Deby'
p550
aS'w-2=Downer'
p551
aS'w-2=I'
p552
aS'w-2=Israel'
p553
aS'w-2=Kremlin'
p554
aS'w-2=Lora'
p555
aS'w-2=Machar'
p556
aS'w-2=Moo-hyun'
p557
aS'w-2=Pristina'
p558
aS'w-2=Rudd'
p559
aS'w-2=States'
p560
aS'w-2=U.K.'
p561
aS'w-2=U.S.'
p562
aS'w-2=ability'
p563
aS'w-2=able'
p564
aS'w-2=achieve'
p565
aS'w-2=action'
p566
aS'w-2=addition'
p567
aS'w-2=agency'
p568
aS'w-2=aim'
p569
aS'w-2=ally'
p570
aS'w-2=also'
p571
aS'w-2=and'
p572
aS'w-2=at'
p573
aS'w-2=attack'
p574
aS'w-2=attempt'
p575
aS'w-2=be'
p576
aS'w-2=but'
p577
aS'w-2=campaign'
p578
aS'w-2=can'
p579
aS'w-2=challenge'
p580
aS'w-2=channel'
p581
aS'w-2=come'
p582
aS'w-2=commission'
p583
aS'w-2=deploy'
p584
aS'w-2=design'
p585
aS'w-2=difficult'
p586
aS'w-2=diplomacy'
p587
aS'w-2=do'
p588
aS'w-2=donor'
p589
aS'w-2=easier'
p590
aS'w-2=effort'
p591
aS'w-2=enough'
p592
aS'w-2=essential'
p593
aS'w-2=everyone'
p594
aS'w-2=factory'
p595
aS'w-2=fail'
p596
aS'w-2=focus'
p597
aS'w-2=friend'
p598
aS'w-2=get'
p599
aS'w-2=go'
p600
aS'w-2=government'
p601
aS'w-2=grow'
p602
aS'w-2=hard'
p603
aS'w-2=hardship'
p604
aS'w-2=have'
p605
aS'w-2=he'
p606
aS'w-2=help'
p607
aS'w-2=hope'
p608
aS'w-2=important'
p609
aS'w-2=in'
p610
aS'w-2=ingredient'
p611
aS'w-2=investigation'
p612
aS'w-2=it'
p613
aS'w-2=killing'
p614
aS'w-2=land'
p615
aS'w-2=liberian'
p616
aS'w-2=little'
p617
aS'w-2=local'
p618
aS'w-2=long'
p619
aS'w-2=lot'
p620
aS'w-2=margin'
p621
aS'w-2=may'
p622
aS'w-2=measure'
p623
aS'w-2=momentum'
p624
aS'w-2=nation'
p625
aS'w-2=necessary'
p626
aS'w-2=need'
p627
aS'w-2=not'
p628
aS'w-2=nothing'
p629
aS'w-2=now'
p630
aS'w-2=office'
p631
aS'w-2=other'
p632
aS'w-2=part'
p633
aS'w-2=people'
p634
aS'w-2=point'
p635
aS'w-2=possible'
p636
aS'w-2=power'
p637
aS'w-2=president'
p638
aS'w-2=pressure'
p639
aS'w-2=progress'
p640
aS'w-2=reform'
p641
aS'w-2=region'
p642
aS'w-2=remain'
p643
aS'w-2=say'
p644
aS'w-2=scene'
p645
aS'w-2=seek'
p646
aS'w-2=serb'
p647
aS'w-2=she'
p648
aS'w-2=some'
p649
aS'w-2=still'
p650
aS'w-2=success'
p651
aS'w-2=sufficient'
p652
aS'w-2=tactic'
p653
aS'w-2=testing'
p654
aS'w-2=that'
p655
aS'w-2=they'
p656
aS'w-2=this'
p657
aS'w-2=to'
p658
aS'w-2=try'
p659
aS'w-2=unable'
p660
aS'w-2=until'
p661
aS'w-2=veto'
p662
aS'w-2=want'
p663
aS'w-2=we'
p664
aS'w-2=week'
p665
aS'w-2=will'
p666
aS'w-2=work'
p667
aS'w-2=yet'
p668
aS'w-2=you'
p669
aS'xcomp=abandon'
p670
aS'xcomp=accept'
p671
aS'xcomp=agree'
p672
aS'xcomp=allow'
p673
aS'xcomp=attend'
p674
aS'xcomp=buy'
p675
aS'xcomp=change'
p676
aS'xcomp=come'
p677
aS'xcomp=continue'
p678
aS'xcomp=course'
p679
aS'xcomp=define'
p680
aS'xcomp=do'
p681
aS'xcomp=drop'
p682
aS'xcomp=educate'
p683
aS'xcomp=extend'
p684
aS'xcomp=force'
p685
aS'xcomp=get'
p686
aS'xcomp=give'
p687
aS'xcomp=go'
p688
aS'xcomp=halt'
p689
aS'xcomp=help'
p690
aS'xcomp=join'
p691
aS'xcomp=kill'
p692
aS'xcomp=lay'
p693
aS'xcomp=leave'
p694
aS'xcomp=let'
p695
aS'xcomp=limit'
p696
aS'xcomp=make'
p697
aS'xcomp=meet'
p698
aS'xcomp=open'
p699
aS'xcomp=overcome'
p700
aS'xcomp=part'
p701
aS'xcomp=play'
p702
aS'xcomp=provide'
p703
aS'xcomp=put'
p704
aS'xcomp=reconcile'
p705
aS'xcomp=record'
p706
aS'xcomp=reign'
p707
aS'xcomp=resign'
p708
aS'xcomp=resume'
p709
aS'xcomp=return'
p710
aS'xcomp=seek'
p711
aS'xcomp=sell'
p712
aS'xcomp=side'
p713
aS'xcomp=start'
p714
aS'xcomp=stop'
p715
aS'xcomp=support'
p716
aS'xcomp=suspend'
p717
aS'xcomp=switch'
p718
aS'xcomp=terrorist'
p719
aS'xcomp=tighten'
p720
aS'xcomp=vote'
p721
asS'dtype'
p722
cnumpy
float64
p723
sS'vocabulary_'
p724
(dp725
g28
I19
sg268
I259
sg472
I463
sg80
I71
sg228
I219
sg612
I603
sg293
I284
sg664
I655
sg634
I625
sg270
I261
sg188
I179
sg196
I187
sg213
I204
sg185
I176
sg461
I452
sg398
I389
sg180
I171
sg409
I400
sg106
I97
sg253
I244
sg506
I497
sg627
I618
sg252
I243
sg656
I647
sg428
I419
sg102
I93
sg165
I156
sg452
I443
sg73
I64
sg412
I403
sg358
I349
sg602
I593
sg526
I517
sg628
I619
sg711
I702
sg340
I331
sg545
I536
sg66
I57
sg172
I163
sg365
I356
sg364
I355
sg256
I247
sg315
I306
sg597
I588
sg291
I282
sg699
I690
sg544
I535
sg250
I241
sg679
I670
sg670
I661
sg578
I569
sg378
I369
sg691
I682
sg304
I295
sg516
I507
sg453
I444
sg567
I558
sg515
I506
sg534
I525
sg573
I564
sg477
I468
sg719
I710
sg87
I78
sg323
I314
sg687
I678
sg161
I152
sg233
I224
sg262
I253
sg595
I586
sg683
I674
sg600
I591
sg198
I189
sg65
I56
sg236
I227
sg211
I202
sg420
I411
sg342
I333
sg702
I693
sg214
I205
sg494
I485
sg160
I151
sg609
I600
sg11
I2
sg540
I531
sg247
I238
sg480
I471
sg523
I514
sg178
I169
sg437
I428
sg177
I168
sg375
I366
sg432
I423
sg328
I319
sg438
I429
sg665
I656
sg71
I62
sg500
I491
sg608
I599
sg170
I161
sg622
I613
sg696
I687
sg98
I89
sg519
I510
sg274
I265
sg34
I25
sg128
I119
sg346
I337
sg553
I544
sg668
I659
sg651
I642
sg18
I9
sg501
I492
sg636
I627
sg395
I386
sg227
I218
sg591
I582
sg655
I646
sg359
I350
sg82
I73
sg681
I672
sg455
I446
sg411
I402
sg361
I352
sg705
I696
sg362
I353
sg509
I500
sg246
I237
sg703
I694
sg24
I15
sg281
I272
sg41
I32
sg468
I459
sg157
I148
sg63
I54
sg331
I322
sg351
I342
sg99
I90
sg114
I105
sg283
I274
sg463
I454
sg208
I199
sg90
I81
sg416
I407
sg67
I58
sg536
I527
sg429
I420
sg347
I338
sg713
I704
sg530
I521
sg620
I611
sg697
I688
sg64
I55
sg677
I668
sg255
I246
sg344
I335
sg624
I615
sg202
I193
sg241
I232
sg152
I143
sg504
I495
sg601
I592
sg195
I186
sg285
I276
sg404
I395
sg660
I651
sg332
I323
sg146
I137
sg234
I225
sg527
I518
sg498
I489
sg156
I147
sg470
I461
sg83
I74
sg345
I336
sg126
I117
sg440
I431
sg167
I158
sg558
I549
sg189
I180
sg143
I134
sg57
I48
sg667
I658
sg30
I21
sg457
I448
sg417
I408
sg585
I576
sg295
I286
sg240
I231
sg715
I706
sg121
I112
sg55
I46
sg192
I183
sg84
I75
sg354
I345
sg278
I269
sg191
I182
sg147
I138
sg673
I664
sg232
I223
sg59
I50
sg95
I86
sg317
I308
sg640
I631
sg52
I43
sg76
I67
sg117
I108
sg497
I488
sg85
I76
sg539
I530
sg584
I575
sg380
I371
sg685
I676
sg368
I359
sg451
I442
sg109
I100
sg175
I166
sg145
I136
sg588
I579
sg206
I197
sg50
I41
sg239
I230
sg372
I363
sg140
I131
sg635
I626
sg261
I252
sg598
I589
sg563
I554
sg483
I474
sg704
I695
sg60
I51
sg100
I91
sg574
I565
sg390
I381
sg379
I370
sg163
I154
sg38
I29
sg441
I432
sg314
I305
sg302
I293
sg326
I317
sg301
I292
sg212
I203
sg127
I118
sg700
I691
sg517
I508
sg391
I382
sg580
I571
sg564
I555
sg53
I44
sg187
I178
sg645
I636
sg269
I260
sg569
I560
sg464
I455
sg32
I23
sg505
I496
sg105
I96
sg81
I72
sg134
I125
sg648
I639
sg629
I620
sg280
I271
sg221
I212
sg716
I707
sg701
I692
sg49
I40
sg330
I321
sg248
I239
sg482
I473
sg14
I5
sg179
I170
sg97
I88
sg562
I553
sg279
I270
sg647
I638
sg594
I585
sg42
I33
sg307
I298
sg176
I167
sg159
I150
sg586
I577
sg23
I14
sg405
I396
sg162
I153
sg718
I709
sg473
I464
sg488
I479
sg693
I684
sg321
I312
sg199
I190
sg27
I18
sg439
I430
sg173
I164
sg678
I669
sg710
I701
sg69
I60
sg641
I632
sg360
I351
sg229
I220
sg218
I209
sg312
I303
sg639
I630
sg267
I258
sg399
I390
sg334
I325
sg320
I311
sg518
I509
sg94
I85
sg502
I493
sg210
I201
sg618
I609
sg479
I470
sg190
I181
sg31
I22
sg662
I653
sg290
I281
sg88
I79
sg406
I397
sg646
I637
sg72
I63
sg91
I82
sg118
I109
sg694
I685
sg242
I233
sg174
I165
sg458
I449
sg26
I17
sg654
I645
sg459
I450
sg363
I354
sg245
I236
sg434
I425
sg136
I127
sg385
I376
sg431
I422
sg712
I703
sg445
I436
sg421
I412
sg56
I47
sg110
I101
sg166
I157
sg543
I534
sg575
I566
sg397
I388
sg565
I556
sg521
I512
sg396
I387
sg273
I264
sg299
I290
sg186
I177
sg690
I681
sg496
I487
sg132
I123
sg698
I689
sg51
I42
sg144
I135
sg338
I329
sg207
I198
sg596
I587
sg619
I610
sg329
I320
sg366
I357
sg671
I662
sg86
I77
sg593
I584
sg643
I634
sg436
I427
sg680
I671
sg692
I683
sg113
I104
sg478
I469
sg448
I439
sg493
I484
sg151
I142
sg377
I368
sg204
I195
sg486
I477
sg316
I307
sg153
I144
sg225
I216
sg123
I114
sg352
I343
sg672
I663
sg77
I68
sg29
I20
sg487
I478
sg674
I665
sg226
I217
sg101
I92
sg216
I207
sg36
I27
sg556
I547
sg389
I380
sg485
I476
sg571
I562
sg40
I31
sg54
I45
sg533
I524
sg16
I7
sg454
I445
sg93
I84
sg222
I213
sg193
I184
sg353
I344
sg266
I257
sg284
I275
sg45
I36
sg450
I441
sg107
I98
sg614
I605
sg637
I628
sg653
I644
sg650
I641
sg201
I192
sg717
I708
sg446
I437
sg467
I458
sg714
I705
sg393
I384
sg243
I234
sg131
I122
sg130
I121
sg610
I601
sg561
I552
sg638
I629
sg625
I616
sg15
I6
sg613
I604
sg682
I673
sg617
I608
sg513
I504
sg426
I417
sg422
I413
sg19
I10
sg220
I211
sg104
I95
sg294
I285
sg689
I680
sg263
I254
sg343
I334
sg514
I505
sg141
I132
sg582
I573
sg456
I447
sg70
I61
sg125
I116
sg507
I498
sg402
I393
sg484
I475
sg182
I173
sg652
I643
sg135
I126
sg419
I410
sg260
I251
sg382
I373
sg148
I139
sg48
I39
sg560
I551
sg303
I294
sg271
I262
sg605
I596
sg686
I677
sg43
I34
sg720
I711
sg415
I406
sg108
I99
sg10
I1
sg318
I309
sg149
I140
sg554
I545
sg373
I364
sg474
I465
sg300
I291
sg386
I377
sg649
I640
sg122
I113
sg695
I686
sg258
I249
sg238
I229
sg333
I324
sg215
I206
sg219
I210
sg469
I460
sg604
I595
sg298
I289
sg259
I250
sg205
I196
sg394
I385
sg288
I279
sg541
I532
sg194
I185
sg44
I35
sg414
I405
sg369
I360
sg356
I347
sg550
I541
sg427
I418
sg525
I516
sg684
I675
sg35
I26
sg47
I38
sg158
I149
sg277
I268
sg78
I69
sg555
I546
sg200
I191
sg615
I606
sg476
I467
sg20
I11
sg350
I341
sg325
I316
sg230
I221
sg96
I87
sg264
I255
sg709
I700
sg499
I490
sg581
I572
sg120
I111
sg79
I70
sg388
I379
sg576
I567
sg282
I273
sg348
I339
sg435
I426
sg587
I578
sg675
I666
sg449
I440
sg75
I66
sg633
I624
sg425
I416
sg254
I245
sg168
I159
sg495
I486
sg138
I129
sg244
I235
sg430
I421
sg275
I266
sg387
I378
sg287
I278
sg424
I415
sg566
I557
sg443
I434
sg139
I130
sg231
I222
sg311
I302
sg92
I83
sg111
I102
sg551
I542
sg392
I383
sg296
I287
sg603
I594
sg183
I174
sg489
I480
sg142
I133
sg357
I348
sg532
I523
sg599
I590
sg371
I362
sg663
I654
sg410
I401
sg137
I128
sg319
I310
sg423
I414
sg707
I698
sg531
I522
sg62
I53
sg658
I649
sg408
I399
sg286
I277
sg572
I563
sg367
I358
sg659
I650
sg559
I550
sg17
I8
sg133
I124
sg592
I583
sg606
I597
sg401
I392
sg341
I332
sg590
I581
sg115
I106
sg644
I635
sg688
I679
sg150
I141
sg46
I37
sg490
I481
sg276
I267
sg666
I657
sg546
I537
sg547
I538
sg444
I435
sg511
I502
sg235
I226
sg383
I374
sg251
I242
sg37
I28
sg577
I568
sg74
I65
sg164
I155
sg155
I146
sg503
I494
sg313
I304
sg630
I621
sg568
I559
sg552
I543
sg265
I256
sg583
I574
sg442
I433
sg471
I462
sg447
I438
sg510
I501
sg249
I240
sg272
I263
sg460
I451
sg542
I533
sg632
I623
sg308
I299
sg433
I424
sg538
I529
sg370
I361
sg124
I115
sg661
I652
sg129
I120
sg413
I404
sg25
I16
sg520
I511
sg524
I515
sg324
I315
sg339
I330
sg491
I482
sg116
I107
sg400
I391
sg68
I59
sg12
I3
sg336
I327
sg466
I457
sg492
I483
sg89
I80
sg154
I145
sg171
I162
sg548
I539
sg528
I519
sg708
I699
sg465
I456
sg570
I561
sg322
I313
sg257
I248
sg721
I712
sg676
I667
sg9
I0
sg557
I548
sg58
I49
sg616
I607
sg535
I526
sg657
I648
sg355
I346
sg61
I52
sg508
I499
sg197
I188
sg589
I580
sg706
I697
sg21
I12
sg607
I598
sg22
I13
sg621
I612
sg119
I110
sg475
I466
sg39
I30
sg669
I660
sg611
I602
sg623
I614
sg335
I326
sg305
I296
sg181
I172
sg112
I103
sg384
I375
sg337
I328
sg237
I228
sg462
I453
sg209
I200
sg579
I570
sg223
I214
sg203
I194
sg13
I4
sg481
I472
sg522
I513
sg418
I409
sg289
I280
sg642
I633
sg407
I398
sg376
I367
sg374
I365
sg381
I372
sg217
I208
sg327
I318
sg169
I160
sg349
I340
sg297
I288
sg306
I297
sg103
I94
sg184
I175
sg292
I283
sg310
I301
sg529
I520
sg309
I300
sg512
I503
sg631
I622
sg549
I540
sg537
I528
sg33
I24
sg224
I215
sg626
I617
sg403
I394
ssS'separator'
p726
S'='
sS'sparse'
p727
I01
sb.