ccopy_reg
_reconstructor
p1
(csklearn.feature_extraction.dict_vectorizer
DictVectorizer
p2
c__builtin__
object
p3
NtRp4
(dp5
S'vocabulary_'
p6
(dp7
S'w+2=soldier'
p8
I65
sS'w-1=whimsically'
p9
I86
sS'w+1=.'
p10
I28
sS'iobj=director'
p11
I16
sS'dobj=Monrovia'
p12
I11
sS'dobj=soldier'
p13
I14
sS'w+1=soldier'
p14
I41
sS'w+2=that'
p15
I66
sS'w-1=be'
p16
I75
sS'w+1=store'
p17
I42
sS'w+2=side'
p18
I64
sS'w-2=and'
p19
I95
sS'w+1=Vietnam'
p20
I31
sS'w-1=of'
p21
I82
sS'w-2=they'
p22
I103
sS'prep=by'
p23
I25
sS'w+2=and'
p24
I55
sS'w-2=Robert'
p25
I92
sS'advmod=even'
p26
I1
sS'w-1=start'
p27
I84
sS'w-2=grave'
p28
I99
sS'w+2=veteran'
p29
I68
sS'advmod=whimsically'
p30
I4
sS'dobj=Wajda'
p31
I12
sS'w-2=with'
p32
I105
sS'w+1=top'
p33
I44
sS'w+2=beautiful'
p34
I56
sS'w+1=with'
p35
I48
sS'w+2=Christmas'
p36
I53
sS'advmod=now'
p37
I2
sS'w+1=Monrovia'
p38
I29
sS'w-2=paint'
p39
I102
sS'w+1=war'
p40
I47
sS'w-2=,'
p41
I89
sS'w-2=.'
p42
I90
sS'prep=with'
p43
I27
sS'advmod=elaborately'
p44
I0
sS'w-1=most'
p45
I80
sS'w-1=,'
p46
I70
sS'w+1=combat'
p47
I35
sS'w-2=Vernon'
p48
I93
sS'xcomp=kind'
p49
I107
sS'dobj=side'
p50
I13
sS'nsubj=Mugabe'
p51
I18
sS'w+1=thing'
p52
I43
sS'w-2=a'
p53
I94
sS'w+1=Poland'
p54
I30
sS'prep=for'
p55
I26
sS'w-1=a'
p56
I72
sS'w+2=dead'
p57
I57
sS'w-1=after'
p58
I73
sS'nsubjpass=museum'
p59
I23
sS'nsubjpass=house'
p60
I21
sS'w+1=service'
p61
I40
sS"w+2=''"
p62
I49
sS'w+2=in'
p63
I60
sS'w-2=House'
p64
I91
sS'w-1=he'
p65
I79
sS'w-2=hope'
p66
I101
sS'w-2=duty'
p67
I98
sS'w-2=write'
p68
I106
sS'w-1=ceremony'
p69
I76
sS'conj=beautiful'
p70
I7
sS'auxpass=be'
p71
I5
sS'advmod=sparsely'
p72
I3
sS'w+1=truck'
p73
I45
sS'w+1=veteran'
p74
I46
sS'w-2=decade'
p75
I97
sS'cc=and'
p76
I6
sS'dep=most'
p77
I9
sS'w+1=by'
p78
I34
sS'conj=ready'
p79
I8
sS"w-2='ll"
p80
I87
sS"w+2='s"
p81
I50
sS'nsubjpass=#PRP#'
p82
I20
sS'w+2=huge'
p83
I59
sS'w-1=elaborately'
p84
I77
sS'w+1=its'
p85
I39
sS'w+1=for'
p86
I37
sS'w-1=even'
p87
I78
sS'w+1=it'
p88
I38
sS'nsubj=#PRP#'
p89
I17
sS"w-1=''"
p90
I69
sS'w-2=up'
p91
I104
sS'w+2=traditional'
p92
I67
sS'nsubjpass=mansion'
p93
I22
sS'w+2=put'
p94
I62
sS'w+1=and'
p95
I33
sS'w-1=sparsely'
p96
I83
sS'w-1=Mugabe'
p97
I71
sS'prep=as'
p98
I24
sS'w+2=rock'
p99
I63
sS'w+2=.'
p100
I52
sS'w+2=,'
p101
I51
sS'w+2=for'
p102
I58
sS'w-2=graveyard'
p103
I100
sS'w+2=kind'
p104
I61
sS'dep=veteran'
p105
I10
sS'w-1=and'
p106
I74
sS'nsubj=photo'
p107
I19
sS'w+1=a'
p108
I32
sS'w-1=now'
p109
I81
sS'w-2=be'
p110
I96
sS'w+1=float'
p111
I36
sS'w-1=the'
p112
I85
sS'w+2=Marine'
p113
I54
sS'dobj=tree'
p114
I15
sS"w-2='s"
p115
I88
ssS'dtype'
p116
cnumpy
float64
p117
sS'feature_names_'
p118
(lp119
g44
ag26
ag37
ag72
ag30
ag71
ag76
ag70
ag79
ag77
ag105
ag12
ag31
ag50
ag13
ag114
ag11
ag89
ag51
ag107
ag82
ag60
ag93
ag59
ag98
ag23
ag55
ag43
ag10
ag38
ag54
ag20
ag108
ag95
ag78
ag47
ag111
ag86
ag88
ag85
ag61
ag14
ag17
ag52
ag33
ag73
ag74
ag40
ag35
ag62
ag81
ag101
ag100
ag36
ag113
ag24
ag34
ag57
ag102
ag83
ag63
ag104
ag94
ag99
ag18
ag8
ag15
ag92
ag29
ag90
ag46
ag97
ag56
ag58
ag106
ag16
ag69
ag84
ag87
ag65
ag45
ag109
ag21
ag96
ag27
ag112
ag9
ag80
ag115
ag41
ag42
ag64
ag25
ag48
ag53
ag19
ag110
ag75
ag67
ag28
ag103
ag66
ag39
ag22
ag91
ag32
ag68
ag49
asS'separator'
p120
S'='
sS'sparse'
p121
I01
sb.