ccopy_reg
_reconstructor
p1
(csklearn.feature_extraction.dict_vectorizer
DictVectorizer
p2
c__builtin__
object
p3
NtRp4
(dp5
S'vocabulary_'
p6
(dp7
S'w-1=major'
p8
I489
sS'preconj=both'
p9
I129
sS'w+2=vehicle'
p10
I421
sS'w+2=problem'
p11
I362
sS'w-2=people'
p12
I629
sS'w+2=solution'
p13
I386
sS'w+2=irrigation'
p14
I313
sS'w-1=whatever'
p15
I524
sS'w+2=statin'
p16
I389
sS'advmod=sure'
p17
I8
sS'w-2=mount'
p18
I618
sS'w+2=but'
p19
I230
sS'w+2=civilian'
p20
I242
sS'w-1=feudal'
p21
I474
sS'w-2=when'
p22
I671
sS'w+1=hope'
p23
I180
sS'dep=technology'
p24
I72
sS'amod=disease-causing'
p25
I15
sS'w-2=favor'
p26
I585
sS'nsubj=reason'
p27
I115
sS'rcmod=available'
p28
I136
sS'w+2=ocean'
p29
I345
sS'rcmod=reverse'
p30
I157
sS'w+2=equipment'
p31
I268
sS'w+1=that'
p32
I186
sS'nsubj=these'
p33
I118
sS'w-1=unusual'
p34
I520
sS'w-2=not'
p35
I620
sS'nsubj=concern'
p36
I114
sS'w+2=lesson'
p37
I325
sS'w-1=say'
p38
I500
sS'conj=this'
p39
I64
sS'w-1=new'
p40
I492
sS'w+2=arugulum'
p41
I213
sS'w-1=woody'
p42
I528
sS'w+2=level'
p43
I326
sS'w+2=government-supported'
p44
I284
sS'w-2=from'
p45
I593
sS'amod=aggressive'
p46
I9
sS'nn=industry'
p47
I105
sS'w-1=Iraq'
p48
I443
sS'w-2=type'
p49
I663
sS'w+2=tissue'
p50
I408
sS'nn=Iraq'
p51
I96
sS'w+2=screening'
p52
I377
sS'w-1=hpv'
p53
I481
sS'nn=body'
p54
I100
sS'w-2=receive'
p55
I638
sS'w+2=impact'
p56
I298
sS'w-2=the'
p57
I656
sS'w+2=team'
p58
I400
sS'w+2=fruit'
p59
I278
sS'w+2=activity'
p60
I205
sS'w-2=as'
p61
I554
sS'w+2=blood'
p62
I226
sS'nsubj=what'
p63
I121
sS'mark=because'
p64
I93
sS'w-2=provide'
p65
I635
sS'infmod=take'
p66
I92
sS'w+2=form'
p67
I277
sS'w+1=of'
p68
I183
sS'w+2=nuclear'
p69
I344
sS'w+2=technical'
p70
I401
sS'w+2=skill'
p71
I383
sS'rcmod=want'
p72
I161
sS'w-2=many'
p73
I612
sS'w+2=cause'
p74
I238
sS'w-2=cut'
p75
I568
sS'conj=another'
p76
I57
sS'w+2=legislate'
p77
I324
sS'conj=composition'
p78
I58
sS'amod=sexual'
p79
I36
sS'w-1=some'
p80
I504
sS'dep=what'
p81
I74
sS'rcmod=like'
p82
I151
sS'w+2=complex'
p83
I245
sS'w+2=treatment'
p84
I414
sS'w+2=if'
p85
I295
sS'w-2=preventable'
p86
I632
sS'w+2=in'
p87
I300
sS'w+2=large'
p88
I319
sS'w-2=understand'
p89
I665
sS'w+2=identity'
p90
I294
sS'advmod=exactly'
p91
I3
sS'w-2=only'
p92
I625
sS'w+2=criminal'
p93
I251
sS'advmod=once'
p94
I6
sS'complm=that'
p95
I56
sS'w+2=iraqi'
p96
I312
sS'nsubj=scientist'
p97
I116
sS'w-1=those'
p98
I514
sS'w+2=unrest'
p99
I419
sS'w+2=wild'
p100
I430
sS'w+2=prefer'
p101
I361
sS'w+2=ugly'
p102
I418
sS'w+2=event'
p103
I269
sS'w+2=training'
p104
I413
sS'w+2=by'
p105
I231
sS'w-1=threetype'
p106
I516
sS'w+2=-rrb-'
p107
I197
sS'w+2=weaponry'
p108
I426
sS'amod=insidious'
p109
I21
sS'w+2=dialogue'
p110
I258
sS'w+2=be'
p111
I222
sS'w+1=they'
p112
I187
sS'w-2=stop'
p113
I653
sS'w-1=develop'
p114
I469
sS'w-2=Algeria'
p115
I539
sS'w+2=involvement'
p116
I311
sS'prep=in'
p117
I131
sS'w-1=independent'
p118
I483
sS'w+1=for'
p119
I177
sS'w+2=still'
p120
I391
sS'w+2=conflict'
p121
I246
sS'w+2=land'
p122
I318
sS'w+2=political'
p123
I360
sS'w+2=relationship'
p124
I371
sS'w+2=perception'
p125
I353
sS'w+1=and'
p126
I172
sS'rcmod=cause'
p127
I141
sS'w+2=ski'
p128
I382
sS'w-1=disease-causing'
p129
I472
sS'w+2=microsurgery'
p130
I332
sS'w+2=madrassa'
p131
I330
sS'w-2=B.'
p132
I541
sS'w-2=about'
p133
I548
sS'w-1=such'
p134
I507
sS'w-1=similar'
p135
I503
sS'nn=blood'
p136
I99
sS'w+2=tool'
p137
I411
sS'w+2=heart'
p138
I287
sS'w-1=aggressive'
p139
I449
sS'w+2=bird'
p140
I224
sS'w+2=plot'
p141
I358
sS'w-1=in'
p142
I482
sS'w+2=non-criminal'
p143
I343
sS'nn=mold'
p144
I107
sS'w+2=military-to-military'
p145
I334
sS'w-2=often'
p146
I622
sS'amod=unique'
p147
I43
sS'w+2=the'
p148
I404
sS'w+2=surgery'
p149
I396
sS'w-1=the'
p150
I511
sS'w+2=issue'
p151
I314
sS'w-1=right'
p152
I498
sS'amod=winner-take-all'
p153
I49
sS'w+2=slavery'
p154
I385
sS'w+2=weight-control'
p155
I428
sS'det=all'
p156
I76
sS'w-2=entertainment'
p157
I581
sS'rcmod=employ'
p158
I144
sS'w-2=cause'
p159
I561
sS'w+2=polio'
p160
I359
sS'w-2=illicit'
p161
I600
sS'rcmod=drink'
p162
I143
sS'w-2=14'
p163
I536
sS'w-2=increase'
p164
I602
sS'amod=varied'
p165
I45
sS'w+2=music'
p166
I341
sS'w+2=work'
p167
I433
sS'w+1=have'
p168
I179
sS'w+2=higher'
p169
I290
sS'w-2=so'
p170
I651
sS'rcmod=in'
p171
I148
sS'det=the'
p172
I82
sS'det=these'
p173
I83
sS'w+2=job'
p174
I315
sS'w+2=institution'
p175
I306
sS'w-2=use'
p176
I666
sS'w+2=host'
p177
I292
sS'rcmod=begin'
p178
I138
sS'w-2=or'
p179
I626
sS'w+2=packing'
p180
I350
sS'w-1=cell'
p181
I458
sS'dep=diabetes'
p182
I68
sS'w-2=of'
p183
I621
sS'w+1=can'
p184
I175
sS'w+1=worn'
p185
I193
sS'w+2=turbine'
p186
I416
sS'dep=everything'
p187
I70
sS'w-2=on'
p188
I623
sS'w-1=to'
p189
I517
sS'w+2=rocket'
p190
I374
sS'rcmod=ban'
p191
I137
sS'w+2=more'
p192
I336
sS'w-1=two'
p193
I518
sS'w+2=seafood'
p194
I378
sS'dobj=#PRP#'
p195
I88
sS'w-2=do'
p196
I578
sS'w-2=these'
p197
I657
sS'w+2=intervention'
p198
I308
sS'w+2=war'
p199
I424
sS'w+2=here'
p200
I289
sS'nsubj=Bluegrass'
p201
I110
sS'w-2=adolescent'
p202
I551
sS'w-1=four'
p203
I476
sS'w+2=attitude'
p204
I217
sS'w-1=teacher'
p205
I508
sS'w+2=car'
p206
I235
sS'w-1=corner'
p207
I464
sS'w+2=candidate'
p208
I234
sS'w-1=winner-take-all'
p209
I525
sS'w+2=can'
p210
I232
sS'w+2=action'
p211
I204
sS'w-1=dangerous'
p212
I467
sS'w+2=against'
p213
I207
sS'amod=general'
p214
I19
sS'w+2=financial'
p215
I274
sS'w-1=both'
p216
I456
sS'w+2=innovation'
p217
I305
sS'w-2=down'
p218
I580
sS'w+2=ceremonial'
p219
I239
sS'w+2=case'
p220
I237
sS'w-2=able'
p221
I547
sS'det=some'
p222
I80
sS'w-1=with'
p223
I526
sS'ccomp=comment'
p224
I54
sS'w+2=warfare'
p225
I425
sS'w+2=three'
p226
I406
sS'w+1=act'
p227
I171
sS'advmod=most'
p228
I4
sS'w+1=two'
p229
I190
sS'w+2=luxury'
p230
I329
sS'det=those'
p231
I85
sS'w-2=second-most'
p232
I646
sS'dep=#PRP#'
p233
I67
sS'w-2=she'
p234
I649
sS'w+2=deal'
p235
I252
sS'w+2=influenza'
p236
I302
sS'det=this'
p237
I84
sS'w+1=we'
p238
I191
sS'w+2=immune'
p239
I297
sS'nn=type'
p240
I108
sS'w-1=Islamiyah'
p241
I444
sS'amod=similar'
p242
I38
sS'w+2=talk'
p243
I398
sS'w+2=bandage'
p244
I220
sS'w-1=maintenance'
p245
I488
sS'rcmod=pursue'
p246
I156
sS'w-1=monovalent'
p247
I491
sS'advcl=give'
p248
I0
sS'det=what'
p249
I86
sS'dep=#NUMBER#'
p250
I66
sS'w-2=exactly'
p251
I582
sS'auxpass=be'
p252
I51
sS'w+2=mosquito'
p253
I338
sS'w+2=terrorism'
p254
I403
sS'w+2=avalanche'
p255
I218
sS"w-1='s"
p256
I436
sS'rcmod=absorb'
p257
I134
sS'w+2=success'
p258
I394
sS'w+2=rebel'
p259
I369
sS'number=#NUMBER#'
p260
I124
sS'w+2=tobacco'
p261
I410
sS'w+2=good'
p262
I282
sS'rcmod=experience'
p263
I145
sS'advmod=much'
p264
I5
sS'w-2=several'
p265
I648
sS'w+2=latrine'
p266
I320
sS'amod=interventionist'
p267
I22
sS'nsubj=type'
p268
I120
sS'nsubj=acid'
p269
I112
sS'w+2=breadfruit'
p270
I227
sS'w-2=single'
p271
I650
sS'w+2=thing'
p272
I405
sS'w+2=clothing'
p273
I244
sS'w+2=new'
p274
I342
sS'w+2=adequate'
p275
I206
sS'w-2=varied'
p276
I667
sS'w+2=with'
p277
I431
sS'w+2=opportunity'
p278
I347
sS'w+2=crime'
p279
I250
sS'amod=specific'
p280
I39
sS"w-1=''"
p281
I435
sS'rcmod=claim'
p282
I142
sS'w-1=difficult'
p283
I471
sS'w-1=franchisee'
p284
I477
sS'w-2=reignite'
p285
I640
sS'w+2=air'
p286
I209
sS'w-2=most'
p287
I617
sS'w-2=dissect'
p288
I577
sS'rcmod=vulnerable'
p289
I160
sS'w+2=aid'
p290
I208
sS'w+2=put'
p291
I366
sS'w+2=protection'
p292
I365
sS'w-1=three'
p293
I515
sS'w+2=fear'
p294
I272
sS"w-2=''"
p295
I529
sS'w+2=file'
p296
I273
sS'nsubj=this'
p297
I119
sS'w+2=Asia-Pacific'
p298
I199
sS'w-2=-lrb-'
p299
I533
sS'w+1=to'
p300
I189
sS'det=that'
p301
I81
sS'rcmod=intervene'
p302
I149
sS'amod=same'
p303
I34
sS'amod=major'
p304
I24
sS'w+2=multilateral'
p305
I340
sS'w-1=and'
p306
I451
sS'w-2=tolerate'
p307
I661
sS'det=any'
p308
I78
sS'prep=into'
p309
I132
sS'w-2=achieve'
p310
I550
sS'w-2=bring'
p311
I558
sS'w+2=resource'
p312
I372
sS'w+2=sink'
p313
I380
sS'w+2=tourism'
p314
I412
sS'w-2=Asia'
p315
I540
sS'w+2=leadership'
p316
I323
sS'nn=corner'
p317
I102
sS'w+2=planning'
p318
I357
sS'w-2=prevent'
p319
I631
sS'rcmod=live'
p320
I152
sS'nn=Union'
p321
I98
sS'w-2=diagnose'
p322
I573
sS'w+2=american'
p323
I211
sS'w-2=verify'
p324
I668
sS"w-2='s"
p325
I530
sS'rcmod=jeopardize'
p326
I150
sS'w-2=mold'
p327
I615
sS'rcmod=have'
p328
I147
sS'w+2=ignite'
p329
I296
sS'w-2=instead'
p330
I604
sS'w+2=particularly'
p331
I351
sS'w+2=person'
p332
I354
sS'w+2=trend'
p333
I415
sS'w+2=contest'
p334
I249
sS'w+2=implant'
p335
I299
sS'det=another'
p336
I77
sS'partmod=host'
p337
I125
sS'w-2=remain'
p338
I641
sS'amod=diabetic'
p339
I13
sS'w-2=into'
p340
I605
sS'w-2=48'
p341
I538
sS'w+2=people'
p342
I352
sS'w-2=different'
p343
I574
sS'w+2=pickle'
p344
I356
sS'w+2=diabetic'
p345
I257
sS'w+2=steroid'
p346
I390
sS'w+2=phased'
p347
I355
sS'w-2=kick-start'
p348
I607
sS'w-1=other'
p349
I496
sS'w-2=child'
p350
I564
sS'amod=conditions-based'
p351
I12
sS'w-1=describe'
p352
I468
sS'w+2=technology'
p353
I402
sS'amod=new'
p354
I27
sS'conj=here'
p355
I60
sS'w-1=particular'
p356
I497
sS'nn=franchisee'
p357
I103
sS'w+2=local'
p358
I328
sS'w-2=with'
p359
I672
sS'w+2=response'
p360
I373
sS'w-2=Horecky'
p361
I544
sS'w+2=care'
p362
I236
sS'w+2=voter'
p363
I423
sS'dep=those'
p364
I73
sS'w-1=insidious'
p365
I485
sS'w+2=molecule'
p366
I335
sS'nn=cell'
p367
I101
sS'w+2=hospital'
p368
I291
sS'w-2=patient'
p369
I628
sS'amod=normal'
p370
I28
sS'expl=there'
p371
I89
sS'amod=different'
p372
I14
sS'w-2=know'
p373
I608
sS'w-1=against'
p374
I448
sS'w-1=strongest'
p375
I506
sS'amod=strongest'
p376
I40
sS'w+2=building'
p377
I228
sS'w+2=debt'
p378
I253
sS'w+2=military'
p379
I333
sS'w-2=play'
p380
I630
sS'w-2=still'
p381
I652
sS'w-2=family'
p382
I584
sS'w+2=gene'
p383
I279
sS'rcmod=buy'
p384
I140
sS'w-1=many'
p385
I490
sS'poss=Algeria'
p386
I127
sS'w-2=if'
p387
I599
sS'w+2=container'
p388
I248
sS'w-1=terrorist'
p389
I509
sS'w-2=--'
p390
I532
sS'rcmod=say'
p391
I158
sS'w+2=dialysis'
p392
I259
sS'w+2=ocean-going'
p393
I346
sS'w+2=initiator'
p394
I303
sS'w+2=accident'
p395
I202
sS'nn=hpv'
p396
I104
sS'w-2=expand'
p397
I583
sS'w+2=do'
p398
I261
sS'w+2=democracy'
p399
I254
sS'w+2=shortfall'
p400
I379
sS'w+2=abuse'
p401
I201
sS'amod=unusual'
p402
I44
sS'w-1=conditions-based'
p403
I463
sS'w+1=one'
p404
I184
sS'w-2=mix'
p405
I614
sS'rcmod=face'
p406
I146
sS'w+2=radiation'
p407
I367
sS'rcmod=prefer'
p408
I155
sS'w+1=B.'
p409
I169
sS'w+2=help'
p410
I288
sS'det=both'
p411
I79
sS'amod=whether'
p412
I48
sS'nsubj=stuff'
p413
I117
sS'w-1=several'
p414
I501
sS'num=#NUMBER#'
p415
I123
sS'w-2=accept'
p416
I549
sS"w+2=''"
p417
I194
sS'w+2=aircraft'
p418
I210
sS'w-1=any'
p419
I453
sS'w-2=cell'
p420
I562
sS'advmod=also'
p421
I2
sS'w-1=various'
p422
I521
sS'w-1=different'
p423
I470
sS'w+1=campaign'
p424
I174
sS'w-2=proliferation'
p425
I634
sS'w-2=document'
p426
I579
sS'rcmod=bring'
p427
I139
sS'w-2=two'
p428
I662
sS'amod=lethal'
p429
I23
sS'w-1=common'
p430
I461
sS'w+1=ever'
p431
I176
sS'w-2=develop'
p432
I572
sS'w-1=these'
p433
I512
sS'w+2=happen'
p434
I285
sS'w-2=have'
p435
I597
sS'infmod=do'
p436
I90
sS'cc=and'
p437
I52
sS'w+2=asian'
p438
I214
sS'w+2=thrush'
p439
I407
sS'ccomp=expect'
p440
I55
sS'w+1=be'
p441
I173
sS'amod=various'
p442
I46
sS'det=whatever'
p443
I87
sS'w-2=ineffective'
p444
I603
sS'w+2=tb'
p445
I399
sS'w-2=140'
p446
I537
sS'w+2=economy'
p447
I264
sS'w-2=let'
p448
I609
sS'w+1=in'
p449
I181
sS'w+2=to'
p450
I409
sS'amod=western'
p451
I47
sS'w-2=pursue'
p452
I636
sS'w+1=it'
p453
I182
sS'nsubj=#PRP#'
p454
I109
sS'conj=diabetes'
p455
I59
sS'amod=right'
p456
I33
sS'w+2=violence'
p457
I422
sS'w-2=see'
p458
I647
sS'w+2=chicken'
p459
I240
sS'w-2=want'
p460
I669
sS'w+2=skin'
p461
I384
sS'w+2=general'
p462
I280
sS'cc=but'
p463
I53
sS'w-2=decide'
p464
I570
sS'amod=terrorist'
p465
I42
sS'w+2=lead'
p466
I321
sS'w+2=movie'
p467
I339
sS'amod=feudal'
p468
I17
sS'poss=#PRP#'
p469
I126
sS'w-2=in'
p470
I601
sS'w-2=century'
p471
I563
sS'w+2=class'
p472
I243
sS'w-2=schedule'
p473
I645
sS'w-2=retard'
p474
I643
sS'w+2=acquisition'
p475
I203
sS'w-2=find'
p476
I587
sS'w+2=workshop'
p477
I434
sS'w+1=-rrb-'
p478
I164
sS'w+2=school'
p479
I376
sS'amod=once'
p480
I30
sS'amod=obsessive'
p481
I29
sS'w-1=without'
p482
I527
sS'advmod=again'
p483
I1
sS'w-2=market'
p484
I613
sS'rcmod=occur'
p485
I154
sS'w+2=orderly'
p486
I349
sS'w+2=cancer'
p487
I233
sS'w+2=incident'
p488
I301
sS'w+2=orchestra'
p489
I348
sS'w-1=blood'
p490
I454
sS'w+2=engagement'
p491
I266
sS'w+2=envelope'
p492
I267
sS'w-2=be'
p493
I556
sS'w-1=its'
p494
I487
sS'w-2=demand'
p495
I571
sS'prep=of'
p496
I133
sS'amod=such'
p497
I41
sS'w-1=have'
p498
I479
sS'w+2=spacecraft'
p499
I387
sS'w+1=three'
p500
I188
sS'w-2=take'
p501
I654
sS'w-1=certain'
p502
I460
sS'w-1=exact'
p503
I473
sS'w-2=by'
p504
I560
sS'w+2=system'
p505
I397
sS'nsubj=which'
p506
I122
sS'w-2=F.'
p507
I543
sS'w-1=obsessive'
p508
I494
sS'w+2=democratic'
p509
I255
sS'dep=have'
p510
I71
sS'w+2=justice'
p511
I317
sS'w+2=election'
p512
I265
sS'w-2=avoid'
p513
I555
sS'w-1=commonly'
p514
I462
sS'w-2=give'
p515
I596
sS'amod=worn'
p516
I50
sS'amod=other'
p517
I31
sS'w-2=commit'
p518
I565
sS'w-2=Jemaah'
p519
I545
sS'w-1=silent'
p520
I502
sS'w-2=to'
p521
I660
sS'w+2=girl'
p522
I281
sS'w-2=what'
p523
I670
sS'w+2=fistula'
p524
I276
sS'w-2=get'
p525
I595
sS'w+2=blind'
p526
I225
sS'w-2=live'
p527
I611
sS'amod=silent'
p528
I37
sS'w-2=debate'
p529
I569
sS'w-2=quite'
p530
I637
sS'conj=melanoma'
p531
I61
sS'w+2=vaccine'
p532
I420
sS'w-2=general'
p533
I594
sS'nn=maintenance'
p534
I106
sS'w-1=this'
p535
I513
sS'w-1=of'
p536
I495
sS'conj=set'
p537
I63
sS'w+2=experiment'
p538
I270
sS'conj=method'
p539
I62
sS'w-2=more'
p540
I616
sS'amod=particular'
p541
I32
sS'w+2=and'
p542
I212
sS'w-2=and'
p543
I552
sS'amod=monovalent'
p544
I26
sS'w+2=drastic'
p545
I263
sS'rcmod=address'
p546
I135
sS'rcmod=make'
p547
I153
sS'w-2=one'
p548
I624
sS'nsubj=cancer'
p549
I113
sS'cop=be'
p550
I65
sS'w-2=any'
p551
I553
sS'w+1=relationship'
p552
I185
sS'w-2=limit'
p553
I610
sS'w+2=beer'
p554
I223
sS'w-1=same'
p555
I499
sS'w+2=attack'
p556
I216
sS'w+1=with'
p557
I192
sS'w-2=reduce'
p558
I639
sS'w+2=who'
p559
I429
sS'w-2=say'
p560
I644
sS'w+2=investment'
p561
I310
sS'w+2=into'
p562
I309
sS'w-2=much'
p563
I619
sS'poss=foreigner'
p564
I128
sS'nn=Islamiyah'
p565
I97
sS'prep=as'
p566
I130
sS'w+2=conscientious'
p567
I247
sS'w-2=.'
p568
I534
sS'w+2=leader'
p569
I322
sS'w-1=2'
p570
I441
sS'w-1=industry'
p571
I484
sS'w-2=but'
p572
I559
sS'w+2=joint'
p573
I316
sS'w-2=think'
p574
I658
sS'w-1=.'
p575
I440
sS'w-1=-'
p576
I438
sS'w-1=,'
p577
I437
sS'w-2=1'
p578
I535
sS'w+2=material'
p579
I331
sS'w+2=fish'
p580
I275
sS'w-2=fix'
p581
I588
sS'w+2=distortion'
p582
I260
sS'w-2=few'
p583
I586
sS'w-1=western'
p584
I522
sS'w-1=specific'
p585
I505
sS'w-2=prohibit'
p586
I633
sS'w-2=how'
p587
I598
sS'w-2=follow'
p588
I589
sS'amod=exact'
p589
I16
sS'w-2=other'
p590
I627
sS'w-1=I'
p591
I442
sS'w-2=free'
p592
I592
sS'w+2=government'
p593
I283
sS'w+2=interest'
p594
I307
sS'w+2=barbaric'
p595
I221
sS'w-2=a'
p596
I546
sS'w+1=fuel'
p597
I178
sS'w+2=programming'
p598
I364
sS'det=a'
p599
I75
sS'w-1=a'
p600
I447
sS'w-1=unlike'
p601
I519
sS'w-2=disease'
p602
I576
sS'w-1=Kennedy'
p603
I445
sS'w+2=program'
p604
I363
sS'amod=independent'
p605
I20
sS'w-1=-lrb-'
p606
I439
sS'w-1=he'
p607
I480
sS'rcmod=transmit'
p608
I159
sS'w+2=reader'
p609
I368
sS'infmod=protect'
p610
I91
sS'neg=never'
p611
I94
sS'w-1=interventionist'
p612
I486
sS'w+2=diabetes'
p613
I256
sS'w+2=recycle'
p614
I370
sS'w+2=weather'
p615
I427
sS'amod=several'
p616
I35
sS'w-2=issue'
p617
I606
sS'rcmod=work'
p618
I162
sS'w+2=situation'
p619
I381
sS'w+2=cholera-causing'
p620
I241
sS'w+2=stability'
p621
I388
sS'w+2=explosive'
p622
I271
sS'amod=many'
p623
I25
sS'w-1=what'
p624
I523
sS'w+2=have'
p625
I286
sS'amod=freakish'
p626
I18
sS'w-2=for'
p627
I590
sS'w-2=formal'
p628
I591
sS'w+2=assistance'
p629
I215
sS'w-1=counterinsurgency'
p630
I465
sS'w-1=cause'
p631
I457
sS'w-2=this'
p632
I659
sS'w+2=style'
p633
I393
sS'w+2=mortar'
p634
I337
sS'nsubj=Kalita'
p635
I111
sS'w-1=all'
p636
I450
sS'w-1=body'
p637
I455
sS'w+2=injury'
p638
I304
sS'w+2=scheme'
p639
I375
sS'w-1=century'
p640
I459
sS'w+2=supplies'
p641
I395
sS'dep=empowerment'
p642
I69
sS'w-1=Union'
p643
I446
sS'w-1=damaging'
p644
I466
sS'w+2=stress'
p645
I392
sS'w-2=discuss'
p646
I575
sS'w+2=type'
p647
I417
sS'w-2=report'
p648
I642
sS'w-1=for'
p649
I475
sS'w+1=,'
p650
I163
sS'w+1=.'
p651
I165
sS'w+1=1'
p652
I166
sS'w-2=that'
p653
I655
sS'w+1=3'
p654
I168
sS'w+1=2'
p655
I167
sS'w+2=.'
p656
I198
sS'w+2=,'
p657
I195
sS'w+2=-'
p658
I196
sS'neg=not'
p659
I95
sS'w-2=,'
p660
I531
sS'w-2=conclude'
p661
I566
sS'w-1=another'
p662
I452
sS'w-2=undergo'
p663
I664
sS'w+2=life'
p664
I327
sS'w+2=hurricane'
p665
I293
sS'amod=common'
p666
I11
sS'w+1=a'
p667
I170
sS'w-1=normal'
p668
I493
sS'w-2=coordinate'
p669
I567
sS'w+2=woman'
p670
I432
sS'w-2=because'
p671
I557
sS'w+2=business'
p672
I229
sS'w-1=that'
p673
I510
sS'w+2=document'
p674
I262
sS'advmod=only'
p675
I7
sS'amod=certain'
p676
I10
sS'w+2=b'
p677
I219
sS'w-1=freakish'
p678
I478
sS'w+2=a'
p679
I200
sS'w-2=European'
p680
I542
ssS'dtype'
p681
cnumpy
float64
p682
sS'feature_names_'
p683
(lp684
g248
ag483
ag421
ag91
ag228
ag264
ag94
ag675
ag17
ag46
ag676
ag666
ag351
ag339
ag372
ag25
ag589
ag468
ag626
ag214
ag605
ag109
ag267
ag429
ag304
ag623
ag544
ag354
ag370
ag481
ag480
ag517
ag541
ag456
ag303
ag616
ag79
ag528
ag242
ag280
ag376
ag497
ag465
ag147
ag402
ag165
ag442
ag451
ag412
ag153
ag516
ag252
ag437
ag463
ag224
ag440
ag95
ag76
ag78
ag455
ag355
ag531
ag539
ag537
ag39
ag550
ag250
ag233
ag182
ag642
ag187
ag510
ag24
ag364
ag81
ag599
ag156
ag336
ag308
ag411
ag222
ag301
ag172
ag173
ag237
ag231
ag249
ag443
ag195
ag371
ag436
ag610
ag66
ag64
ag611
ag659
ag51
ag565
ag321
ag136
ag54
ag367
ag317
ag357
ag396
ag47
ag534
ag144
ag240
ag454
ag201
ag635
ag269
ag549
ag36
ag27
ag97
ag413
ag33
ag297
ag268
ag63
ag506
ag415
ag260
ag337
ag469
ag386
ag564
ag9
ag566
ag117
ag309
ag496
ag257
ag546
ag28
ag191
ag178
ag427
ag384
ag127
ag282
ag162
ag158
ag263
ag406
ag328
ag171
ag302
ag326
ag82
ag320
ag547
ag485
ag408
ag246
ag30
ag391
ag608
ag289
ag72
ag618
ag650
ag478
ag651
ag652
ag655
ag654
ag409
ag667
ag227
ag126
ag441
ag424
ag184
ag431
ag119
ag597
ag168
ag23
ag449
ag453
ag68
ag404
ag552
ag32
ag112
ag500
ag300
ag229
ag238
ag557
ag185
ag417
ag657
ag658
ag107
ag656
ag298
ag679
ag401
ag395
ag475
ag211
ag60
ag275
ag213
ag290
ag286
ag418
ag323
ag542
ag41
ag438
ag629
ag556
ag204
ag255
ag677
ag244
ag595
ag111
ag554
ag140
ag526
ag62
ag270
ag377
ag672
ag19
ag105
ag210
ag487
ag208
ag206
ag362
ag220
ag74
ag219
ag459
ag620
ag20
ag472
ag273
ag83
ag121
ag567
ag388
ag334
ag279
ag93
ag235
ag378
ag399
ag509
ag613
ag345
ag110
ag392
ag582
ag398
ag674
ag545
ag447
ag512
ag491
ag492
ag31
ag103
ag538
ag622
ag294
ag296
ag215
ag580
ag524
ag67
ag59
ag383
ag462
ag522
ag262
ag593
ag44
ag434
ag625
ag138
ag410
ag200
ag169
ag368
ag177
ag665
ag90
ag85
ag329
ag239
ag56
ag335
ag87
ag488
ag236
ag394
ag638
ag217
ag175
ag594
ag198
ag562
ag561
ag116
ag96
ag14
ag151
ag174
ag573
ag511
ag122
ag88
ag266
ag466
ag569
ag316
ag77
ag37
ag43
ag664
ag358
ag230
ag131
ag579
ag130
ag379
ag145
ag366
ag192
ag634
ag253
ag467
ag305
ag166
ag274
ag143
ag69
ag29
ag393
ag278
ag489
ag486
ag180
ag331
ag342
ag125
ag332
ag347
ag344
ag318
ag141
ag160
ag123
ag101
ag11
ag604
ag598
ag292
ag291
ag407
ag609
ag259
ag614
ag124
ag312
ag360
ag190
ag639
ag479
ag52
ag194
ag400
ag313
ag619
ag128
ag71
ag461
ag154
ag13
ag499
ag621
ag16
ag346
ag120
ag645
ag633
ag258
ag641
ag149
ag505
ag243
ag445
ag58
ag70
ag353
ag254
ag148
ag272
ag226
ag439
ag50
ag450
ag261
ag137
ag314
ag104
ag84
ag333
ag186
ag647
ag102
ag99
ag532
ag10
ag457
ag363
ag199
ag225
ag108
ag615
ag155
ag559
ag100
ag277
ag670
ag167
ag477
ag281
ag256
ag577
ag576
ag606
ag575
ag570
ag591
ag48
ag241
ag603
ag643
ag600
ag374
ag139
ag636
ag306
ag662
ag419
ag490
ag637
ag216
ag631
ag181
ag640
ag502
ag430
ag514
ag403
ag207
ag630
ag644
ag212
ag352
ag114
ag423
ag283
ag129
ag503
ag21
ag649
ag203
ag284
ag678
ag498
ag607
ag53
ag142
ag118
ag571
ag365
ag612
ag494
ag245
ag8
ag385
ag247
ag40
ag668
ag508
ag536
ag349
ag356
ag152
ag555
ag38
ag414
ag520
ag135
ag80
ag585
ag375
ag134
ag205
ag389
ag673
ag150
ag433
ag535
ag98
ag293
ag106
ag189
ag193
ag601
ag34
ag422
ag584
ag624
ag15
ag209
ag223
ag482
ag42
ag295
ag325
ag660
ag390
ag299
ag568
ag578
ag163
ag446
ag341
ag115
ag315
ag132
ag680
ag507
ag361
ag519
ag596
ag221
ag133
ag416
ag310
ag202
ag543
ag551
ag61
ag513
ag493
ag671
ag311
ag572
ag504
ag159
ag420
ag471
ag350
ag518
ag661
ag669
ag75
ag529
ag464
ag495
ag432
ag322
ag343
ag646
ag602
ag288
ag196
ag426
ag218
ag157
ag251
ag397
ag382
ag26
ag583
ag476
ag581
ag588
ag627
ag628
ag592
ag45
ag533
ag525
ag515
ag435
ag587
ag387
ag161
ag470
ag164
ag444
ag330
ag340
ag617
ag348
ag373
ag448
ag553
ag527
ag73
ag484
ag405
ag327
ag540
ag287
ag18
ag563
ag35
ag183
ag146
ag188
ag548
ag92
ag179
ag590
ag369
ag12
ag380
ag319
ag86
ag586
ag425
ag65
ag452
ag530
ag55
ag558
ag285
ag338
ag648
ag474
ag560
ag473
ag232
ag458
ag265
ag234
ag271
ag170
ag381
ag113
ag501
ag653
ag57
ag197
ag574
ag632
ag521
ag307
ag428
ag49
ag663
ag89
ag176
ag276
ag324
ag460
ag523
ag22
ag359
asS'separator'
p685
S'='
sS'sparse'
p686
I01
sb.