ccopy_reg
_reconstructor
p1
(csklearn.feature_extraction.dict_vectorizer
DictVectorizer
p2
c__builtin__
object
p3
NtRp4
(dp5
S'vocabulary_'
p6
(dp7
S'prep=before'
p8
I190
sS'advcl=unbelievable'
p9
I11
sS'w-2=we'
p10
I530
sS'w+2=Jesse'
p11
I277
sS'dobj=anything'
p12
I95
sS'w+2=during'
p13
I303
sS'w+2=my'
p14
I327
sS'w-1=Nelson'
p15
I370
sS'w-2=diplomat'
p16
I484
sS'tmod=second'
p17
I205
sS'nsubj=child'
p18
I154
sS'advmod=well'
p19
I35
sS'w-1=McCoy'
p20
I368
sS'w+1=until'
p21
I264
sS'w-2=they'
p22
I524
sS'w-2=dystrophy'
p23
I488
sS'nsubj=choir'
p24
I155
sS'dobj=country'
p25
I101
sS'w+2=banal'
p26
I290
sS'nsubj=many'
p27
I163
sS'w-1=,'
p28
I359
sS'w+1=festive'
p29
I236
sS'xcomp=sway'
p30
I539
sS'w-2=flag'
p31
I492
sS'w-1=would'
p32
I433
sS'w-2=now'
p33
I506
sS'nsubj=schoolchildren'
p34
I169
sS'w-2=Catholics'
p35
I442
sS'w+1=always'
p36
I221
sS'w+2=we'
p37
I353
sS'w+2=hand'
p38
I309
sS'nsubjpass=prayer'
p39
I180
sS'w-2=reason'
p40
I512
sS'advmod=originally'
p41
I30
sS'w+2=peace'
p42
I335
sS'w+1=too'
p43
I263
sS'advmod=just'
p44
I26
sS'w-1=will'
p45
I431
sS'dobj=harmony'
p46
I107
sS'advmod=anymore'
p47
I19
sS'nsubj=Elvis'
p48
I134
sS'w-1=be'
p49
I381
sS'w-1=Andollo'
p50
I361
sS'dobj=gift'
p51
I106
sS'w-2=able'
p52
I466
sS'w+1=she'
p53
I257
sS'w-2=time'
p54
I526
sS'nsubj=leader'
p55
I162
sS'w-2=as'
p56
I472
sS'w+1=God'
p57
I213
sS'w-1=crowd'
p58
I391
sS'dobj=everything'
p59
I103
sS'mark=because'
p60
I127
sS'w-1=choir'
p61
I388
sS'w+1=on'
p62
I249
sS'dobj=prayer'
p63
I115
sS'ccomp=carry'
p64
I48
sS'dep=songbeing'
p65
I84
sS'w-2=continue'
p66
I483
sS'w-2=Justus'
p67
I451
sS'w-1=have'
p68
I397
sS'w-1=I'
p69
I366
sS'w-1=Congress'
p70
I363
sS'w+2=in'
p71
I316
sS'w-2=write'
p72
I535
sS'ccomp=have'
p73
I51
sS'w-1=could'
p74
I389
sS'w-2=Gio'
p75
I445
sS'advmod=once'
p76
I29
sS'prep=about'
p77
I185
sS'aux=can'
p78
I39
sS'complm=that'
p79
I60
sS'w-2=classic'
p80
I481
sS'nsubj=Ronnie'
p81
I144
sS'w-2=boy'
p82
I476
sS'w+1=for'
p83
I237
sS'w+2=world'
p84
I357
sS'w-1=you'
p85
I434
sS'advcl=be'
p86
I3
sS'w-2=that'
p87
I522
sS'w+1=the'
p88
I260
sS'w+1=they'
p89
I261
sS'advcl=announce'
p90
I2
sS'nsubjpass=#PRP#'
p91
I179
sS'advmod=too'
p92
I34
sS'prep=in'
p93
I195
sS'aux=would'
p94
I44
sS'nsubj=Iggy'
p95
I135
sS'dobj=song'
p96
I118
sS'w+1=rock'
p97
I255
sS'w+2=mdc'
p98
I323
sS'w+1=Bill'
p99
I211
sS'w-2=Luther'
p100
I453
sS'w+1=song'
p101
I258
sS'w-2=Theisz'
p102
I461
sS'w+2=spiritual'
p103
I345
sS'prep=to'
p104
I200
sS'tmod=jazz'
p105
I203
sS'nsubj=the'
p106
I175
sS'w+2=come'
p107
I301
sS'w-1=band'
p108
I380
sS'conj=make'
p109
I67
sS'w+1=and'
p110
I222
sS'w+2=how'
p111
I314
sS'dep=seat'
p112
I80
sS'nsubj=temptation'
p113
I173
sS'dobj=Mae'
p114
I91
sS'w+2=ethnic'
p115
I304
sS'w-2=piano'
p116
I510
sS'w+2=for'
p117
I306
sS'nsubj=grandmother'
p118
I160
sS'w+1=any'
p119
I225
sS'w-2=Willie'
p120
I465
sS'nsubj=that'
p121
I174
sS'w+1=or'
p122
I250
sS'w-2=Spector'
p123
I459
sS'w+2=paint'
p124
I334
sS'conj=Ritenour'
p125
I61
sS'nsubj=supporter'
p126
I172
sS'w-2=encourage'
p127
I489
sS'advcl=learn'
p128
I9
sS'nsubj=guy'
p129
I161
sS'w-1=in'
p130
I399
sS'w+2=slave'
p131
I341
sS'w-1=tune'
p132
I426
sS'dobj=rock'
p133
I117
sS'w+1=English'
p134
I212
sS'w+2=since'
p135
I340
sS'w+1=like'
p136
I246
sS'w-2=Miller'
p137
I454
sS'w-1=the'
p138
I422
sS'nsubj=Nelson'
p139
I142
sS'partmod=weep'
p140
I184
sS'mark=if'
p141
I128
sS'w-2=well'
p142
I531
sS'dep=banal'
p143
I77
sS'nsubj=Theisz'
p144
I146
sS'nsubj=american'
p145
I149
sS'w+2=lot'
p146
I322
sS'nsubj=Jones'
p147
I138
sS'w-2=agree'
p148
I468
sS'nsubj=Thompson'
p149
I147
sS'ccomp=hold'
p150
I52
sS'w-2=17'
p151
I439
sS'advcl=country'
p152
I5
sS'w+2=music'
p153
I326
sS'w+2=too'
p154
I350
sS'w+2=national'
p155
I328
sS'w+2=restaurant'
p156
I339
sS'prep=by'
p157
I191
sS'w-2=Linda'
p158
I452
sS'w+2=cappellum'
p159
I298
sS'dobj=praise'
p160
I114
sS'conj=star'
p161
I71
sS'nsubj=best'
p162
I151
sS'w+2=honor'
p163
I313
sS'nsubj=who'
p164
I177
sS'w-2=bucket'
p165
I477
sS'w-2=of'
p166
I507
sS'w+2=old'
p167
I330
sS'partmod=point'
p168
I183
sS'w-1=to'
p169
I424
sS'w+2=feeling'
p170
I305
sS'w-1=supporter'
p171
I418
sS'dobj=version'
p172
I122
sS'w+1=that'
p173
I259
sS'dobj=#PRP#'
p174
I88
sS'conj=dance'
p175
I65
sS'nsubj=friend'
p176
I159
sS'nsubj=boy'
p177
I152
sS'dobj=morna'
p178
I112
sS'w+1=you'
p179
I267
sS'dobj=music'
p180
I113
sS'w-2=everything'
p181
I490
sS'w-1=Elvis'
p182
I364
sS'nsubj=singer'
p183
I170
sS'w+2=can'
p184
I297
sS'w+2=hundred'
p185
I315
sS'w+1=as'
p186
I228
sS'w-2=another'
p187
I470
sS'w+2=welcome'
p188
I354
sS'w+1=at'
p189
I229
sS'w-2=california-based'
p190
I478
sS'w+1=he'
p191
I242
sS'nsubj=Mutuku'
p192
I141
sS'w-1=currently'
p193
I392
sS'w-2=compose'
p194
I482
sS'w-1=country'
p195
I390
sS'w+1=Mozart'
p196
I214
sS'nsubj=Joel'
p197
I137
sS'w-1=can'
p198
I385
sS'w-2=Joel'
p199
I450
sS'w+1=everything'
p200
I235
sS'w-2=Plant'
p201
I457
sS'xcomp=honor'
p202
I538
sS'w+2=because'
p203
I291
sS'advmod=ever'
p204
I23
sS'conj=beg'
p205
I62
sS'w+2=own'
p206
I333
sS'advmod=when'
p207
I36
sS'conj=wear'
p208
I72
sS'w+2=Mae'
p209
I279
sS'dobj=feeling'
p210
I105
sS'w-2=she'
p211
I513
sS'prep=for'
p212
I193
sS'advmod=along'
p213
I16
sS'dep=that'
p214
I85
sS'conj=praise'
p215
I69
sS'dep=Cole'
p216
I74
sS'nsubj=Andollo'
p217
I131
sS'w+2=whole'
p218
I355
sS'w+2=at'
p219
I289
sS'advcl=want'
p220
I13
sS'advmod=whenever'
p221
I37
sS'w-2=guitar'
p222
I496
sS'w-1=once'
p223
I405
sS'dobj=rap'
p224
I116
sS'auxpass=be'
p225
I45
sS'advmod=louder'
p226
I27
sS'advmod=always'
p227
I18
sS'nsubj=crowd'
p228
I156
sS'w-1=Shaw'
p229
I371
sS'advcl=American'
p230
I0
sS'conj=yeah'
p231
I73
sS'w-2=whenever'
p232
I533
sS'w-2=singer'
p233
I516
sS'advmod=internationally'
p234
I25
sS'w-2=drum'
p235
I487
sS'w-1=Bocelli'
p236
I362
sS'w-2=shout'
p237
I514
sS'w-2=Bradley'
p238
I441
sS'w+2=play'
p239
I336
sS'w+2=swing'
p240
I346
sS'w-1=House'
p241
I365
sS'w-1=Iggy'
p242
I367
sS'dobj=lot'
p243
I110
sS'nsubj=fan'
p244
I158
sS'nsubj=reveler'
p245
I168
sS'dobj=favorite'
p246
I104
sS'nsubj=Seeger'
p247
I145
sS'conj=do'
p248
I66
sS'w+2=blues'
p249
I296
sS'w+2=song'
p250
I343
sS'advcl=wear'
p251
I14
sS'w+1=professionally'
p252
I253
sS'ccomp=time'
p253
I58
sS"w-2=''"
p254
I435
sS'advcl=bid'
p255
I4
sS'w+2=of'
p256
I329
sS'w-2=White'
p257
I464
sS'w+2=on'
p258
I331
sS'w+1=to'
p259
I262
sS'w+2=he'
p260
I310
sS'w-1=internationally'
p261
I400
sS'w+2=just'
p262
I318
sS'w-2=mark'
p263
I501
sS'advcl=wait'
p264
I12
sS'w+1=seat'
p265
I256
sS'ccomp=praise'
p266
I54
sS'nsubj=Lowen'
p267
I139
sS'w+1=harmony'
p268
I241
sS'w+2=accompany'
p269
I286
sS"w-2='s"
p270
I436
sS'advcl=lay'
p271
I8
sS'w-1=she'
p272
I411
sS'w-1=never'
p273
I403
sS'w+2=from'
p274
I307
sS'advmod=professionally'
p275
I31
sS'w-2=young'
p276
I537
sS'w-2=one'
p277
I508
sS'w-2=play'
p278
I511
sS'dobj=anthem'
p279
I93
sS'w+2=beg'
p280
I292
sS'w-2=go'
p281
I494
sS'conj=play'
p282
I68
sS'w+1=because'
p283
I230
sS'w+1=gospel'
p284
I239
sS'w+1=happy'
p285
I240
sS'ccomp=welcome'
p286
I59
sS'dobj=spiritual'
p287
I119
sS'w-1=people'
p288
I409
sS'ccomp=shy'
p289
I56
sS'w+1=mostly'
p290
I248
sS'w-1=cantor'
p291
I386
sS'w+2=this'
p292
I349
sS'w+2=Bless'
p293
I273
sS'w+1=peace'
p294
I251
sS'dobj=swing'
p295
I120
sS'advmod=even'
p296
I22
sS'w-1=other'
p297
I408
sS'w+2=mournful'
p298
I325
sS'w-1=always'
p299
I376
sS'ccomp=include'
p300
I53
sS'conj=recount'
p301
I70
sS'w-2=Tibet'
p302
I462
sS'w-2=the'
p303
I523
sS'dep=so'
p304
I83
sS'dobj=drum'
p305
I102
sS'dobj=t.k.o'
p306
I121
sS'w+2=Monroe'
p307
I281
sS'aux=will'
p308
I43
sS'w-2=Darfur'
p309
I443
sS'w+2=carry'
p310
I300
sS'dobj=Ave'
p311
I90
sS'expl=there'
p312
I124
sS'w+2=Sinatra'
p313
I282
sS'w+1=war'
p314
I265
sS'w+2=another'
p315
I288
sS'nsubj=people'
p316
I167
sS'prep=with'
p317
I201
sS'cc=or'
p318
I47
sS'nsubj=driver'
p319
I157
sS'nsubj=cantor'
p320
I153
sS'w-2=never'
p321
I505
sS'w+1=reggae'
p322
I254
sS'w-2=National'
p323
I455
sS'w-1=singer'
p324
I412
sS'w+2=fuel'
p325
I308
sS'w+1=morna'
p326
I247
sS'nsubj=Miller'
p327
I140
sS'w-1=Zamajobe'
p328
I374
sS'w-2=Hanson'
p329
I446
sS'advmod=spontaneously'
p330
I33
sS'advmod=about'
p331
I15
sS'w+2=dance'
p332
I302
sS"w+2=''"
p333
I268
sS'w-1=version'
p334
I427
sS'advmod=also'
p335
I17
sS'w+1=anymore'
p336
I226
sS'w-1=originally'
p337
I407
sS'mark=although'
p338
I125
sS'dobj=life'
p339
I109
sS'w-2=Andrea'
p340
I440
sS'w-1=friend'
p341
I395
sS'w+1=ever'
p342
I234
sS'conj=cope'
p343
I64
sS'w+2=Asians'
p344
I272
sS'ccomp=stop'
p345
I57
sS'w-2=have'
p346
I497
sS'dobj=classic'
p347
I99
sS'dobj=any'
p348
I94
sS'advmod=currently'
p349
I21
sS'w-1=it'
p350
I401
sS'w+1=by'
p351
I231
sS'nsubj=Zamajobe'
p352
I148
sS'w-1=just'
p353
I402
sS'w+2=turkish'
p354
I351
sS'w-1=but'
p355
I384
sS"w+2='s"
p356
I269
sS'w-2=when'
p357
I532
sS'w-1=Wade'
p358
I373
sS'nsubj=official'
p359
I166
sS'w+1=in'
p360
I244
sS'w+1=it'
p361
I245
sS'nsubj=#PRP#'
p362
I130
sS'w+1=about'
p363
I218
sS'w+2=George'
p364
I275
sS'w-2=want'
p365
I529
sS"w+1=''"
p366
I206
sS'nsubj=ofbrother'
p367
I165
sS'dep=over'
p368
I79
sS'dep=anthem'
p369
I76
sS'w-1=world'
p370
I432
sS'dobj=mix'
p371
I111
sS'w-2=spiritual'
p372
I520
sS'dobj=#NUMBER#'
p373
I87
sS'aux=could'
p374
I40
sS'prep=like'
p375
I196
sS'w-2=President'
p376
I458
sS'nsubj=James'
p377
I136
sS'w-2=show'
p378
I515
sS'w+2=way'
p379
I352
sS'w+1=along'
p380
I220
sS'w-2=unknown'
p381
I528
sS'w+2=kind'
p382
I319
sS'w-2=center'
p383
I479
sS'w+2=rap'
p384
I338
sS'w-2=like'
p385
I500
sS'nsubj=Plant'
p386
I143
sS'w+2=indonesian'
p387
I317
sS'w-2=my'
p388
I503
sS'tmod=overseas'
p389
I204
sS'w-2=bear'
p390
I474
sS'w-2=be'
p391
I473
sS'prep=of'
p392
I197
sS'nsubj=this'
p393
I176
sS'prep=on'
p394
I198
sS'w+2=slogan'
p395
I342
sS'w+2=hold'
p396
I312
sS'w-2=something'
p397
I519
sS'w+2=mix'
p398
I324
sS'w-2=Victoria'
p399
I463
sS'ccomp=different'
p400
I49
sS'dep=come'
p401
I78
sS'w+2=hit'
p402
I311
sS'w-1=fan'
p403
I394
sS'w-2=singing'
p404
I517
sS'w+1=all'
p405
I219
sS'w-2=studio'
p406
I521
sS'nsubj=woman'
p407
I178
sS'nsubj=band'
p408
I150
sS'dep=about'
p409
I75
sS'dobj=blues'
p410
I98
sS'ccomp=provide'
p411
I55
sS'w-1=who'
p412
I430
sS'w-1=child'
p413
I387
sS'w-1=or'
p414
I406
sS'w-1=stop'
p415
I417
sS'w+2=Dinah'
p416
I274
sS'dobj=composition'
p417
I100
sS'w-2=more'
p418
I502
sS'w-2=to'
p419
I527
sS'w+2=and'
p420
I287
sS'tmod=#DATE#'
p421
I202
sS'w-2=and'
p422
I469
sS'advmod=softer'
p423
I32
sS'w-1=start'
p424
I416
sS'w+1=12'
p425
I209
sS'w-2=national'
p426
I504
sS'prep=across'
p427
I186
sS'w+2=Lee'
p428
I278
sS'dobj=America'
p429
I89
sS'w-2=he'
p430
I498
sS'conj=colleague'
p431
I63
sS'prep=since'
p432
I199
sS'advcl=like'
p433
I10
sS'advmod=now'
p434
I28
sS'w-2=grandparent'
p435
I495
sS'w-2=do'
p436
I485
sS'advcl=feel'
p437
I7
sS'prep=at'
p438
I189
sS'w-2=will'
p439
I534
sS'prep=as'
p440
I188
sS'w-2=,'
p441
I437
sS'dep=sing'
p442
I81
sS'w-2=.'
p443
I438
sS'w-1=together'
p444
I425
sS'w-1=and'
p445
I377
sS'aux=have'
p446
I41
sS'w-2=somebody'
p447
I518
sS'w-2=girl'
p448
I493
sS'dobj=birthday'
p449
I97
sS'dobj=kind'
p450
I108
sS'advcl=die'
p451
I6
sS'w-2=I'
p452
I447
sS'w-1=Thompson'
p453
I372
sS'w-2=act'
p454
I467
sS'w+1=himself'
p455
I243
sS'w-2=how'
p456
I499
sS'w+2=lady'
p457
I320
sS'w+1=another'
p458
I223
sS'w+2=you'
p459
I358
sS'w+1=popular'
p460
I252
sS'w+1=during'
p461
I233
sS'dep=version'
p462
I86
sS'w-2=out'
p463
I509
sS'w-2=arrive'
p464
I471
sS'w-2=Jane'
p465
I449
sS'w-1=they'
p466
I423
sS'w-1=when'
p467
I429
sS'nsubjpass=which'
p468
I182
sS'mark=as'
p469
I126
sS'w-1=he'
p470
I398
sS'w+1=anything'
p471
I227
sS'w-1=-rrb-'
p472
I360
sS'nsubj=Catholics'
p473
I133
sS'w+1=from'
p474
I238
sS'neg=never'
p475
I129
sS'dep=sniper'
p476
I82
sS'w+2=they'
p477
I348
sS'w-1=songbeing'
p478
I414
sS'prep=after'
p479
I187
sS'w+2=best'
p480
I293
sS'ccomp=do'
p481
I50
sS'w-2=fighter'
p482
I491
sS'w-1=somebody'
p483
I413
sS'w+1=anti-government'
p484
I224
sS'w+1=with'
p485
I266
sS'w-2=drive'
p486
I486
sS'w+2=birthday'
p487
I294
sS'dobj=Monroe'
p488
I92
sS'advmod=before'
p489
I20
sS'w-2=this'
p490
I525
sS'w-1=also'
p491
I375
sS'advmod=how'
p492
I24
sS'w-1=even'
p493
I393
sS'w-1=Mutuku'
p494
I369
sS'w+2=soul'
p495
I344
sS'prep=from'
p496
I194
sS'w-2=Tabaski'
p497
I460
sS'w+2=other'
p498
I332
sS'cc=and'
p499
I46
sS'w-1=boy'
p500
I383
sS'w+2=Janet'
p501
I276
sS'nsubjpass=song'
p502
I181
sS'w-1=we'
p503
I428
sS'w-1=artist'
p504
I379
sS'aux=to'
p505
I42
sS'w-2=you'
p506
I536
sS'w+2=Marvin'
p507
I280
sS'w-2=because'
p508
I475
sS'w+2=the'
p509
I347
sS'w-1=ofbrother'
p510
I404
sS'w+2=praise'
p511
I337
sS'w+2=likewise'
p512
I321
sS'w+1=country'
p513
I232
sS'w+1=,'
p514
I207
sS'w+1=.'
p515
I208
sS'w+2=.'
p516
I271
sS'w+2=,'
p517
I270
sS'advcl=after'
p518
I1
sS'w+2=about'
p519
I285
sS'w+1=?'
p520
I210
sS'w-1=temptation'
p521
I419
sS'nsubj=member'
p522
I164
sS'prep=during'
p523
I192
sS'w-2=cheer'
p524
I480
sS'nsubj=Bocelli'
p525
I132
sS'dobj=way'
p526
I123
sS'w-1=spontaneously'
p527
I415
sS'w+2=caretaker'
p528
I299
sS'w-2=Elvis'
p529
I444
sS'w-2=Navarro'
p530
I456
sS'w-1=reveler'
p531
I410
sS'w+1=a'
p532
I217
sS'w+1=`'
p533
I216
sS'w-1=anthem'
p534
I378
sS'w-1=begin'
p535
I382
sS'w+2=bit'
p536
I295
sS'w-1=than'
p537
I420
sS'w+2=woman'
p538
I356
sS'w-1=grandmother'
p539
I396
sS'dobj=best'
p540
I96
sS'w-1=that'
p541
I421
sS'aux=be'
p542
I38
sS'w-2=James'
p543
I448
sS'w+1=Rita'
p544
I215
sS'nsubj=somebody'
p545
I171
sS'w+2=`'
p546
I283
sS'w+2=a'
p547
I284
ssS'dtype'
p548
cnumpy
float64
p549
sS'feature_names_'
p550
(lp551
g230
ag518
ag90
ag86
ag255
ag152
ag451
ag437
ag271
ag128
ag433
ag9
ag264
ag220
ag251
ag331
ag213
ag335
ag227
ag47
ag489
ag349
ag296
ag204
ag492
ag234
ag44
ag226
ag434
ag76
ag41
ag275
ag423
ag330
ag92
ag19
ag207
ag221
ag542
ag78
ag374
ag446
ag505
ag308
ag94
ag225
ag499
ag318
ag64
ag400
ag481
ag73
ag150
ag300
ag266
ag411
ag289
ag345
ag253
ag286
ag79
ag125
ag205
ag431
ag343
ag175
ag248
ag109
ag282
ag215
ag301
ag161
ag208
ag231
ag216
ag409
ag369
ag143
ag401
ag368
ag112
ag442
ag476
ag304
ag65
ag214
ag462
ag373
ag174
ag429
ag311
ag114
ag488
ag279
ag348
ag12
ag540
ag449
ag410
ag347
ag417
ag25
ag305
ag59
ag246
ag210
ag51
ag46
ag450
ag339
ag243
ag371
ag178
ag180
ag160
ag63
ag224
ag133
ag96
ag287
ag295
ag306
ag172
ag526
ag312
ag338
ag469
ag60
ag141
ag475
ag362
ag217
ag525
ag473
ag48
ag95
ag377
ag197
ag147
ag267
ag327
ag192
ag139
ag386
ag81
ag247
ag144
ag149
ag352
ag145
ag408
ag162
ag177
ag320
ag18
ag24
ag228
ag319
ag244
ag176
ag118
ag129
ag55
ag27
ag522
ag367
ag359
ag316
ag245
ag34
ag183
ag545
ag126
ag113
ag121
ag106
ag393
ag164
ag407
ag91
ag39
ag502
ag468
ag168
ag140
ag77
ag427
ag479
ag440
ag438
ag8
ag157
ag523
ag212
ag496
ag93
ag375
ag392
ag394
ag432
ag104
ag317
ag421
ag105
ag389
ag17
ag366
ag514
ag515
ag425
ag520
ag99
ag134
ag57
ag196
ag544
ag533
ag532
ag363
ag405
ag380
ag36
ag110
ag458
ag484
ag119
ag336
ag471
ag186
ag189
ag283
ag351
ag513
ag461
ag342
ag200
ag29
ag83
ag474
ag284
ag285
ag268
ag191
ag455
ag360
ag361
ag136
ag326
ag290
ag62
ag122
ag294
ag460
ag252
ag322
ag97
ag265
ag53
ag101
ag173
ag88
ag89
ag259
ag43
ag21
ag314
ag485
ag179
ag333
ag356
ag517
ag516
ag344
ag293
ag416
ag364
ag501
ag11
ag428
ag209
ag507
ag307
ag313
ag546
ag547
ag519
ag269
ag420
ag315
ag219
ag26
ag203
ag280
ag480
ag487
ag536
ag249
ag184
ag159
ag528
ag310
ag107
ag332
ag13
ag115
ag170
ag117
ag274
ag325
ag38
ag260
ag402
ag396
ag163
ag111
ag185
ag71
ag387
ag262
ag382
ag457
ag512
ag146
ag98
ag398
ag298
ag153
ag14
ag155
ag256
ag167
ag258
ag498
ag206
ag124
ag42
ag239
ag511
ag384
ag156
ag135
ag131
ag395
ag250
ag495
ag103
ag240
ag509
ag477
ag292
ag154
ag354
ag379
ag37
ag188
ag218
ag538
ag84
ag459
ag28
ag472
ag50
ag236
ag70
ag182
ag241
ag69
ag242
ag20
ag494
ag15
ag229
ag453
ag358
ag328
ag491
ag299
ag445
ag534
ag504
ag108
ag49
ag535
ag500
ag355
ag198
ag291
ag413
ag61
ag74
ag195
ag58
ag193
ag493
ag403
ag341
ag539
ag68
ag470
ag130
ag261
ag350
ag353
ag273
ag510
ag223
ag414
ag337
ag297
ag288
ag531
ag272
ag324
ag483
ag478
ag527
ag424
ag415
ag171
ag521
ag537
ag541
ag138
ag466
ag169
ag444
ag132
ag334
ag503
ag467
ag412
ag45
ag370
ag32
ag85
ag254
ag270
ag441
ag443
ag151
ag340
ag238
ag35
ag309
ag529
ag75
ag329
ag452
ag543
ag465
ag199
ag67
ag158
ag100
ag137
ag323
ag530
ag201
ag376
ag123
ag497
ag102
ag302
ag399
ag257
ag120
ag52
ag454
ag148
ag422
ag187
ag464
ag56
ag391
ag390
ag508
ag82
ag165
ag190
ag383
ag524
ag80
ag194
ag66
ag16
ag436
ag486
ag235
ag23
ag127
ag181
ag482
ag31
ag448
ag281
ag435
ag222
ag346
ag430
ag456
ag385
ag263
ag418
ag388
ag426
ag321
ag33
ag166
ag277
ag463
ag116
ag278
ag40
ag211
ag237
ag378
ag233
ag404
ag447
ag397
ag372
ag406
ag87
ag303
ag22
ag490
ag54
ag419
ag381
ag365
ag10
ag142
ag357
ag232
ag439
ag72
ag506
ag276
ag202
ag30
asS'separator'
p552
S'='
sS'sparse'
p553
I01
sb.