ccopy_reg
_reconstructor
p1
(csklearn.feature_extraction.dict_vectorizer
DictVectorizer
p2
c__builtin__
object
p3
NtRp4
(dp5
S'vocabulary_'
p6
(dp7
S'w-1=individual'
p8
I70
sS'w-1=multiple'
p9
I73
sS'w-1=center'
p10
I66
sS'w-1=rock'
p11
I78
sS'amod=multi-colored'
p12
I7
sS'nsubj=this'
p13
I24
sS'w-2=scrape'
p14
I102
sS'amod=individual'
p15
I5
sS'w-1=top'
p16
I83
sS'det=another'
p17
I19
sS'det=the'
p18
I21
sS'w-1=away'
p19
I65
sS'rcmod=remove'
p20
I30
sS'w-2=into'
p21
I96
sS'w-1=through'
p22
I82
sS'w-2=just'
p23
I97
sS'w+2=federal'
p24
I49
sS'det=all'
p25
I18
sS'w-1=of'
p26
I75
sS'w-2=Iraq'
p27
I86
sS'w-1=multi-colored'
p28
I72
sS'w-2=to'
p29
I105
sS'w-2=expose'
p30
I90
sS'w-2=five'
p31
I91
sS'w-1=two'
p32
I84
sS'w+1=that'
p33
I38
sS'amod=dense'
p34
I2
sS'w-2=destroy'
p35
I89
sS'amod=multiple'
p36
I8
sS'w-2=one'
p37
I100
sS'cop=be'
p38
I16
sS'amod=new'
p39
I9
sS'w-1=new'
p40
I74
sS'w-2=peel'
p41
I101
sS'advmod=just'
p42
I0
sS'w+2=the'
p43
I60
sS'w-2=,'
p44
I85
sS'rcmod=tell'
p45
I31
sS'amod=dirty'
p46
I3
sS'w+2=ethiopian'
p47
I47
sS'w-2=the'
p48
I104
sS'w-2=in'
p49
I93
sS'poss=Iraq'
p50
I26
sS'w-2=how'
p51
I92
sS'w-1=middle'
p52
I71
sS'w+2=co-operation'
p53
I46
sS'w+1=of'
p54
I36
sS'w+1=on'
p55
I37
sS'w-2=a'
p56
I87
sS'w-2=lot'
p57
I98
sS'det=a'
p58
I17
sS'w+2=civil'
p59
I45
sS'w+2=fencing'
p60
I50
sS'num=#NUMBER#'
p61
I25
sS'w+2=security'
p62
I56
sS'conj=continue'
p63
I15
sS'w-1=thin'
p64
I81
sS'amod=thin'
p65
I12
sS'w-1=dirty'
p66
I68
sS'w+2=everything'
p67
I48
sS'w+2=tell'
p68
I59
sS'w-1=protective'
p69
I77
sS'w+2=Australia'
p70
I40
sS'w-1=one'
p71
I76
sS"w-1='s"
p72
I61
sS'amod=several'
p73
I11
sS'amod=middle'
p74
I6
sS'w+2=insulate'
p75
I52
sS'amod=top'
p76
I13
sS'amod=protective'
p77
I10
sS'amod=add'
p78
I1
sS'w+2=bedrock'
p79
I44
sS'cc=and'
p80
I14
sS'w+2=significance'
p81
I58
sS'w-2=that'
p82
I103
sS'w+1=be'
p83
I34
sS'w-1=add'
p84
I62
sS'w+2=gravel'
p85
I51
sS'prep=in'
p86
I27
sS'w-1=dense'
p87
I67
sS'nn=center'
p88
I22
sS'w+1=in'
p89
I35
sS'w-1=all'
p90
I63
sS'det=every'
p91
I20
sS'w+2=sediment'
p92
I57
sS'w-2=infiltrate'
p93
I94
sS'amod=expose'
p94
I4
sS'w-2=off'
p95
I99
sS'w+2=aluminum'
p96
I41
sS'w-1=several'
p97
I79
sS'w+1=,'
p98
I32
sS'w+1=.'
p99
I33
sS'w+1=to'
p100
I39
sS'w-1=every'
p101
I69
sS'w+2=paint'
p102
I54
sS'w-1=another'
p103
I64
sS'w+2=mean'
p104
I53
sS'nn=rock'
p105
I23
sS'w+2=rotten'
p106
I55
sS'w-2=inspect'
p107
I95
sS'prep=of'
p108
I28
sS'w+2=atom'
p109
I43
sS'w-1=the'
p110
I80
sS'prep=on'
p111
I29
sS'w+2=ancient'
p112
I42
sS'w-2=add'
p113
I88
ssS'dtype'
p114
cnumpy
float64
p115
sS'feature_names_'
p116
(lp117
g42
ag78
ag34
ag46
ag94
ag15
ag74
ag12
ag36
ag39
ag77
ag73
ag65
ag76
ag80
ag63
ag38
ag58
ag25
ag17
ag91
ag18
ag88
ag105
ag13
ag61
ag50
ag86
ag108
ag111
ag20
ag45
ag98
ag99
ag83
ag89
ag54
ag55
ag33
ag100
ag70
ag96
ag112
ag109
ag79
ag59
ag53
ag47
ag67
ag24
ag60
ag85
ag75
ag104
ag102
ag106
ag62
ag92
ag81
ag68
ag43
ag72
ag84
ag90
ag103
ag19
ag10
ag87
ag66
ag101
ag8
ag52
ag28
ag9
ag40
ag26
ag71
ag69
ag11
ag97
ag110
ag64
ag22
ag16
ag32
ag44
ag27
ag56
ag113
ag35
ag30
ag31
ag51
ag49
ag93
ag107
ag21
ag23
ag57
ag95
ag37
ag41
ag14
ag82
ag48
ag29
asS'separator'
p118
S'='
sS'sparse'
p119
I01
sb.