ccopy_reg
_reconstructor
p1
(csklearn.feature_extraction.dict_vectorizer
DictVectorizer
p2
c__builtin__
object
p3
NtRp4
(dp5
S'sort'
p6
I01
sS'feature_names_'
p7
(lp8
S'advcl=be'
p9
aS'advcl=continue'
p10
aS'advcl=try'
p11
aS'advmod=already'
p12
aS'advmod=also'
p13
aS'advmod=always'
p14
aS'advmod=around'
p15
aS'advmod=long'
p16
aS'advmod=out'
p17
aS'advmod=outside'
p18
aS'advmod=proudly'
p19
aS'advmod=then'
p20
aS'advmod=when'
p21
aS'advmod=where'
p22
aS'aux=be'
p23
aS'aux=have'
p24
aS'aux=to'
p25
aS'aux=will'
p26
aS'aux=would'
p27
aS'auxpass=be'
p28
aS'cc=and'
p29
aS'ccomp=begin'
p30
aS'ccomp=protest'
p31
aS'ccomp=say'
p32
aS'complm=that'
p33
aS'conj=escape'
p34
aS'conj=go'
p35
aS'conj=pour'
p36
aS'conj=protect'
p37
aS'conj=rampage'
p38
aS'conj=seep'
p39
aS'dep=as'
p40
aS'dobj=#NUMBER#'
p41
aS'dobj=#PRP#'
p42
aS'dobj=Emergent'
p43
aS'dobj=Juba'
p44
aS'dobj=amount'
p45
aS'dobj=blood'
p46
aS'dobj=contents'
p47
aS'dobj=cup'
p48
aS'dobj=fuel'
p49
aS'dobj=fund'
p50
aS'dobj=heart'
p51
aS'dobj=money'
p52
aS'dobj=oil'
p53
aS'dobj=rain'
p54
aS'dobj=sample'
p55
aS'dobj=spoonful'
p56
aS'dobj=stretch'
p57
aS'dobj=water'
p58
aS'iobj=un'
p59
aS'mark=as'
p60
aS'mark=for'
p61
aS'mark=like'
p62
aS'nsubj=#NUMBER#'
p63
aS'nsubj=#PRP#'
p64
aS'nsubj=Chavez'
p65
aS'nsubj=Crystie'
p66
aS'nsubj=Egyptians'
p67
aS'nsubj=Korea'
p68
aS'nsubj=Lapaparat'
p69
aS'nsubj=Palestinians'
p70
aS'nsubj=South'
p71
aS'nsubj=States'
p72
aS'nsubj=agency'
p73
aS'nsubj=aid'
p74
aS'nsubj=amount'
p75
aS'nsubj=band'
p76
aS'nsubj=capitalist'
p77
aS'nsubj=cauri'
p78
aS'nsubj=cloud'
p79
aS'nsubj=condemnation'
p80
aS'nsubj=congratulation'
p81
aS'nsubj=descendant'
p82
aS'nsubj=donation'
p83
aS'nsubj=investor'
p84
aS'nsubj=job'
p85
aS'nsubj=militia'
p86
aS'nsubj=money'
p87
aS'nsubj=offer'
p88
aS'nsubj=oil'
p89
aS'nsubj=people'
p90
aS'nsubj=pledge'
p91
aS'nsubj=protester'
p92
aS'nsubj=supporter'
p93
aS'nsubj=taxpayer'
p94
aS'nsubj=teacher'
p95
aS'nsubj=that'
p96
aS'nsubj=ton'
p97
aS'nsubj=tribute'
p98
aS'nsubj=troops'
p99
aS'nsubj=who'
p100
aS'nsubjpass=#PRP#'
p101
aS'nsubjpass=clay'
p102
aS'nsubjpass=fece'
p103
aS'nsubjpass=money'
p104
aS'nsubjpass=water'
p105
aS'parataxis=operate'
p106
aS'partmod=drop'
p107
aS'partmod=lead'
p108
aS'partmod=route'
p109
aS'prep=about'
p110
aS'prep=before'
p111
aS'prep=from'
p112
aS'prep=in'
p113
aS'prep=into'
p114
aS'prep=of'
p115
aS'prep=on'
p116
aS'prep=over'
p117
aS'prep=through'
p118
aS'prep=with'
p119
aS'prt=down'
p120
aS'prt=in'
p121
aS'prt=out'
p122
aS'rel=in'
p123
aS'w+1=around'
p124
aS'w+1=billion'
p125
aS'w+1=blood'
p126
aS'w+1=down'
p127
aS'w+1=from'
p128
aS'w+1=fuel'
p129
aS'w+1=in'
p130
aS'w+1=into'
p131
aS'w+1=it'
p132
aS'w+1=large'
p133
aS'w+1=massive'
p134
aS'w+1=money'
p135
aS'w+1=oil'
p136
aS'w+1=out'
p137
aS'w+1=over'
p138
aS'w+1=rain'
p139
aS'w+1=sample'
p140
aS'w+1=so'
p141
aS'w+1=spoonful'
p142
aS'w+1=steam'
p143
aS'w+1=the'
p144
aS'w+1=un'
p145
aS'w+1=water'
p146
aS'w+1=we'
p147
aS'w+2=,'
p148
aS'w+2=.'
p149
aS'w+2=20,000'
p150
aS'w+2=Africa'
p151
aS'w+2=Beirut'
p152
aS'w+2=Benin'
p153
aS'w+2=Canberra'
p154
aS'w+2=Congo'
p155
aS'w+2=New'
p156
aS'w+2=Rafah'
p157
aS'w+2=Tombstone'
p158
aS'w+2=a'
p159
aS'w+2=amount'
p160
aS'w+2=and'
p161
aS'w+2=asian'
p162
aS'w+2=contents'
p163
aS'w+2=cup'
p164
aS'w+2=even'
p165
aS'w+2=exploit'
p166
aS'w+2=from'
p167
aS'w+2=fund'
p168
aS'w+2=into'
p169
aS'w+2=investment'
p170
aS'w+2=it'
p171
aS'w+2=just'
p172
aS'w+2=let'
p173
aS'w+2=long'
p174
aS'w+2=money'
p175
aS'w+2=much'
p176
aS'w+2=neighbor'
p177
aS'w+2=of'
p178
aS'w+2=on'
p179
aS'w+2=outside'
p180
aS'w+2=south'
p181
aS'w+2=that'
p182
aS'w+2=the'
p183
aS'w+2=they'
p184
aS'w+2=to'
p185
aS'w+2=too'
p186
aS'w+2=water'
p187
aS"w-1=''"
p188
aS'w-1=,'
p189
aS'w-1=Egyptians'
p190
aS'w-1=Lapaparat'
p191
aS'w-1=Palestinians'
p192
aS'w-1=U.S.'
p193
aS'w-1=a'
p194
aS'w-1=agency'
p195
aS'w-1=aid'
p196
aS'w-1=already'
p197
aS'w-1=also'
p198
aS'w-1=always'
p199
aS'w-1=and'
p200
aS'w-1=be'
p201
aS'w-1=begin'
p202
aS'w-1=cauri'
p203
aS'w-1=fighter'
p204
aS'w-1=from'
p205
aS'w-1=fund'
p206
aS'w-1=genocide'
p207
aS'w-1=guest'
p208
aS'w-1=have'
p209
aS'w-1=in'
p210
aS'w-1=investment'
p211
aS'w-1=investor'
p212
aS'w-1=it'
p213
aS'w-1=militia'
p214
aS'w-1=money'
p215
aS'w-1=oil'
p216
aS'w-1=people'
p217
aS'w-1=protester'
p218
aS'w-1=proudly'
p219
aS'w-1=question'
p220
aS'w-1=rain'
p221
aS'w-1=supporter'
p222
aS'w-1=that'
p223
aS'w-1=they'
p224
aS'w-1=to'
p225
aS'w-1=tribe'
p226
aS'w-1=troops'
p227
aS'w-1=who'
p228
aS'w-1=will'
p229
aS'w-1=you'
p230
aS"w-2=''"
p231
aS'w-2=,'
p232
aS'w-2=.'
p233
aS'w-2=Baghdad'
p234
aS'w-2=Chavez'
p235
aS'w-2=Hutu'
p236
aS'w-2=Kisler'
p237
aS'w-2=Korea'
p238
aS'w-2=Luo'
p239
aS'w-2=South'
p240
aS'w-2=States'
p241
aS'w-2=Suchart'
p242
aS'w-2=after'
p243
aS'w-2=aid'
p244
aS'w-2=and'
p245
aS'w-2=as'
p246
aS'w-2=be'
p247
aS'w-2=capitalist'
p248
aS'w-2=clay'
p249
aS'w-2=company'
p250
aS'w-2=congratulation'
p251
aS'w-2=continue'
p252
aS'w-2=crude'
p253
aS'w-2=donation'
p254
aS'w-2=fire'
p255
aS'w-2=force'
p256
aS'w-2=foreign'
p257
aS'w-2=have'
p258
aS'w-2=into'
p259
aS'w-2=investor'
p260
aS'w-2=it'
p261
aS'w-2=like'
p262
aS'w-2=likely'
p263
aS'w-2=man'
p264
aS'w-2=march'
p265
aS'w-2=million'
p266
aS'w-2=money'
p267
aS'w-2=more'
p268
aS'w-2=of'
p269
aS'w-2=opposition'
p270
aS'w-2=people'
p271
aS'w-2=pledge'
p272
aS'w-2=renegade'
p273
aS'w-2=resume'
p274
aS'w-2=rwandan'
p275
aS'w-2=shock'
p276
aS'w-2=sky'
p277
aS'w-2=smoke'
p278
aS'w-2=taxpayer'
p279
aS'w-2=the'
p280
aS'w-2=to'
p281
aS'w-2=water'
p282
aS'w-2=we'
p283
aS'w-2=where'
p284
aS'w-2=with'
p285
aS'w-2=would'
p286
aS'xcomp=#PRP#'
p287
aS'xcomp=buy'
p288
aS'xcomp=celebrate'
p289
aS'xcomp=display'
p290
aS'xcomp=help'
p291
aS'xcomp=perform'
p292
aS'xcomp=see'
p293
aS'xcomp=shout'
p294
aS'xcomp=spark'
p295
aS'xcomp=steam'
p296
aS'xcomp=take'
p297
asS'dtype'
p298
cnumpy
float64
p299
sS'vocabulary_'
p300
(dp301
g20
I11
sg98
I89
sg154
I145
sg43
I34
sg239
I230
sg102
I93
sg37
I28
sg167
I158
sg22
I13
sg175
I166
sg65
I56
sg284
I275
sg275
I266
sg122
I113
sg71
I62
sg133
I124
sg111
I102
sg295
I286
sg271
I262
sg254
I245
sg168
I159
sg186
I177
sg136
I127
sg61
I52
sg146
I137
sg268
I259
sg56
I47
sg173
I164
sg129
I120
sg99
I90
sg277
I268
sg182
I173
sg196
I187
sg62
I53
sg297
I288
sg291
I282
sg149
I140
sg138
I129
sg286
I277
sg228
I219
sg176
I167
sg45
I36
sg109
I100
sg123
I114
sg97
I88
sg100
I91
sg89
I80
sg142
I133
sg269
I260
sg81
I72
sg181
I172
sg225
I216
sg76
I67
sg281
I272
sg134
I125
sg245
I236
sg220
I211
sg222
I213
sg188
I179
sg283
I274
sg48
I39
sg77
I68
sg42
I33
sg293
I284
sg199
I190
sg91
I82
sg266
I257
sg158
I149
sg249
I240
sg227
I218
sg219
I210
sg83
I74
sg235
I226
sg145
I136
sg88
I79
sg44
I35
sg139
I130
sg285
I276
sg165
I156
sg11
I2
sg193
I184
sg26
I17
sg143
I134
sg12
I3
sg170
I161
sg104
I95
sg169
I160
sg183
I174
sg130
I121
sg15
I6
sg195
I186
sg229
I220
sg232
I223
sg233
I224
sg119
I110
sg80
I71
sg34
I25
sg24
I15
sg73
I64
sg30
I21
sg125
I116
sg296
I287
sg201
I192
sg41
I32
sg243
I234
sg39
I30
sg189
I180
sg35
I26
sg280
I271
sg240
I231
sg31
I22
sg278
I269
sg255
I246
sg246
I237
sg264
I255
sg192
I183
sg244
I235
sg261
I252
sg110
I101
sg252
I243
sg118
I109
sg70
I61
sg50
I41
sg107
I98
sg263
I254
sg47
I38
sg21
I12
sg66
I57
sg90
I81
sg185
I176
sg253
I244
sg79
I70
sg121
I112
sg216
I207
sg160
I151
sg265
I256
sg194
I185
sg147
I138
sg209
I200
sg32
I23
sg289
I280
sg290
I281
sg211
I202
sg157
I148
sg58
I49
sg166
I157
sg67
I58
sg135
I126
sg60
I51
sg259
I250
sg171
I162
sg51
I42
sg13
I4
sg82
I73
sg36
I27
sg52
I43
sg251
I242
sg128
I119
sg237
I228
sg28
I19
sg33
I24
sg226
I217
sg248
I239
sg184
I175
sg46
I37
sg203
I194
sg16
I7
sg14
I5
sg242
I233
sg230
I221
sg177
I168
sg215
I206
sg258
I249
sg59
I50
sg29
I20
sg162
I153
sg9
I0
sg270
I261
sg234
I225
sg68
I59
sg279
I270
sg144
I135
sg174
I165
sg53
I44
sg294
I285
sg287
I278
sg140
I131
sg262
I253
sg218
I209
sg10
I1
sg214
I205
sg221
I212
sg87
I78
sg86
I77
sg63
I54
sg197
I188
sg101
I92
sg257
I248
sg74
I65
sg57
I48
sg113
I104
sg198
I189
sg27
I18
sg126
I117
sg127
I118
sg156
I147
sg132
I123
sg152
I143
sg49
I40
sg64
I55
sg161
I152
sg112
I103
sg17
I8
sg205
I196
sg18
I9
sg292
I283
sg274
I265
sg78
I69
sg95
I86
sg103
I94
sg131
I122
sg241
I232
sg190
I181
sg212
I203
sg25
I16
sg217
I208
sg238
I229
sg117
I108
sg151
I142
sg276
I267
sg124
I115
sg224
I215
sg208
I199
sg153
I144
sg163
I154
sg191
I182
sg231
I222
sg137
I128
sg178
I169
sg155
I146
sg92
I83
sg187
I178
sg164
I155
sg180
I171
sg148
I139
sg179
I170
sg223
I214
sg272
I263
sg69
I60
sg236
I227
sg267
I258
sg96
I87
sg213
I204
sg200
I191
sg260
I251
sg40
I31
sg106
I97
sg141
I132
sg114
I105
sg93
I84
sg72
I63
sg85
I76
sg94
I85
sg38
I29
sg207
I198
sg273
I264
sg210
I201
sg206
I197
sg172
I163
sg250
I241
sg247
I238
sg120
I111
sg202
I193
sg282
I273
sg115
I106
sg55
I46
sg150
I141
sg288
I279
sg204
I195
sg116
I107
sg19
I10
sg256
I247
sg23
I14
sg75
I66
sg108
I99
sg54
I45
sg159
I150
sg105
I96
sg84
I75
ssS'separator'
p302
S'='
sS'sparse'
p303
I01
sb.