ccopy_reg
_reconstructor
p1
(csklearn.feature_extraction.dict_vectorizer
DictVectorizer
p2
c__builtin__
object
p3
NtRp4
(dp5
S'sort'
p6
I01
sS'feature_names_'
p7
(lp8
S'advcl=announce'
p9
aS'advcl=complete'
p10
aS'advcl=force'
p11
aS'advcl=go'
p12
aS'advcl=meet'
p13
aS'advcl=pursue'
p14
aS'advcl=put'
p15
aS'advcl=restrict'
p16
aS'advcl=stop'
p17
aS'advcl=suppress'
p18
aS'advcl=use'
p19
aS'advmod=also'
p20
aS'advmod=completely'
p21
aS'advmod=considerably'
p22
aS'advmod=downward'
p23
aS'advmod=further'
p24
aS'advmod=generally'
p25
aS'advmod=greatly'
p26
aS'advmod=how'
p27
aS'advmod=however'
p28
aS'advmod=just'
p29
aS'advmod=now'
p30
aS'advmod=out'
p31
aS'advmod=perhaps'
p32
aS'advmod=primarily'
p33
aS'advmod=quickly'
p34
aS'advmod=somewhat'
p35
aS'advmod=soon'
p36
aS'advmod=when'
p37
aS'amod=relative'
p38
aS'aux=be'
p39
aS'aux=can'
p40
aS'aux=could'
p41
aS'aux=do'
p42
aS'aux=have'
p43
aS'aux=may'
p44
aS'aux=might'
p45
aS'aux=must'
p46
aS'aux=should'
p47
aS'aux=to'
p48
aS'aux=will'
p49
aS'aux=would'
p50
aS'auxpass=be'
p51
aS'cc=and'
p52
aS'cc=but'
p53
aS'cc=or'
p54
aS'ccomp=be'
p55
aS'ccomp=break'
p56
aS'ccomp=decline'
p57
aS'ccomp=fear'
p58
aS'ccomp=go'
p59
aS'ccomp=head'
p60
aS'ccomp=prevent'
p61
aS'ccomp=succeed'
p62
aS'ccomp=want'
p63
aS'ccomp=weapons-related'
p64
aS'complm=that'
p65
aS'complm=whether'
p66
aS'conj=boost'
p67
aS'conj=bring'
p68
aS'conj=crisis'
p69
aS'conj=design'
p70
aS'conj=designate'
p71
aS'conj=dismantle'
p72
aS'conj=ease'
p73
aS'conj=emerge'
p74
aS'conj=fast'
p75
aS'conj=help'
p76
aS'conj=improve'
p77
aS'conj=lead'
p78
aS'conj=legalize'
p79
aS'conj=make'
p80
aS'conj=rehabilitate'
p81
aS'conj=relax'
p82
aS'conj=restore'
p83
aS'conj=share'
p84
aS'conj=subject'
p85
aS'conj=suffer'
p86
aS'conj=travel'
p87
aS'dep=grow'
p88
aS'dep=lift'
p89
aS'dep=order'
p90
aS'dep=say'
p91
aS'det=the'
p92
aS'dobj=access'
p93
aS'dobj=anger'
p94
aS'dobj=atmosphere'
p95
aS'dobj=ban'
p96
aS'dobj=bit'
p97
aS'dobj=bitterness'
p98
aS'dobj=blockade'
p99
aS'dobj=burden'
p100
aS'dobj=bureaucracy'
p101
aS'dobj=closure'
p102
aS'dobj=concern'
p103
aS'dobj=condition'
p104
aS'dobj=confidence'
p105
aS'dobj=conflict'
p106
aS'dobj=congestion'
p107
aS'dobj=control'
p108
aS'dobj=corruption'
p109
aS'dobj=cost'
p110
aS'dobj=credit'
p111
aS'dobj=crisis'
p112
aS'dobj=crunch'
p113
aS'dobj=de-baathification'
p114
aS'dobj=default'
p115
aS'dobj=distribution'
p116
aS'dobj=doubt'
p117
aS'dobj=effect'
p118
aS'dobj=embargo'
p119
aS'dobj=fear'
p120
aS'dobj=fighting'
p121
aS'dobj=flow'
p122
aS'dobj=freedom'
p123
aS'dobj=friction'
p124
aS'dobj=grip'
p125
aS'dobj=hardship'
p126
aS'dobj=hunger'
p127
aS'dobj=immigrant'
p128
aS'dobj=impact'
p129
aS'dobj=increase'
p130
aS'dobj=influx'
p131
aS'dobj=isolation'
p132
aS'dobj=law'
p133
aS'dobj=limit'
p134
aS'dobj=misery'
p135
aS'dobj=movement'
p136
aS'dobj=occupation'
p137
aS'dobj=pain'
p138
aS'dobj=plight'
p139
aS'dobj=poverty'
p140
aS'dobj=pressure'
p141
aS'dobj=price'
p142
aS'dobj=procurement'
p143
aS'dobj=production'
p144
aS'dobj=protest'
p145
aS'dobj=regulation'
p146
aS'dobj=reintegration'
p147
aS'dobj=relation'
p148
aS'dobj=requirement'
p149
aS'dobj=restriction'
p150
aS'dobj=return'
p151
aS'dobj=rise'
p152
aS'dobj=roadblock'
p153
aS'dobj=sadness'
p154
aS'dobj=sanction'
p155
aS'dobj=sense'
p156
aS'dobj=sentence'
p157
aS'dobj=shipping'
p158
aS'dobj=shortage'
p159
aS'dobj=side-effect'
p160
aS'dobj=situation'
p161
aS'dobj=skepticism'
p162
aS'dobj=skiff'
p163
aS'dobj=snarl'
p164
aS'dobj=some'
p165
aS'dobj=spacecraft'
p166
aS'dobj=stance'
p167
aS'dobj=stand'
p168
aS'dobj=sting'
p169
aS'dobj=strain'
p170
aS'dobj=strife'
p171
aS'dobj=suffering'
p172
aS'dobj=symptom'
p173
aS'dobj=tension'
p174
aS'dobj=time'
p175
aS'dobj=traffic'
p176
aS'dobj=trauma'
p177
aS'dobj=turmoil'
p178
aS'dobj=uncertainty'
p179
aS'dobj=way'
p180
aS'dobj=worry'
p181
aS'expl=there'
p182
aS'mark=after'
p183
aS'mark=as'
p184
aS'mark=if'
p185
aS'mark=in'
p186
aS'mark=unless'
p187
aS'neg=not'
p188
aS'nsubj=#NUMBER#'
p189
aS'nsubj=#PRP#'
p190
aS'nsubj=Fretilin'
p191
aS'nsubj=Israel'
p192
aS'nsubj=Kraft'
p193
aS'nsubj=Mbeki'
p194
aS'nsubj=Nations'
p195
aS'nsubj=Reserve'
p196
aS'nsubj=States'
p197
aS'nsubj=West'
p198
aS'nsubj=bombardment'
p199
aS'nsubj=conflict'
p200
aS'nsubj=cost'
p201
aS'nsubj=council'
p202
aS'nsubj=crisis'
p203
aS'nsubj=crunch'
p204
aS'nsubj=director'
p205
aS'nsubj=effort'
p206
aS'nsubj=fighting'
p207
aS'nsubj=force'
p208
aS'nsubj=general'
p209
aS'nsubj=government'
p210
aS'nsubj=growth'
p211
aS'nsubj=harvest'
p212
aS'nsubj=impatience'
p213
aS'nsubj=import'
p214
aS'nsubj=increase'
p215
aS'nsubj=insurgency'
p216
aS'nsubj=jirga'
p217
aS'nsubj=measure'
p218
aS'nsubj=negotiator'
p219
aS'nsubj=outcry'
p220
aS'nsubj=pressure'
p221
aS'nsubj=protest'
p222
aS'nsubj=recession'
p223
aS'nsubj=reformer'
p224
aS'nsubj=relation'
p225
aS'nsubj=report'
p226
aS'nsubj=resolution'
p227
aS'nsubj=restriction'
p228
aS'nsubj=resumption'
p229
aS'nsubj=shortage'
p230
aS'nsubj=situation'
p231
aS'nsubj=summit'
p232
aS'nsubj=talk'
p233
aS'nsubj=tension'
p234
aS'nsubj=that'
p235
aS'nsubj=transparency'
p236
aS'nsubj=understanding'
p237
aS'nsubj=violence'
p238
aS'nsubj=wages'
p239
aS'nsubj=which'
p240
aS'nsubjpass=Controls'
p241
aS'nsubjpass=checkpoint'
p242
aS'nsubjpass=downturn'
p243
aS'nsubjpass=matter'
p244
aS'nsubjpass=restriction'
p245
aS'nsubjpass=sanction'
p246
aS'nsubjpass=that'
p247
aS'partmod=allow'
p248
aS'partmod=make'
p249
aS'partmod=praise'
p250
aS'poss=#PRP#'
p251
aS'prep=about'
p252
aS'prep=accord'
p253
aS'prep=after'
p254
aS'prep=against'
p255
aS'prep=as'
p256
aS'prep=at'
p257
aS'prep=between'
p258
aS'prep=by'
p259
aS'prep=during'
p260
aS'prep=for'
p261
aS'prep=from'
p262
aS'prep=in'
p263
aS'prep=include'
p264
aS'prep=into'
p265
aS'prep=of'
p266
aS'prep=on'
p267
aS'prep=over'
p268
aS'prep=through'
p269
aS'prep=to'
p270
aS'prep=under'
p271
aS'prep=until'
p272
aS'prep=with'
p273
aS'prt=up'
p274
aS'tmod=#DATE#'
p275
aS'tmod=night'
p276
aS'tmod=week'
p277
aS'tmod=year'
p278
aS'w+1=,'
p279
aS'w+1=.'
p280
aS'w+1=Islamabad'
p281
aS'w+1=Moscow'
p282
aS'w+1=Palestinians'
p283
aS'w+1=President'
p284
aS'w+1=Russia'
p285
aS'w+1=South'
p286
aS'w+1=U.S.'
p287
aS'w+1=Wednesday'
p288
aS'w+1=West'
p289
aS'w+1=a'
p290
aS'w+1=access'
p291
aS'w+1=after'
p292
aS'w+1=and'
p293
aS'w+1=any'
p294
aS'w+1=as'
p295
aS'w+1=between'
p296
aS'w+1=both'
p297
aS'w+1=business'
p298
aS'w+1=by'
p299
aS'w+1=checkpoint'
p300
aS'w+1=chronic'
p301
aS'w+1=clan'
p302
aS'w+1=concern'
p303
aS'w+1=congestion'
p304
aS'w+1=considerably'
p305
aS'w+1=corruption'
p306
aS'w+1=currency'
p307
aS'w+1=de-baathification'
p308
aS'w+1=distribution'
p309
aS'w+1=downward'
p310
aS'w+1=during'
p311
aS'w+1=economic'
p312
aS'w+1=election'
p313
aS'w+1=fear'
p314
aS'w+1=food'
p315
aS'w+1=freedom'
p316
aS'w+1=friction'
p317
aS'w+1=global'
p318
aS'w+1=government'
p319
aS'w+1=hardship'
p320
aS'w+1=harsh'
p321
aS'w+1=hunger'
p322
aS'w+1=immigration'
p323
aS'w+1=in'
p324
aS'w+1=increase'
p325
aS'w+1=international'
p326
aS'w+1=investor'
p327
aS'w+1=israeli'
p328
aS'w+1=its'
p329
aS'w+1=just'
p330
aS'w+1=limit'
p331
aS'w+1=market'
p332
aS'w+1=media'
p333
aS'w+1=menopausal'
p334
aS'w+1=of'
p335
aS'w+1=other'
p336
aS'w+1=pain'
p337
aS'w+1=palestinian'
p338
aS'w+1=permit'
p339
aS'w+1=policy'
p340
aS'w+1=political'
p341
aS'w+1=poverty'
p342
aS'w+1=pressure'
p343
aS'w+1=public'
p344
aS'w+1=quickly'
p345
aS'w+1=regional'
p346
aS'w+1=regulation'
p347
aS'w+1=republican'
p348
aS'w+1=requirement'
p349
aS'w+1=restriction'
p350
aS'w+1=rise'
p351
aS'w+1=roadblock'
p352
aS'w+1=russian'
p353
aS'w+1=sanction'
p354
aS'w+1=sectarian'
p355
aS'w+1=security'
p356
aS'w+1=she'
p357
aS'w+1=shipping'
p358
aS'w+1=some'
p359
aS'w+1=somewhat'
p360
aS'w+1=suffering'
p361
aS'w+1=tense'
p362
aS'w+1=tension'
p363
aS'w+1=the'
p364
aS'w+1=they'
p365
aS'w+1=this'
p366
aS'w+1=those'
p367
aS'w+1=tight'
p368
aS'w+1=to'
p369
aS'w+1=traffic'
p370
aS'w+1=travel'
p371
aS'w+1=under'
p372
aS'w+1=up'
p373
aS'w+1=visa'
p374
aS'w+1=western'
p375
aS'w+1=will'
p376
aS'w+1=with'
p377
aS'w+1=worry'
p378
aS"w+2='"
p379
aS"w+2=''"
p380
aS"w+2='s"
p381
aS'w+2=,'
p382
aS'w+2=-lrb-'
p383
aS'w+2=.'
p384
aS'w+2=7.6'
p385
aS'w+2=Africa'
p386
aS'w+2=Bank'
p387
aS'w+2=July'
p388
aS'w+2=Kashmir'
p389
aS'w+2=Mr.'
p390
aS'w+2=North'
p391
aS'w+2=Putin'
p392
aS'w+2=South'
p393
aS'w+2=U.N.'
p394
aS'w+2=a'
p395
aS'w+2=about'
p396
aS'w+2=access'
p397
aS'w+2=african'
p398
aS'w+2=after'
p399
aS'w+2=and'
p400
aS'w+2=anger'
p401
aS'w+2=at'
p402
aS'w+2=australian'
p403
aS'w+2=ban'
p404
aS'w+2=be'
p405
aS'w+2=between'
p406
aS'w+2=bit'
p407
aS'w+2=bitterness'
p408
aS'w+2=blockade'
p409
aS'w+2=burden'
p410
aS'w+2=bureaucracy'
p411
aS'w+2=by'
p412
aS'w+2=cardiac'
p413
aS'w+2=cash'
p414
aS'w+2=cause'
p415
aS'w+2=closure'
p416
aS'w+2=concern'
p417
aS'w+2=conflict'
p418
aS'w+2=control'
p419
aS'w+2=country'
p420
aS'w+2=credit'
p421
aS'w+2=crisis'
p422
aS'w+2=do'
p423
aS'w+2=doubt'
p424
aS'w+2=during'
p425
aS'w+2=economic'
p426
aS'w+2=effect'
p427
aS'w+2=embargo'
p428
aS'w+2=energy'
p429
aS'w+2=family'
p430
aS'w+2=fear'
p431
aS'w+2=fighting'
p432
aS'w+2=for'
p433
aS'w+2=from'
p434
aS'w+2=fuel'
p435
aS'w+2=grip'
p436
aS'w+2=happy'
p437
aS'w+2=harvest'
p438
aS'w+2=he'
p439
aS'w+2=head'
p440
aS'w+2=heart-related'
p441
aS'w+2=high'
p442
aS'w+2=humanitarian'
p443
aS'w+2=hunger'
p444
aS'w+2=impact'
p445
aS'w+2=in'
p446
aS'w+2=increase'
p447
aS'w+2=influx'
p448
aS'w+2=isolation'
p449
aS'w+2=it'
p450
aS'w+2=law'
p451
aS'w+2=liquidity'
p452
aS'w+2=longer-range'
p453
aS'w+2=military'
p454
aS'w+2=misery'
p455
aS'w+2=mortgage'
p456
aS'w+2=movement'
p457
aS'w+2=nation'
p458
aS'w+2=nationwide'
p459
aS'w+2=not'
p460
aS'w+2=of'
p461
aS'w+2=on'
p462
aS'w+2=or'
p463
aS'w+2=over'
p464
aS'w+2=own'
p465
aS'w+2=pain'
p466
aS'w+2=plight'
p467
aS'w+2=potentially'
p468
aS'w+2=poverty'
p469
aS'w+2=pressure'
p470
aS'w+2=procurement'
p471
aS'w+2=propose'
p472
aS'w+2=racial'
p473
aS'w+2=recent'
p474
aS'w+2=regulation'
p475
aS'w+2=reintegration'
p476
aS'w+2=relation'
p477
aS'w+2=requirement'
p478
aS'w+2=restive'
p479
aS'w+2=restriction'
p480
aS'w+2=return'
p481
aS'w+2=rise'
p482
aS'w+2=sadness'
p483
aS'w+2=sanction'
p484
aS'w+2=security'
p485
aS'w+2=sense'
p486
aS'w+2=sentence'
p487
aS'w+2=severe'
p488
aS'w+2=she'
p489
aS'w+2=situation'
p490
aS'w+2=skepticism'
p491
aS'w+2=skiff'
p492
aS'w+2=soon'
p493
aS'w+2=spacecraft'
p494
aS'w+2=stance'
p495
aS'w+2=stand'
p496
aS'w+2=start'
p497
aS'w+2=sting'
p498
aS'w+2=strain'
p499
aS'w+2=strife'
p500
aS'w+2=suffering'
p501
aS'w+2=symptom'
p502
aS'w+2=tension'
p503
aS'w+2=that'
p504
aS'w+2=the'
p505
aS'w+2=time'
p506
aS'w+2=to'
p507
aS'w+2=traffic'
p508
aS'w+2=trauma'
p509
aS'w+2=travel'
p510
aS'w+2=two'
p511
aS'w+2=uncertainty'
p512
aS'w+2=unprecedented'
p513
aS'w+2=use'
p514
aS'w+2=way'
p515
aS'w+2=with'
p516
aS'w+2=year'
p517
aS'w-1=,'
p518
aS'w-1=.'
p519
aS'w-1=Israel'
p520
aS'w-1=Kraft'
p521
aS'w-1=Mbeki'
p522
aS'w-1=Tuesday'
p523
aS'w-1=airline'
p524
aS'w-1=also'
p525
aS'w-1=amendment'
p526
aS'w-1=and'
p527
aS'w-1=any'
p528
aS'w-1=as'
p529
aS'w-1=at'
p530
aS'w-1=be'
p531
aS'w-1=because'
p532
aS'w-1=before'
p533
aS'w-1=can'
p534
aS'w-1=completely'
p535
aS'w-1=could'
p536
aS'w-1=crisis'
p537
aS'w-1=day'
p538
aS'w-1=either'
p539
aS'w-1=favor'
p540
aS'w-1=fighting'
p541
aS'w-1=for'
p542
aS'w-1=further'
p543
aS'w-1=generally'
p544
aS'w-1=government'
p545
aS'w-1=greatly'
p546
aS'w-1=have'
p547
aS'w-1=help'
p548
aS'w-1=in'
p549
aS'w-1=include'
p550
aS'w-1=its'
p551
aS'w-1=law'
p552
aS'w-1=may'
p553
aS'w-1=might'
p554
aS'w-1=monetary'
p555
aS'w-1=must'
p556
aS'w-1=negotiator'
p557
aS'w-1=not'
p558
aS'w-1=now'
p559
aS'w-1=of'
p560
aS'w-1=on'
p561
aS'w-1=one'
p562
aS'w-1=oppose'
p563
aS'w-1=or'
p564
aS'w-1=relative'
p565
aS'w-1=report'
p566
aS'w-1=resolution'
p567
aS'w-1=sacrifice'
p568
aS'w-1=say'
p569
aS'w-1=should'
p570
aS'w-1=staff'
p571
aS'w-1=still'
p572
aS'w-1=support'
p573
aS'w-1=tension'
p574
aS'w-1=the'
p575
aS'w-1=to'
p576
aS'w-1=toward'
p577
aS'w-1=will'
p578
aS'w-1=with'
p579
aS'w-1=would'
p580
aS'w-2=,'
p581
aS'w-2=-'
p582
aS'w-2=.'
p583
aS'w-2=1970'
p584
aS'w-2=Bank'
p585
aS'w-2=Caterpillar'
p586
aS'w-2=Congress'
p587
aS'w-2=Dr.'
p588
aS'w-2=Elgon'
p589
aS'w-2=Europe'
p590
aS'w-2=Fretilin'
p591
aS'w-2=Gaza'
p592
aS'w-2=Iraq'
p593
aS'w-2=Israel'
p594
aS'w-2=Jericho'
p595
aS'w-2=Monday'
p596
aS'w-2=Mr.'
p597
aS'w-2=Pakistan'
p598
aS'w-2=States'
p599
aS'w-2=West'
p600
aS'w-2=able'
p601
aS'w-2=action'
p602
aS'w-2=activity'
p603
aS'w-2=after'
p604
aS'w-2=against'
p605
aS'w-2=aggressive'
p606
aS'w-2=agree'
p607
aS'w-2=aim'
p608
aS'w-2=all'
p609
aS'w-2=and'
p610
aS'w-2=attempt'
p611
aS'w-2=autonomy'
p612
aS'w-2=balance'
p613
aS'w-2=bank'
p614
aS'w-2=barrel'
p615
aS'w-2=base'
p616
aS'w-2=be'
p617
aS'w-2=begin'
p618
aS'w-2=best'
p619
aS'w-2=bid'
p620
aS'w-2=border'
p621
aS'w-2=business'
p622
aS'w-2=but'
p623
aS'w-2=can'
p624
aS'w-2=canal'
p625
aS'w-2=census'
p626
aS'w-2=change'
p627
aS'w-2=community'
p628
aS'w-2=conduct'
p629
aS'w-2=constitution'
p630
aS'w-2=constitutional'
p631
aS'w-2=continue'
p632
aS'w-2=cost'
p633
aS'w-2=could'
p634
aS'w-2=crunch'
p635
aS'w-2=day'
p636
aS'w-2=decision'
p637
aS'w-2=declaration'
p638
aS'w-2=design'
p639
aS'w-2=do'
p640
aS'w-2=donor'
p641
aS'w-2=effort'
p642
aS'w-2=enough'
p643
aS'w-2=evidence'
p644
aS'w-2=expect'
p645
aS'w-2=fail'
p646
aS'w-2=family'
p647
aS'w-2=fighting'
p648
aS'w-2=five'
p649
aS'w-2=for'
p650
aS'w-2=forward'
p651
aS'w-2=general'
p652
aS'w-2=government'
p653
aS'w-2=granary'
p654
aS'w-2=growth'
p655
aS'w-2=harvest'
p656
aS'w-2=have'
p657
aS'w-2=he'
p658
aS'w-2=help'
p659
aS'w-2=home'
p660
aS'w-2=hope'
p661
aS'w-2=how'
p662
aS'w-2=import'
p663
aS'w-2=include'
p664
aS'w-2=insurgency'
p665
aS'w-2=intend'
p666
aS'w-2=intent'
p667
aS'w-2=it'
p668
aS'w-2=jirga'
p669
aS'w-2=job'
p670
aS'w-2=key'
p671
aS'w-2=land'
p672
aS'w-2=latest'
p673
aS'w-2=law'
p674
aS'w-2=lead'
p675
aS'w-2=leader'
p676
aS'w-2=like'
p677
aS'w-2=little'
p678
aS'w-2=major'
p679
aS'w-2=make'
p680
aS'w-2=man'
p681
aS'w-2=market'
p682
aS'w-2=mean'
p683
aS'w-2=means'
p684
aS'w-2=measure'
p685
aS'w-2=might'
p686
aS'w-2=military'
p687
aS'w-2=more'
p688
aS'w-2=mostly'
p689
aS'w-2=move'
p690
aS'w-2=need'
p691
aS'w-2=not'
p692
aS'w-2=on'
p693
aS'w-2=only'
p694
aS'w-2=order'
p695
aS'w-2=party'
p696
aS'w-2=percent'
p697
aS'w-2=plan'
p698
aS'w-2=plant'
p699
aS'w-2=ploy'
p700
aS'w-2=police'
p701
aS'w-2=policy'
p702
aS'w-2=politics'
p703
aS'w-2=poor'
p704
aS'w-2=pressure'
p705
aS'w-2=primarily'
p706
aS'w-2=progress'
p707
aS'w-2=promise'
p708
aS'w-2=property'
p709
aS'w-2=proposal'
p710
aS'w-2=protest'
p711
aS'w-2=quickly'
p712
aS'w-2=rate'
p713
aS'w-2=reluctant'
p714
aS'w-2=report'
p715
aS'w-2=resolve'
p716
aS'w-2=responsibility'
p717
aS'w-2=restriction'
p718
aS'w-2=revenue'
p719
aS'w-2=roadblock'
p720
aS'w-2=say'
p721
aS'w-2=secularism'
p722
aS'w-2=seek'
p723
aS'w-2=seem'
p724
aS'w-2=self-touch'
p725
aS'w-2=settlement'
p726
aS'w-2=sharing'
p727
aS'w-2=shortage'
p728
aS'w-2=should'
p729
aS'w-2=sign'
p730
aS'w-2=socially'
p731
aS'w-2=step'
p732
aS'w-2=such'
p733
aS'w-2=support'
p734
aS'w-2=system'
p735
aS'w-2=take'
p736
aS'w-2=that'
p737
aS'w-2=the'
p738
aS'w-2=those'
p739
aS'w-2=time'
p740
aS'w-2=to'
p741
aS'w-2=try'
p742
aS'w-2=unless'
p743
aS'w-2=unlikely'
p744
aS'w-2=use'
p745
aS'w-2=very'
p746
aS'w-2=violence'
p747
aS'w-2=want'
p748
aS'w-2=way'
p749
aS'w-2=weekend'
p750
aS'w-2=well'
p751
aS'w-2=when'
p752
aS'w-2=which'
p753
aS'w-2=widen'
p754
aS'w-2=will'
p755
aS'w-2=with'
p756
aS'w-2=without'
p757
aS'w-2=work'
p758
aS'w-2=would'
p759
aS'w-2=year'
p760
aS'xcomp=allow'
p761
aS'xcomp=boost'
p762
aS'xcomp=govern'
p763
aS'xcomp=halt'
p764
aS'xcomp=permit'
p765
aS'xcomp=say'
p766
asS'dtype'
p767
cnumpy
float64
p768
sS'vocabulary_'
p769
(dp770
g343
I334
sg133
I124
sg230
I221
sg220
I211
sg86
I77
sg567
I558
sg225
I216
sg25
I16
sg425
I416
sg238
I229
sg358
I349
sg122
I113
sg406
I397
sg89
I80
sg570
I561
sg16
I7
sg114
I105
sg514
I505
sg701
I692
sg33
I24
sg74
I65
sg141
I132
sg691
I682
sg616
I607
sg428
I419
sg302
I293
sg702
I693
sg259
I250
sg458
I449
sg13
I4
sg138
I129
sg210
I201
sg580
I571
sg64
I55
sg569
I560
sg416
I407
sg202
I193
sg130
I121
sg200
I191
sg285
I276
sg667
I658
sg129
I120
sg162
I153
sg128
I119
sg457
I448
sg521
I512
sg201
I192
sg666
I657
sg431
I422
sg578
I569
sg204
I195
sg125
I116
sg172
I163
sg44
I35
sg78
I69
sg676
I667
sg571
I562
sg310
I301
sg531
I522
sg538
I529
sg337
I328
sg647
I638
sg26
I17
sg738
I729
sg421
I412
sg357
I348
sg740
I731
sg557
I548
sg408
I399
sg348
I339
sg500
I491
sg149
I140
sg354
I345
sg249
I240
sg45
I36
sg420
I411
sg158
I149
sg142
I133
sg187
I178
sg757
I748
sg388
I379
sg507
I498
sg415
I406
sg126
I117
sg682
I673
sg660
I651
sg551
I542
sg547
I538
sg371
I362
sg105
I96
sg383
I374
sg446
I437
sg720
I711
sg450
I441
sg661
I652
sg710
I701
sg157
I148
sg609
I600
sg694
I685
sg136
I127
sg536
I527
sg472
I463
sg252
I243
sg40
I31
sg65
I56
sg594
I585
sg315
I306
sg236
I227
sg90
I81
sg319
I310
sg79
I70
sg642
I633
sg644
I635
sg715
I706
sg737
I728
sg364
I355
sg436
I427
sg439
I430
sg95
I86
sg405
I396
sg365
I356
sg192
I183
sg656
I647
sg198
I189
sg367
I358
sg34
I25
sg478
I469
sg669
I660
sg331
I322
sg263
I254
sg50
I41
sg216
I207
sg35
I26
sg467
I458
sg193
I184
sg345
I336
sg270
I261
sg765
I756
sg486
I477
sg651
I642
sg655
I646
sg115
I106
sg140
I131
sg80
I71
sg572
I563
sg104
I95
sg293
I284
sg520
I511
sg309
I300
sg447
I438
sg615
I606
sg726
I717
sg497
I488
sg100
I91
sg170
I161
sg433
I424
sg336
I327
sg294
I285
sg67
I58
sg695
I686
sg235
I226
sg374
I365
sg24
I15
sg653
I644
sg274
I265
sg671
I662
sg444
I435
sg484
I475
sg549
I540
sg211
I202
sg524
I515
sg355
I346
sg19
I10
sg479
I470
sg724
I715
sg11
I2
sg575
I566
sg744
I735
sg723
I714
sg163
I154
sg156
I147
sg185
I176
sg751
I742
sg697
I688
sg177
I168
sg186
I177
sg398
I389
sg758
I749
sg460
I451
sg639
I630
sg22
I13
sg321
I312
sg487
I478
sg233
I224
sg607
I598
sg427
I418
sg700
I691
sg91
I82
sg63
I54
sg323
I314
sg353
I344
sg92
I83
sg622
I613
sg628
I619
sg422
I413
sg745
I736
sg264
I255
sg621
I612
sg243
I234
sg635
I626
sg515
I506
sg503
I494
sg713
I704
sg297
I288
sg707
I698
sg258
I249
sg61
I52
sg693
I684
sg576
I567
sg372
I363
sg179
I170
sg475
I466
sg411
I402
sg401
I392
sg640
I631
sg438
I429
sg117
I108
sg21
I12
sg226
I217
sg477
I468
sg638
I629
sg317
I308
sg375
I366
sg289
I280
sg725
I716
sg717
I708
sg397
I388
sg736
I727
sg527
I518
sg268
I259
sg295
I286
sg626
I617
sg470
I461
sg178
I169
sg417
I408
sg537
I528
sg160
I151
sg687
I678
sg746
I737
sg534
I525
sg414
I405
sg135
I126
sg601
I592
sg55
I46
sg579
I570
sg632
I623
sg491
I482
sg608
I599
sg465
I456
sg37
I28
sg476
I467
sg147
I138
sg107
I98
sg734
I725
sg261
I252
sg85
I76
sg541
I532
sg766
I757
sg208
I199
sg120
I111
sg402
I393
sg597
I588
sg481
I472
sg171
I162
sg334
I325
sg110
I101
sg232
I223
sg51
I42
sg544
I535
sg83
I74
sg99
I90
sg562
I553
sg73
I64
sg613
I604
sg399
I390
sg288
I279
sg378
I369
sg614
I605
sg658
I649
sg468
I459
sg301
I292
sg77
I68
sg625
I616
sg146
I137
sg247
I238
sg60
I51
sg351
I342
sg206
I197
sg189
I180
sg443
I434
sg705
I696
sg762
I753
sg329
I320
sg556
I547
sg84
I75
sg574
I565
sg516
I507
sg363
I354
sg360
I351
sg410
I401
sg509
I500
sg71
I62
sg493
I484
sg29
I20
sg513
I504
sg276
I267
sg217
I208
sg282
I273
sg88
I79
sg517
I508
sg199
I190
sg598
I589
sg248
I239
sg93
I84
sg488
I479
sg463
I454
sg502
I493
sg455
I446
sg461
I452
sg471
I462
sg590
I581
sg604
I595
sg207
I198
sg462
I453
sg369
I360
sg246
I237
sg151
I142
sg452
I443
sg322
I313
sg342
I333
sg265
I256
sg440
I431
sg81
I72
sg370
I361
sg627
I618
sg528
I519
sg239
I230
sg164
I155
sg495
I486
sg152
I143
sg611
I602
sg174
I165
sg392
I383
sg566
I557
sg341
I332
sg563
I554
sg442
I433
sg154
I145
sg144
I135
sg56
I47
sg683
I674
sg434
I425
sg511
I502
sg469
I460
sg222
I213
sg703
I694
sg127
I118
sg72
I63
sg510
I501
sg512
I503
sg286
I277
sg631
I622
sg646
I637
sg137
I128
sg326
I317
sg385
I376
sg245
I236
sg716
I707
sg393
I384
sg759
I750
sg437
I428
sg320
I311
sg426
I417
sg103
I94
sg166
I157
sg753
I744
sg593
I584
sg296
I287
sg209
I200
sg305
I296
sg649
I640
sg272
I263
sg489
I480
sg23
I14
sg633
I624
sg449
I440
sg480
I471
sg445
I436
sg459
I450
sg645
I636
sg134
I125
sg684
I675
sg394
I385
sg42
I33
sg464
I455
sg756
I747
sg31
I22
sg49
I40
sg501
I492
sg763
I754
sg588
I579
sg182
I173
sg403
I394
sg197
I188
sg273
I264
sg54
I45
sg454
I445
sg148
I139
sg709
I700
sg754
I745
sg10
I1
sg101
I92
sg698
I689
sg304
I295
sg577
I568
sg722
I713
sg636
I627
sg361
I352
sg620
I611
sg668
I659
sg678
I669
sg332
I323
sg423
I414
sg435
I426
sg123
I114
sg498
I489
sg473
I464
sg764
I755
sg344
I335
sg111
I102
sg196
I187
sg704
I695
sg718
I709
sg70
I61
sg237
I228
sg253
I244
sg330
I321
sg324
I315
sg96
I87
sg589
I580
sg739
I730
sg20
I11
sg719
I710
sg338
I329
sg38
I29
sg17
I8
sg14
I5
sg325
I316
sg205
I196
sg599
I590
sg224
I215
sg565
I556
sg657
I648
sg494
I485
sg52
I43
sg271
I262
sg335
I326
sg522
I513
sg299
I290
sg453
I444
sg131
I122
sg376
I367
sg448
I439
sg496
I487
sg346
I337
sg381
I372
sg752
I743
sg552
I543
sg380
I371
sg195
I186
sg221
I212
sg278
I269
sg587
I578
sg228
I219
sg190
I181
sg306
I297
sg430
I421
sg203
I194
sg708
I699
sg362
I353
sg761
I752
sg53
I44
sg508
I499
sg418
I409
sg214
I205
sg712
I703
sg251
I242
sg731
I722
sg526
I517
sg548
I539
sg696
I687
sg328
I319
sg41
I32
sg634
I625
sg277
I268
sg432
I423
sg327
I318
sg215
I206
sg300
I291
sg618
I609
sg307
I298
sg314
I305
sg46
I37
sg339
I330
sg677
I668
sg113
I104
sg366
I357
sg591
I582
sg333
I324
sg506
I497
sg554
I545
sg663
I654
sg219
I210
sg390
I381
sg617
I608
sg672
I663
sg181
I172
sg266
I257
sg543
I534
sg654
I645
sg404
I395
sg728
I719
sg161
I152
sg267
I258
sg183
I174
sg308
I299
sg584
I575
sg675
I666
sg176
I167
sg240
I231
sg387
I378
sg542
I533
sg560
I551
sg686
I677
sg234
I225
sg441
I432
sg602
I593
sg121
I112
sg69
I60
sg546
I537
sg619
I610
sg106
I97
sg62
I53
sg532
I523
sg413
I404
sg504
I495
sg391
I382
sg98
I89
sg605
I596
sg706
I697
sg359
I350
sg561
I552
sg748
I739
sg564
I555
sg733
I724
sg213
I204
sg652
I643
sg59
I50
sg291
I282
sg483
I474
sg735
I726
sg15
I6
sg743
I734
sg674
I665
sg688
I679
sg741
I732
sg400
I391
sg275
I266
sg610
I601
sg373
I364
sg150
I141
sg139
I130
sg396
I387
sg424
I415
sg742
I733
sg318
I309
sg119
I110
sg592
I583
sg606
I597
sg555
I546
sg643
I634
sg352
I343
sg109
I100
sg600
I591
sg377
I368
sg82
I73
sg298
I289
sg30
I21
sg629
I620
sg153
I144
sg159
I150
sg451
I442
sg505
I496
sg257
I248
sg755
I746
sg256
I247
sg581
I572
sg340
I331
sg583
I574
sg747
I738
sg596
I587
sg155
I146
sg612
I603
sg43
I34
sg474
I465
sg623
I614
sg94
I85
sg573
I564
sg519
I510
sg349
I340
sg518
I509
sg692
I683
sg227
I218
sg132
I123
sg681
I672
sg36
I27
sg637
I628
sg525
I516
sg662
I653
sg269
I260
sg76
I67
sg689
I680
sg356
I347
sg419
I410
sg409
I400
sg47
I38
sg311
I302
sg212
I203
sg585
I576
sg699
I690
sg175
I166
sg730
I721
sg68
I59
sg670
I661
sg112
I103
sg167
I158
sg539
I530
sg523
I514
sg57
I48
sg118
I109
sg482
I473
sg303
I294
sg680
I671
sg184
I175
sg75
I66
sg727
I718
sg485
I476
sg499
I490
sg173
I164
sg664
I655
sg312
I303
sg533
I524
sg218
I209
sg32
I23
sg145
I136
sg466
I457
sg191
I182
sg679
I670
sg350
I341
sg66
I57
sg586
I577
sg648
I639
sg284
I275
sg254
I245
sg116
I107
sg490
I481
sg169
I160
sg760
I751
sg665
I656
sg102
I93
sg9
I0
sg255
I246
sg244
I235
sg124
I115
sg690
I681
sg168
I159
sg456
I447
sg281
I272
sg241
I232
sg711
I702
sg87
I78
sg188
I179
sg27
I18
sg545
I536
sg492
I483
sg721
I712
sg231
I222
sg194
I185
sg262
I253
sg641
I632
sg287
I278
sg659
I650
sg292
I283
sg603
I594
sg28
I19
sg316
I307
sg283
I274
sg48
I39
sg223
I214
sg729
I720
sg535
I526
sg685
I676
sg58
I49
sg673
I664
sg12
I3
sg18
I9
sg368
I359
sg386
I377
sg624
I615
sg347
I338
sg429
I420
sg165
I156
sg143
I134
sg389
I380
sg242
I233
sg279
I270
sg280
I271
sg412
I403
sg749
I740
sg384
I375
sg313
I304
sg382
I373
sg732
I723
sg379
I370
sg260
I251
sg582
I573
sg180
I171
sg714
I705
sg229
I220
sg750
I741
sg568
I559
sg630
I621
sg108
I99
sg290
I281
sg559
I550
sg558
I549
sg407
I398
sg553
I544
sg530
I521
sg529
I520
sg550
I541
sg595
I586
sg250
I241
sg39
I30
sg650
I641
sg395
I386
sg97
I88
sg540
I531
ssS'separator'
p771
S'='
sS'sparse'
p772
I01
sb.