ccopy_reg
_reconstructor
p1
(csklearn.feature_extraction.dict_vectorizer
DictVectorizer
p2
c__builtin__
object
p3
NtRp4
(dp5
S'sort'
p6
I01
sS'feature_names_'
p7
(lp8
S'advcl=grow'
p9
aS'advcl=kill'
p10
aS'advmod=also'
p11
aS'advmod=fully'
p12
aS'advmod=there'
p13
aS'amod=frequent'
p14
aS'aux=be'
p15
aS'aux=have'
p16
aS'aux=to'
p17
aS'aux=will'
p18
aS'auxpass=be'
p19
aS'cc=and'
p20
aS'ccomp=record'
p21
aS'ccomp=release'
p22
aS'ccomp=say'
p23
aS'complm=that'
p24
aS'conj=#NUMBER#'
p25
aS'conj=address'
p26
aS'conj=not'
p27
aS'conj=provide'
p28
aS'dep=go'
p29
aS'dep=perform'
p30
aS'dep=seconds'
p31
aS'det=any'
p32
aS'dobj=Abdullah'
p33
aS'dobj=Strategy'
p34
aS'dobj=agent'
p35
aS'dobj=colleague'
p36
aS'dobj=culture'
p37
aS'dobj=figure'
p38
aS'dobj=finding'
p39
aS'dobj=force'
p40
aS'dobj=journalist'
p41
aS'dobj=law'
p42
aS'dobj=license'
p43
aS'dobj=music'
p44
aS'dobj=parliament'
p45
aS'dobj=policy'
p46
aS'mark=for'
p47
aS'mark=with'
p48
aS'neg=not'
p49
aS'nn=radar'
p50
aS'nsubj=#PRP#'
p51
aS'nsubj=Olmert'
p52
aS'nsubj=a'
p53
aS'nsubj=bit'
p54
aS'nsubj=defense'
p55
aS'nsubj=government'
p56
aS'nsubj=quick'
p57
aS'nsubj=this'
p58
aS'nsubjpass=#PRP#'
p59
aS'nsubjpass=constitution'
p60
aS'nsubjpass=population'
p61
aS'prep=after'
p62
aS'prep=as'
p63
aS'prep=at'
p64
aS'prep=by'
p65
aS'prep=in'
p66
aS'prep=like'
p67
aS'prep=of'
p68
aS'prep=on'
p69
aS'prep=through'
p70
aS'prep=to'
p71
aS'prep=with'
p72
aS'rel=in'
p73
aS'tmod=month'
p74
aS'w+1=.'
p75
aS'w+1=King'
p76
aS'w+1=National'
p77
aS'w+1=a'
p78
aS'w+1=advice'
p79
aS'w+1=arrival'
p80
aS'w+1=both'
p81
aS'w+1=for'
p82
aS'w+1=he'
p83
aS'w+1=in'
p84
aS'w+1=its'
p85
aS'w+1=journalist'
p86
aS'w+1=national'
p87
aS'w+1=nearly'
p88
aS'w+1=of'
p89
aS'w+1=on'
p90
aS'w+1=parliament'
p91
aS'w+1=plan'
p92
aS'w+1=report'
p93
aS'w+1=say'
p94
aS'w+1=since'
p95
aS'w+1=the'
p96
aS'w+1=they'
p97
aS'w+1=through'
p98
aS'w+1=to'
p99
aS'w+1=version'
p100
aS'w+1=we'
p101
aS'w+1=with'
p102
aS"w+2=''"
p103
aS'w+2=1999'
p104
aS'w+2=2000'
p105
aS'w+2=Abdullah'
p106
aS'w+2=Iran'
p107
aS'w+2=Strategy'
p108
aS'w+2=``'
p109
aS'w+2=a'
p110
aS'w+2=area'
p111
aS'w+2=be'
p112
aS'w+2=culture'
p113
aS'w+2=driver'
p114
aS'w+2=every'
p115
aS'w+2=figure'
p116
aS'w+2=finding'
p117
aS'w+2=for'
p118
aS'w+2=health'
p119
aS'w+2=in'
p120
aS'w+2=it'
p121
aS'w+2=law'
p122
aS'w+2=location'
p123
aS'w+2=military'
p124
aS'w+2=music'
p125
aS'w+2=of'
p126
aS'w+2=on'
p127
aS'w+2=one'
p128
aS'w+2=parliamentary'
p129
aS'w+2=progress'
p130
aS'w+2=surveillance'
p131
aS'w+2=the'
p132
aS'w+2=they'
p133
aS'w+2=what'
p134
aS"w-1='s"
p135
aS'w-1=,'
p136
aS'w-1=a'
p137
aS'w-1=also'
p138
aS'w-1=and'
p139
aS'w-1=announce'
p140
aS'w-1=any'
p141
aS'w-1=be'
p142
aS'w-1=continually'
p143
aS'w-1=defense'
p144
aS'w-1=frequent'
p145
aS'w-1=fully'
p146
aS'w-1=he'
p147
aS'w-1=not'
p148
aS'w-1=on'
p149
aS'w-1=or'
p150
aS'w-1=pop-jazz'
p151
aS'w-1=quick'
p152
aS'w-1=radar'
p153
aS'w-1=this'
p154
aS'w-1=to'
p155
aS'w-1=will'
p156
aS"w-2='s"
p157
aS'w-2=,'
p158
aS'w-2=.'
p159
aS'w-2=1981'
p160
aS'w-2=Act'
p161
aS'w-2=Administration'
p162
aS'w-2=Harare'
p163
aS'w-2=Olmert'
p164
aS'w-2=Pact'
p165
aS'w-2=Russia'
p166
aS'w-2=Scotland'
p167
aS'w-2=a'
p168
aS'w-2=actually'
p169
aS'w-2=and'
p170
aS'w-2=be'
p171
aS'w-2=body'
p172
aS'w-2=broadcast'
p173
aS'w-2=build'
p174
aS'w-2=detailed'
p175
aS'w-2=expect'
p176
aS'w-2=feature'
p177
aS'w-2=focus'
p178
aS'w-2=for'
p179
aS'w-2=government'
p180
aS'w-2=have'
p181
aS'w-2=he'
p182
aS'w-2=it'
p183
aS'w-2=of'
p184
aS'w-2=people'
p185
aS'w-2=promise'
p186
aS'w-2=provide'
p187
aS'w-2=quartet'
p188
aS'w-2=send'
p189
aS'w-2=the'
p190
aS'w-2=they'
p191
aS'w-2=to'
p192
aS'w-2=want'
p193
aS'w-2=with'
p194
asS'dtype'
p195
cnumpy
float64
p196
sS'vocabulary_'
p197
(dp198
g189
I180
sg42
I33
sg27
I18
sg76
I67
sg54
I45
sg16
I7
sg185
I176
sg125
I116
sg95
I86
sg119
I110
sg38
I29
sg145
I136
sg115
I106
sg94
I85
sg91
I82
sg174
I165
sg192
I183
sg130
I121
sg14
I5
sg193
I184
sg150
I141
sg73
I64
sg129
I120
sg81
I72
sg114
I105
sg184
I175
sg59
I50
sg61
I52
sg191
I182
sg79
I70
sg155
I146
sg65
I56
sg149
I140
sg170
I161
sg45
I36
sg21
I12
sg13
I4
sg56
I47
sg49
I40
sg25
I16
sg176
I167
sg182
I173
sg194
I185
sg131
I122
sg18
I9
sg102
I93
sg104
I95
sg12
I3
sg178
I169
sg37
I28
sg113
I104
sg122
I113
sg132
I123
sg64
I55
sg63
I54
sg156
I147
sg158
I149
sg159
I150
sg72
I63
sg83
I74
sg124
I115
sg77
I68
sg88
I79
sg47
I38
sg142
I133
sg107
I98
sg40
I31
sg116
I107
sg136
I127
sg86
I77
sg34
I25
sg190
I181
sg80
I71
sg166
I157
sg164
I155
sg36
I27
sg98
I89
sg26
I17
sg183
I174
sg138
I129
sg70
I61
sg128
I119
sg187
I178
sg89
I80
sg172
I163
sg52
I43
sg167
I158
sg90
I81
sg168
I159
sg9
I0
sg22
I13
sg123
I114
sg137
I128
sg31
I22
sg43
I34
sg101
I92
sg23
I14
sg163
I154
sg118
I109
sg161
I152
sg74
I65
sg151
I142
sg103
I94
sg120
I111
sg147
I138
sg154
I145
sg134
I125
sg121
I112
sg100
I91
sg11
I2
sg55
I46
sg19
I10
sg24
I15
sg135
I126
sg133
I124
sg60
I51
sg62
I53
sg111
I102
sg39
I30
sg181
I172
sg20
I11
sg46
I37
sg153
I144
sg87
I78
sg146
I137
sg148
I139
sg50
I41
sg177
I168
sg179
I170
sg112
I103
sg97
I88
sg53
I44
sg144
I135
sg57
I48
sg117
I108
sg66
I57
sg85
I76
sg82
I73
sg84
I75
sg106
I97
sg51
I42
sg162
I153
sg175
I166
sg35
I26
sg140
I131
sg30
I21
sg186
I177
sg71
I62
sg17
I8
sg169
I160
sg33
I24
sg160
I151
sg10
I1
sg173
I164
sg67
I58
sg105
I96
sg58
I49
sg75
I66
sg126
I117
sg143
I134
sg127
I118
sg99
I90
sg96
I87
sg28
I19
sg44
I35
sg188
I179
sg139
I130
sg180
I171
sg32
I23
sg108
I99
sg41
I32
sg141
I132
sg109
I100
sg48
I39
sg152
I143
sg78
I69
sg29
I20
sg171
I162
sg68
I59
sg93
I84
sg165
I156
sg69
I60
sg15
I6
sg92
I83
sg110
I101
sg157
I148
ssS'separator'
p199
S'='
sS'sparse'
p200
I01
sb.