ccopy_reg
_reconstructor
p1
(csklearn.feature_extraction.dict_vectorizer
DictVectorizer
p2
c__builtin__
object
p3
NtRp4
(dp5
S'vocabulary_'
p6
(dp7
S'w-1=House'
p8
I124
sS'w-1=she'
p9
I141
sS'nsubj=blast'
p10
I42
sS'nsubjpass=hope'
p11
I50
sS'nsubjpass=windshield'
p12
I56
sS'w-2=Zimbabwe'
p13
I154
sS'w+1=province'
p14
I82
sS'w-2=we'
p15
I182
sS'nsubj=bid'
p16
I41
sS'ccomp=wound'
p17
I17
sS'dobj=perception'
p18
I31
sS'w-2=which'
p19
I183
sS'w-2=region'
p20
I175
sS'nsubj=violence'
p21
I46
sS'w-2=life'
p22
I170
sS'w+2=bus'
p23
I96
sS'w-1=be'
p24
I129
sS'w+2=illusion'
p25
I103
sS'w-1=war'
p26
I147
sS'w+2=in'
p27
I104
sS'prep=that'
p28
I64
sS'advcl=throw'
p29
I2
sS'w+1=both'
p30
I71
sS'w-2=of'
p31
I173
sS'dobj=event'
p32
I23
sS'w-1=of'
p33
I139
sS'conj=set'
p34
I18
sS'w-1=to'
p35
I145
sS'w-2=around'
p36
I159
sS'prep=by'
p37
I59
sS'w+2=and'
p38
I94
sS'w-2=and'
p39
I158
sS'w+2=nation'
p40
I105
sS'w-1=skyscraper'
p41
I142
sS'w+1=spanish'
p42
I85
sS'dobj=peace'
p43
I30
sS'w+1=Malaysia'
p44
I67
sS'w+1=that'
p45
I86
sS'w-2=Clinton'
p46
I152
sS'nsubjpass=and'
p47
I48
sS'w-2=try'
p48
I181
sS'w-2=million'
p49
I172
sS'advmod=completely'
p50
I5
sS'dobj=both'
p51
I21
sS'mark=while'
p52
I39
sS'w-2=the'
p53
I179
sS'w+1=relationship'
p54
I83
sS'w+1=previous'
p55
I81
sS'w-1=attack'
p56
I128
sS'w-2=friend'
p57
I165
sS'w-1=violence'
p58
I146
sS'advmod=already'
p59
I3
sS'w-2=say'
p60
I176
sS'nsubjpass=home'
p61
I49
sS'dobj=economy'
p62
I22
sS'w+2=the'
p63
I116
sS'dobj=hope'
p64
I25
sS'prep=as'
p65
I58
sS'w-1=window'
p66
I149
sS'w-2=metal'
p67
I171
sS'w-2=tranquility'
p68
I180
sS'w-1=completely'
p69
I132
sS'aux=have'
p70
I11
sS'w+2=never'
p71
I107
sS'nsubjpass=that'
p72
I52
sS'w+1=myth'
p73
I80
sS'w-1=explosion'
p74
I136
sS'w-1=,'
p75
I123
sS'w-1=can'
p76
I131
sS'nsubjpass=infrastructure'
p77
I51
sS'w+1=she'
p78
I84
sS'nsubjpass=window'
p79
I55
sS'w+2=relative'
p80
I113
sS'w+1=economy'
p81
I74
sS'w+1=glass'
p82
I76
sS'w+1=life'
p83
I79
sS'w-2=aim'
p84
I157
sS'mark=because'
p85
I38
sS'w+2=country'
p86
I97
sS'advmod=away'
p87
I4
sS'w+1=during'
p88
I73
sS'w+2=glass'
p89
I99
sS'w+2=hope'
p90
I101
sS'w-2=a'
p91
I155
sS'w+2=bruise'
p92
I95
sS'prep=for'
p93
I61
sS'w+2=young'
p94
I121
sS'advmod=when'
p95
I7
sS'w-1=have'
p96
I137
sS'ccomp=say'
p97
I16
sS'nsubjpass=which'
p98
I54
sS'dobj=glass'
p99
I24
sS'w-2=its'
p100
I169
sS"w+2=''"
p101
I91
sS'nsubj=country'
p102
I43
sS'mark=as'
p103
I37
sS'w-1=restore'
p104
I140
sS'w-2=hope'
p105
I168
sS'w+1=event'
p106
I75
sS'w-1=could'
p107
I133
sS'auxpass=be'
p108
I13
sS'aux=can'
p109
I9
sS'advmod=that'
p110
I6
sS"w-1='s"
p111
I122
sS'w+2=they'
p112
I117
sS'prep=after'
p113
I57
sS'w+2=six'
p114
I114
sS'conj=throw'
p115
I19
sS'w-2=have'
p116
I167
sS'w+2=wrist'
p117
I120
sS'cc=and'
p118
I14
sS'advcl=be'
p119
I0
sS'w-2=series'
p120
I177
sS'advcl=refuse'
p121
I1
sS'w-2=that'
p122
I178
sS'w+1=the'
p123
I87
sS'w+1=by'
p124
I72
sS'cc=but'
p125
I15
sS'w-1=blast'
p126
I130
sS"w+2='s"
p127
I92
sS'w+1=those'
p128
I88
sS'w+2=decade'
p129
I98
sS'dobj=record'
p130
I32
sS'w-1=already'
p131
I125
sS'nsubj=explosion'
p132
I44
sS'dobj=illusion'
p133
I26
sS'prep=in'
p134
I62
sS'w+2=some'
p135
I115
sS'w+1=in'
p136
I77
sS'w-2=be'
p137
I161
sS'dobj=window'
p138
I34
sS'nsubjpass=tranquility'
p139
I53
sS'nsubj=#PRP#'
p140
I40
sS'w+2=quarterback'
p141
I111
sS'nsubj=life'
p142
I45
sS'w-2=assumption'
p143
I160
sS'w+1=when'
p144
I89
sS'w+2=nearby'
p145
I106
sS'aux=to'
p146
I12
sS'w+2=hundred'
p147
I102
sS'w+2=political'
p148
I110
sS'w-2=because'
p149
I162
sS'w+2=would'
p150
I119
sS'w+2=record'
p151
I112
sS'w+2=perception'
p152
I109
sS'dobj=#NUMBER#'
p153
I20
sS'w+1=and'
p154
I69
sS'w-1=they'
p155
I144
sS'w-2=gleaming'
p156
I166
sS'aux=could'
p157
I10
sS'w+1=,'
p158
I65
sS'w+1=.'
p159
I66
sS'w+2=of'
p160
I108
sS'dobj=image'
p161
I27
sS'w+2=.'
p162
I93
sS'w-2=after'
p163
I156
sS'w-2=White'
p164
I153
sS'nsubj=year'
p165
I47
sS'w+1=any'
p166
I70
sS'w-2=,'
p167
I151
sS'prep=during'
p168
I60
sS'w-1=it'
p169
I138
sS'w-1=and'
p170
I126
sS'dobj=myth'
p171
I28
sS'dobj=wrist'
p172
I35
sS'w+1=infrastructure'
p173
I78
sS'w-1=country'
p174
I134
sS'w-2=window'
p175
I184
sS'w+2=grow'
p176
I100
sS'dobj=nation'
p177
I29
sS'w+2=window'
p178
I118
sS'w+1=a'
p179
I68
sS'w+1=window'
p180
I90
sS'w-1=while'
p181
I148
sS'w-1=at'
p182
I127
sS'w-1=the'
p183
I143
sS'prep=on'
p184
I63
sS'w-2=rebuild'
p185
I174
sS'mark=after'
p186
I36
sS'aux=be'
p187
I8
sS'dobj=sense'
p188
I33
sS'w-1=dream'
p189
I135
sS'w-2=civil'
p190
I164
sS'w-2=blast'
p191
I163
sS"w-2='s"
p192
I150
ssS'dtype'
p193
cnumpy
float64
p194
sS'feature_names_'
p195
(lp196
g119
ag121
ag29
ag59
ag87
ag50
ag110
ag95
ag187
ag109
ag157
ag70
ag146
ag108
ag118
ag125
ag97
ag17
ag34
ag115
ag153
ag51
ag62
ag32
ag99
ag64
ag133
ag161
ag171
ag177
ag43
ag18
ag130
ag188
ag138
ag172
ag186
ag103
ag85
ag52
ag140
ag16
ag10
ag102
ag132
ag142
ag21
ag165
ag47
ag61
ag11
ag77
ag72
ag139
ag98
ag79
ag12
ag113
ag65
ag37
ag168
ag93
ag134
ag184
ag28
ag158
ag159
ag44
ag179
ag154
ag166
ag30
ag124
ag88
ag81
ag106
ag82
ag136
ag173
ag83
ag73
ag55
ag14
ag54
ag78
ag42
ag45
ag123
ag128
ag144
ag180
ag101
ag127
ag162
ag38
ag92
ag23
ag86
ag129
ag89
ag176
ag90
ag147
ag25
ag27
ag40
ag145
ag71
ag160
ag152
ag148
ag141
ag151
ag80
ag114
ag135
ag63
ag112
ag178
ag150
ag117
ag94
ag111
ag75
ag8
ag131
ag170
ag182
ag56
ag24
ag126
ag76
ag69
ag107
ag174
ag189
ag74
ag96
ag169
ag33
ag104
ag9
ag41
ag183
ag155
ag35
ag58
ag26
ag181
ag66
ag192
ag167
ag46
ag164
ag13
ag91
ag163
ag84
ag39
ag36
ag143
ag137
ag149
ag191
ag190
ag57
ag156
ag116
ag105
ag100
ag22
ag67
ag49
ag31
ag185
ag20
ag60
ag120
ag122
ag53
ag68
ag48
ag15
ag19
ag175
asS'separator'
p197
S'='
sS'sparse'
p198
I01
sb.