ccopy_reg
_reconstructor
p1
(csklearn.feature_extraction.dict_vectorizer
DictVectorizer
p2
c__builtin__
object
p3
NtRp4
(dp5
S'sort'
p6
I01
sS'feature_names_'
p7
(lp8
S'advcl=abducted'
p9
aS'advcl=be'
p10
aS'advcl=grow'
p11
aS'advcl=home'
p12
aS'advcl=know'
p13
aS'advcl=slow'
p14
aS'advcl=use'
p15
aS'advmod=#PRP#'
p16
aS'advmod=ago'
p17
aS'advmod=also'
p18
aS'advmod=best'
p19
aS'advmod=daily'
p20
aS'advmod=evidenceto'
p21
aS'advmod=far'
p22
aS'advmod=first'
p23
aS'advmod=how'
p24
aS'advmod=just'
p25
aS'advmod=often'
p26
aS'advmod=once'
p27
aS'advmod=out'
p28
aS'advmod=still'
p29
aS'advmod=systematically'
p30
aS'advmod=then'
p31
aS'advmod=there'
p32
aS'advmod=when'
p33
aS'advmod=where'
p34
aS'aux=be'
p35
aS'aux=can'
p36
aS'aux=do'
p37
aS'aux=have'
p38
aS'aux=to'
p39
aS'aux=will'
p40
aS'aux=would'
p41
aS'auxpass=be'
p42
aS'cc=and'
p43
aS'ccomp=available'
p44
aS'ccomp=do'
p45
aS'ccomp=face'
p46
aS'ccomp=give'
p47
aS'ccomp=live'
p48
aS'ccomp=need'
p49
aS'ccomp=say'
p50
aS'ccomp=sell'
p51
aS'ccomp=use'
p52
aS'complm=that'
p53
aS'conj=analyze'
p54
aS'conj=boil'
p55
aS'conj=bring'
p56
aS'conj=distribute'
p57
aS'conj=go'
p58
aS'conj=have'
p59
aS'conj=help'
p60
aS'conj=invest'
p61
aS'conj=kill'
p62
aS'conj=limit'
p63
aS'conj=mix'
p64
aS'conj=need'
p65
aS'conj=operate'
p66
aS'conj=order'
p67
aS'conj=preserve'
p68
aS'conj=process'
p69
aS'conj=publish'
p70
aS'conj=raise'
p71
aS'conj=redeem'
p72
aS'conj=sell'
p73
aS'conj=send'
p74
aS'conj=sort'
p75
aS'conj=spend'
p76
aS'conj=stagnate'
p77
aS'conj=start'
p78
aS'conj=study'
p79
aS'dep=imagine'
p80
aS'dep=owe'
p81
aS'dep=print'
p82
aS'dep=request'
p83
aS'dep=say'
p84
aS'dep=tell'
p85
aS'dep=want'
p86
aS'dobj=#NUMBER#'
p87
aS'dobj=#PRP#'
p88
aS'dobj=$'
p89
aS'dobj=access'
p90
aS'dobj=aid'
p91
aS'dobj=arm'
p92
aS'dobj=art'
p93
aS'dobj=award'
p94
aS'dobj=beer'
p95
aS'dobj=blanket'
p96
aS'dobj=body'
p97
aS'dobj=book'
p98
aS'dobj=card'
p99
aS'dobj=career'
p100
aS'dobj=cargo'
p101
aS'dobj=count'
p102
aS'dobj=damages'
p103
aS'dobj=datum'
p104
aS'dobj=document'
p105
aS'dobj=doorway'
p106
aS'dobj=earnings'
p107
aS'dobj=egg'
p108
aS'dobj=element'
p109
aS'dobj=endorsement'
p110
aS'dobj=evidence'
p111
aS'dobj=firewood'
p112
aS'dobj=food'
p113
aS'dobj=footage'
p114
aS'dobj=form'
p115
aS'dobj=fossil'
p116
aS'dobj=fuel'
p117
aS'dobj=garbage'
p118
aS'dobj=gold'
p119
aS'dobj=harvest'
p120
aS'dobj=ice'
p121
aS'dobj=information'
p122
aS'dobj=intelligence'
p123
aS'dobj=liter'
p124
aS'dobj=lot'
p125
aS'dobj=material'
p126
aS'dobj=methane'
p127
aS'dobj=milk'
p128
aS'dobj=money'
p129
aS'dobj=number'
p130
aS'dobj=nutrient'
p131
aS'dobj=opium'
p132
aS'dobj=papers'
p133
aS'dobj=paste'
p134
aS'dobj=pension'
p135
aS'dobj=piece'
p136
aS'dobj=pill'
p137
aS'dobj=plant'
p138
aS'dobj=point'
p139
aS'dobj=proposal'
p140
aS'dobj=recyclable'
p141
aS'dobj=sand'
p142
aS'dobj=sheep'
p143
aS'dobj=signature'
p144
aS'dobj=supplies'
p145
aS'dobj=testimony'
p146
aS'dobj=that'
p147
aS'dobj=thing'
p148
aS'dobj=ticket'
p149
aS'dobj=time'
p150
aS'dobj=tipper'
p151
aS'dobj=toll'
p152
aS'dobj=variety'
p153
aS'dobj=video'
p154
aS'dobj=voice'
p155
aS'dobj=volume'
p156
aS'dobj=wages'
p157
aS'dobj=water'
p158
aS'dobj=what'
p159
aS'dobj=wood'
p160
aS'mark=after'
p161
aS'mark=before'
p162
aS'mark=if'
p163
aS'mark=until'
p164
aS'mark=while'
p165
aS'neg=not'
p166
aS'nsubj=#NUMBER#'
p167
aS'nsubj=#PRP#'
p168
aS'nsubj=Barbados'
p169
aS'nsubj=Crompton'
p170
aS'nsubj=Israel'
p171
aS'nsubj=King'
p172
aS'nsubj=Museums'
p173
aS'nsubj=Romney'
p174
aS'nsubj=Salim'
p175
aS'nsubj=UNDP'
p176
aS'nsubj=agency'
p177
aS'nsubj=center'
p178
aS'nsubj=demonstrator'
p179
aS'nsubj=girl'
p180
aS'nsubj=government'
p181
aS'nsubj=industry'
p182
aS'nsubj=investigator'
p183
aS'nsubj=journalist'
p184
aS'nsubj=man'
p185
aS'nsubj=mission'
p186
aS'nsubj=number'
p187
aS'nsubj=opponent'
p188
aS'nsubj=parent'
p189
aS'nsubj=puppet'
p190
aS'nsubj=record'
p191
aS'nsubj=researcher'
p192
aS'nsubj=seal'
p193
aS'nsubj=study'
p194
aS'nsubj=suspect'
p195
aS'nsubj=team'
p196
aS'nsubj=that'
p197
aS'nsubj=tree'
p198
aS'nsubj=truck'
p199
aS'nsubj=victim'
p200
aS'nsubj=volunteer'
p201
aS'nsubj=water'
p202
aS'nsubj=which'
p203
aS'nsubj=who'
p204
aS'nsubj=woman'
p205
aS'nsubj=worker'
p206
aS'nsubjpass=First'
p207
aS'nsubjpass=Street'
p208
aS'nsubjpass=blood'
p209
aS'nsubjpass=datum'
p210
aS'nsubjpass=information'
p211
aS'nsubjpass=mask'
p212
aS'nsubjpass=people'
p213
aS'nsubjpass=species'
p214
aS'nsubjpass=that'
p215
aS'parataxis=serious'
p216
aS'partmod=use'
p217
aS'prep=about'
p218
aS'prep=accord'
p219
aS'prep=after'
p220
aS'prep=along'
p221
aS'prep=around'
p222
aS'prep=as'
p223
aS'prep=at'
p224
aS'prep=base'
p225
aS'prep=before'
p226
aS'prep=by'
p227
aS'prep=for'
p228
aS'prep=from'
p229
aS'prep=in'
p230
aS'prep=include'
p231
aS'prep=like'
p232
aS'prep=of'
p233
aS'prep=on'
p234
aS'prep=that'
p235
aS'prep=to'
p236
aS'prep=with'
p237
aS'prep=without'
p238
aS'prt=up'
p239
aS'purpcl=preserve'
p240
aS'tmod=week'
p241
aS'tmod=year'
p242
aS'w+1=$'
p243
aS'w+1=,'
p244
aS'w+1=.'
p245
aS'w+1=16'
p246
aS'w+1=a'
p247
aS'w+1=about'
p248
aS'w+1=accord'
p249
aS'w+1=aid'
p250
aS'w+1=all'
p251
aS'w+1=and'
p252
aS'w+1=another'
p253
aS'w+1=atmospheric'
p254
aS'w+1=audience'
p255
aS'w+1=baseball'
p256
aS'w+1=book'
p257
aS'w+1=by'
p258
aS'w+1=classify'
p259
aS'w+1=climate'
p260
aS'w+1=damages'
p261
aS'w+1=datum'
p262
aS'w+1=discard'
p263
aS'w+1=document'
p264
aS'w+1=doorway'
p265
aS'w+1=egg'
p266
aS'w+1=evidence'
p267
aS'w+1=evidenceto'
p268
aS'w+1=firewood'
p269
aS'w+1=for'
p270
aS'w+1=form'
p271
aS'w+1=fossil'
p272
aS'w+1=from'
p273
aS'w+1=garbage'
p274
aS'w+1=he'
p275
aS'w+1=huge'
p276
aS'w+1=in'
p277
aS'w+1=information'
p278
aS'w+1=intelligence'
p279
aS'w+1=interesting'
p280
aS'w+1=irrefutable'
p281
aS'w+1=its'
p282
aS'w+1=just'
p283
aS'w+1=large'
p284
aS'w+1=last'
p285
aS'w+1=material'
p286
aS'w+1=milk'
p287
aS'w+1=money'
p288
aS'w+1=more'
p289
aS'w+1=my'
p290
aS'w+1=nearly'
p291
aS'w+1=nine'
p292
aS'w+1=on'
p293
aS'w+1=one'
p294
aS'w+1=opium'
p295
aS'w+1=papers'
p296
aS'w+1=performance'
p297
aS'w+1=personal'
p298
aS'w+1=petition'
p299
aS'w+1=prayer'
p300
aS'w+1=proposal'
p301
aS'w+1=quite'
p302
aS'w+1=rare'
p303
aS'w+1=recyclable'
p304
aS'w+1=sand'
p305
aS'w+1=she'
p306
aS'w+1=supplies'
p307
aS'w+1=testimony'
p308
aS'w+1=that'
p309
aS'w+1=the'
p310
aS'w+1=these'
p311
aS'w+1=they'
p312
aS'w+1=this'
p313
aS'w+1=ticket'
p314
aS'w+1=to'
p315
aS'w+1=toll'
p316
aS'w+1=too'
p317
aS'w+1=underground'
p318
aS'w+1=up'
p319
aS'w+1=video'
p320
aS'w+1=vote'
p321
aS'w+1=water'
p322
aS'w+1=what'
p323
aS'w+1=without'
p324
aS'w+1=wood'
p325
aS"w+2=''"
p326
aS'w+2=,'
p327
aS'w+2=.'
p328
aS'w+2=10'
p329
aS'w+2=21'
p330
aS'w+2=?'
p331
aS'w+2=America'
p332
aS'w+2=I'
p333
aS'w+2=a'
p334
aS'w+2=about'
p335
aS'w+2=access'
p336
aS'w+2=after'
p337
aS'w+2=all'
p338
aS'w+2=along'
p339
aS'w+2=analyze'
p340
aS'w+2=and'
p341
aS'w+2=arm'
p342
aS'w+2=around'
p343
aS'w+2=at'
p344
aS'w+2=award'
p345
aS'w+2=awful'
p346
aS'w+2=base'
p347
aS'w+2=because'
p348
aS'w+2=beer'
p349
aS'w+2=before'
p350
aS'w+2=behalf'
p351
aS'w+2=blanket'
p352
aS'w+2=body'
p353
aS'w+2=card'
p354
aS'w+2=cargo'
p355
aS'w+2=coal'
p356
aS'w+2=count'
p357
aS'w+2=county'
p358
aS'w+2=datum'
p359
aS'w+2=depot'
p360
aS'w+2=distribute'
p361
aS'w+2=diving'
p362
aS'w+2=earnings'
p363
aS'w+2=endorsement'
p364
aS'w+2=evidence'
p365
aS'w+2=expert'
p366
aS'w+2=firewood'
p367
aS'w+2=first'
p368
aS'w+2=food'
p369
aS'w+2=for'
p370
aS'w+2=from'
p371
aS'w+2=fuel'
p372
aS'w+2=full'
p373
aS'w+2=give'
p374
aS'w+2=harvest'
p375
aS'w+2=ice'
p376
aS'w+2=illegal'
p377
aS'w+2=in'
p378
aS'w+2=individual'
p379
aS'w+2=information'
p380
aS'w+2=kaguya'
p381
aS'w+2=kill'
p382
aS'w+2=liter'
p383
aS'w+2=lose'
p384
aS'w+2=member'
p385
aS'w+2=money'
p386
aS'w+2=much'
p387
aS'w+2=my'
p388
aS'w+2=nutrient'
p389
aS'w+2=on'
p390
aS'w+2=one'
p391
aS'w+2=ourselves'
p392
aS'w+2=pension'
p393
aS'w+2=piece'
p394
aS'w+2=pill'
p395
aS'w+2=plant'
p396
aS'w+2=point'
p397
aS'w+2=preserve'
p398
aS'w+2=protect'
p399
aS'w+2=scale'
p400
aS'w+2=several'
p401
aS'w+2=signature'
p402
aS'w+2=sort'
p403
aS'w+2=stagnant'
p404
aS'w+2=stagnate'
p405
aS'w+2=than'
p406
aS'w+2=that'
p407
aS'w+2=the'
p408
aS'w+2=they'
p409
aS'w+2=this'
p410
aS'w+2=tipper'
p411
aS'w+2=to'
p412
aS'w+2=too'
p413
aS'w+2=voting'
p414
aS'w+2=wages'
p415
aS'w+2=water'
p416
aS'w+2=when'
p417
aS'w+2=which'
p418
aS'w+2=white'
p419
aS'w+2=with'
p420
aS'w+2=wood'
p421
aS'w+2=year'
p422
aS"w-1='s"
p423
aS'w-1=,'
p424
aS'w-1=--'
p425
aS'w-1=.'
p426
aS'w-1=Africa'
p427
aS'w-1=England'
p428
aS'w-1=I'
p429
aS'w-1=Romney'
p430
aS'w-1=Salim'
p431
aS'w-1=UNDP'
p432
aS'w-1=agency'
p433
aS'w-1=also'
p434
aS'w-1=and'
p435
aS'w-1=as'
p436
aS'w-1=bank'
p437
aS'w-1=be'
p438
aS'w-1=begin'
p439
aS'w-1=benefit'
p440
aS'w-1=by'
p441
aS'w-1=datum'
p442
aS'w-1=evidence'
p443
aS'w-1=fee'
p444
aS'w-1=first'
p445
aS'w-1=from'
p446
aS'w-1=have'
p447
aS'w-1=he'
p448
aS'w-1=help'
p449
aS'w-1=hour'
p450
aS'w-1=money'
p451
aS'w-1=native'
p452
aS'w-1=not'
p453
aS'w-1=of'
p454
aS'w-1=often'
p455
aS'w-1=or'
p456
aS'w-1=out'
p457
aS'w-1=parent'
p458
aS'w-1=puppet'
p459
aS'w-1=rights'
p460
aS'w-1=seal'
p461
aS'w-1=she'
p462
aS'w-1=start'
p463
aS'w-1=still'
p464
aS'w-1=street'
p465
aS'w-1=systematically'
p466
aS'w-1=team'
p467
aS'w-1=that'
p468
aS'w-1=themselves'
p469
aS'w-1=then'
p470
aS'w-1=there'
p471
aS'w-1=they'
p472
aS'w-1=to'
p473
aS'w-1=tree'
p474
aS'w-1=truck'
p475
aS'w-1=volunteer'
p476
aS'w-1=water'
p477
aS'w-1=we'
p478
aS'w-1=when'
p479
aS'w-1=which'
p480
aS'w-1=while'
p481
aS'w-1=who'
p482
aS'w-1=will'
p483
aS'w-1=woman'
p484
aS'w-1=worker'
p485
aS'w-1=world'
p486
aS"w-2=''"
p487
aS'w-2=,'
p488
aS'w-2=.'
p489
aS'w-2=1000'
p490
aS'w-2=50,000'
p491
aS'w-2=:'
p492
aS'w-2=Association'
p493
aS'w-2=Barbados'
p494
aS'w-2=Ghana'
p495
aS'w-2=I'
p496
aS'w-2=Israel'
p497
aS'w-2=King'
p498
aS'w-2=Mitt'
p499
aS'w-2=States'
p500
aS'w-2=Street'
p501
aS'w-2=a'
p502
aS'w-2=ability'
p503
aS'w-2=able'
p504
aS'w-2=and'
p505
aS'w-2=around'
p506
aS'w-2=balance'
p507
aS'w-2=be'
p508
aS'w-2=before'
p509
aS'w-2=bud'
p510
aS'w-2=but'
p511
aS'w-2=by'
p512
aS'w-2=can'
p513
aS'w-2=center'
p514
aS'w-2=chinese'
p515
aS'w-2=church'
p516
aS'w-2=cleanup'
p517
aS'w-2=continue'
p518
aS'w-2=countryside'
p519
aS'w-2=datum'
p520
aS'w-2=demonstrator'
p521
aS'w-2=discover'
p522
aS'w-2=do'
p523
aS'w-2=each'
p524
aS'w-2=effort'
p525
aS'w-2=facility'
p526
aS'w-2=family'
p527
aS'w-2=food'
p528
aS'w-2=for'
p529
aS'w-2=forest'
p530
aS'w-2=gather'
p531
aS'w-2=go'
p532
aS'w-2=government'
p533
aS'w-2=gum'
p534
aS'w-2=have'
p535
aS'w-2=he'
p536
aS'w-2=help'
p537
aS'w-2=here'
p538
aS'w-2=how'
p539
aS'w-2=human'
p540
aS'w-2=in'
p541
aS'w-2=industry'
p542
aS'w-2=information'
p543
aS'w-2=investigator'
p544
aS'w-2=investment'
p545
aS'w-2=involve'
p546
aS'w-2=it'
p547
aS'w-2=item'
p548
aS'w-2=journalist'
p549
aS'w-2=kettle'
p550
aS'w-2=later'
p551
aS'w-2=mask'
p552
aS'w-2=method'
p553
aS'w-2=mission'
p554
aS'w-2=money'
p555
aS'w-2=month'
p556
aS'w-2=morning'
p557
aS'w-2=nine'
p558
aS'w-2=office'
p559
aS'w-2=often'
p560
aS'w-2=once'
p561
aS'w-2=opponent'
p562
aS'w-2=organization'
p563
aS'w-2=other'
p564
aS'w-2=out'
p565
aS'w-2=people'
p566
aS'w-2=police'
p567
aS'w-2=print'
p568
aS'w-2=process'
p569
aS'w-2=record'
p570
aS'w-2=revenue'
p571
aS'w-2=sample'
p572
aS'w-2=say'
p573
aS'w-2=sector'
p574
aS'w-2=she'
p575
aS'w-2=should'
p576
aS'w-2=study'
p577
aS'w-2=suspect'
p578
aS'w-2=terrorism'
p579
aS'w-2=that'
p580
aS'w-2=the'
p581
aS'w-2=there'
p582
aS'w-2=they'
p583
aS'w-2=to'
p584
aS'w-2=try'
p585
aS'w-2=use'
p586
aS'w-2=water'
p587
aS'w-2=way'
p588
aS'w-2=we'
p589
aS'w-2=well'
p590
aS'w-2=what'
p591
aS'w-2=where'
p592
aS'w-2=will'
p593
aS'w-2=woman'
p594
aS'w-2=work'
p595
aS'w-2=would'
p596
aS'w-2=year'
p597
aS'w-2=you'
p598
aS'xcomp=build'
p599
aS'xcomp=continue'
p600
aS'xcomp=hand'
p601
aS'xcomp=invest'
p602
aS'xcomp=protect'
p603
aS'xcomp=qualify'
p604
aS'xcomp=see'
p605
aS'xcomp=turn'
p606
asS'dtype'
p607
cnumpy
float64
p608
sS'vocabulary_'
p609
(dp610
g31
I22
sg226
I217
sg147
I138
sg373
I364
sg67
I58
sg109
I100
sg198
I189
sg122
I113
sg589
I580
sg566
I557
sg190
I181
sg271
I262
sg213
I204
sg268
I259
sg388
I379
sg320
I311
sg196
I187
sg158
I149
sg494
I485
sg183
I174
sg235
I226
sg567
I558
sg84
I75
sg267
I258
sg560
I551
sg118
I109
sg602
I593
sg207
I198
sg400
I391
sg227
I218
sg309
I300
sg181
I172
sg528
I519
sg481
I472
sg347
I338
sg394
I385
sg467
I458
sg305
I296
sg311
I302
sg108
I99
sg317
I308
sg25
I16
sg401
I392
sg460
I451
sg588
I579
sg178
I169
sg483
I474
sg300
I291
sg55
I46
sg477
I468
sg250
I241
sg187
I178
sg441
I432
sg438
I429
sg384
I375
sg210
I201
sg527
I518
sg545
I536
sg208
I199
sg269
I260
sg306
I297
sg509
I500
sg592
I583
sg265
I256
sg283
I274
sg186
I177
sg521
I512
sg126
I117
sg412
I403
sg293
I284
sg91
I82
sg368
I359
sg295
I286
sg569
I560
sg447
I438
sg50
I41
sg65
I56
sg288
I279
sg378
I369
sg16
I7
sg605
I596
sg262
I253
sg12
I3
sg552
I543
sg27
I18
sg218
I209
sg36
I27
sg53
I44
sg222
I213
sg497
I488
sg100
I91
sg253
I244
sg99
I90
sg446
I437
sg308
I299
sg599
I590
sg525
I516
sg10
I1
sg580
I571
sg263
I254
sg310
I301
sg170
I161
sg529
I520
sg312
I303
sg171
I162
sg156
I147
sg116
I107
sg544
I535
sg20
I11
sg230
I221
sg41
I32
sg270
I261
sg578
I569
sg601
I592
sg397
I388
sg111
I102
sg148
I139
sg151
I142
sg259
I250
sg154
I145
sg570
I561
sg524
I515
sg201
I192
sg236
I227
sg443
I434
sg502
I493
sg421
I412
sg195
I186
sg437
I428
sg17
I8
sg303
I294
sg464
I455
sg252
I243
sg472
I463
sg76
I67
sg119
I110
sg304
I295
sg75
I66
sg416
I407
sg370
I361
sg62
I53
sg197
I188
sg498
I489
sg533
I524
sg103
I94
sg257
I248
sg240
I231
sg538
I529
sg419
I410
sg281
I272
sg425
I416
sg21
I12
sg15
I6
sg355
I346
sg604
I595
sg137
I128
sg548
I539
sg121
I112
sg163
I154
sg590
I581
sg142
I133
sg366
I357
sg431
I422
sg595
I586
sg34
I25
sg574
I565
sg57
I48
sg583
I574
sg417
I408
sg172
I163
sg331
I322
sg413
I404
sg48
I39
sg123
I114
sg353
I344
sg586
I577
sg82
I73
sg297
I288
sg231
I222
sg382
I373
sg486
I477
sg221
I212
sg204
I195
sg485
I476
sg448
I439
sg577
I568
sg473
I464
sg501
I492
sg249
I240
sg445
I436
sg88
I79
sg523
I514
sg375
I366
sg428
I419
sg361
I352
sg503
I494
sg209
I200
sg80
I71
sg47
I38
sg217
I208
sg336
I327
sg279
I270
sg63
I54
sg275
I266
sg338
I329
sg291
I282
sg215
I206
sg239
I230
sg551
I542
sg504
I495
sg440
I431
sg520
I511
sg518
I509
sg243
I234
sg587
I578
sg33
I24
sg351
I342
sg575
I566
sg228
I219
sg354
I345
sg519
I510
sg264
I255
sg344
I335
sg325
I316
sg42
I33
sg393
I384
sg423
I414
sg374
I365
sg507
I498
sg337
I328
sg107
I98
sg160
I151
sg40
I31
sg29
I20
sg600
I591
sg442
I433
sg490
I481
sg112
I103
sg124
I115
sg167
I158
sg81
I72
sg155
I146
sg192
I183
sg205
I196
sg543
I534
sg282
I273
sg342
I333
sg420
I411
sg117
I108
sg159
I150
sg522
I513
sg194
I185
sg45
I36
sg290
I281
sg125
I116
sg422
I413
sg97
I88
sg90
I81
sg556
I547
sg452
I443
sg432
I423
sg363
I354
sg392
I383
sg487
I478
sg517
I508
sg390
I381
sg315
I306
sg193
I184
sg385
I376
sg369
I360
sg435
I426
sg74
I65
sg19
I10
sg59
I50
sg339
I330
sg141
I132
sg278
I269
sg46
I37
sg30
I21
sg582
I573
sg458
I449
sg23
I14
sg335
I326
sg238
I229
sg553
I544
sg367
I358
sg22
I13
sg398
I389
sg462
I453
sg104
I95
sg371
I362
sg386
I377
sg404
I395
sg26
I17
sg153
I144
sg532
I523
sg395
I386
sg579
I570
sg49
I40
sg277
I268
sg554
I545
sg430
I421
sg451
I442
sg596
I587
sg387
I378
sg131
I122
sg92
I83
sg558
I549
sg396
I387
sg410
I401
sg318
I309
sg433
I424
sg93
I84
sg68
I59
sg606
I597
sg399
I390
sg32
I23
sg330
I321
sg165
I156
sg491
I482
sg581
I572
sg37
I28
sg550
I541
sg603
I594
sg534
I525
sg101
I92
sg136
I127
sg562
I553
sg402
I393
sg77
I68
sg237
I228
sg403
I394
sg292
I283
sg177
I168
sg541
I532
sg549
I540
sg114
I105
sg302
I293
sg70
I61
sg138
I129
sg340
I331
sg251
I242
sg465
I456
sg547
I538
sg484
I475
sg372
I363
sg405
I396
sg149
I140
sg79
I70
sg174
I165
sg128
I119
sg287
I278
sg294
I285
sg406
I397
sg9
I0
sg348
I339
sg261
I252
sg219
I210
sg71
I62
sg389
I380
sg475
I466
sg427
I418
sg326
I317
sg563
I554
sg102
I93
sg18
I9
sg530
I521
sg191
I182
sg379
I370
sg376
I367
sg594
I585
sg499
I490
sg500
I491
sg299
I290
sg66
I57
sg535
I526
sg272
I263
sg43
I34
sg182
I173
sg459
I450
sg258
I249
sg64
I55
sg591
I582
sg51
I42
sg242
I233
sg184
I175
sg508
I499
sg164
I155
sg168
I159
sg216
I207
sg248
I239
sg200
I191
sg286
I277
sg189
I180
sg482
I473
sg87
I78
sg449
I440
sg350
I341
sg127
I118
sg232
I223
sg133
I124
sg255
I246
sg506
I497
sg162
I153
sg555
I546
sg383
I374
sg514
I505
sg176
I167
sg72
I63
sg157
I148
sg418
I409
sg199
I190
sg360
I351
sg211
I202
sg466
I457
sg469
I460
sg233
I224
sg362
I353
sg266
I257
sg234
I225
sg161
I152
sg185
I176
sg495
I486
sg512
I503
sg203
I194
sg454
I445
sg89
I80
sg414
I405
sg365
I356
sg61
I52
sg83
I74
sg322
I313
sg324
I315
sg254
I245
sg407
I398
sg58
I49
sg444
I435
sg513
I504
sg225
I216
sg352
I343
sg380
I371
sg456
I447
sg346
I337
sg284
I275
sg95
I86
sg115
I106
sg298
I289
sg146
I137
sg169
I160
sg572
I563
sg584
I575
sg341
I332
sg505
I496
sg319
I310
sg463
I454
sg85
I76
sg246
I237
sg332
I323
sg585
I576
sg313
I304
sg536
I527
sg349
I340
sg571
I562
sg289
I280
sg301
I292
sg516
I507
sg377
I368
sg573
I564
sg408
I399
sg224
I215
sg593
I584
sg223
I214
sg488
I479
sg489
I480
sg323
I314
sg130
I121
sg38
I29
sg511
I502
sg356
I347
sg492
I483
sg426
I417
sg557
I548
sg424
I415
sg329
I320
sg510
I501
sg113
I104
sg364
I355
sg496
I487
sg359
I350
sg52
I43
sg434
I425
sg539
I530
sg60
I51
sg391
I382
sg480
I471
sg564
I555
sg140
I131
sg429
I420
sg540
I531
sg94
I85
sg565
I556
sg470
I461
sg307
I298
sg214
I205
sg150
I141
sg11
I2
sg260
I251
sg56
I47
sg476
I467
sg479
I470
sg531
I522
sg86
I77
sg274
I265
sg314
I305
sg120
I111
sg256
I247
sg546
I537
sg145
I136
sg415
I406
sg129
I120
sg179
I170
sg273
I264
sg54
I45
sg202
I193
sg13
I4
sg576
I567
sg106
I97
sg132
I123
sg409
I400
sg280
I271
sg220
I211
sg343
I334
sg457
I448
sg296
I287
sg597
I588
sg474
I465
sg152
I143
sg173
I164
sg561
I552
sg188
I179
sg515
I506
sg285
I276
sg450
I441
sg144
I135
sg98
I89
sg358
I349
sg69
I60
sg24
I15
sg542
I533
sg44
I35
sg139
I130
sg229
I220
sg28
I19
sg461
I452
sg73
I64
sg537
I528
sg143
I134
sg381
I372
sg478
I469
sg39
I30
sg598
I589
sg526
I517
sg212
I203
sg134
I125
sg316
I307
sg175
I166
sg206
I197
sg276
I267
sg241
I232
sg244
I235
sg245
I236
sg328
I319
sg327
I318
sg455
I446
sg105
I96
sg357
I348
sg166
I157
sg14
I5
sg345
I336
sg333
I324
sg78
I69
sg247
I238
sg453
I444
sg439
I430
sg568
I559
sg493
I484
sg436
I427
sg559
I550
sg411
I402
sg321
I312
sg468
I459
sg35
I26
sg471
I462
sg110
I101
sg135
I126
sg334
I325
sg96
I87
sg180
I171
ssS'separator'
p611
S'='
sS'sparse'
p612
I01
sb.