ccopy_reg
_reconstructor
p1
(csklearn.feature_extraction.dict_vectorizer
DictVectorizer
p2
c__builtin__
object
p3
NtRp4
(dp5
S'sort'
p6
I01
sS'feature_names_'
p7
(lp8
S'advcl=comply'
p9
aS'advcl=pay'
p10
aS'advmod=absolutely'
p11
aS'advmod=at'
p12
aS'advmod=just'
p13
aS'advmod=knowingly'
p14
aS'advmod=likely'
p15
aS'advmod=long'
p16
aS'advmod=longer'
p17
aS'advmod=now'
p18
aS'advmod=still'
p19
aS'advmod=usually'
p20
aS'advmod=whatsoever'
p21
aS'aux=be'
p22
aS'aux=can'
p23
aS'aux=could'
p24
aS'aux=do'
p25
aS'aux=have'
p26
aS'aux=should'
p27
aS'aux=to'
p28
aS'aux=will'
p29
aS'aux=would'
p30
aS'auxpass=be'
p31
aS'cc=and'
p32
aS'cc=but'
p33
aS'cc=nor'
p34
aS'cc=or'
p35
aS'ccomp=call'
p36
aS'ccomp=know'
p37
aS'complm=that'
p38
aS'complm=whether'
p39
aS'conj=#PRP#'
p40
aS'conj=accuse'
p41
aS'conj=by'
p42
aS'conj=criticize'
p43
aS'conj=let'
p44
aS'conj=stop'
p45
aS'conj=support'
p46
aS'conj=suppress'
p47
aS'conj=want'
p48
aS'dep=#PRP#'
p49
aS'dep=neither'
p50
aS'dep=say'
p51
aS'dep=that'
p52
aS'dobj=Brotherhood'
p53
aS'dobj=ability'
p54
aS'dobj=abuse'
p55
aS'dobj=action'
p56
aS'dobj=anyone'
p57
aS'dobj=armed'
p58
aS'dobj=attack'
p59
aS'dobj=burn'
p60
aS'dobj=crop'
p61
aS'dobj=dissent'
p62
aS'dobj=distraction'
p63
aS'dobj=drug'
p64
aS'dobj=enemy'
p65
aS'dobj=expression'
p66
aS'dobj=group'
p67
aS'dobj=hunting'
p68
aS'dobj=inaction'
p69
aS'dobj=insult'
p70
aS'dobj=interference'
p71
aS'dobj=killing'
p72
aS'dobj=kind'
p73
aS'dobj=level'
p74
aS'dobj=move'
p75
aS'dobj=nation'
p76
aS'dobj=operation'
p77
aS'dobj=opposition'
p78
aS'dobj=people'
p79
aS'dobj=protest'
p80
aS'dobj=recruitment'
p81
aS'dobj=religion'
p82
aS'dobj=rival'
p83
aS'dobj=situation'
p84
aS'dobj=speech'
p85
aS'dobj=technique'
p86
aS'dobj=terrorism'
p87
aS'dobj=that'
p88
aS'dobj=type'
p89
aS'dobj=woman'
p90
aS'neg=not'
p91
aS'nsubj=#PRP#'
p92
aS'nsubj=Ayro'
p93
aS'nsubj=France'
p94
aS'nsubj=Iraq'
p95
aS'nsubj=Israel'
p96
aS'nsubj=K-FOR'
p97
aS'nsubj=Kabbah'
p98
aS'nsubj=Russia'
p99
aS'nsubj=States'
p100
aS'nsubj=authority'
p101
aS'nsubj=country'
p102
aS'nsubj=government'
p103
aS'nsubj=mainstream'
p104
aS'nsubj=regime'
p105
aS'nsubj=society'
p106
aS'nsubj=state'
p107
aS'nsubj=that'
p108
aS'nsubj=which'
p109
aS'nsubj=who'
p110
aS'nsubjpass=abuse'
p111
aS'nsubjpass=act'
p112
aS'nsubjpass=activity'
p113
aS'nsubjpass=attack'
p114
aS'nsubjpass=basis'
p115
aS'nsubjpass=defiance'
p116
aS'nsubjpass=effort'
p117
aS'nsubjpass=faction'
p118
aS'nsubjpass=fraud'
p119
aS'nsubjpass=immigration'
p120
aS'nsubjpass=interference'
p121
aS'nsubjpass=measure'
p122
aS'nsubjpass=proliferation'
p123
aS'nsubjpass=protest'
p124
aS'nsubjpass=that'
p125
aS'nsubjpass=use'
p126
aS'nsubjpass=which'
p127
aS'parataxis=say'
p128
aS'prep=by'
p129
aS'prep=for'
p130
aS'prep=in'
p131
aS'prep=to'
p132
aS'prep=under'
p133
aS'prep=until'
p134
aS'prep=within'
p135
aS"w+1=''"
p136
aS'w+1=,'
p137
aS'w+1=.'
p138
aS'w+1=a'
p139
aS'w+1=abuse'
p140
aS'w+1=any'
p141
aS'w+1=anyone'
p142
aS'w+1=at'
p143
aS'w+1=burn'
p144
aS'w+1=by'
p145
aS'w+1=coercive'
p146
aS'w+1=cross-border'
p147
aS'w+1=either'
p148
aS'w+1=exist'
p149
aS'w+1=foreign'
p150
aS'w+1=further'
p151
aS'w+1=hunting'
p152
aS'w+1=if'
p153
aS'w+1=in'
p154
aS'w+1=little'
p155
aS'w+1=malicious'
p156
aS'w+1=muslim'
p157
aS'w+1=no'
p158
aS'w+1=or'
p159
aS'w+1=political'
p160
aS'w+1=religious'
p161
aS'w+1=sectarian'
p162
aS'w+1=so'
p163
aS'w+1=such'
p164
aS'w+1=systematic'
p165
aS'w+1=terrorism'
p166
aS'w+1=that'
p167
aS'w+1=the'
p168
aS'w+1=these'
p169
aS'w+1=to'
p170
aS'w+1=torture'
p171
aS'w+1=until'
p172
aS'w+1=urban'
p173
aS'w+1=violent'
p174
aS'w+1=what'
p175
aS'w+1=woman'
p176
aS"w+2=''"
p177
aS'w+2=,'
p178
aS'w+2=.'
p179
aS'w+2=Brotherhood'
p180
aS'w+2=Christian'
p181
aS'w+2=a'
p182
aS'w+2=abuse'
p183
aS'w+2=action'
p184
aS'w+2=all'
p185
aS'w+2=anyone'
p186
aS'w+2=armed'
p187
aS'w+2=as'
p188
aS'w+2=at'
p189
aS'w+2=attack'
p190
aS'w+2=be'
p191
aS'w+2=by'
p192
aS'w+2=central'
p193
aS'w+2=child'
p194
aS'w+2=cold-blooded'
p195
aS'w+2=continued'
p196
aS'w+2=crop'
p197
aS'w+2=dissent'
p198
aS'w+2=distraction'
p199
aS'w+2=drug'
p200
aS'w+2=expression'
p201
aS'w+2=free'
p202
aS'w+2=in'
p203
aS'w+2=inaction'
p204
aS'w+2=insult'
p205
aS'w+2=interference'
p206
aS'w+2=interrogation'
p207
aS'w+2=kind'
p208
aS'w+2=level'
p209
aS'w+2=long'
p210
aS'w+2=nation'
p211
aS'w+2=neither'
p212
aS'w+2=not'
p213
aS'w+2=opposition'
p214
aS'w+2=people'
p215
aS'w+2=pkk'
p216
aS'w+2=protest'
p217
aS'w+2=public'
p218
aS'w+2=rival'
p219
aS'w+2=say'
p220
aS'w+2=situation'
p221
aS'w+2=some'
p222
aS'w+2=support'
p223
aS'w+2=swear'
p224
aS'w+2=the'
p225
aS'w+2=type'
p226
aS'w+2=who'
p227
aS"w-1=''"
p228
aS'w-1=,'
p229
aS'w-1=and'
p230
aS'w-1=be'
p231
aS'w-1=but'
p232
aS'w-1=could'
p233
aS'w-1=have'
p234
aS'w-1=knowingly'
p235
aS'w-1=least'
p236
aS'w-1=likely'
p237
aS'w-1=longer'
p238
aS'w-1=not'
p239
aS'w-1=now'
p240
aS'w-1=of'
p241
aS'w-1=or'
p242
aS'w-1=regime'
p243
aS'w-1=state'
p244
aS'w-1=still'
p245
aS'w-1=that'
p246
aS'w-1=to'
p247
aS'w-1=usually'
p248
aS'w-1=which'
p249
aS'w-1=will'
p250
aS'w-2=,'
p251
aS'w-2=at'
p252
aS'w-2=authoritarian'
p253
aS'w-2=be'
p254
aS'w-2=but'
p255
aS'w-2=can'
p256
aS'w-2=country'
p257
aS'w-2=do'
p258
aS'w-2=engage'
p259
aS'w-2=european'
p260
aS'w-2=faction'
p261
aS'w-2=form'
p262
aS'w-2=fragile'
p263
aS'w-2=go'
p264
aS'w-2=government'
p265
aS'w-2=he'
p266
aS'w-2=illegal'
p267
aS'w-2=learn'
p268
aS'w-2=longer'
p269
aS'w-2=no'
p270
aS'w-2=not'
p271
aS'w-2=of'
p272
aS'w-2=promise'
p273
aS'w-2=ruler'
p274
aS'w-2=unlikely'
p275
aS'w-2=we'
p276
aS'w-2=who'
p277
aS'w-2=will'
p278
aS'w-2=word'
p279
aS'w-2=would'
p280
asS'dtype'
p281
cnumpy
float64
p282
sS'vocabulary_'
p283
(dp284
g72
I63
sg109
I100
sg187
I178
sg94
I85
sg213
I204
sg87
I78
sg205
I196
sg241
I232
sg45
I36
sg122
I113
sg276
I267
sg270
I261
sg58
I49
sg118
I109
sg51
I42
sg264
I255
sg204
I195
sg217
I208
sg123
I114
sg126
I117
sg79
I70
sg177
I168
sg253
I244
sg251
I242
sg36
I27
sg102
I93
sg98
I89
sg65
I56
sg242
I233
sg215
I206
sg107
I98
sg110
I101
sg60
I51
sg90
I81
sg272
I263
sg261
I252
sg158
I149
sg14
I5
sg212
I203
sg219
I210
sg247
I238
sg129
I120
sg135
I126
sg211
I202
sg140
I131
sg134
I125
sg120
I111
sg167
I158
sg169
I160
sg67
I58
sg103
I94
sg141
I132
sg142
I133
sg174
I165
sg41
I32
sg64
I55
sg37
I28
sg43
I34
sg194
I185
sg54
I45
sg25
I16
sg97
I88
sg266
I257
sg112
I103
sg74
I65
sg201
I192
sg77
I68
sg29
I20
sg209
I200
sg148
I139
sg40
I31
sg55
I46
sg258
I249
sg165
I156
sg13
I4
sg268
I259
sg225
I216
sg34
I25
sg278
I269
sg99
I90
sg100
I91
sg250
I241
sg199
I190
sg75
I66
sg207
I198
sg35
I26
sg248
I239
sg101
I92
sg185
I176
sg175
I166
sg95
I86
sg26
I17
sg105
I96
sg255
I246
sg231
I222
sg257
I248
sg56
I47
sg44
I35
sg245
I236
sg73
I64
sg125
I116
sg271
I262
sg82
I73
sg171
I162
sg152
I143
sg252
I243
sg237
I228
sg156
I147
sg69
I60
sg11
I2
sg21
I12
sg184
I175
sg17
I8
sg249
I240
sg180
I171
sg83
I74
sg277
I268
sg150
I141
sg183
I174
sg244
I235
sg229
I220
sg10
I1
sg48
I39
sg66
I57
sg49
I40
sg18
I9
sg130
I121
sg159
I150
sg52
I43
sg62
I53
sg234
I225
sg93
I84
sg196
I187
sg143
I134
sg146
I137
sg61
I52
sg186
I177
sg189
I180
sg154
I145
sg203
I194
sg188
I179
sg128
I119
sg144
I135
sg267
I258
sg190
I181
sg227
I218
sg57
I48
sg78
I69
sg85
I76
sg254
I245
sg269
I260
sg80
I71
sg233
I224
sg31
I22
sg23
I14
sg38
I29
sg147
I138
sg39
I30
sg195
I186
sg279
I270
sg12
I3
sg16
I7
sg274
I265
sg221
I212
sg238
I229
sg32
I23
sg27
I18
sg153
I144
sg224
I215
sg133
I124
sg192
I183
sg168
I159
sg210
I201
sg161
I152
sg145
I136
sg53
I44
sg220
I211
sg119
I110
sg191
I182
sg28
I19
sg96
I87
sg263
I254
sg232
I223
sg114
I105
sg216
I207
sg63
I54
sg280
I271
sg202
I193
sg131
I122
sg222
I213
sg198
I189
sg30
I21
sg70
I61
sg182
I173
sg68
I59
sg113
I104
sg243
I234
sg88
I79
sg181
I172
sg92
I83
sg166
I157
sg46
I37
sg89
I80
sg228
I219
sg47
I38
sg173
I164
sg155
I146
sg71
I62
sg81
I72
sg136
I127
sg273
I264
sg132
I123
sg33
I24
sg218
I209
sg151
I142
sg19
I10
sg164
I155
sg172
I163
sg157
I148
sg214
I205
sg256
I247
sg117
I108
sg226
I217
sg124
I115
sg24
I15
sg236
I227
sg260
I251
sg9
I0
sg111
I102
sg206
I197
sg137
I128
sg138
I129
sg179
I170
sg178
I169
sg193
I184
sg170
I161
sg91
I82
sg208
I199
sg235
I226
sg108
I99
sg176
I167
sg230
I221
sg265
I256
sg262
I253
sg59
I50
sg163
I154
sg197
I188
sg20
I11
sg104
I95
sg121
I112
sg162
I153
sg76
I67
sg223
I214
sg139
I130
sg240
I231
sg239
I230
sg115
I106
sg259
I250
sg200
I191
sg116
I107
sg149
I140
sg84
I75
sg275
I266
sg15
I6
sg86
I77
sg246
I237
sg22
I13
sg160
I151
sg127
I118
sg106
I97
sg50
I41
sg42
I33
ssS'separator'
p285
S'='
sS'sparse'
p286
I01
sb.