ccopy_reg
_reconstructor
p1
(csklearn.feature_extraction.dict_vectorizer
DictVectorizer
p2
c__builtin__
object
p3
NtRp4
(dp5
S'sort'
p6
I01
sS'feature_names_'
p7
(lp8
S'dobj=jetty'
p9
aS'dobj=system'
p10
aS'prep=like'
p11
aS'w+1=jetty'
p12
aS'w+1=the'
p13
aS'w+2=and'
p14
aS'w+2=educational'
p15
aS'w-1=propose'
p16
aS'w-1=reform'
p17
aS'w-2=a'
p18
aS'w-2=company'
p19
aS'xcomp=include'
p20
asS'dtype'
p21
cnumpy
float64
p22
sS'vocabulary_'
p23
(dp24
g15
I6
sg16
I7
sg10
I1
sg13
I4
sg19
I10
sg12
I3
sg18
I9
sg17
I8
sg14
I5
sg11
I2
sg9
I0
sg20
I11
ssS'separator'
p25
S'='
sS'sparse'
p26
I01
sb.