ccopy_reg
_reconstructor
p1
(csklearn.feature_extraction.dict_vectorizer
DictVectorizer
p2
c__builtin__
object
p3
NtRp4
(dp5
S'vocabulary_'
p6
(dp7
S'acomp=light'
p8
I0
sS'nsubj=which'
p9
I60
sS'amod=small'
p10
I6
sS'advcl=begin'
p11
I1
sS'w+2=not'
p12
I119
sS'nsubj=someone'
p13
I57
sS'w+1=fresh'
p14
I85
sS'w+2=two'
p15
I131
sS'conj=take'
p16
I24
sS'w+1=nearly'
p17
I93
sS'w-2=WikiLeaks'
p18
I169
sS'w-1=she'
p19
I155
sS'w-2=we'
p20
I194
sS'nsubj=quarter'
p21
I55
sS'nsubj=celebration'
p22
I49
sS'conj=act'
p23
I19
sS'w+1=have'
p24
I86
sS'w+2=than'
p25
I128
sS'nsubj=Average'
p26
I44
sS'det=the'
p27
I28
sS'nsubj=Erdogan'
p28
I46
sS'w-2=economy'
p29
I176
sS'w+2=also'
p30
I106
sS'w-1=sentence'
p31
I154
sS'w-2=can'
p32
I174
sS'w-2=would'
p33
I195
sS'w+1=blood'
p34
I84
sS'w-1=city'
p35
I142
sS'ccomp=help'
p36
I17
sS'w+1=behind'
p37
I83
sS'w+2=reputation'
p38
I124
sS'w+2=islamist'
p39
I117
sS'w+2=on'
p40
I120
sS'w-1=fighter'
p41
I146
sS'w-2=need'
p42
I183
sS'nsubj=animal'
p43
I47
sS'w+1=reflect'
p44
I97
sS'w-1=to'
p45
I160
sS'w-2=to'
p46
I192
sS'prep=within'
p47
I74
sS'w-2=and'
p48
I171
sS'amod=giant'
p49
I5
sS'nsubj=sentence'
p50
I56
sS'w-2=try'
p51
I193
sS'dobj=job'
p52
I35
sS'w-2=the'
p53
I190
sS'dep=so'
p54
I26
sS'w-2=islamist'
p55
I181
sS'prep=since'
p56
I71
sS'w+1=more'
p57
I92
sS'w+1=with'
p58
I102
sS'w-1=small'
p59
I157
sS'w-2=Industrial'
p60
I166
sS'w+2=can'
p61
I109
sS'w+1=less'
p62
I89
sS'w+2=the'
p63
I129
sS'prep=at'
p64
I65
sS'prep=as'
p65
I64
sS'w-2=,'
p66
I163
sS'conj=seek'
p67
I22
sS'prep=with'
p68
I73
sS'cc=or'
p69
I15
sS'w+1=he'
p70
I87
sS'aux=have'
p71
I10
sS'w-1=someone'
p72
I158
sS'w+1=tremendous'
p73
I101
sS'w-1=be'
p74
I139
sS'nn=shipbuilding'
p75
I42
sS'dobj=root'
p76
I40
sS'w-1=load'
p77
I151
sS'w+2=uniform'
p78
I132
sS'w-1=can'
p79
I140
sS'w-2=in'
p80
I179
sS'w-1=quarter'
p81
I153
sS'w-2=opportunity'
p82
I184
sS'w+2=blood'
p83
I107
sS'w-2=continue'
p84
I175
sS'w-2=struggle'
p85
I188
sS'w-1=which'
p86
I161
sS'aux=might'
p87
I11
sS'w-2=giant'
p88
I177
sS'advmod=when'
p89
I3
sS'nsubj=batch'
p90
I48
sS'w-2=photograph'
p91
I186
sS'nsubj=deal'
p92
I51
sS'w-1=conflict'
p93
I143
sS'advcl=reduce'
p94
I2
sS'w+2=fur'
p95
I115
sS'prep=for'
p96
I66
sS'det=a'
p97
I27
sS'w-1=a'
p98
I137
sS'dobj=uniform'
p99
I41
sS'w-1=have'
p100
I147
sS"w-1='s"
p101
I134
sS'nsubj=fighter'
p102
I54
sS'w+1=at'
p103
I81
sS'w-1=might'
p104
I152
sS"w+2=''"
p105
I103
sS'xcomp=press'
p106
I196
sS'w-1=he'
p107
I148
sS'w-1=celebration'
p108
I141
sS'w+2=superiority'
p109
I127
sS'w+2=percentage'
p110
I122
sS'w+1=palestinian'
p111
I96
sS'w-2=Lower'
p112
I168
sS'nsubj=economy'
p113
I53
sS'w+2=sectarian'
p114
I125
sS'dobj=enterprise'
p115
I32
sS'w-1=could'
p116
I144
sS'aux=can'
p117
I8
sS'w-2=outside'
p118
I185
sS'nsubj=Department'
p119
I45
sS'complm=whether'
p120
I18
sS'w+2=rare'
p121
I123
sS'dobj=blood'
p122
I30
sS'prep=after'
p123
I63
sS'advmod=why'
p124
I4
sS'w+1=lightart'
p125
I91
sS'cc=and'
p126
I14
sS'w+1=light'
p127
I90
sS'w-2=a'
p128
I170
sS'w+1=of'
p129
I95
sS'w-1=animal'
p130
I138
sS'w+1=the'
p131
I99
sS'conj=table'
p132
I23
sS'w+1=be'
p133
I82
sS'dobj=light'
p134
I36
sS'w+1=they'
p135
I100
sS'w-2=through'
p136
I191
sS'w-1=Average'
p137
I135
sS'nsubj=teashop'
p138
I58
sS'prep=in'
p139
I68
sS'aux=would'
p140
I13
sS'w-2=intention'
p141
I180
sS'w+1=its'
p142
I88
sS'w+2=broad'
p143
I108
sS'dobj=point'
p144
I37
sS'w+2=dour'
p145
I111
sS'nsubj=#PRP#'
p146
I43
sS'w-2=L.E.D.'
p147
I167
sS'prep=from'
p148
I67
sS"w-1=''"
p149
I133
sS'w-2=that'
p150
I189
sS'w-1=Manhattan'
p151
I136
sS'w-2=refurbish'
p152
I187
sS'w+1=5.5'
p153
I78
sS'ccomp=concern'
p154
I16
sS'prep=to'
p155
I72
sS'aux=to'
p156
I12
sS'w-2=Department'
p157
I165
sS'w-2=latest'
p158
I182
sS'w+2=cattle'
p159
I110
sS'poss=#PRP#'
p160
I61
sS'conj=make'
p161
I21
sS'w+2=light'
p162
I118
sS'w+2=state-owned'
p163
I126
sS'w+1=and'
p164
I80
sS'w+1=new'
p165
I94
sS'w+2=energy'
p166
I113
sS'w+2=or'
p167
I121
sS'w-1=stop'
p168
I159
sS'aux=could'
p169
I9
sS'w+2=thousand'
p170
I130
sS'tmod=week'
p171
I75
sS'w+1=.'
p172
I76
sS'dobj=image'
p173
I34
sS'w+1=250'
p174
I77
sS'dobj=fur'
p175
I33
sS'w+1=some'
p176
I98
sS'nsubj=debate'
p177
I52
sS'w+2=for'
p178
I114
sS'w-1=help'
p179
I149
sS'w-1=without'
p180
I162
sS'w-1=livestock'
p181
I150
sS'nsubj=that'
p182
I59
sS'w-2=behind'
p183
I173
sS'w+2=he'
p184
I116
sS'w-2=government'
p185
I178
sS'w-2=.'
p186
I164
sS'w-1=shipbuilding'
p187
I156
sS'w+2=dual'
p188
I112
sS'poss=L.E.D.'
p189
I62
sS'w+2=600'
p190
I104
sS'nsubj=collection'
p191
I50
sS'dobj=bias'
p192
I29
sS'w+1=a'
p193
I79
sS'prep=of'
p194
I69
sS'dobj=reputation'
p195
I38
sS'w-2=attempt'
p196
I172
sS'dep=energy'
p197
I25
sS'prep=on'
p198
I70
sS'w-1=economy'
p199
I145
sS'aux=be'
p200
I7
sS'conj=invade'
p201
I20
sS'dobj=complex'
p202
I31
sS'w+2=a'
p203
I105
sS'dobj=role'
p204
I39
ssS'dtype'
p205
cnumpy
float64
p206
sS'feature_names_'
p207
(lp208
g8
ag11
ag94
ag89
ag124
ag49
ag10
ag200
ag117
ag169
ag71
ag87
ag156
ag140
ag126
ag69
ag154
ag36
ag120
ag23
ag201
ag161
ag67
ag132
ag16
ag197
ag54
ag97
ag27
ag192
ag122
ag202
ag115
ag175
ag173
ag52
ag134
ag144
ag195
ag204
ag76
ag99
ag75
ag146
ag26
ag119
ag28
ag43
ag90
ag22
ag191
ag92
ag177
ag113
ag102
ag21
ag50
ag13
ag138
ag182
ag9
ag160
ag189
ag123
ag65
ag64
ag96
ag148
ag139
ag194
ag198
ag56
ag155
ag68
ag47
ag171
ag172
ag174
ag153
ag193
ag164
ag103
ag133
ag37
ag34
ag14
ag24
ag70
ag142
ag62
ag127
ag125
ag57
ag17
ag165
ag129
ag111
ag44
ag176
ag131
ag135
ag73
ag58
ag105
ag190
ag203
ag30
ag83
ag143
ag61
ag159
ag145
ag188
ag166
ag178
ag95
ag184
ag39
ag162
ag12
ag40
ag167
ag110
ag121
ag38
ag114
ag163
ag109
ag25
ag63
ag170
ag15
ag78
ag149
ag101
ag137
ag151
ag98
ag130
ag74
ag79
ag108
ag35
ag93
ag116
ag199
ag41
ag100
ag107
ag179
ag181
ag77
ag104
ag81
ag31
ag19
ag187
ag59
ag72
ag168
ag45
ag86
ag180
ag66
ag186
ag157
ag60
ag147
ag112
ag18
ag128
ag48
ag196
ag183
ag32
ag84
ag29
ag88
ag185
ag80
ag141
ag55
ag158
ag42
ag82
ag118
ag91
ag152
ag85
ag150
ag53
ag136
ag46
ag51
ag20
ag33
ag106
asS'separator'
p209
S'='
sS'sparse'
p210
I01
sb.