ccopy_reg
_reconstructor
p1
(csklearn.feature_extraction.dict_vectorizer
DictVectorizer
p2
c__builtin__
object
p3
NtRp4
(dp5
S'vocabulary_'
p6
(dp7
S'advmod=then'
p8
I26
sS'w-1=Britain'
p9
I362
sS'nsubj=France'
p10
I156
sS'advmod=more'
p11
I20
sS'w-2=Musharraf'
p12
I446
sS'w+2=mantle'
p13
I309
sS'w-2=we'
p14
I529
sS'w-2=administration'
p15
I456
sS'w-2=people'
p16
I498
sS'w+1=emergency'
p17
I231
sS'w-2=Gerald'
p18
I439
sS'nsubj=Paris'
p19
I164
sS'w-2=accountability'
p20
I454
sS'advmod=well'
p21
I28
sS'dobj=action'
p22
I99
sS'w+2=responsibility'
p23
I333
sS'w-2=new'
p24
I495
sS'w-2=need'
p25
I494
sS'w-1=.'
p26
I361
sS'nsubj=Quintana'
p27
I166
sS'w-2=they'
p28
I520
sS'w-2=since'
p29
I513
sS'w-1=-'
p30
I359
sS'prep=by'
p31
I197
sS'prep=within'
p32
I207
sS'w+2=number-two'
p33
I318
sS'w+2=nation'
p34
I315
sS'w-1=,'
p35
I358
sS'w+1=that'
p36
I251
sS'w+1=responsibility'
p37
I248
sS'nsubj=government'
p38
I176
sS'dobj=post'
p39
I121
sS'w-1=jointly'
p40
I397
sS'w+2=December'
p41
I265
sS'w+2=worst'
p42
I355
sS'dobj=duty'
p43
I109
sS'nsubj=less'
p44
I178
sS'prep=follow'
p45
I198
sS'w-2=reason'
p46
I503
sS'conj=intimidate'
p47
I83
sS'tmod=year'
p48
I211
sS'w-1=will'
p49
I426
sS'w+2=everybody'
p50
I296
sS'w-2=federal'
p51
I478
sS"w+2='ll"
p52
I262
sS'aux=may'
p53
I36
sS'w-1=be'
p54
I383
sS'ccomp=bear'
p55
I49
sS'dobj=that'
p56
I131
sS'w-1=likely'
p57
I398
sS'nsubj=leader'
p58
I177
sS'dep=troops'
p59
I93
sS'w+2=prime'
p60
I331
sS'mark=because'
p61
I140
sS'w+2=form'
p62
I299
sS'nsubj=Calderon'
p63
I153
sS'w-2=many'
p64
I492
sS'xcomp=document'
p65
I539
sS'conj=want'
p66
I85
sS'nsubj=Iraqis'
p67
I158
sS'ccomp=link'
p68
I60
sS'conj=find'
p69
I81
sS'w+2=share'
p70
I339
sS'w-1=have'
p71
I392
sS'dobj=command'
p72
I105
sS'dep=though'
p73
I92
sS'ccomp=recall'
p74
I64
sS'w+2=in'
p75
I303
sS'ccomp=go'
p76
I54
sS'w-1=again'
p77
I378
sS'dobj=position'
p78
I120
sS'dobj=failure'
p79
I110
sS'advmod=formally'
p80
I15
sS'ccomp=remain'
p81
I65
sS'w-1=could'
p82
I388
sS'w-2=act'
p83
I455
sS'w+1=full'
p84
I233
sS'aux=can'
p85
I32
sS'complm=that'
p86
I77
sS'prep=around'
p87
I194
sS'w-2=foster'
p88
I480
sS'w-1=I'
p89
I366
sS'w-1=you'
p90
I428
sS'w+2=will'
p91
I353
sS'w+2=until'
p92
I350
sS'w+2=President'
p93
I270
sS'w-1=since'
p94
I416
sS'w+2=position'
p95
I327
sS'w+1=the'
p96
I252
sS'xcomp=#PRP#'
p97
I538
sS'w-2=hesitate'
p98
I483
sS'advmod=only'
p99
I22
sS'w+2=be'
p100
I285
sS'w+1=they'
p101
I254
sS'w-1=formally'
p102
I390
sS'advmod=quickly'
p103
I23
sS'nsubjpass=#PRP#'
p104
I189
sS'advmod=too'
p105
I27
sS'w+2=russian'
p106
I337
sS'prep=in'
p107
I201
sS'aux=would'
p108
I41
sS'w-1=Putin'
p109
I371
sS'w-2=leader'
p110
I489
sS'w+2=point'
p111
I326
sS'w+1=overall'
p112
I244
sS'w-1=community'
p113
I387
sS'advmod=effectively'
p114
I13
sS'dobj=victory'
p115
I135
sS'w-1=widely'
p116
I425
sS'advmod=ago'
p117
I8
sS'w-2=she'
p118
I510
sS'w-1=Ford'
p119
I365
sS'dobj=more'
p120
I117
sS'dobj=burden'
p121
I102
sS'w+2=for'
p122
I298
sS'ccomp=face'
p123
I53
sS'w+1=any'
p124
I221
sS'w-2=about'
p125
I453
sS'w-2=insist'
p126
I485
sS'nsubj=that'
p127
I185
sS'w-1=it'
p128
I396
sS'w-2=willing'
p129
I534
sS'w-1=NATO'
p130
I368
sS'w+2=trade'
p131
I349
sS'prt=up'
p132
I208
sS'w-2=unable'
p133
I526
sS'dobj=which'
p134
I137
sS'w-1=--'
p135
I360
sS'w+2=cell'
p136
I287
sS'w-1=in'
p137
I395
sS'w+2=we'
p138
I352
sS'w-1=Olmert'
p139
I370
sS'w-1=Quintana'
p140
I372
sS'ccomp=work'
p141
I75
sS'w-1=of'
p142
I407
sS'w-2=-rrb-'
p143
I431
sS'advcl=force'
p144
I2
sS'advmod=likely'
p145
I18
sS'w-2=speculate'
p146
I514
sS'mark=if'
p147
I142
sS'w+2=power'
p148
I329
sS'w-2=capable'
p149
I468
sS'dobj=role'
p150
I127
sS'w+2=almost'
p151
I280
sS'w-2=right'
p152
I506
sS'w-2=intelligence'
p153
I486
sS'ccomp=advantage'
p154
I47
sS'nsubj=Britain'
p155
I152
sS'advmod=jointly'
p156
I17
sS'ccomp=hold'
p157
I58
sS'w+1=congressional'
p158
I227
sS'ccomp=move'
p159
I61
sS'w-2=community'
p160
I471
sS'w+2=job'
p161
I304
sS'w+2=top'
p162
I348
sS'dobj=power'
p163
I122
sS'nsubj=who'
p164
I188
sS'w-2=shoe'
p165
I511
sS'w-1=to'
p166
I420
sS'w+1=victory'
p167
I259
sS'w+2=more'
p168
I312
sS'w-2=France'
p169
I438
sS'nsubj=party'
p170
I181
sS'dobj=#PRP#'
p171
I96
sS'w-2=do'
p172
I476
sS'w-1=should'
p173
I415
sS'w-2=prepare'
p174
I501
sS'advmod=again'
p175
I7
sS'w+1=you'
p176
I261
sS'w-1=before'
p177
I384
sS'ccomp=complete'
p178
I51
sS'ccomp=gunman'
p179
I55
sS'prep=over'
p180
I203
sS'w+1=as'
p181
I222
sS'dep=able'
p182
I86
sS'w+2=action'
p183
I276
sS'w+1=he'
p184
I234
sS'w-2=two'
p185
I525
sS'w+2=all'
p186
I279
sS'conj=give'
p187
I82
sS'w-2=government'
p188
I481
sS'ccomp=worse'
p189
I76
sS'w-1=would'
p190
I427
sS'w-1=can'
p191
I386
sS'nsubj=Sundaravej'
p192
I167
sS'w-2=able'
p193
I452
sS'ccomp=be'
p194
I48
sS'w-2=wrong'
p195
I537
sS'ccomp=uncomfortable'
p196
I72
sS'w+1=leadership'
p197
I237
sS'advmod=when'
p198
I29
sS'nsubj=Olmert'
p199
I163
sS'w-2=ready'
p200
I502
sS'nsubj=minister'
p201
I180
sS'prep=for'
p202
I199
sS'dobj=authority'
p203
I100
sS'dep=that'
p204
I91
sS'dobj=spending'
p205
I130
sS'w+1=we'
p206
I260
sS'nsubj=force'
p207
I175
sS'w+2=oil'
p208
I321
sS'w-2=force'
p209
I479
sS'w+2=at'
p210
I284
sS'w+2=these'
p211
I343
sS'dobj=mantle'
p212
I116
sS'w+2=as'
p213
I283
sS'w-2=Mr.'
p214
I445
sS'w-1=long'
p215
I399
sS'w+2=Dmitry'
p216
I266
sS'auxpass=be'
p217
I42
sS'w+2=missionary'
p218
I310
sS'w+2=volunteer'
p219
I351
sS'nsubj=bill'
p220
I173
sS'w-1=longer'
p221
I400
sS'w+2=after'
p222
I278
sS'dep=until'
p223
I94
sS'advmod=always'
p224
I11
sS'nsubj=Putin'
p225
I165
sS'w-2=alike'
p226
I458
sS'w+1=there'
p227
I253
sS'nsubj=#NUMBER#'
p228
I148
sS'dobj=lead'
p229
I114
sS'w+2=thing'
p230
I345
sS'w+1=its'
p231
I236
sS'w+1=under'
p232
I257
sS'dobj=what'
p233
I136
sS'w-2=policymaker'
p234
I500
sS'w+1=presidential'
p235
I246
sS'nsubj=Odinga'
p236
I162
sS'w-2=Iraqis'
p237
I443
sS'w-2=reasonable'
p238
I504
sS'w+2=role'
p239
I335
sS'w-2=day-one'
p240
I475
sS'w-2=compatible'
p241
I472
sS'w+2=rotate'
p242
I336
sS'w-2=month'
p243
I493
sS'ccomp=sick'
p244
I67
sS'w+2=or'
p245
I323
sS'ccomp=high'
p246
I57
sS'nsubj=ASEAN'
p247
I150
sS"w-2=''"
p248
I429
sS'w+2=of'
p249
I319
sS'w+2=rock'
p250
I334
sS'w-2=Europe'
p251
I437
sS'w+1=committee'
p252
I226
sS'w+2=on'
p253
I322
sS'w+1=to'
p254
I256
sS'w-1=immediately'
p255
I394
sS'w+2=he'
p256
I301
sS'dep=afraid'
p257
I87
sS'dep=provide'
p258
I90
sS'nsubj=Kerim'
p259
I159
sS'w+2=duty'
p260
I294
sS'w+2=win'
p261
I354
sS'w+2=just'
p262
I306
sS'w-2=until'
p263
I527
sS'w-1=while'
p264
I423
sS'w-1=Kerim'
p265
I367
sS'dobj=Mr.'
p266
I98
sS'w+2=american'
p267
I281
sS'dobj=profile'
p268
I124
sS'advcl=need'
p269
I3
sS'w+1=super-civilization'
p270
I250
sS'w+2=Wade'
p271
I272
sS'w-1=she'
p272
I414
sS'w-2=Army'
p273
I435
sS'w-2=inevitably'
p274
I484
sS'w-2=Vice-President'
p275
I449
sS'w-1=effectively'
p276
I389
sS'w-2=line'
p277
I491
sS'w-2=no'
p278
I496
sS'advmod=automatically'
p279
I12
sS'w+2=entire'
p280
I295
sS'dobj=responsibility'
p281
I126
sS'nsubj=today'
p282
I187
sS'ccomp=bring'
p283
I50
sS'w+2=newly-created'
p284
I317
sS'w-2=would'
p285
I536
sS'w+2=much'
p286
I313
sS'w+1=delivery'
p287
I229
sS'ccomp=unchanged'
p288
I71
sS'w+1=french'
p289
I232
sS'w+2=Yongbyon'
p290
I274
sS'w+1=office'
p291
I242
sS'dobj=throne'
p292
I132
sS'w-2=Iraq'
p293
I442
sS'prep=until'
p294
I205
sS'advmod=even'
p295
I14
sS'dobj=challenge'
p296
I104
sS'w+2=General'
p297
I267
sS'nsubj=Zubkov'
p298
I171
sS'w-1=always'
p299
I380
sS'dobj=delivery'
p300
I108
sS'ccomp=end'
p301
I52
sS'w-2=international'
p302
I487
sS'dobj=job'
p303
I112
sS'w-2=expect'
p304
I477
sS'mark=while'
p305
I146
sS'w-2=the'
p306
I519
sS'aux=do'
p307
I34
sS'w+2=over'
p308
I324
sS'w-2=with'
p309
I535
sS'w-2=also'
p310
I460
sS'aux=will'
p311
I40
sS'w-2=weapon'
p312
I530
sS'w+2=new'
p313
I316
sS'dobj=consequence'
p314
I106
sS'w-1=or'
p315
I409
sS'nsubj=people'
p316
I182
sS'prep=with'
p317
I206
sS'cc=or'
p318
I45
sS'dobj=office'
p319
I118
sS'parataxis=maintain'
p320
I190
sS'nsubj=agency'
p321
I172
sS'w-2=though'
p322
I521
sS'w-2=10'
p323
I433
sS'w+2=people'
p324
I325
sS'w+2=presidency'
p325
I330
sS'w+2=analyze'
p326
I282
sS'w+2=bias'
p327
I286
sS'w-1=Democrats'
p328
I364
sS'w-2=it'
p329
I488
sS'ccomp=indication'
p330
I59
sS'w+1=Obama'
p331
I215
sS'advmod=longer'
p332
I19
sS'nsubj=Ford'
p333
I155
sS'w+2=relief'
p334
I332
sS'w-1=Calderon'
p335
I363
sS"w-1=''"
p336
I357
sS'w-2=person'
p337
I499
sS'ccomp=win'
p338
I73
sS'conj=engage'
p339
I80
sS'w-1=upon'
p340
I421
sS'ccomp=stabilize'
p341
I69
sS'dobj=chairmanship'
p342
I103
sS'w+2=office'
p343
I320
sS'w+2=Obama'
p344
I269
sS'w+2=do'
p345
I293
sS'advmod=also'
p346
I10
sS'partmod=take'
p347
I191
sS'advmod=widely'
p348
I30
sS'w+2=highest'
p349
I302
sS'w-2=have'
p350
I482
sS'w-2=Vladimir'
p351
I451
sS'cc=and'
p352
I43
sS'prep=under'
p353
I204
sS'w-1=soon'
p354
I417
sS'nsubj=Democrats'
p355
I154
sS'w+2=current'
p356
I292
sS'w+1=by'
p357
I224
sS'nsubj=Tsvangirai'
p358
I168
sS'w-2=what'
p359
I531
sS'ccomp=wish'
p360
I74
sS'w-2=when'
p361
I532
sS'w-1=republican'
p362
I413
sS'w-1=people'
p363
I411
sS'w+1=primary'
p364
I247
sS'w+2=Security'
p365
I271
sS'w+1=-lrb-'
p366
I213
sS'nsubj=republican'
p367
I184
sS'w+2=title'
p368
I347
sS'w+1=it'
p369
I235
sS'mark=until'
p370
I145
sS'nsubj=#PRP#'
p371
I149
sS'w-2=want'
p372
I528
sS'w+1=Senator'
p373
I216
sS'w-2=shape'
p374
I509
sS'cc=but'
p375
I44
sS'w-2=set'
p376
I508
sS'w+2=lead'
p377
I307
sS'conj=mean'
p378
I84
sS'nsubj=Lee'
p379
I160
sS'xcomp=make'
p380
I540
sS'rel=in'
p381
I209
sS'w+2=additional'
p382
I277
sS'aux=could'
p383
I33
sS'w-2=could'
p384
I474
sS'nsubj=HASTERT'
p385
I157
sS'w+2=consequence'
p386
I290
sS'w-1=bill'
p387
I385
sS'w-2=american'
p388
I461
sS'partmod=vote'
p389
I192
sS'w+2=throne'
p390
I346
sS'mark=before'
p391
I141
sS'w+1=or'
p392
I243
sS'aux=must'
p393
I37
sS'advcl=do'
p394
I1
sS'w-2=tour'
p395
I523
sS'w-2=allow'
p396
I459
sS'w-1=Zubkov'
p397
I374
sS'w+2=moral'
p398
I311
sS'w-2=be'
p399
I464
sS'dobj=worst'
p400
I138
sS'prep=on'
p401
I202
sS'ccomp=right'
p402
I66
sS'advcl=suffer'
p403
I5
sS'nsubj=man'
p404
I179
sS'w+1=different'
p405
I230
sS'w+2=failure'
p406
I297
sS'w-1=after'
p407
I377
sS'dobj=security'
p408
I128
sS'conj=allow'
p409
I78
sS'w-2=Plan'
p410
I448
sS'ccomp=reach'
p411
I63
sS'w+1=all'
p412
I219
sS'nsubj=NATO'
p413
I161
sS'ccomp=progress'
p414
I62
sS'dobj=veto'
p415
I134
sS'w+2=that'
p416
I340
sS'advcl=convene'
p417
I0
sS'advmod=alike'
p418
I9
sS'w-2=can'
p419
I467
sS'w-1=who'
p420
I424
sS'w+1=majority'
p421
I238
sS'nsubj=expectation'
p422
I174
sS'w+2=post'
p423
I328
sS'w-2=and'
p424
I462
sS'dobj=form'
p425
I111
sS'w+1=no'
p426
I241
sS'nsubj=police'
p427
I183
sS'w-2=Lee'
p428
I444
sS'w-2=to'
p429
I522
sS'w-1=on'
p430
I408
sS'tmod=#DATE#'
p431
I210
sS'dep=be'
p432
I88
sS'w+1=up'
p433
I258
sS'advmod=actually'
p434
I6
sS'w+2=jurisdiction'
p435
I305
sS'mark=so'
p436
I144
sS'w-2=try'
p437
I524
sS'ccomp=take'
p438
I70
sS'w+1=this'
p439
I255
sS'w-1=Odinga'
p440
I369
sS'w+1=more'
p441
I240
sS'ccomp=speaker'
p442
I68
sS'advmod=now'
p443
I21
sS'w-2=say'
p444
I507
sS'ccomp=#NUMBER#'
p445
I46
sS'nsubj=those'
p446
I186
sS'prep=at'
p447
I196
sS'nsubj=U.S.'
p448
I169
sS'prep=as'
p449
I195
sS'w-2=,'
p450
I430
sS'w-2=.'
p451
I432
sS'w-1=and'
p452
I381
sS'dobj=rate'
p453
I125
sS'aux=have'
p454
I35
sS'w-2=but'
p455
I466
sS'w+2=White'
p456
I273
sS'w+2=ltte'
p457
I308
sS'dobj=jurisdiction'
p458
I113
sS'ccomp=have'
p459
I56
sS'dobj=share'
p460
I129
sS'w-2=agency'
p461
I457
sS'w-2=I'
p462
I441
sS'dobj=leadership'
p463
I115
sS'w-2=as'
p464
I463
sS'advmod=soon'
p465
I24
sS'w-1=also'
p466
I379
sS'w+1=security'
p467
I249
sS'w+2=control'
p468
I291
sS'w+1=another'
p469
I220
sS'aux=should'
p470
I38
sS'w-2=out'
p471
I497
sS'w+2=chairmanship'
p472
I288
sS'dobj=title'
p473
I133
sS'w-1=they'
p474
I419
sS'w-1=a'
p475
I375
sS'nsubj=Ayro'
p476
I151
sS'mark=as'
p477
I139
sS'w-2=House'
p478
I440
sS'w-1=he'
p479
I393
sS'w+2=security'
p480
I338
sS'w+1=many'
p481
I239
sS'w+2=there'
p482
I342
sS'w+1=additional'
p483
I218
sS'w-1=party'
p484
I410
sS'advmod=immediately'
p485
I16
sS'conj=analyze'
p486
I79
sS'xcomp=sympathetic'
p487
I541
sS'w-2=bid'
p488
I465
sS'advmod=that'
p489
I25
sS'w+2=they'
p490
I344
sS'w-1=automatically'
p491
I382
sS'prep=after'
p492
I193
sS'w-2=stride'
p493
I517
sS'w-2=Afghanistan'
p494
I434
sS'w-2=strategy'
p495
I516
sS'w-1=must'
p496
I403
sS'w+2=have'
p497
I300
sS'dep=visit'
p498
I95
sS'advcl=refuse'
p499
I4
sS'w-2=Ojea'
p500
I447
sS'dep=go'
p501
I89
sS'w+1=command'
p502
I225
sS'w-2=caretaker'
p503
I469
sS'w+2=challenge'
p504
I289
sS'w-2=Ehud'
p505
I436
sS'w-2=likely'
p506
I490
sS'w-2=resolution'
p507
I505
sS'mark=since'
p508
I143
sS'w-1=government'
p509
I391
sS'prep=from'
p510
I200
sS'w-2=Viktor'
p511
I450
sS'nsubj=Westerners'
p512
I170
sS'w-1=we'
p513
I422
sS'aux=to'
p514
I39
sS'w-2=should'
p515
I512
sS'w+2=the'
p516
I341
sS'w+2=name'
p517
I314
sS'w-2=will'
p518
I533
sS'dobj=presidency'
p519
I123
sS'w+1=control'
p520
I228
sS'dobj=persona'
p521
I119
sS'w+1=,'
p522
I212
sS'w-1=actually'
p523
I376
sS'w-2=that'
p524
I518
sS'dobj=House'
p525
I97
sS'w+2=.'
p526
I264
sS'w+2=,'
p527
I263
sS'w-2=step'
p528
I515
sS'neg=not'
p529
I147
sS'w-1=U.S.'
p530
I373
sS'w-2=chief'
p531
I470
sS'w-1=quickly'
p532
I412
sS'w+1=Mr.'
p533
I214
sS'w+2=I'
p534
I268
sS'dobj=bias'
p535
I101
sS'w-2=constitution'
p536
I473
sS'dobj=control'
p537
I107
sS'w+1=a'
p538
I217
sS'w-1=now'
p539
I406
sS'w-1=not'
p540
I405
sS'w-1=nor'
p541
I404
sS'w+1=be'
p542
I223
sS'w-1=may'
p543
I402
sS'w-1=that'
p544
I418
sS'aux=be'
p545
I31
sS'w+1=power'
p546
I245
sS'w+2=would'
p547
I356
sS'w+2=a'
p548
I275
sS'w-1=man'
p549
I401
ssS'dtype'
p550
cnumpy
float64
p551
sS'feature_names_'
p552
(lp553
g417
ag394
ag144
ag269
ag499
ag403
ag434
ag175
ag117
ag418
ag346
ag224
ag279
ag114
ag295
ag80
ag485
ag156
ag145
ag332
ag11
ag443
ag99
ag103
ag465
ag489
ag8
ag105
ag21
ag198
ag348
ag545
ag85
ag383
ag307
ag454
ag53
ag393
ag470
ag514
ag311
ag108
ag217
ag352
ag375
ag318
ag445
ag154
ag194
ag55
ag283
ag178
ag301
ag123
ag76
ag179
ag459
ag246
ag157
ag330
ag68
ag159
ag414
ag411
ag74
ag81
ag402
ag244
ag442
ag341
ag438
ag288
ag196
ag338
ag360
ag141
ag189
ag86
ag409
ag486
ag339
ag69
ag187
ag47
ag378
ag66
ag182
ag257
ag432
ag501
ag258
ag204
ag73
ag59
ag223
ag498
ag171
ag525
ag266
ag22
ag203
ag535
ag121
ag342
ag296
ag72
ag314
ag537
ag300
ag43
ag79
ag425
ag303
ag458
ag229
ag463
ag212
ag120
ag319
ag521
ag78
ag39
ag163
ag519
ag268
ag453
ag281
ag150
ag408
ag460
ag205
ag56
ag292
ag473
ag415
ag115
ag233
ag134
ag400
ag477
ag61
ag391
ag147
ag508
ag436
ag370
ag305
ag529
ag228
ag371
ag247
ag476
ag155
ag63
ag355
ag333
ag10
ag385
ag67
ag259
ag379
ag413
ag236
ag199
ag19
ag225
ag27
ag192
ag358
ag448
ag512
ag298
ag321
ag220
ag422
ag207
ag38
ag58
ag44
ag404
ag201
ag170
ag316
ag427
ag367
ag127
ag446
ag282
ag164
ag104
ag320
ag347
ag389
ag492
ag87
ag449
ag447
ag31
ag45
ag202
ag510
ag107
ag401
ag180
ag353
ag294
ag317
ag32
ag132
ag381
ag431
ag48
ag522
ag366
ag533
ag331
ag373
ag538
ag483
ag412
ag469
ag124
ag181
ag542
ag357
ag502
ag252
ag158
ag520
ag287
ag405
ag17
ag289
ag84
ag184
ag369
ag231
ag197
ag421
ag481
ag441
ag426
ag291
ag392
ag112
ag546
ag235
ag364
ag37
ag467
ag270
ag36
ag96
ag227
ag101
ag439
ag254
ag232
ag433
ag167
ag206
ag176
ag52
ag527
ag526
ag41
ag216
ag297
ag534
ag344
ag93
ag365
ag271
ag456
ag290
ag548
ag183
ag382
ag222
ag186
ag151
ag267
ag326
ag213
ag210
ag100
ag327
ag136
ag472
ag504
ag386
ag468
ag356
ag345
ag260
ag280
ag50
ag406
ag122
ag62
ag497
ag256
ag349
ag75
ag161
ag435
ag262
ag377
ag457
ag13
ag218
ag398
ag168
ag286
ag517
ag34
ag313
ag284
ag33
ag249
ag343
ag208
ag253
ag245
ag308
ag324
ag111
ag95
ag423
ag148
ag325
ag60
ag334
ag23
ag250
ag239
ag242
ag106
ag480
ag70
ag416
ag516
ag482
ag211
ag490
ag230
ag390
ag368
ag162
ag131
ag92
ag219
ag138
ag91
ag261
ag42
ag547
ag336
ag35
ag30
ag135
ag26
ag9
ag335
ag328
ag119
ag89
ag265
ag130
ag440
ag139
ag109
ag140
ag530
ag397
ag475
ag523
ag407
ag77
ag466
ag299
ag452
ag491
ag54
ag177
ag387
ag191
ag113
ag82
ag276
ag102
ag509
ag71
ag479
ag255
ag137
ag128
ag40
ag57
ag215
ag221
ag549
ag543
ag496
ag541
ag540
ag539
ag142
ag430
ag315
ag484
ag363
ag532
ag362
ag272
ag173
ag94
ag354
ag544
ag474
ag166
ag340
ag513
ag264
ag420
ag116
ag49
ag190
ag90
ag248
ag450
ag143
ag451
ag323
ag494
ag273
ag505
ag251
ag169
ag18
ag478
ag462
ag293
ag237
ag428
ag214
ag12
ag500
ag410
ag275
ag511
ag351
ag193
ag125
ag20
ag83
ag15
ag461
ag226
ag396
ag310
ag388
ag424
ag464
ag399
ag488
ag455
ag419
ag149
ag503
ag531
ag160
ag241
ag536
ag384
ag240
ag172
ag304
ag51
ag209
ag88
ag188
ag350
ag98
ag274
ag126
ag153
ag302
ag329
ag110
ag506
ag277
ag64
ag243
ag25
ag24
ag278
ag471
ag16
ag337
ag234
ag174
ag200
ag46
ag238
ag507
ag152
ag444
ag376
ag374
ag118
ag165
ag515
ag29
ag146
ag528
ag495
ag493
ag524
ag306
ag28
ag322
ag429
ag395
ag437
ag185
ag133
ag263
ag372
ag14
ag312
ag359
ag361
ag518
ag129
ag309
ag285
ag195
ag97
ag65
ag380
ag487
asS'separator'
p554
S'='
sS'sparse'
p555
I01
sb.