ccopy_reg
_reconstructor
p1
(csklearn.feature_extraction.dict_vectorizer
DictVectorizer
p2
c__builtin__
object
p3
NtRp4
(dp5
S'vocabulary_'
p6
(dp7
S'advmod=then'
p8
I22
sS'prep=before'
p9
I217
sS'w+1=evidenceto'
p10
I259
sS'w+2=full'
p11
I364
sS'conj=order'
p12
I58
sS'dobj=element'
p13
I100
sS'dobj=information'
p14
I113
sS'w-2=we'
p15
I580
sS'w-2=people'
p16
I557
sS'nsubj=puppet'
p17
I181
sS'w+1=form'
p18
I262
sS'nsubjpass=people'
p19
I204
sS'w+2=my'
p20
I379
sS'w+1=video'
p21
I311
sS'w+2=from'
p22
I362
sS'nsubj=team'
p23
I187
sS'dobj=water'
p24
I149
sS'w-2=Barbados'
p25
I485
sS'nsubj=investigator'
p26
I174
sS'prep=that'
p27
I226
sS'w-2=police'
p28
I558
sS'advmod=evidenceto'
p29
I12
sS'w-2=often'
p30
I551
sS'dobj=garbage'
p31
I109
sS'w-2=they'
p32
I574
sS'nsubjpass=First'
p33
I198
sS'w+2=scale'
p34
I391
sS'prep=by'
p35
I218
sS'w+1=that'
p36
I300
sS'nsubj=government'
p37
I172
sS'w-2=food'
p38
I519
sS'w-1=while'
p39
I472
sS'w-1=begin'
p40
I430
sS'w+2=base'
p41
I338
sS'w+2=piece'
p42
I385
sS'w-1=team'
p43
I458
sS'w+1=sand'
p44
I296
sS'w+1=these'
p45
I302
sS'dobj=egg'
p46
I99
sS'nsubj=study'
p47
I185
sS'advmod=just'
p48
I16
sS'w+2=several'
p49
I392
sS'w-1=rights'
p50
I451
sS'tmod=year'
p51
I233
sS'nsubj=center'
p52
I169
sS'w-1=will'
p53
I474
sS'w+1=prayer'
p54
I291
sS'conj=boil'
p55
I46
sS'w-2=later'
p56
I542
sS'nsubj=number'
p57
I178
sS'w-1=by'
p58
I432
sS'w-1=be'
p59
I429
sS'w+2=lose'
p60
I375
sS'nsubjpass=datum'
p61
I201
sS'w-2=family'
p62
I518
sS'w-2=investment'
p63
I536
sS'nsubjpass=Street'
p64
I199
sS'w+1=firewood'
p65
I260
sS'w+1=she'
p66
I297
sS'w-2=before'
p67
I500
sS'w-2=where'
p68
I583
sS'w+1=doorway'
p69
I256
sS'w+1=just'
p70
I274
sS'nsubj=mission'
p71
I177
sS'w-2=demonstrator'
p72
I512
sS'dobj=material'
p73
I117
sS'w+2=to'
p74
I403
sS'w+1=on'
p75
I284
sS'dobj=aid'
p76
I82
sS'w+2=first'
p77
I359
sS'w+1=opium'
p78
I286
sS'w-2=continue'
p79
I509
sS'w-1=have'
p80
I438
sS'ccomp=say'
p81
I41
sS'conj=need'
p82
I56
sS'w+1=money'
p83
I279
sS'w+2=in'
p84
I369
sS'advmod=#PRP#'
p85
I7
sS'xcomp=see'
p86
I596
sS'w+1=datum'
p87
I253
sS'advcl=home'
p88
I3
sS'w-2=be'
p89
I499
sS'w-2=mask'
p90
I543
sS'advmod=once'
p91
I18
sS'prep=about'
p92
I209
sS'aux=can'
p93
I27
sS'complm=that'
p94
I44
sS'prep=around'
p95
I213
sS'w-2=Israel'
p96
I488
sS'dobj=career'
p97
I91
sS'w-1=I'
p98
I420
sS'dobj=card'
p99
I90
sS'w-1=from'
p100
I437
sS'w+1=testimony'
p101
I299
sS'xcomp=build'
p102
I590
sS'w-2=effort'
p103
I516
sS'advcl=be'
p104
I1
sS'w-2=that'
p105
I571
sS'w+1=discard'
p106
I254
sS'w+1=the'
p107
I301
sS'w-1=evidence'
p108
I434
sS'w-2=for'
p109
I520
sS'w+1=they'
p110
I303
sS'nsubj=Israel'
p111
I162
sS'dobj=volume'
p112
I147
sS'dobj=fossil'
p113
I107
sS'w-2=investigator'
p114
I535
sS'advmod=daily'
p115
I11
sS'prep=in'
p116
I221
sS'aux=would'
p117
I32
sS'w+1=for'
p118
I261
sS'w-2=suspect'
p119
I569
sS'xcomp=hand'
p120
I592
sS'w+2=point'
p121
I388
sS'w+2=much'
p122
I378
sS'dobj=thing'
p123
I139
sS'dobj=tipper'
p124
I142
sS'w+1=classify'
p125
I250
sS'dobj=video'
p126
I145
sS'w-2=record'
p127
I561
sS'w-2=each'
p128
I515
sS'nsubj=volunteer'
p129
I192
sS'prep=to'
p130
I227
sS'nsubj=parent'
p131
I180
sS'nsubj=Crompton'
p132
I161
sS'w-2=a'
p133
I493
sS'w+2=wood'
p134
I412
sS'nsubj=suspect'
p135
I186
sS'w-1=bank'
p136
I428
sS'advmod=ago'
p137
I8
sS'w+1=rare'
p138
I294
sS'w-1=still'
p139
I455
sS'w+1=and'
p140
I243
sS'w-1=they'
p141
I463
sS'conj=spend'
p142
I67
sS'dobj=gold'
p143
I110
sS'w+1=recyclable'
p144
I295
sS'w+1=climate'
p145
I251
sS'w+2=water'
p146
I407
sS'w+2=for'
p147
I361
sS'conj=kill'
p148
I53
sS'nsubj=that'
p149
I188
sS'w-2=King'
p150
I489
sS'w-2=government'
p151
I524
sS'prt=up'
p152
I230
sS'w+1=book'
p153
I248
sS'purpcl=preserve'
p154
I231
sS'w-2=here'
p155
I529
sS'w+2=white'
p156
I410
sS'w+1=irrefutable'
p157
I272
sS'w-1=--'
p158
I416
sS'w+1=evidence'
p159
I258
sS'advcl=use'
p160
I6
sS'w+2=cargo'
p161
I346
sS'w-2=discover'
p162
I513
sS'dobj=pill'
p163
I128
sS'w-2=item'
p164
I539
sS'dobj=ice'
p165
I112
sS'mark=if'
p166
I154
sS'w-2=well'
p167
I581
sS'dobj=sand'
p168
I133
sS'w+2=expert'
p169
I357
sS'w-1=Salim'
p170
I422
sS'w-2=work'
p171
I586
sS'advmod=where'
p172
I25
sS'w-2=sector'
p173
I565
sS'conj=distribute'
p174
I48
sS'w-2=gum'
p175
I525
sS'w+2=when'
p176
I408
sS'nsubj=King'
p177
I163
sS'w-2=involve'
p178
I537
sS'dep=say'
p179
I75
sS'ccomp=live'
p180
I39
sS'dobj=intelligence'
p181
I114
sS'w+2=body'
p182
I344
sS'w-2=use'
p183
I577
sS'dep=print'
p184
I73
sS'dobj=plant'
p185
I129
sS'prep=include'
p186
I222
sS'w+2=kill'
p187
I373
sS'w-1=world'
p188
I477
sS'prep=along'
p189
I212
sS'nsubj=who'
p190
I195
sS'w-1=worker'
p191
I476
sS'nsubj=truck'
p192
I190
sS'w-2=study'
p193
I568
sS'w-1=to'
p194
I464
sS'w-2=Street'
p195
I492
sS'w+1=accord'
p196
I240
sS'dobj=fuel'
p197
I108
sS'dobj=#PRP#'
p198
I79
sS'w-2=do'
p199
I514
sS'w+2=harvest'
p200
I366
sS'w-1=England'
p201
I419
sS'w+2=distribute'
p202
I352
sS'w-2=ability'
p203
I494
sS'nsubjpass=blood'
p204
I200
sS'dep=imagine'
p205
I71
sS'ccomp=give'
p206
I38
sS'partmod=use'
p207
I208
sS'w+2=access'
p208
I327
sS'w+1=intelligence'
p209
I270
sS'conj=limit'
p210
I54
sS'w+1=he'
p211
I266
sS'w+2=all'
p212
I329
sS'w+1=nearly'
p213
I282
sS'nsubjpass=that'
p214
I206
sS'dobj=damages'
p215
I94
sS'w-1=water'
p216
I468
sS'w-2=able'
p217
I495
sS'w-1=benefit'
p218
I431
sS'w-2=datum'
p219
I511
sS'w+2=because'
p220
I339
sS'w-2=water'
p221
I578
sS'advmod=when'
p222
I24
sS'w-2=she'
p223
I566
sS'prep=for'
p224
I219
sS'w-2=countryside'
p225
I510
sS'w-1=truck'
p226
I466
sS'w+2=they'
p227
I400
sS'w+2=at'
p228
I335
sS'w+1=wood'
p229
I316
sS'auxpass=be'
p230
I33
sS'w+2=pension'
p231
I384
sS"w-1='s"
p232
I414
sS'w+2=give'
p233
I365
sS'w-2=balance'
p234
I498
sS'w+2=after'
p235
I328
sS'dobj=earnings'
p236
I98
sS'dobj=wood'
p237
I151
sS'w+2=card'
p238
I345
sS'advmod=still'
p239
I20
sS'xcomp=continue'
p240
I591
sS'w-1=systematically'
p241
I457
sS'w-2=1000'
p242
I481
sS'dobj=firewood'
p243
I103
sS'dobj=liter'
p244
I115
sS'nsubj=#NUMBER#'
p245
I158
sS'dep=owe'
p246
I72
sS'w-2=facility'
p247
I517
sS'w-2=Ghana'
p248
I486
sS'nsubj=researcher'
p249
I183
sS'w-2=information'
p250
I534
sS'w+1=its'
p251
I273
sS'w+2=arm'
p252
I333
sS'w+2=with'
p253
I411
sS'dobj=what'
p254
I150
sS'xcomp=qualify'
p255
I595
sS'w+1=too'
p256
I308
sS'w-2=year'
p257
I588
sS'w+1=my'
p258
I281
sS'dobj=lot'
p259
I116
sS'w+2=year'
p260
I413
sS'nsubj=tree'
p261
I189
sS'dobj=access'
p262
I81
sS'w-2=month'
p263
I547
sS'w-1=native'
p264
I443
sS'w-1=UNDP'
p265
I423
sS'w+2=earnings'
p266
I354
sS'w+2=ourselves'
p267
I383
sS"w-2=''"
p268
I478
sS'w-2=cleanup'
p269
I508
sS'w+2=on'
p270
I381
sS'w+1=to'
p271
I306
sS'nsubj=seal'
p272
I184
sS'w+2=member'
p273
I376
sS'w+2=food'
p274
I360
sS'w-1=and'
p275
I426
sS'conj=send'
p276
I65
sS'advmod=best'
p277
I10
sS'conj=have'
p278
I50
sS'w+2=along'
p279
I330
sS'dobj=paste'
p280
I125
sS'w+1=information'
p281
I269
sS'w+1=papers'
p282
I287
sS'advmod=systematically'
p283
I21
sS'w-2=there'
p284
I573
sS'w-1=parent'
p285
I449
sS'advmod=first'
p286
I14
sS'w+2=about'
p287
I326
sS'prep=without'
p288
I229
sS'w-2=method'
p289
I544
sS'w+2=firewood'
p290
I358
sS'advmod=far'
p291
I13
sS'w+2=preserve'
p292
I389
sS'w-1=she'
p293
I453
sS'dobj=datum'
p294
I95
sS'w+1=nine'
p295
I283
sS'w+2=money'
p296
I377
sS'advmod=often'
p297
I17
sS'dobj=variety'
p298
I144
sS'w-2=go'
p299
I523
sS'w+2=pill'
p300
I386
sS'w-2=terrorism'
p301
I570
sS'ccomp=need'
p302
I40
sS'w-2=mission'
p303
I545
sS'w-1=Romney'
p304
I421
sS'w-1=money'
p305
I442
sS'w-2=would'
p306
I587
sS'dobj=evidence'
p307
I102
sS'dobj=nutrient'
p308
I122
sS'dobj=arm'
p309
I83
sS'w-2=nine'
p310
I549
sS'w+2=plant'
p311
I387
sS'w+2=this'
p312
I401
sS'w+1=underground'
p313
I309
sS'w-1=agency'
p314
I424
sS'nsubj=worker'
p315
I197
sS'dobj=art'
p316
I84
sS'conj=preserve'
p317
I59
sS'xcomp=turn'
p318
I597
sS'w+2=protect'
p319
I390
sS'advmod=there'
p320
I23
sS'w+2=21'
p321
I321
sS'mark=while'
p322
I156
sS'w-2=50,000'
p323
I482
sS'w+2=behalf'
p324
I342
sS'aux=do'
p325
I28
sS'w-2=kettle'
p326
I541
sS'xcomp=protect'
p327
I594
sS'aux=will'
p328
I31
sS'dobj=cargo'
p329
I92
sS'dobj=piece'
p330
I127
sS'w-2=opponent'
p331
I553
sS'w+2=signature'
p332
I393
sS'conj=stagnate'
p333
I68
sS'prep=with'
p334
I228
sS'w+2=sort'
p335
I394
sS'dobj=testimony'
p336
I137
sS'nsubj=agency'
p337
I168
sS'w-2=in'
p338
I532
sS'w-2=journalist'
p339
I540
sS'dobj=footage'
p340
I105
sS'w+1=quite'
p341
I293
sS'conj=publish'
p342
I61
sS'w+2=analyze'
p343
I331
sS'w+2=evidence'
p344
I356
sS'w-1=street'
p345
I456
sS'w-1=puppet'
p346
I450
sS'w-1=woman'
p347
I475
sS'w+2=fuel'
p348
I363
sS'w+2=stagnate'
p349
I396
sS'dobj=ticket'
p350
I140
sS'conj=study'
p351
I70
sS'nsubj=Romney'
p352
I165
sS'advmod=out'
p353
I19
sS'w+1=milk'
p354
I278
sS'w+1=one'
p355
I285
sS'w+1=water'
p356
I313
sS'w+1=damages'
p357
I252
sS'prep=accord'
p358
I210
sS'w+1=without'
p359
I315
sS'w+2=nutrient'
p360
I380
sS'w+2=individual'
p361
I370
sS'w-1=Africa'
p362
I418
sS"w+2=''"
p363
I317
sS'w-2=organization'
p364
I554
sS'dobj=count'
p365
I93
sS'advmod=also'
p366
I9
sS'w-2=forest'
p367
I521
sS'nsubj=record'
p368
I182
sS'w+2=ice'
p369
I367
sS'w-2=woman'
p370
I585
sS'w-2=Mitt'
p371
I490
sS'w-2=States'
p372
I491
sS'w+1=petition'
p373
I290
sS'conj=operate'
p374
I57
sS'dobj=that'
p375
I138
sS'w-2=have'
p376
I526
sS'w+1=fossil'
p377
I263
sS'cc=and'
p378
I34
sS'nsubj=industry'
p379
I173
sS'w+1=by'
p380
I249
sS'conj=mix'
p381
I55
sS'w+1=performance'
p382
I288
sS'ccomp=sell'
p383
I42
sS'w+1=in'
p384
I268
sS'nsubj=journalist'
p385
I175
sS'w+1=aid'
p386
I241
sS'mark=until'
p387
I155
sS'nsubj=#PRP#'
p388
I159
sS'parataxis=serious'
p389
I207
sS'w+1=about'
p390
I239
sS'nsubj=victim'
p391
I191
sS'w+1=material'
p392
I277
sS'dobj=body'
p393
I88
sS'nsubjpass=information'
p394
I202
sS'w-1=who'
p395
I473
sS'dobj=#NUMBER#'
p396
I78
sS'w-1=help'
p397
I440
sS'w+2=before'
p398
I341
sS'dobj=methane'
p399
I118
sS'prep=like'
p400
I223
sS'w-2=the'
p401
I572
sS'dobj=papers'
p402
I124
sS'w+1=audience'
p403
I246
sS'w-2=around'
p404
I497
sS'mark=before'
p405
I153
sS'w-2=money'
p406
I546
sS'w+2=liter'
p407
I374
sS'w-2=center'
p408
I505
sS'nsubj=UNDP'
p409
I167
sS'conj=redeem'
p410
I63
sS'dobj=wages'
p411
I148
sS'w-2=process'
p412
I560
sS'w+2=which'
p413
I409
sS'w+2=depot'
p414
I351
sS'w+2=?'
p415
I322
sS'w-1=datum'
p416
I433
sS'w-1=themselves'
p417
I460
sS'w-2=what'
p418
I582
sS'prep=of'
p419
I224
sS'w+2=diving'
p420
I353
sS'w+1=egg'
p421
I257
sS'prep=on'
p422
I225
sS'mark=after'
p423
I152
sS'nsubj=man'
p424
I176
sS'dobj=recyclable'
p425
I132
sS'w-2=by'
p426
I503
sS'nsubj=which'
p427
I194
sS'advcl=abducted'
p428
I0
sS'dobj=$'
p429
I80
sS'w+2=voting'
p430
I405
sS'w+1=all'
p431
I242
sS'conj=invest'
p432
I52
sS'dep=request'
p433
I74
sS'nsubj=woman'
p434
I196
sS'conj=raise'
p435
I62
sS'w+1=atmospheric'
p436
I245
sS'w+2=that'
p437
I398
sS'w-2=to'
p438
I575
sS'w-1=fee'
p439
I435
sS'w-2=can'
p440
I504
sS'prep=base'
p441
I216
sS'w+2=blanket'
p442
I343
sS'w+2=information'
p443
I371
sS'w-1=or'
p444
I447
sS'w+2=awful'
p445
I337
sS'w+1=large'
p446
I275
sS'dobj=beer'
p447
I86
sS'dobj=form'
p448
I106
sS'w+1=personal'
p449
I289
sS'w+2=too'
p450
I404
sS'nsubj=Barbados'
p451
I160
sS'w-2=sample'
p452
I563
sS'conj=go'
p453
I49
sS'w+2=and'
p454
I332
sS'w-2=and'
p455
I496
sS'w+1=up'
p456
I310
sS'w-1=start'
p457
I454
sS'dep=tell'
p458
I76
sS'w+1=16'
p459
I237
sS'w+2=America'
p460
I323
sS'w-2=try'
p461
I576
sS'xcomp=invest'
p462
I593
sS'w+1=this'
p463
I304
sS'w-2=he'
p464
I527
sS'w+2=beer'
p465
I340
sS'w-2=revenue'
p466
I562
sS'w+1=more'
p467
I280
sS'w+1=proposal'
p468
I292
sS'w-2=church'
p469
I507
sS'w+2=illegal'
p470
I368
sS'w-2=say'
p471
I564
sS'w+2=the'
p472
I399
sS'prep=at'
p473
I215
sS'w-2=will'
p474
I584
sS'prep=as'
p475
I214
sS'w-2=,'
p476
I479
sS'w-2=.'
p477
I480
sS'w+1=what'
p478
I314
sS'dobj=number'
p479
I121
sS'aux=have'
p480
I29
sS'w-2=but'
p481
I502
sS'w+2=coal'
p482
I347
sS'w-2=:'
p483
I483
sS'w-1=.'
p484
I417
sS'w-2=morning'
p485
I548
sS'w-1=,'
p486
I415
sS'w+2=10'
p487
I320
sS'w-2=bud'
p488
I501
sS'dobj=food'
p489
I104
sS'w+2=endorsement'
p490
I355
sS'w-2=I'
p491
I487
sS'w-2=it'
p492
I538
sS'w+2=datum'
p493
I350
sS'ccomp=use'
p494
I43
sS'w-1=also'
p495
I425
sS'w-2=how'
p496
I530
sS'conj=help'
p497
I51
sS'w+2=one'
p498
I382
sS'w-1=which'
p499
I471
sS'w-2=other'
p500
I555
sS'dobj=proposal'
p501
I131
sS'w+1=another'
p502
I244
sS'w-2=human'
p503
I531
sS'dobj=award'
p504
I85
sS'w-2=out'
p505
I556
sS'w-1=then'
p506
I461
sS'w+1=supplies'
p507
I298
sS'w-1=of'
p508
I445
sS'nsubjpass=species'
p509
I205
sS'dobj=time'
p510
I141
sS'advcl=grow'
p511
I2
sS'conj=sort'
p512
I66
sS'conj=bring'
p513
I47
sS'w-1=volunteer'
p514
I467
sS'w-1=when'
p515
I470
sS'w-2=gather'
p516
I522
sS'dep=want'
p517
I77
sS'w+1=garbage'
p518
I265
sS'w+1=ticket'
p519
I305
sS'dobj=harvest'
p520
I111
sS'w+1=baseball'
p521
I247
sS'w-1=he'
p522
I439
sS'dobj=supplies'
p523
I136
sS'w+2=wages'
p524
I406
sS'dobj=money'
p525
I120
sS'nsubj=demonstrator'
p526
I170
sS'w+1=from'
p527
I264
sS'conj=analyze'
p528
I45
sS'nsubj=water'
p529
I193
sS'advcl=know'
p530
I4
sS'w-2=should'
p531
I567
sS'dobj=doorway'
p532
I97
sS'dobj=opium'
p533
I123
sS'w+1=document'
p534
I255
sS'w+1=interesting'
p535
I271
sS'prep=after'
p536
I211
sS'w+2=around'
p537
I334
sS'w-1=out'
p538
I448
sS'ccomp=face'
p539
I37
sS'ccomp=do'
p540
I36
sS'w-1=tree'
p541
I465
sS'dobj=toll'
p542
I143
sS'nsubj=Museums'
p543
I164
sS'w-2=once'
p544
I552
sS'nsubj=opponent'
p545
I179
sS'w-2=chinese'
p546
I506
sS'w+1=last'
p547
I276
sS'w-1=hour'
p548
I441
sS'w+2=stagnant'
p549
I395
sS'dobj=book'
p550
I89
sS'w-2=print'
p551
I559
sS'conj=process'
p552
I60
sS'w+2=than'
p553
I397
sS'advmod=how'
p554
I15
sS'w-2=industry'
p555
I533
sS'ccomp=available'
p556
I35
sS'dobj=point'
p557
I130
sS'w-1=first'
p558
I436
sS'prep=from'
p559
I220
sS'dobj=milk'
p560
I119
sS'w-1=seal'
p561
I452
sS'conj=sell'
p562
I64
sS'w-2=help'
p563
I528
sS'dobj=sheep'
p564
I134
sS'w+2=kaguya'
p565
I372
sS'w-1=we'
p566
I469
sS'aux=to'
p567
I30
sS'w-2=you'
p568
I589
sS'dobj=voice'
p569
I146
sS'nsubjpass=mask'
p570
I203
sS'w+1=toll'
p571
I307
sS'nsubj=Salim'
p572
I166
sS'w+1=$'
p573
I234
sS'w-1=that'
p574
I459
sS'tmod=week'
p575
I232
sS'w+1=,'
p576
I235
sS'w+1=.'
p577
I236
sS'w-2=way'
p578
I579
sS'w+2=.'
p579
I319
sS'w+2=,'
p580
I318
sS'w-1=often'
p581
I446
sS'dobj=document'
p582
I96
sS'w+2=count'
p583
I348
sS'neg=not'
p584
I157
sS'advcl=slow'
p585
I5
sS'w+2=award'
p586
I336
sS'w+2=I'
p587
I324
sS'conj=start'
p588
I69
sS'w+1=a'
p589
I238
sS'w-1=not'
p590
I444
sS'dobj=signature'
p591
I135
sS'w+2=county'
p592
I349
sS'w-2=Association'
p593
I484
sS'w-1=as'
p594
I427
sS'w-2=office'
p595
I550
sS'w+2=tipper'
p596
I402
sS'w+1=vote'
p597
I312
sS'w+1=huge'
p598
I267
sS'aux=be'
p599
I26
sS'w-1=there'
p600
I462
sS'dobj=endorsement'
p601
I101
sS'dobj=pension'
p602
I126
sS'w+2=a'
p603
I325
sS'dobj=blanket'
p604
I87
sS'nsubj=girl'
p605
I171
ssS'dtype'
p606
cnumpy
float64
p607
sS'feature_names_'
p608
(lp609
g428
ag104
ag511
ag88
ag530
ag585
ag160
ag85
ag137
ag366
ag277
ag115
ag29
ag291
ag286
ag554
ag48
ag297
ag91
ag353
ag239
ag283
ag8
ag320
ag222
ag172
ag599
ag93
ag325
ag480
ag567
ag328
ag117
ag230
ag378
ag556
ag540
ag539
ag206
ag180
ag302
ag81
ag383
ag494
ag94
ag528
ag55
ag513
ag174
ag453
ag278
ag497
ag432
ag148
ag210
ag381
ag82
ag374
ag12
ag317
ag552
ag342
ag435
ag410
ag562
ag276
ag512
ag142
ag333
ag588
ag351
ag205
ag246
ag184
ag433
ag179
ag458
ag517
ag396
ag198
ag429
ag262
ag76
ag309
ag316
ag504
ag447
ag604
ag393
ag550
ag99
ag97
ag329
ag365
ag215
ag294
ag582
ag532
ag236
ag46
ag13
ag601
ag307
ag243
ag489
ag340
ag448
ag113
ag197
ag31
ag143
ag520
ag165
ag14
ag181
ag244
ag259
ag73
ag399
ag560
ag525
ag479
ag308
ag533
ag402
ag280
ag602
ag330
ag163
ag185
ag557
ag501
ag425
ag168
ag564
ag591
ag523
ag336
ag375
ag123
ag350
ag510
ag124
ag542
ag298
ag126
ag569
ag112
ag411
ag24
ag254
ag237
ag423
ag405
ag166
ag387
ag322
ag584
ag245
ag388
ag451
ag132
ag111
ag177
ag543
ag352
ag572
ag409
ag337
ag52
ag526
ag605
ag37
ag379
ag26
ag385
ag424
ag71
ag57
ag545
ag131
ag17
ag368
ag249
ag272
ag47
ag135
ag23
ag149
ag261
ag192
ag391
ag129
ag529
ag427
ag190
ag434
ag315
ag33
ag64
ag204
ag61
ag394
ag570
ag19
ag509
ag214
ag389
ag207
ag92
ag358
ag536
ag189
ag95
ag475
ag473
ag441
ag9
ag35
ag224
ag559
ag116
ag186
ag400
ag419
ag422
ag27
ag130
ag334
ag288
ag152
ag154
ag575
ag51
ag573
ag576
ag577
ag459
ag589
ag390
ag196
ag386
ag431
ag140
ag502
ag436
ag403
ag521
ag153
ag380
ag125
ag145
ag357
ag87
ag106
ag534
ag69
ag421
ag159
ag10
ag65
ag118
ag18
ag377
ag527
ag518
ag211
ag598
ag384
ag281
ag209
ag535
ag157
ag251
ag70
ag446
ag547
ag392
ag354
ag83
ag467
ag258
ag213
ag295
ag75
ag355
ag78
ag282
ag382
ag449
ag373
ag54
ag468
ag341
ag138
ag144
ag44
ag66
ag507
ag101
ag36
ag107
ag45
ag110
ag463
ag519
ag271
ag571
ag256
ag313
ag456
ag21
ag597
ag356
ag478
ag359
ag229
ag363
ag580
ag579
ag487
ag321
ag415
ag460
ag587
ag603
ag287
ag208
ag235
ag212
ag279
ag343
ag454
ag252
ag537
ag228
ag586
ag445
ag41
ag220
ag465
ag398
ag324
ag442
ag182
ag238
ag161
ag482
ag583
ag592
ag493
ag414
ag202
ag420
ag266
ag490
ag344
ag169
ag290
ag77
ag274
ag147
ag22
ag348
ag11
ag233
ag200
ag369
ag470
ag84
ag361
ag443
ag565
ag187
ag407
ag60
ag273
ag296
ag122
ag20
ag360
ag270
ag498
ag267
ag231
ag42
ag300
ag311
ag121
ag292
ag319
ag34
ag49
ag332
ag335
ag549
ag349
ag553
ag437
ag472
ag227
ag312
ag596
ag74
ag450
ag430
ag524
ag146
ag176
ag413
ag156
ag253
ag134
ag260
ag232
ag486
ag158
ag484
ag362
ag201
ag98
ag304
ag170
ag265
ag314
ag495
ag275
ag594
ag136
ag59
ag40
ag218
ag58
ag416
ag108
ag439
ag558
ag100
ag80
ag522
ag397
ag548
ag305
ag264
ag590
ag508
ag581
ag444
ag538
ag285
ag346
ag50
ag561
ag293
ag457
ag139
ag345
ag241
ag43
ag574
ag417
ag506
ag600
ag141
ag194
ag541
ag226
ag514
ag216
ag566
ag515
ag499
ag39
ag395
ag53
ag347
ag191
ag188
ag268
ag476
ag477
ag242
ag323
ag483
ag593
ag25
ag248
ag491
ag96
ag150
ag371
ag372
ag195
ag133
ag203
ag217
ag455
ag404
ag234
ag89
ag67
ag488
ag481
ag426
ag440
ag408
ag546
ag469
ag269
ag79
ag225
ag219
ag72
ag162
ag199
ag128
ag103
ag247
ag62
ag38
ag109
ag367
ag516
ag299
ag151
ag175
ag376
ag464
ag563
ag155
ag496
ag503
ag338
ag555
ag250
ag114
ag63
ag178
ag492
ag164
ag339
ag326
ag56
ag90
ag289
ag303
ag406
ag263
ag485
ag310
ag595
ag30
ag544
ag331
ag364
ag500
ag505
ag16
ag28
ag551
ag412
ag127
ag466
ag452
ag471
ag173
ag223
ag531
ag193
ag119
ag301
ag105
ag401
ag284
ag32
ag438
ag461
ag183
ag221
ag578
ag15
ag167
ag418
ag68
ag474
ag370
ag171
ag306
ag257
ag568
ag102
ag240
ag120
ag462
ag327
ag255
ag86
ag318
asS'separator'
p610
S'='
sS'sparse'
p611
I01
sb.