ccopy_reg
_reconstructor
p1
(csklearn.feature_extraction.dict_vectorizer
DictVectorizer
p2
c__builtin__
object
p3
NtRp4
(dp5
S'vocabulary_'
p6
(dp7
S'w+2=mobile'
p8
I136
sS'w+2=now'
p9
I139
sS'w-2=send'
p10
I217
sS'nsubjpass=force'
p11
I64
sS'w-1=of'
p12
I173
sS'w-1=trigger'
p13
I186
sS'w-1=orange'
p14
I175
sS'w+1=,'
p15
I82
sS'infmod=detain'
p16
I42
sS'w+2=look'
p17
I133
sS'w-2=people'
p18
I209
sS'w-2=regular'
p19
I212
sS'w-2=message'
p20
I206
sS'w+2=music'
p21
I138
sS'w+2=of'
p22
I140
sS'w-1=to'
p23
I185
sS'nn=trigger'
p24
I51
sS'w+1=have'
p25
I97
sS'w-2=state'
p26
I221
sS'det=the'
p27
I36
sS'w-2=level'
p28
I205
sS'w+2=also'
p29
I117
sS'w+2=but'
p30
I122
sS'nsubjpass=bank'
p31
I63
sS'w+1=level'
p32
I102
sS'w-2=remain'
p33
I213
sS'w+1=over'
p34
I104
sS'w+2=landslide'
p35
I132
sS'tmod=#DATE#'
p36
I80
sS'w+2=any'
p37
I118
sS'conj=able'
p38
I22
sS'w-2=and'
p39
I192
sS'dobj=public'
p40
I41
sS'w+2=expand'
p41
I126
sS'ccomp=deal'
p42
I19
sS'w-2=have'
p43
I201
sS'w+1=to'
p44
I111
sS'w-2=on'
p45
I208
sS'nsubjpass=individual'
p46
I65
sS'prep=by'
p47
I72
sS'w-1=on'
p48
I174
sS'nsubj=disaster'
p49
I54
sS'w-1=first'
p50
I162
sS'w+2=more'
p51
I137
sS'nsubj=doctor'
p52
I55
sS'w+1=that'
p53
I108
sS'w-2=at'
p54
I193
sS'nsubj=general'
p55
I56
sS'w-2=israeli'
p56
I202
sS'w-2=not'
p57
I207
sS'w-2=dismiss'
p58
I197
sS'conj=risk'
p59
I27
sS'cop=be'
p60
I29
sS'dep=in'
p61
I33
sS'w-2=she'
p62
I218
sS'w+1=Sunday'
p63
I85
sS'amod=heighten'
p64
I8
sS"w-2='s"
p65
I189
sS'w-1=import'
p66
I169
sS'nsubj=soldier'
p67
I60
sS'amod=high'
p68
I9
sS'w+1=beyond'
p69
I91
sS'prep=over'
p70
I75
sS'prep=at'
p71
I71
sS'w+1=in'
p72
I98
sS'nsubjpass=police'
p73
I66
sS'w+1=at'
p74
I89
sS'w+1=stage'
p75
I106
sS'conj=market'
p76
I25
sS'nsubj=people'
p77
I58
sS'w+2=force'
p78
I128
sS'w-2=code'
p79
I196
sS'w-2=campaign'
p80
I195
sS'w-2=route'
p81
I214
sS'w-1=mentally'
p82
I171
sS'aux=have'
p83
I13
sS'rcmod=result'
p84
I79
sS'w+2=contain'
p85
I124
sS'w-1=be'
p86
I159
sS'w-1=highest'
p87
I168
sS'w+2=people'
p88
I142
sS'w-2=upbeat'
p89
I227
sS'w-2=stay'
p90
I222
sS'conj=in'
p91
I24
sS'w-1=the'
p92
I183
sS'w-2=the'
p93
I224
sS'w+1=through'
p94
I110
sS'amod=full'
p95
I7
sS'rcmod=coincide'
p96
I78
sS'prep=about'
p97
I70
sS'w+1=driver'
p98
I94
sS'prep=through'
p99
I76
sS'w+1=just'
p100
I100
sS'w-1=security'
p101
I179
sS'w-1=computer'
p102
I160
sS'xcomp=people'
p103
I228
sS'w-1=terrorism'
p104
I181
sS'aux=should'
p105
I14
sS'w-2=knowledge'
p106
I204
sS'w-2=senator'
p107
I216
sS'w+2=to'
p108
I150
sS'w-2=a'
p109
I191
sS'w-1=they'
p110
I184
sS'prep=for'
p111
I73
sS'det=a'
p112
I35
sS'dobj=authority'
p113
I38
sS'w-1=a'
p114
I157
sS'w-1=news'
p115
I172
sS'nsubj=senator'
p116
I59
sS'w-1=its'
p117
I170
sS'w-1=have'
p118
I165
sS'w+2=police'
p119
I143
sS'dobj=lawmaker'
p120
I39
sS'w+1=marine'
p121
I103
sS'w-1=Amber'
p122
I156
sS'w+2=refrain'
p123
I146
sS'w-2=its'
p124
I203
sS"w+2=''"
p125
I112
sS'w+2=in'
p126
I129
sS'xcomp=provide'
p127
I229
sS'nsubj=technician'
p128
I61
sS'w+2=as'
p129
I119
sS'parataxis=say'
p130
I67
sS'w+2=include'
p131
I130
sS'w+1=from'
p132
I96
sS'w-1=general'
p133
I164
sS'auxpass=be'
p134
I16
sS'complm=that'
p135
I21
sS'w+2=detain'
p136
I125
sS'w+2=they'
p137
I149
sS'conj=authority'
p138
I23
sS'w+1=distinguished'
p139
I93
sS'w+2=provide'
p140
I144
sS'w+1=lawmaker'
p141
I101
sS'w-1=out'
p142
I176
sS'nsubj=Amber'
p143
I53
sS'w+2=will'
p144
I154
sS'w-2=to'
p145
I225
sS'prep=to'
p146
I77
sS'cc=and'
p147
I17
sS'nn=terror'
p148
I50
sS'w-1=disaster'
p149
I161
sS'poss=country'
p150
I69
sS'w-1=terror'
p151
I180
sS'ccomp=experience'
p152
I20
sS'w+1=the'
p153
I109
sS'w+1=by'
p154
I92
sS'w+1=be'
p155
I90
sS'advmod=only'
p156
I5
sS'w+2=be'
p157
I121
sS'cc=but'
p158
I18
sS'w-2=distribute'
p159
I198
sS'w-2=police'
p160
I210
sS'w-1=very'
p161
I187
sS'w+2=remain'
p162
I147
sS'w+1=status'
p163
I107
sS'w-2=should'
p164
I219
sS'dobj=Martin'
p165
I37
sS'prep=in'
p166
I74
sS'nn=security'
p167
I49
sS'w+1=its'
p168
I99
sS'w+1=for'
p169
I95
sS'dep=order'
p170
I34
sS'w-2=say'
p171
I215
sS'w-2=hair'
p172
I200
sS'nsubj=#PRP#'
p173
I52
sS'w+2=authority'
p174
I120
sS'w+1=about'
p175
I86
sS'w-2=technician'
p176
I223
sS'w-1=red'
p177
I177
sS"w-1=''"
p178
I155
sS'w+2=MySpace.com'
p179
I115
sS'advcl=show'
p180
I0
sS'w-2=raise'
p181
I211
sS"w+1=''"
p182
I81
sS'amod=red'
p183
I12
sS'nn=orange'
p184
I48
sS'advmod=mentally'
p185
I3
sS'aux=to'
p186
I15
sS'w+2=traffic'
p187
I151
sS'w-1=remain'
p188
I178
sS'w+2=public'
p189
I145
sS'amod=israeli'
p190
I11
sS'w+2=the'
p191
I148
sS'w+2=trucker'
p192
I152
sS'w+1=as'
p193
I88
sS'partmod=issue'
p194
I68
sS'w+1=and'
p195
I87
sS'w-1=full'
p196
I163
sS'w+1=school'
p197
I105
sS'w-2=force'
p198
I199
sS"w-2=''"
p199
I188
sS'w+1=-'
p200
I83
sS'nsubj=this'
p201
I62
sS'w-1=heighten'
p202
I166
sS'w+1=.'
p203
I84
sS'w+2=for'
p204
I127
sS'cop=remain'
p205
I30
sS'w+2=market'
p206
I135
sS'w+2=.'
p207
I114
sS'w+2=,'
p208
I113
sS'dep=if'
p209
I32
sS'w+2=on'
p210
I141
sS'cop=stay'
p211
I31
sS'neg=not'
p212
I45
sS'advmod=enough'
p213
I1
sS'w-2=,'
p214
I190
sS'advmod=on'
p215
I4
sS'w-1=high'
p216
I167
sS'w-1=and'
p217
I158
sS'w+2=make'
p218
I134
sS'w+2=concern'
p219
I123
sS'advmod=very'
p220
I6
sS'w-2=special'
p221
I220
sS'nsubj=internet'
p222
I57
sS'w-2=trafficking'
p223
I226
sS'w+2=we'
p224
I153
sS'mark=with'
p225
I44
sS'w-2=be'
p226
I194
sS'amod=highest'
p227
I10
sS'conj=sign'
p228
I28
sS'nn=import'
p229
I47
sS'advmod=first'
p230
I2
sS'conj=refrain'
p231
I26
sS'w-1=that'
p232
I182
sS'w+2=issue'
p233
I131
sS'nn=computer'
p234
I46
sS'w+2=a'
p235
I116
sS'mark=in'
p236
I43
sS'dobj=project'
p237
I40
ssS'dtype'
p238
cnumpy
float64
p239
sS'feature_names_'
p240
(lp241
g180
ag213
ag230
ag185
ag215
ag156
ag220
ag95
ag64
ag68
ag227
ag190
ag183
ag83
ag105
ag186
ag134
ag147
ag158
ag42
ag152
ag135
ag38
ag138
ag91
ag76
ag231
ag59
ag228
ag60
ag205
ag211
ag209
ag61
ag170
ag112
ag27
ag165
ag113
ag120
ag237
ag40
ag16
ag236
ag225
ag212
ag234
ag229
ag184
ag167
ag148
ag24
ag173
ag143
ag49
ag52
ag55
ag222
ag77
ag116
ag67
ag128
ag201
ag31
ag11
ag46
ag73
ag130
ag194
ag150
ag97
ag71
ag47
ag111
ag166
ag70
ag99
ag146
ag96
ag84
ag36
ag182
ag15
ag200
ag203
ag63
ag175
ag195
ag193
ag74
ag155
ag69
ag154
ag139
ag98
ag169
ag132
ag25
ag72
ag168
ag100
ag141
ag32
ag121
ag34
ag197
ag75
ag163
ag53
ag153
ag94
ag44
ag125
ag208
ag207
ag179
ag235
ag29
ag37
ag129
ag174
ag157
ag30
ag219
ag85
ag136
ag41
ag204
ag78
ag126
ag131
ag233
ag35
ag17
ag218
ag206
ag8
ag51
ag21
ag9
ag22
ag210
ag88
ag119
ag140
ag189
ag123
ag162
ag191
ag137
ag108
ag187
ag192
ag224
ag144
ag178
ag122
ag114
ag217
ag86
ag102
ag149
ag50
ag196
ag133
ag118
ag202
ag216
ag87
ag66
ag117
ag82
ag115
ag12
ag48
ag14
ag142
ag177
ag188
ag101
ag151
ag104
ag232
ag92
ag110
ag23
ag13
ag161
ag199
ag65
ag214
ag109
ag39
ag54
ag226
ag80
ag79
ag58
ag159
ag198
ag172
ag43
ag56
ag124
ag106
ag28
ag20
ag57
ag45
ag18
ag160
ag181
ag19
ag33
ag81
ag171
ag107
ag10
ag62
ag164
ag221
ag26
ag90
ag176
ag93
ag145
ag223
ag89
ag103
ag127
asS'separator'
p242
S'='
sS'sparse'
p243
I01
sb.