ccopy_reg
_reconstructor
p1
(csklearn.feature_extraction.dict_vectorizer
DictVectorizer
p2
c__builtin__
object
p3
NtRp4
(dp5
S'sort'
p6
I01
sS'feature_names_'
p7
(lp8
S'advcl=be'
p9
aS'advcl=brandish'
p10
aS'advcl=get'
p11
aS'advcl=have'
p12
aS'advcl=receive'
p13
aS'advcl=seek'
p14
aS'advmod=abroad'
p15
aS'advmod=actually'
p16
aS'advmod=all'
p17
aS'advmod=allegedly'
p18
aS'advmod=also'
p19
aS'advmod=always'
p20
aS'advmod=anymore'
p21
aS'advmod=away'
p22
aS'advmod=briefly'
p23
aS'advmod=carefully'
p24
aS'advmod=completely'
p25
aS'advmod=deeper'
p26
aS'advmod=here'
p27
aS'advmod=how'
p28
aS'advmod=just'
p29
aS'advmod=largely'
p30
aS'advmod=long'
p31
aS'advmod=optically'
p32
aS'advmod=particularly'
p33
aS'advmod=probably'
p34
aS'advmod=really'
p35
aS'advmod=sometimes'
p36
aS'advmod=still'
p37
aS'advmod=then'
p38
aS'advmod=there'
p39
aS'advmod=well'
p40
aS'advmod=when'
p41
aS'advmod=where'
p42
aS'advmod=wherever'
p43
aS'aux=be'
p44
aS'aux=can'
p45
aS'aux=could'
p46
aS'aux=do'
p47
aS'aux=have'
p48
aS'aux=should'
p49
aS'aux=to'
p50
aS'aux=will'
p51
aS'auxpass=be'
p52
aS'cc=and'
p53
aS'cc=but'
p54
aS'cc=or'
p55
aS'ccomp=be'
p56
aS'ccomp=bring'
p57
aS'ccomp=call'
p58
aS'ccomp=come'
p59
aS'ccomp=continue'
p60
aS'ccomp=do'
p61
aS'ccomp=feel'
p62
aS'ccomp=say'
p63
aS'complm=that'
p64
aS'complm=whether'
p65
aS'conj=acknowledge'
p66
aS'conj=allow'
p67
aS'conj=ashamed'
p68
aS'conj=clean'
p69
aS'conj=cover'
p70
aS'conj=detract'
p71
aS'conj=difficult'
p72
aS'conj=flee'
p73
aS'conj=hope'
p74
aS'conj=inneighbor'
p75
aS'conj=not'
p76
aS'conj=protect'
p77
aS'conj=show'
p78
aS'conj=take'
p79
aS'conj=travel'
p80
aS'conj=try'
p81
aS'dep=clear'
p82
aS'dep=due'
p83
aS'dep=easy'
p84
aS'dep=from'
p85
aS'dep=wait'
p86
aS'dobj=#NUMBER#'
p87
aS'dobj=#PRP#'
p88
aS'dobj=Jews'
p89
aS'dobj=activity'
p90
aS'dobj=admiration'
p91
aS'dobj=anger'
p92
aS'dobj=anything'
p93
aS'dobj=area'
p94
aS'dobj=bag'
p95
aS'dobj=beauty'
p96
aS'dobj=center'
p97
aS'dobj=city'
p98
aS'dobj=cost'
p99
aS'dobj=crime'
p100
aS'dobj=datum'
p101
aS'dobj=earmark'
p102
aS'dobj=evidence'
p103
aS'dobj=facility'
p104
aS'dobj=fact'
p105
aS'dobj=failure'
p106
aS'dobj=fortune'
p107
aS'dobj=guitar'
p108
aS'dobj=hat'
p109
aS'dobj=identity'
p110
aS'dobj=loved'
p111
aS'dobj=material'
p112
aS'dobj=misconduct'
p113
aS'dobj=movement'
p114
aS'dobj=people'
p115
aS'dobj=place'
p116
aS'dobj=poverty'
p117
aS'dobj=precaution'
p118
aS'dobj=profit'
p119
aS'dobj=program'
p120
aS'dobj=shipment'
p121
aS'dobj=shock'
p122
aS'dobj=spot'
p123
aS'dobj=supernova'
p124
aS'dobj=talent'
p125
aS'dobj=trace'
p126
aS'dobj=truth'
p127
aS'dobj=view'
p128
aS'dobj=whereabouts'
p129
aS'dobj=woe'
p130
aS'mark=because'
p131
aS'mark=while'
p132
aS'mark=with'
p133
aS'neg=never'
p134
aS'neg=not'
p135
aS'nsubj=#PRP#'
p136
aS'nsubj=Korea'
p137
aS'nsubj=Laden'
p138
aS'nsubj=Mehsud'
p139
aS'nsubj=Pyongyang'
p140
aS'nsubj=Remy'
p141
aS'nsubj=administration'
p142
aS'nsubj=al-Dulaymi'
p143
aS'nsubj=beauty'
p144
aS'nsubj=commander'
p145
aS'nsubj=construction'
p146
aS'nsubj=fear'
p147
aS'nsubj=fighter'
p148
aS'nsubj=government'
p149
aS'nsubj=haze'
p150
aS'nsubj=insurgent'
p151
aS'nsubj=leader'
p152
aS'nsubj=militant'
p153
aS'nsubj=owner'
p154
aS'nsubj=people'
p155
aS'nsubj=rebel'
p156
aS'nsubj=rest'
p157
aS'nsubj=search'
p158
aS'nsubj=terrorist'
p159
aS'nsubj=which'
p160
aS'nsubj=who'
p161
aS'nsubj=woman'
p162
aS'nsubjpass=#PRP#'
p163
aS'nsubjpass=Washington'
p164
aS'nsubjpass=conflict'
p165
aS'nsubjpass=relationship'
p166
aS'nsubjpass=secret'
p167
aS'nsubjpass=that'
p168
aS'nsubjpass=which'
p169
aS'parataxis=intend'
p170
aS'poss=#PRP#'
p171
aS'prep=after'
p172
aS'prep=against'
p173
aS'prep=among'
p174
aS'prep=at'
p175
aS'prep=before'
p176
aS'prep=behind'
p177
aS'prep=by'
p178
aS'prep=during'
p179
aS'prep=for'
p180
aS'prep=from'
p181
aS'prep=in'
p182
aS'prep=inside'
p183
aS'prep=of'
p184
aS'prep=over'
p185
aS'prep=since'
p186
aS'prep=through'
p187
aS'prep=to'
p188
aS'prep=under'
p189
aS'prep=with'
p190
aS'prt=out'
p191
aS'purpcl=get'
p192
aS'w+1=,'
p193
aS'w+1=.'
p194
aS'w+1=?'
p195
aS'w+1=a'
p196
aS'w+1=abroad'
p197
aS'w+1=across'
p198
aS'w+1=after'
p199
aS'w+1=along'
p200
aS'w+1=among'
p201
aS'w+1=and'
p202
aS'w+1=any'
p203
aS'w+1=anything'
p204
aS'w+1=arm'
p205
aS'w+1=at'
p206
aS'w+1=away'
p207
aS'w+1=beauty'
p208
aS'w+1=behind'
p209
aS'w+1=briefly'
p210
aS'w+1=by'
p211
aS'w+1=charm'
p212
aS'w+1=cost'
p213
aS'w+1=creative'
p214
aS'w+1=crime'
p215
aS'w+1=criminal'
p216
aS'w+1=deeper'
p217
aS'w+1=earmark'
p218
aS'w+1=evidence'
p219
aS'w+1=for'
p220
aS'w+1=from'
p221
aS'w+1=he'
p222
aS'w+1=here'
p223
aS'w+1=how'
p224
aS'w+1=in'
p225
aS'w+1=inside'
p226
aS'w+1=islamist'
p227
aS'w+1=it'
p228
aS'w+1=its'
p229
aS'w+1=itself'
p230
aS'w+1=near'
p231
aS'w+1=on'
p232
aS'w+1=one'
p233
aS'w+1=or'
p234
aS'w+1=out'
p235
aS'w+1=people'
p236
aS'w+1=place'
p237
aS'w+1=profit'
p238
aS'w+1=rice'
p239
aS'w+1=since'
p240
aS'w+1=spot'
p241
aS'w+1=talent'
p242
aS'w+1=the'
p243
aS'w+1=themselves'
p244
aS'w+1=there'
p245
aS'w+1=they'
p246
aS'w+1=to'
p247
aS'w+1=under'
p248
aS'w+1=unflattering'
p249
aS'w+1=urban'
p250
aS'w+1=view'
p251
aS'w+1=we'
p252
aS'w+1=what'
p253
aS"w+2='"
p254
aS"w+2=''"
p255
aS'w+2=,'
p256
aS'w+2=.'
p257
aS'w+2=Afghanistan'
p258
aS'w+2=Alzheimer'
p259
aS'w+2=Baluchistan'
p260
aS'w+2=Kantar'
p261
aS'w+2=Mogadishu'
p262
aS'w+2=Pakistan'
p263
aS'w+2=Somalia'
p264
aS'w+2=a'
p265
aS'w+2=activity'
p266
aS'w+2=address'
p267
aS'w+2=admiration'
p268
aS'w+2=against'
p269
aS'w+2=and'
p270
aS'w+2=anger'
p271
aS'w+2=anymore'
p272
aS'w+2=as'
p273
aS'w+2=avoid'
p274
aS'w+2=bag'
p275
aS'w+2=be'
p276
aS'w+2=because'
p277
aS'w+2=but'
p278
aS'w+2=by'
p279
aS'w+2=can'
p280
aS'w+2=cave'
p281
aS'w+2=center'
p282
aS'w+2=civilian'
p283
aS'w+2=clean'
p284
aS'w+2=cloud'
p285
aS'w+2=deeper'
p286
aS'w+2=determine'
p287
aS'w+2=distant'
p288
aS'w+2=economic'
p289
aS'w+2=evade'
p290
aS'w+2=fact'
p291
aS'w+2=failure'
p292
aS'w+2=flee'
p293
aS'w+2=for'
p294
aS'w+2=fortune'
p295
aS'w+2=from'
p296
aS'w+2=guitar'
p297
aS'w+2=he'
p298
aS'w+2=highly'
p299
aS'w+2=human'
p300
aS'w+2=identity'
p301
aS'w+2=in'
p302
aS'w+2=it'
p303
aS'w+2=laptop'
p304
aS'w+2=last'
p305
aS'w+2=leader'
p306
aS'w+2=loved'
p307
aS'w+2=misconduct'
p308
aS'w+2=movement'
p309
aS'w+2=nearly'
p310
aS'w+2=neighbor'
p311
aS'w+2=northern'
p312
aS'w+2=not'
p313
aS'w+2=nuclear'
p314
aS'w+2=of'
p315
aS'w+2=or'
p316
aS'w+2=people'
p317
aS'w+2=poverty'
p318
aS'w+2=program'
p319
aS'w+2=remote'
p320
aS'w+2=seek'
p321
aS'w+2=shipment'
p322
aS'w+2=shock'
p323
aS'w+2=so'
p324
aS'w+2=some'
p325
aS'w+2=take'
p326
aS'w+2=talent'
p327
aS'w+2=that'
p328
aS'w+2=the'
p329
aS'w+2=then'
p330
aS'w+2=they'
p331
aS'w+2=to'
p332
aS'w+2=truth'
p333
aS'w+2=try'
p334
aS'w+2=under'
p335
aS'w+2=veil'
p336
aS'w+2=view'
p337
aS'w+2=village'
p338
aS'w+2=villager'
p339
aS'w+2=weak'
p340
aS'w+2=whereabouts'
p341
aS'w+2=with'
p342
aS'w+2=woe'
p343
aS"w-1=''"
p344
aS"w-1='s"
p345
aS'w-1=,'
p346
aS'w-1=600,000'
p347
aS'w-1=Remy'
p348
aS'w-1=`'
p349
aS'w-1=actually'
p350
aS'w-1=administration'
p351
aS'w-1=after'
p352
aS'w-1=allegedly'
p353
aS'w-1=also'
p354
aS'w-1=and'
p355
aS'w-1=be'
p356
aS'w-1=by'
p357
aS'w-1=carefully'
p358
aS'w-1=case'
p359
aS'w-1=cash'
p360
aS'w-1=cocaine'
p361
aS'w-1=completely'
p362
aS'w-1=could'
p363
aS'w-1=easy'
p364
aS'w-1=face'
p365
aS'w-1=fighter'
p366
aS'w-1=find'
p367
aS'w-1=from'
p368
aS'w-1=ground'
p369
aS'w-1=have'
p370
aS'w-1=he'
p371
aS'w-1=in'
p372
aS'w-1=insurgent'
p373
aS'w-1=into'
p374
aS'w-1=it'
p375
aS'w-1=just'
p376
aS'w-1=largely'
p377
aS'w-1=militant'
p378
aS'w-1=never'
p379
aS'w-1=not'
p380
aS'w-1=now'
p381
aS'w-1=of'
p382
aS'w-1=officer'
p383
aS'w-1=or'
p384
aS'w-1=perpetrator'
p385
aS'w-1=really'
p386
aS'w-1=rebel'
p387
aS'w-1=remember'
p388
aS'w-1=rest'
p389
aS'w-1=she'
p390
aS'w-1=sometimes'
p391
aS'w-1=still'
p392
aS'w-1=terrorist'
p393
aS'w-1=the'
p394
aS'w-1=they'
p395
aS'w-1=to'
p396
aS'w-1=trafficker'
p397
aS'w-1=trait'
p398
aS'w-1=we'
p399
aS'w-1=will'
p400
aS'w-1=worker'
p401
aS'w-2=$'
p402
aS"w-2=''"
p403
aS'w-2=,'
p404
aS'w-2=-rrb-'
p405
aS'w-2=.'
p406
aS'w-2=Harare'
p407
aS'w-2=Hutu'
p408
aS'w-2=Mehsud'
p409
aS'w-2=Pyongyang'
p410
aS'w-2=Taleban'
p411
aS'w-2=Washington'
p412
aS'w-2=administration'
p413
aS'w-2=against'
p414
aS'w-2=ago'
p415
aS'w-2=al-Dulaymi'
p416
aS'w-2=all'
p417
aS'w-2=attempt'
p418
aS'w-2=away'
p419
aS'w-2=be'
p420
aS'w-2=believe'
p421
aS'w-2=blame'
p422
aS'w-2=burial'
p423
aS'w-2=can'
p424
aS'w-2=cattle'
p425
aS'w-2=charm'
p426
aS'w-2=commander'
p427
aS'w-2=could'
p428
aS'w-2=custom'
p429
aS'w-2=destroy'
p430
aS'w-2=do'
p431
aS'w-2=document'
p432
aS'w-2=down'
p433
aS'w-2=drug'
p434
aS'w-2=easy'
p435
aS'w-2=either'
p436
aS'w-2=enough'
p437
aS'w-2=force'
p438
aS'w-2=freedom'
p439
aS'w-2=genocide'
p440
aS'w-2=go'
p441
aS'w-2=have'
p442
aS'w-2=haze'
p443
aS'w-2=he'
p444
aS'w-2=help'
p445
aS'w-2=how'
p446
aS'w-2=in'
p447
aS'w-2=innocent'
p448
aS'w-2=insurgent'
p449
aS'w-2=it'
p450
aS'w-2=keep'
p451
aS'w-2=kurdish'
p452
aS'w-2=leader'
p453
aS'w-2=length'
p454
aS'w-2=may'
p455
aS'w-2=might'
p456
aS'w-2=militant'
p457
aS'w-2=mine'
p458
aS'w-2=need'
p459
aS'w-2=not'
p460
aS'w-2=nothing'
p461
aS'w-2=now'
p462
aS'w-2=of'
p463
aS'w-2=off'
p464
aS'w-2=or'
p465
aS'w-2=organize'
p466
aS'w-2=out'
p467
aS'w-2=plenty'
p468
aS'w-2=problem'
p469
aS'w-2=rebel'
p470
aS'w-2=rebellion'
p471
aS'w-2=relationship'
p472
aS'w-2=remain'
p473
aS'w-2=run'
p474
aS'w-2=safe'
p475
aS'w-2=say'
p476
aS'w-2=scare'
p477
aS'w-2=secret'
p478
aS'w-2=should'
p479
aS'w-2=some'
p480
aS'w-2=something'
p481
aS'w-2=survivor'
p482
aS'w-2=tape'
p483
aS'w-2=the'
p484
aS'w-2=there'
p485
aS'w-2=they'
p486
aS'w-2=to'
p487
aS'w-2=try'
p488
aS'w-2=want'
p489
aS'w-2=where'
p490
aS'w-2=wherever'
p491
aS'w-2=which'
p492
aS'w-2=who'
p493
aS'w-2=will'
p494
aS'w-2=with'
p495
aS'w-2=work'
p496
aS'xcomp=address'
p497
aS'xcomp=avoid'
p498
aS'xcomp=border'
p499
aS'xcomp=come'
p500
aS'xcomp=determine'
p501
aS'xcomp=evade'
p502
aS'xcomp=play'
p503
asS'dtype'
p504
cnumpy
float64
p505
sS'vocabulary_'
p506
(dp507
g38
I29
sg23
I14
sg176
I167
sg213
I204
sg388
I379
sg58
I49
sg121
I112
sg443
I434
sg413
I404
sg26
I17
sg215
I206
sg297
I288
sg101
I92
sg502
I493
sg290
I281
sg40
I31
sg283
I274
sg251
I242
sg241
I232
sg216
I207
sg208
I199
sg219
I210
sg459
I450
sg486
I477
sg466
I457
sg178
I169
sg287
I278
sg156
I147
sg149
I140
sg293
I284
sg457
I448
sg423
I414
sg242
I233
sg309
I300
sg62
I53
sg35
I26
sg217
I208
sg427
I418
sg29
I20
sg97
I88
sg400
I391
sg21
I12
sg357
I348
sg224
I215
sg356
I347
sg484
I475
sg177
I168
sg266
I257
sg71
I62
sg56
I47
sg152
I143
sg490
I481
sg192
I183
sg131
I122
sg493
I484
sg314
I305
sg332
I323
sg232
I223
sg93
I84
sg305
I296
sg205
I196
sg234
I225
sg370
I361
sg63
I54
sg481
I472
sg302
I293
sg303
I294
sg106
I97
sg301
I292
sg114
I105
sg363
I354
sg398
I389
sg45
I36
sg64
I55
sg236
I227
sg386
I377
sg94
I85
sg422
I413
sg368
I359
sg278
I269
sg9
I0
sg279
I270
sg263
I254
sg243
I234
sg326
I317
sg18
I9
sg276
I267
sg498
I489
sg246
I237
sg122
I113
sg163
I154
sg182
I173
sg220
I211
sg453
I444
sg111
I102
sg96
I87
sg30
I21
sg188
I179
sg120
I111
sg117
I108
sg392
I383
sg202
I193
sg304
I295
sg13
I4
sg34
I25
sg60
I51
sg500
I491
sg294
I285
sg147
I138
sg203
I194
sg375
I366
sg226
I217
sg27
I18
sg210
I201
sg372
I363
sg452
I443
sg373
I364
sg151
I142
sg405
I396
sg394
I385
sg260
I251
sg100
I91
sg496
I487
sg313
I304
sg77
I68
sg42
I33
sg201
I192
sg43
I34
sg98
I89
sg492
I483
sg74
I65
sg307
I298
sg421
I412
sg410
I401
sg415
I406
sg115
I106
sg209
I200
sg465
I456
sg161
I152
sg503
I494
sg401
I392
sg482
I473
sg139
I130
sg463
I454
sg396
I387
sg264
I255
sg88
I79
sg431
I422
sg126
I117
sg333
I324
sg25
I16
sg104
I95
sg350
I341
sg214
I205
sg280
I271
sg362
I353
sg185
I176
sg157
I148
sg206
I197
sg269
I260
sg222
I213
sg429
I420
sg244
I235
sg324
I315
sg191
I182
sg335
I326
sg167
I158
sg168
I159
sg320
I311
sg367
I358
sg218
I209
sg75
I66
sg277
I268
sg41
I32
sg461
I452
sg180
I171
sg11
I2
sg252
I243
sg123
I114
sg353
I344
sg85
I76
sg273
I264
sg99
I90
sg52
I43
sg345
I336
sg15
I6
sg83
I74
sg31
I22
sg20
I11
sg274
I265
sg359
I350
sg37
I28
sg137
I128
sg275
I266
sg360
I351
sg434
I425
sg245
I236
sg458
I449
sg130
I121
sg231
I222
sg229
I220
sg248
I239
sg24
I15
sg164
I155
sg342
I333
sg344
I335
sg129
I120
sg284
I275
sg468
I459
sg464
I455
sg154
I145
sg316
I307
sg198
I189
sg403
I394
sg315
I306
sg36
I27
sg281
I272
sg348
I339
sg247
I238
sg451
I442
sg165
I156
sg408
I399
sg355
I346
sg477
I468
sg110
I101
sg86
I77
sg197
I188
sg485
I476
sg418
I409
sg295
I286
sg183
I174
sg390
I381
sg379
I370
sg76
I67
sg12
I3
sg296
I287
sg318
I309
sg475
I466
sg166
I157
sg441
I432
sg254
I245
sg107
I98
sg409
I400
sg321
I312
sg57
I48
sg473
I464
sg103
I94
sg89
I80
sg82
I73
sg456
I447
sg113
I104
sg124
I115
sg378
I369
sg70
I61
sg240
I231
sg33
I24
sg271
I262
sg501
I492
sg39
I30
sg132
I123
sg47
I38
sg469
I460
sg495
I486
sg389
I380
sg51
I42
sg72
I63
sg116
I107
sg155
I146
sg190
I181
sg55
I46
sg144
I135
sg145
I136
sg317
I308
sg140
I131
sg84
I75
sg426
I417
sg69
I60
sg393
I384
sg337
I328
sg447
I438
sg450
I441
sg436
I427
sg22
I13
sg150
I141
sg310
I301
sg258
I249
sg227
I218
sg153
I144
sg233
I224
sg158
I149
sg267
I258
sg127
I118
sg351
I342
sg416
I407
sg312
I303
sg407
I398
sg352
I343
sg286
I277
sg95
I86
sg250
I241
sg255
I246
sg288
I279
sg19
I10
sg259
I250
sg347
I338
sg81
I72
sg339
I330
sg432
I423
sg311
I302
sg442
I433
sg53
I44
sg262
I253
sg189
I180
sg207
I198
sg261
I252
sg112
I103
sg376
I367
sg223
I214
sg480
I471
sg325
I316
sg225
I216
sg141
I132
sg228
I219
sg136
I127
sg143
I134
sg478
I469
sg54
I45
sg91
I82
sg419
I410
sg171
I162
sg87
I78
sg268
I259
sg46
I37
sg440
I431
sg200
I191
sg102
I93
sg237
I228
sg340
I331
sg17
I8
sg159
I150
sg433
I424
sg105
I96
sg90
I81
sg374
I365
sg491
I482
sg420
I411
sg385
I376
sg184
I175
sg334
I325
sg238
I229
sg425
I416
sg366
I357
sg377
I368
sg369
I360
sg397
I388
sg449
I440
sg160
I151
sg358
I349
sg300
I291
sg292
I283
sg79
I70
sg67
I58
sg361
I352
sg454
I445
sg235
I226
sg474
I465
sg162
I153
sg285
I276
sg328
I319
sg414
I405
sg338
I329
sg257
I248
sg489
I480
sg384
I375
sg142
I133
sg212
I203
sg428
I419
sg125
I116
sg487
I478
sg270
I261
sg435
I426
sg16
I7
sg383
I374
sg472
I463
sg78
I69
sg430
I421
sg488
I479
sg92
I83
sg439
I430
sg437
I428
sg444
I435
sg186
I177
sg417
I408
sg476
I467
sg32
I23
sg10
I1
sg329
I320
sg175
I166
sg230
I221
sg404
I395
sg406
I397
sg306
I297
sg298
I289
sg402
I393
sg253
I244
sg48
I39
sg108
I99
sg322
I313
sg174
I165
sg327
I318
sg346
I337
sg460
I451
sg462
I453
sg387
I378
sg323
I314
sg354
I345
sg446
I437
sg187
I178
sg455
I446
sg299
I290
sg49
I40
sg109
I100
sg467
I458
sg382
I373
sg343
I334
sg395
I386
sg349
I340
sg169
I160
sg148
I139
sg319
I310
sg128
I119
sg364
I355
sg371
I362
sg289
I280
sg14
I5
sg204
I195
sg68
I59
sg119
I110
sg221
I212
sg134
I125
sg138
I129
sg308
I299
sg448
I439
sg65
I56
sg331
I322
sg172
I163
sg497
I488
sg483
I474
sg330
I321
sg61
I52
sg291
I282
sg170
I161
sg173
I164
sg146
I137
sg365
I356
sg391
I382
sg80
I71
sg28
I19
sg239
I230
sg336
I327
sg181
I172
sg499
I490
sg445
I436
sg199
I190
sg118
I109
sg399
I390
sg50
I41
sg479
I470
sg470
I461
sg341
I332
sg272
I263
sg66
I57
sg73
I64
sg494
I485
sg193
I184
sg194
I185
sg424
I415
sg256
I247
sg471
I462
sg135
I126
sg195
I186
sg411
I402
sg179
I170
sg211
I202
sg59
I50
sg282
I273
sg133
I124
sg196
I187
sg381
I372
sg380
I371
sg265
I256
sg249
I240
sg438
I429
sg44
I35
sg412
I403
ssS'separator'
p508
S'='
sS'sparse'
p509
I01
sb.