ccopy_reg
_reconstructor
p1
(csklearn.feature_extraction.dict_vectorizer
DictVectorizer
p2
c__builtin__
object
p3
NtRp4
(dp5
S'sort'
p6
I01
sS'feature_names_'
p7
(lp8
S'advmod=even'
p9
aS'advmod=just'
p10
aS'aux=have'
p11
aS'cc=and'
p12
aS'cc=but'
p13
aS'conj=learn'
p14
aS'dep=ready'
p15
aS'dobj=koran'
p16
aS'dobj=map'
p17
aS'dobj=table'
p18
aS'nsubj=#PRP#'
p19
aS'w+1=.'
p20
aS'w+1=a'
p21
aS'w+1=the'
p22
aS'w+1=they'
p23
aS'w+2=1994'
p24
aS'w+2=multiplication'
p25
aS'w+2=whole'
p26
aS'w-1=even'
p27
aS'w-1=have'
p28
aS'w-1=just'
p29
aS'w-1=they'
p30
aS"w-2=''"
p31
aS'w-2=he'
p32
aS'w-2=than'
p33
asS'dtype'
p34
cnumpy
float64
p35
sS'vocabulary_'
p36
(dp37
g32
I23
sg17
I8
sg25
I16
sg13
I4
sg10
I1
sg24
I15
sg31
I22
sg11
I2
sg20
I11
sg14
I5
sg12
I3
sg16
I7
sg15
I6
sg22
I13
sg29
I20
sg33
I24
sg23
I14
sg21
I12
sg18
I9
sg9
I0
sg30
I21
sg27
I18
sg19
I10
sg28
I19
sg26
I17
ssS'separator'
p38
S'='
sS'sparse'
p39
I01
sb.