ccopy_reg
_reconstructor
p1
(csklearn.feature_extraction.dict_vectorizer
DictVectorizer
p2
c__builtin__
object
p3
NtRp4
(dp5
S'sort'
p6
I01
sS'feature_names_'
p7
(lp8
S'advmod=also'
p9
aS'advmod=directly'
p10
aS'advmod=where'
p11
aS'aux=have'
p12
aS'aux=to'
p13
aS'aux=will'
p14
aS'aux=would'
p15
aS'auxpass=be'
p16
aS'cc=and'
p17
aS'cc=but'
p18
aS'ccomp=become'
p19
aS'ccomp=have'
p20
aS'ccomp=learn'
p21
aS'ccomp=magnanimous'
p22
aS'ccomp=say'
p23
aS'complm=that'
p24
aS'conj=accept'
p25
aS'conj=demand'
p26
aS'conj=think'
p27
aS'dobj=concern'
p28
aS'dobj=condition'
p29
aS'dobj=condolence'
p30
aS'dobj=contention'
p31
aS'dobj=deal'
p32
aS'dobj=desire'
p33
aS'dobj=experience'
p34
aS'dobj=idea'
p35
aS'dobj=image'
p36
aS'dobj=intention'
p37
aS'dobj=message'
p38
aS'dobj=position'
p39
aS'dobj=relativity'
p40
aS'dobj=sense'
p41
aS'dobj=skill'
p42
aS'dobj=spirit'
p43
aS'dobj=status'
p44
aS'mark=in'
p45
aS'nsubj=#PRP#'
p46
aS'nsubj=Lewis'
p47
aS'nsubj=York'
p48
aS'nsubj=direction'
p49
aS'nsubj=exhibit'
p50
aS'nsubj=skin'
p51
aS'nsubj=teacher'
p52
aS'nsubjpass=action'
p53
aS'nsubjpass=message'
p54
aS'nsubjpass=summit'
p55
aS'prep=about'
p56
aS'prep=after'
p57
aS'prep=at'
p58
aS'prep=by'
p59
aS'prep=from'
p60
aS'prep=in'
p61
aS'prep=like'
p62
aS'prep=through'
p63
aS'prep=throughout'
p64
aS'prep=to'
p65
aS'prep=with'
p66
aS'w+1=.'
p67
aS'w+1=a'
p68
aS'w+1=and'
p69
aS'w+1=by'
p70
aS'w+1=he'
p71
aS'w+1=how'
p72
aS'w+1=message'
p73
aS'w+1=she'
p74
aS'w+1=status'
p75
aS'w+1=the'
p76
aS'w+1=this'
p77
aS'w+1=through'
p78
aS'w+1=throughout'
p79
aS'w+1=to'
p80
aS'w+1=we'
p81
aS'w+2=.'
p82
aS'w+2=China'
p83
aS'w+2=a'
p84
aS'w+2=about'
p85
aS'w+2=anti-trafficking'
p86
aS'w+2=concern'
p87
aS'w+2=condolence'
p88
aS'w+2=democratic'
p89
aS'w+2=emotional'
p90
aS'w+2=fragile'
p91
aS'w+2=gesture'
p92
aS'w+2=great'
p93
aS'w+2=he'
p94
aS'w+2=idea'
p95
aS'w+2=intention'
p96
aS'w+2=international'
p97
aS'w+2=it'
p98
aS'w+2=message'
p99
aS'w+2=position'
p100
aS'w+2=positive'
p101
aS'w+2=relativity'
p102
aS'w+2=republican'
p103
aS'w+2=sense'
p104
aS'w+2=shared'
p105
aS'w+2=skill'
p106
aS'w+2=spirit'
p107
aS'w+2=syrian'
p108
aS'w+2=the'
p109
aS'w-1=also'
p110
aS'w-1=and'
p111
aS'w-1=be'
p112
aS'w-1=directly'
p113
aS'w-1=exhibit'
p114
aS'w-1=have'
p115
aS'w-1=in'
p116
aS'w-1=message'
p117
aS'w-1=she'
p118
aS'w-1=skin'
p119
aS'w-1=statement'
p120
aS'w-1=teacher'
p121
aS'w-1=to'
p122
aS'w-1=would'
p123
aS'w-2=.'
p124
aS'w-2=I'
p125
aS'w-2=Lewis'
p126
aS'w-2=U.S.'
p127
aS'w-2=York'
p128
aS'w-2=a'
p129
aS'w-2=able'
p130
aS'w-2=action'
p131
aS'w-2=adversity'
p132
aS'w-2=also'
p133
aS'w-2=anxious'
p134
aS'w-2=attempt'
p135
aS'w-2=be'
p136
aS'w-2=effective'
p137
aS'w-2=employ'
p138
aS'w-2=expect'
p139
aS'w-2=fair'
p140
aS'w-2=go'
p141
aS'w-2=he'
p142
aS'w-2=help'
p143
aS'w-2=hope'
p144
aS'w-2=in'
p145
aS'w-2=intend'
p146
aS'w-2=letter'
p147
aS'w-2=sculpture'
p148
aS'w-2=she'
p149
aS'w-2=the'
p150
aS'w-2=they'
p151
aS'w-2=to'
p152
aS'w-2=try'
p153
aS'w-2=want'
p154
aS'w-2=will'
p155
aS'xcomp=settle'
p156
asS'dtype'
p157
cnumpy
float64
p158
sS'vocabulary_'
p159
(dp160
g118
I109
sg120
I111
sg47
I38
sg10
I1
sg11
I2
sg89
I80
sg131
I122
sg31
I22
sg49
I40
sg141
I132
sg21
I12
sg144
I135
sg96
I87
sg55
I46
sg59
I50
sg107
I98
sg140
I131
sg97
I88
sg154
I145
sg105
I96
sg29
I20
sg53
I44
sg28
I19
sg26
I17
sg151
I142
sg122
I113
sg152
I143
sg98
I89
sg43
I34
sg50
I41
sg114
I105
sg127
I118
sg56
I47
sg64
I55
sg153
I144
sg123
I114
sg119
I110
sg139
I130
sg77
I68
sg142
I133
sg121
I112
sg147
I138
sg133
I124
sg14
I5
sg90
I81
sg146
I137
sg117
I108
sg109
I100
sg58
I49
sg155
I146
sg74
I65
sg124
I115
sg66
I57
sg94
I85
sg34
I25
sg134
I125
sg126
I117
sg12
I3
sg93
I84
sg91
I82
sg72
I63
sg112
I103
sg132
I123
sg38
I29
sg150
I141
sg125
I116
sg145
I136
sg78
I69
sg73
I64
sg130
I121
sg95
I86
sg33
I24
sg110
I101
sg63
I54
sg35
I26
sg137
I128
sg106
I97
sg129
I120
sg51
I42
sg149
I140
sg99
I90
sg81
I72
sg115
I106
sg23
I14
sg19
I10
sg39
I30
sg22
I13
sg9
I0
sg108
I99
sg20
I11
sg16
I7
sg24
I15
sg138
I129
sg92
I83
sg57
I48
sg25
I16
sg103
I94
sg32
I23
sg17
I8
sg88
I79
sg100
I91
sg76
I67
sg70
I61
sg156
I147
sg113
I104
sg18
I9
sg37
I28
sg75
I66
sg61
I52
sg15
I6
sg128
I119
sg46
I37
sg27
I18
sg60
I51
sg143
I134
sg48
I39
sg52
I43
sg65
I56
sg13
I4
sg104
I95
sg42
I33
sg71
I62
sg69
I60
sg148
I139
sg62
I53
sg67
I58
sg36
I27
sg82
I73
sg80
I71
sg30
I21
sg85
I76
sg83
I74
sg111
I102
sg87
I78
sg40
I31
sg54
I45
sg44
I35
sg116
I107
sg102
I93
sg68
I59
sg136
I127
sg86
I77
sg79
I70
sg101
I92
sg135
I126
sg41
I32
sg84
I75
sg45
I36
ssS'separator'
p161
S'='
sS'sparse'
p162
I01
sb.