ccopy_reg
_reconstructor
p1
(csklearn.feature_extraction.dict_vectorizer
DictVectorizer
p2
c__builtin__
object
p3
NtRp4
(dp5
S'vocabulary_'
p6
(dp7
S'advmod=then'
p8
I57
sS'prep=before'
p9
I312
sS'w+2=soldier'
p10
I501
sS'nsubj=France'
p11
I231
sS'advcl=erupt'
p12
I14
sS'w+2=combat'
p13
I451
sS'w+2=vehicle'
p14
I518
sS'nsubj=Government'
p15
I233
sS'w+2=earlier'
p16
I456
sS'w-2=we'
p17
I794
sS'w-2=people'
p18
I743
sS'w-2=rush'
p19
I759
sS'w-2=original'
p20
I737
sS'ccomp=produce'
p21
I82
sS'dobj=soldier'
p22
I187
sS'advcl=express'
p23
I15
sS'w+2=plug'
p24
I493
sS'nsubj=Erdogan'
p25
I229
sS'w+2=bus'
p26
I447
sS'advmod=well'
p27
I61
sS'w+2=very'
p28
I519
sS'dobj=licens'
p29
I166
sS'advcl=deliver'
p30
I12
sS'w-2=as'
p31
I665
sS'xcomp=combat'
p32
I808
sS'w-1=carriage'
p33
I560
sS'ccomp=term'
p34
I84
sS'w-2=site'
p35
I769
sS'w-2=rescuer'
p36
I757
sS'nsubjpass=#PRP#'
p37
I294
sS'w+2=money'
p38
I476
sS'w-2=they'
p39
I779
sS'dobj=rug'
p40
I183
sS'advcl=elect'
p41
I13
sS'w+2=further'
p42
I464
sS'dobj=country'
p43
I152
sS'prep=within'
p44
I331
sS'w+2=nation'
p45
I482
sS'w+2=sound'
p46
I502
sS'w+1=old'
p47
I392
sS'w+2=british'
p48
I446
sS'w-2=authority'
p49
I667
sS'conj=call'
p50
I90
sS'w-2=consider'
p51
I686
sS'nsubj=government'
p52
I265
sS'w-2=cleric'
p53
I681
sS'nsubj=Dodd'
p54
I228
sS'dobj=post'
p55
I181
sS'dobj=stock'
p56
I191
sS'w-2=food'
p57
I705
sS'w-1=say'
p58
I601
sS'w+2=child'
p59
I448
sS'prep=to'
p60
I328
sS'w+1=Russia'
p61
I352
sS'prep=follow'
p62
I315
sS'ccomp=feel'
p63
I79
sS'advmod=really'
p64
I50
sS'w+1=23'
p65
I349
sS'w-2=class'
p66
I680
sS'w+1=in'
p67
I379
sS'nsubj=center'
p68
I259
sS'w-1=will'
p69
I620
sS'advcl=cover'
p70
I10
sS'w-2=Georgia'
p71
I636
sS'w-2=campaign'
p72
I676
sS'w-1=Obama'
p73
I538
sS'conj=stop'
p74
I109
sS'w-1=by'
p75
I558
sS'w-1=be'
p76
I554
sS'nsubj=delegate'
p77
I260
sS'w+2=rug'
p78
I497
sS'w-2=fact'
p79
I702
sS'dobj=folder'
p80
I157
sS'w+2=gunman'
p81
I465
sS'w-2=the'
p82
I777
sS'cc=rather'
p83
I77
sS'w+1=she'
p84
I398
sS'advcl=come'
p85
I8
sS'w-2=Gibson'
p86
I637
sS'w-2=timetable'
p87
I782
sS'w-2=fail'
p88
I703
sS'w-2=man'
p89
I727
sS'w-1=truck'
p90
I616
sS'w-2=promise'
p91
I750
sS'mark=because'
p92
I216
sS'advmod=suddenly'
p93
I56
sS'w+2=country'
p94
I453
sS'nsubjpass=patil'
p95
I301
sS'dobj=survivor'
p96
I197
sS'w+2=to'
p97
I512
sS'w+1=thing'
p98
I406
sS'w+2=last'
p99
I471
sS'xcomp=settle'
p100
I828
sS'w-1=Nilesat'
p101
I537
sS'w-2=Africa'
p102
I628
sS'w-1=have'
p103
I576
sS'ccomp=say'
p104
I83
sS'w-2=wagon'
p105
I791
sS'nsubj=Palestinians'
p106
I244
sS'w+2=bill'
p107
I443
sS'dep=though'
p108
I127
sS'w+2=in'
p109
I467
sS'w-2=week'
p110
I795
sS'dobj=string'
p111
I193
sS'w+1=victim'
p112
I415
sS'w-2=hope'
p113
I715
sS'nsubjpass=force'
p114
I300
sS'dobj=movement'
p115
I171
sS'w-1=could'
p116
I562
sS'aux=can'
p117
I65
sS'complm=that'
p118
I85
sS'w+1=people'
p119
I396
sS'w-1=really'
p120
I599
sS'tmod=month'
p121
I343
sS"w-1='ll"
p122
I524
sS'nsubj=Nilesat'
p123
I240
sS'dobj=unit'
p124
I206
sS'w-1=you'
p125
I623
sS'w-1=train'
p126
I613
sS'xcomp=fight'
p127
I813
sS'prt=away'
p128
I333
sS'w+1=carbon'
p129
I366
sS'advcl=be'
p130
I3
sS'w-1=despite'
p131
I564
sS'w-2=that'
p132
I776
sS'dobj=cord'
p133
I151
sS'w+1=the'
p134
I403
sS'w-2=Palestinians'
p135
I641
sS'xcomp=strangle'
p136
I829
sS'w-2=dioxide'
p137
I696
sS'w+1=most'
p138
I387
sS'cc=but'
p139
I75
sS'w+1=they'
p140
I405
sS'nsubj=Israel'
p141
I234
sS'w-1=U.N.'
p142
I541
sS'w+2=immediately'
p143
I466
sS'advmod=quickly'
p144
I49
sS'w-1=already'
p145
I550
sS'w+2=mule'
p146
I480
sS'dobj=water'
p147
I211
sS'nsubj=train'
p148
I286
sS'dobj=weight'
p149
I213
sS'prep=in'
p150
I318
sS'xcomp=say'
p151
I826
sS'dobj=pariah'
p152
I175
sS'aux=would'
p153
I71
sS'w+2=responsibility'
p154
I496
sS'w-1=about'
p155
I545
sS'w+1=Africa'
p156
I350
sS'dobj=thing'
p157
I199
sS'nsubj=U.N.'
p158
I251
sS'w+2=land'
p159
I470
sS'w-1=start'
p160
I606
sS'w-2=Party'
p161
I642
sS'prep=amid'
p162
I309
sS'w-2=U.N.'
p163
I652
sS'nsubj=demand'
p164
I261
sS'w+1=loose'
p165
I384
sS'dobj=gunman'
p166
I161
sS'xcomp=resuscitate'
p167
I825
sS'dobj=victory'
p168
I209
sS'nsubj=fund'
p169
I263
sS'nsubj=Ethiopia'
p170
I230
sS'advmod=ago'
p171
I34
sS'conj=make'
p172
I101
sS'w-1=still'
p173
I607
sS'advcl=worse'
p174
I31
sS'w-2=order'
p175
I736
sS'w+2=JI'
p176
I429
sS'dep=conditional'
p177
I118
sS'xcomp=dip'
p178
I809
sS'w+1=1.1'
p179
I348
sS'partmod=unload'
p180
I307
sS'dobj=ton'
p181
I201
sS'nsubjpass=flow'
p182
I299
sS'w-2=speaker'
p183
I771
sS'nsubjpass=bill'
p184
I296
sS'nsubj=member'
p185
I271
sS'nsubj=Alliance'
p186
I226
sS'w+2=emission'
p187
I458
sS'w-1=Clinton'
p188
I527
sS'nsubj=that'
p189
I283
sS'w-1=Israel'
p190
I533
sS'advmod=further'
p191
I43
sS'w+2=even'
p192
I459
sS'w-2=government'
p193
I710
sS'prt=up'
p194
I341
sS'dobj=attack'
p195
I138
sS'w+2=this'
p196
I510
sS'w-2=Congo'
p197
I633
sS'w-2=since'
p198
I768
sS'nsubj=lot'
p199
I269
sS'xcomp=dump'
p200
I810
sS'w-1=in'
p201
I579
sS'w-2=turn'
p202
I787
sS'w+1=into'
p203
I380
sS'advcl=reject'
p204
I23
sS'advmod=together'
p205
I59
sS'conj=be'
p206
I88
sS'w-2=seem'
p207
I763
sS'w-2=seek'
p208
I762
sS'w-2=need'
p209
I732
sS'mark=if'
p210
I218
sS'w+2=fighter'
p211
I460
sS'w+2=alongside'
p212
I436
sS'mark=in'
p213
I219
sS'prep=away'
p214
I311
sS'nsubj=patrol'
p215
I277
sS'w+1=off'
p216
I391
sS'nsubj=Thompson'
p217
I250
sS'xcomp=bring'
p218
I805
sS'w+2=when'
p219
I521
sS'prep=than'
p220
I327
sS'w-2=10'
p221
I627
sS'xcomp=face'
p222
I812
sS'nsubj=Jankovic'
p223
I236
sS'dep=learn'
p224
I123
sS'prep=out'
p225
I324
sS'conj=declare'
p226
I94
sS'advcl=insist'
p227
I19
sS'nsubj=troops'
p228
I287
sS'w-2=its'
p229
I723
sS'w-2=when'
p230
I796
sS'prep=by'
p231
I313
sS'dobj=people'
p232
I178
sS'advcl=try'
p233
I29
sS'prep=include'
p234
I319
sS'advcl=comply'
p235
I9
sS'w+1=factor'
p236
I371
sS'w-2=rely'
p237
I756
sS'w-1=miner'
p238
I586
sS'dobj=support'
p239
I195
sS'nsubj=who'
p240
I291
sS'dep=win'
p241
I128
sS'w-2=body'
p242
I673
sS'xcomp=cite'
p243
I807
sS'w-1=worker'
p244
I621
sS'dobj=miner'
p245
I167
sS'dobj=surprise'
p246
I196
sS'w-2=of'
p247
I735
sS'w-1=make'
p248
I584
sS'w-2=have'
p249
I712
sS'w+2=for'
p250
I461
sS'w-1=to'
p251
I612
sS'conj=kill'
p252
I99
sS'w+1=approximately'
p253
I358
sS'w+1=australian'
p254
I360
sS'w-2=vote'
p255
I790
sS'advcl=of'
p256
I22
sS'w+2=more'
p257
I477
sS'w-2=term'
p258
I775
sS'nsubj=party'
p259
I276
sS'dobj=#PRP#'
p260
I131
sS'w-2=do'
p261
I698
sS'nsubj=authority'
p262
I256
sS'advmod=completely'
p263
I40
sS'partmod=create'
p264
I305
sS'w+1=vast'
p265
I414
sS'conj=shoot'
p266
I107
sS'dep=give'
p267
I120
sS'w-1=actually'
p268
I546
sS'w+1=western'
p269
I420
sS'dobj=this'
p270
I200
sS'w-2=delay'
p271
I693
sS'w-1=it'
p272
I581
sS'w-1=completely'
p273
I561
sS'prep=over'
p274
I325
sS'w-2=puff'
p275
I751
sS'dobj=money'
p276
I169
sS'w-2=Italy'
p277
I639
sS'w+2=support'
p278
I506
sS'w+1=he'
p279
I375
sS'w-2=army'
p280
I664
sS'w+2=all'
p281
I435
sS'w+1=themselves'
p282
I404
sS'nsubj=Italy'
p283
I235
sS'w-2=Cross'
p284
I634
sS'w+1=nearly'
p285
I390
sS'prt=out'
p286
I338
sS'w-2=communist'
p287
I684
sS'nsubj=carriage'
p288
I258
sS'w-1=Nations'
p289
I536
sS'w-1=can'
p290
I559
sS'conj=decide'
p291
I93
sS'w-2=Russia'
p292
I644
sS'w+2=Labor'
p293
I430
sS'w+1=everything'
p294
I370
sS'w-2=able'
p295
I657
sS'w+1=through'
p296
I408
sS'w-2=chance'
p297
I679
sS'nsubj=mother'
p298
I273
sS'w-2=aid'
p299
I660
sS'dobj=bucket'
p300
I143
sS'w+2=three'
p301
I511
sS'w+2=most'
p302
I478
sS'w+2=own'
p303
I489
sS'dobj=stop'
p304
I192
sS'dobj=bus'
p305
I144
sS'advmod=easily'
p306
I41
sS'advmod=when'
p307
I62
sS'w-1=Washington'
p308
I543
sS'dobj=Georgia'
p309
I135
sS'nsubj=Olmert'
p310
I243
sS'w+2=.'
p311
I425
sS'w-2=she'
p312
I764
sS'prep=for'
p313
I316
sS'w+1=ahead'
p314
I355
sS'w+1=we'
p315
I419
sS'nsubj=force'
p316
I262
sS'dobj=net'
p317
I174
sS'nsubj=Taleban'
p318
I247
sS'w-2=disability'
p319
I697
sS'nsubj=Syria'
p320
I246
sS'w-1=McCain'
p321
I535
sS'w+2=at'
p322
I440
sS'w-1=force'
p323
I569
sS'dobj=section'
p324
I185
sS'w-2=survive'
p325
I773
sS'parataxis=say'
p326
I304
sS'w+1=trash'
p327
I411
sS'w-2=bill'
p328
I672
sS'dobj=staffer'
p329
I190
sS'w-1=France'
p330
I530
sS'w-2=easily'
p331
I700
sS'auxpass=be'
p332
I72
sS'xcomp=remind'
p333
I823
sS'w+1=fund'
p334
I374
sS'w+1=capital'
p335
I365
sS'w-1=party'
p336
I594
sS'advmod=always'
p337
I36
sS'xcomp=require'
p338
I824
sS'w+2=after'
p339
I433
sS'w-2=United'
p340
I654
sS'w-2=desire'
p341
I695
sS'advmod=still'
p342
I55
sS'dep=attack'
p343
I117
sS'w-2=whenever'
p344
I797
sS'w-2=be'
p345
I669
sS'w-2=investor'
p346
I721
sS'ccomp=force'
p347
I80
sS'w-2=hand'
p348
I711
sS'w+2=movement'
p349
I479
sS'w+2=else'
p350
I457
sS'w-2=Cheney'
p351
I632
sS'w+1=american'
p352
I357
sS'dobj=fighter'
p353
I156
sS'nsubj=aid'
p354
I253
sS'w-2=Syria'
p355
I648
sS'w+1=back'
p356
I362
sS'w+2=Democratic'
p357
I428
sS'w+2=staff'
p358
I503
sS'nsubjpass=actor'
p359
I295
sS'w+2=with'
p360
I522
sS'w+2=seven'
p361
I500
sS'w+2=arbitrarily'
p362
I439
sS'w+1=much'
p363
I388
sS'w+2=back'
p364
I442
sS'w-2=up'
p365
I789
sS'w+1=my'
p366
I389
sS'conj=miss'
p367
I102
sS'advcl=clamp'
p368
I6
sS'prep=off'
p369
I322
sS'w-1=people'
p370
I597
sS'w+1=right'
p371
I397
sS'dobj=vehicle'
p372
I207
sS'dobj=body'
p373
I141
sS'dobj=personnel'
p374
I179
sS'dep=issupportive'
p375
I122
sS'w-2=alternative'
p376
I661
sS'w+2=or'
p377
I486
sS'ccomp=ought'
p378
I81
sS'w-2=hour'
p379
I717
sS'w-2=patrol'
p380
I742
sS'w-2=Wednesday'
p381
I655
sS'w+2=of'
p382
I483
sS'w-1=tie'
p383
I611
sS'advmod=sometimes'
p384
I53
sS'w-2=after'
p385
I658
sS'w+2=on'
p386
I485
sS'conj=believe'
p387
I89
sS'w-1=immediately'
p388
I578
sS'w-2=emission'
p389
I701
sS'w-2=date'
p390
I689
sS'xcomp=else'
p391
I811
sS'w-1=and'
p392
I552
sS'conj=send'
p393
I105
sS'prep=into'
p394
I320
sS'conj=have'
p395
I97
sS'dobj=dioxide'
p396
I153
sS'dobj=Party'
p397
I136
sS'advcl=delay'
p398
I11
sS'nsubj=Canberra'
p399
I227
sS'w-2=move'
p400
I729
sS'prt=over'
p401
I339
sS'prep=without'
p402
I332
sS'w-2=attempt'
p403
I666
sS'w-1=guitar'
p404
I574
sS'parataxis=level'
p405
I303
sS'nsubj=hour'
p406
I266
sS"w-2='s"
p407
I624
sS'w-1=she'
p408
I603
sS'acomp=less'
p409
I0
sS'w-2=cabinet'
p410
I675
sS'advcl=have'
p411
I18
sS'advmod=up'
p412
I60
sS'w+2=from'
p413
I463
sS'conj=return'
p414
I104
sS'advcl=collapse'
p415
I7
sS'w+1=horse'
p416
I377
sS'w-1=Jankovic'
p417
I534
sS'dobj=seat'
p418
I184
sS'w+2=500'
p419
I427
sS'w+1=burned'
p420
I363
sS'w+1=over'
p421
I395
sS'w-2=would'
p422
I803
sS'w-2=side'
p423
I767
sS'w-1=do'
p424
I565
sS'w+2=passenger'
p425
I491
sS'tmod=day'
p426
I342
sS'advcl=send'
p427
I26
sS'auxpass=get'
p428
I73
sS'w-1=gradually'
p429
I572
sS'nsubj=Tehran'
p430
I249
sS'dobj=musical'
p431
I172
sS'w-1=sometimes'
p432
I604
sS'nsubj=general'
p433
I264
sS'w-1=troops'
p434
I615
sS'advmod=even'
p435
I42
sS'w+1=spanish'
p436
I401
sS'w-2=back'
p437
I668
sS'advmod=there'
p438
I58
sS'w-1=always'
p439
I551
sS'w-2=Statesforces'
p440
I647
sS'dobj=box'
p441
I142
sS'mark=while'
p442
I222
sS'dep=so'
p443
I126
sS'aux=do'
p444
I67
sS'w+2=over'
p445
I488
sS'w-1=opposition'
p446
I593
sS'w+2=trailer'
p447
I514
sS'w-2=together'
p448
I784
sS'w-2=with'
p449
I801
sS'w+2=minister'
p450
I475
sS'w-2=retaliate'
p451
I758
sS'w-1=peacekeeper'
p452
I596
sS'aux=will'
p453
I70
sS'w-2=horse-drawn'
p454
I716
sS'w+1=its'
p455
I383
sS'w+2=many'
p456
I474
sS'dobj=car'
p457
I146
sS'dobj=capital'
p458
I145
sS'w+2=U.S.'
p459
I431
sS'nsubj=people'
p460
I279
sS'prep=with'
p461
I330
sS'dobj=Africa'
p462
I133
sS'w-2=if'
p463
I718
sS'w-1=even'
p464
I566
sS'w-2=troops'
p465
I785
sS'dobj=monitor'
p466
I170
sS'w+2=its'
p467
I468
sS'dobj=force'
p468
I158
sS'w+1=eight'
p469
I368
sS'w-2=plan'
p470
I744
sS'nsubj=van'
p471
I289
sS'w-1=recently'
p472
I600
sS'nsubj=peacekeeper'
p473
I278
sS'w+2=off'
p474
I484
sS'w-2=in'
p475
I719
sS'advcl=move'
p476
I21
sS'w-2=decoy'
p477
I692
sS'conj=put'
p478
I103
sS'w+2=clothes'
p479
I449
sS'w-2=little'
p480
I724
sS'nsubj=Sharif'
p481
I245
sS'w-2=Tehran'
p482
I650
sS'w+1=slightly'
p483
I399
sS'advmod=away'
p484
I38
sS'w-1=agency'
p485
I548
sS'w-2=nation'
p486
I730
sS'advcl=attend'
p487
I2
sS'dobj=struggle'
p488
I194
sS'w-1=,'
p489
I525
sS'nsubj=Obama'
p490
I241
sS'w-1=for'
p491
I568
sS'w-2=it'
p492
I722
sS'w+1=one'
p493
I393
sS'w+2=than'
p494
I507
sS'conj=use'
p495
I111
sS'w-2=come'
p496
I682
sS'xcomp=form'
p497
I814
sS'w-1=after'
p498
I547
sS'w-2=Tommy'
p499
I651
sS"w+2=''"
p500
I423
sS'nsubj=later'
p501
I268
sS'dobj=factor'
p502
I155
sS'csubj=follow'
p503
I115
sS'prt=through'
p504
I340
sS'advcl=hard'
p505
I17
sS'w-1=delegate'
p506
I563
sS'dobj=victim'
p507
I208
sS'dobj=clothes'
p508
I148
sS'w+2=lover'
p509
I473
sS'conj=try'
p510
I110
sS'w+2=rabbit'
p511
I494
sS'w-2=way'
p512
I793
sS'w+1=even'
p513
I369
sS'xcomp=out'
p514
I820
sS'w-2=concern'
p515
I685
sS'w-2=States'
p516
I646
sS'w-2=Sharif'
p517
I645
sS'w-2=command'
p518
I683
sS'w+2=kid'
p519
I469
sS'w-2=Jankovic'
p520
I640
sS'w+2=body'
p521
I445
sS'cc=and'
p522
I74
sS'w-1=almost'
p523
I549
sS'prep=under'
p524
I329
sS'advcl=stop'
p525
I28
sS'w+1=away'
p526
I361
sS'dobj=staff'
p527
I189
sS'w+1=by'
p528
I364
sS'advcl=resume'
p529
I24
sS'w-1=just'
p530
I582
sS'dobj=Fatah'
p531
I134
sS'w-2=british'
p532
I674
sS'w+2=string'
p533
I505
sS'w-2=therefore'
p534
I778
sS'w-1=they'
p535
I610
sS'w-1=Ethiopia'
p536
I529
sS'conj=cost'
p537
I92
sS'dobj=bill'
p538
I139
sS'w-1=Illinois'
p539
I532
sS'w-2=student'
p540
I772
sS'nsubj=Nations'
p541
I239
sS'w-2=agree'
p542
I659
sS'tmod=year'
p543
I346
sS'w+2=party'
p544
I490
sS'w-2=lucky'
p545
I726
sS'w+1=it'
p546
I382
sS'nsubj=#PRP#'
p547
I224
sS'dobj=U.S.'
p548
I137
sS'w-2=intend'
p549
I720
sS'w+2=dioxide'
p550
I454
sS'nsubj=younger'
p551
I293
sS'conj=leave'
p552
I100
sS'advmod=arbitrarily'
p553
I37
sS'conj=wrap'
p554
I114
sS'w-2=decide'
p555
I690
sS'w+2=trigger'
p556
I515
sS'w+2=conflict'
p557
I452
sS'advmod=ahead'
p558
I35
sS'nsubj=boat'
p559
I257
sS'w-1=basically'
p560
I553
sS'advcl=kill'
p561
I20
sS'dobj=#NUMBER#'
p562
I130
sS'w-2=go'
p563
I708
sS'w-2=party'
p564
I740
sS'w+1=israeli'
p565
I381
sS'w+1=hydrogen'
p566
I378
sS'aux=could'
p567
I66
sS'w-1=boat'
p568
I557
sS'w-2=could'
p569
I687
sS'dep=much'
p570
I124
sS'w-1=no'
p571
I587
sS'w-2=Alliance'
p572
I629
sS'w-2=show'
p573
I766
sS'dep=if'
p574
I121
sS'w-2=Authority'
p575
I630
sS'w-2=unknown'
p576
I788
sS'w+1=troops'
p577
I412
sS'mark=before'
p578
I217
sS'w-2=center'
p579
I678
sS'advmod=back'
p580
I39
sS'conj=get'
p581
I96
sS'advcl=win'
p582
I30
sS'w-2=down'
p583
I699
sS'xcomp=remain'
p584
I822
sS'w+2=musical'
p585
I481
sS'advmod=after'
p586
I33
sS'w-2=file'
p587
I704
sS'dobj=copy'
p588
I150
sS'nsubj=truck'
p589
I288
sS'w+2=billion'
p590
I444
sS'w-1=group'
p591
I573
sS'dobj=some'
p592
I188
sS'w-2=patil'
p593
I741
sS'dobj=passenger'
p594
I176
sS'w-2=demand'
p595
I694
sS'prep=of'
p596
I321
sS'w-2=politician'
p597
I748
sS'dobj=heist'
p598
I162
sS'nsubj=Odinga'
p599
I242
sS'prep=on'
p600
I323
sS'w-2=Raila'
p601
I643
sS'mark=after'
p602
I214
sS'xcomp=ratify'
p603
I821
sS'nsubj=man'
p604
I270
sS'w-2=recover'
p605
I754
sS'w-2=pail'
p606
I739
sS'advcl=begin'
p607
I4
sS'tmod=week'
p608
I345
sS'dobj=security'
p609
I186
sS'xcomp=lead'
p610
I816
sS'conj=come'
p611
I91
sS'dobj=$'
p612
I132
sS'nsubj=police'
p613
I280
sS'xcomp=open'
p614
I819
sS'w+1=out'
p615
I394
sS'advmod=recently'
p616
I51
sS'w-1=Dodd'
p617
I528
sS'w-2=bias'
p618
I671
sS'w+1=all'
p619
I356
sS'w+1=force'
p620
I372
sS'nsubj=NATO'
p621
I238
sS'dobj=conflict'
p622
I149
sS'w+1=water'
p623
I417
sS'w-2=more'
p624
I728
sS'acomp=right'
p625
I1
sS'xcomp=get'
p626
I815
sS'dobj=emission'
p627
I154
sS'dobj=talent'
p628
I198
sS'dep=after'
p629
I116
sS'w-2=to'
p630
I783
sS'w-2=Erdogan'
p631
I635
sS'conj=voice'
p632
I112
sS'w-1=on'
p633
I592
sS'nsubj=Georgia'
p634
I232
sS'w-1=who'
p635
I619
sS'w-2=get'
p636
I707
sS'w-2=Ukraine'
p637
I653
sS'w-2=want'
p638
I792
sS'w+2=any'
p639
I438
sS'w+2=together'
p640
I513
sS'w-2=threaten'
p641
I781
sS'w+2=up'
p642
I517
sS'w+2=each'
p643
I455
sS'w+1=to'
p644
I409
sS'conj=set'
p645
I106
sS'nsubj=wagon'
p646
I290
sS'w+2=out'
p647
I487
sS'advcl=blow'
p648
I5
sS'w-2=pledge'
p649
I745
sS'w+2=and'
p650
I437
sS'dobj=trash'
p651
I203
sS'w-2=and'
p652
I662
sS'advmod=loose'
p653
I46
sS'w+1=up'
p654
I413
sS'w-1=man'
p655
I585
sS'advmod=actually'
p656
I32
sS'advcl=shrug'
p657
I27
sS'mark=so'
p658
I221
sS'nsubj=Tata'
p659
I248
sS'prt=back'
p660
I334
sS'w-2=threat'
p661
I780
sS'conj=drive'
p662
I95
sS'w+1=this'
p663
I407
sS'w-2=worker'
p664
I802
sS'w+2=troops'
p665
I516
sS'advmod=regardless'
p666
I52
sS'w-2=he'
p667
I713
sS'cc=or'
p668
I76
sS'w-1=officer'
p669
I591
sS'prep=since'
p670
I326
sS'w+1=more'
p671
I386
sS'w-2=goal'
p672
I709
sS'dobj=plug'
p673
I180
sS'w-2=say'
p674
I760
sS'w+1=way'
p675
I418
sS'nsubj=those'
p676
I284
sS'prep=at'
p677
I310
sS'nsubj=U.S.'
p678
I252
sS'w+1=string'
p679
I402
sS'w-2=,'
p680
I625
sS'w-2=.'
p681
I626
sS'w-2=try'
p682
I786
sS'w-1=stand'
p683
I605
sS'aux=have'
p684
I68
sS'w-2=prepare'
p685
I749
sS'w+2=coal'
p686
I450
sS'w-2=announce'
p687
I663
sS'dobj=trailer'
p688
I202
sS'dobj=kind'
p689
I164
sS'partmod=say'
p690
I306
sS'w-2=not'
p691
I734
sS'w+2=12'
p692
I426
sS'w-2=while'
p693
I799
sS'conj=bad'
p694
I87
sS'w-2=I'
p695
I638
sS'xcomp=lift'
p696
I818
sS'w+2=relative'
p697
I495
sS'w-1=Thompson'
p698
I540
sS'nsubj=officer'
p699
I274
sS'w-1=van'
p700
I617
sS'advmod=soon'
p701
I54
sS'w-2=decision'
p702
I691
sS'w+1=himself'
p703
I376
sS'nsubj=side'
p704
I281
sS'advcl=fall'
p705
I16
sS'dobj=fund'
p706
I159
sS'w-1=settler'
p707
I602
sS'w+1=you'
p708
I421
sS'w-1=I'
p709
I531
sS'w-2=out'
p710
I738
sS'w+1=down'
p711
I367
sS'w-1=Odinga'
p712
I539
sS'w-1=of'
p713
I590
sS'w-2=a'
p714
I656
sS'w-2=look'
p715
I725
sS'prt=in'
p716
I336
sS'nsubj=McCain'
p717
I237
sS'nsubj=miner'
p718
I272
sS'det=a'
p719
I129
sS'w-1=a'
p720
I544
sS'w+2=licens'
p721
I472
sS'w+1=together'
p722
I410
sS'w-1=suddenly'
p723
I608
sS'dep=gain'
p724
I119
sS'w-2=so'
p725
I770
sS'nsubjpass=body'
p726
I297
sS'mark=as'
p727
I215
sS'w-1=he'
p728
I577
sS'w+2=security'
p729
I499
sS'w+1=many'
p730
I385
sS'dobj=land'
p731
I165
sS'w-1=before'
p732
I555
sS'w-1=gun'
p733
I575
sS'advmod=immediately'
p734
I44
sS'w+1=from'
p735
I373
sS'w-1=general'
p736
I570
sS'w-2=nervous'
p737
I733
sS'w-2=whether'
p738
I798
sS'w-1=would'
p739
I622
sS'dobj=child'
p740
I147
sS'complm=whether'
p741
I86
sS'w+2=they'
p742
I509
sS'prep=after'
p743
I308
sS'nsubj=opposition'
p744
I275
sS'dobj=nation'
p745
I173
sS'w-1=police'
p746
I598
sS'nsubjpass=dioxide'
p747
I298
sS'ccomp=do'
p748
I78
sS'dobj=vote'
p749
I210
sS'w-1=investor'
p750
I580
sS'w+2=world'
p751
I523
sS'w-2=counter'
p752
I688
sS'dobj=troops'
p753
I205
sS'w-1=troop'
p754
I614
sS'w+2=away'
p755
I441
sS'nsubj=Africa'
p756
I225
sS'w-1=begin'
p757
I556
sS'dobj=responsibility'
p758
I182
sS'xcomp=send'
p759
I827
sS'nsubj=arm'
p760
I254
sS'w+2=ahead'
p761
I434
sS'mark=since'
p762
I220
sS'w-2=quick'
p763
I753
sS'dep=order'
p764
I125
sS'dobj=kid'
p765
I163
sS'nsubj=army'
p766
I255
sS'dobj=minister'
p767
I168
sS'w-2=poise'
p768
I747
sS'prep=from'
p769
I317
sS'advmod=out'
p770
I47
sS'w-2=Canadians'
p771
I631
sS'conj=withdraw'
p772
I113
sS'xcomp=leave'
p773
I817
sS'w-2=help'
p774
I714
sS'w+2=weight'
p775
I520
sS'w-2=survivor'
p776
I774
sS'prt=off'
p777
I337
sS'xcomp=build'
p778
I806
sS'conj=head'
p779
I98
sS"aux='ll"
p780
I63
sS'w-1=we'
p781
I618
sS'aux=to'
p782
I69
sS'w-2=you'
p783
I804
sS'w-2=should'
p784
I765
sS'w-2=security'
p785
I761
sS'w+2=staffer'
p786
I504
sS'w+2=the'
p787
I508
sS'w-2=push'
p788
I752
sS'w-1=get'
p789
I571
sS'w-2=can'
p790
I677
sS'w-1=patient'
p791
I595
sS'w-2=will'
p792
I800
sS'dobj=trigger'
p793
I204
sS'nsubj=worker'
p794
I292
sS'w-2=force'
p795
I706
sS'w+1=Fatah'
p796
I351
sS'advmod=later'
p797
I45
sS'w+1=,'
p798
I347
sS'w+1=at'
p799
I359
sS'w-2=region'
p800
I755
sS'advmod=perhaps'
p801
I48
sS'w+1=some'
p802
I400
sS'w+2=section'
p803
I498
sS'w+2=,'
p804
I424
sS'neg=not'
p805
I223
sS'w+2=$'
p806
I422
sS'w-1=U.S.'
p807
I542
sS'w-2=Taleban'
p808
I649
sS'prep=during'
p809
I314
sS'tmod=priority'
p810
I344
sS'dobj=way'
p811
I212
sS'w-2=plug'
p812
I746
sS'advcl=sell'
p813
I25
sS'nsubjpass=plug'
p814
I302
sS'nsubj=tie'
p815
I285
sS'conj=start'
p816
I108
sS'w+1=a'
p817
I354
sS'w-1=now'
p818
I589
sS'w-1=not'
p819
I588
sS'prt=down'
p820
I335
sS'w+2=peacekeeper'
p821
I492
sS'w-1=later'
p822
I583
sS'dobj=peacekeeper'
p823
I177
sS'w+1=U.S.'
p824
I353
sS'w+2=force'
p825
I462
sS'w-2=because'
p826
I670
sS'dobj=bit'
p827
I140
sS'w+1=vote'
p828
I416
sS'w-1=that'
p829
I609
sS'aux=be'
p830
I64
sS'dobj=gas'
p831
I160
sS'w-2=necessary'
p832
I731
sS'nsubj=somebody'
p833
I282
sS'w+2=a'
p834
I432
sS'w-1=Canberra'
p835
I526
sS'nsubj=investor'
p836
I267
sS'w-1=favor'
p837
I567
ssS'dtype'
p838
cnumpy
float64
p839
sS'feature_names_'
p840
(lp841
g409
ag625
ag487
ag130
ag607
ag648
ag368
ag415
ag85
ag235
ag70
ag398
ag30
ag41
ag12
ag23
ag705
ag505
ag411
ag227
ag561
ag476
ag256
ag204
ag529
ag813
ag427
ag657
ag525
ag233
ag582
ag174
ag656
ag586
ag171
ag558
ag337
ag553
ag484
ag580
ag263
ag306
ag435
ag191
ag734
ag797
ag653
ag770
ag801
ag144
ag64
ag616
ag666
ag384
ag701
ag342
ag93
ag8
ag438
ag205
ag412
ag27
ag307
ag780
ag830
ag117
ag567
ag444
ag684
ag782
ag453
ag153
ag332
ag428
ag522
ag139
ag668
ag83
ag748
ag63
ag347
ag378
ag21
ag104
ag34
ag118
ag741
ag694
ag206
ag387
ag50
ag611
ag537
ag291
ag226
ag662
ag581
ag395
ag779
ag252
ag552
ag172
ag367
ag478
ag414
ag393
ag645
ag266
ag816
ag74
ag510
ag495
ag632
ag772
ag554
ag503
ag629
ag343
ag177
ag724
ag267
ag574
ag375
ag224
ag570
ag764
ag443
ag108
ag241
ag719
ag562
ag260
ag612
ag462
ag531
ag309
ag397
ag548
ag195
ag538
ag827
ag373
ag441
ag300
ag305
ag458
ag457
ag740
ag508
ag622
ag588
ag133
ag43
ag396
ag627
ag502
ag353
ag80
ag468
ag706
ag831
ag166
ag598
ag765
ag689
ag731
ag29
ag245
ag767
ag276
ag466
ag115
ag431
ag745
ag317
ag152
ag594
ag823
ag232
ag374
ag673
ag55
ag758
ag40
ag418
ag324
ag609
ag22
ag592
ag527
ag329
ag56
ag304
ag111
ag488
ag239
ag246
ag96
ag628
ag157
ag270
ag181
ag688
ag651
ag793
ag753
ag124
ag372
ag507
ag168
ag749
ag147
ag811
ag149
ag602
ag727
ag92
ag578
ag210
ag213
ag762
ag658
ag442
ag805
ag547
ag756
ag186
ag399
ag54
ag25
ag170
ag11
ag634
ag15
ag141
ag283
ag223
ag717
ag621
ag541
ag123
ag490
ag599
ag310
ag106
ag481
ag320
ag318
ag659
ag430
ag217
ag158
ag678
ag354
ag760
ag766
ag262
ag559
ag288
ag68
ag77
ag164
ag316
ag169
ag433
ag52
ag406
ag836
ag501
ag199
ag604
ag185
ag718
ag298
ag699
ag744
ag259
ag215
ag473
ag460
ag613
ag704
ag833
ag189
ag676
ag815
ag148
ag228
ag589
ag471
ag646
ag240
ag794
ag551
ag37
ag359
ag184
ag726
ag747
ag182
ag114
ag95
ag814
ag405
ag326
ag264
ag690
ag180
ag743
ag162
ag677
ag214
ag9
ag231
ag809
ag62
ag313
ag769
ag150
ag234
ag394
ag596
ag369
ag600
ag225
ag274
ag670
ag220
ag60
ag524
ag461
ag44
ag402
ag128
ag660
ag820
ag716
ag777
ag286
ag401
ag504
ag194
ag426
ag121
ag810
ag608
ag543
ag798
ag179
ag65
ag156
ag796
ag61
ag824
ag817
ag314
ag619
ag352
ag253
ag799
ag254
ag526
ag356
ag420
ag528
ag335
ag129
ag711
ag469
ag513
ag294
ag236
ag620
ag735
ag334
ag279
ag703
ag416
ag566
ag67
ag203
ag565
ag546
ag455
ag165
ag730
ag671
ag138
ag363
ag366
ag285
ag216
ag47
ag493
ag615
ag421
ag119
ag371
ag84
ag483
ag802
ag436
ag679
ag134
ag282
ag140
ag98
ag663
ag296
ag644
ag722
ag327
ag577
ag654
ag265
ag112
ag828
ag623
ag675
ag315
ag269
ag708
ag806
ag500
ag804
ag311
ag692
ag419
ag357
ag176
ag293
ag459
ag834
ag339
ag761
ag281
ag212
ag650
ag639
ag362
ag322
ag755
ag364
ag107
ag590
ag521
ag48
ag26
ag59
ag479
ag686
ag13
ag557
ag94
ag550
ag643
ag16
ag350
ag187
ag192
ag211
ag250
ag825
ag413
ag42
ag81
ag143
ag109
ag467
ag519
ag159
ag99
ag721
ag509
ag456
ag450
ag38
ag257
ag302
ag349
ag146
ag585
ag45
ag382
ag474
ag386
ag377
ag647
ag445
ag303
ag544
ag425
ag821
ag24
ag511
ag697
ag154
ag78
ag803
ag729
ag361
ag10
ag46
ag358
ag786
ag533
ag278
ag494
ag787
ag742
ag196
ag301
ag97
ag640
ag447
ag556
ag665
ag642
ag14
ag28
ag775
ag219
ag360
ag751
ag122
ag489
ag835
ag188
ag617
ag536
ag330
ag709
ag539
ag190
ag417
ag321
ag289
ag101
ag73
ag712
ag698
ag142
ag807
ag308
ag720
ag155
ag268
ag498
ag485
ag523
ag145
ag439
ag392
ag560
ag76
ag732
ag757
ag568
ag75
ag290
ag33
ag273
ag116
ag506
ag131
ag424
ag464
ag837
ag491
ag323
ag736
ag789
ag429
ag591
ag404
ag733
ag103
ag728
ag388
ag201
ag750
ag272
ag530
ag822
ag248
ag655
ag238
ag571
ag819
ag818
ag713
ag669
ag633
ag446
ag336
ag791
ag452
ag370
ag746
ag120
ag472
ag58
ag707
ag408
ag432
ag683
ag160
ag173
ag723
ag829
ag535
ag383
ag251
ag126
ag754
ag434
ag90
ag700
ag781
ag635
ag69
ag244
ag739
ag125
ag407
ag680
ag681
ag221
ag102
ag572
ag575
ag771
ag351
ag197
ag284
ag631
ag71
ag86
ag695
ag277
ag520
ag135
ag161
ag601
ag292
ag517
ag516
ag440
ag355
ag808
ag482
ag499
ag163
ag637
ag340
ag381
ag714
ag295
ag385
ag542
ag299
ag376
ag652
ag687
ag280
ag31
ag403
ag49
ag437
ag345
ag826
ag618
ag328
ag242
ag532
ag410
ag72
ag790
ag579
ag297
ag66
ag53
ag496
ag518
ag287
ag515
ag51
ag569
ag752
ag390
ag555
ag702
ag477
ag271
ag595
ag341
ag137
ag319
ag261
ag583
ag331
ag389
ag79
ag88
ag587
ag57
ag795
ag636
ag563
ag672
ag193
ag348
ag249
ag667
ag774
ag113
ag454
ag379
ag463
ag475
ag549
ag346
ag492
ag229
ag480
ag715
ag545
ag89
ag624
ag400
ag486
ag832
ag209
ag737
ag691
ag247
ag175
ag20
ag710
ag606
ag564
ag593
ag380
ag18
ag470
ag649
ag812
ag768
ag597
ag685
ag91
ag275
ag788
ag763
ag605
ag800
ag237
ag36
ag451
ag19
ag674
ag785
ag208
ag207
ag312
ag784
ag573
ag423
ag198
ag35
ag725
ag183
ag540
ag325
ag776
ag258
ag132
ag82
ag534
ag39
ag661
ag641
ag87
ag630
ag448
ag465
ag682
ag202
ag576
ag365
ag255
ag105
ag638
ag512
ag17
ag110
ag230
ag344
ag738
ag693
ag792
ag449
ag664
ag422
ag783
ag218
ag778
ag243
ag32
ag178
ag200
ag391
ag222
ag127
ag497
ag626
ag610
ag773
ag696
ag614
ag514
ag603
ag584
ag333
ag338
ag167
ag151
ag759
ag100
ag136
asS'separator'
p842
S'='
sS'sparse'
p843
I01
sb.