ccopy_reg
_reconstructor
p1
(csklearn.feature_extraction.dict_vectorizer
DictVectorizer
p2
c__builtin__
object
p3
NtRp4
(dp5
S'vocabulary_'
p6
(dp7
S'w+1=Alpha'
p8
I885
sS'w-2=Casamance'
p9
I1991
sS'dep=Congress'
p10
I287
sS'w-1=ten'
p11
I1899
sS'w-2=Son'
p12
I2149
sS'w+2=Woodrow'
p13
I1251
sS'w-2=Musharraf'
p14
I2107
sS'w-1=I.M.F.'
p15
I1644
sS'det=no'
p16
I320
sS'appos=Fatemi'
p17
I151
sS'w+2=World'
p18
I1252
sS'w+2=rather'
p19
I1486
sS'w+2=or'
p20
I1450
sS'w-1=Perera'
p21
I1670
sS'w+2=powerful'
p22
I1472
sS'w-2=Hadi'
p23
I2043
sS'w-2=Friday'
p24
I2032
sS'dobj=front'
p25
I415
sS'w-2=russian'
p26
I2440
sS'w-1=possibly'
p27
I1861
sS'w+2=ngo'
p28
I1437
sS'nsubj=team'
p29
I719
sS'nsubj=Kostunica'
p30
I599
sS'w+1=south'
p31
I1011
sS'w-1=bronze'
p32
I1729
sS'w+2=Mumbai'
p33
I1186
sS'dobj=condition'
p34
I393
sS'w-1=diplomat'
p35
I1762
sS'w-1=Casiple'
p36
I1609
sS'w-1=Bartholomew'
p37
I1602
sS'w-2=Missiroli'
p38
I2099
sS'w-2=position'
p39
I2398
sS'amod=brightly-illuminated'
p40
I64
sS'nsubj=chief'
p41
I675
sS'w-1=ghanaian'
p42
I1796
sS'appos=Oxford'
p43
I185
sS'amod=several'
p44
I113
sS'w-2=subsidiary'
p45
I2472
sS'nsubj=Agarwal'
p46
I529
sS'w-1=King'
p47
I1647
sS'conj=investor'
p48
I258
sS'w+2=burma'
p49
I1301
sS'w-1=Tsvangiari'
p50
I1691
sS"w-2=O'Brien"
p51
I2114
sS'w-1=new'
p52
I1838
sS'w-1=EU'
p53
I1624
sS'w+2=hand'
p54
I1373
sS'nsubj=Secretary'
p55
I646
sS'nsubj=Abbas'
p56
I522
sS'nsubjpass=president'
p57
I751
sS'nsubj=Geelani'
p58
I576
sS'w-2=Democratic'
p59
I2010
sS'w+2=Ghana'
p60
I1131
sS'w-1=will'
p61
I1931
sS'w-1=iranian'
p62
I1814
sS'nsubj=number'
p63
I702
sS'conj=lead'
p64
I260
sS'w-2=immigrant'
p65
I2330
sS'nsubj=Abolkomsan'
p66
I524
sS'w+2=environmental'
p67
I1349
sS'w-1=nominal'
p68
I1842
sS'w-1=bloc'
p69
I1726
sS'w-2=thousand'
p70
I2491
sS'w+2=meet'
p71
I1419
sS'w-2=Suchkov'
p72
I2154
sS'w+2=independent'
p73
I1386
sS'poss=Zimbabwe'
p74
I788
sS'w-2=where'
p75
I2517
sS'nsubj=#PRP#'
p76
I521
sS'appos=Boynton'
p77
I135
sS'w+2=Edinburgh'
p78
I1110
sS'w-2=who'
p79
I2520
sS'w+2=Italy'
p80
I1151
sS'w+1=of'
p81
I990
sS'xcomp=Caucus'
p82
I2532
sS'w+1=on'
p83
I993
sS'xcomp=International'
p84
I2534
sS'w-2=K.'
p85
I2068
sS'ccomp=carry'
p86
I227
sS'w+1=or'
p87
I995
sS'w-1=elect'
p88
I1769
sS'w-2=process'
p89
I2406
sS'w+2=anti-syrian'
p90
I1279
sS'w-2=seat'
p91
I2445
sS'nsubjpass=Secretary'
p92
I734
sS'w+2=Communications'
p93
I1095
sS'dobj=command'
p94
I389
sS'w-2=Sitkoff'
p95
I2146
sS'dobj=Veterans'
p96
I368
sS'w+2=Advertising'
p97
I1049
sS'w-2=install'
p98
I2336
sS'w-2=unified'
p99
I2502
sS'appos=Bayo'
p100
I129
sS'nsubj=Morales'
p101
I619
sS'advmod=up'
p102
I57
sS'w+2=Hotline'
p103
I1140
sS'nsubj=carrier'
p104
I673
sS'dep=Basbug'
p105
I282
sS'w-1=could'
p106
I1750
sS'w+2=Garuda'
p107
I1126
sS'w+2=you'
p108
I1571
sS'dobj=stop'
p109
I451
sS'w-1=you'
p110
I1935
sS'w-1=hope'
p111
I1805
sS'xcomp=fight'
p112
I2547
sS'amod=tolerant'
p113
I118
sS'w+2=shipkeeping'
p114
I1507
sS'w+2=traditional'
p115
I1542
sS'advcl=be'
p116
I1
sS'nsubj=Mujani'
p117
I621
sS'w+1=Nuhu'
p118
I915
sS'w+1=Kennedy'
p119
I901
sS'w-2=that'
p120
I2485
sS'w+1=the'
p121
I1017
sS'w-2=Electoral'
p122
I2021
sS'amod=electoral-commission'
p123
I75
sS'w-2=than'
p124
I2484
sS'w-1=welcome'
p125
I1926
sS'w-2=Benedicto'
p126
I1976
sS'w+1=Master'
p127
I905
sS'w-1=newly-elected'
p128
I1839
sS'dobj=Society'
p129
I365
sS'w+1=coaching'
p130
I950
sS'w-1=get'
p131
I1795
sS'mark=about'
p132
I474
sS'appos=Diomande'
p133
I146
sS'advmod=inland'
p134
I37
sS'w-2=citizen'
p135
I2240
sS'w-2=leader'
p136
I2347
sS'xcomp=hand'
p137
I2548
sS'w+2=international'
p138
I1392
sS'w-2=African'
p139
I1958
sS'advmod=over'
p140
I46
sS'w+1=front'
p141
I963
sS'w-2=Jintao'
p142
I2063
sS'w-2=Party'
p143
I2124
sS'w-2=country'
p144
I2252
sS'w-2=without'
p145
I2525
sS'w-2=quickly'
p146
I2413
sS'appos=Paochinda'
p147
I186
sS'w+2=FIFA'
p148
I1118
sS'nsubj=Solana'
p149
I650
sS'w+2=obtain'
p150
I1440
sS'w-2=elevator'
p151
I2278
sS'w-2=Letchumanan'
p152
I2084
sS'w-2=Jean-Daniel'
p153
I2061
sS'w+2=depose'
p154
I1332
sS'w-2=order'
p155
I2386
sS'nsubj=minister'
p156
I699
sS'conj=expect'
p157
I251
sS'w-2=accord'
p158
I2184
sS'dep=whose'
p159
I314
sS'cop=remain'
p160
I278
sS'w+2=France'
p161
I1124
sS'amod=spiritual'
p162
I115
sS'w-1=should'
p163
I1887
sS'nsubj=that'
p164
I720
sS'xcomp=pass'
p165
I2559
sS'xcomp=study'
p166
I2565
sS'advmod=here'
p167
I35
sS'w+2=heart'
p168
I1377
sS'w-2=Lawrence'
p169
I2082
sS'w-2=create'
p170
I2255
sS'w-1=ECOWAS'
p171
I1621
sS'nsubj=group'
p172
I692
sS'w+2=since'
p173
I1509
sS'conj=be'
p174
I241
sS'poss=Barzan'
p175
I777
sS'w+2=practice'
p176
I1473
sS'w-1=position'
p177
I1860
sS'w-1=ceremonial'
p178
I1736
sS'partmod=retire'
p179
I771
sS'w-2=Somalia'
p180
I2148
sS'advmod=where'
p181
I60
sS'w+2=kurdish'
p182
I1401
sS'w+2=space'
p183
I1516
sS'w-2=agree'
p184
I2193
sS'xcomp=bring'
p185
I2539
sS'w+2=former'
p186
I1364
sS'w+2=when'
p187
I1563
sS'nsubj=King'
p188
I598
sS'nsubj=Holzhausen'
p189
I590
sS'w+1=Bangladesh'
p190
I886
sS'appos=Venter'
p191
I202
sS'w-2=community'
p192
I2247
sS'w+2=delegation'
p193
I1329
sS'poss=animal'
p194
I790
sS'dobj=mission'
p195
I429
sS'w+2=see'
p196
I1501
sS'w+2=Pericles'
p197
I1203
sS'amod=african'
p198
I62
sS'nsubj=rebel'
p199
I710
sS'conj=ask'
p200
I240
sS'xcomp=implement'
p201
I2550
sS'w+2=politically'
p202
I1469
sS'w-1=time'
p203
I1906
sS'w-1=to'
p204
I1908
sS'rcmod=end'
p205
I852
sS'abbrev=ISAF'
p206
I0
sS'advmod=especially'
p207
I34
sS'w-2=between'
p208
I2224
sS'w-2=de'
p209
I2260
sS'w-2=expert'
p210
I2287
sS'amod=influential'
p211
I89
sS'w-1=visit'
p212
I1919
sS'advcl=represent'
p213
I15
sS'appos=McGhie'
p214
I180
sS'w-2=Mr.'
p215
I2105
sS'w+2=Cambodia'
p216
I1082
sS'nsubj=Abdullah'
p217
I523
sS'w+2=al-Anbar'
p218
I1268
sS'advmod=east'
p219
I32
sS'nsubj=Musharraf'
p220
I622
sS'nsubjpass=one-fifth'
p221
I749
sS'w-2=Tuesday'
p222
I2163
sS'amod=count'
p223
I68
sS'w+2=effort'
p224
I1345
sS'w-2=12.5'
p225
I1943
sS'w+1=Adnan'
p226
I883
sS'w+2=Reut'
p227
I1210
sS'w+1=he'
p228
I967
sS'w-2=two'
p229
I2500
sS'w+1=covering'
p230
I953
sS'w+2=traditionally'
p231
I1543
sS'w-2=Abbas'
p232
I1950
sS'w-2=Anti-Doping'
p233
I1963
sS'nsubj=election'
p234
I684
sS'w-2=Kothari'
p235
I2081
sS'nsubj=Oxburgh'
p236
I629
sS'w-2=down'
p237
I2272
sS'w+2=Labor'
p238
I1165
sS'w+1=through'
p239
I1020
sS'det=some'
p240
I321
sS'w-1=enthusiasm'
p241
I1774
sS'w+2=because'
p242
I1291
sS'w+2=Douglas'
p243
I1106
sS'w-1=Gizenga'
p244
I1633
sS'dep=composite'
p245
I299
sS'w-1=more'
p246
I1833
sS'w+2=environment'
p247
I1348
sS'w-2=Undersecretary-General'
p248
I2166
sS'w-2=recently'
p249
I2420
sS'w-1=refugee'
p250
I1871
sS'w+2=newsgathering'
p251
I1436
sS'appos=U.S'
p252
I201
sS'w+2=bring'
p253
I1299
sS'prep=above'
p254
I810
sS'w-1=per'
p255
I1856
sS'w-2=Nicolas'
p256
I2112
sS'w-2=Botha'
p257
I1979
sS'w-2=Cowher'
p258
I2002
sS'w-1=force'
p259
I1790
sS'w-1=entity'
p260
I1775
sS'w-2=eventually'
p261
I2285
sS'nsubj=admiral'
p262
I667
sS'w+2=live'
p263
I1411
sS'dobj=commission'
p264
I390
sS'nsubj=Stirrup'
p265
I654
sS'w+2=govern'
p266
I1368
sS'w+1=inland'
p267
I974
sS'nsubj=Sabanci'
p268
I640
sS'w-1=party'
p269
I1852
sS'advmod=west'
p270
I58
sS'dobj=company'
p271
I392
sS'w-2=fit'
p272
I2301
sS'w+2=Russia'
p273
I1214
sS'w-2=League'
p274
I2083
sS'nn=deputy'
p275
I509
sS'w-2=fighting'
p276
I2299
sS'nsubj=president'
p277
I708
sS'poss=citizen'
p278
I792
sS'w-2=Thailand'
p279
I2161
sS'nsubj=Trucks'
p280
I659
sS'w+1=World'
p281
I929
sS'w-2=Ging'
p282
I2038
sS'w+2=follow'
p283
I1359
sS'w-2=Giuliani'
p284
I2039
sS'nn=malaria'
p285
I513
sS'w+2=landfall'
p286
I1403
sS'amod=ghanaian'
p287
I85
sS'w-2=fight'
p288
I2297
sS'w-2=United'
p289
I2167
sS'nsubj=Glenn'
p290
I579
sS'w+2=New'
p291
I1192
sS'w-2=from'
p292
I2312
sS'w+2=move'
p293
I1427
sS'w+2=back'
p294
I1287
sS'w-2=up'
p295
I2504
sS'w-2=those'
p296
I2490
sS'dobj=Group'
p297
I345
sS'w-2=name'
p298
I2368
sS'w-1=appoint'
p299
I1713
sS'w+2=Ali'
p300
I1056
sS'w+2=Israel'
p301
I1150
sS'amod=heavy'
p302
I87
sS'w+2=public'
p303
I1482
sS'w-1=Alon'
p304
I1596
sS'w+2=Orazmyrad'
p305
I1198
sS'w+2=summer'
p306
I1523
sS'w+1=Syria'
p307
I921
sS'poss=India'
p308
I781
sS'w-2=defector'
p309
I2262
sS'w-2=decline'
p310
I2261
sS'xcomp=leave'
p311
I2554
sS'w-1=italian'
p312
I1817
sS'w-1=local'
p313
I1826
sS'det=that'
p314
I322
sS'tmod=Bhutto'
p315
I869
sS'xcomp=continue'
p316
I2541
sS'appos=Jordaan'
p317
I168
sS'nsubj=Mosola'
p318
I620
sS'dep=as'
p319
I297
sS'w-2=choose'
p320
I2239
sS'w+2=french'
p321
I1365
sS'w-2=bring'
p322
I2228
sS'w-1=civilian'
p323
I1739
sS'nsubj=Starr'
p324
I651
sS'w-2=Soroso'
p325
I2150
sS'w+2=football'
p326
I1361
sS'w+2=shame'
p327
I1504
sS'w-1=Ferguson'
p328
I1629
sS'w-2=Verdean'
p329
I2170
sS'w+2=high'
p330
I1378
sS'w-2=civilian'
p331
I2241
sS'nsubj=Abraham'
p332
I525
sS'w-2=Holland'
p333
I2050
sS'rcmod=have'
p334
I854
sS'w-2=young'
p335
I2529
sS'w+2=bed'
p336
I1292
sS'w-1=Kumar'
p337
I1649
sS'appos=Hormeku'
p338
I165
sS'w-1=dragon'
p339
I1765
sS'predet=all'
p340
I808
sS'w-1=president'
p341
I1863
sS'w-2=long'
p342
I2351
sS'w-1=Watch'
p343
I1697
sS'w-1=embattled'
p344
I1772
sS'w-1=al-maliki'
p345
I1706
sS'w-2=Carter'
p346
I1990
sS'w-2=California'
p347
I1986
sS'nsubj=delegate'
p348
I681
sS'dep=Conte'
p349
I288
sS'nsubj=engineer'
p350
I685
sS'w-1=container'
p351
I1747
sS'w-2=Ghys'
p352
I2037
sS'w-2=Islamabad'
p353
I2060
sS'w-1=million'
p354
I1831
sS'w+2=this'
p355
I1535
sS'w-2=alliance'
p356
I2199
sS'w+2=federal'
p357
I1357
sS'w+2=Britain'
p358
I1075
sS'partmod=hear'
p359
I766
sS'w-2=aside'
p360
I2211
sS'dobj=campaigning'
p361
I382
sS'nsubj=general'
p362
I690
sS'w+2=she'
p363
I1505
sS'w-1=other'
p364
I1850
sS'w+2=theCommunist'
p365
I1530
sS'dobj=coalition'
p366
I388
sS'conj=#NUMBER#'
p367
I236
sS'w-2=role'
p368
I2438
sS'w-1=go'
p369
I1798
sS'mark=while'
p370
I480
sS'w-1=seven'
p371
I1881
sS'amod=new'
p372
I97
sS'appos=Gurbanov'
p373
I161
sS'w-2=Suresh'
p374
I2158
sS'w+2=Kosovo'
p375
I1162
sS'w+2=Greg'
p376
I1135
sS'w-2=estimate'
p377
I2283
sS'w+2=new'
p378
I1435
sS'nsubj=Castro'
p379
I550
sS'w-2=korean'
p380
I2343
sS'dobj=epidemic'
p381
I408
sS'nn=Qureshi'
p382
I494
sS'cc=or'
p383
I224
sS'w+2=once'
p384
I1445
sS'w+2=military'
p385
I1420
sS'poss=BBC'
p386
I776
sS'w-2=troops'
p387
I2497
sS'nsubjpass=process'
p388
I752
sS'w-2=why'
p389
I2522
sS'w+2=Defense'
p390
I1101
sS'w-2=Ousmane'
p391
I2118
sS'w+2=disaster'
p392
I1335
sS'w-2=before'
p393
I2222
sS'amod=public'
p394
I106
sS'w-2=handful'
p395
I2320
sS'nsubj=League'
p396
I602
sS'w+2=moderate'
p397
I1423
sS'w+2=african'
p398
I1264
sS'w-1=talk'
p399
I1897
sS'conj=States'
p400
I239
sS'appos=Prince'
p401
I191
sS'w+2=die'
p402
I1334
sS'w-1=fisherman'
p403
I1786
sS'nsubjpass=nation'
p404
I747
sS'w+1=Veterans'
p405
I927
sS'dobj=Ministry'
p406
I353
sS'w+2=tail'
p407
I1524
sS'w+2=Nepal'
p408
I1191
sS'w-1=Gyanendra'
p409
I1636
sS'amod=few'
p410
I80
sS'w-2=Goma'
p411
I2040
sS'advmod=also'
p412
I24
sS'w-2=Maksoud'
p413
I2088
sS'w+2=CPP'
p414
I1079
sS'amod=russian'
p415
I111
sS'w+2=beirut-based'
p416
I1293
sS'w-2=Sagar'
p417
I2138
sS'nsubjpass=republic'
p418
I754
sS'w-1=League'
p419
I1651
sS"possessive='s"
p420
I806
sS'nsubj=Bacani'
p421
I534
sS'w-1=rear'
p422
I1869
sS'w-2=States'
p423
I2152
sS'w-2=quote'
p424
I2414
sS'w-2=have'
p425
I2322
sS'nsubj=Clinton'
p426
I555
sS'w-2=inquiry'
p427
I2335
sS'w-1=soon'
p428
I1890
sS'w+1=away'
p429
I941
sS'dobj=infestation'
p430
I421
sS'appos=Paynor'
p431
I187
sS'nsubj=Lubanga'
p432
I606
sS'nsubj=convoy'
p433
I678
sS'w-1=name'
p434
I1837
sS'w+1=cover'
p435
I952
sS'w+2=Spain'
p436
I1224
sS'dobj=Cabinet'
p437
I331
sS'w+2=Cyprus'
p438
I1099
sS'conj=president'
p439
I267
sS'w+1=in'
p440
I972
sS'w+2=to'
p441
I1537
sS'w-2=replace'
p442
I2429
sS'w-1=Abdullah'
p443
I1590
sS'nsubj=Mitiku'
p444
I616
sS'w+1=about'
p445
I931
sS'w-1=commerce'
p446
I1742
sS'w+2=major'
p447
I1416
sS'w-2=leg'
p448
I2349
sS'w+1=New'
p449
I913
sS'appos=Chiweshe'
p450
I139
sS'w+2=little'
p451
I1410
sS'w+2=nation'
p452
I1430
sS'w+2=soccer'
p453
I1511
sS'w-2=Michigan'
p454
I2098
sS'w+2=US'
p455
I1236
sS'w+2=UN'
p456
I1235
sS'w-2=Guler'
p457
I2042
sS'poss=#PRP#'
p458
I774
sS'dobj=#NUMBER#'
p459
I324
sS'dep=search'
p460
I309
sS'w-1=boat'
p461
I1727
sS'w-1=several'
p462
I1883
sS'w+2=rape'
p463
I1485
sS'w+1=move'
p464
I984
sS'w+2=way'
p465
I1555
sS'appos=Alkitiri'
p466
I123
sS'w-2=Gandhi'
p467
I2033
sS'w+2=war'
p468
I1553
sS'w+2=weak'
p469
I1557
sS'w+2=social'
p470
I1512
sS'dobj=subcommittee'
p471
I454
sS'w-1=some'
p472
I1889
sS'dobj=confrontation'
p473
I395
sS'poss=whose'
p474
I804
sS'w-2=reconstruction'
p475
I2422
sS'nsubj=Clarke'
p476
I554
sS'w-1=carrier'
p477
I1735
sS'w+2=indonesian'
p478
I1387
sS'w-1=youngest'
p479
I1936
sS'w+2=wear'
p480
I1558
sS'appos=ElBaradei'
p481
I149
sS'w-1=group'
p482
I1801
sS'w-2=Africa'
p483
I1957
sS'w-2=Trong'
p484
I2162
sS'w-2=foreign'
p485
I2306
sS'w+2=Suharto'
p486
I1227
sS'mark=after'
p487
I475
sS'w+2=toward'
p488
I1539
sS'dep=Centre'
p489
I284
sS'w-1=500'
p490
I1585
sS'w-1=Schalkwyk'
p491
I1681
sS'w-1=Agency'
p492
I1595
sS'w-2=smash'
p493
I2461
sS'w+2=democratic'
p494
I1330
sS'w+1=United'
p495
I926
sS'w-1=30'
p496
I1582
sS'w-1=pump'
p497
I1865
sS'nn=school'
p498
I519
sS'conj=leader'
p499
I261
sS'amod=other'
p500
I102
sS'w+2=John'
p501
I1157
sS'dobj=road'
p502
I447
sS'dobj=kilometer'
p503
I422
sS'w+2=North'
p504
I1196
sS'w+2=Community'
p505
I1096
sS'nsubj=most'
p506
I700
sS'w-2=what'
p507
I2515
sS'w-1=biologist'
p508
I1725
sS'dobj=bureau'
p509
I380
sS'w-1=Levin'
p510
I1652
sS'w-2=and'
p511
I2203
sS'w-2=aim'
p512
I2195
sS'w+2=appoint'
p513
I1282
sS'w-2=Rice'
p514
I2133
sS'nsubj=Tsvangiari'
p515
I660
sS'w+2=agency'
p516
I1266
sS'w-2=Energy'
p517
I2022
sS'nsubj=chairman'
p518
I674
sS'w-1=Matsusaka'
p519
I1656
sS'w+2=out'
p520
I1453
sS'w-2=to'
p521
I2494
sS'w-2=Klau'
p522
I2078
sS'dep=be'
p523
I298
sS'appos=Hall'
p524
I164
sS'appos=Camara'
p525
I136
sS'appos=Asamoah'
p526
I124
sS'w-2=republic'
p527
I2430
sS'advcl=repeat'
p528
I14
sS'w-2=ease'
p529
I2275
sS'w-2=nominee'
p530
I2373
sS'appos=al-Haidari'
p531
I206
sS'w-2=he'
p532
I2323
sS'w-1=islamic'
p533
I1815
sS'advmod=economically'
p534
I33
sS'prep=since'
p535
I835
sS'nsubj=Afghans'
p536
I527
sS'w-2=all'
p537
I2198
sS'w+2=WFP'
p538
I1244
sS'w-1=shave'
p539
I1885
sS'w-1=human'
p540
I1808
sS'appos=Fedotov'
p541
I152
sS'w-2=Venezuela'
p542
I2169
sS'w-2=cover'
p543
I2253
sS'w+2=provincial'
p544
I1481
sS'w-1=and'
p545
I1711
sS'w+1=investigator'
p546
I978
sS'w+2=Liberia'
p547
I1167
sS'w+1=talk'
p548
I1014
sS'dobj=Affairs'
p549
I325
sS'w+2=dynasty'
p550
I1340
sS'appos=Cherkesov'
p551
I138
sS'w-2=need'
p552
I2370
sS'nsubj=Europeans'
p553
I570
sS'w-2=one'
p554
I2383
sS'w+2=Goma'
p555
I1132
sS'appos=Jain'
p556
I167
sS'w-1=WFP'
p557
I1696
sS'advmod=soon'
p558
I51
sS'w+2=Moqtada'
p559
I1182
sS'advcl=decide'
p560
I4
sS'w+2=foreign'
p561
I1363
sS'w-2=traditional'
p562
I2495
sS'nsubj=Condello'
p563
I556
sS'aux=should'
p564
I216
sS'w+2=Mauritania'
p565
I1176
sS'amod=last'
p566
I92
sS'w+2=government'
p567
I1369
sS'w+2=Washington'
p568
I1247
sS'w+1=down'
p569
I956
sS'appos=Saxena'
p570
I196
sS'w-2=Dizaiy'
p571
I2015
sS'w-1=they'
p572
I1903
sS'w+1=price'
p573
I1001
sS'dobj=Committee'
p574
I337
sS'w-1=-lrb-'
p575
I1578
sS'w-2=case'
p576
I2235
sS'w-2=above'
p577
I2183
sS'tmod=Party'
p578
I871
sS'w-2=Accordance'
p579
I1954
sS'w-2=Maza'
p580
I2093
sS'w+2=household'
p581
I1380
sS'w+1=above'
p582
I932
sS'w+1=point'
p583
I1000
sS'dobj=Laden'
p584
I350
sS'w-2=Essam'
p585
I2024
sS'w+2=dictatorship'
p586
I1333
sS'prep=after'
p587
I812
sS'amod=scandinavian'
p588
I112
sS'w-1=scientist'
p589
I1879
sS'w-1=Duc'
p590
I1619
sS'nsubj=Doan'
p591
I564
sS'w+2=algeria-supported'
p592
I1271
sS'xcomp=culminate'
p593
I2542
sS'w-2=Baradei'
p594
I1970
sS'w+1=towards'
p595
I1025
sS'w-1=activismThe'
p596
I1700
sS'dobj=participant'
p597
I437
sS'dobj=consortium'
p598
I397
sS'advmod=now'
p599
I41
sS'w+2=respective'
p600
I1491
sS'amod=foreign'
p601
I83
sS'dobj=MRAP'
p602
I352
sS'rcmod=host'
p603
I856
sS'prep=follow'
p604
I824
sS'w-1=all'
p605
I1707
sS'w-1=fall'
p606
I1780
sS'xcomp=brief'
p607
I2538
sS'w-2=evacuation'
p608
I2284
sS'w+2=other'
p609
I1452
sS'nsubj=campaign'
p610
I671
sS'appos=Manh'
p611
I176
sS'conj=head'
p612
I255
sS'w+2=livestock'
p613
I1412
sS'dobj=Coalition'
p614
I335
sS'w+2=Iwu'
p615
I1153
sS'advcl=go'
p616
I7
sS'w+2=cattle'
p617
I1304
sS'w+1=d1'
p618
I954
sS'w-1=election'
p619
I1770
sS'w+1=teacher'
p620
I1015
sS'nsubj=nation'
p621
I701
sS'appos=Bertolaso'
p622
I133
sS'w-2=car'
p623
I2234
sS'xcomp=urge'
p624
I2568
sS'w+1=out'
p625
I996
sS'dep=Commonwealth'
p626
I286
sS'dobj=party'
p627
I438
sS'w-2=due'
p628
I2274
sS'w+2=Ropemakers'
p629
I1212
sS'w+2=European'
p630
I1117
sS'neg=not'
p631
I482
sS'dobj=operation'
p632
I434
sS'nsubj=Schalkwyk'
p633
I645
sS'w+2=campaign'
p634
I1303
sS'w-2=enjoy'
p635
I2282
sS'w+2=muslim'
p636
I1429
sS'w-2=Shaffat'
p637
I2141
sS'w+1=Mr.'
p638
I911
sS'appos=organization'
p639
I208
sS'dobj=VoteVets.org'
p640
I369
sS'w+2=center'
p641
I1305
sS'w+2=prayer'
p642
I1474
sS'w-2=Aounit'
p643
I1964
sS'w+2=explain'
p644
I1352
sS'w+2=Lebanon'
p645
I1166
sS'nsubj=Service'
p646
I647
sS'w+2=education'
p647
I1344
sS'w-2=ride'
p648
I2436
sS'w+2=ministry'
p649
I1422
sS'w-2=Washington'
p650
I2177
sS'w-2=Sudan'
p651
I2155
sS'w+2=infamous'
p652
I1389
sS'advmod=then'
p653
I54
sS'w+1=they'
p654
I1018
sS'w-2=Benedict'
p655
I1975
sS'w+1=Nobuo'
p656
I914
sS'w-2=african-american'
p657
I2188
sS'dobj=hunt'
p658
I420
sS'appos=Costa'
p659
I141
sS'dobj=organization'
p660
I435
sS'nsubjpass=soldier-son'
p661
I755
sS'w+2=Roy'
p662
I1213
sS'w-2=Saiful'
p663
I2139
sS'w-2=Nguessan'
p664
I2111
sS'w-2=rickety'
p665
I2435
sS'w+2=protest'
p666
I1480
sS'nsubj=Alon'
p667
I531
sS'xcomp=help'
p668
I2549
sS'w-1=household'
p669
I1806
sS'nsubjpass=machine'
p670
I745
sS'advcl=build'
p671
I3
sS'w-1=city'
p672
I1738
sS'appos=Dannatt'
p673
I144
sS'det=all'
p674
I318
sS'w+2=south'
p675
I1515
sS'nsubj=Kadima'
p676
I595
sS'amod=elect'
p677
I74
sS'nsubj=many'
p678
I698
sS'w+2=british'
p679
I1300
sS'w+1=that'
p680
I1016
sS'dobj=peace'
p681
I440
sS'appos=Bernard'
p682
I132
sS'w-1=Blase'
p683
I1605
sS'w-1=Martin'
p684
I1655
sS'dobj=dynasty'
p685
I405
sS'w-2=while'
p686
I2519
sS'w+2=militia'
p687
I1421
sS'dobj=study'
p688
I453
sS'w+1=investigation'
p689
I977
sS'dobj=Council'
p690
I339
sS'w-2=belongings'
p691
I2223
sS'w-1=regional'
p692
I1872
sS'w+2=peace'
p693
I1462
sS'nsubj=Casiple'
p694
I549
sS'w-2=foundation'
p695
I2308
sS'nsubjpass=#NUMBER#'
p696
I731
sS'xcomp=open'
p697
I2558
sS'w-1=warship'
p698
I1922
sS'advmod=definitely'
p699
I30
sS'dobj=effort'
p700
I406
sS'aux=may'
p701
I214
sS'w-1=Obama'
p702
I1664
sS'w+2=oils'
p703
I1443
sS'nsubj=Jong'
p704
I593
sS'w-1=Zia'
p705
I1698
sS'poss=Fretilin'
p706
I780
sS'nsubjpass=U.S.'
p707
I736
sS'nsubj=Congress'
p708
I557
sS'w-2=commission'
p709
I2244
sS'w+2=quick'
p710
I1483
sS'w-1=Cowboys'
p711
I1616
sS'poss=site'
p712
I801
sS'w-2=Colom'
p713
I1999
sS'w-2=Canadian'
p714
I1988
sS'w-2=highway'
p715
I2325
sS'w-1=Rice'
p716
I1675
sS'amod=devananda'
p717
I72
sS'w-1=faction'
p718
I1779
sS'w-2=many'
p719
I2356
sS'w-2=Walbert'
p720
I2176
sS'nsubj=Esperanza'
p721
I568
sS'nsubj=tourist'
p722
I723
sS'w-2=Ezeazu'
p723
I2026
sS'w-2=road'
p724
I2437
sS'w+2=appear'
p725
I1281
sS'w+2=research'
p726
I1490
sS'w+2=-lrb-'
p727
I1040
sS'amod=sit'
p728
I114
sS'w+2=employee'
p729
I1347
sS'w+2=in'
p730
I1384
sS'w-2=Morales'
p731
I2104
sS'dobj=team'
p732
I459
sS'conj=fallout'
p733
I252
sS'w+2=Puntland'
p734
I1207
sS'w-1=former'
p735
I1791
sS'dep=well'
p736
I313
sS'prep=about'
p737
I809
sS'aux=can'
p738
I211
sS"w-1='ll"
p739
I1574
sS'amod=flaw'
p740
I82
sS'w-1=Glenn'
p741
I1634
sS'w-1=calmer'
p742
I1732
sS'w-1=government'
p743
I1800
sS'w+1=government'
p744
I965
sS'w-2=confirmation'
p745
I2250
sS'nsubj=Hasina'
p746
I586
sS'nsubj=Propeack'
p747
I635
sS'w-2=Baghdad'
p748
I1967
sS'w+2=position'
p749
I1470
sS'nn=CIA'
p750
I487
sS'w+2=transitional'
p751
I1544
sS'w-2=crash'
p752
I2254
sS'poss=Kerk'
p753
I784
sS'w-2=impact'
p754
I2332
sS'w+2=animal'
p755
I1276
sS'w-1=sever'
p756
I1882
sS'w-1=then'
p757
I1902
sS'w+1=for'
p758
I961
sS'w-2=Hall'
p759
I2045
sS'w-2=Wolfowitz'
p760
I2179
sS'nsubj=Hariri'
p761
I585
sS'w-1=ugly'
p762
I1915
sS'dobj=Union'
p763
I366
sS'w-1=nominee'
p764
I1843
sS'w-1=global'
p765
I1797
sS'w-1=Rouge'
p766
I1676
sS'w-1=Mukherjee'
p767
I1660
sS'prep=to'
p768
I839
sS'dobj=program'
p769
I444
sS'w+2=organization'
p770
I1451
sS'w-1=Farooqi'
p771
I1628
sS'nsubj=Ethiopia'
p772
I569
sS'w-1=still'
p773
I1893
sS'w-2=pilgrim'
p774
I2395
sS'nsubj=lawmaker'
p775
I696
sS'w-1=dress'
p776
I1767
sS'appos=Geagea'
p777
I156
sS'w-1=goal'
p778
I1799
sS'advcl=to'
p779
I21
sS'w+2=for'
p780
I1362
sS'dobj=federation'
p781
I411
sS'dobj=alliance'
p782
I372
sS'w-2=about'
p783
I2182
sS'w+2=possible'
p784
I1471
sS'w+2=subcommittee'
p785
I1521
sS'nsubj=job'
p786
I694
sS'dobj=which'
p787
I468
sS'w-2=Democrat'
p788
I2009
sS'advmod=or'
p789
I44
sS'w+2=we'
p790
I1556
sS'amod=nominal'
p791
I100
sS'w+1=northwest'
p792
I988
sS'w+2=rebel'
p793
I1488
sS'w-2=admiral'
p794
I2187
sS'w-2=several'
p795
I2451
sS'advcl=fight'
p796
I5
sS'w+2=important'
p797
I1383
sS'w+1=start'
p798
I1012
sS'w-2=Ted'
p799
I2160
sS'w-1=Agarwal'
p800
I1594
sS'w-2=percent'
p801
I2393
sS'w-2=expect'
p802
I2286
sS'w-2=Diassana'
p803
I2013
sS'nn=Arab'
p804
I485
sS'w+2=Alliance'
p805
I1057
sS'w+1=NABE'
p806
I912
sS'w+1=off'
p807
I992
sS'dobj=Authority'
p808
I327
sS'w+2=chest'
p809
I1308
sS'nsubjpass=expert'
p810
I740
sS'xcomp=face'
p811
I2546
sS'w+2=east'
p812
I1341
sS'w+2=toe'
p813
I1538
sS'w+2=Amnesty'
p814
I1059
sS'det=the'
p815
I323
sS'w-2=business'
p816
I2229
sS'ccomp=lead'
p817
I230
sS'w+2=body'
p818
I1295
sS'w-2=Allen'
p819
I1961
sS'w+2=OCHA'
p820
I1197
sS'prep=past'
p821
I834
sS'w-2=Blum'
p822
I1978
sS'appos=Perera'
p823
I188
sS'w+1=behind'
p824
I945
sS'rel=in'
p825
I867
sS'nsubj=Lange'
p826
I601
sS'w-2=Kassa'
p827
I2071
sS'w-1=worker'
p828
I1933
sS'w-1=EFCC'
p829
I1622
sS'w-2=storm'
p830
I2470
sS'w+2=rival'
p831
I1495
sS'rcmod=head'
p832
I855
sS'w+2=EU'
p833
I1108
sS'amod=current'
p834
I69
sS'w+2=El'
p835
I1113
sS'w+2=Jerusalem'
p836
I1155
sS'w-2=hit'
p837
I2326
sS'dobj=Database'
p838
I340
sS'w-2=Ramon'
p839
I2130
sS'w-2=short'
p840
I2457
sS'w-1=Sarkozy'
p841
I1680
sS'w+2=Seoul'
p842
I1219
sS'dobj=panel'
p843
I436
sS'w-1=El-Erian'
p844
I1625
sS'amod=appoint'
p845
I63
sS'w-2=friend'
p846
I2311
sS'xcomp=put'
p847
I2561
sS'dobj=association'
p848
I375
sS'nsubj=soldier'
p849
I715
sS'w+2=month'
p850
I1425
sS'w-1=Condello'
p851
I1614
sS'w+2=Cabinet'
p852
I1080
sS'w-1=18'
p853
I1580
sS'w-2=rebel'
p854
I2419
sS'prep=over'
p855
I833
sS'w+2=parliament'
p856
I1458
sS'dobj=Bangladesh'
p857
I328
sS'dobj=survey'
p858
I456
sS'amod=outgoing'
p859
I103
sS'conj=leg'
p860
I262
sS'w+1=instead'
p861
I975
sS'w-2=machine'
p862
I2353
sS'advmod=possibly'
p863
I48
sS'nsubj=storm'
p864
I718
sS'nsubjpass=that'
p865
I757
sS'dobj=prison'
p866
I442
sS'poss=somebody'
p867
I802
sS'nsubj=voter'
p868
I726
sS'dobj=Department'
p869
I341
sS'w-1=where'
p870
I1927
sS'w-2=Abolkomsan'
p871
I1953
sS'nsubj=Syed'
p872
I655
sS'w-2=elect'
p873
I2276
sS'w-1=race'
p874
I1866
sS'dobj=League'
p875
I351
sS'w+2=Ahmed'
p876
I1054
sS'w-1=with'
p877
I1932
sS'w+2=Kabul'
p878
I1159
sS'w+2=own'
p879
I1455
sS'w+2=all-party'
p880
I1272
sS'w-1=chief'
p881
I1737
sS'amod=responsible'
p882
I110
sS'nsubjpass=States'
p883
I735
sS'w+2=u.s.-backed'
p884
I1547
sS'advcl=get'
p885
I6
sS'conj=prevent'
p886
I268
sS'w+2=talk'
p887
I1525
sS'w-2=its'
p888
I2340
sS'w+2=London'
p889
I1168
sS'w+2=combined'
p890
I1317
sS'parataxis=say'
p891
I763
sS'w+2=adjournment'
p892
I1262
sS'w-1=send'
p893
I1880
sS'w+2=state'
p894
I1519
sS'w-2=Cowboys'
p895
I2001
sS'w+2=various'
p896
I1552
sS'w-2=ten'
p897
I2482
sS'w+2=Craft'
p898
I1097
sS'w-1=Mujani'
p899
I1659
sS'w-2=require'
p900
I2431
sS'w-2=Hebebrand'
p901
I2046
sS'nsubj=Ganzer'
p902
I575
sS'w-1=commission'
p903
I1743
sS'w-1=CIA'
p904
I1607
sS'nsubj=bather'
p905
I670
sS'nsubj=Owalla'
p906
I628
sS'w+2=Ivory'
p907
I1152
sS'w-2=Chnar'
p908
I1995
sS'w-2=democratic'
p909
I2265
sS'w-1=musician'
p910
I1834
sS'w+2=Maramtu'
p911
I1173
sS'nsubj=Chisi'
p912
I553
sS'w+2=incoming'
p913
I1385
sS'appos=Matsasa'
p914
I179
sS'amod=deputy'
p915
I71
sS'w-2=muslim'
p916
I2366
sS'w-1=definitely'
p917
I1757
sS'w-2=Barzan'
p918
I1971
sS'num=dozen'
p919
I762
sS'w+2=say'
p920
I1499
sS'w+1=negotiator'
p921
I985
sS'w-1=Kadima'
p922
I1645
sS'w-2=iranian-made'
p923
I2338
sS'w-2=Bhutto'
p924
I1977
sS'poss=officer'
p925
I798
sS'w+2=Ahmadinejad'
p926
I1053
sS'w-2=test'
p927
I2483
sS'w+2=insurgent'
p928
I1390
sS'dobj=consequence'
p929
I396
sS'w+2=match-up'
p930
I1418
sS'w+1=Global'
p931
I896
sS'w-1=committee'
p932
I1744
sS'w-1=Abraham'
p933
I1591
sS'w+2=palestinian'
p934
I1456
sS'w+1=coach'
p935
I949
sS'w+2=basic'
p936
I1289
sS'w-2=Election'
p937
I2020
sS'w-1=the'
p938
I1901
sS'w-2=Belarus'
p939
I1974
sS'w-1=Marcus'
p940
I1654
sS'nsubj=plane'
p941
I706
sS'nsubj=Bakir'
p942
I537
sS'w-1=fatal'
p943
I1781
sS'w+1=Chun'
p944
I888
sS'w-2=allow'
p945
I2200
sS'w-2=Kim'
p946
I2076
sS'conj=suit'
p947
I273
sS'nsubj=States'
p948
I652
sS'w-2=democracy'
p949
I2264
sS'w-2=after'
p950
I2189
sS'w-2=White'
p951
I2178
sS'w+1=to'
p952
I1022
sS'w+2=Hezbollah'
p953
I1139
sS'w+2=he'
p954
I1375
sS'w-2=customer'
p955
I2257
sS'w+2=archdiocese'
p956
I1283
sS'conj=son'
p957
I272
sS'w+1=injury'
p958
I973
sS'w+2=foot'
p959
I1360
sS'w-2=Ganzer'
p960
I2034
sS'w+2=Johann'
p961
I1156
sS'w-2=shellfish'
p962
I2454
sS'w-2=soldier-son'
p963
I2462
sS'w+2=California'
p964
I1081
sS'w+1=east'
p965
I957
sS'appos=Doss'
p966
I148
sS'w-2=put'
p967
I2411
sS'nsubj=Power'
p968
I634
sS'w-2=cocoa'
p969
I2243
sS'w-2=interest'
p970
I2337
sS'dobj=rally'
p971
I445
sS'w+2=Wade'
p972
I1246
sS'w-2=longest'
p973
I2352
sS'w+2=Buckingham'
p974
I1078
sS'w-2=first'
p975
I2300
sS'w-2=proceedings'
p976
I2405
sS'dep=write'
p977
I316
sS'w+2=International'
p978
I1147
sS'w-2=refugee'
p979
I2425
sS'w-2=pig'
p980
I2394
sS'partmod=name'
p981
I769
sS'w+2=not'
p982
I1439
sS'w+2=Brazil'
p983
I1073
sS'w-2=Putin'
p984
I2129
sS'w+1=say'
p985
I1005
sS'w+1=parliament'
p986
I998
sS'nsubj=Duch'
p987
I565
sS'w-2=shake'
p988
I2452
sS'conj=plan'
p989
I266
sS'w+2=those'
p990
I1536
sS'dobj=tank'
p991
I458
sS'tmod=day'
p992
I872
sS'w+2=economic'
p993
I1342
sS'rcmod=part'
p994
I860
sS'conj=cap'
p995
I245
sS'prep=up'
p996
I842
sS'conj=chest'
p997
I246
sS'w+2=retirement'
p998
I1492
sS'w-2=Geoffrey'
p999
I2036
sS'w+1=Mazda'
p1000
I907
sS'w-2=five'
p1001
I2302
sS'w-2=previous'
p1002
I2404
sS'advmod=there'
p1003
I55
sS'nn=race'
p1004
I517
sS'w+1=Frances'
p1005
I895
sS'w+2=technology'
p1006
I1527
sS'nsubj=relative'
p1007
I711
sS'w+2=1974'
p1008
I1042
sS'dobj=home'
p1009
I418
sS'w+2=U.N.'
p1010
I1233
sS'w+2=over'
p1011
I1454
sS'w-2=union'
p1012
I2503
sS'w-2=Shapiro'
p1013
I2143
sS'w+2=FSB'
p1014
I1119
sS'poss=dockyard'
p1015
I796
sS'w-2=senior'
p1016
I2447
sS'w-1=bather'
p1017
I1718
sS'nsubjpass=household'
p1018
I743
sS'w+2=Chandigarh'
p1019
I1089
sS'w-2=Korean-American'
p1020
I2079
sS'dobj=Citizens'
p1021
I334
sS'w+1=firearm'
p1022
I959
sS'w+1=general'
p1023
I964
sS'amod=global'
p1024
I86
sS'dobj=office'
p1025
I432
sS'w+2=Pia'
p1026
I1204
sS'w-2=tactic'
p1027
I2478
sS'w+2=its'
p1028
I1398
sS'w+2=Annobon'
p1029
I1061
sS'w-1=Bailey'
p1030
I1601
sS'w-2=head'
p1031
I2324
sS'rcmod=supervise'
p1032
I864
sS'w-2=candidate'
p1033
I2233
sS'dobj=church'
p1034
I386
sS'nsubj=Martin'
p1035
I610
sS'w-1=last'
p1036
I1822
sS'dobj=ticket'
p1037
I461
sS'dobj=problem'
p1038
I443
sS'w+2=LaSorda'
p1039
I1164
sS'advmod=away'
p1040
I25
sS'nsubjpass=government'
p1041
I742
sS'prep=toward'
p1042
I840
sS'w+2=Navy'
p1043
I1190
sS'w+2=Bangladesh'
p1044
I1070
sS'w-2=featherweight'
p1045
I2295
sS'w+1=prosecutor'
p1046
I1002
sS'w-2=recognize'
p1047
I2421
sS'w+2=Mozambique'
p1048
I1183
sS'poss=Africa'
p1049
I775
sS'w+2=Equal'
p1050
I1116
sS'w+1=Pakistan'
p1051
I917
sS'w+2=Zhirinovsky'
p1052
I1256
sS'nsubj=troops'
p1053
I724
sS'w-2=Shariq'
p1054
I2144
sS'nsubj=Kumar'
p1055
I600
sS'nn=district'
p1056
I510
sS'xcomp=try'
p1057
I2567
sS'poss=fair'
p1058
I797
sS'w-1=Bacani'
p1059
I1600
sS'prep=because'
p1060
I818
sS'dobj=faction'
p1061
I409
sS'nsubjpass=who'
p1062
I760
sS'cop=become'
p1063
I277
sS'advcl=route'
p1064
I18
sS'w+2=job'
p1065
I1399
sS'w+2=Ashakiran'
p1066
I1063
sS'w+1=Fatah'
p1067
I894
sS'advmod=currently'
p1068
I29
sS'nsubj=Martinez'
p1069
I611
sS'w-2=ask'
p1070
I2212
sS'w-2=Indonesia'
p1071
I2058
sS'amod=various'
p1072
I120
sS'w-1=interim'
p1073
I1812
sS'poss=commission'
p1074
I793
sS'nsubj=Sarkozy'
p1075
I644
sS'w-2=trial'
p1076
I2496
sS'prep=include'
p1077
I828
sS'w+1=here'
p1078
I968
sS'w-1=republican'
p1079
I1874
sS'advcl=set'
p1080
I19
sS'w-2=Arun'
p1081
I1966
sS'nsubj=official'
p1082
I703
sS'dobj=Institute'
p1083
I348
sS'w-1=Union'
p1084
I1694
sS'nsubjpass=commission'
p1085
I737
sS'advmod=early'
p1086
I31
sS'w+2=Canada'
p1087
I1084
sS'nsubj=Vincent'
p1088
I663
sS'w-2=America'
p1089
I1962
sS'w-2=Doan'
p1090
I2016
sS'cc=but'
p1091
I223
sS'w+2=Senior'
p1092
I1218
sS'w-1=school'
p1093
I1878
sS'rcmod=woman'
p1094
I866
sS'xcomp=make'
p1095
I2555
sS'ccomp=stress'
p1096
I231
sS'dep=organization'
p1097
I304
sS'nn=Agency'
p1098
I484
sS'nsubj=El-Erian'
p1099
I566
sS'w-1=Afghans'
p1100
I1592
sS'advcl=plan'
p1101
I12
sS'w-1=bill'
p1102
I1724
sS'w-2=direct'
p1103
I2267
sS'w-2=feel'
p1104
I2296
sS'nsubj=contest'
p1105
I677
sS'nn=policy'
p1106
I515
sS'dobj=state'
p1107
I450
sS'w+2=Brussels'
p1108
I1076
sS'w-1=corruption'
p1109
I1749
sS'w-2=suffer'
p1110
I2473
sS'nn=city'
p1111
I502
sS'advcl=win'
p1112
I22
sS'w-2=morning'
p1113
I2363
sS'w-2=southern'
p1114
I2465
sS'dobj=archdiocese'
p1115
I373
sS'w+2=land-dispute'
p1116
I1402
sS'w+2=Ribadu'
p1117
I1211
sS'w-2=my'
p1118
I2367
sS'w+2=which'
p1119
I1564
sS'w-1=confident'
p1120
I1746
sS'w-2=Van'
p1121
I2168
sS'partmod=cover'
p1122
I765
sS'nn=latex'
p1123
I512
sS'w-2=Steinhardt'
p1124
I2153
sS'w-2=McKay'
p1125
I2096
sS'w+2=ban'
p1126
I1288
sS'w-2=of'
p1127
I2376
sS'w-2=Abedi'
p1128
I1951
sS'w+2=Florida'
p1129
I1122
sS'conj=minister'
p1130
I263
sS'nsubj=which'
p1131
I728
sS'nsubj=Lewis'
p1132
I605
sS'w+2=Bank'
p1133
I1071
sS'w-1=for'
p1134
I1789
sS'prep=towards'
p1135
I841
sS"dep='s"
p1136
I281
sS'w-2=Program'
p1137
I2128
sS'advmod=recently'
p1138
I49
sS'dobj=polity'
p1139
I441
sS'nsubj=Ertll'
p1140
I567
sS'w+2=Colombia'
p1141
I1091
sS'w+2=Kenya'
p1142
I1160
sS'appos=Baddour'
p1143
I125
sS'w+2=right'
p1144
I1493
sS'nsubj=Haldea'
p1145
I582
sS'w+2=conference'
p1146
I1323
sS'dep=state'
p1147
I310
sS'prep=base'
p1148
I817
sS'w+2=aerospace'
p1149
I1263
sS'w+2=accord'
p1150
I1260
sS'w+2=u.s'
p1151
I1546
sS'aux=could'
p1152
I212
sS'w+2=up'
p1153
I1550
sS'w-1=Gaza'
p1154
I1631
sS'infmod=cope'
p1155
I471
sS'dobj=campaign'
p1156
I381
sS'w+2=Jehad'
p1157
I1154
sS'dep=Council'
p1158
I289
sS'w+2=internationally-backed'
p1159
I1393
sS'w-2=law'
p1160
I2346
sS'conj=claim'
p1161
I247
sS'w+1=up'
p1162
I1028
sS'w+1=while'
p1163
I1033
sS'prep=across'
p1164
I811
sS'w+2=rip'
p1165
I1494
sS'w+2=America'
p1166
I1058
sS'w-2=try'
p1167
I2498
sS'appos=Bedi'
p1168
I130
sS'w+2=Ehud'
p1169
I1112
sS'w+2=safer'
p1170
I1498
sS'w-1=radical'
p1171
I1867
sS'w+2=single'
p1172
I1510
sS'w-2=new'
p1173
I2372
sS'w+1=with'
p1174
I1034
sS'w-2=Dallas'
p1175
I2004
sS'w-1=agency'
p1176
I1705
sS'w-2=,'
p1177
I1939
sS'w-2=-'
p1178
I1940
sS'w-2=.'
p1179
I1941
sS'w-1=together'
p1180
I1909
sS'w-2=Monday'
p1181
I2101
sS'w+2=Iraq'
p1182
I1149
sS'appos=Gomes'
p1183
I158
sS'advmod=south'
p1184
I52
sS'w+1=scarf'
p1185
I1006
sS'w-2=somebody'
p1186
I2463
sS'w+2=Iran'
p1187
I1148
sS'w-2=:'
p1188
I1947
sS'appos=Krisnamurthi'
p1189
I171
sS'w-2=thing'
p1190
I2489
sS'w-2=rank'
p1191
I2417
sS'nsubj=diplomat'
p1192
I682
sS'nsubj=Marchenko'
p1193
I608
sS'w+2=disease'
p1194
I1336
sS'w-2=South'
p1195
I2151
sS'w+2=United'
p1196
I1239
sS'poss=Israel'
p1197
I783
sS'w-1=Ark'
p1198
I1598
sS'w-2=Republic'
p1199
I2132
sS'w+2=Wednesday'
p1200
I1248
sS'w-2=Esperanza'
p1201
I2023
sS'w-2=face'
p1202
I2288
sS'w-1=become'
p1203
I1720
sS'w+2=policy'
p1204
I1468
sS'nsubj=bag'
p1205
I669
sS'xcomp=Alliance'
p1206
I2531
sS'w-2=a'
p1207
I2181
sS'partmod=arm'
p1208
I764
sS'w+2=West'
p1209
I1249
sS'advmod=northwest'
p1210
I40
sS'advcl=retire'
p1211
I16
sS'w-2=Greene'
p1212
I2041
sS'w+2=police'
p1213
I1467
sS'w+1=together'
p1214
I1023
sS'nn=Ark'
p1215
I486
sS'w-2=serve'
p1216
I2448
sS'w-2=make'
p1217
I2355
sS'w-2=rear'
p1218
I2418
sS'w-1=he'
p1219
I1803
sS'rcmod=send'
p1220
I863
sS'w-2=member'
p1221
I2359
sS'nsubjpass=life'
p1222
I744
sS'w+1=from'
p1223
I962
sS'nsubj=Maza'
p1224
I613
sS'dep=rank'
p1225
I306
sS'w-2=humanity'
p1226
I2329
sS'w-1=dozen'
p1227
I1764
sS'nsubj=Bowen'
p1228
I545
sS'w-2=Development'
p1229
I2012
sS'w+2=it'
p1230
I1397
sS'w-1=job'
p1231
I1819
sS'w-1=how'
p1232
I1807
sS'w-2=Chrysler'
p1233
I1997
sS'w-2=Afghanistan'
p1234
I1956
sS'nsubj=Pasche'
p1235
I632
sS'w+2=main'
p1236
I1415
sS'w-1=U.S.'
p1237
I1693
sS'w-2=political'
p1238
I2397
sS'w+2=border'
p1239
I1297
sS'w-2=common'
p1240
I2246
sS'w+2=negotiator'
p1241
I1433
sS'nsubj=Africa'
p1242
I528
sS'prep=then'
p1243
I837
sS'w-2=Moo-hyun'
p1244
I2103
sS'w-1=village'
p1245
I1918
sS'w-2=Garcia'
p1246
I2035
sS'w-2=Panha'
p1247
I2121
sS'w+2=uneasy'
p1248
I1548
sS'dep=no'
p1249
I302
sS'amod=African'
p1250
I61
sS'w-1=reduce'
p1251
I1870
sS'w+2=U.S.'
p1252
I1234
sS'w-2=Rong'
p1253
I2135
sS'w+2=denounce'
p1254
I1331
sS'advcl=mark'
p1255
I11
sS'w+1=Tom'
p1256
I923
sS'prep=from'
p1257
I826
sS'w+1=Alan'
p1258
I884
sS'w+1=shave'
p1259
I1007
sS'w+1=when'
p1260
I1032
sS'prt=off'
p1261
I847
sS'dep=Committee'
p1262
I285
sS'prep=down'
p1263
I822
sS'amod=regional'
p1264
I108
sS'w-1=muslim'
p1265
I1835
sS'w-2=facility'
p1266
I2289
sS'w+2=Manyika'
p1267
I1172
sS'w+2=Cuba'
p1268
I1098
sS'w+2=neck'
p1269
I1432
sS'w+2=Mr.'
p1270
I1184
sS"w+1='"
p1271
I877
sS'dobj=division'
p1272
I403
sS'w+1=Citizens'
p1273
I889
sS'tmod=week'
p1274
I875
sS'w+1=,'
p1275
I879
sS'w-2=mountain'
p1276
I2365
sS'w+1=.'
p1277
I881
sS'dep=after'
p1278
I295
sS'w+2=home'
p1279
I1379
sS'w+1=;'
p1280
I882
sS'w-2=immunity'
p1281
I2331
sS'w+2=lebanese'
p1282
I1406
sS'w-1=350,000'
p1283
I1583
sS'w+2=Commonwealth'
p1284
I1094
sS"nsubj=O'Brien"
p1285
I625
sS'nsubj=Malik'
p1286
I607
sS'w+2=ElBaradei'
p1287
I1114
sS'w-2=IAEA'
p1288
I2054
sS'w-2=Dorji'
p1289
I2017
sS'mark=with'
p1290
I481
sS'dobj=nation'
p1291
I431
sS'w+1=a'
p1292
I930
sS'w+2=Buckhingham'
p1293
I1077
sS'w+2=Kong'
p1294
I1161
sS'w+2=intelligence'
p1295
I1391
sS'w+1=detail'
p1296
I955
sS'w+2=Kurdish'
p1297
I1163
sS'w-1=latex'
p1298
I1824
sS'w-1=that'
p1299
I1900
sS'w-1=affair'
p1300
I1701
sS'w-2=graduate'
p1301
I2316
sS'w+2=trader'
p1302
I1541
sS'poss=Russia'
p1303
I786
sS'dobj=right'
p1304
I446
sS'w+2=Macbeth'
p1305
I1171
sS'w+1=upriver'
p1306
I1029
sS'preconj=both'
p1307
I807
sS'dobj=lab'
p1308
I423
sS'w+2=command'
p1309
I1319
sS'w+1=Maurice'
p1310
I906
sS'dep=know'
p1311
I300
sS'amod=ugly'
p1312
I119
sS'poss=pig'
p1313
I800
sS'conj=fund'
p1314
I254
sS'w-2=Mogadishu'
p1315
I2100
sS'nn=country'
p1316
I507
sS'w-2=site'
p1317
I2459
sS'w-2=base'
p1318
I2218
sS'w+2=Gershon'
p1319
I1130
sS'w-2=attend'
p1320
I2215
sS'w-1=african'
p1321
I1702
sS'dobj=group'
p1322
I417
sS'w-1=Beckham'
p1323
I1603
sS'xcomp=visit'
p1324
I2569
sS'w+1=Mohamed'
p1325
I909
sS'w+2=industry'
p1326
I1388
sS'w-1=would'
p1327
I1934
sS'w-2=salmon'
p1328
I2442
sS'w-2=peace'
p1329
I2392
sS'nsubj=Baffoe-Wilmot'
p1330
I535
sS'w+2=Raila'
p1331
I1209
sS'nsubj=container'
p1332
I676
sS'w+2=Software'
p1333
I1221
sS'w-2=disrespect'
p1334
I2269
sS'w-1=team'
p1335
I1898
sS'dobj=meeting'
p1336
I427
sS'w-2=we'
p1337
I2510
sS'w-1=delegation'
p1338
I1759
sS'w-2=task'
p1339
I2479
sS'appos=Go'
p1340
I157
sS'w-1=fellow'
p1341
I1782
sS'nsubj=Benedict'
p1342
I542
sS'nn=dragon'
p1343
I511
sS'w-2=Sulzer'
p1344
I2156
sS'w+2=preservation'
p1345
I1475
sS'w-2=family'
p1346
I2293
sS'w-2=surfacedfor'
p1347
I2476
sS'w+2=one-party'
p1348
I1447
sS'appos=al-Hakim'
p1349
I207
sS'dobj=talk'
p1350
I457
sS'conj=delegate'
p1351
I248
sS'w-1=five'
p1352
I1787
sS'w-1=investigation'
p1353
I1813
sS'nsubj=son'
p1354
I716
sS'w+2=country'
p1355
I1327
sS'w+1=count'
p1356
I951
sS'xcomp=Der'
p1357
I2533
sS'nsubj=Remy'
p1358
I637
sS'w-2=urge'
p1359
I2507
sS'w-2=direction'
p1360
I2268
sS'w-1=its'
p1361
I1818
sS'tmod=year'
p1362
I876
sS'w-1=influential'
p1363
I1811
sS'w-1=Congress'
p1364
I1615
sS'conj=need'
p1365
I265
sS'ccomp=go'
p1366
I229
sS'w-1=spiritual'
p1367
I1892
sS'w+2=who'
p1368
I1565
sS'rcmod=attend'
p1369
I850
sS'w-2=Oxburgh'
p1370
I2119
sS'w-2=among'
p1371
I2202
sS'complm=that'
p1372
I234
sS'appos=Madisha'
p1373
I174
sS'nsubj=Farooqi'
p1374
I571
sS'w+2=kinshasa-based'
p1375
I1400
sS'tmod=month'
p1376
I873
sS'w-2=Kaba'
p1377
I2069
sS'dep=of'
p1378
I303
sS'poss=son'
p1379
I803
sS'w+2=world'
p1380
I1570
sS'dobj=unit'
p1381
I463
sS'w-1=train'
p1382
I1912
sS'w+2=President'
p1383
I1205
sS'w-1=40'
p1384
I1584
sS'w+2=Department'
p1385
I1104
sS'appos=Tedstrom'
p1386
I199
sS'dobj=Office'
p1387
I358
sS'nsubj=Greene'
p1388
I580
sS'w-2=for'
p1389
I2304
sS'w+2=anarchy'
p1390
I1274
sS'w+2=suffer'
p1391
I1522
sS'dep=appear'
p1392
I296
sS'nn=bronze'
p1393
I501
sS'prep=in'
p1394
I827
sS'w+2=Martin'
p1395
I1175
sS'nsubj=Hamilton'
p1396
I583
sS'w-1=Hill'
p1397
I1641
sS'w-1=strong'
p1398
I1896
sS'prep=amid'
p1399
I813
sS'xcomp=promote'
p1400
I2560
sS'dep=Militia'
p1401
I293
sS'w+2=chinese'
p1402
I1309
sS'w-1=passenger'
p1403
I1853
sS'w-2=retire'
p1404
I2434
sS'w-1=at'
p1405
I1716
sS'poss=Lebanon'
p1406
I785
sS'w-2=growth'
p1407
I2319
sS'w-1=judge'
p1408
I1821
sS'nsubj=undersecretary'
p1409
I725
sS'w-1=bang'
p1410
I1717
sS'w-2=meeting'
p1411
I2358
sS'w+2=shift'
p1412
I1506
sS'dep=walk'
p1413
I312
sS'w+2=pro-kremlin'
p1414
I1478
sS'conj=troubleshooter'
p1415
I274
sS'w+2=Economic'
p1416
I1109
sS'w+1=Research'
p1417
I919
sS'w+2=water'
p1418
I1554
sS'w+2=congressional'
p1419
I1324
sS'w-2=Ponte'
p1420
I2126
sS'w-1=Group'
p1421
I1635
sS'nsubj=Alex'
p1422
I530
sS'w-1=it'
p1423
I1816
sS'w-1=egyptian-born'
p1424
I1768
sS'w-2=outgoing'
p1425
I2388
sS'w-2=government'
p1426
I2315
sS'nsubj=Danziger'
p1427
I559
sS'w-2=bam'
p1428
I2217
sS'infmod=respond'
p1429
I473
sS'w-2=black'
p1430
I2225
sS'w-1=canoe'
p1431
I1734
sS'w-1=in'
p1432
I1809
sS'w+2=Lounceny'
p1433
I1169
sS'w+2=Nabus'
p1434
I1187
sS'w-2=remus'
p1435
I2428
sS'w+2=soon'
p1436
I1514
sS'w+2=army'
p1437
I1284
sS'w-1=clear'
p1438
I1740
sS'amod=first'
p1439
I81
sS'advcl=rise'
p1440
I17
sS'nsubj=Steinhardt'
p1441
I653
sS'w+2=Indonesia'
p1442
I1145
sS'w+2=company'
p1443
I1322
sS'w-1=district'
p1444
I1763
sS'w-2=wear'
p1445
I2511
sS'w-1=Party'
p1446
I1668
sS'w-2=Brian'
p1447
I1980
sS'xcomp=reform'
p1448
I2562
sS'w-1=825,000'
p1449
I1588
sS'w-1=many'
p1450
I1830
sS'appos=Tsvangirai'
p1451
I200
sS'w+2=Afghanistan'
p1452
I1050
sS'w-2=organize'
p1453
I2387
sS'appos=Dobriansky'
p1454
I147
sS'w-2=become'
p1455
I2220
sS'nn=Commonwealth'
p1456
I488
sS'prep=by'
p1457
I821
sS'w+2=WMO'
p1458
I1245
sS'w-2=through'
p1459
I2492
sS'conj=foot'
p1460
I253
sS'w-1=ESCAP'
p1461
I1623
sS'w+2=Center'
p1462
I1087
sS'w-2=or'
p1463
I2385
sS'nsubj=who'
p1464
I729
sS'w-2=Kortunov'
p1465
I2080
sS'w+2=islamic'
p1466
I1396
sS'w+2=Beijing'
p1467
I1072
sS'w+1=cam'
p1468
I947
sS'nsubjpass=featherweight'
p1469
I741
sS'appos=Osman'
p1470
I184
sS'w-2=on'
p1471
I2381
sS'w-2=household'
p1472
I2328
sS'appos=Strauss-Kahn'
p1473
I198
sS'w-2=greet'
p1474
I2317
sS'partmod=smash'
p1475
I772
sS'w-1=program'
p1476
I1864
sS'w+2=dos'
p1477
I1338
sS'w-2=wooden'
p1478
I2526
sS'w-2=Ocal'
p1479
I2116
sS'w-2=prepare'
p1480
I2400
sS'advmod=again'
p1481
I23
sS'w-1=Geelani'
p1482
I1632
sS'dobj=firm'
p1483
I412
sS'w-1=Mishel'
p1484
I1657
sS'w-2=appoint'
p1485
I2207
sS'w-2=zanu-pf'
p1486
I2530
sS'w-2=Mairiga'
p1487
I2087
sS'w+2=Bali'
p1488
I1069
sS'w-2=attack'
p1489
I2214
sS'rcmod=cover'
p1490
I851
sS'w-2=protect'
p1491
I2408
sS'w+2=doctor'
p1492
I1337
sS'conj=Council'
p1493
I237
sS'advmod=clear'
p1494
I27
sS'w+1=as'
p1495
I939
sS'w-2=another'
p1496
I2205
sS'w+1=at'
p1497
I940
sS'w-2=Byron'
p1498
I1985
sS'w-1=currently'
p1499
I1755
sS'w+1=Israel'
p1500
I899
sS'w-2=again'
p1501
I2190
sS'w+2=financial'
p1502
I1358
sS'w-2=west'
p1503
I2514
sS'appos=Quaqua'
p1504
I192
sS'w-1=can'
p1505
I1733
sS'w-2=official'
p1506
I2380
sS'w-2=judge'
p1507
I2342
sS'dobj=Initiative'
p1508
I347
sS'w-1=Vroome'
p1509
I1695
sS'w+2=western-backed'
p1510
I1561
sS'w-1=lawmaker'
p1511
I1825
sS'nsubj=Mishel'
p1512
I615
sS'w-1=those'
p1513
I1905
sS'w+2=African'
p1514
I1052
sS'advmod=when'
p1515
I59
sS'dobj=militia'
p1516
I428
sS'appos=Jackstam'
p1517
I166
sS'w-2=Nepal'
p1518
I2110
sS'nsubj=Olmert'
p1519
I627
sS'w-2=Flockhart'
p1520
I2029
sS'w-2=Daschle'
p1521
I2005
sS'xcomp=deal'
p1522
I2543
sS'w-2=support'
p1523
I2475
sS'w+1=we'
p1524
I1030
sS'w-2=attract'
p1525
I2216
sS'w+2=hardline'
p1526
I1374
sS'w-1=organization'
p1527
I1849
sS'w-1=Thaci'
p1528
I1689
sS'w-2=59'
p1529
I1946
sS'w-2=Bakir'
p1530
I1968
sS'w-2=Chisi'
p1531
I1994
sS'w-2=Ahmed'
p1532
I1959
sS'amod=powerful'
p1533
I104
sS'nsubj=pilgrim'
p1534
I705
sS'dep=#NUMBER#'
p1535
I280
sS'poss=opponent'
p1536
I799
sS'auxpass=be'
p1537
I221
sS'w-1=who'
p1538
I1929
sS"w-1='s"
p1539
I1575
sS'w-1=Duch'
p1540
I1620
sS'nn=EU'
p1541
I489
sS'nsubj=Ngudjolo'
p1542
I624
sS'dobj=path'
p1543
I439
sS'nsubj=Keating'
p1544
I596
sS'w-1=House'
p1545
I1643
sS'advmod=officially'
p1546
I42
sS'advmod=still'
p1547
I53
sS'w+1=next'
p1548
I986
sS'w-2=Khmer'
p1549
I2075
sS'w-2=be'
p1550
I2219
sS'w-2=Volk'
p1551
I2174
sS'w+2=Tanaka'
p1552
I1231
sS'w-2=hang'
p1553
I2321
sS'nsubjpass=statement'
p1554
I756
sS'dobj=conference'
p1555
I394
sS'w+1=match-up'
p1556
I983
sS'dobj=council'
p1557
I398
sS'w+2=think'
p1558
I1534
sS'nsubj=secretary'
p1559
I713
sS'w+1=its'
p1560
I979
sS"w-1=''"
p1561
I1573
sS'w-2=release'
p1562
I2426
sS'w-1=53'
p1563
I1586
sS'xcomp=work'
p1564
I2570
sS'w-2=Jehan'
p1565
I2062
sS'w-2=timetable'
p1566
I2493
sS'w-2=main'
p1567
I2354
sS'appos=Martin'
p1568
I177
sS'w-1=remain'
p1569
I1873
sS'w-2=most'
p1570
I2364
sS'nsubj=ship'
p1571
I714
sS'conj=do'
p1572
I250
sS'w-1=no'
p1573
I1841
sS'dobj=Ropemakers'
p1574
I364
sS'poss=U.N.'
p1575
I787
sS"w-2=''"
p1576
I1937
sS'nsubj=this'
p1577
I722
sS'dobj=government'
p1578
I416
sS'nsubj=Salonga'
p1579
I641
sS'w-1=want'
p1580
I1921
sS'w-2=office'
p1581
I2378
sS'nsubj=fighting'
p1582
I687
sS'amod=republican'
p1583
I109
sS'conj=hear'
p1584
I256
sS'w-2=animal'
p1585
I2204
sS'w+1=Mohammed'
p1586
I910
sS'w-2=Mangkusubroto'
p1587
I2090
sS'w-2=commissioner'
p1588
I2245
sS'w+2=grow'
p1589
I1371
sS'nsubj=Costa'
p1590
I558
sS'w-2=there'
p1591
I2487
sS'w+2=Smithsonian'
p1592
I1220
sS'rcmod=live'
p1593
I857
sS'w-2=diagnose'
p1594
I2266
sS'w-2=Chris'
p1595
I1996
sS'w-1=Sloan'
p1596
I1684
sS'w+2=american'
p1597
I1273
sS'dobj=doctor'
p1598
I404
sS'w+2=Justice'
p1599
I1158
sS'w-2=with'
p1600
I2524
sS"w-2='s"
p1601
I1938
sS'w+2=Guinea'
p1602
I1136
sS'nsubj=Barroso'
p1603
I538
sS'appos=Diallo'
p1604
I145
sS'appos=DalilBoubakeur'
p1605
I143
sS'dobj=Corporation'
p1606
I338
sS'nn=Rouge'
p1607
I495
sS'w-2=Zimbabwe'
p1608
I2180
sS'w-1=flame'
p1609
I1788
sS'appos=Churov'
p1610
I140
sS'nsubj=Panha'
p1611
I630
sS'w-2=Margaret'
p1612
I2091
sS'w-2=upside'
p1613
I2506
sS'w-2=Saad'
p1614
I2137
sS'w-1=electoral-commission'
p1615
I1771
sS'w-2=tackle'
p1616
I2477
sS'w-1=tolerant'
p1617
I1910
sS'w-2=Holmes'
p1618
I2051
sS'w+2=South'
p1619
I1222
sS'w+2=ruthless'
p1620
I1496
sS'w+2=much'
p1621
I1428
sS'w-1=Community'
p1622
I1613
sS'w-2=Ostapenko'
p1623
I2117
sS'nsubj=Moo-hyun'
p1624
I618
sS'nsubjpass=Iraq'
p1625
I733
sS'w-1=rule'
p1626
I1875
sS'partmod=leave'
p1627
I768
sS'dobj=Bank'
p1628
I329
sS'appos=Ngige'
p1629
I182
sS'w-2=which'
p1630
I2518
sS'nsubj=Thaci'
p1631
I657
sS'w-2=Barzani'
p1632
I1972
sS'w-2=Drewsen'
p1633
I2019
sS'w-2=Richard'
p1634
I2134
sS'prep=throughout'
p1635
I838
sS'prep=while'
p1636
I843
sS'nn=council'
p1637
I506
sS'w-2=the'
p1638
I2486
sS'nsubj=car'
p1639
I672
sS'w+2=al-Qaida'
p1640
I1270
sS'w-2=Leterme'
p1641
I2085
sS'w+2=Taleban'
p1642
I1230
sS'nsubj=Kaba'
p1643
I594
sS'xcomp=boost'
p1644
I2537
sS'aux=will'
p1645
I218
sS'w+2=team'
p1646
I1526
sS'w-2=Rasheeda'
p1647
I2131
sS'appos=Gandhi'
p1648
I154
sS'w-2=strong'
p1649
I2471
sS'appos=Samiel'
p1650
I195
sS'dobj=summit'
p1651
I455
sS'w+2=Sunday'
p1652
I1229
sS'amod=former'
p1653
I84
sS'dobj=Research'
p1654
I362
sS'w+2=Qatar'
p1655
I1208
sS'prep=with'
p1656
I844
sS"appos=O'Reilly"
p1657
I183
sS'w-2=Juba'
p1658
I2065
sS'amod=previous'
p1659
I105
sS'w-1=deputy'
p1660
I1760
sS'appos=Long'
p1661
I173
sS'w-1=Narain'
p1662
I1662
sS'dobj=force'
p1663
I413
sS'amod=democratic'
p1664
I70
sS'w+2=Anil'
p1665
I1060
sS'dobj=strike'
p1666
I452
sS'w-2=opponent'
p1667
I2384
sS'w-2=president'
p1668
I2401
sS'w-2=Nagesh'
p1669
I2108
sS'w-1=join'
p1670
I1820
sS'w-2=Adam'
p1671
I1955
sS'w-2=beer'
p1672
I2221
sS'nn=Musharraf'
p1673
I491
sS'nn=NATO'
p1674
I492
sS'w-2=emergency'
p1675
I2279
sS'w+2=civic'
p1676
I1311
sS'w+2=lunch'
p1677
I1414
sS'w+2=reconstruct'
p1678
I1489
sS'w+2=civil'
p1679
I1312
sS'nsubj=Gizenga'
p1680
I578
sS'w-1=after'
p1681
I1703
sS'w+2=Unified'
p1682
I1238
sS'w+2=place'
p1683
I1465
sS'w+2=u.n.-sponsored'
p1684
I1545
sS'dobj=environment'
p1685
I407
sS'dobj=University'
p1686
I367
sS'appos=Zia'
p1687
I204
sS'appos=Haddad-Adel'
p1688
I163
sS'appos=Kikwete'
p1689
I170
sS'appos=Blatter'
p1690
I134
sS'w-1=delegate'
p1691
I1758
sS'w-2=way'
p1692
I2509
sS'appos=Haarburger'
p1693
I162
sS'w+2=counter-trafficking'
p1694
I1326
sS'nsubj=director'
p1695
I683
sS'w+2=Carlos'
p1696
I1086
sS'cc=and'
p1697
I222
sS'w-1=Starr'
p1698
I1685
sS'nsubjpass=official'
p1699
I748
sS'w-2=India'
p1700
I2057
sS'w+1=by'
p1701
I946
sS'w-1=Moeller'
p1702
I1658
sS'w+1=be'
p1703
I944
sS'w+2=bowl'
p1704
I1298
sS'w-2=Doss'
p1705
I2018
sS'w+2=Doss'
p1706
I1105
sS'w-1=Europeans'
p1707
I1627
sS'w-2=officer'
p1708
I2379
sS'conj=say'
p1709
I270
sS'nsubj=Georgia'
p1710
I577
sS'w+1=Manila'
p1711
I904
sS'w+2=Security'
p1712
I1216
sS'w-1=female'
p1713
I1783
sS'w+1=-lrb-'
p1714
I880
sS'w+2=party'
p1715
I1460
sS'nsubj=Sloan'
p1716
I649
sS'w-2=see'
p1717
I2446
sS'w+2=family'
p1718
I1355
sS'w+1=into'
p1719
I976
sS'w-1=Syed'
p1720
I1687
sS'w+1=Elliot'
p1721
I892
sS'w+2=climate'
p1722
I1313
sS'w-2=Ethiopia'
p1723
I2025
sS'infmod=gather'
p1724
I472
sS'nsubj=Ivan'
p1725
I592
sS'w+1=Vladimir'
p1726
I928
sS'dobj=body'
p1727
I378
sS'dobj=west'
p1728
I467
sS'w-2=Malik'
p1729
I2089
sS'w-2=party'
p1730
I2390
sS'dobj=chapter'
p1731
I384
sS'dep=rely'
p1732
I307
sS'w-2=refill'
p1733
I2424
sS'w-2=off'
p1734
I2377
sS'w-1=readout'
p1735
I1868
sS'appos=Kufuor'
p1736
I172
sS'dep=Breteau'
p1737
I283
sS'w+2=Awami'
p1738
I1067
sS'w-1=powerful'
p1739
I1862
sS'poss=company'
p1740
I794
sS'w+2=China'
p1741
I1090
sS'w-1=believe'
p1742
I1722
sS'conj=heart'
p1743
I257
sS'amod=iranian'
p1744
I90
sS'w-2=ship'
p1745
I2456
sS'w-2=Fretilin'
p1746
I2031
sS'amod=numerous'
p1747
I101
sS'w+1=lead'
p1748
I981
sS'xcomp=be'
p1749
I2536
sS'nsubj=Marcus'
p1750
I609
sS'w+2=House'
p1751
I1141
sS'nsubj=Hebebrand'
p1752
I587
sS'prep=of'
p1753
I830
sS'w-1=have'
p1754
I1802
sS'w-2=cattle'
p1755
I2236
sS'prep=on'
p1756
I832
sS'w+2=project'
p1757
I1479
sS'w-1=Danziger'
p1758
I1617
sS'xcomp=inspect'
p1759
I2551
sS'xcomp=evaluate'
p1760
I2545
sS'nsubj=Fong'
p1761
I573
sS'w+2=Prime'
p1762
I1206
sS'w-2=company'
p1763
I2248
sS'poss=Indonesia'
p1764
I782
sS'w-2=could'
p1765
I2251
sS'appos=Bala'
p1766
I126
sS'w+2=election'
p1767
I1346
sS'w-2=dark'
p1768
I2259
sS'w+2=crocodile'
p1769
I1328
sS'w-1=Hardi'
p1770
I1638
sS'w+2=that'
p1771
I1528
sS'dep=marxist'
p1772
I301
sS'xcomp=discuss'
p1773
I2544
sS'amod=more'
p1774
I96
sS'w+2=and'
p1775
I1275
sS'w-1=export'
p1776
I1777
sS'w-2=get'
p1777
I2313
sS'w+2=commission'
p1778
I1320
sS'w-2=week'
p1779
I2512
sS'w+2=monitor'
p1780
I1424
sS'nsubj=Zia'
p1781
I666
sS'appos=Ping'
p1782
I190
sS'w-2=McCartney'
p1783
I2095
sS'w-1=of'
p1784
I1847
sS'w-1=again'
p1785
I1704
sS'w-2=more'
p1786
I2362
sS'advcl=head'
p1787
I8
sS'w+1=Eduardo'
p1788
I891
sS'nsubj=Bullock'
p1789
I547
sS'w+2=fall'
p1790
I1354
sS'rcmod=make'
p1791
I859
sS'w+1=this'
p1792
I1019
sS'advmod=regardless'
p1793
I50
sS'nsubj=Anderson'
p1794
I533
sS'amod=enduring'
p1795
I77
sS'w-1=every'
p1796
I1776
sS'poss=world'
p1797
I805
sS'w+2=Germany'
p1798
I1129
sS'w+2=investment'
p1799
I1395
sS'w-1=plane'
p1800
I1858
sS'w+2=into'
p1801
I1394
sS'w-2=doping'
p1802
I2271
sS'w-2=will'
p1803
I2523
sS'w-1=stone'
p1804
I1895
sS'nsubj=Levin'
p1805
I604
sS'nsubj=Vroome'
p1806
I664
sS'w+2=winter'
p1807
I1566
sS'dobj=Museum'
p1808
I356
sS'dobj=Program'
p1809
I361
sS'w+2=White'
p1810
I1250
sS'w+1=base'
p1811
I943
sS'dobj=JI'
p1812
I349
sS'nsubj=Beckham'
p1813
I540
sS'prep=among'
p1814
I814
sS'w-2=not'
p1815
I2374
sS'w-2=now'
p1816
I2375
sS'w-2=FSB'
p1817
I2027
sS'w-1=outgoing'
p1818
I1851
sS'dep=s'
p1819
I308
sS'dobj=center'
p1820
I383
sS'amod=human'
p1821
I88
sS'w-2=seven'
p1822
I2449
sS'w+2=VoteVets.org'
p1823
I1243
sS'w-2=at'
p1824
I2213
sS'w-2=as'
p1825
I2210
sS'w-2=leave'
p1826
I2348
sS'nsubjpass=party'
p1827
I750
sS'w+2=Yousuf'
p1828
I1254
sS'w-1=also'
p1829
I1708
sS'w-2=Congo'
p1830
I2000
sS'w+2=large'
p1831
I1404
sS'w-2=may'
p1832
I2357
sS'w+2=head'
p1833
I1376
sS'w+2=Undersecretary'
p1834
I1237
sS'advcl=make'
p1835
I10
sS'rcmod=maintain'
p1836
I858
sS'w-2=Bank'
p1837
I1969
sS'w+2=Green'
p1838
I1134
sS'w-1=Kostunica'
p1839
I1648
sS'w-2=chest'
p1840
I2237
sS'w+2=Nashville'
p1841
I1189
sS'det=a'
p1842
I317
sS'w-2=Kenneth'
p1843
I2073
sS'w-2=over'
p1844
I2389
sS'nsubjpass=thing'
p1845
I758
sS'appos=Salehi'
p1846
I194
sS'w-2=Bush'
p1847
I1983
sS'dobj=squad'
p1848
I449
sS'w-2=include'
p1849
I2334
sS'w-1=before'
p1850
I1721
sS'w-2=Vojislav'
p1851
I2173
sS'amod=female'
p1852
I79
sS'w+1=Thursday'
p1853
I922
sS'w-1=policy'
p1854
I1859
sS'dobj=household'
p1855
I419
sS'complm=whether'
p1856
I235
sS'w+2=due'
p1857
I1339
sS'nsubj=Chantha'
p1858
I552
sS'w-1=numerous'
p1859
I1846
sS'w+2=fan'
p1860
I1356
sS'nn=corruption'
p1861
I505
sS'appos=Masud'
p1862
I178
sS'xcomp=climb'
p1863
I2540
sS'appos=Dailey'
p1864
I142
sS'w-2=fighter'
p1865
I2298
sS'advcl=refuse'
p1866
I13
sS'w+2=without'
p1867
I1567
sS'w+2=Yisrael'
p1868
I1253
sS'w-2=Maingain'
p1869
I2086
sS'w+1=Contract'
p1870
I890
sS'w-2=protest'
p1871
I2409
sS'w+2=non-partisan'
p1872
I1438
sS'w+2=Strategic'
p1873
I1226
sS'w-2=negotiator'
p1874
I2371
sS'nsubj=salmon'
p1875
I712
sS'w-2=Vincent'
p1876
I2171
sS'w-2=Von'
p1877
I2175
sS'nsubj=Dizaiy'
p1878
I563
sS"aux='ll"
p1879
I209
sS'aux=to'
p1880
I217
sS'nsubj=Bhutto'
p1881
I543
sS'nsubj=Narain'
p1882
I623
sS'nsubj=Sampaio'
p1883
I643
sS'w+2=the'
p1884
I1529
sS'amod=italian'
p1885
I91
sS'w+2=libyan'
p1886
I1408
sS'xcomp=represent'
p1887
I2563
sS'nn=commerce'
p1888
I503
sS'dobj=worst'
p1889
I469
sS'conj=cancer'
p1890
I244
sS'prep=as'
p1891
I815
sS'advmod=perhaps'
p1892
I47
sS'w+2=privately'
p1893
I1477
sS'w-1=Carolina'
p1894
I1608
sS'w+2=about'
p1895
I1259
sS'nsubj=Diamandis'
p1896
I562
sS'w-2=farmer'
p1897
I2294
sS'prep=during'
p1898
I823
sS'w+1=toward'
p1899
I1024
sS'w+2=University'
p1900
I1240
sS'conj=businesswoman'
p1901
I243
sS'appos=Forgione'
p1902
I153
sS'rcmod=handle'
p1903
I853
sS'w-1=now'
p1904
I1845
sS'w-1=not'
p1905
I1844
sS'w-1=Sabanci'
p1906
I1677
sS'partmod=record'
p1907
I770
sS'appos=Mahmud'
p1908
I175
sS'w-2=force'
p1909
I2305
sS'aux=be'
p1910
I210
sS'w-1=Austria'
p1911
I1599
sS'w+2=State'
p1912
I1225
sS'w-1=Remy'
p1913
I1674
sS'prep=before'
p1914
I819
sS'nsubj=France'
p1915
I574
sS'w+2=Michael'
p1916
I1179
sS'w+2=operation'
p1917
I1448
sS'w-2=Ahrens'
p1918
I1960
sS'aux=have'
p1919
I213
sS'nn=day'
p1920
I508
sS'ccomp=calm'
p1921
I226
sS'ccomp=call'
p1922
I225
sS'w+1=RoMeLa'
p1923
I920
sS'w-1=Taylor'
p1924
I1688
sS'w-2=cabinet'
p1925
I2232
sS'w-2=Apira'
p1926
I1965
sS'nsubj=IAEA'
p1927
I591
sS'w-2=election'
p1928
I2277
sS'nsubj=one-fifth'
p1929
I704
sS'w-2=addition'
p1930
I2186
sS'prep=that'
p1931
I836
sS'csubj=hold'
p1932
I279
sS'nsubj=Hardi'
p1933
I584
sS'w+2=use'
p1934
I1551
sS'appos=Gopal'
p1935
I159
sS'w-1=mission'
p1936
I1832
sS'w-1=Owalla'
p1937
I1666
sS'w-2=;'
p1938
I1948
sS'appos=Guehenno'
p1939
I160
sS'w+2=Namibia'
p1940
I1188
sS'w-2=faction'
p1941
I2290
sS'w-2=they'
p1942
I2488
sS'dobj=Mission'
p1943
I354
sS'w-2=Denis'
p1944
I2011
sS'w-1=-'
p1945
I1577
sS'dobj=country'
p1946
I399
sS'w+2=26-person'
p1947
I1045
sS'w-1=,'
p1948
I1576
sS'dobj=Center'
p1949
I333
sS'nn=peacock'
p1950
I514
sS'dobj=delegation'
p1951
I401
sS'nsubj=government'
p1952
I691
sS'appos=Basbug'
p1953
I128
sS'w-1=stitch'
p1954
I1894
sS'w+2=exhibition'
p1955
I1351
sS'xcomp=mark'
p1956
I2556
sS'w-2=North'
p1957
I2113
sS'w+2=across'
p1958
I1261
sS'dobj=Peace'
p1959
I360
sS'w-1=voter'
p1960
I1920
sS'dobj=Horn'
p1961
I346
sS'w-2=four'
p1962
I2309
sS'w-2=life'
p1963
I2350
sS'dobj=coach'
p1964
I387
sS'w-1=Sharif'
p1965
I1682
sS'nsubj=Ferguson'
p1966
I572
sS'w-2=Ryder'
p1967
I2136
sS'w+1=local'
p1968
I982
sS"w-2=shi'ite"
p1969
I2455
sS'w+2=Breteau'
p1970
I1074
sS'w-1=by'
p1971
I1731
sS'nsubj=Ravigiole'
p1972
I636
sS'w-2=dockyard'
p1973
I2270
sS'w-1=be'
p1974
I1719
sS'dobj=oils'
p1975
I433
sS'w-1=day'
p1976
I1756
sS'prep=behind'
p1977
I820
sS'w+2=sell'
p1978
I1502
sS'amod=local'
p1979
I93
sS'w-2=go'
p1980
I2314
sS'w-1=Bush'
p1981
I1606
sS'w-1=truck'
p1982
I1913
sS'mark=because'
p1983
I478
sS'aux=might'
p1984
I215
sS'w-1=salmon'
p1985
I1876
sS'w+1=ofdelegation'
p1986
I991
sS'dobj=Caucus'
p1987
I332
sS'nsubj=Dennis'
p1988
I561
sS'nsubj=flame'
p1989
I688
sS'w-1=Panindiker'
p1990
I1667
sS'w-2=teaspoon'
p1991
I2480
sS'w+2=what'
p1992
I1562
sS'xcomp=see'
p1993
I2564
sS'w-1=severe'
p1994
I1884
sS'nsubj=Bee'
p1995
I541
sS'w-2=ram'
p1996
I2416
sS'dobj=movement'
p1997
I430
sS'w-2=agency'
p1998
I2192
sS'advmod=once'
p1999
I43
sS'w-1=which'
p2000
I1928
sS'dep=Foundation'
p2001
I291
sS'w+2=Oumar'
p2002
I1199
sS'w+1=nurse'
p2003
I989
sS'w-2=July'
p2004
I2066
sS'w+2=serious'
p2005
I1503
sS'w-1=whose'
p2006
I1930
sS'w-1=from'
p2007
I1792
sS'w-2=Mario'
p2008
I2092
sS'w-2=quality'
p2009
I2412
sS'w+2=by'
p2010
I1302
sS'w-1=draw'
p2011
I1766
sS'nsubj=customer'
p2012
I680
sS'w-2=Hoey'
p2013
I2049
sS'w+2=be'
p2014
I1290
sS'w-2=twenty'
p2015
I2499
sS'w-2=group'
p2016
I2318
sS'w-1=Salonga'
p2017
I1678
sS'w-1=U.N.'
p2018
I1692
sS'w+2=president'
p2019
I1476
sS'w-2=delegation'
p2020
I2263
sS'nsubjpass=#PRP#'
p2021
I732
sS'advmod=too'
p2022
I56
sS'w+1=slapping'
p2023
I1008
sS'aux=would'
p2024
I219
sS'w+1=Pacific'
p2025
I916
sS'w-2=boat'
p2026
I2226
sS'w+1=arm'
p2027
I938
sS'w-2=raise'
p2028
I2415
sS'w-2=U.N.'
p2029
I2164
sS'w+2=Pakistan'
p2030
I1201
sS'nsubj=Taylor'
p2031
I656
sS'w+2=Chad'
p2032
I1088
sS'dobj=the'
p2033
I460
sS'w-1=soviet'
p2034
I1891
sS'w+2=come'
p2035
I1318
sS'dep=without'
p2036
I315
sS'nsubj=Leterme'
p2037
I603
sS'w+1=and'
p2038
I936
sS'w-2=presidential'
p2039
I2402
sS'w+2=Electoral'
p2040
I1115
sS'conj=rape'
p2041
I269
sS'w+2=consortium'
p2042
I1325
sS'w-1=fire'
p2043
I1785
sS'w+2=central'
p2044
I1307
sS'w+1=camera'
p2045
I948
sS'w-2=Clinton'
p2046
I1998
sS'w-1=Clinton'
p2047
I1611
sS'w-2=brightly-illuminated'
p2048
I2227
sS'w-1=NATO'
p2049
I1661
sS'dep=Division'
p2050
I290
sS'prt=up'
p2051
I849
sS'w-2=job'
p2052
I2341
sS'w-2=special'
p2053
I2466
sS'w+2=these'
p2054
I1532
sS'w-2=Soccer'
p2055
I2147
sS'w-1=Olmert'
p2056
I1665
sS'w+2=Middle'
p2057
I1180
sS'w-2=criticize'
p2058
I2256
sS'w-2=well'
p2059
I2513
sS'xcomp=Watch'
p2060
I2535
sS'dep=oversee'
p2061
I305
sS'w+2=bomb'
p2062
I1296
sS'nsubj=Rice'
p2063
I638
sS'appos=Bellinger'
p2064
I131
sS'nsubj=Bailey'
p2065
I536
sS'w-2=upon'
p2066
I2505
sS'w+2=Media'
p2067
I1177
sS'w-1=clearly'
p2068
I1741
sS'nsubj=Hill'
p2069
I589
sS'w-2=Chatterjee'
p2070
I1992
sS'w+2=Sumatra'
p2071
I1228
sS'w-2=you'
p2072
I2528
sS'tmod=offensive'
p2073
I874
sS'w+2=Alex'
p2074
I1055
sS'w+1=have'
p2075
I966
sS'w-1=peacock'
p2076
I1854
sS'w+2=Davos'
p2077
I1100
sS'w+2=Missouri'
p2078
I1181
sS'w-2=rotate'
p2079
I2439
sS'amod=longest-serving'
p2080
I94
sS'w+2=similar'
p2081
I1508
sS'dobj=underground'
p2082
I462
sS'w+2=2007'
p2083
I1044
sS'w-1=African'
p2084
I1593
sS'amod=strong'
p2085
I116
sS'w+2=2004'
p2086
I1043
sS'w+2=parliamentary'
p2087
I1459
sS'w-1=80'
p2088
I1587
sS'w-2=Kashan'
p2089
I2070
sS'w-2=shot'
p2090
I2458
sS'w-2=activist'
p2091
I2185
sS'w-2=Virendra'
p2092
I2172
sS'w-2=Mukoko'
p2093
I2106
sS'w+2=more'
p2094
I1426
sS'w-2=France'
p2095
I2030
sS'w+2=spending'
p2096
I1517
sS'appos=Karat'
p2097
I169
sS'w-1=sit'
p2098
I1888
sS'w+2=Mexico'
p2099
I1178
sS'nsubj=Matsusaka'
p2100
I612
sS'w+1=Patrick'
p2101
I918
sS'dobj=Economic'
p2102
I342
sS'nsubj=Moeller'
p2103
I617
sS'w-2=former'
p2104
I2307
sS'w-1=Hasina'
p2105
I1640
sS'nsubj=Gyanendra'
p2106
I581
sS'w-1=track'
p2107
I1911
sS'nsubj=project'
p2108
I709
sS'w-1=malaria'
p2109
I1828
sS'w+2=Gaza'
p2110
I1127
sS'nn=program'
p2111
I516
sS'prt=out'
p2112
I848
sS'w+2=economically'
p2113
I1343
sS'w+2=trade'
p2114
I1540
sS'w-1=country'
p2115
I1753
sS'w-1=both'
p2116
I1728
sS'w-1=weapon'
p2117
I1924
sS'dobj=Movement'
p2118
I355
sS'dobj=Commission'
p2119
I336
sS'nsubj=kamath'
p2120
I695
sS'w-1=my'
p2121
I1836
sS'appos=Perra'
p2122
I189
sS'w-2=later'
p2123
I2345
sS'w-1=Keating'
p2124
I1646
sS'w+2=unit'
p2125
I1549
sS'amod=ceremonial'
p2126
I66
sS'w-2=aid'
p2127
I2194
sS'w-1=Ertll'
p2128
I1626
sS'w-2=cut'
p2129
I2258
sS'xcomp=learn'
p2130
I2553
sS'dep=Russia'
p2131
I294
sS'amod=youngest'
p2132
I122
sS'w+1=two'
p2133
I1026
sS'w+2=Asia'
p2134
I1064
sS'nsubj=fall'
p2135
I686
sS'w-2=press'
p2136
I2403
sS'w-1=titular'
p2137
I1907
sS'prep=for'
p2138
I825
sS'w-2=Moni'
p2139
I2102
sS'dep=that'
p2140
I311
sS'nn=affair'
p2141
I499
sS'w+2=they'
p2142
I1533
sS'nsubj=Bush'
p2143
I548
sS'w+2=at'
p2144
I1286
sS'w+2=as'
p2145
I1285
sS'w-2=U.S.'
p2146
I2165
sS'w+2=local'
p2147
I1413
sS'w-1=once'
p2148
I1848
sS'w+1=would'
p2149
I1035
sS'nsubj=Rong'
p2150
I639
sS'w+2=Egypt'
p2151
I1111
sS'ccomp=challenge'
p2152
I228
sS'nn=Sison'
p2153
I496
sS'w-2=Prithvi'
p2154
I2127
sS'w-1=hiker'
p2155
I1804
sS'w+2=Australia'
p2156
I1065
sS'w+1=Military'
p2157
I908
sS'dep=KGB'
p2158
I292
sS'dobj=army'
p2159
I374
sS'w+2=India'
p2160
I1144
sS'w-2=Buyukanit'
p2161
I1984
sS'w-1=pilgrim'
p2162
I1857
sS'w-1=ambassador'
p2163
I1709
sS'nsubj=ambassador'
p2164
I668
sS'w+2=Delhi'
p2165
I1102
sS'w-2=sack'
p2166
I2441
sS'w+2=peacekeeping'
p2167
I1463
sS'w-2=Jurado'
p2168
I2067
sS'appos=Rao'
p2169
I193
sS'appos=Munyeza'
p2170
I181
sS'appos=Chamoun'
p2171
I137
sS'w-1=extensive'
p2172
I1778
sS'amod=calmer'
p2173
I65
sS'dobj=Navy'
p2174
I357
sS'w+2=humanitarian'
p2175
I1381
sS'poss=Bhutto'
p2176
I778
sS'w+2=really'
p2177
I1487
sS'nsubjpass=delegation'
p2178
I739
sS'w+1=back'
p2179
I942
sS'w+2=Democratic'
p2180
I1103
sS'w+1=household'
p2181
I971
sS'w+1=Belgium'
p2182
I887
sS'w-2=year'
p2183
I2527
sS'w+2=faction'
p2184
I1353
sS'w-2=hospital'
p2185
I2327
sS'w+2=Vienna'
p2186
I1241
sS'w+2=air'
p2187
I1267
sS'prep=off'
p2188
I831
sS'w-1=people'
p2189
I1855
sS'w+2=church'
p2190
I1310
sS'w+1=right'
p2191
I1003
sS'w-2=Bullock'
p2192
I1982
sS'w-2=Sandy'
p2193
I2140
sS'w+1=Khare'
p2194
I902
sS'w-2=month'
p2195
I2361
sS'appos=Esele'
p2196
I150
sS'w+1=Intentional'
p2197
I898
sS'nsubjpass=most'
p2198
I746
sS'w-2=tell'
p2199
I2481
sS'appos=Baral'
p2200
I127
sS'w+2=coalition'
p2201
I1315
sS'w+2=of'
p2202
I1441
sS'w-2=once'
p2203
I2382
sS'w-1=Hariri'
p2204
I1639
sS'w+2=on'
p2205
I1444
sS'w-2=Fallon'
p2206
I2028
sS'w+2=Yung-woo'
p2207
I1255
sS'w+2=Institute'
p2208
I1146
sS'w-2=King'
p2209
I2077
sS'w+2=Arthur'
p2210
I1062
sS'w+1=so'
p2211
I1010
sS'prep=into'
p2212
I829
sS'dobj=Party'
p2213
I359
sS'dobj=little'
p2214
I425
sS'w-2=foot'
p2215
I2303
sS'w-2=Bears'
p2216
I1973
sS'nsubj=spacecraft'
p2217
I717
sS'prep=without'
p2218
I845
sS'w-2=Sunita'
p2219
I2157
sS'w-1=Chan'
p2220
I1610
sS'w+1=smash'
p2221
I1009
sS'w-2=choice'
p2222
I2238
sS'w+2=Newspoll'
p2223
I1193
sS'w+2=Hak'
p2224
I1137
sS'w-1=she'
p2225
I1886
sS'w+2=from'
p2226
I1366
sS'w+2=man'
p2227
I1417
sS'w-2=Pai'
p2228
I2120
sS'w-1=turn'
p2229
I1914
sS'w-2=AKP'
p2230
I1949
sS'nsubj=Tonwe'
p2231
I658
sS'advmod=next'
p2232
I39
sS'w-1=current'
p2233
I1754
sS'w+2=Palestinian'
p2234
I1202
sS'w+2=g-8'
p2235
I1367
sS'w-2=fail'
p2236
I2291
sS'w-1=Holzhausen'
p2237
I1642
sS'w-2=Camara'
p2238
I1987
sS'conj=demonstrate'
p2239
I249
sS'w+2=epidemiology'
p2240
I1350
sS'w-1=Arab'
p2241
I1597
sS'w-2=Parr'
p2242
I2123
sS'xcomp=launch'
p2243
I2552
sS'w-2=Hudiono'
p2244
I2053
sS'w-2=remain'
p2245
I2427
sS'w+1=over'
p2246
I997
sS'w-2=fair'
p2247
I2292
sS'w-1=between'
p2248
I1723
sS'w+2=plant'
p2249
I1466
sS'conj=blame'
p2250
I242
sS'amod=visit'
p2251
I121
sS'w+1=underground'
p2252
I1027
sS'rcmod=tend'
p2253
I865
sS'nsubj=Kilpatrick'
p2254
I597
sS'amod=titular'
p2255
I117
sS'w-2=Iraq'
p2256
I2059
sS'w-1=Lubanga'
p2257
I1653
sS'w-2=Chilura'
p2258
I1993
sS'w+2=General'
p2259
I1128
sS'w-2=Hill'
p2260
I2048
sS'nn=WFP'
p2261
I498
sS'w+2=radical'
p2262
I1484
sS'poss=Zoe'
p2263
I789
sS'w-1=unit'
p2264
I1916
sS'nsubj=hiker'
p2265
I693
sS'w-2=public'
p2266
I2410
sS'w-1=companion'
p2267
I1745
sS'w-2=largely'
p2268
I2344
sS'nn=Programs'
p2269
I493
sS'w+2=west'
p2270
I1560
sS'w+2=guidance'
p2271
I1372
sS'expl=there'
p2272
I470
sS'w+2=Hamas'
p2273
I1138
sS'w+2=another'
p2274
I1277
sS'w-2=David'
p2275
I2006
sS'xcomp=mission'
p2276
I2557
sS'w+1=Kim'
p2277
I903
sS'nn=bang'
p2278
I500
sS'partmod=sneak'
p2279
I773
sS'poss=DEA'
p2280
I779
sS'amod=civilian'
p2281
I67
sS'w-1=next'
p2282
I1840
sS'w-2=in'
p2283
I2333
sS'w+2=people'
p2284
I1464
sS'w+2=leave'
p2285
I1405
sS'w-1=count'
p2286
I1752
sS'w+2=Automobile'
p2287
I1066
sS'w-1=Lange'
p2288
I1650
sS'w-2=Hajian'
p2289
I2044
sS'rcmod=say'
p2290
I862
sS'w-2=nation'
p2291
I2369
sS'w-2=Dean'
p2292
I2007
sS'w+2=list'
p2293
I1409
sS'w+2=ICICI'
p2294
I1143
sS'nsubj=Sharif'
p2295
I648
sS'w+2=blame'
p2296
I1294
sS'w+2=Mars'
p2297
I1174
sS'w+2=neighbor'
p2298
I1434
sS'w+2=Colombo'
p2299
I1092
sS'w+2=Southern'
p2300
I1223
sS'nsubj=Obama'
p2301
I626
sS'w-2=along'
p2302
I2201
sS'w-2=it'
p2303
I2339
sS'w+1=one'
p2304
I994
sS'w+2=Rwanda'
p2305
I1215
sS'w+2=week'
p2306
I1559
sS'w+2=Fannie'
p2307
I1120
sS'xcomp=survey'
p2308
I2566
sS'amod=radical'
p2309
I107
sS'num=#NUMBER#'
p2310
I761
sS"w-2=O'Shaughnessy"
p2311
I2115
sS'w-2=post'
p2312
I2399
sS"w+2=''"
p2313
I1036
sS'nsubj=country'
p2314
I679
sS'w+2=office'
p2315
I1442
sS'dobj=RoMeLa'
p2316
I363
sS'w-1=this'
p2317
I1904
sS'w+2=center-right'
p2318
I1306
sS'appos=Zucula'
p2319
I205
sS'w-1=various'
p2320
I1917
sS'w-2=end'
p2321
I2280
sS'w+1=follow'
p2322
I960
sS'w-2=Kaul'
p2323
I2072
sS'nsubjpass=country'
p2324
I738
sS'auxpass=appear'
p2325
I220
sS'w-1=g-8'
p2326
I1794
sS'tmod=Institute'
p2327
I870
sS'w-2=program'
p2328
I2407
sS'amod=egyptian-born'
p2329
I73
sS'w-1=States'
p2330
I1686
sS'w-2=plan'
p2331
I2396
sS'conj=work'
p2332
I275
sS'w-2=55-year-old'
p2333
I1945
sS'w-2=stick'
p2334
I2469
sS'rcmod=run'
p2335
I861
sS'appos=Yadav'
p2336
I203
sS'dobj=Fatah'
p2337
I343
sS'w+1=sugar'
p2338
I1013
sS'w-2=summit'
p2339
I2474
sS'w-1=but'
p2340
I1730
sS"w+2='s"
p2341
I1037
sS'w-2=when'
p2342
I2516
sS'w-2=Pereira'
p2343
I2125
sS'nsubj=game'
p2344
I689
sS'w+1=home'
p2345
I970
sS'w-2=al-mubarak'
p2346
I2197
sS'amod=newly-elected'
p2347
I98
sS'w-1=Ravigiole'
p2348
I1673
sS'w+2=panel'
p2349
I1457
sS'w+2=group'
p2350
I1370
sS'w-1=Fong'
p2351
I1630
sS'det=every'
p2352
I319
sS'w-1=among'
p2353
I1710
sS'appos=Sheeran'
p2354
I197
sS'w-1=Commonwealth'
p2355
I1612
sS'w+2=past'
p2356
I1461
sS'appos=Gaye'
p2357
I155
sS'w-2=Sheikh'
p2358
I2145
sS'advcl=kill'
p2359
I9
sS'w+1=against'
p2360
I935
sS'w-2=responsibility'
p2361
I2433
sS'w+2=Camp'
p2362
I1083
sS'dobj=family'
p2363
I410
sS'nn=#NUMBER#'
p2364
I483
sS'w-2=around'
p2365
I2208
sS'w+2=opposition'
p2366
I1449
sS'w-2=McCain'
p2367
I2094
sS'partmod=hold'
p2368
I767
sS'mark=before'
p2369
I479
sS'w-2=anybody'
p2370
I2206
sS'nsubj=thing'
p2371
I721
sS'advmod=back'
p2372
I26
sS'dobj=bloc'
p2373
I376
sS'dobj=CPP'
p2374
I330
sS'nn=stone'
p2375
I520
sS'w+1=rival'
p2376
I1004
sS'dobj=match-up'
p2377
I426
sS'amod=next'
p2378
I99
sS"w+1='s"
p2379
I878
sS'nsubj=worker'
p2380
I730
sS'w+2=Mukhammetnazar'
p2381
I1185
sS'w-1=convoy'
p2382
I1748
sS'w-2=Carolyn'
p2383
I1989
sS'conj=Mr.'
p2384
I238
sS'w-2=splinter'
p2385
I2467
sS'w+2=Pacific'
p2386
I1200
sS'w-1=appear'
p2387
I1712
sS'nsubj=majority'
p2388
I697
sS'w-2=by'
p2389
I2231
sS'w+2=Gondar'
p2390
I1133
sS'w+2=stagnation'
p2391
I1518
sS'advcl=begin'
p2392
I2
sS'dobj=foundation'
p2393
I414
sS'w+1=Hong'
p2394
I897
sS'advmod=clearly'
p2395
I28
sS'w-1=scandinavian'
p2396
I1877
sS'nsubj=Brown'
p2397
I546
sS'w-2=al-Rubaie'
p2398
I2196
sS'w+2=GSA'
p2399
I1125
sS'dobj=charity'
p2400
I385
sS'dobj=department'
p2401
I402
sS'w-2=reelection'
p2402
I2423
sS'w-1=devananda'
p2403
I1761
sS'w-1=Samak'
p2404
I1679
sS'w+2=Nkunda'
p2405
I1195
sS'w+1=west'
p2406
I1031
sS'nsubj=Venezuela'
p2407
I662
sS'nsubj=Chan'
p2408
I551
sS'w-2=against'
p2409
I2191
sS'nsubj=Wade'
p2410
I665
sS'w-2=seventh'
p2411
I2450
sS'w-2=DEA'
p2412
I2003
sS'w+2=any'
p2413
I1280
sS'w-2=whose'
p2414
I2521
sS'w+2=abdomen'
p2415
I1258
sS'w-1=wear'
p2416
I1925
sS'conj=see'
p2417
I271
sS'w-2=small'
p2418
I2460
sS'dobj=list'
p2419
I424
sS'w-2=coalition'
p2420
I2242
sS'w-1=Abbas'
p2421
I1589
sS'dobj=a'
p2422
I370
sS'w-2=Nations'
p2423
I2109
sS'w+1=no'
p2424
I987
sS'w-2=Shah'
p2425
I2142
sS'nsubj=Perera'
p2426
I633
sS'w-2=conference'
p2427
I2249
sS'conj=involve'
p2428
I259
sS'nsubj=Americans'
p2429
I532
sS'tmod=#DATE#'
p2430
I868
sS'w-2=past'
p2431
I2391
sS'w-2=John'
p2432
I2064
sS'cop=be'
p2433
I276
sS'w-1=Haldea'
p2434
I1637
sS'w-2=arrive'
p2435
I2209
sS'w-2=she'
p2436
I2453
sS'w+2=socialism'
p2437
I1513
sS'w-2=scientist'
p2438
I2444
sS'w-1=Diamandis'
p2439
I1618
sS'w-2=resignation'
p2440
I2432
sS'w+2=again'
p2441
I1265
sS'w-2=minister'
p2442
I2360
sS'w+2=closed'
p2443
I1314
sS'w+2=nationalist'
p2444
I1431
sS'w-2=say'
p2445
I2443
sS'dobj=voyage'
p2446
I465
sS'w+2=Nigeria'
p2447
I1194
sS'prep=at'
p2448
I816
sS'nsubj=U.S.'
p2449
I661
sS'w+2=Lozes'
p2450
I1170
sS'nsubj=Panindiker'
p2451
I631
sS'conj=neck'
p2452
I264
sS'w-1=few'
p2453
I1784
sS'w+1=JI'
p2454
I900
sS'w-1=council'
p2455
I1751
sS'nsubj=Afghanistan'
p2456
I526
sS'w-2=but'
p2457
I2230
sS"w-1='"
p2458
I1572
sS'w-2=1,000'
p2459
I1942
sS'w-1=.'
p2460
I1579
sS'dobj=agency'
p2461
I371
sS'mark=although'
p2462
I476
sS'w-1=front'
p2463
I1793
sS'nsubj=Bartholomew'
p2464
I539
sS'w+2=Dube'
p2465
I1107
sS'w-2=Ian'
p2466
I2055
sS'poss=anybody'
p2467
I791
sS'dobj=violence'
p2468
I464
sS'w+2=Fortune'
p2469
I1123
sS'w+2=one'
p2470
I1446
sS'w+2=Baghdad'
p2471
I1068
sS'w+1=another'
p2472
I937
sS'w-2=Melanie'
p2473
I2097
sS'w-2=Dina'
p2474
I2014
sS'nn=U.N.'
p2475
I497
sS'nsubj=Daschle'
p2476
I560
sS'w-2=dress'
p2477
I2273
sS'ccomp=win'
p2478
I233
sS'nsubj=McCain'
p2479
I614
sS'w-1=a'
p2480
I1699
sS'w-2=Brown'
p2481
I1981
sS'w+2=Carana'
p2482
I1085
sS'dobj=crisis'
p2483
I400
sS'nsubjpass=which'
p2484
I759
sS'w-2=veteran'
p2485
I2508
sS'w+2=work'
p2486
I1569
sS'mark=as'
p2487
I477
sS'w-2=House'
p2488
I2052
sS'w+2=security'
p2489
I1500
sS'dobj=service'
p2490
I448
sS'ccomp=think'
p2491
I232
sS'w-1=Bee'
p2492
I1604
sS'w-1=Pasche'
p2493
I1669
sS'w+1=again'
p2494
I934
sS'w+2=Addis'
p2495
I1048
sS'advcl=study'
p2496
I20
sS'w-2=Abizaid'
p2497
I1952
sS'nn=readout'
p2498
I518
sS'w-2=son'
p2499
I2464
sS'w+1=hold'
p2500
I969
sS'w-1=Programs'
p2501
I1671
sS'w+2=al-Dulaimi'
p2502
I1269
sS'w-2=Kerk'
p2503
I2074
sS'w+2=Federal'
p2504
I1121
sS'w-2=Paradias'
p2505
I2122
sS'nsubj=Blase'
p2506
I544
sS'w+2=legislative'
p2507
I1407
sS'w-2=Ilan'
p2508
I2056
sS'nsubj=Samak'
p2509
I642
sS'w+2=then'
p2510
I1531
sS'amod=fellow'
p2511
I78
sS'amod=many'
p2512
I95
sS'w-1=enduring'
p2513
I1773
sS'dobj=bloodsucker'
p2514
I377
sS'poss=country'
p2515
I795
sS'w-1=200'
p2516
I1581
sS'w-1=association'
p2517
I1715
sS'w+2=stubbled'
p2518
I1520
sS'nsubj=position'
p2519
I707
sS'nsubj=Henderson'
p2520
I588
sS'w-1=Propeack'
p2521
I1672
sS'w+1=last'
p2522
I980
sS'dobj=Agency'
p2523
I326
sS'w-2=fourth'
p2524
I2310
sS'w-1=later'
p2525
I1823
sS'w+2=Committee'
p2526
I1093
sS'advmod=how'
p2527
I36
sS'w+1=U.N.'
p2528
I924
sS'nsubj=weapon'
p2529
I727
sS'advmod=out'
p2530
I45
sS'w+1=U.S.'
p2531
I925
sS'w-2=start'
p2532
I2468
sS'w+2=committee'
p2533
I1321
sS'w+1=after'
p2534
I933
sS'w-2=underway'
p2535
I2501
sS'w+1=Eric'
p2536
I893
sS'w-2=40'
p2537
I1944
sS'w+2=woman'
p2538
I1568
sS'w-1=we'
p2539
I1923
sS'w-1=include'
p2540
I1810
sS'w+2=Africa'
p2541
I1051
sS'w+2=?'
p2542
I1047
sS'dobj=Foundation'
p2543
I344
sS'advmod=later'
p2544
I38
sS'w-2=Taylor'
p2545
I2159
sS'w-1=Tray'
p2546
I1690
sS'w+2=.'
p2547
I1041
sS'w+1=election'
p2548
I958
sS'w+2=,'
p2549
I1038
sS'w+2=-'
p2550
I1039
sS'nsubjpass=program'
p2551
I753
sS'w-1=longest-serving'
p2552
I1827
sS'w-1=Sison'
p2553
I1683
sS'w+2=Turkey'
p2554
I1232
sS'w-2=engineer'
p2555
I2281
sS'dobj=way'
p2556
I466
sS'w+2=collapse'
p2557
I1316
sS'w+2=I'
p2558
I1142
sS'w+1=pickler'
p2559
I999
sS'w-2=Henderson'
p2560
I2047
sS'w-1=Ngudjolo'
p2561
I1663
sS'dobj=branch'
p2562
I379
sS'prt=down'
p2563
I846
sS'dobj=committee'
p2564
I391
sS'w+2=Vietnam'
p2565
I1242
sS'w+2=s'
p2566
I1497
sS'w+1=throughout'
p2567
I1021
sS'w-1=as'
p2568
I1714
sS'w-1=man'
p2569
I1829
sS'nn=I.M.F.'
p2570
I490
sS'nn=committee'
p2571
I504
sS'w-2=Delta'
p2572
I2008
sS'w+2=40'
p2573
I1046
sS'amod=embattled'
p2574
I76
sS'w+2=a'
p2575
I1257
sS'w+2=immigrant'
p2576
I1382
sS'w+2=Senate'
p2577
I1217
sS'w+2=anti-corruption'
p2578
I1278
ssS'dtype'
p2579
cnumpy
float64
p2580
sS'feature_names_'
p2581
(lp2582
g206
ag116
ag2392
ag671
ag560
ag796
ag885
ag616
ag1787
ag2359
ag1835
ag1255
ag1101
ag1866
ag528
ag213
ag1211
ag1440
ag1064
ag1080
ag2496
ag779
ag1112
ag1481
ag412
ag1040
ag2372
ag1494
ag2395
ag1068
ag699
ag1086
ag219
ag534
ag207
ag167
ag2527
ag134
ag2544
ag2232
ag1210
ag599
ag1546
ag1999
ag789
ag2530
ag140
ag1892
ag863
ag1138
ag1793
ag558
ag1184
ag1547
ag653
ag1003
ag2022
ag102
ag270
ag1515
ag181
ag1250
ag198
ag845
ag40
ag2173
ag2126
ag2281
ag223
ag834
ag1664
ag915
ag717
ag2329
ag677
ag123
ag2574
ag1795
ag2511
ag1852
ag410
ag1439
ag740
ag601
ag1653
ag287
ag1024
ag302
ag1821
ag211
ag1744
ag1885
ag566
ag1979
ag2080
ag2512
ag1774
ag372
ag2347
ag2378
ag791
ag1747
ag500
ag859
ag1533
ag1659
ag394
ag2309
ag1264
ag1583
ag882
ag415
ag588
ag44
ag728
ag162
ag2085
ag2255
ag113
ag1312
ag1072
ag2251
ag2132
ag466
ag526
ag1143
ag1766
ag2200
ag1953
ag100
ag1168
ag2064
ag682
ag622
ag1690
ag77
ag525
ag2171
ag551
ag450
ag1610
ag659
ag1864
ag1605
ag673
ag1604
ag133
ag1454
ag966
ag481
ag2196
ag17
ag541
ag1902
ag1648
ag2357
ag777
ag1340
ag1183
ag1935
ag1939
ag373
ag1693
ag1688
ag524
ag338
ag1517
ag556
ag317
ag2097
ag1689
ag1189
ag1736
ag1661
ag1373
ag1908
ag611
ag1568
ag1862
ag914
ag214
ag2170
ag1629
ag1657
ag1470
ag43
ag147
ag431
ag823
ag2122
ag1782
ag401
ag1504
ag2169
ag1846
ag1650
ag570
ag2354
ag1473
ag1386
ag1451
ag252
ag191
ag2336
ag1687
ag2319
ag531
ag1349
ag639
ag1879
ag1910
ag738
ag1152
ag1919
ag701
ag1984
ag564
ag1880
ag1645
ag2024
ag2325
ag1537
ag1697
ag1091
ag383
ag1922
ag1921
ag86
ag2152
ag1366
ag817
ag1096
ag2491
ag2478
ag1372
ag1856
ag367
ag1493
ag2384
ag400
ag200
ag174
ag2250
ag1901
ag1890
ag995
ag997
ag1161
ag1351
ag2239
ag1572
ag157
ag733
ag1460
ag1314
ag612
ag1584
ag1743
ag48
ag2428
ag64
ag499
ag860
ag1130
ag2452
ag1365
ag989
ag439
ag886
ag2041
ag1709
ag2417
ag957
ag947
ag1415
ag2332
ag2433
ag1063
ag160
ag1932
ag1535
ag1136
ag105
ag1737
ag489
ag1262
ag626
ag10
ag349
ag1158
ag2050
ag2001
ag2158
ag1401
ag2131
ag1278
ag1392
ag319
ag523
ag245
ag1311
ag1772
ag1249
ag1378
ag1097
ag2061
ag1225
ag1732
ag1819
ag460
ag1147
ag2140
ag1413
ag736
ag159
ag2036
ag977
ag1842
ag674
ag2352
ag16
ag240
ag314
ag815
ag459
ag549
ag2523
ag808
ag857
ag1628
ag2374
ag437
ag1987
ag1949
ag1021
ag614
ag2119
ag574
ag1606
ag690
ag838
ag869
ag2102
ag2337
ag2543
ag297
ag1961
ag1508
ag1083
ag1812
ag584
ag875
ag602
ag406
ag1943
ag2118
ag1808
ag2174
ag1387
ag2213
ag1959
ag1809
ag1654
ag2316
ag1574
ag129
ag763
ag1686
ag96
ag640
ag2422
ag2461
ag782
ag1115
ag2159
ag848
ag2373
ag2514
ag1727
ag2562
ag509
ag1156
ag361
ag1820
ag1731
ag2400
ag1034
ag1964
ag366
ag94
ag264
ag2564
ag271
ag34
ag1555
ag473
ag929
ag598
ag1557
ag1946
ag2483
ag1951
ag2401
ag1272
ag1598
ag685
ag700
ag1685
ag381
ag1061
ag2363
ag781
ag1483
ag1663
ag2393
ag25
ag1578
ag1322
ag1009
ag1855
ag658
ag430
ag503
ag1308
ag2419
ag2214
ag2377
ag1336
ag1516
ag195
ag1997
ag1291
ag1025
ag1975
ag632
ag660
ag843
ag597
ag627
ag1543
ag681
ag1139
ag866
ag1038
ag769
ag971
ag1304
ag502
ag2490
ag1848
ag1107
ag109
ag1666
ag688
ag471
ag1651
ag858
ag1350
ag991
ag732
ag2033
ag1037
ag2082
ag1381
ag2468
ag2446
ag2556
ag1728
ag787
ag1889
ag2272
ag1155
ag1724
ag1429
ag132
ag487
ag2462
ag2487
ag1983
ag2369
ag370
ag1290
ag631
ag2364
ag1098
ag804
ag1215
ag750
ag1456
ag1541
ag2570
ag1673
ag1674
ag2269
ag382
ag1607
ag2153
ag2475
ag2261
ag2141
ag2278
ag1393
ag1111
ag1888
ag2571
ag1861
ag1637
ag1316
ag1920
ag275
ag1056
ag1343
ag1123
ag285
ag1950
ag1106
ag2111
ag1004
ag2498
ag498
ag2375
ag76
ag56
ag217
ag66
ag332
ag2456
ag536
ag1242
ag46
ag1422
ag667
ag2429
ag1794
ag421
ag1330
ag2065
ag942
ag1603
ag2464
ag1813
ag1995
ag1342
ag1881
ag2506
ag1228
ag2397
ag1789
ag2143
ag694
ag379
ag2408
ag1858
ag912
ag476
ag426
ag563
ag708
ag1590
ag1427
ag2476
ag1988
ag1896
ag1878
ag591
ag987
ag1099
ag1140
ag721
ag772
ag553
ag1374
ag1966
ag1761
ag1915
ag902
ag58
ag1710
ag1680
ag290
ag1388
ag2106
ag1145
ag1396
ag1933
ag761
ag746
ag1752
ag2520
ag2069
ag189
ag1927
ag1725
ag704
ag1643
ag676
ag1544
ag2254
ag188
ag30
ag1055
ag826
ag396
ag2037
ag1805
ag1132
ag432
ag1286
ag1193
ag1750
ag1035
ag1069
ag2100
ag1224
ag2479
ag1512
ag444
ag2103
ag1624
ag101
ag318
ag117
ag220
ag1882
ag1542
ag1285
ag2301
ag1519
ag906
ag236
ag1611
ag2451
ag1235
ag2426
ag968
ag747
ag1972
ag1358
ag2063
ag2150
ag268
ag1579
ag2509
ag1883
ag1075
ag633
ag55
ag646
ag2295
ag1716
ag149
ag324
ag948
ag1441
ag265
ag872
ag2031
ag1631
ag2231
ag280
ag515
ag2449
ag2407
ag1088
ag1806
ag2410
ag1781
ag262
ag2164
ag1205
ag905
ag610
ag1639
ag104
ag518
ag41
ag1332
ag1105
ag433
ag2314
ag2012
ag348
ag1192
ag1695
ag234
ag350
ag2135
ag1582
ag1989
ag2344
ag362
ag1952
ag172
ag2265
ag786
ag2120
ag775
ag2388
ag678
ag156
ag506
ag621
ag63
ag1082
ag1929
ag1534
ag941
ag2519
ag277
ag2108
ag199
ag1007
ag1875
ag1559
ag1571
ag849
ag1354
ag2217
ag864
ag29
ag164
ag2371
ag1577
ag722
ag1053
ag1409
ag868
ag2529
ag1131
ag1464
ag2380
ag696
ag2021
ag1625
ag92
ag883
ag707
ag1085
ag2324
ag2178
ag810
ag1469
ag1041
ag1018
ag1222
ag670
ag2198
ag404
ag1699
ag221
ag1827
ag57
ag388
ag2551
ag418
ag661
ag1554
ag865
ag1845
ag2484
ag1062
ag2310
ag919
ag891
ag1208
ag1122
ag359
ag2368
ag1627
ag981
ag1907
ag179
ag1475
ag2279
ag458
ag1049
ag386
ag175
ag2176
ag2280
ag706
ag308
ag1764
ag1197
ag753
ag1406
ag1303
ag1575
ag74
ag2263
ag194
ag2467
ag278
ag1074
ag1740
ag2515
ag1015
ag1058
ag925
ag1536
ag1313
ag712
ag867
ag1379
ag474
ag1797
ag420
ag1307
ag340
ag737
ag254
ag1164
ag587
ag1399
ag1814
ag1891
ag2448
ag1148
ag1060
ag1914
ag1977
ag1457
ag1263
ag1898
ag604
ag2138
ag1257
ag1394
ag1077
ag2212
ag1753
ag2188
ag1756
ag855
ag821
ag535
ag1931
ag1243
ag1635
ag768
ag1042
ag1135
ag996
ag1636
ag1656
ag2218
ag2563
ag1261
ag2112
ag2051
ag1369
ag1490
ag205
ag1903
ag334
ag832
ag603
ag1593
ag1836
ag1791
ag994
ag2335
ag2290
ag1220
ag1032
ag2253
ag1094
ag825
ag2430
ag315
ag2327
ag578
ag992
ag1376
ag2073
ag1274
ag1362
ag1271
ag2379
ag1275
ag1714
ag1277
ag1280
ag226
ag1258
ag8
ag190
ag2182
ag944
ag1273
ag1870
ag1788
ag1721
ag2536
ag1067
ag1005
ag931
ag2394
ag2197
ag1500
ag2454
ag119
ag2194
ag2277
ag1711
ag127
ag1310
ag1000
ag2157
ag1325
ag1586
ag638
ag806
ag449
ag656
ag118
ag2025
ag1051
ag2101
ag1417
ag1923
ag307
ag1853
ag1256
ag2528
ag2531
ag495
ag405
ag1726
ag281
ag1292
ag445
ag582
ag2534
ag2494
ag2360
ag2038
ag2472
ag2027
ag1495
ag1497
ag429
ag2179
ag1811
ag1703
ag824
ag1701
ag1468
ag2045
ag935
ag130
ag1356
ag435
ag230
ag618
ag1296
ag569
ag965
ag2548
ag1022
ag2322
ag758
ag1223
ag141
ag1023
ag744
ag2075
ag228
ag1078
ag2500
ag2345
ag2181
ag440
ag958
ag267
ag861
ag1719
ag689
ag546
ag1560
ag2522
ag1748
ag1968
ag1556
ag464
ag921
ag1548
ag2424
ag792
ag2003
ag81
ag1986
ag807
ag83
ag2304
ag87
ag625
ag2246
ag986
ag2559
ag583
ag573
ag1046
ag2191
ag2376
ag985
ag1185
ag1259
ag2023
ag2221
ag2211
ag31
ag798
ag2338
ag548
ag620
ag680
ag121
ag654
ag1792
ag239
ag2567
ag952
ag1214
ag1899
ag595
ag2133
ag2252
ag1162
ag1306
ag1524
ag2406
ag1260
ag1163
ag1174
ag2149
ag2313
ag2341
ag2549
ag2550
ag727
ag2547
ag1008
ag2086
ag2083
ag1947
ag2573
ag2542
ag2495
ag97
ag1452
ag2541
ag1514
ag926
ag876
ag2074
ag300
ag805
ag1166
ag814
ag1665
ag1029
ag2210
ag1066
ag2134
ag2156
ag2287
ag1738
ag2471
ag1488
ag1044
ag1133
ag1467
ag983
ag1970
ag358
ag1108
ag1293
ag974
ag414
ag852
ag964
ag216
ag2362
ag1087
ag2482
ag1696
ag1462
ag2032
ag1019
ag1741
ag1141
ag2299
ag2526
ag1284
ag93
ag505
ag898
ag1268
ag438
ag2077
ag390
ag2165
ag2180
ag1385
ag1706
ag243
ag2465
ag833
ag1416
ag78
ag2151
ag1169
ag835
ag1287
ag2040
ag1050
ag630
ag148
ag1014
ag2307
ag2504
ag1129
ag2469
ag161
ag2399
ag107
ag2110
ag2259
ag1798
ag1319
ag60
ag555
ag2390
ag1838
ag376
ag1602
ag2224
ag2273
ag953
ag103
ag1751
ag2558
ag2294
ag2160
ag1442
ag2208
ag978
ag1187
ag1182
ag301
ag80
ag907
ag615
ag1157
ag836
ag961
ag501
ag1599
ag878
ag1142
ag1294
ag375
ag1297
ag1039
ag238
ag645
ag547
ag889
ag1433
ag2450
ag1305
ag1267
ag911
ag2297
ag1395
ag565
ag2067
ag2099
ag1916
ag2057
ag2078
ag559
ag1048
ag1270
ag2381
ag33
ag1434
ag1940
ag1841
ag1043
ag408
ag291
ag2223
ag2447
ag2405
ag504
ag820
ag305
ag2002
ag2386
ag2030
ag2234
ag197
ag1026
ag1383
ag1762
ag734
ag1655
ag1331
ag227
ag1117
ag629
ag662
ag273
ag2305
ag1712
ag2577
ag1092
ag842
ag1592
ag1333
ag1619
ag2300
ag436
ag1912
ag1873
ag486
ag2071
ag1652
ag1642
ag1552
ag2554
ag1010
ag1252
ag456
ag455
ag1834
ag1682
ag1196
ag1900
ag2186
ag2565
ag1823
ag538
ag1458
ag972
ag568
ag1200
ag1209
ag1810
ag13
ag18
ag1868
ag1828
ag2207
ag1052
ag2575
ag2415
ag1895
ag1150
ag1958
ag892
ag1149
ag398
ag2441
ag516
ag2187
ag218
ag2502
ag1640
ag592
ag880
ag1597
ag1390
ag1775
ag755
ag2274
ag2578
ag90
ag2413
ag725
ag513
ag956
ag1437
ag2145
ag2144
ag294
ag1126
ag936
ag2014
ag242
ag336
ag416
ag2296
ag818
ag2062
ag1239
ag1704
ag253
ag679
ag49
ag2010
ag634
ag617
ag641
ag2318
ag2044
ag809
ag1402
ag2190
ag1676
ag1679
ag1722
ag2443
ag2201
ag2557
ag890
ag2035
ag1309
ag1778
ag2533
ag1443
ag1146
ag1419
ag2042
ag1694
ag1355
ag1769
ag193
ag494
ag1254
ag154
ag586
ag402
ag392
ag1194
ag1492
ag1477
ag1857
ag550
ag812
ag993
ag2113
ag647
ag224
ag1767
ag729
ag247
ag67
ag2240
ag1955
ag644
ag2184
ag1790
ag1718
ag1860
ag357
ag1502
ag283
ag959
ag326
ag780
ag561
ag186
ag321
ag2226
ag2235
ag266
ag567
ag2350
ag1589
ag2271
ag54
ag1526
ag954
ag1833
ag168
ag330
ag1279
ag581
ag2175
ag2576
ag797
ag730
ag913
ag73
ag478
ag1326
ag652
ag928
ag1295
ag138
ag1159
ag1801
ag1799
ag1466
ag1230
ag1028
ag1065
ag1375
ag182
ag1116
ag286
ag1831
ag2285
ag1282
ag2507
ag1886
ag2293
ag451
ag263
ag613
ag2147
ag1677
ag1236
ag447
ag2227
ag930
ag71
ag385
ag687
ag649
ag397
ag1780
ag850
ag2094
ag293
ag1621
ag636
ag452
ag2444
ag1269
ag1241
ag2298
ag378
ag251
ag28
ag1872
ag982
ag150
ag2202
ag2315
ag703
ag2205
ag384
ag2470
ag1348
ag1917
ag2366
ag20
ag770
ag609
ag520
ag1011
ag879
ag934
ag2349
ag856
ag2087
ag1715
ag2356
ag693
ag2167
ag2284
ag1683
ag2249
ag1213
ag1204
ag202
ag749
ag784
ag22
ag176
ag642
ag1345
ag2019
ag1893
ag1414
ag1757
ag666
ag544
ag303
ag710
ag2262
ag463
ag19
ag2177
ag793
ag1678
ag726
ag600
ag998
ag1144
ag1165
ag831
ag1620
ag2566
ag1170
ag920
ag2489
ag196
ag1978
ag2005
ag327
ag363
ag1412
ag114
ag2081
ag173
ag1172
ag453
ag470
ag2437
ag1436
ag675
ag183
ag2096
ag2391
ag894
ag2518
ag785
ag1391
ag306
ag407
ag887
ag1646
ag1006
ag1771
ag1884
ag365
ag2510
ag2054
ag2142
ag1558
ag355
ag990
ag441
ag813
ag488
ag2114
ag1302
ag115
ag231
ag751
ag1684
ag1151
ag884
ag1248
ag2125
ag1153
ag1934
ag896
ag468
ag1418
ag465
ag790
ag469
ag480
ag2306
ag2270
ag1510
ag1992
ag187
ag1119
ag1368
ag1807
ag1867
ag2538
ag2486
ag1380
ag108
ag2458
ag1561
ag739
ag1539
ag1948
ag1945
ag575
ag2460
ag853
ag2516
ag496
ag1283
ag1384
ag490
ag1563
ag2088
ag1449
ag2421
ag443
ag933
ag1100
ag2084
ag800
ag492
ag304
ag2241
ag1198
ag1911
ag1059
ag1030
ag37
ag1323
ag2492
ag683
ag1981
ag904
ag1894
ag36
ag2220
ag2047
ag2355
ag1622
ag851
ag1364
ag711
ag1758
ag2439
ag590
ag1540
ag171
ag829
ag1461
ag53
ag844
ag2128
ag1707
ag771
ag328
ag2351
ag1154
ag1482
ag244
ag741
ag1421
ag409
ag2434
ag1770
ag2204
ag2105
ag1397
ag2237
ag1545
ag15
ag922
ag2124
ag47
ag1839
ag337
ag2288
ag419
ag510
ag2257
ag940
ag684
ag519
ag1484
ag1702
ag899
ag767
ag2049
ag1662
ag2561
ag702
ag2056
ag1937
ag1990
ag1446
ag2493
ag21
ag2501
ag2521
ag2348
ag1913
ag716
ag766
ag1906
ag2017
ag2404
ag841
ag491
ag1965
ag2553
ag1596
ag1698
ag2330
ag1720
ag1924
ag1528
ag2546
ag50
ag2018
ag1237
ag1084
ag1509
ag557
ag343
ag705
ag2480
ag596
ag1300
ag1321
ag1681
ag1785
ag1176
ag345
ag605
ag1829
ag2163
ag2353
ag545
ag2387
ag299
ag2568
ag2517
ag1405
ag1410
ag1017
ag1974
ag1203
ag1850
ag1742
ag2248
ag1102
ag508
ag69
ag461
ag2116
ag32
ag2340
ag1971
ag742
ag1505
ag1431
ag477
ag178
ag881
ag672
ag323
ag1438
ag2068
ag446
ag903
ag932
ag2267
ag1120
ag351
ag2382
ag1109
ag106
ag2455
ag2286
ag2115
ag2233
ag1499
ag1976
ag917
ag1691
ag1338
ag1660
ag2403
ag35
ag1444
ag1227
ag339
ag2011
ag776
ag1424
ag88
ag619
ag1615
ag344
ag2513
ag241
ag260
ag1796
ag1776
ag2172
ag718
ag606
ag943
ag1341
ag1713
ag2453
ag2043
ag403
ag1352
ag1609
ag1134
ag259
ag735
ag2007
ag2463
ag2326
ag131
ag42
ag765
ag369
ag778
ag743
ag482
ag1754
ag1219
ag2155
ag111
ag669
ag1232
ag540
ag1432
ag2540
ag1363
ag1073
ag1353
ag62
ag533
ag1423
ag312
ag1361
ag1231
ag1670
ag1408
ag1036
ag2525
ag1298
ag1511
ag313
ag2552
ag2109
ag2569
ag1450
ag354
ag1936
ag246
ag910
ag1265
ag2121
ag434
ag52
ag128
ag2282
ag1573
ag68
ag764
ag1905
ag1904
ag1859
ag1784
ag2148
ag1527
ag364
ag1818
ag269
ag1403
ag2076
ag2189
ag255
ag2162
ag1800
ag1854
ag177
ag27
ag1739
ag341
ag1476
ag497
ag874
ag1171
ag1735
ag422
ag1251
ag250
ag692
ag1569
ag1079
ag1626
ag1985
ag2396
ag1093
ag589
ag893
ag371
ag756
ag462
ag1994
ag539
ag2225
ag163
ag2098
ag472
ag428
ag2034
ag1367
ag773
ag1954
ag1804
ag1398
ag399
ag1335
ag11
ag1299
ag938
ag757
ag572
ag2317
ag1513
ag203
ag2137
ag204
ag1180
ag1617
ag2107
ag1382
ag1982
ag2229
ag762
ag2264
ag2320
ag1245
ag212
ag1960
ag1580
ag698
ag2539
ag2117
ag2416
ag125
ag870
ag2000
ag1538
ag2006
ag61
ag877
ag828
ag1327
ag110
ag479
ag1576
ag1601
ag1177
ag1178
ag1179
ag2459
ag225
ag2537
ag2333
ag1529
ag1188
ag1938
ag2230
ag232
ag1128
ag2497
ag871
ag579
ag1671
ag1234
ag483
ag139
ag1532
ag1918
ag819
ag1089
ag233
ag643
ag1926
ag1081
ag748
ag1530
ag1837
ag594
ag918
ag1632
ag2216
ag939
ag655
ag126
ag924
ag822
ag257
ag1447
ag2481
ag2192
ag1847
ag2161
ag1498
ag347
ag2238
ag714
ag2383
ag346
ag9
ag2070
ag2258
ag1531
ag908
ag1595
ag1233
ag2046
ag713
ag1830
ag895
ag258
ag2412
ag1175
ag1521
ag2275
ag2292
ag2572
ag788
ag59
ag1944
ag1229
ag803
ag2474
ag571
ag1090
ag1289
ag1705
ag1633
ag937
ag122
ag517
ag1201
ag585
ag1723
ag723
ag1817
ag2206
ag1520
ag2095
ag1746
ag24
ag467
ag960
ag1246
ag999
ag352
ag282
ag284
ag411
ag1212
ag457
ag23
ag2289
ag759
ag901
ag2560
ag2260
ag2013
ag333
ag1618
ag2488
ag2244
ag1288
ag2466
ag2508
ag1700
ag1071
ag2256
ag353
ag153
ag1565
ag142
ag2432
ag1658
ag2004
ag2168
ag85
ag1377
ag2089
ag827
ag2323
ag1843
ag2503
ag1549
ag946
ag2209
ag522
ag1020
ag1465
ag235
ag169
ag274
ag152
ag1641
ag1869
ag1487
ag413
ag1729
ag1587
ag1612
ag2008
ag580
ag2367
ag1783
ag1125
ag2473
ag454
ag38
ag1315
ag1181
ag2139
ag1244
ag731
ag215
ag2093
ag14
ag1669
ag2423
ag1518
ag664
ag256
ag1957
ag51
ag2311
ag1479
ag1623
ag391
ag1370
ag2228
ag1247
ag2505
ag2242
ag143
ag2343
ag1420
ag2154
ag1137
ag984
ag839
ag1647
ag1199
ag514
ag1634
ag1253
ag1967
ag1614
ag417
ag663
ag2193
ag637
ag2425
ag1013
ag1054
ag2358
ag95
ag2055
ag180
ag12
ag325
ag1195
ag423
ag1124
ag72
ag651
ag1344
ag2219
ag374
ag2545
ag799
ag279
ag484
ag222
ag2029
ag2146
ag248
ag289
ag1121
ag542
ag329
ag1876
ag2092
ag1851
ag1551
ag1877
ag720
ag650
ag951
ag760
ag1608
ag1207
ag783
ag577
ag158
ag2091
ag1930
ag794
ag657
ag950
ag1501
ag2409
ag1998
ag184
ag2127
ag512
ag2398
ag2346
ag537
ag356
ag945
ag2302
ag1371
ag511
ag1585
ag1496
ag2370
ag1485
ag2365
ag2435
ag1825
ag360
ag1070
ag1824
ag1489
ag1320
ag1525
ag1428
ag1318
ag1550
ag1455
ag1672
ag393
ag691
ag208
ag1430
ag2026
ag2048
ag322
ag816
ag2457
ag2389
ag1925
ag1033
ag623
ag576
ag1755
ag1840
ag2222
ag320
ag135
ag331
ag2420
ag969
ag709
ag1588
ag1240
ag192
ag1763
ag2427
ag745
ag1765
ag144
ag543
ag752
ag170
ag2058
ag955
ag2129
ag1768
ag209
ag310
ag309
ag2020
ag949
ag909
ag1594
ag1103
ag1360
ag1334
ag1973
ag1802
ag237
ag2477
ag628
ag529
ag873
ag1928
ag151
ag1675
ag2321
ag2555
ag635
ag377
ag608
ag261
ag802
ag210
ag1202
ag1266
ag1941
ag2236
ag2247
ag1346
ag1897
ag1045
ag1104
ag288
ag1865
ag276
ag975
ag272
ag1001
ag2215
ag1389
ag1909
ag485
ag2104
ag695
ag1962
ag2524
ag846
ag292
ag1777
ag1980
ag1426
ag1301
ag1474
ag2016
ag1407
ag395
ag1553
ag425
ag532
ag1031
ag715
ag837
ag2185
ag1472
ag1226
ag65
ag1281
ag754
ag2283
ag1849
ag427
ag98
ag970
ag923
ag2303
ag888
ag2052
ag1507
ag380
ag2268
ag2123
ag1160
ag136
ag1826
ag448
ag1963
ag342
ag973
ag862
ag1567
ag1217
ag719
ag1832
ag1411
ag1221
ag2442
ag2195
ag1786
ag1113
ag1570
ag1276
ag916
ag1118
ag298
ag2291
ag552
ag1874
ag1173
ag530
ag1815
ag1816
ag1127
ag1734
ag1581
ag1708
ag1506
ag1471
ag2203
ag554
ag1667
ag1463
ag155
ag1453
ag1425
ag1844
ag1730
ag2431
ag1329
ag801
ag980
ag774
ag2331
ag1238
ag39
ag2312
ag1480
ag1668
ag2039
ag2136
ag1002
ag976
ag89
ag2328
ag1491
ag1871
ag2266
ag967
ag2009
ag146
ag424
ag2028
ag1996
ag1191
ag1218
ag854
ag249
ag1047
ag475
ag2402
ag1733
ag979
ag1562
ag2245
ag1435
ag442
ag527
ag900
ag2440
ag2361
ag1404
ag665
ag648
ag724
ag368
ag2079
ag26
ag2166
ag1328
ag2445
ag2438
ag91
ag1717
ag1016
ag1216
ag1822
ag2411
ag795
ag988
ag2436
ag962
ag1969
ag1745
ag840
ag2090
ag1317
ag2418
ag493
ag963
ag1186
ag2499
ag1114
ag2053
ag2385
ag2532
ag2334
ag830
ag1649
ag45
ag1110
ag2339
ag1523
ag1347
ag1616
ag1027
ag1339
ag1991
ag2199
ag897
ag927
ag124
ag120
ag1638
ag1591
ag1942
ag1190
ag296
ag70
ag1459
ag1566
ag521
ag562
ag1076
ag387
ag1167
ag2015
ag229
ag2535
ag99
ag1012
ag295
ag2066
ag1613
ag1359
ag2485
ag1692
ag1337
ag1445
ag1779
ag2059
ag1503
ag507
ag2342
ag75
ag1630
ag686
ag79
ag2414
ag389
ag1803
ag1600
ag145
ag1478
ag2183
ag2072
ag335
ag1486
ag1206
ag82
ag1357
ag84
ag2060
ag1749
ag1644
ag607
ag185
ag1863
ag316
ag593
ag1522
ag1773
ag1760
ag811
ag112
ag137
ag668
ag201
ag1759
ag2243
ag2130
ag311
ag1095
ag1956
ag2276
ag697
ag165
ag1400
ag847
ag1448
ag1887
ag1993
ag166
ag2308
ag1057
ag624
ag1324
ag1564
asS'separator'
p2583
S'='
sS'sparse'
p2584
I01
sb.