ccopy_reg
_reconstructor
p1
(csklearn.feature_extraction.dict_vectorizer
DictVectorizer
p2
c__builtin__
object
p3
NtRp4
(dp5
S'vocabulary_'
p6
(dp7
S'advmod=then'
p8
I19
sS'w-2=artificial'
p9
I610
sS'w+1=sentence'
p10
I277
sS'w-2=billion'
p11
I616
sS'w-2=plight'
p12
I694
sS'advmod=more'
p13
I14
sS'xcomp=travel'
p14
I753
sS'w-2=eye'
p15
I644
sS'advmod=quite'
p16
I15
sS'w-1=evening'
p17
I491
sS'w-2=sensitivity'
p18
I708
sS'w-1=Ning'
p19
I463
sS'w+2=my'
p20
I397
sS'amod=natural'
p21
I45
sS'amod=northern'
p22
I47
sS'w-1=same'
p23
I548
sS'w-2=sky'
p24
I715
sS'w-2=arm'
p25
I608
sS'w-1=approach'
p26
I470
sS'w-1=fight'
p27
I496
sS'w-1=tremendous'
p28
I572
sS'w-1=city'
p29
I481
sS'w+1=bulb'
p30
I225
sS'w+2=use'
p31
I440
sS'nn=Laser'
p32
I127
sS'w+1=therapy'
p33
I285
sS'w-1=import'
p34
I512
sS'w-1=ibf'
p35
I511
sS'w-2=they'
p36
I726
sS'w-2=rice'
p37
I702
sS'w+2=shake'
p38
I420
sS'w-2=country'
p39
I633
sS'dep=emit'
p40
I96
sS'w+1=that'
p41
I283
sS'w-2=catch'
p42
I625
sS'dobj=world'
p43
I120
sS'nsubj=concern'
p44
I142
sS'dobj=bonfire'
p45
I107
sS'amod=conventional'
p46
I28
sS'w+2=continue'
p47
I349
sS'w+2=child'
p48
I344
sS'w+1=year'
p49
I306
sS'w-2=City'
p50
I591
sS'w-1=new'
p51
I527
sS'w-2=sentence'
p52
I709
sS'dep=red'
p53
I98
sS'w+2=hang'
p54
I372
sS'w+2=hand'
p55
I371
sS'prep=follow'
p56
I175
sS'w+1=only'
p57
I267
sS'w+2=peace'
p58
I410
sS'w-2=refrigerator'
p59
I699
sS'prep=upon'
p60
I186
sS'advmod=truly'
p61
I21
sS'w+2=tree'
p62
I436
sS'w-1=will'
p63
I580
sS'nsubj=eye'
p64
I144
sS'w+2=night'
p65
I400
sS'w-1=efficient'
p66
I486
sS'w-1=brewing'
p67
I475
sS'w-1=by'
p68
I479
sS'w-1=keep'
p69
I516
sS'w-1=be'
p70
I472
sS'w-1=put'
p71
I540
sS'advcl=see'
p72
I4
sS'prep=behind'
p73
I173
sS'w+2=sell'
p74
I418
sS'amod=glitter'
p75
I39
sS'w+1=touch'
p76
I289
sS'nsubj=#PRP#'
p77
I139
sS'nsubj=attendance'
p78
I141
sS'w-2=controversial'
p79
I632
sS'w-1=five'
p80
I499
sS'rcmod=show'
p81
I193
sS'w-1=stay'
p82
I557
sS'amod=green'
p83
I42
sS'w+1=of'
p84
I263
sS'w+1=beacon'
p85
I219
sS'w+2=to'
p86
I433
sS'w+1=on'
p87
I265
sS'w+2=cause'
p88
I342
sS'w-2=blinding'
p89
I618
sS'w+2=last'
p90
I388
sS'rcmod=turn'
p91
I195
sS'w-1=portable'
p92
I533
sS'w-1=some'
p93
I554
sS'amod=fresh'
p94
I36
sS'w-1=its'
p95
I515
sS'w-1=have'
p96
I509
sS'w-2=flash'
p97
I647
sS'w+2=for'
p98
I365
sS'w-2=fully-functioning'
p99
I653
sS'w+2=in'
p100
I379
sS'w+2=what'
p101
I444
sS'w+2=it'
p102
I383
sS'w-1=good'
p103
I506
sS'w-1=tail'
p104
I561
sS'w-1=solar-powered'
p105
I553
sS'w+2=who'
p106
I447
sS'w-1=possible'
p107
I535
sS'w+1=district'
p108
I235
sS'prep=about'
p109
I169
sS'aux=can'
p110
I69
sS'complm=that'
p111
I77
sS'w+1=box'
p112
I224
sS'nsubj=partner'
p113
I148
sS'nsubj=medal'
p114
I147
sS'w+1=truck'
p115
I290
sS'w-1=filament'
p116
I497
sS'poss=America'
p117
I167
sS'w-1=public'
p118
I539
sS'w+2=world'
p119
I449
sS'w+1=five'
p120
I242
sS'w-1=from'
p121
I503
sS'w-1=convert'
p122
I484
sS'w-2=history'
p123
I660
sS'w-1=more'
p124
I524
sS'w+2=by'
p125
I337
sS'w+1=the'
p126
I284
sS'w+1=vehicle'
p127
I294
sS'w+2=living'
p128
I389
sS'w-2=for'
p129
I651
sS'w+2=be'
p130
I335
sS'w-2=stop'
p131
I720
sS'w-2=wood'
p132
I747
sS'w-1=let'
p133
I518
sS'appos=beholder'
p134
I61
sS'w-2=blacken'
p135
I617
sS'nsubjpass=#PRP#'
p136
I157
sS'w-2=out'
p137
I690
sS'advmod=too'
p138
I20
sS'prep=in'
p139
I178
sS'conj=display'
p140
I80
sS'w-2=misconduct'
p141
I674
sS'w+1=for'
p142
I246
sS'w-1=positive'
p143
I534
sS'w-1=see'
p144
I550
sS'conj=situation'
p145
I89
sS'w+1=arm'
p146
I214
sS'w-2=Manhattan'
p147
I595
sS'nsubjpass=block'
p148
I158
sS'prep=to'
p149
I183
sS'w+2=championship'
p150
I343
sS'w+2=come'
p151
I346
sS'advmod=ago'
p152
I6
sS'w-2=priority'
p153
I696
sS'w+1=and'
p154
I213
sS'w+2=Bole'
p155
I316
sS'dep=writings'
p156
I100
sS'w-1=fire'
p157
I498
sS'w+2=how'
p158
I375
sS'w-1=incandescent'
p159
I514
sS'dobj=candle'
p160
I110
sS'cop=remain'
p161
I93
sS'dobj=more'
p162
I113
sS'w-1=energy-efficient'
p163
I488
sS'amod=great'
p164
I41
sS'w-2=duel'
p165
I637
sS'w-1=rather'
p166
I542
sS'advmod=enough'
p167
I10
sS'w+1=Weapons'
p168
I204
sS'nn=Christmas'
p169
I126
sS'w+2=even'
p170
I360
sS'w-2=ban'
p171
I613
sS'w+1=inside'
p172
I254
sS'nsubj=little'
p173
I146
sS'w-1=restore'
p174
I547
sS'det=this'
p175
I105
sS'dobj=which'
p176
I119
sS'w+1=wind'
p177
I302
sS'infmod=negotiate'
p178
I124
sS'w-1=colorful'
p179
I482
sS'w+2=we'
p180
I442
sS'xcomp=say'
p181
I752
sS'w+2=energy-saving'
p182
I359
sS'w-1=red'
p183
I543
sS'w-1=Laser'
p184
I462
sS'advmod=likely'
p185
I12
sS'amod=positive'
p186
I48
sS'w-2=confirm'
p187
I629
sS'conj=eye'
p188
I81
sS'w+2=power'
p189
I412
sS'dep=star'
p190
I99
sS'w-2=into'
p191
I665
sS'w+2=now'
p192
I403
sS'w+2=not'
p193
I402
sS'nsubj=traffic'
p194
I154
sS'w+2=day'
p195
I353
sS'w+2=diversity'
p196
I358
sS'w+1=off'
p197
I264
sS'advmod=relatively'
p198
I17
sS'w+2=128'
p199
I312
sS'w+2=when'
p200
I445
sS'w-2=take'
p201
I721
sS'rcmod=be'
p202
I189
sS'appos=burning'
p203
I62
sS'w+1=have'
p204
I250
sS'w-2=virus'
p205
I739
sS'w-1=unflattering'
p206
I575
sS'det=the'
p207
I104
sS'w+2=surgical'
p208
I426
sS'w-1=television'
p209
I563
sS'conj=night'
p210
I86
sS'w-2=feel'
p211
I646
sS'w-2=ago'
p212
I602
sS'w-2=use'
p213
I738
sS'prep=include'
p214
I179
sS'w+1=behind'
p215
I221
sS'w+2=where'
p216
I446
sS'w-2=House'
p217
I593
sS'w-2=of'
p218
I684
sS'w+1=work'
p219
I305
sS'w+1=can'
p220
I227
sS'amod=colorful'
p221
I27
sS'w-2=energy'
p222
I640
sS'nn=traffic'
p223
I138
sS'w+2=security'
p224
I417
sS'w-2=around'
p225
I609
sS'w-2=name'
p226
I681
sS'w-2=kind'
p227
I668
sS'w+2=more'
p228
I395
sS'w+2=eye'
p229
I361
sS'dobj=#PRP#'
p230
I106
sS'w-2=do'
p231
I636
sS'w-2=these'
p232
I725
sS'w-1=energy-saving'
p233
I489
sS'w+1=upon'
p234
I292
sS'w+2=Seoul'
p235
I322
sS'w+2=Uganda'
p236
I324
sS'w+1=you'
p237
I307
sS'w-2=about'
p238
I599
sS'w+1=room'
p239
I274
sS'w-1=unusually'
p240
I576
sS'w-2=Li'
p241
I594
sS'amod=tremendous'
p242
I55
sS'dobj=this'
p243
I116
sS'w-2=renegotiate'
p244
I700
sS'w-2=tree'
p245
I733
sS'partmod=use'
p246
I165
sS'w+2=can'
p247
I338
sS'prep=over'
p248
I182
sS'w+1=as'
p249
I215
sS'w+1=pollution'
p250
I269
sS'w+2=action'
p251
I326
sS'nsubj=project'
p252
I150
sS'w-2=like'
p253
I670
sS'conj=cavalcade'
p254
I78
sS'w+2=circulate'
p255
I345
sS'w+2=all'
p256
I328
sS'w-1=relatively'
p257
I544
sS'w+2=under'
p258
I439
sS'w-2=efficiency'
p259
I638
sS'w+1=skinned'
p260
I279
sS'nn=tail'
p261
I136
sS'w-1=eternal'
p262
I490
sS'nn=sun'
p263
I134
sS'w-2=electricity'
p264
I639
sS'nsubjpass=street'
p265
I160
sS'prt=up'
p266
I188
sS'advmod=unusually'
p267
I22
sS'w-1=my'
p268
I525
sS'appos=crude'
p269
I63
sS'w+1=through'
p270
I287
sS'w-2=wrong'
p271
I748
sS'det=some'
p272
I103
sS'w-1=with'
p273
I581
sS'w-2=ceremony'
p274
I626
sS'conj=power'
p275
I88
sS'w+1=where'
p276
I299
sS'w-2=amount'
p277
I605
sS'w+2=fluorescent'
p278
I364
sS'w-1=quite'
p279
I541
sS'advmod=when'
p280
I24
sS'w+1=weapon'
p281
I296
sS'w-2=operate'
p282
I688
sS'w+2=prove'
p283
I413
sS'w-1=southern'
p284
I556
sS'w-1=470'
p285
I459
sS'w-2=she'
p286
I710
sS'prep=for'
p287
I176
sS'w-2=turn'
p288
I734
sS'w-2=son'
p289
I718
sS'w-1=night'
p290
I528
sS'w+1=industrial'
p291
I253
sS'w+2=at'
p292
I333
sS'w+1=manufacturing'
p293
I259
sS'w+2=60'
p294
I315
sS'w+2=as'
p295
I332
sS'w+1=--'
p296
I199
sS'w-2=U.S.'
p297
I596
sS'w-1=in'
p298
I513
sS'amod=fully-functioning'
p299
I38
sS'w-2=monastery'
p300
I676
sS'auxpass=be'
p301
I74
sS'w-1=natural'
p302
I526
sS'w-2=with'
p303
I746
sS'w-2=eventually'
p304
I642
sS'w+2=media'
p305
I393
sS'w+2=after'
p306
I327
sS'w+1=Wednesday'
p307
I205
sS'dobj=torch'
p308
I117
sS'w+1=use'
p309
I293
sS'w+1=cycle'
p310
I233
sS'nsubjpass=tree'
p311
I161
sS'w+2=maybe'
p312
I392
sS'w-1=Bibek'
p313
I460
sS'w+2=say'
p314
I416
sS'w-2=curb'
p315
I635
sS'w-2=hand'
p316
I656
sS'w-2=mine'
p317
I673
sS'w-2=ornament'
p318
I689
sS'w+1=impair'
p319
I251
sS'rcmod=come'
p320
I190
sS'w-2=Hall'
p321
I592
sS'dobj=cauldron'
p322
I111
sS'advmod=maybe'
p323
I13
sS'w+1=speed'
p324
I281
sS'w+1=back'
p325
I217
sS'w+2=with'
p326
I448
sS'w+2=move'
p327
I396
sS"w-1=''"
p328
I453
sS'w+1=element'
p329
I237
sS'w-2=year'
p330
I749
sS'w-2=up'
p331
I737
sS'w-2=those'
p332
I728
sS'w+2=indicate'
p333
I380
sS'w-1=the'
p334
I565
sS'tmod=night'
p335
I196
sS'w-1=remain'
p336
I545
sS'w+2=several'
p337
I419
sS'w+2=public'
p338
I414
sS'xcomp=indicate'
p339
I751
sS'w+2=year'
p340
I452
sS'w-1=project'
p341
I536
sS'w-2=off'
p342
I685
sS'w-1=metropolitan'
p343
I521
sS'w-2=allow'
p344
I603
sS'w+2=or'
p345
I407
sS'dobj=pyre'
p346
I115
sS'w+1=flyweight'
p347
I244
sS'w+2=of'
p348
I404
sS'w-2=muslim'
p349
I679
sS'w+2=on'
p350
I405
sS'w+1=to'
p351
I288
sS'w-2=keep'
p352
I667
sS'amod=same'
p353
I52
sS'w-1=eye'
p354
I494
sS'w+2=he'
p355
I373
sS'w+2=make'
p356
I390
sS'det=any'
p357
I102
sS'advmod=very'
p358
I23
sS'prep=with'
p359
I187
sS'w-2=bring'
p360
I620
sS'w+1=poor'
p361
I270
sS'w-2=modern'
p362
I675
sS'w+2=just'
p363
I386
sS'w+2=grow'
p364
I370
sS'w+2=heat'
p365
I374
sS'w-2=there'
p366
I724
sS'w-1=...'
p367
I458
sS'w-2=put'
p368
I698
sS'w+2=supplies'
p369
I425
sS'w-1=excess'
p370
I492
sS'nsubj=pope'
p371
I149
sS'w+1=emit'
p372
I239
sS'w+2=comedy'
p373
I347
sS'w-2=must'
p374
I680
sS'nsubj=screen'
p375
I153
sS'nn=U.S.'
p376
I128
sS"w-2='s"
p377
I586
sS'w+2=lack'
p378
I387
sS'w-2=send'
p379
I707
sS'w-2=instead'
p380
I664
sS'w+2=travel'
p381
I435
sS'w-2=no'
p382
I682
sS'w+1=emission'
p383
I238
sS'w-2=partner'
p384
I692
sS'w+1=show'
p385
I278
sS'amod=extreme'
p386
I33
sS'w-1=truly'
p387
I573
sS'conj=illuminate'
p388
I83
sS'w+1=because'
p389
I220
sS'w-2=.'
p390
I588
sS'appos=signal'
p391
I66
sS'w+1=say'
p392
I276
sS'dep=Department'
p393
I94
sS'w+1=over'
p394
I268
sS'w-2=fair'
p395
I645
sS'w+2=those'
p396
I432
sS'w+2=people'
p397
I411
sS'w-2=likely'
p398
I671
sS'amod=eternal'
p399
I31
sS'w+2=this'
p400
I431
sS'w+2=sweet'
p401
I427
sS'amod=white'
p402
I59
sS'prep=up'
p403
I185
sS'amod=little'
p404
I43
sS'w+2=computer'
p405
I348
sS'w+2=funeral'
p406
I366
sS'w-2=which'
p407
I742
sS'w+2=thick'
p408
I430
sS'w+1=candle'
p409
I228
sS'dep=championship'
p410
I95
sS'prep=until'
p411
I184
sS'w-2=music'
p412
I678
sS'amod=good'
p413
I40
sS'w-2=this'
p414
I727
sS'poss=city'
p415
I168
sS'w+1=hand'
p416
I249
sS'w-2=million'
p417
I672
sS'w+2=24'
p418
I314
sS'w-2=expect'
p419
I643
sS'w+1=could'
p420
I232
sS'w-1=they'
p421
I567
sS'amod=new'
p422
I46
sS'w+2=over'
p423
I409
sS'w+1=welterweight'
p424
I298
sS'w+1=rain'
p425
I272
sS'w-1=flash'
p426
I500
sS'w-2=also'
p427
I604
sS'aux=will'
p428
I73
sS'nsubj=fire'
p429
I145
sS'w-1=shine'
p430
I552
sS'w+2=giant'
p431
I369
sS'w+2=many'
p432
I391
sS'amod=blue'
p433
I25
sS'w+2=new'
p434
I399
sS'w+2=mine'
p435
I394
sS'expl=there'
p436
I121
sS'amod=different'
p437
I29
sS'w-1=against'
p438
I466
sS'w+2=another'
p439
I331
sS'amod=ultraviolet'
p440
I56
sS'cc=or'
p441
I76
sS'w-2=criticize'
p442
I634
sS'nsubj=workload'
p443
I156
sS'w+2=its'
p444
I384
sS'amod=yellow'
p445
I60
sS'w+1=line'
p446
I258
sS'w-2=especially'
p447
I641
sS'w-2=in'
p448
I662
sS'w-2=shed'
p449
I711
sS'w+1=flash'
p450
I243
sS'amod=public'
p451
I50
sS'nn=television'
p452
I137
sS'w-1=street'
p453
I558
sS'w-2=it'
p454
I666
sS'advmod=since'
p455
I18
sS'advmod=away'
p456
I8
sS'w-1=screen'
p457
I549
sS'w+2=save'
p458
I415
sS'w+2=catch'
p459
I340
sS'w-2=30,000'
p460
I589
sS'w-2=outdoors'
p461
I691
sS'w+1=one'
p462
I266
sS'dobj=bulb'
p463
I109
sS'w+2=fire'
p464
I363
sS'w-2=come'
p465
I628
sS'w+2=dazzling'
p466
I354
sS'w-1=yellow'
p467
I583
sS'num=#NUMBER#'
p468
I162
sS'w+1=romantic'
p469
I273
sS"w+2=''"
p470
I308
sS'w-2=help'
p471
I659
sS'w-1=this'
p472
I568
sS'advmod=also'
p473
I7
sS'w+2=joy'
p474
I385
sS'w-2=forest'
p475
I652
sS'nn=filament'
p476
I131
sS'w-2=Berezovsky'
p477
I590
sS'amod=bright'
p478
I26
sS'w-1=elaborate'
p479
I487
sS'w-1=blue'
p480
I473
sS'w+1=color'
p481
I230
sS'w+1=follow'
p482
I245
sS'w-2=flexible'
p483
I648
sS'w-2=conflict'
p484
I630
sS'w-1=sun'
p485
I559
sS'w-1=white'
p486
I579
sS'dobj=galaxy'
p487
I112
sS'w+1=may'
p488
I261
sS'w-1=miniaturize'
p489
I523
sS'w-1=representative'
p490
I546
sS'w+1=mat'
p491
I260
sS'cc=and'
p492
I75
sS'amod=elaborate'
p493
I30
sS'w+1=by'
p494
I226
sS'w+2=140'
p495
I313
sS'w+1=will'
p496
I301
sS'w+1=be'
p497
I218
sS'appos=water'
p498
I67
sS'dep=glow'
p499
I97
sS'advcl=prepare'
p500
I2
sS'w-2=when'
p501
I741
sS'w-1=shed'
p502
I551
sS'nsubj=representative'
p503
I152
sS'conj=computer'
p504
I79
sS'w-2=some'
p505
I717
sS'w+2=some'
p506
I423
sS'w+2=cauldron'
p507
I341
sS'w-2=flower'
p508
I650
sS'w-2=York'
p509
I597
sS'w+1=in'
p510
I252
sS'w+1=-lrb-'
p511
I200
sS'w-1=laser'
p512
I517
sS'w+1=it'
p513
I255
sS'w+1=aim'
p514
I209
sS'nsubj=Bibek'
p515
I140
sS'w+1=about'
p516
I207
sS'rcmod=simulate'
p517
I194
sS'w-2=see'
p518
I706
sS"w+1=''"
p519
I197
sS'amod=red'
p520
I51
sS'w-1=very'
p521
I577
sS'conj=star'
p522
I90
sS'w-2=skin'
p523
I714
sS'poss=#PRP#'
p524
I166
sS'w-1=take'
p525
I562
sS'w-1=bright'
p526
I476
sS'w-1=help'
p527
I510
sS'w+2=ourstatement'
p528
I408
sS'aux=could'
p529
I70
sS'w-2=the'
p530
I723
sS'w-2=sale'
p531
I704
sS'amod=traditional'
p532
I54
sS'w+2=cut'
p533
I351
sS'w-2=block'
p534
I619
sS'w+1=along'
p535
I211
sS'w-1=without'
p536
I582
sS'w+1=source'
p537
I280
sS'nn=city'
p538
I129
sS'nsubj=condemnation'
p539
I143
sS'w-1=full'
p540
I504
sS'w-2=people'
p541
I693
sS'w-1=make'
p542
I520
sS'w+1=contribute'
p543
I231
sS'w+1=weight'
p544
I297
sS'w+2=illuminate'
p545
I378
sS'w-2=authority'
p546
I612
sS'w-1=traffic'
p547
I571
sS'w+1=blue'
p548
I222
sS'w-2=l-e-d'
p549
I669
sS'w-2=be'
p550
I614
sS'prep=of'
p551
I180
sS'w-2=under'
p552
I736
sS'prep=on'
p553
I181
sS'dobj=tree'
p554
I118
sS'rcmod=help'
p555
I191
sS'nsubj=which'
p556
I155
sS"w-2=''"
p557
I585
sS'w+2=human'
p558
I376
sS'w-1=for'
p559
I501
sS'w-1=of'
p560
I529
sS'w+2=weave'
p561
I443
sS'w-2=action'
p562
I600
sS'w+2=diod'
p563
I357
sS'w-1=fresh'
p564
I502
sS'w-2=on'
p565
I686
sS'amod=visible'
p566
I58
sS'w+2=damage'
p567
I352
sS'w-2=best'
p568
I615
sS'w-1=to'
p569
I569
sS'w-2=run'
p570
I703
sS'w+2=Kenya'
p571
I319
sS'w+1=without'
p572
I304
sS'w-1=favorable'
p573
I495
sS'w+2=Strathmore'
p574
I323
sS'w-2=skylight'
p575
I716
sS'amod=more'
p576
I44
sS'w-2=can'
p577
I622
sS'w-2=get'
p578
I654
sS'w-1=or'
p579
I531
sS'w+1=display'
p580
I234
sS'advcl=hear'
p581
I0
sS'w-2=affect'
p582
I601
sS'w+2=democrat'
p583
I356
sS'w+2=hunting'
p584
I377
sS'w-2=install'
p585
I663
sS'w-2=more'
p586
I677
sS'w-2=to'
p587
I729
sS'w+2=and'
p588
I329
sS'w-2=and'
p589
I606
sS'w+1=up'
p590
I291
sS'amod=solar-powered'
p591
I53
sS'w+1=15'
p592
I202
sS'partmod=aim'
p593
I163
sS'w-1=sonically'
p594
I555
sS'infmod=cut'
p595
I123
sS'w+1=this'
p596
I286
sS'cop=be'
p597
I92
sS'w-2=apparently'
p598
I607
sS'w+1=while'
p599
I300
sS'w-1=brightly'
p600
I477
sS'w-2=he'
p601
I658
sS'w+1=more'
p602
I262
sS'w-1=pope'
p603
I532
sS'advcl=observe'
p604
I1
sS'partmod=burn'
p605
I164
sS'w-2=traffic'
p606
I731
sS'advmod=brightly'
p607
I9
sS'w-1=different'
p608
I485
sS'advcl=unveil'
p609
I5
sS'w+1=practice'
p610
I271
sS'conj=peace'
p611
I87
sS'appos=fire'
p612
I64
sS'w+2=into'
p613
I382
sS'w+2=the'
p614
I428
sS'prep=at'
p615
I172
sS'w-2=will'
p616
I745
sS'prep=as'
p617
I171
sS'w-2=,'
p618
I587
sS'w+2=controversial'
p619
I350
sS'w+2=negotiate'
p620
I398
sS'w-1=and'
p621
I468
sS'w+1=subsequently'
p622
I282
sS"w-2='"
p623
I584
sS'aux=have'
p624
I71
sS'w-2=but'
p625
I621
sS'w-1=operation'
p626
I530
sS'conj=lack'
p627
I84
sS'w-1=.'
p628
I457
sS'w-1=-'
p629
I455
sS'w-1=,'
p630
I454
sS'w-2=not'
p631
I683
sS'conj=tough'
p632
I91
sS'w-2=while'
p633
I743
sS'w+1=every'
p634
I241
sS'w+1=bonfire'
p635
I223
sS'amod=full'
p636
I37
sS'w-2=two'
p637
I735
sS'w-2=as'
p638
I611
sS'w-2=shimmering'
p639
I712
sS'w-1=also'
p640
I467
sS'w-2=how'
p641
I661
sS'w-2=traditional'
p642
I730
sS'w+2=one'
p643
I406
sS'w-2=flow'
p644
I649
sS'w+2=no'
p645
I401
sS'w+1=during'
p646
I236
sS'w-1=Christmas'
p647
I461
sS'amod=possible'
p648
I49
sS'w+1=change'
p649
I229
sS'w-1=then'
p650
I566
sS'w+2=turn'
p651
I438
sS'w-2=a'
p652
I598
sS'w-1=green'
p653
I508
sS'w-1=extreme'
p654
I493
sS'w+2=such'
p655
I424
sS'det=a'
p656
I101
sS'w-1=a'
p657
I465
sS'w-1=`'
p658
I464
sS'xcomp=enable'
p659
I750
sS'w+1=at'
p660
I216
sS'w-1=-lrb-'
p661
I456
sS'nn=operation'
p662
I133
sS'nn=surge'
p663
I135
sS'advcl=put'
p664
I3
sS'w-1=little'
p665
I519
sS'w-2=proliferation'
p666
I697
sS'w+2=generate'
p667
I368
sS'w-2=source'
p668
I719
sS'appos=house'
p669
I65
sS'w+1=lager'
p670
I256
sS'infmod=come'
p671
I122
sS'w+1=from'
p672
I247
sS'amod=unflattering'
p673
I57
sS'w+1=glow'
p674
I248
sS'w-2=city'
p675
I627
sS'w-1=any'
p676
I469
sS'w+2=violent'
p677
I441
sS'w-1=too'
p678
I570
sS'nn=laser'
p679
I132
sS'w+2=they'
p680
I429
sS'w-1=catch'
p681
I480
sS'w-2=shine'
p682
I713
sS'prep=after'
p683
I170
sS'w+1=wave'
p684
I295
sS'w+2=Christ'
p685
I317
sS'nn=evening'
p686
I130
sS'w+2=torch'
p687
I434
sS'dobj=building'
p688
I108
sS'w+1=enough'
p689
I240
sS'conj=legitimate'
p690
I85
sS'w+2=signal'
p691
I421
sS'w-2=once'
p692
I687
sS'w+1=with'
p693
I303
sS'rcmod=place'
p694
I192
sS'w-1=protester'
p695
I537
sS'amod=favorable'
p696
I34
sS'amod=flash'
p697
I35
sS'w+2=simulate'
p698
I422
sS'w-2=consume'
p699
I631
sS'w+1=late'
p700
I257
sS'w+2=instead'
p701
I381
sS'w-2=resolution'
p702
I701
sS'w-2=have'
p703
I657
sS'nsubjpass=candle'
p704
I159
sS'w-2=say'
p705
I705
sS'w+1=saber'
p706
I275
sS'w+2=candle'
p707
I339
sS'prep=from'
p708
I177
sS'w-2=candle'
p709
I623
sS'w+2=burning'
p710
I336
sS'w-1=conventional'
p711
I483
sS'w-1=box'
p712
I474
sS'w+1=after'
p713
I208
sS'advmod=rather'
p714
I16
sS'w+2=truly'
p715
I437
sS'w+2=animatronic'
p716
I330
sS'w+2=Mohammad'
p717
I320
sS'aux=to'
p718
I72
sS'w-2=pose'
p719
I695
sS'w+1=amplification'
p720
I212
sS'w+2=would'
p721
I451
sS'conj=heat'
p722
I82
sS'w-1=ultraviolet'
p723
I574
sS'w+2=fiery'
p724
I362
sS'w+2=Mr.'
p725
I321
sS'w-2=car'
p726
I624
sS'advmod=later'
p727
I11
sS'w+1=,'
p728
I198
sS'w+1=.'
p729
I201
sS'w-2=give'
p730
I655
sS'w-2=that'
p731
I722
sS'nsubj=protester'
p732
I151
sS'w+2=.'
p733
I311
sS'w+2=,'
p734
I309
sS'w+2=-'
p735
I310
sS'w+1=aircraft'
p736
I210
sS'w+1=:'
p737
I203
sS'neg=not'
p738
I125
sS'w-1=glitter'
p739
I505
sS'prep=during'
p740
I174
sS'w+2=fuse'
p741
I367
sS'w-1=surge'
p742
I560
sS'w-1=brilliant'
p743
I478
sS'w-1=provide'
p744
I538
sS'w-2=whole'
p745
I744
sS'dobj=nation'
p746
I114
sS'w-2=training'
p747
I732
sS'w+1=a'
p748
I206
sS'w+2=away'
p749
I334
sS'w-2=water'
p750
I740
sS'w+2=demand'
p751
I355
sS'w-1=great'
p752
I507
sS'w+2=worldwide'
p753
I450
sS'w-1=as'
p754
I471
sS'w-1=million'
p755
I522
sS'w-1=that'
p756
I564
sS'aux=be'
p757
I68
sS'amod=excess'
p758
I32
sS'w-1=visible'
p759
I578
sS'w+2=a'
p760
I325
sS'w+2=Iraq'
p761
I318
ssS'dtype'
p762
cnumpy
float64
p763
sS'feature_names_'
p764
(lp765
g581
ag604
ag500
ag664
ag72
ag609
ag152
ag473
ag456
ag607
ag167
ag727
ag185
ag323
ag13
ag16
ag714
ag198
ag455
ag8
ag138
ag61
ag267
ag358
ag280
ag433
ag478
ag221
ag46
ag437
ag493
ag399
ag758
ag386
ag696
ag697
ag94
ag636
ag299
ag75
ag413
ag164
ag83
ag404
ag576
ag21
ag422
ag22
ag186
ag648
ag451
ag520
ag353
ag591
ag532
ag242
ag440
ag673
ag566
ag402
ag445
ag134
ag203
ag269
ag612
ag669
ag391
ag498
ag757
ag110
ag529
ag624
ag718
ag428
ag301
ag492
ag441
ag111
ag254
ag504
ag140
ag188
ag722
ag388
ag627
ag690
ag210
ag611
ag275
ag145
ag522
ag632
ag597
ag161
ag393
ag410
ag40
ag499
ag53
ag190
ag156
ag656
ag357
ag272
ag207
ag175
ag230
ag45
ag688
ag463
ag160
ag322
ag487
ag162
ag746
ag346
ag243
ag308
ag554
ag176
ag43
ag436
ag671
ag595
ag178
ag738
ag169
ag32
ag376
ag538
ag686
ag476
ag679
ag662
ag263
ag663
ag261
ag452
ag223
ag77
ag515
ag78
ag44
ag539
ag64
ag429
ag173
ag114
ag113
ag371
ag252
ag732
ag503
ag375
ag194
ag556
ag443
ag136
ag148
ag704
ag265
ag311
ag468
ag593
ag605
ag246
ag524
ag117
ag415
ag109
ag683
ag617
ag615
ag73
ag740
ag56
ag287
ag708
ag139
ag214
ag551
ag553
ag248
ag149
ag411
ag403
ag60
ag359
ag266
ag202
ag320
ag555
ag694
ag81
ag517
ag91
ag335
ag519
ag728
ag296
ag511
ag729
ag592
ag737
ag168
ag307
ag748
ag516
ag713
ag514
ag736
ag535
ag720
ag154
ag146
ag249
ag660
ag325
ag497
ag85
ag389
ag215
ag548
ag635
ag112
ag30
ag494
ag220
ag409
ag649
ag481
ag543
ag420
ag310
ag580
ag108
ag646
ag329
ag383
ag372
ag689
ag634
ag120
ag450
ag347
ag482
ag142
ag672
ag674
ag416
ag204
ag319
ag510
ag291
ag172
ag513
ag670
ag700
ag446
ag293
ag491
ag488
ag602
ag84
ag197
ag87
ag462
ag57
ag394
ag250
ag361
ag610
ag425
ag469
ag239
ag706
ag392
ag10
ag385
ag260
ag537
ag324
ag622
ag41
ag126
ag33
ag596
ag270
ag351
ag76
ag115
ag590
ag234
ag309
ag127
ag684
ag281
ag544
ag424
ag276
ag599
ag496
ag177
ag693
ag572
ag219
ag49
ag237
ag470
ag734
ag735
ag733
ag199
ag495
ag418
ag294
ag155
ag685
ag761
ag571
ag717
ag725
ag235
ag574
ag236
ag760
ag251
ag306
ag256
ag588
ag716
ag439
ag295
ag292
ag749
ag130
ag710
ag125
ag247
ag707
ag459
ag507
ag88
ag150
ag48
ag255
ag151
ag373
ag405
ag47
ag619
ag533
ag567
ag195
ag466
ag751
ag583
ag563
ag196
ag182
ag170
ag229
ag724
ag464
ag278
ag98
ag406
ag741
ag667
ag431
ag364
ag55
ag54
ag355
ag365
ag158
ag558
ag584
ag545
ag100
ag333
ag701
ag613
ag102
ag444
ag474
ag363
ag378
ag90
ag128
ag356
ag432
ag312
ag305
ag435
ag228
ag327
ag20
ag620
ag434
ag65
ag645
ag193
ag192
ag348
ag350
ag643
ag345
ag528
ag423
ag58
ag397
ag189
ag283
ag338
ag458
ag314
ag224
ag74
ag337
ag38
ag691
ag698
ag506
ag655
ag369
ag208
ag401
ag614
ag680
ag408
ag400
ag396
ag86
ag687
ag381
ag62
ag715
ag651
ag258
ag31
ag677
ag180
ag561
ag101
ag200
ag216
ag106
ag326
ag119
ag753
ag721
ag340
ag328
ag630
ag629
ag661
ag628
ag367
ag285
ag313
ag647
ag184
ag19
ag658
ag657
ag438
ag640
ag621
ag676
ag26
ag754
ag70
ag480
ag712
ag67
ag526
ag600
ag743
ag68
ag681
ag29
ag179
ag711
ag122
ag608
ag66
ag479
ag163
ag233
ag262
ag17
ag370
ag654
ag354
ag573
ag27
ag116
ag157
ag80
ag426
ag559
ag564
ag121
ag540
ag739
ag103
ag752
ag653
ag96
ag527
ag35
ag34
ag298
ag159
ag95
ag69
ag512
ag133
ag665
ag542
ag343
ag755
ag489
ag124
ag268
ag302
ag51
ag290
ag560
ag626
ag579
ag603
ag92
ag143
ag107
ag341
ag695
ag744
ag118
ag71
ag279
ag166
ag183
ag257
ag336
ag490
ag174
ag23
ag457
ag144
ag502
ag430
ag105
ag93
ag594
ag284
ag82
ag453
ag485
ag742
ag104
ag525
ag209
ag756
ag334
ag650
ag421
ag472
ag569
ag678
ag547
ag28
ag387
ag723
ag206
ag240
ag521
ag759
ag486
ag63
ag273
ag536
ag467
ag623
ag557
ag377
ag618
ag390
ag460
ag477
ag50
ag321
ag217
ag241
ag147
ag297
ag509
ag652
ag238
ag562
ag582
ag212
ag344
ag427
ag277
ag589
ag598
ag25
ag225
ag9
ag638
ag546
ag171
ag550
ag568
ag11
ag135
ag89
ag534
ag360
ag625
ag577
ag709
ag726
ag42
ag274
ag675
ag465
ag187
ag484
ag699
ag79
ag39
ag442
ag315
ag231
ag165
ag259
ag264
ag222
ag447
ag304
ag419
ag15
ag395
ag211
ag97
ag483
ag644
ag508
ag129
ag475
ag99
ag578
ag730
ag316
ag703
ag601
ag471
ag123
ag641
ag448
ag585
ag380
ag191
ag454
ag352
ag227
ag549
ag253
ag398
ag417
ag317
ag141
ag362
ag300
ag586
ag412
ag349
ag374
ag226
ag382
ag631
ag218
ag342
ag565
ag692
ag282
ag318
ag137
ag461
ag384
ag541
ag12
ag719
ag153
ag666
ag368
ag59
ag244
ag702
ag37
ag570
ag531
ag705
ag518
ag379
ag18
ag52
ag286
ag449
ag639
ag682
ag523
ag24
ag575
ag505
ag289
ag668
ag131
ag201
ag731
ag530
ag366
ag232
ag36
ag414
ag332
ag587
ag642
ag606
ag747
ag245
ag288
ag637
ag552
ag331
ag213
ag205
ag750
ag501
ag407
ag633
ag745
ag616
ag303
ag132
ag271
ag330
ag659
ag339
ag181
ag14
asS'separator'
p766
S'='
sS'sparse'
p767
I01
sb.