ccopy_reg
_reconstructor
p1
(csklearn.feature_extraction.dict_vectorizer
DictVectorizer
p2
c__builtin__
object
p3
NtRp4
(dp5
S'sort'
p6
I01
sS'feature_names_'
p7
(lp8
S'acomp=much'
p9
aS'advcl=be'
p10
aS'advcl=help'
p11
aS'advcl=sound'
p12
aS'advmod=ahead'
p13
aS'advmod=also'
p14
aS'advmod=always'
p15
aS'advmod=better'
p16
aS'advmod=closely'
p17
aS'advmod=directly'
p18
aS'advmod=drastically'
p19
aS'advmod=easily'
p20
aS'advmod=emotionally'
p21
aS'advmod=eventually'
p22
aS'advmod=geographically'
p23
aS'advmod=how'
p24
aS'advmod=intimately'
p25
aS'advmod=just'
p26
aS'advmod=long'
p27
aS'advmod=more'
p28
aS'advmod=most'
p29
aS'advmod=now'
p30
aS'advmod=overall'
p31
aS'advmod=physically'
p32
aS'advmod=politically'
p33
aS'advmod=really'
p34
aS'advmod=so'
p35
aS'advmod=there'
p36
aS'advmod=together'
p37
aS'advmod=usually'
p38
aS'advmod=very'
p39
aS'advmod=when'
p40
aS'aux=be'
p41
aS'aux=can'
p42
aS'aux=could'
p43
aS'aux=have'
p44
aS'aux=to'
p45
aS'aux=will'
p46
aS'aux=would'
p47
aS'auxpass=be'
p48
aS'auxpass=get'
p49
aS'cc=and'
p50
aS'cc=but'
p51
aS'ccomp=bring'
p52
aS'ccomp=distrust'
p53
aS'ccomp=like'
p54
aS'ccomp=say'
p55
aS'complm=that'
p56
aS'conj=be'
p57
aS'conj=celebrate'
p58
aS'conj=create'
p59
aS'conj=depend'
p60
aS'conj=do'
p61
aS'conj=make'
p62
aS'conj=offer'
p63
aS'conj=provide'
p64
aS'conj=reassure'
p65
aS'conj=result'
p66
aS'conj=separate'
p67
aS'conj=understand'
p68
aS'cop=be'
p69
aS'dep=affect'
p70
aS'dep=both'
p71
aS'dep=depend'
p72
aS'dep=depose'
p73
aS'dep=difficult'
p74
aS'dep=increase'
p75
aS'dep=order'
p76
aS'dep=the'
p77
aS'dep=transform'
p78
aS'dobj=#NUMBER#'
p79
aS'dobj=#PRP#'
p80
aS'dobj=Arusha'
p81
aS'dobj=Asia'
p82
aS'dobj=Europe'
p83
aS'dobj=Francisco'
p84
aS'dobj=Heiligendamm'
p85
aS"dobj=N'Djamena"
p86
aS'dobj=Sea'
p87
aS'dobj=Thailand'
p88
aS'dobj=U.S.'
p89
aS'dobj=University'
p90
aS'dobj=area'
p91
aS'dobj=artist'
p92
aS'dobj=better'
p93
aS'dobj=change'
p94
aS'dobj=city'
p95
aS'dobj=civilization'
p96
aS'dobj=community'
p97
aS'dobj=culture'
p98
aS'dobj=event'
p99
aS'dobj=experience'
p100
aS'dobj=field'
p101
aS'dobj=government'
p102
aS'dobj=group'
p103
aS'dobj=issue'
p104
aS'dobj=landowner'
p105
aS'dobj=lifestyle'
p106
aS'dobj=mentor'
p107
aS'dobj=mission'
p108
aS'dobj=more'
p109
aS'dobj=musician'
p110
aS'dobj=network'
p111
aS'dobj=patient'
p112
aS'dobj=people'
p113
aS'dobj=poor'
p114
aS'dobj=region'
p115
aS'dobj=sculpture'
p116
aS'dobj=several'
p117
aS'dobj=song'
p118
aS'dobj=student'
p119
aS'dobj=system'
p120
aS'dobj=this'
p121
aS'dobj=those'
p122
aS'dobj=umbrella'
p123
aS'dobj=user'
p124
aS'dobj=village'
p125
aS'dobj=villager'
p126
aS'dobj=voter'
p127
aS'dobj=war'
p128
aS'dobj=word'
p129
aS'dobj=world'
p130
aS'dobj=zone'
p131
aS'mark=as'
p132
aS'mark=because'
p133
aS'mark=if'
p134
aS'mark=in'
p135
aS'neg=not'
p136
aS'nsubj=#PRP#'
p137
aS'nsubj=Biden'
p138
aS'nsubj=Grossman'
p139
aS'nsubj=agency'
p140
aS'nsubj=bridge'
p141
aS'nsubj=empire'
p142
aS'nsubj=music'
p143
aS'nsubj=opportunity'
p144
aS'nsubj=part'
p145
aS'nsubj=plan'
p146
aS'nsubj=program'
p147
aS'nsubj=railway'
p148
aS'nsubj=re-opening'
p149
aS'nsubj=removal'
p150
aS'nsubj=satellite'
p151
aS'nsubj=system'
p152
aS'nsubj=that'
p153
aS'nsubj=train'
p154
aS'nsubj=value'
p155
aS'nsubj=village'
p156
aS'nsubj=which'
p157
aS'nsubjpass=#NUMBER#'
p158
aS'nsubjpass=#PRP#'
p159
aS'nsubjpass=Anderson'
p160
aS'nsubjpass=Hussein'
p161
aS'nsubjpass=Islamiah'
p162
aS'nsubjpass=Lee'
p163
aS'nsubjpass=advance'
p164
aS'nsubjpass=all'
p165
aS'nsubjpass=attack'
p166
aS'nsubjpass=bout'
p167
aS'nsubjpass=charge'
p168
aS'nsubjpass=country'
p169
aS'nsubjpass=demonstration'
p170
aS'nsubjpass=land'
p171
aS'nsubjpass=life'
p172
aS'nsubjpass=mosque'
p173
aS'nsubjpass=none'
p174
aS'nsubjpass=people'
p175
aS'nsubjpass=rebellion'
p176
aS'nsubjpass=rock'
p177
aS'nsubjpass=science'
p178
aS'nsubjpass=speech'
p179
aS'nsubjpass=technology'
p180
aS'nsubjpass=that'
p181
aS'nsubjpass=this'
p182
aS'nsubjpass=unrest'
p183
aS'nsubjpass=village'
p184
aS'nsubjpass=visit'
p185
aS'nsubjpass=vote'
p186
aS'nsubjpass=work'
p187
aS'parataxis=#PRP#'
p188
aS'partmod=stretch'
p189
aS'prep=across'
p190
aS'prep=as'
p191
aS'prep=at'
p192
aS'prep=because'
p193
aS'prep=by'
p194
aS'prep=from'
p195
aS'prep=in'
p196
aS'prep=include'
p197
aS'prep=on'
p198
aS'prep=over'
p199
aS'prep=through'
p200
aS'prep=to'
p201
aS'prep=via'
p202
aS'prep=with'
p203
aS'rel=in'
p204
aS'tmod=time'
p205
aS'tmod=today'
p206
aS'tmod=year'
p207
aS'w+1=,'
p208
aS'w+1=.'
p209
aS'w+1=Arusha'
p210
aS'w+1=Cancun'
p211
aS'w+1=Europe'
p212
aS'w+1=Heiligendamm'
p213
aS"w+1=N'Djamena"
p214
aS'w+1=Russia'
p215
aS'w+1=San'
p216
aS'w+1=Thailand'
p217
aS'w+1=University'
p218
aS'w+1=a'
p219
aS'w+1=adult'
p220
aS'w+1=and'
p221
aS'w+1=artist'
p222
aS'w+1=better'
p223
aS'w+1=by'
p224
aS'w+1=civilization'
p225
aS'w+1=climate'
p226
aS'w+1=culture'
p227
aS'w+1=experience'
p228
aS'w+1=far-ranging'
p229
aS'w+1=geographically'
p230
aS'w+1=he'
p231
aS'w+1=in'
p232
aS'w+1=internet'
p233
aS'w+1=it'
p234
aS'w+1=lifestyle'
p235
aS'w+1=major'
p236
aS'w+1=more'
p237
aS'w+1=one'
p238
aS'w+1=people'
p239
aS'w+1=politically'
p240
aS'w+1=radical'
p241
aS'w+1=road'
p242
aS'w+1=russian'
p243
aS'w+1=secluded'
p244
aS'w+1=several'
p245
aS'w+1=so'
p246
aS'w+1=song'
p247
aS'w+1=student'
p248
aS'w+1=the'
p249
aS'w+1=they'
p250
aS'w+1=this'
p251
aS'w+1=those'
p252
aS'w+1=through'
p253
aS'w+1=to'
p254
aS'w+1=two'
p255
aS'w+1=village'
p256
aS'w+1=we'
p257
aS'w+1=with'
p258
aS'w+1=world-class'
p259
aS"w+2=''"
p260
aS"w+2='s"
p261
aS'w+2=,'
p262
aS'w+2=.'
p263
aS'w+2=24'
p264
aS'w+2=Adidas'
p265
aS'w+2=Afghan'
p266
aS'w+2=Central'
p267
aS'w+2=Egypt'
p268
aS'w+2=Facebook'
p269
aS'w+2=Francisco'
p270
aS'w+2=I'
p271
aS'w+2=Ifraz'
p272
aS'w+2=Iraq'
p273
aS'w+2=Mary'
p274
aS'w+2=Muhsin'
p275
aS'w+2=Nigeria'
p276
aS'w+2=Red'
p277
aS'w+2=U.S.'
p278
aS'w+2=a'
p279
aS'w+2=across'
p280
aS'w+2=and'
p281
aS'w+2=any'
p282
aS'w+2=area'
p283
aS'w+2=audience'
p284
aS'w+2=average'
p285
aS'w+2=bombing'
p286
aS'w+2=business'
p287
aS'w+2=but'
p288
aS'w+2=change'
p289
aS'w+2=check'
p290
aS'w+2=child'
p291
aS'w+2=city'
p292
aS'w+2=create'
p293
aS'w+2=different'
p294
aS'w+2=directly'
p295
aS'w+2=dot'
p296
aS'w+2=each'
p297
aS'w+2=easily'
p298
aS'w+2=event'
p299
aS'w+2=everyone'
p300
aS'w+2=fan'
p301
aS'w+2=far'
p302
aS'w+2=from'
p303
aS'w+2=general'
p304
aS'w+2=group'
p305
aS'w+2=he'
p306
aS'w+2=high'
p307
aS'w+2=history'
p308
aS'w+2=in'
p309
aS'w+2=information-wise'
p310
aS'w+2=intimacy'
p311
aS'w+2=it'
p312
aS'w+2=landowner'
p313
aS'w+2=man'
p314
aS'w+2=mentor'
p315
aS'w+2=middle'
p316
aS'w+2=mission'
p317
aS'w+2=more'
p318
aS'w+2=much'
p319
aS'w+2=music'
p320
aS'w+2=musician'
p321
aS'w+2=of'
p322
aS'w+2=oil'
p323
aS'w+2=other'
p324
aS'w+2=overseas'
p325
aS'w+2=patient'
p326
aS'w+2=people'
p327
aS'w+2=product'
p328
aS'w+2=propose'
p329
aS'w+2=racing'
p330
aS'w+2=rail'
p331
aS'w+2=region'
p332
aS'w+2=rhythm'
p333
aS'w+2=rural'
p334
aS'w+2=she'
p335
aS'w+2=six-nation'
p336
aS'w+2=some'
p337
aS'w+2=technology'
p338
aS'w+2=that'
p339
aS'w+2=the'
p340
aS'w+2=these'
p341
aS'w+2=they'
p342
aS'w+2=this'
p343
aS'w+2=those'
p344
aS'w+2=through'
p345
aS'w+2=to'
p346
aS'w+2=together'
p347
aS'w+2=two'
p348
aS'w+2=user'
p349
aS'w+2=village'
p350
aS'w+2=villager'
p351
aS'w+2=violent'
p352
aS'w+2=voter'
p353
aS'w+2=war'
p354
aS'w+2=what'
p355
aS'w+2=with'
p356
aS'w+2=word'
p357
aS'w+2=young'
p358
aS"w-1=''"
p359
aS'w-1=,'
p360
aS'w-1=-'
p361
aS'w-1=.'
p362
aS'w-1=:'
p363
aS'w-1=Biden'
p364
aS'w-1=Grossman'
p365
aS'w-1=I'
p366
aS'w-1=Sunday'
p367
aS'w-1=a'
p368
aS'w-1=agency'
p369
aS'w-1=all'
p370
aS'w-1=also'
p371
aS'w-1=always'
p372
aS'w-1=and'
p373
aS'w-1=anticipation'
p374
aS'w-1=anyone'
p375
aS'w-1=as'
p376
aS'w-1=barrier'
p377
aS'w-1=be'
p378
aS'w-1=better'
p379
aS'w-1=bridge'
p380
aS'w-1=building'
p381
aS'w-1=by'
p382
aS'w-1=can'
p383
aS'w-1=concept'
p384
aS'w-1=concern'
p385
aS'w-1=directly'
p386
aS'w-1=emotionally'
p387
aS'w-1=empire'
p388
aS'w-1=feel'
p389
aS'w-1=for'
p390
aS'w-1=get'
p391
aS'w-1=have'
p392
aS'w-1=help'
p393
aS'w-1=in'
p394
aS'w-1=intimately'
p395
aS'w-1=it'
p396
aS'w-1=just'
p397
aS'w-1=lane'
p398
aS'w-1=meeting'
p399
aS'w-1=more'
p400
aS'w-1=most'
p401
aS'w-1=music'
p402
aS'w-1=not'
p403
aS'w-1=now'
p404
aS'w-1=of'
p405
aS'w-1=open'
p406
aS'w-1=ossuary'
p407
aS'w-1=people'
p408
aS'w-1=physically'
p409
aS'w-1=problem'
p410
aS'w-1=program'
p411
aS'w-1=really'
p412
aS'w-1=region'
p413
aS'w-1=road'
p414
aS'w-1=scandal'
p415
aS'w-1=system'
p416
aS'w-1=that'
p417
aS'w-1=they'
p418
aS'w-1=think'
p419
aS'w-1=to'
p420
aS'w-1=train'
p421
aS'w-1=usually'
p422
aS'w-1=value'
p423
aS'w-1=very'
p424
aS'w-1=violence'
p425
aS'w-1=waterway'
p426
aS'w-1=we'
p427
aS'w-1=which'
p428
aS'w-1=will'
p429
aS'w-1=would'
p430
aS'w-1=you'
p431
aS"w-2=''"
p432
aS"w-2='s"
p433
aS'w-2=,'
p434
aS'w-2=.'
p435
aS'w-2=77'
p436
aS'w-2=;'
p437
aS'w-2=Asia'
p438
aS'w-2=Aviv'
p439
aS'w-2=I'
p440
aS'w-2=Islamiah'
p441
aS'w-2=Joe'
p442
aS'w-2=Lee'
p443
aS'w-2=Pepper'
p444
aS'w-2=River'
p445
aS'w-2=Sea'
p446
aS'w-2=U.N.'
p447
aS'w-2=a'
p448
aS'w-2=ability'
p449
aS'w-2=abroad'
p450
aS'w-2=american'
p451
aS'w-2=and'
p452
aS'w-2=approach'
p453
aS'w-2=arrest'
p454
aS'w-2=attack'
p455
aS'w-2=be'
p456
aS'w-2=because'
p457
aS'w-2=bed'
p458
aS'w-2=bridge'
p459
aS'w-2=build'
p460
aS'w-2=cable'
p461
aS'w-2=corner'
p462
aS'w-2=could'
p463
aS'w-2=decide'
p464
aS'w-2=declare'
p465
aS'w-2=effort'
p466
aS'w-2=eventually'
p467
aS'w-2=few'
p468
aS'w-2=fighting'
p469
aS'w-2=from'
p470
aS'w-2=gain'
p471
aS'w-2=give'
p472
aS'w-2=go'
p473
aS'w-2=growth'
p474
aS'w-2=have'
p475
aS'w-2=he'
p476
aS'w-2=help'
p477
aS'w-2=highway'
p478
aS'w-2=hope'
p479
aS'w-2=idea'
p480
aS'w-2=in'
p481
aS'w-2=it'
p482
aS'w-2=keep'
p483
aS'w-2=life'
p484
aS'w-2=lifeline'
p485
aS'w-2=long'
p486
aS'w-2=mission'
p487
aS'w-2=more'
p488
aS'w-2=motive'
p489
aS'w-2=motorcycle'
p490
aS'w-2=much'
p491
aS'w-2=naval'
p492
aS'w-2=neighborhood'
p493
aS'w-2=network'
p494
aS'w-2=not'
p495
aS'w-2=now'
p496
aS'w-2=of'
p497
aS'w-2=one-on-one'
p498
aS'w-2=opportunity'
p499
aS'w-2=over'
p500
aS'w-2=power'
p501
aS'w-2=really'
p502
aS'w-2=reason'
p503
aS'w-2=reopen'
p504
aS'w-2=rex'
p505
aS'w-2=river'
p506
aS'w-2=road'
p507
aS'w-2=satellite'
p508
aS'w-2=science'
p509
aS'w-2=screen'
p510
aS'w-2=security'
p511
aS'w-2=she'
p512
aS'w-2=shipping'
p513
aS'w-2=should'
p514
aS'w-2=solution'
p515
aS'w-2=spiritual'
p516
aS'w-2=stability'
p517
aS'w-2=step'
p518
aS'w-2=story'
p519
aS'w-2=strive'
p520
aS'w-2=struggle'
p521
aS'w-2=such'
p522
aS'w-2=summit'
p523
aS'w-2=support'
p524
aS'w-2=technology'
p525
aS'w-2=that'
p526
aS'w-2=the'
p527
aS'w-2=theme'
p528
aS'w-2=these'
p529
aS'w-2=they'
p530
aS'w-2=this'
p531
aS'w-2=thrill'
p532
aS'w-2=to'
p533
aS'w-2=try'
p534
aS'w-2=two'
p535
aS'w-2=way'
p536
aS'w-2=will'
p537
aS'w-2=win'
p538
aS'w-2=would'
p539
aS'xcomp=allow'
p540
aS'xcomp=determine'
p541
aS'xcomp=do'
p542
aS'xcomp=get'
p543
aS'xcomp=highlight'
p544
aS'xcomp=once'
p545
aS'xcomp=take'
p546
asS'dtype'
p547
cnumpy
float64
p548
sS'vocabulary_'
p549
(dp550
g145
I136
sg225
I216
sg28
I19
sg44
I35
sg175
I166
sg489
I480
sg82
I73
sg288
I279
sg217
I208
sg325
I316
sg545
I536
sg454
I445
sg96
I87
sg530
I521
sg310
I301
sg194
I185
sg103
I94
sg130
I121
sg98
I89
sg289
I280
sg430
I421
sg490
I481
sg93
I84
sg291
I282
sg488
I479
sg280
I271
sg425
I416
sg184
I175
sg292
I283
sg35
I26
sg34
I25
sg470
I461
sg384
I375
sg256
I247
sg536
I527
sg16
I7
sg429
I420
sg422
I413
sg163
I154
sg307
I298
sg65
I56
sg382
I373
sg70
I61
sg378
I369
sg22
I13
sg267
I258
sg527
I518
sg272
I263
sg105
I96
sg501
I492
sg465
I456
sg92
I83
sg385
I376
sg133
I124
sg364
I355
sg478
I469
sg346
I337
sg464
I455
sg73
I64
sg326
I317
sg358
I349
sg392
I383
sg55
I46
sg269
I260
sg309
I300
sg355
I346
sg312
I303
sg479
I470
sg123
I114
sg471
I462
sg329
I320
sg371
I362
sg42
I33
sg56
I47
sg239
I230
sg412
I403
sg91
I82
sg431
I422
sg421
I412
sg76
I67
sg450
I441
sg328
I319
sg466
I457
sg10
I1
sg299
I290
sg40
I31
sg526
I517
sg249
I240
sg367
I358
sg542
I533
sg210
I201
sg250
I241
sg507
I498
sg252
I243
sg191
I182
sg159
I150
sg154
I145
sg196
I187
sg47
I38
sg503
I494
sg118
I109
sg167
I158
sg493
I484
sg247
I238
sg447
I438
sg25
I16
sg201
I192
sg516
I507
sg410
I401
sg395
I386
sg474
I465
sg62
I53
sg221
I212
sg54
I45
sg226
I217
sg109
I100
sg218
I209
sg153
I144
sg396
I387
sg499
I490
sg49
I40
sg480
I471
sg138
I129
sg341
I332
sg394
I385
sg142
I133
sg37
I28
sg17
I8
sg57
I48
sg134
I125
sg126
I117
sg135
I126
sg155
I146
sg505
I496
sg216
I207
sg18
I9
sg99
I90
sg129
I120
sg494
I485
sg265
I256
sg320
I311
sg125
I116
sg243
I234
sg388
I379
sg78
I69
sg484
I475
sg12
I3
sg546
I537
sg113
I104
sg345
I336
sg108
I99
sg540
I531
sg519
I510
sg59
I50
sg204
I195
sg445
I436
sg497
I488
sg332
I323
sg186
I177
sg420
I411
sg318
I309
sg296
I287
sg80
I71
sg411
I402
sg354
I345
sg336
I327
sg451
I442
sg449
I440
sg63
I54
sg162
I153
sg121
I112
sg107
I98
sg538
I529
sg455
I446
sg11
I2
sg199
I190
sg31
I22
sg23
I14
sg277
I268
sg231
I222
sg535
I526
sg114
I105
sg298
I289
sg181
I172
sg213
I204
sg139
I130
sg268
I259
sg229
I220
sg383
I374
sg206
I197
sg253
I244
sg381
I372
sg458
I449
sg29
I20
sg255
I246
sg20
I11
sg400
I391
sg85
I76
sg532
I523
sg222
I213
sg112
I103
sg524
I515
sg512
I503
sg176
I167
sg119
I110
sg257
I248
sg81
I72
sg323
I314
sg342
I333
sg72
I63
sg111
I102
sg438
I429
sg187
I178
sg215
I206
sg286
I277
sg48
I39
sg467
I458
sg27
I18
sg15
I6
sg97
I88
sg498
I489
sg453
I444
sg317
I308
sg500
I491
sg115
I106
sg293
I284
sg197
I188
sg211
I202
sg380
I371
sg308
I299
sg104
I95
sg335
I326
sg386
I377
sg356
I347
sg359
I350
sg233
I224
sg414
I405
sg26
I17
sg220
I211
sg408
I399
sg61
I52
sg461
I452
sg164
I155
sg124
I115
sg432
I423
sg102
I93
sg322
I313
sg254
I245
sg483
I474
sg285
I276
sg300
I291
sg306
I297
sg246
I237
sg39
I30
sg521
I512
sg141
I132
sg87
I78
sg149
I140
sg283
I274
sg275
I266
sg433
I424
sg303
I294
sg348
I339
sg314
I305
sg122
I113
sg151
I142
sg492
I483
sg473
I464
sg486
I477
sg116
I107
sg487
I478
sg52
I43
sg539
I530
sg179
I170
sg319
I310
sg344
I335
sg327
I318
sg168
I159
sg343
I334
sg266
I257
sg245
I236
sg462
I453
sg528
I519
sg506
I497
sg541
I532
sg531
I522
sg36
I27
sg372
I363
sg338
I329
sg419
I410
sg264
I255
sg334
I325
sg444
I435
sg46
I37
sg353
I344
sg207
I198
sg423
I414
sg182
I173
sg203
I194
sg100
I91
sg140
I131
sg174
I165
sg401
I392
sg406
I397
sg94
I85
sg183
I174
sg95
I86
sg481
I472
sg482
I473
sg274
I265
sg193
I184
sg240
I231
sg32
I23
sg230
I221
sg238
I229
sg212
I203
sg311
I302
sg294
I285
sg260
I251
sg90
I81
sg477
I468
sg170
I161
sg14
I5
sg83
I74
sg143
I134
sg374
I365
sg351
I342
sg214
I205
sg235
I226
sg171
I162
sg504
I495
sg407
I398
sg349
I340
sg475
I466
sg543
I534
sg50
I41
sg313
I304
sg441
I432
sg228
I219
sg173
I164
sg224
I215
sg248
I239
sg397
I388
sg399
I390
sg523
I514
sg244
I235
sg150
I141
sg261
I252
sg459
I450
sg101
I92
sg485
I476
sg337
I328
sg515
I506
sg232
I223
sg156
I147
sg234
I225
sg137
I128
sg305
I296
sg223
I214
sg424
I415
sg304
I295
sg51
I42
sg13
I4
sg439
I430
sg79
I70
sg393
I384
sg413
I404
sg33
I24
sg510
I501
sg43
I34
sg463
I454
sg144
I135
sg117
I108
sg19
I10
sg259
I250
sg529
I520
sg64
I55
sg74
I65
sg131
I122
sg513
I504
sg379
I370
sg66
I57
sg147
I138
sg456
I447
sg297
I288
sg110
I101
sg198
I189
sg71
I62
sg158
I149
sg242
I233
sg75
I66
sg157
I148
sg405
I396
sg77
I68
sg544
I535
sg120
I111
sg152
I143
sg160
I151
sg315
I306
sg58
I49
sg339
I330
sg331
I322
sg350
I341
sg282
I273
sg347
I338
sg522
I513
sg60
I51
sg53
I44
sg398
I389
sg333
I324
sg443
I434
sg533
I524
sg281
I272
sg452
I443
sg190
I181
sg534
I525
sg251
I242
sg69
I60
sg205
I196
sg270
I261
sg476
I467
sg321
I312
sg237
I228
sg258
I249
sg188
I179
sg30
I21
sg365
I356
sg166
I157
sg491
I482
sg340
I331
sg192
I183
sg537
I528
sg369
I360
sg434
I425
sg435
I426
sg177
I168
sg373
I364
sg525
I516
sg273
I264
sg178
I169
sg409
I400
sg88
I79
sg236
I227
sg202
I193
sg437
I428
sg362
I353
sg361
I352
sg360
I351
sg495
I486
sg496
I487
sg106
I97
sg440
I431
sg468
I459
sg520
I511
sg389
I380
sg200
I191
sg428
I419
sg295
I286
sg363
I354
sg366
I357
sg169
I160
sg165
I156
sg416
I407
sg448
I439
sg418
I409
sg290
I281
sg387
I378
sg368
I359
sg180
I171
sg357
I348
sg132
I123
sg402
I393
sg21
I12
sg517
I508
sg172
I163
sg415
I406
sg146
I137
sg352
I343
sg302
I293
sg469
I460
sg508
I499
sg375
I366
sg301
I292
sg84
I75
sg219
I210
sg404
I395
sg316
I307
sg330
I321
sg446
I437
sg24
I15
sg278
I269
sg370
I361
sg377
I368
sg227
I218
sg195
I186
sg161
I152
sg460
I451
sg324
I315
sg189
I180
sg436
I427
sg427
I418
sg45
I36
sg514
I505
sg511
I502
sg9
I0
sg67
I58
sg276
I267
sg86
I77
sg391
I382
sg127
I118
sg502
I493
sg241
I232
sg390
I381
sg208
I199
sg209
I200
sg472
I463
sg263
I254
sg262
I253
sg518
I509
sg284
I275
sg136
I127
sg128
I119
sg442
I433
sg271
I262
sg38
I29
sg89
I80
sg185
I176
sg509
I500
sg403
I394
sg148
I139
sg376
I367
sg457
I448
sg287
I278
sg417
I408
sg41
I32
sg68
I59
sg426
I417
sg279
I270
ssS'separator'
p551
S'='
sS'sparse'
p552
I01
sb.