ccopy_reg
_reconstructor
p1
(csklearn.feature_extraction.dict_vectorizer
DictVectorizer
p2
c__builtin__
object
p3
NtRp4
(dp5
S'vocabulary_'
p6
(dp7
S'advcl=have'
p8
I0
sS"w+2=''"
p9
I22
sS'w+2=in'
p10
I26
sS'advmod=simply'
p11
I4
sS'aux=to'
p12
I7
sS'w-2=you'
p13
I39
sS'w+2=consumption'
p14
I25
sS'w+1=Chavez'
p15
I18
sS'advmod=openly'
p16
I2
sS'w-2=,'
p17
I34
sS'aux=can'
p18
I6
sS'complm=that'
p19
I8
sS'dobj=consumption'
p20
I10
sS'dobj=Chavez'
p21
I9
sS'w+1=openly'
p22
I20
sS'w+1=,'
p23
I17
sS'w-1=be'
p24
I30
sS'w-2=can'
p25
I36
sS'nsubj=diplomat'
p26
I14
sS'w+2=then'
p27
I27
sS'neg=not'
p28
I12
sS'w+2=any'
p29
I23
sS'w-1=America'
p30
I28
sS'w-1=and'
p31
I29
sS'w-1=over'
p32
I32
sS'w+2=because'
p33
I24
sS'w+1=they'
p34
I21
sS'w-1=to'
p35
I33
sS'w-2=Latin'
p36
I35
sS'w-1=not'
p37
I31
sS'w-2=diplomat'
p38
I37
sS'prep=in'
p39
I16
sS'advmod=how'
p40
I1
sS'nsubj=government'
p41
I15
sS'w+1=in'
p42
I19
sS'aux=be'
p43
I5
sS'mark=if'
p44
I11
sS'advmod=over'
p45
I3
sS'nsubj=#PRP#'
p46
I13
sS'w-2=how'
p47
I38
ssS'dtype'
p48
cnumpy
float64
p49
sS'feature_names_'
p50
(lp51
g8
ag40
ag16
ag45
ag11
ag43
ag18
ag12
ag19
ag21
ag20
ag44
ag28
ag46
ag26
ag41
ag39
ag23
ag15
ag42
ag22
ag34
ag9
ag29
ag33
ag14
ag10
ag27
ag30
ag31
ag24
ag37
ag32
ag35
ag17
ag36
ag25
ag38
ag47
ag13
asS'separator'
p52
S'='
sS'sparse'
p53
I01
sb.