ccopy_reg
_reconstructor
p1
(csklearn.feature_extraction.dict_vectorizer
DictVectorizer
p2
c__builtin__
object
p3
NtRp4
(dp5
S'sort'
p6
I01
sS'feature_names_'
p7
(lp8
S'advcl=say'
p9
aS'advmod=definitely'
p10
aS'advmod=elsewhere'
p11
aS'amod=annual'
p12
aS'amod=congolese'
p13
aS'amod=japanese'
p14
aS'amod=massive'
p15
aS'amod=mythological'
p16
aS'aux=have'
p17
aS'aux=to'
p18
aS'aux=will'
p19
aS'auxpass=be'
p20
aS'cc=and'
p21
aS'conj=arrest'
p22
aS'conj=capture'
p23
aS'det=a'
p24
aS'det=the'
p25
aS'det=this'
p26
aS'dobj=#PRP#'
p27
aS'dobj=animal'
p28
aS'dobj=lion'
p29
aS'dobj=people'
p30
aS'dobj=whale'
p31
aS'mark=for'
p32
aS'nn=#PRP#'
p33
aS'nn=army'
p34
aS'nn=boat'
p35
aS'nn=whale'
p36
aS'nn=witch'
p37
aS'nsubj=#PRP#'
p38
aS'nsubj=action'
p39
aS'nsubj=that'
p40
aS'nsubj=tribesman'
p41
aS'nsubjpass=#PRP#'
p42
aS'nsubjpass=albino'
p43
aS'nsubjpass=carnivore'
p44
aS'partmod=endanger'
p45
aS'poss=#PRP#'
p46
aS'poss=Japan'
p47
aS'poss=agency'
p48
aS'poss=season'
p49
aS'prep=by'
p50
aS'prep=down'
p51
aS'prep=for'
p52
aS'prep=of'
p53
aS'prep=to'
p54
aS'prt=down'
p55
aS'rcmod=increase'
p56
aS'tmod=year'
p57
aS"w+1='"
p58
aS'w+1=,'
p59
aS'w+1=.'
p60
aS'w+1=50'
p61
aS'w+1=Hamas'
p62
aS'w+1=a'
p63
aS'w+1=al-qaida'
p64
aS'w+1=and'
p65
aS'w+1=as'
p66
aS'w+1=be'
p67
aS'w+1=by'
p68
aS'w+1=down'
p69
aS'w+1=each'
p70
aS'w+1=endanger'
p71
aS'w+1=for'
p72
aS'w+1=humpback'
p73
aS'w+1=in'
p74
aS'w+1=legally'
p75
aS'w+1=lion'
p76
aS'w+1=people'
p77
aS'w+1=plan'
p78
aS'w+1=she'
p79
aS'w+1=the'
p80
aS'w+1=they'
p81
aS'w+1=those'
p82
aS'w+1=to'
p83
aS'w+1=whale'
p84
aS'w+1=will'
p85
aS"w+2=''"
p86
aS'w+2=,'
p87
aS'w+2=--'
p88
aS'w+2=.'
p89
aS'w+2=Israel'
p90
aS'w+2=Kyodo'
p91
aS'w+2=Osama'
p92
aS'w+2=Taleban'
p93
aS'w+2=al-qaida'
p94
aS'w+2=and'
p95
aS'w+2=animal'
p96
aS'w+2=area'
p97
aS'w+2=bin'
p98
aS'w+2=but'
p99
aS'w+2=call'
p100
aS'w+2=capture'
p101
aS'w+2=down'
p102
aS'w+2=ethiopian'
p103
aS'w+2=extinction'
p104
aS'w+2=for'
p105
aS'w+2=humpback'
p106
aS'w+2=in'
p107
aS'w+2=not'
p108
aS'w+2=opposition'
p109
aS'w+2=other'
p110
aS'w+2=peaceful'
p111
aS'w+2=protect'
p112
aS'w+2=rebel'
p113
aS'w+2=reject'
p114
aS'w+2=scientific'
p115
aS'w+2=so'
p116
aS'w+2=soon'
p117
aS'w+2=source'
p118
aS'w+2=subsistence'
p119
aS'w+2=terrorist'
p120
aS'w+2=the'
p121
aS'w+2=those'
p122
aS'w+2=to'
p123
aS'w+2=unnecessary'
p124
aS'w+2=weapon'
p125
aS'w+2=whale'
p126
aS'w+2=what'
p127
aS'w+2=which'
p128
aS'w+2=year'
p129
aS"w-1='s"
p130
aS'w-1=.'
p131
aS'w-1=and'
p132
aS'w-1=annual'
p133
aS'w-1=army'
p134
aS'w-1=be'
p135
aS'w-1=boat'
p136
aS'w-1=have'
p137
aS'w-1=it'
p138
aS'w-1=japanese'
p139
aS'w-1=massive'
p140
aS'w-1=mythological'
p141
aS'w-1=now'
p142
aS'w-1=that'
p143
aS'w-1=the'
p144
aS'w-1=they'
p145
aS'w-1=to'
p146
aS'w-1=whale'
p147
aS'w-1=will'
p148
aS'w-1=witch'
p149
aS"w-2=''"
p150
aS'w-2=,'
p151
aS'w-2=.'
p152
aS'w-2=Congress'
p153
aS'w-2=Iraq'
p154
aS'w-2=Kenya'
p155
aS'w-2=a'
p156
aS'w-2=ability'
p157
aS'w-2=about'
p158
aS'w-2=agency'
p159
aS'w-2=albino'
p160
aS'w-2=and'
p161
aS'w-2=annual'
p162
aS'w-2=area'
p163
aS'w-2=army'
p164
aS'w-2=as'
p165
aS'w-2=be'
p166
aS'w-2=call'
p167
aS'w-2=carnivore'
p168
aS'w-2=city'
p169
aS'w-2=congolese'
p170
aS'w-2=continue'
p171
aS'w-2=definitely'
p172
aS'w-2=effort'
p173
aS'w-2=from'
p174
aS'w-2=gunman'
p175
aS'w-2=how'
p176
aS'w-2=in'
p177
aS'w-2=its'
p178
aS'w-2=japanese'
p179
aS'w-2=militia'
p180
aS'w-2=not'
p181
aS'w-2=plan'
p182
aS'w-2=region'
p183
aS'w-2=say'
p184
aS'w-2=season'
p185
aS'w-2=the'
p186
aS'w-2=they'
p187
aS'w-2=this'
p188
aS'w-2=to'
p189
aS'w-2=troops'
p190
aS'w-2=try'
p191
aS'w-2=vow'
p192
aS'w-2=watch'
p193
aS'w-2=we'
p194
aS'w-2=weapon'
p195
aS'w-2=when'
p196
asS'dtype'
p197
cnumpy
float64
p198
sS'vocabulary_'
p199
(dp200
g108
I99
sg168
I159
sg17
I8
sg41
I32
sg194
I185
sg115
I106
sg100
I91
sg71
I62
sg49
I40
sg155
I146
sg25
I16
sg62
I53
sg175
I166
sg99
I90
sg30
I21
sg13
I4
sg122
I113
sg104
I95
sg193
I184
sg112
I103
sg111
I102
sg42
I33
sg9
I0
sg83
I74
sg187
I178
sg146
I137
sg154
I145
sg189
I180
sg95
I86
sg161
I152
sg91
I82
sg27
I18
sg88
I79
sg191
I182
sg15
I6
sg93
I84
sg157
I148
sg56
I47
sg35
I26
sg44
I35
sg19
I10
sg36
I27
sg195
I186
sg184
I175
sg92
I83
sg163
I154
sg121
I112
sg66
I57
sg125
I116
sg148
I139
sg151
I142
sg152
I143
sg133
I124
sg164
I155
sg131
I122
sg116
I107
sg190
I181
sg103
I94
sg32
I23
sg12
I3
sg135
I126
sg180
I171
sg33
I24
sg182
I173
sg181
I172
sg186
I177
sg84
I75
sg174
I165
sg79
I70
sg177
I168
sg106
I97
sg165
I156
sg31
I22
sg149
I140
sg171
I162
sg23
I14
sg102
I93
sg64
I55
sg22
I13
sg14
I5
sg69
I60
sg48
I39
sg156
I147
sg153
I144
sg145
I136
sg76
I67
sg52
I43
sg24
I15
sg176
I167
sg137
I128
sg43
I34
sg70
I61
sg110
I101
sg141
I132
sg185
I176
sg178
I169
sg86
I77
sg107
I98
sg127
I118
sg47
I38
sg114
I105
sg159
I150
sg169
I160
sg20
I11
sg192
I183
sg77
I68
sg130
I121
sg179
I170
sg97
I88
sg167
I158
sg74
I65
sg120
I111
sg21
I12
sg173
I164
sg119
I110
sg80
I71
sg68
I59
sg85
I76
sg67
I58
sg118
I109
sg81
I72
sg87
I78
sg16
I7
sg82
I73
sg196
I187
sg96
I87
sg61
I52
sg45
I36
sg188
I179
sg72
I63
sg57
I48
sg126
I117
sg139
I130
sg101
I92
sg38
I29
sg140
I131
sg28
I19
sg160
I151
sg51
I42
sg144
I135
sg54
I45
sg18
I9
sg90
I81
sg29
I20
sg129
I120
sg46
I37
sg172
I163
sg34
I25
sg109
I100
sg65
I56
sg162
I153
sg58
I49
sg136
I127
sg150
I141
sg59
I50
sg60
I51
sg183
I174
sg73
I64
sg89
I80
sg134
I125
sg11
I2
sg105
I96
sg94
I85
sg147
I138
sg123
I114
sg158
I149
sg75
I66
sg40
I31
sg138
I129
sg132
I123
sg39
I30
sg50
I41
sg10
I1
sg124
I115
sg26
I17
sg37
I28
sg128
I119
sg113
I104
sg63
I54
sg142
I133
sg166
I157
sg55
I46
sg53
I44
sg117
I108
sg143
I134
sg98
I89
sg78
I69
sg170
I161
ssS'separator'
p201
S'='
sS'sparse'
p202
I01
sb.