ccopy_reg
_reconstructor
p1
(csklearn.feature_extraction.dict_vectorizer
DictVectorizer
p2
c__builtin__
object
p3
NtRp4
(dp5
S'vocabulary_'
p6
(dp7
S'w-1=major'
p8
I1608
sS'w-1=accommodate'
p9
I1488
sS'amod=blunt'
p10
I59
sS'xcomp=commensurate'
p11
I2207
sS'advmod=more'
p12
I35
sS'w-1=resolution'
p13
I1680
sS'amod=legislative'
p14
I97
sS'w-2=cargo'
p15
I1877
sS'nsubj=Johnston'
p16
I575
sS'dep=turn'
p17
I319
sS'w-2=Lika'
p18
I1793
sS'dep=construction'
p19
I299
sS'dobj=equality'
p20
I390
sS'w-1=capitalSrinagar'
p21
I1512
sS'w+2=survivor'
p22
I1398
sS'w-2=Friday'
p23
I1772
sS'dobj=direction'
p24
I382
sS'w+2=but'
p25
I1086
sS'dobj=pay'
p26
I427
sS'w-1=than'
p27
I1703
sS'dobj=action'
p28
I343
sS'w-2=enrichment'
p29
I1932
sS'w+2=international'
p30
I1216
sS'w-2=new'
p31
I2043
sS'dobj=condition'
p32
I370
sS'w-2=insurgent'
p33
I1986
sS'ccomp=restore'
p34
I223
sS'w-2=need'
p35
I2039
sS'w-2=position'
p36
I2071
sS'nsubj=rebel'
p37
I662
sS'conj=call'
p38
I246
sS'w-2=some'
p39
I2138
sS'w+2=repatriate'
p40
I1335
sS'nsubj=E.U.'
p41
I569
sS'w+2=legitimate'
p42
I1235
sS'w-2=telephone'
p43
I2157
sS'w+2=continue'
p44
I1108
sS'nn=passenger'
p45
I544
sS'w-1=new'
p46
I1623
sS'w+2=hand'
p47
I1182
sS'w-1=initially'
p48
I1578
sS'w-1=rally'
p49
I1665
sS'w-2=winter'
p50
I2197
sS'w-1=will'
p51
I1729
sS'w-2=outside'
p52
I2056
sS'nsubj=number'
p53
I642
sS'w-1=editor'
p54
I1540
sS'w+2=attention'
p55
I1065
sS'amod=western'
p56
I141
sS'w+1=nothing'
p57
I920
sS'w-2=kidnapper'
p58
I1998
sS'w-2=among'
p59
I1847
sS'nn=growth'
p60
I531
sS'w+1=physical'
p61
I935
sS'w+2=pay'
p62
I1291
sS'w-2=investment'
p63
I1989
sS'w+2=run'
p64
I1355
sS'w+1=she'
p65
I950
sS'w-2=reinforce'
p66
I2102
sS'w+2=meet'
p67
I1250
sS'w+2=independent'
p68
I1211
sS'w-2=launch'
p69
I2001
sS'w-2=where'
p70
I2189
sS'rcmod=drive'
p71
I773
sS'w+2=quality'
p72
I1316
sS'w-2=who'
p73
I2193
sS'dobj=Nations'
p74
I338
sS'w+1=of'
p75
I922
sS'ccomp=pull'
p76
I210
sS'w+1=health'
p77
I884
sS'w+2=spark'
p78
I1383
sS'amod=unfair'
p79
I139
sS'w+1=or'
p80
I927
sS'w-2=question'
p81
I2089
sS'ccomp=say'
p82
I226
sS'w+2=appropriate'
p83
I1059
sS'w-2=mass'
p84
I2020
sS'w-2=gloom'
p85
I1958
sS'dobj=release'
p86
I446
sS'w+2=higher-end'
p87
I1191
sS'w-2=illegal'
p88
I1976
sS'amod=popular'
p89
I117
sS'ccomp=have'
p90
I192
sS'w-1=could'
p91
I1527
sS'w+2=you'
p92
I1448
sS'prep=around'
p93
I746
sS'w+2=Pashmina'
p94
I1021
sS'xcomp=modify'
p95
I2218
sS'w-2=Johnston'
p96
I1787
sS'w-2=fisherman'
p97
I1946
sS'dobj=stateha'
p98
I476
sS'advcl=be'
p99
I3
sS'nn=meeting'
p100
I538
sS'dobj=postponement'
p101
I433
sS'w-2=that'
p102
I2158
sS'w+1=the'
p103
I963
sS'w+2=soldier'
p104
I1379
sS'amod=large'
p105
I94
sS'w-2=versus'
p106
I2178
sS'w-2=supply'
p107
I2153
sS'dobj=consideration'
p108
I371
sS'w-1=tremendous'
p109
I1714
sS'w+2=status'
p110
I1388
sS'w-2=why'
p111
I2195
sS'w-2=else'
p112
I1930
sS'w-2=Party'
p113
I1809
sS'w+2=future'
p114
I1168
sS'advmod=presently'
p115
I42
sS'w+2=relocation'
p116
I1331
sS'w-2=rise'
p117
I2116
sS'dobj=worker'
p118
I491
sS'w+2=depose'
p119
I1123
sS'w+2=accounting'
p120
I1043
sS'poss=Bush'
p121
I705
sS'w-2=order'
p122
I2053
sS'w-2=15-59'
p123
I1740
sS'nsubj=Waxman'
p124
I600
sS'advcl=acknowledge'
p125
I2
sS'dobj=#NUMBER#'
p126
I331
sS'w-2=heed'
p127
I1969
sS'w-1=should'
p128
I1688
sS'nsubj=that'
p129
I677
sS'w-1=similar'
p130
I1691
sS'advmod=here'
p131
I27
sS'nsubj=supporter'
p132
I676
sS'w+2=baby'
p133
I1067
sS'dobj=justice'
p134
I413
sS'w-2=create'
p135
I1902
sS'nsubj=group'
p136
I627
sS'w+2=transplant'
p137
I1416
sS'w+2=power'
p138
I1301
sS'w-1=discuss'
p139
I1536
sS'w+2=expert'
p140
I1149
sS'w+2=escalate'
p141
I1138
sS'amod=continue'
p142
I66
sS'advmod=where'
p143
I53
sS'dobj=enrichment'
p144
I389
sS'w-1=tuareg'
p145
I1717
sS'amod=lower'
p146
I103
sS'amod=similar'
p147
I130
sS'w+2=former'
p148
I1163
sS'w+2=reform'
p149
I1327
sS'w+2=call'
p150
I1088
sS'dobj=intelligence'
p151
I411
sS'dobj=Hezbollah'
p152
I336
sS'w-2=educate'
p153
I1927
sS'w-2=community'
p154
I1885
sS'w+2=cross'
p155
I1113
sS'advcl=try'
p156
I19
sS'prep=include'
p157
I756
sS'w-2=crunch'
p158
I1904
sS'w+2=see'
p159
I1363
sS'xcomp=allow'
p160
I2206
sS'w-2=defender'
p161
I1909
sS'w+2=set'
p162
I1369
sS'w+2=Chaudhry'
p163
I996
sS'ccomp=reject'
p164
I219
sS'w-1=to'
p165
I1712
sS'w-1=first'
p166
I1556
sS'w-2=U.S.'
p167
I1822
sS'dobj=#PRP#'
p168
I332
sS'amod=massive'
p169
I105
sS'w+2=war'
p170
I1431
sS'w-2=grow'
p171
I1962
sS'w-1=longstanding'
p172
I1605
sS'nsubj=Musharraf'
p173
I580
sS'nsubj=Saleh'
p174
I590
sS'amod=high'
p175
I83
sS'w+2=withdrawal'
p176
I1441
sS'w+2=while'
p177
I1438
sS'nn=opposition'
p178
I541
sS'w-2=ogoni'
p179
I2049
sS'w+2=cut-off'
p180
I1115
sS'w+2=force'
p181
I1160
sS'w-2=two'
p182
I2168
sS'conj=consumption'
p183
I250
sS'amod=militant'
p184
I106
sS'dobj=troop'
p185
I483
sS'dobj=hearing'
p186
I403
sS'w-2=Militants'
p187
I1798
sS'w+2=because'
p188
I1071
sS'w-1=gold'
p189
I1563
sS'amod=institutional'
p190
I88
sS'advmod=most'
p191
I36
sS'w-1=more'
p192
I1618
sS'w+1=restoration'
p193
I943
sS'dobj=compliance'
p194
I369
sS'w-2=heavy'
p195
I1968
sS'nn=market'
p196
I537
sS'w+2=abolition'
p197
I1039
sS'w+2=bring'
p198
I1085
sS'w+2=expect'
p199
I1147
sS'prep=despite'
p200
I751
sS'advcl=give'
p201
I10
sS'w+2=unethical'
p202
I1421
sS'w+1=domestically'
p203
I854
sS'w+2=India'
p204
I1007
sS'dobj=community'
p205
I367
sS'w-2=approach'
p206
I1853
sS'w+2=Russia'
p207
I1026
sS'nsubj=president'
p208
I657
sS'nsubj=Korea'
p209
I577
sS'dobj=regulation'
p210
I445
sS'nn=worker'
p211
I550
sS'w+2=separate'
p212
I1366
sS'w-2=equality'
p213
I1933
sS'w-2=union-led'
p214
I2171
sS'w-1=electrical'
p215
I1541
sS'w-2=negotiator'
p216
I2041
sS'advmod=maybe'
p217
I33
sS'w-2=republican'
p218
I2109
sS'ccomp=push'
p219
I211
sS'w+2=back'
p220
I1068
sS'conj=supply'
p221
I282
sS'w-2=up'
p222
I2174
sS'poss=Ankara'
p223
I702
sS'w+2=Israel'
p224
I1010
sS'w-1=commercial'
p225
I1517
sS'poss=Gbagbo'
p226
I710
sS'w+1=Syria'
p227
I809
sS'conj=trafficker'
p228
I283
sS'poss=India'
p229
I713
sS'w+2=protection'
p230
I1313
sS'nn=organizer'
p231
I542
sS'dobj=access'
p232
I340
sS'xcomp=leave'
p233
I2215
sS'ccomp=trim'
p234
I236
sS'nsubj=Beijing'
p235
I560
sS'det=that'
p236
I326
sS'dobj=return'
p237
I457
sS'w+2=electoral'
p238
I1131
sS'w+2=restoration'
p239
I1340
sS'det=any'
p240
I325
sS'w+2=implementation'
p241
I1205
sS'w+1=lie'
p242
I909
sS'w-1=22'
p243
I1455
sS'w+2=least'
p244
I1232
sS'w+2=area'
p245
I1060
sS'w+2=Congress'
p246
I998
sS'w-1=european'
p247
I1547
sS'w-2=angry'
p248
I1849
sS'w-2=boost'
p249
I1865
sS'w-2=rivalry'
p250
I2117
sS'ccomp=force'
p251
I184
sS'w+2=high'
p252
I1187
sS'dobj=reciprocity'
p253
I441
sS'w+1=hearing'
p254
I885
sS'w-1=Britain'
p255
I1458
sS'w-1=up'
p256
I1719
sS'w+2=money'
p257
I1256
sS'w-2=force'
p258
I1950
sS'w-2=instead'
p259
I1985
sS'w+2=forever'
p260
I1162
sS'w+1=boss'
p261
I837
sS'w+2=travel'
p262
I1417
sS'predet=all'
p263
I741
sS'poss=consumer'
p264
I725
sS'w+2=contest'
p265
I1107
sS'w-2=long'
p266
I2013
sS'dobj=occupation'
p267
I423
sS'nsubj=Militants'
p268
I579
sS'nsubj=Arbour'
p269
I557
sS'w-1=basic'
p270
I1498
sS'w-1=valley'
p271
I1720
sS'w-2=would'
p272
I2202
sS'ccomp=effective'
p273
I179
sS'w+2=break'
p274
I1083
sS'w+2=submit'
p275
I1393
sS'w-2=Islamabad'
p276
I1785
sS'w+2=this'
p277
I1410
sS'nsubj=insurgent'
p278
I628
sS'dobj=payment'
p279
I428
sS'w+2=flemish'
p280
I1157
sS'nn=oil'
p281
I540
sS'w-2=inhumane'
p282
I1984
sS'w+2=preservation'
p283
I1302
sS'nsubj=court'
p284
I616
sS'w-1=organizer'
p285
I1633
sS'w-1=other'
p286
I1636
sS'dobj=show-trial'
p287
I473
sS'w-1=renew'
p288
I1676
sS'amod=renew'
p289
I124
sS'w-2=million'
p290
I2029
sS'w-2=international'
p291
I1987
sS'w+1=period'
p292
I934
sS'w+1=address'
p293
I819
sS'w-2=detainee'
p294
I1915
sS'mark=while'
p295
I507
sS'dep=so'
p296
I316
sS'amod=new'
p297
I109
sS'w+1=Thaksin'
p298
I810
sS'poss=albanian'
p299
I722
sS'w-2=bank'
p300
I1858
sS'w-2=also'
p301
I1844
sS'ccomp=believe'
p302
I164
sS'w+1=back'
p303
I831
sS'w+2=new'
p304
I1262
sS'w-2=patient'
p305
I2061
sS'w-1=inject'
p306
I1579
sS'w+2=abolish'
p307
I1038
sS'w+2=detail'
p308
I1124
sS'cc=or'
p309
I157
sS'w+2=military'
p310
I1254
sS'nsubj=community'
p311
I613
sS'dobj=testimony'
p312
I481
sS'nsubj=chain'
p313
I608
sS'w+1=assurance'
p314
I828
sS'nn=compensation'
p315
I520
sS'w-2=fear'
p316
I1943
sS'w-1=most'
p317
I1619
sS'w-2=journalist'
p318
I1994
sS'w+2=receive'
p319
I1323
sS'w+2=prime'
p320
I1305
sS'w-2=if'
p321
I1974
sS'w+2=rule'
p322
I1354
sS'w-2=in'
p323
I1979
sS'w+2=autonomy'
p324
I1066
sS'amod=public'
p325
I120
sS'w-2=it'
p326
I1991
sS'w+1=market'
p327
I912
sS'nn=demonstrator'
p328
I526
sS'w-2=application'
p329
I1852
sS'dobj=freedom'
p330
I398
sS'advmod=physically'
p331
I41
sS'w+2=than'
p332
I1404
sS'dobj=revenge'
p333
I458
sS'ccomp=place'
p334
I207
sS'nsubj=point'
p335
I654
sS'w+2=firm'
p336
I1154
sS'ccomp=allow'
p337
I160
sS'amod=few'
p338
I76
sS'w-1=presently'
p339
I1654
sS'w-1=ever-higher'
p340
I1550
sS'w-2=diplomat'
p341
I1918
sS'amod=pressing'
p342
I118
sS'advmod=also'
p343
I22
sS'dobj=charge'
p344
I364
sS'poss=worker'
p345
I740
sS'poss=Valentine'
p346
I721
sS'dobj=adherence'
p347
I344
sS'w-2=toward'
p348
I2167
sS'w-2=rebel'
p349
I2093
sS'w+2=cancellation'
p350
I1089
sS'dobj=Iran'
p351
I337
sS'w+2=cocaine'
p352
I1098
sS'w-2=States'
p353
I1818
sS'dobj=guarantee'
p354
I402
sS'poss=insurgent'
p355
I729
sS'w+2=wealth'
p356
I1434
sS'advmod=why'
p357
I54
sS'dobj=end'
p358
I388
sS'w-2=have'
p359
I1964
sS'nsubj=student'
p360
I674
sS'w+1=away'
p361
I830
sS'w+1=will'
p362
I979
sS'w+2=develop'
p363
I1125
sS'w-2=what'
p364
I2187
sS'ccomp=provide'
p365
I209
sS'w+1=inclusion'
p366
I893
sS'dobj=execution'
p367
I391
sS'w+1=in'
p368
I891
sS'w+2=clear'
p369
I1096
sS'w+1=it'
p370
I902
sS'w-2=restless'
p371
I2112
sS'w+1=on'
p372
I924
sS'nsubj=#PRP#'
p373
I554
sS'w+2=answer'
p374
I1055
sS'w+1=about'
p375
I816
sS'dobj=meat'
p376
I418
sS'w+1=forecast'
p377
I872
sS'w+2=little'
p378
I1239
sS'ccomp=disarm'
p379
I174
sS'nn=job'
p380
I533
sS'w-1=office'
p381
I1627
sS'w+2=get'
p382
I1171
sS'amod=israeli'
p383
I91
sS'ccomp=use'
p384
I238
sS'ccomp=lower'
p385
I202
sS'poss=#PRP#'
p386
I701
sS'w+2=ethnic'
p387
I1142
sS'advcl=do'
p388
I8
sS'w-1=several'
p389
I1685
sS'w-1=court'
p390
I1528
sS'w-2=increase'
p391
I1981
sS'infmod=get'
p392
I496
sS'xcomp=hold'
p393
I2210
sS'w+2=mass'
p394
I1247
sS'conj=provide'
p395
I275
sS'w+2=raw'
p396
I1321
sS'dobj=appropriate'
p397
I352
sS'poss=whose'
p398
I739
sS'w-2=down'
p399
I1920
sS'w+2=indonesian'
p400
I1212
sS'w+1=adherence'
p401
I820
sS'w-2=reduce'
p402
I2098
sS'w-1=group'
p403
I1565
sS'w-2=Mercedes'
p404
I1796
sS'w-1=march'
p405
I1611
sS'mark=after'
p406
I501
sS'w+2=militant'
p407
I1253
sS'w-2=street'
p408
I2144
sS'w+1=greater'
p409
I878
sS'xcomp=look'
p410
I2216
sS'w-2=Wednesday'
p411
I1829
sS'w+2=democratic'
p412
I1119
sS'w-1=excessive'
p413
I1551
sS'w+2=justice'
p414
I1224
sS'w-2=school'
p415
I2122
sS'w+2=anyone'
p416
I1056
sS'dobj=cancellation'
p417
I361
sS'amod=gold'
p418
I80
sS'amod=other'
p419
I111
sS'w+2=equal'
p420
I1136
sS'w+2=greater'
p421
I1178
sS'w+2=North'
p422
I1019
sS'advcl=convene'
p423
I6
sS'dobj=ministry'
p424
I419
sS'w+2=Samak'
p425
I1027
sS'w+2=sum'
p426
I1395
sS'w+2=remove'
p427
I1333
sS'w-2=higher'
p428
I1971
sS'poss=Gbabgo'
p429
I709
sS'amod=greater'
p430
I81
sS'dobj=amnesty'
p431
I348
sS'dep=all'
p432
I292
sS'w+2=corn'
p433
I1109
sS'nsubj=caller'
p434
I606
sS'w-2=and'
p435
I1848
sS'nsubj=governor'
p436
I626
sS'nsubj=object'
p437
I643
sS'w+2=safe'
p438
I1356
sS'w-2=worker'
p439
I2200
sS'w-2=any'
p440
I1851
sS'w-2=he'
p441
I1965
sS'w+2=korean'
p442
I1226
sS'w-2=loan'
p443
I2011
sS'w+1=which'
p444
I978
sS'w+1=dozen'
p445
I855
sS'ccomp=hub'
p446
I194
sS'w+2=raise'
p447
I1318
sS'w-2=all'
p448
I1843
sS'w+1=equality'
p449
I861
sS'w+1=direct'
p450
I852
sS'dep=charge'
p451
I296
sS'w+2=food'
p452
I1158
sS'w-2=confine'
p453
I1888
sS'w-1=and'
p454
I1494
sS'w-2=unless'
p455
I2172
sS'dobj=implementation'
p456
I405
sS'w+2=10'
p457
I988
sS'w+2=12'
p458
I989
sS'w+2=fish'
p459
I1156
sS'w-1=rebel'
p460
I1668
sS'w-2=protester'
p461
I2084
sS'w-1=put'
p462
I1663
sS'dobj=timetable'
p463
I482
sS'w-2=resist'
p464
I2111
sS'w+2=foreign'
p465
I1161
sS'w+2=revocation'
p466
I1348
sS'w-2=other'
p467
I2054
sS'amod=longstanding'
p468
I101
sS'w-2=stubbornly'
p469
I2148
sS'aux=should'
p470
I150
sS'w-2=council'
p471
I1900
sS'w+2=government'
p472
I1175
sS'w-1=then'
p473
I1706
sS'w-2=recent'
p474
I2095
sS'w-1=they'
p475
I1708
sS'w-1=high'
p476
I1570
sS'w-1=pressing'
p477
I1656
sS'w+1=outstrip'
p478
I928
sS'w+2=rise'
p479
I1352
sS'dobj=deportation'
p480
I381
sS'w+1=pay'
p481
I933
sS'infmod=defuse'
p482
I495
sS'conj=decline'
p483
I251
sS'w-2=albanian'
p484
I1842
sS'w-1=party'
p485
I1644
sS'w+2=bribe'
p486
I1084
sS'w-2=per'
p487
I2063
sS'w-2=whether'
p488
I2190
sS'partmod=hurt'
p489
I697
sS'amod=several'
p490
I127
sS'w-2=issue'
p491
I1990
sS'w-1=long-standing'
p492
I1604
sS'w+2=situation'
p493
I1374
sS'w-2=realize'
p494
I2092
sS'nsubj=civilian'
p495
I609
sS'conj=passage'
p496
I270
sS'w-2=go'
p497
I1959
sS'nsubj=force'
p498
I623
sS'prep=against'
p499
I744
sS'w+2=specific'
p500
I1384
sS'w-2=rebellion'
p501
I2094
sS'w-1=congressional'
p502
I1521
sS'w+2=compact'
p503
I1100
sS'nsubj=justice'
p504
I630
sS'cc=well'
p505
I158
sS'w+2=ethanol'
p506
I1141
sS'w+2=independence'
p507
I1210
sS'dobj=police'
p508
I432
sS'w-1=protest'
p509
I1660
sS'nsubj=union'
p510
I680
sS'dobj=reform'
p511
I444
sS'xcomp=talk'
p512
I2225
sS'ccomp=monitor'
p513
I204
sS'w+2=rioting'
p514
I1351
sS'w-2=Gbagbo'
p515
I1775
sS'xcomp=integrate'
p516
I2213
sS'xcomp=secure'
p517
I2221
sS'w+2=other'
p518
I1281
sS'amod=domestic'
p519
I70
sS'w-2=impose'
p520
I1978
sS'w+1=freedom'
p521
I874
sS'w-2=Frassoni'
p522
I1771
sS'w+1=before'
p523
I834
sS'w-2=should'
p524
I2130
sS'dobj=revocation'
p525
I461
sS'poss=Democrat'
p526
I708
sS'w-1=lawsuit'
p527
I1597
sS'w+1=new'
p528
I918
sS'w+2=boycott'
p529
I1082
sS'w-2=car'
p530
I1876
sS'ccomp=apologize'
p531
I161
sS'w-2=give'
p532
I1957
sS'nsubj=Reporters'
p533
I587
sS'nn=consumer'
p534
I522
sS'nsubj=monk'
p535
I640
sS'neg=not'
p536
I509
sS'w+2=Pervez'
p537
I1022
sS'w+2=personal'
p538
I1293
sS'w-1=international'
p539
I1582
sS'w+2=postponement'
p540
I1300
sS'w+1=Mr.'
p541
I805
sS'dobj=compensation'
p542
I368
sS'w+2=lift'
p543
I1237
sS'w-1=demonstrator'
p544
I1535
sS'conj=love'
p545
I267
sS'w+2=especially'
p546
I1139
sS'w+2=result'
p547
I1342
sS'w-2=office'
p548
I2047
sS'w-2=for'
p549
I1949
sS'dobj=resolution'
p550
I453
sS'advmod=then'
p551
I49
sS'w-2=billion'
p552
I1863
sS'ccomp=withdraw'
p553
I241
sS'w+2=royalty'
p554
I1353
sS'dobj=information'
p555
I409
sS'w-2=prosecutor'
p556
I2082
sS'ccomp=suppress'
p557
I233
sS'dep=contest'
p558
I300
sS'dep=demand'
p559
I301
sS'xcomp=know'
p560
I2214
sS'w-2=palace'
p561
I2059
sS'w+2=vaccine'
p562
I1427
sS'w-2=surge'
p563
I2155
sS'w+1=evolve'
p564
I863
sS'w+2=vietnamese'
p565
I1429
sS'w+2=worker'
p566
I1443
sS'det=all'
p567
I324
sS'w+2=globalized'
p568
I1173
sS'ccomp=return'
p569
I225
sS'prep=within'
p570
I765
sS'w-2=soldier'
p571
I2137
sS'w+1=that'
p572
I962
sS'ccomp=dispatch'
p573
I176
sS'dobj=cut'
p574
I375
sS'w-2=Democrats'
p575
I1766
sS'w-2=militant'
p576
I2028
sS'w-1=say'
p577
I1683
sS'nsubj=Seyoum'
p578
I591
sS'w-2=link'
p579
I2008
sS'w-1=huge'
p580
I1571
sS'advmod=so'
p581
I46
sS'w-2=note'
p582
I2045
sS'w-2=monk'
p583
I2033
sS'advmod=just'
p584
I30
sS'w-2=chase'
p585
I1881
sS'w-1=over'
p586
I1638
sS'nsubj=LRA'
p587
I578
sS'w-2=drop'
p588
I1922
sS'w-2=leader'
p589
I2005
sS'nsubj=China'
p590
I565
sS'w+2=rapidly'
p591
I1320
sS'nsubj=Congress'
p592
I566
sS'w+2=bio-fuel'
p593
I1079
sS'w-2=the'
p594
I2159
sS'dobj=sum'
p595
I480
sS'w-2=reiterate'
p596
I2103
sS'nsubj=leader'
p597
I633
sS'w+1=cash'
p598
I841
sS'w-2=as'
p599
I1854
sS'conj=refocus'
p600
I277
sS'w-2=ignore'
p601
I1975
sS'ccomp=cease'
p602
I167
sS'w+2=petroleum'
p603
I1294
sS'w+2=nine'
p604
I1264
sS'w+2=first'
p605
I1155
sS'w-2=immigrant'
p606
I1977
sS'w-1=blunt'
p607
I1503
sS'w-1=have'
p608
I1568
sS'w-1=core'
p609
I1526
sS'nsubj=editor'
p610
I620
sS'w+2=if'
p611
I1200
sS'w-2=Congo'
p612
I1759
sS'w+2=bill'
p613
I1077
sS'w+2=in'
p614
I1206
sS'w-2=week'
p615
I2186
sS'w-2=record'
p616
I2097
sS'w+2=it'
p617
I1219
sS'w-2=proposal'
p618
I2081
sS'w-2=slow'
p619
I2134
sS'w+2=chinese'
p620
I1093
sS'prep=about'
p621
I742
sS'aux=can'
p622
I146
sS'dobj=rule'
p623
I466
sS'w-2=Israel'
p624
I1786
sS'cc=as'
p625
I155
sS'dep=see'
p626
I315
sS'w-1=public'
p627
I1662
sS'w+2=deployment'
p628
I1121
sS'dep=competition'
p629
I298
sS'w+1=government'
p630
I877
sS'w+2=product'
p631
I1309
sS'dep=resolve'
p632
I313
sS'w+1=cool'
p633
I849
sS'w+2=freeze'
p634
I1165
sS'nsubj=card'
p635
I607
sS'w+2=take'
p636
I1401
sS'w+2=three-year'
p637
I1412
sS'advmod=only'
p638
I38
sS'w-2=neglect'
p639
I2040
sS'w-2=contact'
p640
I1895
sS'w+1=over'
p641
I929
sS'w+2=animal'
p642
I1054
sS'w-2=out'
p643
I2055
sS'w-2=Representatives'
p644
I1812
sS'rcmod=surrender'
p645
I788
sS'w+1=for'
p646
I870
sS'w-2=Turkey'
p647
I1821
sS'dobj=abolition'
p648
I339
sS'conj=end'
p649
I256
sS'w-2=uranium'
p650
I2175
sS'w-2=plant'
p651
I2069
sS'w-1=global'
p652
I1562
sS'w+2=recognition'
p653
I1325
sS'prep=to'
p654
I763
sS'w+2=organization'
p655
I1278
sS'w-2=voter'
p656
I2183
sS'w-2=villager'
p657
I2180
sS'nsubj=kidnapper'
p658
I631
sS'w-1=studio'
p659
I1699
sS'w+2=cruelly'
p660
I1114
sS'w-2=lawmaker'
p661
I2003
sS'w-2=soar'
p662
I2135
sS'w-2=authority'
p663
I1856
sS'w+2=illicit'
p664
I1201
sS'amod=red-hot'
p665
I123
sS'dobj=plan'
p666
I431
sS'w+2=supply'
p667
I1396
sS'w-1=long'
p668
I1603
sS'w+2=increase'
p669
I1208
sS'dobj=restoration'
p670
I454
sS'nsubj=lawmaker'
p671
I632
sS'w+2=lower'
p672
I1242
sS'w+2=removal'
p673
I1332
sS'w+2=for'
p674
I1159
sS'w-2=consumer'
p675
I1894
sS'w-2=about'
p676
I1833
sS'w-1=employee'
p677
I1543
sS'w-2=press'
p678
I2075
sS'dobj=which'
p679
I489
sS'w-2=Democrat'
p680
I1765
sS'w+1=honest'
p681
I887
sS'w+2=we'
p682
I1433
sS'w+1=tough'
p683
I972
sS'w+2=rebel'
p684
I1322
sS'w-2=several'
p685
I2126
sS'dobj=election'
p686
I387
sS'w-2=generation'
p687
I1956
sS'w-1=Muslims'
p688
I1472
sS'w+2=stimulate'
p689
I1391
sS'w-1=Committee'
p690
I1459
sS'w+1=legislation'
p691
I907
sS'w-1=statement'
p692
I1695
sS'w+2=grain'
p693
I1176
sS'poss=group'
p694
I727
sS'nsubj=Britain'
p695
I563
sS'w-2=separatist'
p696
I2124
sS'nn=listing'
p697
I535
sS'ccomp=hold'
p698
I193
sS'nsubj=pirate'
p699
I652
sS'poss=Delhi'
p700
I707
sS'infmod=produce'
p701
I498
sS'dep=effort'
p702
I302
sS'w+1=bribe'
p703
I838
sS'dobj=debate'
p704
I376
sS'det=the'
p705
I327
sS'w+1=very'
p706
I975
sS'w-2=business'
p707
I1870
sS'ccomp=lead'
p708
I200
sS'w+2=progress'
p709
I1311
sS'w-1=repeatedly'
p710
I1678
sS'w-2=rely'
p711
I2105
sS'w+1=behind'
p712
I835
sS'w-2=prisoner'
p713
I2079
sS'poss=Pyongyang'
p714
I720
sS'ccomp=put'
p715
I212
sS'dobj=funding'
p716
I399
sS'advmod=meanwhile'
p717
I34
sS'w-1=worker'
p718
I1732
sS'w+2=soybean'
p719
I1382
sS'dep=which'
p720
I321
sS'dobj=inquiry'
p721
I410
sS'conj=incompetent'
p722
I261
sS'w+2=schedule'
p723
I1360
sS'w-1=greater'
p724
I1564
sS'dobj=lawyer'
p725
I415
sS'w-2=short'
p726
I2129
sS'w-2=fellow'
p727
I1944
sS'w-1=key'
p728
I1591
sS'w-2=american'
p729
I1846
sS'w+2=outspoken'
p730
I1283
sS'nsubj=Chavez'
p731
I564
sS'nsubj=Party'
p732
I586
sS'w-2=Sadr'
p733
I1813
sS'nsubj=soldier'
p734
I671
sS'w+2=rights'
p735
I1350
sS'w+1=call'
p736
I840
sS'w+2=access'
p737
I1041
sS'dobj=profit'
p738
I437
sS'w+2=quickly'
p739
I1317
sS'prep=over'
p740
I760
sS'dobj=protection'
p741
I438
sS'w-1=drive'
p742
I1539
sS'nsubj=Russia'
p743
I589
sS'dep=likely'
p744
I307
sS'w-2=reflect'
p745
I2099
sS'amod=political'
p746
I116
sS'w+1=instead'
p747
I897
sS'conj=give'
p748
I259
sS'w+2=heritage'
p749
I1186
sS'nsubjpass=that'
p750
I688
sS'conj=let'
p751
I263
sS'poss=somebody'
p752
I737
sS'nsubj=voter'
p753
I683
sS'w+2=all-ukrainian'
p754
I1049
sS'w-2=conscience'
p755
I1890
sS'w-1=orator'
p756
I1632
sS'ccomp=be'
p757
I163
sS'poss=Ninjas'
p758
I719
sS'w-1=with'
p759
I1730
sS'w-2=continue'
p760
I1897
sS'w+2=owe'
p761
I1286
sS'w+2=own'
p762
I1287
sS'advmod=repeatedly'
p763
I45
sS'nsubj=minister'
p764
I637
sS'ccomp=wait'
p765
I239
sS'w-1=ever-growing'
p766
I1549
sS'w-1=peace-deal'
p767
I1646
sS'w+2=talk'
p768
I1402
sS'w-2=its'
p769
I1992
sS'w-1=Saleh'
p770
I1476
sS'w+2=accuse'
p771
I1044
sS'w-2=voice'
p772
I2181
sS'w-1=in'
p773
I1574
sS'w+2=state'
p774
I1387
sS'amod=surge'
p775
I134
sS'dobj=ouster'
p776
I425
sS'w+2=uranium'
p777
I1425
sS'w-2=United'
p778
I1826
sS'w-1=the'
p779
I1705
sS'w-2=over'
p780
I2057
sS'w+2=stop'
p781
I1392
sS'w-1=threat'
p782
I1711
sS'w+2=skilled'
p783
I1375
sS'w-2=weapon'
p784
I2185
sS'w+2=say'
p785
I1358
sS'ccomp=send'
p786
I227
sS'nsubj=state'
p787
I673
sS'w-1=worldwide'
p788
I1734
sS'nsubj=Ankara'
p789
I556
sS'w-2=pressure'
p790
I2076
sS'w-2=estimate'
p791
I1934
sS'w+2=organic'
p792
I1277
sS'w+2=basic'
p793
I1069
sS'w-2=fighter'
p794
I1945
sS'dobj=lot'
p795
I417
sS'w+2=Galvao'
p796
I1003
sS'partmod=surround'
p797
I700
sS'nsubj=legality'
p798
I634
sS'w+2=clean'
p799
I1095
sS'w+2=year'
p800
I1447
sS'w+2=eventual'
p801
I1144
sS'conj=#PRP#'
p802
I244
sS'w-2=opposition'
p803
I2051
sS'ccomp=ask'
p804
I162
sS'w+1=guarantee'
p805
I880
sS'w-2=renew'
p806
I2106
sS'w+1=to'
p807
I969
sS'w+2=Hezbollah'
p808
I1006
sS'w+2=he'
p809
I1184
sS'w-2=Barak'
p810
I1749
sS'conj=resource'
p811
I278
sS'appos=item'
p812
I143
sS'ccomp=replace'
p813
I221
sS'w+2=Washington'
p814
I1035
sS'w-2=bombing'
p815
I1864
sS'w+1=immediate'
p816
I890
sS'w+1=include'
p817
I892
sS'w-2=consideration'
p818
I1893
sS'w-2=put'
p819
I2088
sS'w+1=expect'
p820
I865
sS'w-1=measure'
p821
I1614
sS'w+2=resignation'
p822
I1339
sS'dobj=cash'
p823
I362
sS'w-2=Ankara'
p824
I1744
sS'nsubj=tribe'
p825
I679
sS'w+2=very'
p826
I1428
sS'nsubj=ministry'
p827
I638
sS'w-2=consider'
p828
I1892
sS'w-2=resident'
p829
I2110
sS'nsubj=recognition'
p830
I663
sS'w-2=although'
p831
I1845
sS'nsubj=congress'
p832
I614
sS'w+2=better'
p833
I1075
sS'w+2=chore'
p834
I1094
sS'ccomp=stand'
p835
I229
sS'w-2=state'
p836
I2143
sS'w+2=500'
p837
I990
sS'ccomp=declare'
p838
I172
sS'w+2=nothing'
p839
I1268
sS'ccomp=reduce'
p840
I216
sS'w+2=those'
p841
I1411
sS'w+2=its'
p842
I1220
sS'tmod=day'
p843
I791
sS'w-2=rule'
p844
I2118
sS'nsubj=Hamas'
p845
I572
sS'w-2=hear'
p846
I1967
sS'w-1=controversial'
p847
I1525
sS'w-1=militant'
p848
I1616
sS'ccomp=suspend'
p849
I234
sS'w+2=speedy'
p850
I1385
sS'w+1=flexibility'
p851
I868
sS'w-2=Ukrainians'
p852
I1824
sS'w-2=decade'
p853
I1908
sS'w-2=previous'
p854
I2077
sS'w+2=restriction'
p855
I1341
sS'w-1=repeated'
p856
I1677
sS'conj=complain'
p857
I248
sS'nsubj=relative'
p858
I665
sS'w-2=50,000'
p859
I1742
sS'w+2=U.N.'
p860
I1032
sS'w+2=over'
p861
I1284
sS'w-2=Middle'
p862
I1797
sS'dep=symbol'
p863
I318
sS'w+2=many'
p864
I1246
sS'w-1=lead'
p865
I1598
sS'advmod=badly'
p866
I24
sS'w-2=urgency'
p867
I2176
sS'nsubj=States'
p868
I594
sS'ccomp=stay'
p869
I230
sS'amod=global'
p870
I79
sS'w-1=energy'
p871
I1544
sS'w-2=though'
p872
I2163
sS'w+2=profit'
p873
I1310
sS'w+2=scene'
p874
I1359
sS'dobj=change'
p875
I363
sS'dobj=probe'
p876
I436
sS'w-2=plan'
p877
I2068
sS'w-2=earlier'
p878
I1925
sS'conj=urge'
p879
I285
sS'w+2=off'
p880
I1271
sS'w-2=China'
p881
I1758
sS'dobj=attention'
p882
I355
sS'rcmod=resign'
p883
I784
sS'w-1=institutional'
p884
I1581
sS'ccomp=close'
p885
I168
sS'w-2=prompt'
p886
I2080
sS'w+1=stop'
p887
I957
sS'rcmod=face'
p888
I774
sS'w+2=private'
p889
I1306
sS'amod=rebel'
p890
I121
sS'infmod=revise'
p891
I499
sS'w-2=1593'
p892
I1741
sS'amod=national'
p893
I108
sS'w-2=extremist'
p894
I1940
sS'dep=among'
p895
I293
sS'w-1=prominently'
p896
I1659
sS'w-2=recognize'
p897
I2096
sS'conj=difficulty'
p898
I254
sS'amod=low'
p899
I102
sS'w+2=resign'
p900
I1338
sS'rcmod=submit'
p901
I787
sS'w-1=originally'
p902
I1635
sS'w-2=export'
p903
I1939
sS'w-1=national'
p904
I1622
sS'poss=Israel'
p905
I714
sS'w-1=refuse'
p906
I1672
sS'w-2=Pyongyang'
p907
I1810
sS'w+1=may'
p908
I913
sS'w-2=Sharif'
p909
I1816
sS'w-2=gap'
p910
I1955
sS'w+1=rights'
p911
I945
sS'ccomp=stop'
p912
I232
sS'w-1=ransom'
p913
I1666
sS'xcomp=take'
p914
I2224
sS'w+2=asian'
p915
I1063
sS'poss=party'
p916
I733
sS'nsubj=Democrats'
p917
I568
sS'amod=various'
p918
I140
sS'w+2=know'
p919
I1225
sS'poss=captor'
p920
I723
sS'dobj=bill'
p921
I357
sS'w-2=slogan'
p922
I2133
sS'w-2=pirate'
p923
I2066
sS'w+2=some'
p924
I1380
sS'nsubj=official'
p925
I645
sS'nsubj=Romeo'
p926
I588
sS'w+1=training'
p927
I973
sS'w-1=these'
p928
I1707
sS'w+2=go'
p929
I1174
sS'w+2=bigger'
p930
I1076
sS'cc=but'
p931
I156
sS'w+2=leaf'
p932
I1231
sS'nsubj=villager'
p933
I682
sS'amod=own'
p934
I113
sS'nsubj=co-chair'
p935
I611
sS'nn=rebel'
p936
I547
sS'w-2=besides'
p937
I1862
sS'w-2=Lumpur'
p938
I1794
sS'w+2=organizer'
p939
I1280
sS'advmod=additionally'
p940
I20
sS'rcmod=accuse'
p941
I769
sS'rcmod=likely'
p942
I780
sS'w-1=union'
p943
I1718
sS'dobj=state'
p944
I475
sS'w+2=Brussels'
p945
I994
sS'nsubj=development'
p946
I619
sS'xcomp=unharmed'
p947
I2226
sS'amod=tremendous'
p948
I137
sS'w+1=overseas'
p949
I931
sS'w+1=come'
p950
I845
sS'w-2=crisis'
p951
I1903
sS'conj=detail'
p952
I253
sS'w-2=rate'
p953
I2091
sS'w+2=crop'
p954
I1112
sS'w+2=unnecessary'
p955
I1423
sS'w+2=energy'
p956
I1135
sS'w+2=Conte'
p957
I999
sS'w+2=which'
p958
I1437
sS'w+2=high-protein'
p959
I1189
sS'w+2=type'
p960
I1419
sS"w+1=''"
p961
I794
sS'partmod=chant'
p962
I692
sS'conj=ensure'
p963
I257
sS'w+2=labor'
p964
I1227
sS'conj=strength'
p965
I281
sS'dobj=chore'
p966
I365
sS'nsubj=resident'
p967
I667
sS'w+2=hold'
p968
I1193
sS'w+1=democracy'
p969
I850
sS'w+1=urgent'
p970
I974
sS'amod=european'
p971
I72
sS'poss=militant'
p972
I731
sS'w+2=smaller'
p973
I1376
sS'w-1=for'
p974
I1557
sS'xcomp=match'
p975
I2217
sS'w+2=organize'
p976
I1279
sS'w+2=Missiriya'
p977
I1014
sS'w-2=machete'
p978
I2017
sS'w+1=force'
p979
I871
sS'w+2=Kenya'
p980
I1011
sS'dep=repeal'
p981
I312
sS'w+2=less'
p982
I1236
sS'w+2=right'
p983
I1349
sS'w-2=Hamas'
p984
I1778
sS'w-1=who'
p985
I1728
sS'w-2=avoid'
p986
I1857
sS'dobj=safeguard'
p987
I467
sS'nsubj=FNL'
p988
I570
sS'w+2=up'
p989
I1424
sS'nsubj=negotiator'
p990
I641
sS'w+2=housing'
p991
I1198
sS'w-2=could'
p992
I1899
sS'nn=Consumer'
p993
I510
sS'ccomp=justify'
p994
I197
sS'advcl=accuse'
p995
I1
sS'w-2=large'
p996
I1999
sS'w-2=Carstairs'
p997
I1756
sS'w+1=electoral'
p998
I859
sS'w-2=emphasize'
p999
I1931
sS'w-1=political'
p1000
I1651
sS'w-2=vote'
p1001
I2182
sS'w-2=contend'
p1002
I1896
sS'w+2=hotel'
p1003
I1197
sS'w+2=troops'
p1004
I1418
sS'amod=latest'
p1005
I95
sS'w-2=Qabbani'
p1006
I1811
sS'w+1=more'
p1007
I916
sS'w+1=with'
p1008
I980
sS'dobj=recognition'
p1009
I442
sS'w-2=much'
p1010
I2038
sS'w+2=face'
p1011
I1152
sS'w-2=,'
p1012
I1738
sS'w-2=.'
p1013
I1739
sS'w-2=Monday'
p1014
I1799
sS'w+2=Iraq'
p1015
I1009
sS'w+2=timetable'
p1016
I1413
sS'aux=have'
p1017
I148
sS'poss=shirt'
p1018
I735
sS'w+2=joint'
p1019
I1222
sS'w+2=6,000'
p1020
I991
sS'w+2=Iran'
p1021
I1008
sS'w-2=Union'
p1022
I1825
sS'nsubj=clause'
p1023
I610
sS'w-2=satisfy'
p1024
I2120
sS'w+2=United'
p1025
I1034
sS'w+1=follow'
p1026
I869
sS'conj=try'
p1027
I284
sS'w-1=original'
p1028
I1634
sS'amod=chinese'
p1029
I62
sS'w-1=consumer'
p1030
I1523
sS'nn=union'
p1031
I549
sS'w-2=follow'
p1032
I1947
sS'w-2=ethnic'
p1033
I1935
sS'dep=activity'
p1034
I290
sS'w-2=dry'
p1035
I1923
sS'dobj=rights'
p1036
I463
sS'w-2=a'
p1037
I1832
sS'w+1=fuel'
p1038
I876
sS'w-1=Sharif'
p1039
I1478
sS'w-2=lot'
p1040
I2014
sS'dobj=deployment'
p1041
I380
sS'amod=palestinian'
p1042
I114
sS'dobj=inclusion'
p1043
I406
sS'w-2=spike'
p1044
I2141
sS'nsubj=democrat'
p1045
I618
sS'dobj=overhaul'
p1046
I426
sS'w-2=make'
p1047
I2019
sS'w+2=green'
p1048
I1179
sS'w-1=he'
p1049
I1569
sS'amod=soar'
p1050
I131
sS'w-2=society'
p1051
I2136
sS'nn=world'
p1052
I551
sS'w+1=from'
p1053
I875
sS'w-2=list'
p1054
I2009
sS'nsubj=plan'
p1055
I653
sS'dobj=ransom'
p1056
I440
sS'w+2=police'
p1057
I1297
sS'conj=movement'
p1058
I268
sS'nn=deal'
p1059
I525
sS'w+2=surrender'
p1060
I1397
sS'w+2=immediate'
p1061
I1202
sS'ccomp=hand'
p1062
I191
sS'w+2=solar'
p1063
I1378
sS'dobj=commitment'
p1064
I366
sS'conj=policy'
p1065
I272
sS'ccomp=do'
p1066
I178
sS'dobj=vote'
p1067
I485
sS'w-2=political'
p1068
I2070
sS'w-2=drive'
p1069
I1921
sS'w+2=Tuaregs'
p1070
I1031
sS'w-2=Kurds'
p1071
I1791
sS'w-2=captor'
p1072
I1875
sS'w+2=significant'
p1073
I1372
sS'nn=ethanol'
p1074
I528
sS'w-2=this'
p1075
I2162
sS'nsubj=abductor'
p1076
I601
sS'w+2=granite'
p1077
I1177
sS'w+2=apologize'
p1078
I1057
sS'w-2=lawyer'
p1079
I2004
sS'nsubj=situation'
p1080
I669
sS'prep=from'
p1081
I754
sS'nn=secession'
p1082
I548
sS'w+1=when'
p1083
I977
sS'rcmod=include'
p1084
I778
sS'w-1=Kiir'
p1085
I1466
sS'nn=Council'
p1086
I511
sS'w+2=working'
p1087
I1444
sS'w-2=push'
p1088
I2087
sS'w+2=opposition'
p1089
I1276
sS'w+1=resolution'
p1090
I942
sS'w+2=Mr.'
p1091
I1015
sS'dobj=dismissal'
p1092
I383
sS'w-1=sustained'
p1093
I1702
sS'w+2=Sri'
p1094
I1029
sS'w+1=,'
p1095
I795
sS'w+1=.'
p1096
I797
sS'w-2=clear'
p1097
I1882
sS'w+2=home'
p1098
I1194
sS'w-2=Ninjas'
p1099
I1805
sS'w-2=such'
p1100
I2151
sS'ccomp=lay'
p1101
I199
sS'w+1=:'
p1102
I798
sS'ccomp=restructure'
p1103
I224
sS'w+2=recognize'
p1104
I1326
sS'w-1=surge'
p1105
I1701
sS'rcmod=call'
p1106
I772
sS'w-2=high'
p1107
I1970
sS'w+2=representative'
p1108
I1337
sS'w-2=Australians'
p1109
I1748
sS'w+2=complete'
p1110
I1102
sS'mark=with'
p1111
I508
sS'w+1=a'
p1112
I815
sS'w+1=`'
p1113
I814
sS'w-1=weekend'
p1114
I1724
sS'w-1=later'
p1115
I1594
sS'w+1=he'
p1116
I883
sS'w+1=drive'
p1117
I856
sS'w-2=because'
p1118
I1861
sS'w-1=that'
p1119
I1704
sS'w-2=memorandum'
p1120
I2025
sS'amod=certain'
p1121
I61
sS'dobj=answer'
p1122
I349
sS'dobj=right'
p1123
I462
sS'amod=kurdish'
p1124
I93
sS'w-2=administration'
p1125
I1836
sS'w-2=people'
p1126
I2062
sS'w-2=itself'
p1127
I1993
sS'w+2=creation'
p1128
I1111
sS'w-1=less'
p1129
I1601
sS'advmod=virtually'
p1130
I50
sS'w+1=regard'
p1131
I940
sS'w+1=level'
p1132
I908
sS'w+1=amnesty'
p1133
I823
sS'w-2=when'
p1134
I2188
sS'w-1=border'
p1135
I1504
sS'dobj=explanation'
p1136
I392
sS'w+2=subpoena'
p1137
I1394
sS'w+1=punishment'
p1138
I937
sS'dobj=accounting'
p1139
I342
sS'w-2=base'
p1140
I1859
sS'w-1=Nations'
p1141
I1473
sS'w+1=specific'
p1142
I956
sS'amod=rise'
p1143
I126
sS'purpcl=mark'
p1144
I768
sS'w+1=investigationthe'
p1145
I900
sS'w+2=constantly'
p1146
I1105
sS'w+2=industry'
p1147
I1213
sS'w-1=market'
p1148
I1612
sS'ccomp=disclose'
p1149
I175
sS'w-2=Chavez'
p1150
I1757
sS'w+2=closure'
p1151
I1097
sS'nsubj=council'
p1152
I615
sS'w-2=Bhopal'
p1153
I1750
sS'w+1=top'
p1154
I971
sS'w+1=these'
p1155
I965
sS'w-2=from'
p1156
I1952
sS'w+1=too'
p1157
I970
sS'w-2=we'
p1158
I2184
sS'w-2=fall'
p1159
I1942
sS'conj=encourage'
p1160
I255
sS'w-2=price'
p1161
I2078
sS'w-2=despite'
p1162
I1914
sS'w-2=movement'
p1163
I2037
sS'w+2=begin'
p1164
I1073
sS'dobj=penalty'
p1165
I429
sS'w+1=continue'
p1166
I848
sS'w+1=overstep'
p1167
I932
sS'w-2=Council'
p1168
I1761
sS'w-2=power'
p1169
I2072
sS'xcomp=affect'
p1170
I2205
sS'w-2=examine'
p1171
I1938
sS'w-2=headquarters'
p1172
I1966
sS'w+1=closer'
p1173
I844
sS'w-1=palestinian'
p1174
I1641
sS'w-1=Maoists'
p1175
I1470
sS'advcl=take'
p1176
I18
sS'w+2=country'
p1177
I1110
sS'w+2=to'
p1178
I1414
sS'dobj=aid'
p1179
I346
sS'w-2=home'
p1180
I1972
sS'dobj=air'
p1181
I347
sS'w-1=its'
p1182
I1587
sS'w+1=justice'
p1183
I904
sS'conj=need'
p1184
I269
sS'w+1=money'
p1185
I915
sS'ccomp=go'
p1186
I189
sS'w-2=light'
p1187
I2007
sS'w-1=Kolkata'
p1188
I1468
sS'w-1=human'
p1189
I1572
sS'w-1=Zimbabwe'
p1190
I1485
sS'w+2=staple'
p1191
I1386
sS'ccomp=cancel'
p1192
I166
sS'xcomp=describe'
p1193
I2208
sS'complm=that'
p1194
I242
sS'w-1=really'
p1195
I1667
sS'w+2=monarchy'
p1196
I1255
sS'dep=of'
p1197
I308
sS'w+2=world'
p1198
I1445
sS'w+2=become'
p1199
I1072
sS'w+2=will'
p1200
I1439
sS'poss=other'
p1201
I732
sS'w-2=to'
p1202
I2166
sS'dep=order'
p1203
I309
sS'w+2=President'
p1204
I1024
sS'dobj=flexibility'
p1205
I396
sS'w-2=election'
p1206
I1929
sS'dobj=arrest'
p1207
I353
sS'dobj=apology'
p1208
I351
sS'w-1=raise'
p1209
I1664
sS'w-1=demonstration'
p1210
I1534
sS'amod=tough'
p1211
I136
sS'w+2=self-determination'
p1212
I1364
sS'w+1=they'
p1213
I966
sS'nsubj=Israel'
p1214
I574
sS'dobj=record'
p1215
I443
sS'amod=legal'
p1216
I96
sS'w-2=demonstration'
p1217
I1913
sS'prep=in'
p1218
I755
sS'w-1=popular'
p1219
I1652
sS'partmod=accuse'
p1220
I691
sS'w-1=about'
p1221
I1487
sS'w-2=mend'
p1222
I2026
sS'w-1=strong'
p1223
I1698
sS'w+2=land'
p1224
I1228
sS'w-1=community'
p1225
I1518
sS'w+1=antibiotic'
p1226
I826
sS'w+1=grow'
p1227
I879
sS'dobj=expulsion'
p1228
I393
sS'amod=original'
p1229
I110
sS'w+2=political'
p1230
I1298
sS'w+2=arrest'
p1231
I1061
sS'w-2=meeting'
p1232
I2024
sS'dobj=result'
p1233
I455
sS'w+2=water'
p1234
I1432
sS'w+2=congressional'
p1235
I1104
sS'dobj=more'
p1236
I421
sS'w+1=Pyongyang'
p1237
I808
sS'w-1=it'
p1238
I1586
sS'num=$'
p1239
I690
sS'ccomp=free'
p1240
I185
sS'w-2=government'
p1241
I1960
sS'det=this'
p1242
I329
sS'amod=key'
p1243
I92
sS'w-2=confederation'
p1244
I1887
sS'w+2=soon'
p1245
I1381
sS'nn=ransom'
p1246
I546
sS'w-2=Security'
p1247
I1814
sS'mark=if'
p1248
I504
sS'w-1=Seyoum'
p1249
I1477
sS'dobj=role'
p1250
I464
sS'mark=in'
p1251
I505
sS'conj=production'
p1252
I274
sS'nsubj=Sibanda'
p1253
I593
sS'w-2=mnj'
p1254
I2032
sS'w+2=now'
p1255
I1269
sS'w+2=not'
p1256
I1267
sS'ccomp=failing'
p1257
I182
sS'w+2=company'
p1258
I1101
sS'rcmod=suspect'
p1259
I789
sS'w+2=Attorney'
p1260
I993
sS'w+2=lot'
p1261
I1241
sS'amod=american'
p1262
I57
sS'nsubj=deadline'
p1263
I617
sS'rcmod=be'
p1264
I771
sS'w-2=message'
p1265
I2027
sS'dep=say'
p1266
I314
sS'w-1=bill'
p1267
I1502
sS'w+2=higher'
p1268
I1190
sS'w-2=disruptive'
p1269
I1919
sS'w-1=Consumer'
p1270
I1460
sS'det=these'
p1271
I328
sS'w+2=job'
p1272
I1221
sS'w+1=condition'
p1273
I847
sS'w+2=Kibaki'
p1274
I1012
sS'w-2=ever-growing'
p1275
I1937
sS'w-2=sanction'
p1276
I2119
sS'w+1=factor'
p1277
I866
sS'w-2=throughout'
p1278
I2164
sS'w+2=regional'
p1279
I1328
sS'dobj=power'
p1280
I434
sS'w-2=or'
p1281
I2052
sS'prep=along'
p1282
I745
sS'nsubj=who'
p1283
I685
sS'w-2=of'
p1284
I2046
sS'w-2=country'
p1285
I1901
sS'w-2=on'
p1286
I2050
sS'w-2=union'
p1287
I2170
sS'amod=basic'
p1288
I58
sS'advmod=instead'
p1289
I29
sS'w+2=release'
p1290
I1329
sS'nsubj=party'
p1291
I647
sS'w+2=suspect'
p1292
I1399
sS'w+1=police'
p1293
I936
sS'nn=core'
p1294
I523
sS'w-2=prepare'
p1295
I2073
sS'dobj=negotiation'
p1296
I422
sS'dep=close'
p1297
I297
sS'ccomp=reinstate'
p1298
I218
sS'w+2=revise'
p1299
I1347
sS'w-2=attack'
p1300
I1855
sS'w-1=reduce'
p1301
I1670
sS'ccomp=resign'
p1302
I222
sS'amod=grow'
p1303
I82
sS'aux=must'
p1304
I149
sS'w+1=as'
p1305
I827
sS'amod=tuareg'
p1306
I138
sS'w+2=safeguard'
p1307
I1357
sS'w+1=at'
p1308
I829
sS'w+2=defeat'
p1309
I1118
sS'conj=comply'
p1310
I249
sS'w-2=cool'
p1311
I1898
sS'nsubj=House'
p1312
I573
sS'w-1=own'
p1313
I1640
sS'w+2=so'
p1314
I1377
sS'amod=excessive'
p1315
I75
sS'w-2=again'
p1316
I1838
sS'conj=lose'
p1317
I266
sS'dobj=independence'
p1318
I408
sS'w+2=unfair'
p1319
I1422
sS'w+2=explanation'
p1320
I1150
sS'infmod=send'
p1321
I500
sS'dobj=defeat'
p1322
I377
sS'w-1=can'
p1323
I1511
sS'w-1=grow'
p1324
I1566
sS'w-1=reject'
p1325
I1674
sS'w+2=all-ukranian'
p1326
I1050
sS'w-1=rise'
p1327
I1681
sS'w-1=lawmaker'
p1328
I1596
sS'w-2=start'
p1329
I2142
sS'w-1=those'
p1330
I1710
sS'advmod=when'
p1331
I52
sS'det=those'
p1332
I330
sS'nsubj=Forum'
p1333
I571
sS'w-2=support'
p1334
I2154
sS'amod=sufficient'
p1335
I133
sS'w-2=maintain'
p1336
I2018
sS'w-2=key'
p1337
I1997
sS'w+1=we'
p1338
I976
sS'w-2=even'
p1339
I1936
sS'w+2=oil'
p1340
I1274
sS'nsubj=al-Sadr'
p1341
I604
sS'advcl=provide'
p1342
I15
sS'nsubj=Syria'
p1343
I595
sS'w-2=North'
p1344
I1806
sS'advmod=initially'
p1345
I28
sS'amod=brazilian'
p1346
I60
sS'nsubj=pilgrim'
p1347
I651
sS'dep=leave'
p1348
I306
sS'auxpass=be'
p1349
I153
sS"w-1='s"
p1350
I1451
sS'w-1=brazilian'
p1351
I1505
sS'nsubj=front'
p1352
I624
sS'ccomp=improve'
p1353
I196
sS'w+1=set'
p1354
I948
sS'w-2=forgive'
p1355
I1951
sS'w+2=georgian'
p1356
I1170
sS'poss=Australia'
p1357
I703
sS'w-2=last'
p1358
I2000
sS'w+1=there'
p1359
I964
sS'nsubj=Australia'
p1360
I558
sS'w+1=rise'
p1361
I946
sS'w-2=fulfill'
p1362
I1954
sS'nsubj=#NUMBER#'
p1363
I553
sS'ccomp=eliminate'
p1364
I180
sS'w-2=LRA'
p1365
I1792
sS'dep=apologize'
p1366
I294
sS'w-2=Syria'
p1367
I1819
sS'w+1=its'
p1368
I903
sS'w+2=cheap'
p1369
I1092
sS'poss=rebel'
p1370
I734
sS'w-1=U.N.'
p1371
I1482
sS'dobj=what'
p1372
I488
sS'w-2=local'
p1373
I2012
sS"w-1=''"
p1374
I1450
sS'w+1=General'
p1375
I802
sS'w-1=satisfy'
p1376
I1682
sS'w-2=place'
p1377
I2067
sS'w-2=most'
p1378
I2036
sS'w-2=Pakistan'
p1379
I1808
sS'ccomp=halt'
p1380
I190
sS"w-2=''"
p1381
I1736
sS'nsubj=this'
p1382
I678
sS'dobj=government'
p1383
I401
sS'w-2=Odinga'
p1384
I1807
sS'w-2=Vatican'
p1385
I1827
sS'w+2=manufacture'
p1386
I1245
sS'w-2=justice'
p1387
I1996
sS'w+2=Gonzales'
p1388
I1005
sS'amod=major'
p1389
I104
sS'w+1=except'
p1390
I864
sS'w-2=repeatedly'
p1391
I2108
sS'w+2=make'
p1392
I1243
sS'partmod=come'
p1393
I694
sS'nsubj=#DATE#'
p1394
I552
sS'dobj=constitution'
p1395
I372
sS'w+2=grow'
p1396
I1180
sS'w-2=there'
p1397
I2160
sS'infmod=give'
p1398
I497
sS'ccomp=raise'
p1399
I213
sS'w+2=limit'
p1400
I1238
sS'w+2=american'
p1401
I1052
sS'w-2=campaign'
p1402
I1874
sS'w-1=slow'
p1403
I1692
sS'nn=U.S.'
p1404
I515
sS"w-2='s"
p1405
I1737
sS'nsubj=which'
p1406
I684
sS'w-2=Blair'
p1407
I1752
sS'w-1=trigger'
p1408
I1716
sS'w+1=ransom'
p1409
I938
sS'w-2=Zimbabwe'
p1410
I1831
sS'advmod=closer'
p1411
I25
sS'w-1=Kinshasa'
p1412
I1467
sS'rcmod=put'
p1413
I782
sS'dep=surrender'
p1414
I317
sS'w-1=gunman'
p1415
I1567
sS'w+1=international'
p1416
I898
sS'w+1=because'
p1417
I833
sS'w-1=listing'
p1418
I1602
sS'ccomp=bring'
p1419
I165
sS'w-1=embassy'
p1420
I1542
sS'w+2=South'
p1421
I1028
sS'rcmod=kind'
p1422
I779
sS'w-1=red-hot'
p1423
I1669
sS'poss=Council'
p1424
I706
sS'w-1=Tuareg'
p1425
I1481
sS'w+1=revenge'
p1426
I944
sS'amod=significant'
p1427
I129
sS'w+2=send'
p1428
I1365
sS'w+2=retaliation'
p1429
I1343
sS'w+2=Daniels'
p1430
I1000
sS'w+2=promoter'
p1431
I1312
sS'xcomp=wield'
p1432
I2227
sS'w+2=reciprocity'
p1433
I1324
sS'w-2=which'
p1434
I2191
sS'dobj=goods'
p1435
I400
sS'rcmod=grow'
p1436
I776
sS'amod=ever-higher'
p1437
I74
sS'w+2=domestic'
p1438
I1129
sS'ccomp=recognize'
p1439
I215
sS'amod=overall'
p1440
I112
sS'nsubj=some'
p1441
I672
sS'ccomp=impose'
p1442
I195
sS'w-1=opposition'
p1443
I1630
sS'xcomp=protect'
p1444
I2219
sS'w+2=local'
p1445
I1240
sS'w-2=Hollande'
p1446
I1780
sS'aux=will'
p1447
I152
sS'ccomp=get'
p1448
I187
sS'w-1=Bhutto'
p1449
I1457
sS'nsubj=Council'
p1450
I567
sS'prep=with'
p1451
I764
sS'amod=previous'
p1452
I119
sS'xcomp=suspend'
p1453
I2223
sS'amod=commercial'
p1454
I63
sS'w-2=protestor'
p1455
I2085
sS'w-1=Tsvangirai'
p1456
I1480
sS'amod=long-standing'
p1457
I100
sS'w-2=India'
p1458
I1783
sS'w+2=highlight'
p1459
I1192
sS'w-2=demonstrate'
p1460
I1912
sS'dep=year'
p1461
I322
sS'w+1=Ethiopia'
p1462
I801
sS'w+1=occupation'
p1463
I921
sS'w-2=little'
p1464
I2010
sS'w+2=do'
p1465
I1128
sS'w+1=show-trial'
p1466
I951
sS'w-1=shrink'
p1467
I1689
sS'w+2=step'
p1468
I1389
sS'w+2=fossil'
p1469
I1164
sS'w-2=Arbour'
p1470
I1746
sS'w+2=departure'
p1471
I1120
sS'w-2=Harare'
p1472
I1779
sS'w+2=place'
p1473
I1295
sS'amod=enormous'
p1474
I71
sS'dobj=count'
p1475
I373
sS'w+1=Vershbow'
p1476
I813
sS'amod=current'
p1477
I69
sS'w+2=tortilla'
p1478
I1415
sS'w-2=student'
p1479
I2149
sS'partmod=make'
p1480
I698
sS'xcomp=hear'
p1481
I2209
sS'w+2=priceshigher'
p1482
I1304
sS'w+1=increase'
p1483
I894
sS'nn=export'
p1484
I529
sS'cc=and'
p1485
I154
sS'conj=people'
p1486
I271
sS'w-2=certain'
p1487
I1880
sS'w-2=Tiger'
p1488
I1820
sS'w+1=by'
p1489
I839
sS'w+1=be'
p1490
I832
sS'w-1=week'
p1491
I1723
sS'w-2=british'
p1492
I1868
sS'w+1=enormous'
p1493
I860
sS'w-1=clause'
p1494
I1516
sS'w-2=without'
p1495
I2199
sS'w-2=officer'
p1496
I2048
sS'conj=say'
p1497
I280
sS'ccomp=nullify'
p1498
I206
sS'w-2=Congress'
p1499
I1760
sS'nsubj=republican'
p1500
I666
sS'w+2=Syria'
p1501
I1030
sS'w+1=Iran'
p1502
I803
sS'nsubj=Blair'
p1503
I562
sS'w-2=see'
p1504
I2123
sS'w+1=into'
p1505
I899
sS'w-2=set'
p1506
I2125
sS'w-2=revolt'
p1507
I2114
sS'rcmod=testify'
p1508
I790
sS'w-2=bristle'
p1509
I1867
sS'w-2=party'
p1510
I2060
sS'ccomp=step'
p1511
I231
sS'w-2=bring'
p1512
I1866
sS'aux=could'
p1513
I147
sS'dobj=say'
p1514
I468
sS'w-1=kurdish'
p1515
I1593
sS'w-1=enormous'
p1516
I1545
sS'w+2=China'
p1517
I997
sS'poss=union'
p1518
I738
sS'amod=iranian'
p1519
I90
sS'dep=pressure'
p1520
I310
sS'w-1=Musharraf'
p1521
I1471
sS'nn=Zimbabwe'
p1522
I516
sS'w-1=passenger'
p1523
I1645
sS'w+2=service'
p1524
I1368
sS'prep=of'
p1525
I758
sS'prep=on'
p1526
I759
sS'rcmod=help'
p1527
I777
sS'w+2=implement'
p1528
I1204
sS'w+2=Prime'
p1529
I1025
sS'nsubj=uprising'
p1530
I681
sS'w-2=company'
p1531
I1886
sS'dobj=security'
p1532
I470
sS'w-1=issue'
p1533
I1585
sS'w+1=severance'
p1534
I949
sS'amod=international'
p1535
I89
sS'w+2=election'
p1536
I1130
sS'w-2=law'
p1537
I2002
sS'w-2=never'
p1538
I2042
sS'nsubj=extremist'
p1539
I621
sS'nsubj=woman'
p1540
I686
sS'w-2=talk'
p1541
I2156
sS'appos=manufacturer'
p1542
I144
sS'w+2=that'
p1543
I1405
sS'w+2=also'
p1544
I1051
sS'amod=more'
p1545
I107
sS'ccomp=abolish'
p1546
I159
sS'w+2=and'
p1547
I1053
sS'w-1=export'
p1548
I1552
sS'dobj=president'
p1549
I435
sS'w-1=or'
p1550
I1631
sS'nsubj=administration'
p1551
I603
sS'w-1=stop'
p1552
I1696
sS'w-1=chinese'
p1553
I1515
sS'w-2=affect'
p1554
I1837
sS'w-1=month'
p1555
I1617
sS'w-1=of'
p1556
I1626
sS'nsubj=police'
p1557
I655
sS'w-2=Kouyate'
p1558
I1790
sS'ccomp=dependent'
p1559
I173
sS'w-2=more'
p1560
I2035
sS'w-1=on'
p1561
I1629
sS'w+2=end'
p1562
I1133
sS'w+2=bonus'
p1563
I1081
sS'prt=back'
p1564
I767
sS'amod=shrink'
p1565
I128
sS'w+1=this'
p1566
I967
sS'dobj=remuneration'
p1567
I449
sS'dobj=agreement'
p1568
I345
sS'nn=party'
p1569
I543
sS'advmod=now'
p1570
I37
sS'w-2=result'
p1571
I2113
sS'w+2=law'
p1572
I1230
sS'w-2=will'
p1573
I2196
sS'amod=legitimate'
p1574
I98
sS'w-2=Maoists'
p1575
I1795
sS'rcmod=approve'
p1576
I770
sS'w+2=secure'
p1577
I1361
sS'w-1=physically'
p1578
I1648
sS'advcl=beat'
p1579
I4
sS'amod=controversial'
p1580
I67
sS'w-2=performer'
p1581
I2064
sS'poss=conservative'
p1582
I724
sS'ccomp=fulfill'
p1583
I186
sS'partmod=say'
p1584
I699
sS'w-2=not'
p1585
I2044
sS'w-2=while'
p1586
I2192
sS'dobj=food'
p1587
I397
sS'dobj=review'
p1588
I460
sS'amod=human'
p1589
I85
sS'w-2=rican'
p1590
I2115
sS'w+1=strain'
p1591
I958
sS'ccomp=war'
p1592
I240
sS'w+2=investor'
p1593
I1218
sS'w-2=Gaza'
p1594
I1773
sS'w-1=also'
p1595
I1492
sS'nsubj=side'
p1596
I668
sS'w-1=compete'
p1597
I1520
sS'nsubj=Palestinians'
p1598
I584
sS'w+2=no'
p1599
I1266
sS'nsubj=peace'
p1600
I649
sS'w+1=during'
p1601
I857
sS'advcl=make'
p1602
I13
sS'w+1=change'
p1603
I843
sS'w+1=democratic'
p1604
I851
sS'w-2=until'
p1605
I2173
sS'w-1=oil'
p1606
I1628
sS'det=a'
p1607
I323
sS'w+2=sharply'
p1608
I1370
sS'w-2=Court'
p1609
I1762
sS'dep=want'
p1610
I320
sS'w-2=massive'
p1611
I2021
sS'amod=compete'
p1612
I64
sS'w+2=death'
p1613
I1117
sS'w-1=low'
p1614
I1606
sS'w-2=include'
p1615
I1980
sS'w+2=there'
p1616
I1407
sS'w-2=General'
p1617
I1776
sS'w-2=source'
p1618
I2139
sS'nn=increasingbut'
p1619
I532
sS'dobj=money'
p1620
I420
sS'advcl=know'
p1621
I12
sS'amod=less'
p1622
I99
sS'nsubj=public'
p1623
I661
sS'w-2=February'
p1624
I1769
sS'complm=whether'
p1625
I243
sS'w+1=document'
p1626
I853
sS'w+2=give'
p1627
I1172
sS'w-1=out'
p1628
I1637
sS'w-2=anti-war'
p1629
I1850
sS'w-1=police'
p1630
I1650
sS'w-1=massive'
p1631
I1613
sS'w-1=must'
p1632
I1621
sS'w+2=palestinian'
p1633
I1288
sS'ccomp=refrain'
p1634
I217
sS'w+2=have'
p1635
I1183
sS'w+1=one-third'
p1636
I926
sS'w-2=world'
p1637
I2201
sS'w+2=expulsion'
p1638
I1151
sS'dobj=royalty'
p1639
I465
sS'advcl=coordinate'
p1640
I7
sS'w-1=face'
p1641
I1553
sS'w-1=protester'
p1642
I1661
sS'w+2=biofuel'
p1643
I1080
sS'acomp=little'
p1644
I0
sS'dobj=drive'
p1645
I386
sS'w-2=protest'
p1646
I2083
sS'w+2=pro-democracy'
p1647
I1307
sS'nsubj=patient'
p1648
I648
sS'w-1=justice'
p1649
I1590
sS'dobj=boycott'
p1650
I358
sS'w+2=direct'
p1651
I1126
sS'w+1=testimony'
p1652
I961
sS'poss=Kurds'
p1653
I717
sS'w-2=indicator'
p1654
I1982
sS'dobj=reversal'
p1655
I459
sS'nsubj=reformer'
p1656
I664
sS'aux=to'
p1657
I151
sS'nsubj=Bhutto'
p1658
I561
sS'w+1=official'
p1659
I923
sS'rcmod=pro-democracy'
p1660
I781
sS'w-1=increase'
p1661
I1576
sS'w+2=name'
p1662
I1259
sS'w+1=leader'
p1663
I906
sS'w+1=million'
p1664
I914
sS'advcl=increase'
p1665
I11
sS'nsubj=Kashmiris'
p1666
I576
sS'nn=Tuareg'
p1667
I513
sS'ccomp=follow'
p1668
I183
sS'w-2=region'
p1669
I2101
sS'w+2=most'
p1670
I1258
sS'w-2=Kabbah'
p1671
I1788
sS'w+1=human'
p1672
I889
sS'nsubj=studio'
p1673
I675
sS'dobj=document'
p1674
I384
sS'w-1=poster'
p1675
I1653
sS'w+2=about'
p1676
I1040
sS'w-1=U.S.'
p1677
I1483
sS'w-1=cut'
p1678
I1530
sS'prep=during'
p1679
I752
sS'nsubj=society'
p1680
I670
sS'w+1=action'
p1681
I818
sS'w-2=Australia'
p1682
I1747
sS'w+2=mean'
p1683
I1248
sS'w+1=higher'
p1684
I886
sS'w+2=mental'
p1685
I1251
sS'dobj=status'
p1686
I478
sS'w+2=meat'
p1687
I1249
sS'w-2=cause'
p1688
I1878
sS'xcomp=imaginable'
p1689
I2211
sS'w-1=now'
p1690
I1625
sS'w-1=not'
p1691
I1624
sS'w-1=begin'
p1692
I1500
sS'amod=immediate'
p1693
I86
sS'w+1=huge'
p1694
I888
sS'aux=be'
p1695
I145
sS'w-1=soar'
p1696
I1693
sS'dobj=one-third'
p1697
I424
sS'ccomp=set'
p1698
I228
sS'w-1=fuel'
p1699
I1561
sS"w-2='"
p1700
I1735
sS'w+2=full'
p1701
I1167
sS'nn=energy'
p1702
I527
sS'nn=day'
p1703
I524
sS'dobj=antibiotic'
p1704
I350
sS'w+2=judge'
p1705
I1223
sS'dobj=Ahmadiyah'
p1706
I334
sS'w-1=partner'
p1707
I1643
sS'dobj=break'
p1708
I359
sS'w+2=essential'
p1709
I1140
sS'w+1=remain'
p1710
I941
sS'w-2=summer'
p1711
I2152
sS'advmod=well'
p1712
I51
sS'dep=independence'
p1713
I305
sS'rcmod=recognize'
p1714
I783
sS'prep=that'
p1715
I762
sS'w+2=use'
p1716
I1426
sS'w-1=East'
p1717
I1463
sS'w-2=just'
p1718
I1995
sS'w-1=captor'
p1719
I1513
sS'advmod=prominently'
p1720
I43
sS'w+2=Democrats'
p1721
I1001
sS'w-2=they'
p1722
I2161
sS'w-1=-'
p1723
I1453
sS'prep=by'
p1724
I750
sS'w-1=secession'
p1725
I1684
sS'w+2=larger'
p1726
I1229
sS'w+2=Catholic'
p1727
I995
sS'w-2=foot'
p1728
I1948
sS'w+1=technical'
p1729
I959
sS'w-2=refuse'
p1730
I2100
sS'nn=militant'
p1731
I539
sS'nsubj=government'
p1732
I625
sS'w-1=majority'
p1733
I1609
sS'w+2=change'
p1734
I1090
sS'partmod=expect'
p1735
I695
sS'w-1=audience'
p1736
I1497
sS'amod=peace-deal'
p1737
I115
sS'dobj=increase'
p1738
I407
sS'nsubj=mnj'
p1739
I639
sS'w+2=euro'
p1740
I1143
sS'w-1=Russia'
p1741
I1475
sS'advmod=really'
p1742
I44
sS'advmod=originally'
p1743
I39
sS'w+2=population'
p1744
I1299
sS'amod=cool'
p1745
I68
sS'w-2=low'
p1746
I2015
sS'dobj=creation'
p1747
I374
sS'w-1=plan'
p1748
I1649
sS'w-1=significant'
p1749
I1690
sS'w+2=ransom'
p1750
I1319
sS'nsubj=protest'
p1751
I659
sS'w-1=by'
p1752
I1508
sS'w-1=be'
p1753
I1499
sS'w-1=day'
p1754
I1532
sS'w-1=price'
p1755
I1658
sS'poss=hostage-taker'
p1756
I728
sS'prep=behind'
p1757
I749
sS'w-1=president'
p1758
I1655
sS'w+2=identify'
p1759
I1199
sS'mark=because'
p1760
I503
sS'amod=huge'
p1761
I84
sS'advmod=sooner'
p1762
I47
sS'ccomp=meet'
p1763
I203
sS'conj=depose'
p1764
I252
sS'dobj=removal'
p1765
I448
sS'conj=want'
p1766
I286
sS'w-2=ministry'
p1767
I2031
sS'dobj=statement'
p1768
I477
sS'amod=fresh'
p1769
I78
sS'w-2=dampen'
p1770
I1906
sS'dobj=homeland'
p1771
I404
sS'w+2=endanger'
p1772
I1134
sS'w+2=what'
p1773
I1436
sS'w-2=face'
p1774
I1941
sS'xcomp=see'
p1775
I2222
sS'w+2=deportation'
p1776
I1122
sS'w+1=security'
p1777
I947
sS'w-1=which'
p1778
I1726
sS'w-2=overwhelm'
p1779
I2058
sS'w-2=Britain'
p1780
I1753
sS'w+2=serious'
p1781
I1367
sS'ccomp=cut'
p1782
I171
sS'w-1=from'
p1783
I1559
sS'w-1=Friday'
p1784
I1464
sS'w-2=effort'
p1785
I1928
sS'w+2=by'
p1786
I1087
sS'poss=Hollande'
p1787
I712
sS'dobj=solution'
p1788
I474
sS'dobj=departure'
p1789
I379
sS'w+2=be'
p1790
I1070
sS'dobj=report'
p1791
I450
sS'w+2=nlc'
p1792
I1265
sS'infmod=clean'
p1793
I494
sS'w+2=suspend'
p1794
I1400
sS'w+2=president'
p1795
I1303
sS'w+1=Justice'
p1796
I804
sS'w+2=gasoline'
p1797
I1169
sS'dep=price'
p1798
I311
sS'nsubjpass=#PRP#'
p1799
I687
sS'w-1=mostly'
p1800
I1620
sS'ccomp=kidnap'
p1801
I198
sS'w-1=we'
p1802
I1722
sS'w+2=Zimbabwean'
p1803
I1036
sS'w+2=still'
p1804
I1390
sS'w-2=side'
p1805
I2132
sS'w-2=democrat'
p1806
I1911
sS'w+2=ouster'
p1807
I1282
sS'w-2=frustrate'
p1808
I1953
sS'ccomp=normalize'
p1809
I205
sS'w+1=overall'
p1810
I930
sS'w+2=execution'
p1811
I1146
sS'w-2=Uganda'
p1812
I1823
sS'w+2=Pakistan'
p1813
I1020
sS'w-2=Korea'
p1814
I1789
sS'w+2=write'
p1815
I1446
sS'w+1=and'
p1816
I824
sS'nn=audience'
p1817
I517
sS'w-2=FNL'
p1818
I1768
sS'nsubj=Australians'
p1819
I559
sS'w-1=american'
p1820
I1493
sS'dobj=withdrawal'
p1821
I490
sS'w-2=present'
p1822
I2074
sS'w+2=offer'
p1823
I1272
sS'w-1=financial'
p1824
I1555
sS'advcl=part'
p1825
I14
sS'w-2=Americans'
p1826
I1743
sS'w+2=these'
p1827
I1408
sS'w-2=Hotez'
p1828
I1781
sS'w+1=accountability'
p1829
I817
sS'w-2=building'
p1830
I1869
sS'w+2=african'
p1831
I1046
sS'w+2=apology'
p1832
I1058
sS'w+2=testimony'
p1833
I1403
sS'w+1=harsh'
p1834
I881
sS'w+2=honorable'
p1835
I1196
sS'nsubj=Pakistan'
p1836
I583
sS'w-2=Morgan'
p1837
I1800
sS'w-1=ethanol'
p1838
I1546
sS'nsubj=alliance'
p1839
I605
sS'w+1=solution'
p1840
I954
sS'w+2=work'
p1841
I1442
sS'w+1=have'
p1842
I882
sS'w+2=manual'
p1843
I1244
sS'mark=than'
p1844
I506
sS'advcl=spend'
p1845
I17
sS'advmod=particularly'
p1846
I40
sS'w-2=ago'
p1847
I1840
sS'w+1=ten'
p1848
I960
sS'w-1=dampen'
p1849
I1531
sS'w-2=lower'
p1850
I2016
sS'amod=strong'
p1851
I132
sS'w+2=exceed'
p1852
I1145
sS'w+2=increasingly'
p1853
I1209
sS'w+2=parliamentary'
p1854
I1289
sS'w-2=show'
p1855
I2131
sS'w-2=Sibanda'
p1856
I1817
sS'conj=privilege'
p1857
I273
sS'w-2=petition'
p1858
I2065
sS'w+2=inspect'
p1859
I1215
sS'advmod=even'
p1860
I26
sS'w+2=compromise'
p1861
I1103
sS'w+2=more'
p1862
I1257
sS'w-2=congress'
p1863
I1889
sS'w-1=israeli'
p1864
I1584
sS'w+1=side'
p1865
I952
sS'w-2=Waxman'
p1866
I1828
sS'w-1=deal'
p1867
I1533
sS'w-1=meet'
p1868
I1615
sS'dobj=facility'
p1869
I395
sS'amod=sustained'
p1870
I135
sS'nsubj=Union'
p1871
I598
sS'w-2=diminish'
p1872
I1917
sS'poss=Ghazi'
p1873
I711
sS'ccomp=give'
p1874
I188
sS'dep=because'
p1875
I295
sS'w+2=action'
p1876
I1045
sS'w-2=Delhi'
p1877
I1764
sS'dobj=punishment'
p1878
I439
sS'w-1=Taleban'
p1879
I1479
sS'w-1=activist'
p1880
I1489
sS'w+1=make'
p1881
I911
sS'w-1=iranian'
p1882
I1583
sS'nn=majority'
p1883
I536
sS'w-1=call'
p1884
I1509
sS'w-1=building'
p1885
I1506
sS'w-2=cut'
p1886
I1905
sS'dobj=stop'
p1887
I479
sS'w+2=Asia'
p1888
I992
sS'w-1=Washington'
p1889
I1484
sS'dep=immediate'
p1890
I304
sS'w+2=electricity'
p1891
I1132
sS'prep=for'
p1892
I753
sS'dobj=resignation'
p1893
I452
sS'w+2=legislation'
p1894
I1234
sS'w+2=at'
p1895
I1064
sS'dep=from'
p1896
I303
sS'w+2=as'
p1897
I1062
sS'dobj=investigation'
p1898
I412
sS'nsubj=politician'
p1899
I656
sS'w-2=Mr.'
p1900
I1801
sS'w+2=include'
p1901
I1207
sS'w+2=return'
p1902
I1344
sS'w+1=would'
p1903
I981
sS'w-2=victory'
p1904
I2179
sS'w-2=Yousef'
p1905
I1830
sS'w-1=job'
p1906
I1588
sS'w-2=half'
p1907
I1963
sS'csubj=make'
p1908
I288
sS'w-2=with'
p1909
I2198
sS'w-1=kidnapper'
p1910
I1592
sS'w-2=defy'
p1911
I1910
sS'advmod=long'
p1912
I32
sS'w+2=withdraw'
p1913
I1440
sS'conj=block'
p1914
I245
sS'nn=justice'
p1915
I534
sS'conj=improve'
p1916
I260
sS'w-1=overall'
p1917
I1639
sS'xcomp=return'
p1918
I2220
sS'w+2=Prem'
p1919
I1023
sS'dobj=Clinton'
p1920
I335
sS'dobj=dozen'
p1921
I385
sS'w+2=overhaul'
p1922
I1285
sS'dobj=assurance'
p1923
I354
sS'w-2=strong'
p1924
I2147
sS'poss=Bhutto'
p1925
I704
sS'w+2=she'
p1926
I1371
sS'dobj=democracy'
p1927
I378
sS'w+2=play'
p1928
I1296
sS'w-1=compensation'
p1929
I1519
sS'w+2=Nepal'
p1930
I1017
sS'w-2=year'
p1931
I2204
sS'w-2=dump'
p1932
I1924
sS'w+2=air'
p1933
I1048
sS'amod=financial'
p1934
I77
sS'w-1=people'
p1935
I1647
sS'poss=country'
p1936
I726
sS'w+2=aid'
p1937
I1047
sS'w+2=put'
p1938
I1315
sS'w-1=Pakistan'
p1939
I1474
sS'w-2=month'
p1940
I2034
sS'w+1=-'
p1941
I796
sS'w+2=wages'
p1942
I1430
sS'w-1=soldier'
p1943
I1694
sS'w+2=of'
p1944
I1270
sS'w+2=on'
p1945
I1275
sS'w-1=tribesman'
p1946
I1715
sS'w-2=legitimate'
p1947
I2006
sS'nn=face'
p1948
I530
sS'w+2=facility'
p1949
I1153
sS'w+1=so'
p1950
I953
sS'prep=into'
p1951
I757
sS'w+2=billion'
p1952
I1078
sS'w+1=information'
p1953
I896
sS'w-2=strike'
p1954
I2146
sS'w+2=part'
p1955
I1290
sS'w-1=while'
p1956
I1727
sS'w-2=Florida'
p1957
I1770
sS'w+2=pull'
p1958
I1314
sS'prep=without'
p1959
I766
sS'w-1=reformer'
p1960
I1671
sS'w-1=report'
p1961
I1679
sS'poss=soldier'
p1962
I736
sS'w-1=she'
p1963
I1687
sS'w-2=mean'
p1964
I2022
sS'w+2=from'
p1965
I1166
sS'w+2=halt'
p1966
I1181
sS'w-2=hostage-taker'
p1967
I1973
sS'nn=captor'
p1968
I518
sS'dobj=bribe'
p1969
I360
sS'w+2=review'
p1970
I1346
sS'w+2=immediately'
p1971
I1203
sS'w+1=long-delayed'
p1972
I910
sS'w-2=into'
p1973
I1988
sS'w-1=between'
p1974
I1501
sS'w-2=December'
p1975
I1763
sS'poss=Korea'
p1976
I716
sS'w-2=Ghazi'
p1977
I1777
sS'dep=Party'
p1978
I289
sS'w+1=cause'
p1979
I842
sS'infmod=abolish'
p1980
I493
sS'ccomp=divert'
p1981
I177
sS'w-2=Iraq'
p1982
I1784
sS'w+1=final'
p1983
I867
sS'nsubj=prosecutor'
p1984
I658
sS'w-1=reiterate'
p1985
I1673
sS'w+2=General'
p1986
I1004
sS'ccomp=end'
p1987
I181
sS'w+2=behalf'
p1988
I1074
sS'w+2=news'
p1989
I1263
sS'w-2=public'
p1990
I2086
sS'w-1=Council'
p1991
I1461
sS'w-2=subpoena'
p1992
I2150
sS'w-2=Bhutto'
p1993
I1751
sS'w-1=again'
p1994
I1491
sS'w+2=charcoal'
p1995
I1091
sS'expl=there'
p1996
I492
sS'partmod=combine'
p1997
I693
sS'w+2=U.S.'
p1998
I1033
sS'poss=Kabbah'
p1999
I715
sS'w+1=recognition'
p2000
I939
sS'nsubj=people'
p2001
I650
sS'w+1=independence'
p2002
I895
sS'w-1=even'
p2003
I1548
sS'w-2=strength'
p2004
I2145
sS'w+2=dismissal'
p2005
I1127
sS'w+2=people'
p2006
I1292
sS'w+2=leave'
p2007
I1233
sS'w+2=expensive'
p2008
I1148
sS'w-1=Democrats'
p2009
I1462
sS'conj=force'
p2010
I258
sS'w-2=E.U.'
p2011
I1767
sS'rcmod=say'
p2012
I786
sS'amod=worldwide'
p2013
I142
sS'w+2=tyrannical'
p2014
I1420
sS'w-1=caller'
p2015
I1510
sS'w-1=domestic'
p2016
I1537
sS'w-1=woman'
p2017
I1731
sS'w+1=Obama'
p2018
I806
sS'nsubj=Sharif'
p2019
I592
sS'w+1=Britain'
p2020
I800
sS'w-1=street'
p2021
I1697
sS'w+1=one'
p2022
I925
sS'ccomp=release'
p2023
I220
sS'w-2=spectrum'
p2024
I2140
sS'w+2=help'
p2025
I1185
sS'rcmod=resume'
p2026
I785
sS'prep=accord'
p2027
I743
sS'num=#NUMBER#'
p2028
I689
sS'w-2=accept'
p2029
I1834
sS"w+2=''"
p2030
I983
sS'w+2=office'
p2031
I1273
sS'w-1=this'
p2032
I1709
sS'w-2=wrangle'
p2033
I2203
sS'w-1=various'
p2034
I1721
sS'w+2=consumer'
p2035
I1106
sS'nsubj=officer'
p2036
I644
sS'w+2=reversal'
p2037
I1345
sS'w+2=need'
p2038
I1260
sS'dobj=autonomy'
p2039
I356
sS'w+1=Albania'
p2040
I799
sS'w-1=immediate'
p2041
I1573
sS'amod=all-ukranian'
p2042
I56
sS'w-2=use'
p2043
I2177
sS'conj=charge'
p2044
I247
sS'nsubj=Tsvangirai'
p2045
I596
sS'prep=such'
p2046
I761
sS'w-2=Ms.'
p2047
I1802
sS'w-1=but'
p2048
I1507
sS"w+2='s"
p2049
I984
sS'w-1=latest'
p2050
I1595
sS'w+1=free'
p2051
I873
sS'nsubj=journalist'
p2052
I629
sS'w-1=constitution'
p2053
I1522
sS'dobj=extradition'
p2054
I394
sS'dobj=type'
p2055
I484
sS'advcl=find'
p2056
I9
sS'w-2=Muglad'
p2057
I1803
sS'w+1=better'
p2058
I836
sS'w+1=involve'
p2059
I901
sS'w-2=Business'
p2060
I1755
sS'w-1=world'
p2061
I1733
sS'w-1=instead'
p2062
I1580
sS'dobj=scene'
p2063
I469
sS'rcmod=go'
p2064
I775
sS'nsubj=coalition'
p2065
I612
sS'w+2=religious'
p2066
I1330
sS'w+2=negotiation'
p2067
I1261
sS'dobj=relocation'
p2068
I447
sS'advmod=again'
p2069
I21
sS'w+2=Musharraf'
p2070
I1016
sS'advmod=back'
p2071
I23
sS'w-1=make'
p2072
I1610
sS'dobj=wages'
p2073
I486
sS'ccomp=turn'
p2074
I237
sS'ccomp=read'
p2075
I214
sS'nsubj=market'
p2076
I635
sS'w+1=$'
p2077
I793
sS'w-2=be'
p2078
I1860
sS'conj=know'
p2079
I262
sS'w-2=cocktail'
p2080
I1884
sS'nsubj=Odinga'
p2081
I582
sS'w-1=certain'
p2082
I1514
sS'w-1=increasingbut'
p2083
I1577
sS'w-2=by'
p2084
I1872
sS'advcl=begin'
p2085
I5
sS'w+2=migration'
p2086
I1252
sS'amod=increase'
p2087
I87
sS'tmod=week'
p2088
I792
sS'conj=likely'
p2089
I265
sS'dobj=representation'
p2090
I451
sS'w-2=Gbabgo'
p2091
I1774
sS'w-2=uncertainty'
p2092
I2169
sS'dobj=$'
p2093
I333
sS'w-1=fresh'
p2094
I1558
sS'w+1=all'
p2095
I822
sS'nn=constitution'
p2096
I521
sS'w-2=meet'
p2097
I2023
sS'w+2=Nkunda'
p2098
I1018
sS'w-2=Services'
p2099
I1815
sS'amod=albanian'
p2100
I55
sS'w-2=economy'
p2101
I1926
sS'w-2=against'
p2102
I1839
sS'w+1=some'
p2103
I955
sS'w+2=simple'
p2104
I1373
sS'w+2=information'
p2105
I1214
sS'amod=repeated'
p2106
I125
sS'w-2=whose'
p2107
I2194
sS'nsubj=activist'
p2108
I602
sS'w+1=large'
p2109
I905
sS'poss=local'
p2110
I730
sS'dobj=retaliation'
p2111
I456
sS'w-2=coalition'
p2112
I1883
sS'xcomp=inspect'
p2113
I2212
sS'w-2=Nations'
p2114
I1804
sS'w-2=influence'
p2115
I1983
sS'w+2=western'
p2116
I1435
sS'nsubj=Americans'
p2117
I555
sS'w-1=sharpen'
p2118
I1686
sS'w+2=equitable'
p2119
I1137
sS'ccomp=take'
p2120
I235
sS'w+2=Lee'
p2121
I1013
sS'w-1=western'
p2122
I1725
sS'w+1=Uribe'
p2123
I812
sS'w-2=agreement'
p2124
I1841
sS'cop=be'
p2125
I287
sS'w-2=reject'
p2126
I2104
sS'w-2=she'
p2127
I2127
sS'w-1=legitimate'
p2128
I1600
sS'w+1=Thursday'
p2129
I811
sS'w-2=minister'
p2130
I2030
sS'nsubj=Washington'
p2131
I599
sS'nn=people'
p2132
I545
sS'w-2=say'
p2133
I2121
sS'w-2=deadlock'
p2134
I1907
sS'w+2=the'
p2135
I1406
sS'prep=at'
p2136
I748
sS'prep=as'
p2137
I747
sS'dobj=accountability'
p2138
I341
sS'w-1=few'
p2139
I1554
sS'w-1=continue'
p2140
I1524
sS'nsubj=Uganda'
p2141
I597
sS'w-1=Kosovars'
p2142
I1469
sS'w-1=:'
p2143
I1456
sS'w-2=but'
p2144
I1871
sS"w-1='"
p2145
I1449
sS'amod=ever-growing'
p2146
I73
sS'w-1=.'
p2147
I1454
sS'w+2=honest'
p2148
I1195
sS'w-1=,'
p2149
I1452
sS'w-1=front'
p2150
I1560
sS'dobj=share'
p2151
I472
sS'w+1=every'
p2152
I862
sS'w+1=answer'
p2153
I825
sS'amod=congressional'
p2154
I65
sS'nsubj=Nations'
p2155
I581
sS'w+2=repeal'
p2156
I1336
sS'amod=recent'
p2157
I122
sS'w+2=high-end'
p2158
I1188
sS'nn=U.N.'
p2159
I514
sS'w-1=a'
p2160
I1486
sS'w-2=Brown'
p2161
I1754
sS'nsubj=fighter'
p2162
I622
sS'w+1=compensation'
p2163
I846
sS'dobj=period'
p2164
I430
sS'conj=run'
p2165
I279
sS'w+2=investigation'
p2166
I1217
sS'conj=receive'
p2167
I276
sS'mark=as'
p2168
I502
sS'w-2=House'
p2169
I1782
sS'dep=agreement'
p2170
I291
sS'w+2=security'
p2171
I1362
sS'dobj=service'
p2172
I471
sS'dobj=land'
p2173
I414
sS'w+1=economic'
p2174
I858
sS'nsubj=measure'
p2175
I636
sS'w-2=ceremony'
p2176
I1879
sS'advmod=that'
p2177
I48
sS'w-1=particularly'
p2178
I1642
sS'w+2=they'
p2179
I1409
sS'ccomp=leave'
p2180
I201
sS'w+1=President'
p2181
I807
sS'nsubj=opposition'
p2182
I646
sS'w+1=must'
p2183
I917
sS'conj=lift'
p2184
I264
sS'poss=Maoists'
p2185
I718
sS'w-1=previous'
p2186
I1657
sS'w+2=renounce'
p2187
I1334
sS'w+1=north'
p2188
I919
sS'w-2=rapidly'
p2189
I2090
sS'w-2=call'
p2190
I1873
sS'w-2=development'
p2191
I1916
sS'w-2=shift'
p2192
I2128
sS'w-1=current'
p2193
I1529
sS'w-1=relative'
p2194
I1675
sS'w+2=date'
p2195
I1116
sS'w-1=door'
p2196
I1538
sS'w-1=Guinea'
p2197
I1465
sS'ccomp=conduct'
p2198
I170
sS'w+2=accountability'
p2199
I1042
sS'dobj=legislation'
p2200
I416
sS'partmod=force'
p2201
I696
sS'w-2=conservative'
p2202
I1891
sS'w+1=after'
p2203
I821
sS'w-1=address'
p2204
I1490
sS'nn=Taleban'
p2205
I512
sS'w-1=as'
p2206
I1495
sS'w-1=sufficient'
p2207
I1700
sS'w-1=include'
p2208
I1575
sS'w-2=actually'
p2209
I1835
sS'w-2=till'
p2210
I2165
sS'ccomp=plan'
p2211
I208
sS'w-1=tough'
p2212
I1713
sS'advcl=report'
p2213
I16
sS'advmod=later'
p2214
I31
sS'nsubj=protester'
p2215
I660
sS'w+2=.'
p2216
I986
sS'w+2=,'
p2217
I985
sS'w+2=$'
p2218
I982
sS'w+1=tighter'
p2219
I968
sS'dobj=way'
p2220
I487
sS'w-1=lower'
p2221
I1607
sS'w+2=probe'
p2222
I1308
sS'ccomp=come'
p2223
I169
sS'w-2=repeat'
p2224
I2107
sS'w+2=Fatah'
p2225
I1002
sS'nn=community'
p2226
I519
sS'w-1=just'
p2227
I1589
sS'w-1=legislative'
p2228
I1599
sS'w+2=1,200'
p2229
I987
sS'w-1=at'
p2230
I1496
sS'w+2=commitment'
p2231
I1099
sS'w-2=group'
p2232
I1961
sS'nsubj=Parliamentarians'
p2233
I585
sS'w-2=Arab'
p2234
I1745
sS'w+2=a'
p2235
I1037
ssS'dtype'
p2236
cnumpy
float64
p2237
sS'feature_names_'
p2238
(lp2239
g1644
ag995
ag125
ag99
ag1579
ag2085
ag423
ag1640
ag388
ag2056
ag201
ag1665
ag1621
ag1602
ag1825
ag1342
ag2213
ag1845
ag1176
ag156
ag940
ag2069
ag343
ag2071
ag866
ag1411
ag1860
ag131
ag1345
ag1289
ag584
ag2214
ag1912
ag217
ag717
ag12
ag191
ag1570
ag638
ag1743
ag1846
ag331
ag115
ag1720
ag1742
ag763
ag581
ag1762
ag2177
ag551
ag1130
ag1712
ag1331
ag143
ag357
ag2100
ag2042
ag1262
ag1288
ag10
ag1346
ag1121
ag1029
ag1454
ag1612
ag2154
ag142
ag1580
ag1745
ag1477
ag519
ag1474
ag971
ag2146
ag1437
ag1315
ag338
ag1934
ag1769
ag870
ag418
ag430
ag1303
ag175
ag1761
ag1589
ag1693
ag2087
ag190
ag1535
ag1519
ag383
ag1243
ag1124
ag105
ag1005
ag1216
ag14
ag1574
ag1622
ag1457
ag468
ag899
ag146
ag1389
ag169
ag184
ag1545
ag893
ag297
ag1229
ag419
ag1440
ag934
ag1042
ag1737
ag746
ag89
ag342
ag1452
ag325
ag890
ag2157
ag665
ag289
ag2106
ag1143
ag490
ag1565
ag1427
ag147
ag1050
ag1851
ag1335
ag775
ag1870
ag1211
ag948
ag1306
ag79
ag918
ag56
ag2013
ag812
ag1542
ag1695
ag622
ag1513
ag1017
ag1304
ag470
ag1657
ag1447
ag1349
ag1485
ag625
ag931
ag309
ag505
ag1546
ag337
ag531
ag804
ag757
ag302
ag1419
ag1192
ag602
ag885
ag2223
ag2198
ag1782
ag838
ag1559
ag379
ag1149
ag573
ag1981
ag1066
ag273
ag1364
ag1987
ag1257
ag1668
ag251
ag1240
ag1583
ag1448
ag1874
ag1186
ag1380
ag1062
ag90
ag698
ag446
ag1442
ag1353
ag994
ag1801
ag1101
ag708
ag2180
ag385
ag1763
ag513
ag1809
ag1498
ag334
ag2211
ag365
ag76
ag219
ag715
ag1399
ag2075
ag1439
ag840
ag1634
ag1298
ag164
ag2023
ag813
ag1302
ag34
ag1103
ag569
ag82
ag786
ag1698
ag835
ag869
ag1511
ag912
ag557
ag849
ag2120
ag234
ag2074
ag384
ag765
ag1592
ag553
ag1194
ag1625
ag802
ag1914
ag38
ag2044
ag857
ag1310
ag183
ag483
ag1764
ag952
ag898
ag1160
ag649
ag963
ag2010
ag748
ag1916
ag722
ag2079
ag751
ag2184
ag2089
ag1317
ag545
ag1058
ag1184
ag496
ag1486
ag1065
ag1857
ag1252
ag395
ag2167
ag600
ag811
ag2165
ag1497
ag965
ag221
ag228
ag1027
ag879
ag1766
ag2125
ag1908
ag1978
ag1034
ag2170
ag432
ag895
ag1366
ag1875
ag451
ag1297
ag629
ag19
ag558
ag559
ag702
ag1896
ag1890
ag1713
ag1348
ag744
ag1197
ag1203
ag1520
ag1798
ag981
ag632
ag1266
ag626
ag296
ag1414
ag863
ag17
ag1610
ag720
ag1461
ag1607
ag567
ag240
ag236
ag705
ag1271
ag1242
ag1332
ag126
ag168
ag2093
ag1706
ag1920
ag152
ag351
ag74
ag648
ag232
ag2138
ag1139
ag28
ag347
ag1568
ag1179
ag1181
ag431
ag1122
ag1704
ag1208
ag397
ag1207
ag1923
ag882
ag2039
ag921
ag1650
ag1708
ag1969
ag417
ag823
ag875
ag344
ag966
ag1064
ag205
ag542
ag194
ag32
ag108
ag1395
ag1475
ag1747
ag574
ag704
ag1322
ag1927
ag1789
ag1041
ag480
ag24
ag1092
ag1674
ag1921
ag1645
ag686
ag358
ag144
ag20
ag367
ag1136
ag1228
ag2054
ag1869
ag1205
ag1587
ag330
ag716
ag1435
ag1383
ag354
ag186
ag1771
ag456
ag1043
ag1738
ag1318
ag555
ag721
ag151
ag1898
ag134
ag2173
ag725
ag2200
ag795
ag376
ag424
ag1620
ag1236
ag1296
ag267
ag1697
ag776
ag1046
ag26
ag279
ag1165
ag2164
ag666
ag508
ag101
ag1280
ag1549
ag876
ag738
ag741
ag1878
ag1056
ag253
ag1009
ag1215
ag511
ag210
ag86
ag2068
ag1765
ag1567
ag1791
ag2090
ag1893
ag550
ag670
ag1233
ag2111
ag237
ag333
ag1655
ag1588
ag525
ag1123
ag1036
ag1250
ag1639
ag623
ag987
ag1514
ag2063
ag1532
ag2172
ag2151
ag287
ag1788
ag944
ag98
ag1768
ag1686
ag1887
ag595
ag312
ag463
ag185
ag2055
ag1067
ag2073
ag2220
ag1372
ag679
ag1821
ag118
ag1996
ag1980
ag1793
ag482
ag392
ag1398
ag701
ag891
ag1321
ag406
ag2168
ag1760
ag1248
ag1251
ag1844
ag295
ag1111
ag536
ag993
ag1086
ag2205
ag1667
ag2159
ag1404
ag1522
ag1817
ag1968
ag2226
ag315
ag2096
ag534
ag1294
ag1703
ag1059
ag328
ag1702
ag1074
ag1484
ag1948
ag60
ag1619
ag380
ag1915
ag697
ag1883
ag196
ag100
ag1731
ag281
ag178
ag231
ag1569
ag45
ag2132
ag1246
ag936
ag1082
ag1031
ag211
ag1052
ag1394
ag1363
ag373
ag2117
ag789
ag269
ag1360
ag1819
ag235
ag1658
ag1503
ag695
ag731
ag590
ag592
ag1450
ag917
ag41
ag988
ag1333
ag845
ag1312
ag1214
ag16
ag1666
ag209
ag587
ag268
ag173
ag2155
ag2081
ag1836
ag1598
ag2233
ag732
ag533
ag926
ag743
ag174
ag578
ag2019
ag1253
ag868
ag1343
ag2045
ag2141
ag1871
ag2131
ag124
ag1076
ag2108
ag1551
ag1341
ag1839
ag434
ag635
ag313
ag495
ag1023
ag935
ag2065
ag311
ag832
ag1152
ag284
ag1263
ag1045
ag946
ag610
ag1539
ag2162
ag498
ag1352
ag1732
ag436
ag136
ag278
ag2052
ag504
ag658
ag671
ag597
ag798
ag2076
ag2175
ag764
ag827
ag1739
ag535
ag990
ag53
ag437
ag2036
ag925
ag2182
ag1291
ag1648
ag1600
ag2001
ag1347
ag699
ag1055
ag335
ag1557
ag1899
ag208
ag1984
ag1751
ag2215
ag1623
ag37
ag830
ag1656
ag858
ag1500
ag967
ag1596
ag1080
ag1680
ag734
ag1441
ag787
ag360
ag1673
ag132
ag129
ag1382
ag825
ag510
ag1530
ag933
ag753
ag1406
ag1283
ag1540
ag1799
ag750
ag2028
ag1239
ag1220
ag962
ag1997
ag1393
ag1735
ag2201
ag489
ag1480
ag1584
ag797
ag386
ag223
ag1357
ag1925
ag121
ag1424
ag700
ag526
ag429
ag226
ag1873
ag1787
ag229
ag905
ag1999
ag1976
ag1653
ag2185
ag758
ag714
ag346
ag299
ag920
ag1582
ag264
ag1936
ag694
ag1756
ag355
ag2110
ag972
ag1201
ag916
ag1370
ag1018
ag1962
ag752
ag1518
ag398
ag345
ag263
ag621
ag2027
ag499
ag1282
ag93
ag2137
ag2136
ag1757
ag1724
ag200
ag1679
ag1892
ag1081
ag1218
ag157
ag1951
ag1525
ag1526
ag740
ag2046
ag1715
ag654
ag1451
ag570
ag1959
ag1564
ag1144
ag941
ag1576
ag1264
ag1106
ag71
ag888
ag2064
ag1436
ag1527
ag1084
ag1422
ag942
ag1660
ag1413
ag1714
ag883
ag2026
ag2012
ag901
ag645
ag1259
ag1508
ag843
ag2088
ag2077
ag961
ag1095
ag1941
ag1096
ag1102
ag2040
ag2020
ag1462
ag1375
ag1502
ag1796
ag541
ag2018
ag2181
ag1237
ag227
ag298
ag2129
ag2123
ag1476
ag1113
ag1112
ag375
ag1829
ag1681
ag293
ag401
ag2203
ag2095
ag1133
ag1816
ag2153
ag1226
ag1305
ag314
ag1308
ag361
ag303
ag1490
ag1417
ag523
ag712
ag2058
ag261
ag703
ag1489
ag736
ag598
ag1979
ag1603
ag1173
ag950
ag2163
ag1273
ag1166
ag633
ag969
ag1604
ag450
ag1626
ag203
ag445
ag1117
ag1601
ag2174
ag998
ag1493
ag449
ag2152
ag564
ag1390
ag820
ag1277
ag1983
ag851
ag1026
ag646
ag979
ag377
ag2051
ag521
ag1053
ag1038
ag630
ag409
ag1227
ag805
ag1834
ag1842
ag1116
ag77
ag254
ag1684
ag681
ag1694
ag1672
ag816
ag368
ag817
ag366
ag1483
ag2002
ag1953
ag747
ag1416
ag1505
ag1145
ag2059
ag370
ag1368
ag1183
ag2109
ag1663
ag691
ag1132
ag242
ag1972
ag1881
ag327
ag908
ag1664
ag1185
ag1007
ag2183
ag528
ag2188
ag57
ag1463
ag75
ag1659
ag372
ag2022
ag1636
ag80
ag478
ag641
ag1810
ag949
ag1167
ag481
ag292
ag61
ag1293
ag1138
ag1409
ag2000
ag1131
ag1710
ag1090
ag193
ag1426
ag911
ag1361
ag1777
ag1354
ag1534
ag65
ag1466
ag1865
ag1950
ag1840
ag2103
ag1142
ag887
ag1591
ag1729
ag1848
ag1652
ag572
ag103
ag1359
ag1155
ag1213
ag1566
ag2219
ag807
ag1157
ag1154
ag683
ag927
ag970
ag706
ag1338
ag1083
ag444
ag362
ag1008
ag1903
ag2218
ag2030
ag2049
ag2217
ag2216
ag2229
ag457
ag458
ag837
ag1020
ag1888
ag1260
ag945
ag1727
ag163
ag1517
ag246
ag957
ag1430
ag1721
ag2225
ag796
ag1986
ag1388
ag808
ag204
ag1021
ag1015
ag224
ag980
ag1274
ag2121
ag977
ag1091
ag2070
ag1930
ag2098
ag422
ag1813
ag94
ag537
ag1919
ag1204
ag1529
ag207
ag425
ag1421
ag1094
ag1501
ag1070
ag860
ag1998
ag1025
ag814
ag1803
ag2235
ag307
ag197
ag1676
ag737
ag2199
ag120
ag771
ag1876
ag1831
ag1937
ag1933
ag754
ag1326
ag1544
ag1401
ag1547
ag642
ag374
ag416
ag1078
ag1832
ag83
ag245
ag1231
ag1897
ag915
ag1895
ag55
ag324
ag133
ag220
ag793
ag1790
ag188
ag1199
ag1164
ag1988
ag833
ag930
ag613
ag1952
ag593
ag1643
ag1563
ag529
ag274
ag486
ag198
ag25
ag1786
ag150
ag350
ag1734
ag1995
ag1369
ag620
ag834
ag799
ag369
ag1151
ag352
ag2231
ag503
ag1258
ag1110
ag1861
ag1235
ag1146
ag2035
ag265
ag44
ag433
ag1177
ag1128
ag954
ag155
ag660
ag180
ag2195
ag1613
ag1309
ag412
ag1471
ag628
ag1776
ag119
ag308
ag363
ag1651
ag2005
ag1465
ag1438
ag1536
ag238
ag1891
ag1562
ag1772
ag956
ag420
ag2119
ag141
ag546
ag1709
ag506
ag387
ag1740
ag801
ag1852
ag1811
ag199
ag2008
ag140
ag1320
ag1638
ag1011
ag1949
ag336
ag605
ag459
ag280
ag452
ag674
ag181
ag465
ag260
ag148
ag1469
ag634
ag1965
ag1701
ag114
ag1797
ag1356
ag382
ag1627
ag568
ag929
ag472
ag693
ag1077
ag421
ag1048
ag1396
ag1966
ag47
ag1635
ag809
ag2025
ag749
ag252
ag2158
ag959
ag1268
ag87
ag1459
ag968
ag1098
ag2148
ag1835
ag1003
ag991
ag1759
ag611
ag664
ag1061
ag1971
ag1528
ag241
ag614
ag1901
ag669
ag1853
ag507
ag68
ag400
ag1147
ag2105
ag1859
ag30
ag2166
ag1593
ag617
ag842
ag1272
ag1019
ag1705
ag414
ag919
ag442
ag964
ag1224
ag1726
ag1572
ag932
ag244
ag2007
ag1894
ag42
ag982
ag543
ag1400
ag378
ag1445
ag1261
ag672
ag1392
ag1843
ag1386
ag864
ag394
ag1683
ag1687
ag67
ag1685
ag2086
ag407
ag310
ag1196
ag257
ag1862
ag1670
ag1662
ag2038
ag2067
ag304
ag1989
ag604
ag1792
ag1599
ag1256
ag839
ag1255
ag1944
ag880
ag1823
ag2031
ag1340
ag1945
ag1089
ag792
ag655
ag976
ag939
ag518
ag1807
ag730
ag861
ag1922
ag761
ag762
ag1633
ag1854
ag1955
ag62
ag2006
ag538
ag603
ag1473
ag1928
ag1057
ag1230
ag1744
ag540
ag138
ag283
ag1795
ag1482
ag320
ag889
ag1647
ag2222
ag631
ag873
ag709
ag1431
ag230
ag1958
ag1938
ag72
ag739
ag447
ag1750
ag591
ag396
ag684
ag319
ag1433
ag653
ag1104
ag149
ag1279
ag1290
ag2066
ag116
ag673
ag427
ag2187
ag40
ag2156
ag1108
ag900
ag822
ag239
ag855
ag547
ag1429
ag1902
ag2037
ag1970
ag1299
ag466
ag983
ag735
ag514
ag479
ag554
ag322
ag64
ag438
ag1307
ag785
ag874
ag723
ag1577
ag2171
ag159
ag1212
ag1428
ag212
ag1781
ag1524
ag162
ag1608
ag1926
ag1073
ag2104
ag493
ag783
ag973
ag1314
ag1063
ag104
ag924
ag1245
ag719
ag78
ag500
ag850
ag1191
ag774
ag110
ag1468
ag1804
ag689
ag781
ag275
ag1137
ag426
ag667
ag1060
ag22
ag1292
ag1794
ag636
ag768
ag1833
ag332
ag1543
ag2135
ag1616
ag1827
ag2179
ag277
ag841
ag637
ag1016
ag1178
ag1478
ag137
ag262
ag1004
ag960
ag2014
ag202
ag1319
ag955
ag989
ag777
ag1716
ag562
ag826
ag565
ag1942
ag170
ag1234
ag682
ag356
ag2116
ag1773
ag958
ag177
ag1200
ag1913
ag176
ag1841
ag566
ag1087
ag1198
ag1815
ag800
ag92
ag2145
ag1374
ag1350
ag2149
ag1723
ag2147
ag243
ag2143
ag1449
ag255
ag690
ag1270
ag1991
ag2009
ag1717
ag1784
ag2197
ag1085
ag1412
ag1188
ag2142
ag1175
ag1521
ag688
ag1141
ag1939
ag1741
ag770
ag1249
ag1039
ag1879
ag1456
ag1425
ag1371
ag1677
ag1889
ag1190
ag2160
ag1221
ag9
ag1880
ag2204
ag1994
ag1595
ag1820
ag454
ag2206
ag2230
ag1736
ag270
ag1753
ag1692
ag1974
ag1267
ag607
ag1135
ag1351
ag1885
ag2048
ag1752
ag1884
ag2015
ag1323
ag21
ag1719
ag2082
ag1553
ag1494
ag225
ag1225
ag1929
ag1597
ag502
ag2053
ag1030
ag2140
ag847
ag609
ag91
ag390
ag2193
ag1678
ag1849
ag1754
ag1867
ag1210
ag544
ag139
ag2016
ag2196
ag742
ag54
ag215
ag1420
ag677
ag871
ag1516
ag1838
ag247
ag2003
ag766
ag340
ag413
ag1548
ag1641
ag2139
ag1824
ag166
ag974
ag2094
ag1783
ag2150
ag1699
ag652
ag189
ag724
ag403
ag1324
ag1415
ag608
ag1049
ag476
ag580
ag1189
ag2041
ag773
ag2208
ag1661
ag2083
ag48
ag306
ag2062
ag884
ag539
ag1882
ag1864
ag1533
ag1238
ag1182
ag1906
ag2227
ag1649
ag728
ag1910
ag1515
ag1115
ag2050
ag1328
ag527
ag865
ag2228
ag2128
ag1129
ag1418
ag668
ag492
ag172
ag1614
ag2221
ag8
ag1733
ag2072
ag405
ag1148
ag1631
ag821
ag1868
ag848
ag1555
ag192
ag317
ag1800
ag1632
ag904
ag46
ag1691
ag1690
ag1556
ag381
ag1606
ag1561
ag1443
ag1550
ag756
ag285
ag1028
ag902
ag286
ag1628
ag586
ag1917
ag1313
ag1174
ag2178
ag1707
ag485
ag1523
ag767
ag1935
ag1578
ag1748
ag1630
ag1000
ag1219
ag1675
ag339
ag1758
ag477
ag2186
ag1755
ag896
ag509
ag1642
ag627
ag462
ag1209
ag49
ag913
ag1195
ag460
ag1423
ag1301
ag1960
ag906
ag1985
ag1325
ag2194
ag288
ag856
ag710
ag1961
ag13
ag1327
ag1376
ag577
ag1725
ag389
ag2118
ag1963
ag128
ag1467
ag1749
ag130
ag1403
ag1696
ag1943
ag692
ag1552
ag2021
ag1223
ag659
ag2207
ag1105
ag1093
ag27
ag1119
ag779
ag473
ag928
ag475
ag2032
ag1330
ag782
ag165
ag2212
ag109
ag1946
ag1408
ag145
ag943
ag256
ag271
ag2034
ag1802
ag1491
ag1114
ag2122
ag1778
ag1956
ag985
ag51
ag759
ag2017
ag718
ag2061
ag788
ag1700
ag1381
ag1405
ag1012
ag1013
ag123
ag892
ag859
ag1826
ag824
ag2234
ag1470
ag1682
ag1109
ag810
ag1153
ag1993
ag1407
ag1780
ag2161
ag2060
ag997
ag1150
ag881
ag612
ag1499
ag1168
ag1609
ag1975
ag1877
ag680
ag575
ag2011
ag1818
ag1624
ag1957
ag522
ag23
ag1594
ag2091
ag515
ag1617
ag1977
ag984
ag1472
ag1446
ag1828
ag2169
ag1458
ag1982
ag276
ag624
ag96
ag1671
ag1814
ag1558
ag1071
ag1365
ag18
ag938
ag1575
ag404
ag862
ag187
ag1014
ag1837
ag1900
ag2047
ag2057
ag2114
ag1099
ag1344
ag1384
ag1379
ag113
ag907
ag1006
ag644
ag733
ag1247
ag2099
ag909
ag1856
ag353
ag1367
ag1488
ag647
ag167
ag1812
ag852
ag1022
ag778
ag1385
ag1866
ag411
ag1905
ag1410
ag1037
ag676
ag2029
ag2209
ag1125
ag1554
ag1316
ag2102
ag1847
ag2124
ag484
ag448
ag301
ag831
ag729
ag59
ag435
ag248
ag1629
ag440
ag329
ag206
ag599
ag1300
ag663
ag986
ag300
ag1140
ag2078
ag1118
ag937
ag552
ag815
ag249
ag1512
ag1509
ag1492
ag1830
ag707
ag2144
ag2084
ag2190
ag1402
ag1072
ag530
ag15
ag1688
ag2176
ag1487
ag585
ag1097
ag2112
ag2080
ag154
ag1531
ag1244
ag453
ag1863
ag755
ag2202
ag828
ag818
ag675
ag640
ag1002
ag760
ag1311
ag992
ag471
ag1285
ag135
ag951
ag158
ag1886
ag1770
ag2134
ag853
ag161
ag1911
ag1806
ag1460
ag1217
ag1162
ag294
ag2191
ag1872
ag341
ag1269
ag399
ag1069
ag588
ag1035
ag1932
ag878
ag2101
ag153
ag1785
ag1206
ag112
ag999
ag29
ag213
ag791
ag1033
ag1339
ag1275
ag1171
ag903
ag894
ag1774
ag1159
ag316
ag727
ag794
ag97
ag1032
ag1728
ag549
ag258
ag1355
ag1156
ag1808
ag1362
ag910
ag687
ag532
ag85
ag497
ag1241
ag2232
ag171
ag1907
ag359
ag441
ag1172
ag846
ag195
ag127
ag1107
ag428
ag1180
ag1967
ag321
ag601
ag88
ag606
ag520
ag323
ag1615
ag391
ag1654
ag2115
ag282
ag259
ag33
ag291
ag1973
ag63
ag491
ag326
ag769
ag1127
ag318
ag1718
ag1387
ag1337
ag58
ag996
ag1358
ag69
ag1537
ag661
ag1079
ag589
ag1947
ag1187
ag579
ag1054
ag1464
ag443
ag1373
ag266
ag1040
ag1746
ag1850
ag978
ag1336
ag1047
ag84
ag1611
ag1964
ag2097
ag1232
ag1120
ag1222
ag1265
ag576
ag290
ag2130
ag1767
ag1254
ag583
ag1940
ag1560
ag1378
ag1163
ag1010
ag35
ag639
ag216
ag1538
ag31
ag1585
ag582
ag1284
ag548
ag1496
ag179
ag1286
ag803
ag1281
ag122
ag467
ag643
ag52
ag780
ag1779
ag561
ag1510
ag305
ag1126
ag487
ag1581
ag1858
ag923
ag1377
ag877
ag651
ag1068
ag36
ag1169
ag1295
ag1822
ag678
ag790
ag854
ag1161
ag713
ag886
ag618
ag556
ag1646
ag461
ag1455
ag1990
ag1088
ag819
ag81
ag2189
ag953
ag494
ag349
ag501
ag474
ag897
ag616
ag402
ag745
ag1730
ag1669
ag66
ag596
ag2126
ag711
ag806
ag2224
ag1391
ag218
ag829
ag464
ag371
ag1571
ag1507
ag1590
ag117
ag250
ag844
ag1276
ag1024
ag2133
ag415
ag1504
ag696
ag1506
ag685
ag2127
ag2192
ag726
ag524
ag1855
ag1805
ag922
ag619
ag662
ag1051
ag571
ag39
ag1618
ag2024
ag1044
ag1329
ag836
ag408
ag2004
ag1954
ag1924
ag469
ag1479
ag1992
ag1100
ag1711
ag107
ag1334
ag563
ag1541
ag43
ag102
ag594
ag1397
ag1722
ag1075
ag872
ag1278
ag2210
ag1202
ag348
ag182
ag2092
ag1287
ag214
ag455
ag1605
ag222
ag650
ag867
ag2043
ag106
ag1904
ag657
ag772
ag1001
ag656
ag1158
ag784
ag615
ag364
ag1134
ag70
ag488
ag1434
ag1586
ag73
ag2107
ag111
ag1573
ag50
ag1909
ag1495
ag439
ag1637
ag272
ag2033
ag1931
ag1170
ag160
ag11
ag1193
ag1481
ag393
ag1689
ag2113
ag516
ag560
ag233
ag410
ag975
ag95
ag1444
ag1918
ag517
ag1775
ag1453
ag914
ag512
ag947
ag1432
asS'separator'
p2240
S'='
sS'sparse'
p2241
I01
sb.