ccopy_reg
_reconstructor
p1
(csklearn.feature_extraction.dict_vectorizer
DictVectorizer
p2
c__builtin__
object
p3
NtRp4
(dp5
S'sort'
p6
I01
sS'feature_names_'
p7
(lp8
S'advcl=collapse'
p9
aS'advcl=go'
p10
aS'advcl=have'
p11
aS'advcl=miss'
p12
aS'advcl=target'
p13
aS'advmod=absolutely'
p14
aS'advmod=actually'
p15
aS'advmod=here'
p16
aS'advmod=much'
p17
aS'advmod=now'
p18
aS'advmod=often'
p19
aS'advmod=really'
p20
aS'advmod=still'
p21
aS'advmod=then'
p22
aS'advmod=there'
p23
aS'advmod=together'
p24
aS'advmod=traditionally'
p25
aS'advmod=well'
p26
aS'amod=ceremonial'
p27
aS'amod=white'
p28
aS'amod=wooden'
p29
aS'aux=be'
p30
aS'aux=can'
p31
aS'aux=have'
p32
aS'aux=might'
p33
aS'aux=must'
p34
aS'aux=should'
p35
aS'aux=stay'
p36
aS'aux=to'
p37
aS'aux=will'
p38
aS'aux=would'
p39
aS'auxpass=be'
p40
aS'auxpass=get'
p41
aS'cc=and'
p42
aS'cc=but'
p43
aS'cc=or'
p44
aS'cc=rather'
p45
aS'ccomp=accept'
p46
aS'ccomp=make'
p47
aS'ccomp=say'
p48
aS'ccomp=take'
p49
aS'complm=that'
p50
aS'complm=whether'
p51
aS'conj=able'
p52
aS'conj=avoid'
p53
aS'conj=carrot'
p54
aS'conj=change'
p55
aS'conj=do'
p56
aS'conj=get'
p57
aS'conj=give'
p58
aS'conj=gun'
p59
aS'conj=have'
p60
aS'conj=hose'
p61
aS'conj=keep'
p62
aS'conj=lick'
p63
aS'conj=miss'
p64
aS'conj=quit'
p65
aS'conj=receive'
p66
aS'conj=seek'
p67
aS'conj=show'
p68
aS'conj=try'
p69
aS'conj=weapon'
p70
aS'csubj=run'
p71
aS'dep=#PRP#'
p72
aS'dep=if'
p73
aS'dep=so'
p74
aS'det=a'
p75
aS'det=the'
p76
aS'det=those'
p77
aS'dobj=#PRP#'
p78
aS'dobj=center'
p79
aS'dobj=gene'
p80
aS'dobj=head'
p81
aS'dobj=heat'
p82
aS'dobj=more'
p83
aS'dobj=needle'
p84
aS'dobj=note'
p85
aS'dobj=plaster'
p86
aS'dobj=point'
p87
aS'dobj=position'
p88
aS'mark=after'
p89
aS'mark=if'
p90
aS'mark=like'
p91
aS'mark=while'
p92
aS'neg=not'
p93
aS'nn=command'
p94
aS'nn=country'
p95
aS'nsubj=#NUMBER#'
p96
aS'nsubj=#PRP#'
p97
aS'nsubj=Europeans'
p98
aS'nsubj=India'
p99
aS'nsubj=Korea'
p100
aS'nsubj=Medvedev'
p101
aS'nsubj=Movement'
p102
aS'nsubj=Mugabe'
p103
aS'nsubj=Palestinians'
p104
aS'nsubj=Pyongyang'
p105
aS'nsubj=Republicans'
p106
aS'nsubj=Russia'
p107
aS'nsubj=cell'
p108
aS'nsubj=community'
p109
aS'nsubj=driver'
p110
aS'nsubj=firefighter'
p111
aS'nsubj=member'
p112
aS'nsubj=most'
p113
aS'nsubj=ngo'
p114
aS'nsubj=other'
p115
aS'nsubj=parliamentarian'
p116
aS'nsubj=people'
p117
aS'nsubj=president'
p118
aS'nsubj=program'
p119
aS'nsubj=rebel'
p120
aS'nsubj=that'
p121
aS'nsubj=who'
p122
aS'nsubjpass=#PRP#'
p123
aS'nsubjpass=Andie'
p124
aS'nsubjpass=Somalia'
p125
aS'nsubjpass=Trucks'
p126
aS'nsubjpass=Uighurs'
p127
aS'nsubjpass=country'
p128
aS'nsubjpass=gondola'
p129
aS'nsubjpass=man'
p130
aS'nsubjpass=many'
p131
aS'nsubjpass=people'
p132
aS'nsubjpass=someone'
p133
aS'nsubjpass=talk'
p134
aS'nsubjpass=that'
p135
aS'nsubjpass=who'
p136
aS'nsubjpass=worker'
p137
aS'parataxis=have'
p138
aS'partmod=court'
p139
aS'prep=as'
p140
aS'prep=at'
p141
aS'prep=before'
p142
aS'prep=by'
p143
aS'prep=down'
p144
aS'prep=during'
p145
aS'prep=for'
p146
aS'prep=in'
p147
aS'prep=include'
p148
aS'prep=inside'
p149
aS'prep=into'
p150
aS'prep=like'
p151
aS'prep=of'
p152
aS'prep=on'
p153
aS'prep=over'
p154
aS'prep=since'
p155
aS'prep=through'
p156
aS'prep=to'
p157
aS'prep=with'
p158
aS'prep=without'
p159
aS'prt=around'
p160
aS'rcmod=balance'
p161
aS'rcmod=give'
p162
aS'tmod=#DATE#'
p163
aS'tmod=year'
p164
aS'w+1=,'
p165
aS'w+1=.'
p166
aS'w+1=:'
p167
aS'w+1=a'
p168
aS'w+1=about'
p169
aS'w+1=absolutely'
p170
aS'w+1=and'
p171
aS'w+1=around'
p172
aS'w+1=at'
p173
aS'w+1=be'
p174
aS'w+1=because'
p175
aS'w+1=by'
p176
aS'w+1=figure'
p177
aS'w+1=for'
p178
aS'w+1=he'
p179
aS'w+1=here'
p180
aS'w+1=house'
p181
aS'w+1=in'
p182
aS'w+1=inside'
p183
aS'w+1=it'
p184
aS'w+1=its'
p185
aS'w+1=more'
p186
aS'w+1=needle'
p187
aS'w+1=of'
p188
aS'w+1=on'
p189
aS'w+1=or'
p190
aS'w+1=over'
p191
aS'w+1=plaster'
p192
aS'w+1=point'
p193
aS'w+1=shelter'
p194
aS'w+1=strategy'
p195
aS'w+1=that'
p196
aS'w+1=the'
p197
aS'w+1=there'
p198
aS'w+1=they'
p199
aS'w+1=this'
p200
aS'w+1=to'
p201
aS'w+1=together'
p202
aS'w+1=top'
p203
aS'w+1=when'
p204
aS'w+1=with'
p205
aS"w+2=''"
p206
aS'w+2=,'
p207
aS'w+2=.'
p208
aS'w+2=Guantanamo'
p209
aS'w+2=Gul'
p210
aS'w+2=I'
p211
aS'w+2=Iraq'
p212
aS'w+2=South'
p213
aS'w+2=Tanzania'
p214
aS'w+2=U.S.'
p215
aS'w+2=a'
p216
aS'w+2=accept'
p217
aS'w+2=agreement'
p218
aS'w+2=announce'
p219
aS'w+2=anything'
p220
aS'w+2=balance'
p221
aS'w+2=be'
p222
aS'w+2=carrot'
p223
aS'w+2=conflict'
p224
aS'w+2=court'
p225
aS'w+2=dead'
p226
aS'w+2=dynamite'
p227
aS'w+2=extreme'
p228
aS'w+2=fail'
p229
aS'w+2=for'
p230
aS'w+2=from'
p231
aS'w+2=gene'
p232
aS'w+2=gun'
p233
aS'w+2=half'
p234
aS'w+2=he'
p235
aS'w+2=head'
p236
aS'w+2=heat'
p237
aS'w+2=in'
p238
aS'w+2=intimidation'
p239
aS'w+2=into'
p240
aS'w+2=issue'
p241
aS'w+2=it'
p242
aS'w+2=its'
p243
aS'w+2=last'
p244
aS'w+2=left-over'
p245
aS'w+2=local'
p246
aS'w+2=maintain'
p247
aS'w+2=muddy'
p248
aS'w+2=my'
p249
aS'w+2=of'
p250
aS'w+2=on'
p251
aS'w+2=out'
p252
aS'w+2=paint-ball'
p253
aS'w+2=people'
p254
aS'w+2=plan'
p255
aS'w+2=police'
p256
aS'w+2=position'
p257
aS'w+2=poverty'
p258
aS'w+2=primary'
p259
aS'w+2=probe'
p260
aS'w+2=reassuring'
p261
aS'w+2=rubber'
p262
aS'w+2=she'
p263
aS'w+2=since'
p264
aS'w+2=someone'
p265
aS'w+2=test'
p266
aS'w+2=that'
p267
aS'w+2=the'
p268
aS'w+2=there'
p269
aS'w+2=these'
p270
aS'w+2=they'
p271
aS'w+2=this'
p272
aS'w+2=those'
p273
aS'w+2=three-quarter'
p274
aS'w+2=to'
p275
aS'w+2=traffic'
p276
aS'w+2=try'
p277
aS'w+2=very'
p278
aS'w+2=we'
p279
aS'w+2=weapon'
p280
aS'w+2=what'
p281
aS'w+2=will'
p282
aS'w-1=,'
p283
aS'w-1=Europeans'
p284
aS'w-1=Pyongyang'
p285
aS'w-1=a'
p286
aS'w-1=and'
p287
aS'w-1=baton'
p288
aS'w-1=be'
p289
aS'w-1=become'
p290
aS'w-1=but'
p291
aS'w-1=by'
p292
aS'w-1=can'
p293
aS'w-1=carry'
p294
aS'w-1=child'
p295
aS'w-1=command'
p296
aS'w-1=community'
p297
aS'w-1=country'
p298
aS'w-1=donor'
p299
aS'w-1=driver'
p300
aS'w-1=find'
p301
aS'w-1=firefighter'
p302
aS'w-1=for'
p303
aS'w-1=from'
p304
aS'w-1=get'
p305
aS'w-1=have'
p306
aS'w-1=in'
p307
aS'w-1=it'
p308
aS'w-1=like'
p309
aS'w-1=motorist'
p310
aS'w-1=much'
p311
aS'w-1=must'
p312
aS'w-1=now'
p313
aS'w-1=of'
p314
aS'w-1=often'
p315
aS'w-1=people'
p316
aS'w-1=president'
p317
aS'w-1=really'
p318
aS'w-1=regular'
p319
aS'w-1=remain'
p320
aS'w-1=should'
p321
aS'w-1=stay'
p322
aS'w-1=still'
p323
aS'w-1=that'
p324
aS'w-1=the'
p325
aS'w-1=they'
p326
aS'w-1=those'
p327
aS'w-1=to'
p328
aS'w-1=use'
p329
aS'w-1=we'
p330
aS'w-1=white'
p331
aS'w-1=who'
p332
aS'w-1=will'
p333
aS'w-1=with'
p334
aS'w-1=wooden'
p335
aS'w-1=would'
p336
aS'w-1=you'
p337
aS'w-2=,'
p338
aS'w-2=.'
p339
aS'w-2=Andie'
p340
aS'w-2=India'
p341
aS'w-2=Korea'
p342
aS'w-2=Mugabe'
p343
aS'w-2=Putin'
p344
aS'w-2=Republicans'
p345
aS'w-2=River'
p346
aS'w-2=Russia'
p347
aS'w-2=a'
p348
aS'w-2=agree'
p349
aS'w-2=ahead'
p350
aS'w-2=and'
p351
aS'w-2=axis'
p352
aS'w-2=bank'
p353
aS'w-2=battery'
p354
aS'w-2=be'
p355
aS'w-2=but'
p356
aS'w-2=butt'
p357
aS'w-2=carrot'
p358
aS'w-2=cell'
p359
aS'w-2=ceremonial'
p360
aS'w-2=down'
p361
aS'w-2=example'
p362
aS'w-2=failure'
p363
aS'w-2=farmer'
p364
aS'w-2=for'
p365
aS'w-2=generation'
p366
aS'w-2=gondola'
p367
aS'w-2=have'
p368
aS'w-2=he'
p369
aS'w-2=iPhone'
p370
aS'w-2=if'
p371
aS'w-2=in'
p372
aS'w-2=intention'
p373
aS'w-2=international'
p374
aS'w-2=kind'
p375
aS'w-2=learn'
p376
aS'w-2=likely'
p377
aS'w-2=long'
p378
aS'w-2=make'
p379
aS'w-2=maker'
p380
aS'w-2=mean'
p381
aS'w-2=member'
p382
aS'w-2=might'
p383
aS'w-2=million'
p384
aS'w-2=mustach'
p385
aS'w-2=nervous'
p386
aS'w-2=not'
p387
aS'w-2=number'
p388
aS'w-2=of'
p389
aS'w-2=only'
p390
aS'w-2=organization'
p391
aS'w-2=other'
p392
aS'w-2=ought'
p393
aS'w-2=out'
p394
aS'w-2=parliamentarian'
p395
aS'w-2=particle'
p396
aS'w-2=party'
p397
aS'w-2=patience'
p398
aS'w-2=people'
p399
aS'w-2=police'
p400
aS'w-2=pretty'
p401
aS'w-2=reach'
p402
aS'w-2=rebel'
p403
aS'w-2=say'
p404
aS'w-2=see'
p405
aS'w-2=shield'
p406
aS'w-2=small'
p407
aS'w-2=someone'
p408
aS'w-2=spending'
p409
aS'w-2=state'
p410
aS'w-2=straw'
p411
aS'w-2=sure'
p412
aS'w-2=tend'
p413
aS'w-2=term'
p414
aS'w-2=that'
p415
aS'w-2=the'
p416
aS'w-2=then'
p417
aS'w-2=they'
p418
aS'w-2=to'
p419
aS'w-2=train'
p420
aS'w-2=truck'
p421
aS'w-2=try'
p422
aS'w-2=virtue'
p423
aS'w-2=we'
p424
aS'w-2=while'
p425
aS'w-2=who'
p426
aS'w-2=will'
p427
aS'w-2=willingness'
p428
aS'w-2=with'
p429
aS'w-2=work'
p430
aS'w-2=you'
p431
aS'xcomp=block'
p432
asS'dtype'
p433
cnumpy
float64
p434
sS'vocabulary_'
p435
(dp436
g22
I13
sg142
I133
sg131
I122
sg310
I301
sg424
I415
sg399
I390
sg132
I123
sg103
I94
sg249
I240
sg296
I287
sg195
I186
sg298
I289
sg91
I82
sg26
I17
sg360
I351
sg231
I222
sg95
I86
sg172
I163
sg400
I391
sg300
I291
sg418
I409
sg309
I300
sg143
I134
sg366
I357
sg181
I172
sg120
I111
sg375
I366
sg196
I187
sg343
I334
sg336
I327
sg293
I284
sg203
I194
sg20
I11
sg98
I89
sg164
I155
sg333
I324
sg54
I45
sg292
I283
sg289
I280
sg350
I341
sg416
I407
sg352
I343
sg134
I125
sg227
I218
sg33
I24
sg426
I417
sg188
I179
sg112
I103
sg299
I290
sg275
I266
sg189
I180
sg244
I235
sg220
I211
sg190
I181
sg248
I239
sg306
I297
sg48
I39
sg229
I220
sg238
I229
sg367
I358
sg281
I272
sg88
I79
sg129
I120
sg412
I403
sg266
I257
sg31
I22
sg50
I41
sg318
I309
sg62
I53
sg337
I328
sg282
I273
sg304
I295
sg259
I250
sg53
I44
sg415
I406
sg197
I188
sg365
I356
sg222
I213
sg199
I190
sg123
I114
sg388
I379
sg147
I138
sg39
I30
sg178
I169
sg61
I52
sg297
I288
sg157
I148
sg342
I333
sg323
I314
sg171
I162
sg395
I386
sg398
I389
sg83
I74
sg230
I221
sg321
I312
sg121
I112
sg308
I299
sg183
I174
sg217
I208
sg223
I214
sg272
I263
sg417
I408
sg270
I261
sg307
I298
sg279
I270
sg24
I15
sg264
I255
sg29
I20
sg94
I85
sg325
I316
sg59
I50
sg329
I320
sg160
I151
sg241
I232
sg90
I81
sg430
I421
sg410
I401
sg349
I340
sg82
I73
sg76
I67
sg265
I256
sg148
I139
sg81
I72
sg170
I161
sg411
I402
sg346
I337
sg285
I276
sg122
I113
sg245
I236
sg389
I380
sg162
I153
sg328
I319
sg187
I178
sg221
I212
sg414
I405
sg78
I69
sg111
I102
sg233
I224
sg385
I376
sg403
I394
sg154
I145
sg107
I98
sg173
I164
sg67
I58
sg179
I170
sg58
I49
sg135
I126
sg25
I16
sg301
I292
sg347
I338
sg16
I7
sg261
I252
sg27
I18
sg334
I325
sg407
I398
sg327
I318
sg77
I68
sg106
I97
sg262
I253
sg47
I38
sg63
I54
sg72
I63
sg84
I75
sg146
I137
sg226
I217
sg177
I168
sg311
I302
sg138
I129
sg340
I331
sg40
I31
sg12
I3
sg214
I205
sg21
I12
sg118
I109
sg393
I384
sg100
I91
sg198
I189
sg409
I400
sg210
I201
sg96
I87
sg255
I246
sg423
I414
sg263
I254
sg185
I176
sg126
I117
sg274
I265
sg127
I118
sg64
I55
sg99
I90
sg239
I230
sg320
I311
sg316
I307
sg432
I423
sg56
I47
sg17
I8
sg130
I121
sg250
I241
sg251
I242
sg201
I192
sg235
I226
sg114
I105
sg253
I244
sg150
I141
sg236
I227
sg60
I51
sg302
I293
sg228
I219
sg237
I228
sg288
I279
sg159
I150
sg209
I200
sg149
I140
sg390
I381
sg354
I345
sg345
I336
sg11
I2
sg381
I372
sg278
I269
sg258
I249
sg234
I225
sg9
I0
sg362
I353
sg19
I10
sg70
I61
sg317
I308
sg378
I369
sg175
I166
sg344
I335
sg13
I4
sg182
I173
sg213
I204
sg191
I182
sg65
I56
sg273
I264
sg243
I234
sg41
I32
sg218
I209
sg28
I19
sg86
I77
sg23
I14
sg384
I375
sg374
I365
sg92
I83
sg74
I65
sg45
I36
sg246
I237
sg429
I420
sg353
I344
sg38
I29
sg117
I108
sg158
I149
sg44
I35
sg109
I100
sg110
I101
sg137
I128
sg232
I223
sg105
I96
sg402
I393
sg371
I362
sg341
I332
sg372
I363
sg376
I367
sg125
I116
sg428
I419
sg14
I5
sg80
I71
sg206
I197
sg391
I382
sg359
I350
sg55
I46
sg69
I60
sg128
I119
sg294
I285
sg331
I322
sg322
I313
sg396
I387
sg408
I399
sg136
I127
sg368
I359
sg335
I326
sg42
I33
sg101
I92
sg186
I177
sg176
I167
sg174
I165
sg401
I392
sg291
I282
sg180
I171
sg284
I275
sg373
I364
sg280
I271
sg139
I130
sg184
I175
sg97
I88
sg169
I160
sg405
I396
sg357
I348
sg421
I412
sg43
I34
sg276
I267
sg224
I215
sg397
I388
sg151
I142
sg73
I64
sg319
I310
sg34
I25
sg57
I48
sg361
I352
sg370
I361
sg119
I110
sg355
I346
sg152
I143
sg277
I268
sg153
I144
sg89
I80
sg383
I374
sg161
I152
sg363
I354
sg36
I27
sg267
I258
sg406
I397
sg113
I104
sg332
I323
sg295
I286
sg314
I305
sg252
I243
sg419
I410
sg163
I154
sg351
I342
sg15
I6
sg93
I84
sg422
I413
sg49
I40
sg200
I191
sg369
I360
sg155
I146
sg193
I184
sg205
I196
sg52
I43
sg18
I9
sg102
I93
sg404
I395
sg240
I231
sg268
I259
sg141
I132
sg427
I418
sg140
I131
sg338
I329
sg339
I330
sg287
I278
sg212
I203
sg32
I23
sg356
I347
sg194
I185
sg219
I210
sg283
I274
sg387
I378
sg247
I238
sg425
I416
sg79
I70
sg71
I62
sg420
I411
sg156
I147
sg104
I95
sg392
I383
sg290
I281
sg35
I26
sg46
I37
sg394
I385
sg85
I76
sg116
I107
sg348
I339
sg326
I317
sg192
I183
sg75
I66
sg286
I277
sg256
I247
sg202
I193
sg379
I370
sg66
I57
sg269
I260
sg382
I373
sg386
I377
sg413
I404
sg51
I42
sg271
I262
sg242
I233
sg115
I106
sg380
I371
sg312
I303
sg254
I245
sg358
I349
sg377
I368
sg225
I216
sg215
I206
sg87
I78
sg204
I195
sg144
I135
sg330
I321
sg37
I28
sg431
I422
sg124
I115
sg10
I1
sg108
I99
sg305
I296
sg303
I294
sg165
I156
sg166
I157
sg257
I248
sg133
I124
sg208
I199
sg207
I198
sg315
I306
sg167
I158
sg68
I59
sg364
I355
sg145
I136
sg260
I251
sg211
I202
sg168
I159
sg313
I304
sg324
I315
sg30
I21
sg216
I207
ssS'separator'
p437
S'='
sS'sparse'
p438
I01
sb.