ccopy_reg
_reconstructor
p1
(csklearn.feature_extraction.dict_vectorizer
DictVectorizer
p2
c__builtin__
object
p3
NtRp4
(dp5
S'vocabulary_'
p6
(dp7
S'w+1=energy'
p8
I153
sS'nsubj=rise'
p9
I106
sS'ccomp=call'
p10
I37
sS'nsubj=relation'
p11
I104
sS'nsubj=violence'
p12
I112
sS'w+2=between'
p13
I202
sS'w-2=level'
p14
I343
sS'w+1=diplomatic'
p15
I150
sS'dobj=condition'
p16
I54
sS'prep=by'
p17
I122
sS'w-2=country'
p18
I326
sS'dobj=loss'
p19
I61
sS'w-1=action'
p20
I258
sS'w-1=would'
p21
I294
sS'w-1=violence'
p22
I290
sS'w+2=recent'
p23
I239
sS'w+2=Fleisher'
p24
I193
sS'w+2=problem'
p25
I237
sS'w-1=will'
p26
I292
sS'dobj=inflation'
p27
I60
sS'advcl=arrive'
p28
I1
sS'w-2=price'
p29
I354
sS'w+1=asian'
p30
I142
sS'aux=may'
p31
I29
sS'nn=meltdown'
p32
I79
sS'w-2=condemn'
p33
I322
sS'w-1=be'
p34
I262
sS'advcl=see'
p35
I12
sS'w-1=avoid'
p36
I261
sS'w+1=militancy'
p37
I166
sS'advcl=leave'
p38
I7
sS'w+1=job'
p39
I162
sS'w+1=economy'
p40
I152
sS'nsubj=defeat'
p41
I90
sS'w-2=continue'
p42
I324
sS'w-1=have'
p43
I272
sS'w-2=degradation'
p44
I330
sS'conj=need'
p45
I43
sS'nsubj=change'
p46
I83
sS'nsubj=price'
p47
I100
sS'w+2=in'
p48
I227
sS'advcl=fill'
p49
I4
sS'w+2=it'
p50
I228
sS'w-2=only'
p51
I351
sS'w-1=could'
p52
I265
sS'w-1=also'
p53
I259
sS'aux=can'
p54
I26
sS'complm=that'
p55
I39
sS'w+1=weather'
p56
I185
sS'w+1=the'
p57
I177
sS'w-2=grapple'
p58
I340
sS'nsubj=shortage'
p59
I109
sS'w+1=plight'
p60
I168
sS'amod=economic'
p61
I24
sS'w-1=hardship'
p62
I271
sS'prep=in'
p63
I126
sS'aux=would'
p64
I32
sS'w-1=dispute'
p65
I267
sS'w-1=about'
p66
I257
sS'w+2=plight'
p67
I236
sS'w-2=security'
p68
I363
sS'prep=amid'
p69
I119
sS'w-2=a'
p70
I306
sS'w-1=population'
p71
I284
sS'w-1=change'
p72
I264
sS'w+1=until'
p73
I182
sS'w+1=and'
p74
I140
sS'w-2=sign'
p75
I364
sS'w+2=already'
p76
I197
sS'w+2=for'
p77
I221
sS'w+2=economic'
p78
I214
sS'w-2=condition'
p79
I323
sS'w+2=hunger'
p80
I226
sS'w-2=address'
p81
I307
sS'w-1=in'
p82
I274
sS'w-2=control'
p83
I325
sS'w+2=rebel'
p84
I238
sS'w+2=since'
p85
I242
sS'advcl=mount'
p86
I8
sS'advcl=force'
p87
I5
sS'w-1=the'
p88
I286
sS'advmod=likely'
p89
I19
sS'w+2=official'
p90
I235
sS'nsubj=availability'
p91
I82
sS'mark=if'
p92
I76
sS'advcl=rise'
p93
I10
sS'w-2=disaster'
p94
I331
sS'advmod=where'
p95
I23
sS'advmod=considerably'
p96
I16
sS'w-2=cause'
p97
I316
sS'w+2=day'
p98
I212
sS'w-2=weak'
p99
I374
sS'advcl=strain'
p100
I13
sS'dobj=effect'
p101
I58
sS'nsubj=vulnerability'
p102
I113
sS'w+2=call'
p103
I205
sS'w+2=crisis'
p104
I211
sS'iobj=security'
p105
I74
sS'mark=as'
p106
I75
sS'w-2=situation'
p107
I365
sS'w-2=rate'
p108
I357
sS'w-2=of'
p109
I350
sS'w-2=energy'
p110
I333
sS'w-1=to'
p111
I289
sS'advmod=especially'
p112
I17
sS'conj=save'
p113
I46
sS'w-2=clan'
p114
I319
sS'w+2=balance'
p115
I200
sS'w+2=more'
p116
I232
sS'w+1=its'
p117
I161
sS'dobj=quality'
p118
I64
sS'w-2=point'
p119
I353
sS'nsubj=dispute'
p120
I91
sS'nn=inflation'
p121
I78
sS'w+1=as'
p122
I141
sS'w+1=at'
p123
I143
sS'nsubj=few'
p124
I94
sS'dobj=extreme'
p125
I59
sS'w+1=relation'
p126
I170
sS'w+2=so'
p127
I244
sS'dobj=turmoil'
p128
I72
sS'w-2=Niger'
p129
I303
sS'w-1=can'
p130
I263
sS'w+1=mortgage'
p131
I167
sS'w-1=likely'
p132
I276
sS'w+2=heavy'
p133
I224
sS'w-1=with'
p134
I293
sS'w+2=because'
p135
I201
sS'nsubj=rain'
p136
I102
sS'w+1=trend'
p137
I180
sS'w-1=disease'
p138
I266
sS'prep=for'
p139
I125
sS'w+1=we'
p140
I184
sS'w-2=even'
p141
I334
sS'w+1=tie'
p142
I178
sS'w+2=as'
p143
I199
sS'w+1=--'
p144
I133
sS'prep=despite'
p145
I123
sS'dobj=strife'
p146
I70
sS'w-2=roadway'
p147
I361
sS'auxpass=be'
p148
I33
sS'w+1=North'
p149
I135
sS'nsubj=damage'
p150
I87
sS"w-1='s"
p151
I253
sS'w-2=with'
p152
I377
sS'w+1=sectarian'
p153
I172
sS'w-2=manage'
p154
I346
sS'w+1=chronic'
p155
I145
sS'nsubj=shock'
p156
I108
sS'ccomp=grow'
p157
I38
sS'w-2=Khmer'
p158
I302
sS'nsubj=renewal'
p159
I105
sS'dobj=woe'
p160
I73
sS'w+2=humanitarian'
p161
I225
sS'w-2=camp'
p162
I315
sS'conj=increase'
p163
I42
sS'w-2=deal'
p164
I329
sS'w+2=with'
p165
I251
sS'w+1=tension'
p166
I176
sS"w-1=''"
p167
I252
sS'w-2=those'
p168
I368
sS'w-2=over'
p169
I352
sS'w+2=air'
p170
I196
sS'advcl=continue'
p171
I2
sS'w+2=summer'
p172
I246
sS'w-2=violence'
p173
I371
sS'w+1=credit'
p174
I148
sS'w-2=month'
p175
I347
sS'w-1=want'
p176
I291
sS'w+2=market'
p177
I231
sS'w-1=meltdown'
p178
I279
sS'w+2=food'
p179
I220
sS'w-1=and'
p180
I260
sS'dep=at'
p181
I48
sS'w+2=turmoil'
p182
I249
sS'w+1=violence'
p183
I183
sS'nsubj=well-being'
p184
I115
sS'w+2=extreme'
p185
I218
sS'w+1=Sunni-Shia'
p186
I136
sS'dobj=tension'
p187
I71
sS'w-1=measure'
p188
I278
sS'w-1=flee'
p189
I269
sS'w+1=political'
p190
I169
sS'w-2=malnutrition'
p191
I345
sS"w-2='s"
p192
I295
sS'w-2=civilian'
p193
I318
sS'w+2=lack'
p194
I229
sS'w+2=loss'
p195
I230
sS'w+2=budget'
p196
I204
sS'w-2=resident'
p197
I360
sS'w-2=Zimbabwe'
p198
I305
sS'advmod=often'
p199
I20
sS'w-2=agriculture'
p200
I308
sS'w-2=remain'
p201
I359
sS'advmod=the'
p202
I22
sS'w+1=trade'
p203
I179
sS'w+1=land'
p204
I164
sS'w-2=likely'
p205
I344
sS'tmod=day'
p206
I130
sS'dobj=deficit'
p207
I56
sS'w-2=Iraq'
p208
I301
sS'w-2=Yemen'
p209
I304
sS'w+1=considerably'
p210
I147
sS'advmod=even'
p211
I18
sS'w+2=restriction'
p212
I241
sS'w-2=expect'
p213
I335
sS'mark=while'
p214
I77
sS'w-2=the'
p215
I367
sS'cc=rather'
p216
I36
sS'w-2=problem'
p217
I355
sS'w+1=labor'
p218
I163
sS'dep=tighten'
p219
I51
sS'aux=will'
p220
I31
sS'w-2=Bhutto'
p221
I299
sS'w+2=new'
p222
I233
sS'w+2=U.S.'
p223
I195
sS'prep=with'
p224
I129
sS'dobj=relation'
p225
I65
sS'w-2=troops'
p226
I370
sS'w+2=fragile'
p227
I222
sS'w-2=fear'
p228
I338
sS'conj=fail'
p229
I41
sS'w-2=day'
p230
I328
sS'w-2=climate'
p231
I320
sS'dobj=problem'
p232
I63
sS'w+1=situation'
p233
I174
sS'nsubj=inequality'
p234
I97
sS'dobj=cancer'
p235
I53
sS'nsubj=deal'
p236
I88
sS'w+1=socio-economic'
p237
I175
sS'w+2=civil'
p238
I207
sS'nsubjpass=heat'
p239
I116
sS'nsubj=warming'
p240
I114
sS'advmod=also'
p241
I15
sS'w-2=concern'
p242
I321
sS'w+1=rights'
p243
I171
sS'w-2=have'
p244
I341
sS'cc=and'
p245
I34
sS'conj=people'
p246
I44
sS'w+1=condition'
p247
I146
sS'conj=damage'
p248
I40
sS'w+1=by'
p249
I144
sS'nsubj=division'
p250
I92
sS'w+1=inflation'
p251
I159
sS'w+2=Korea'
p252
I194
sS'w+1=if'
p253
I157
sS'w+1=humanitarian'
p254
I155
sS'w-2=bind'
p255
I314
sS'w+1=in'
p256
I158
sS'w+2=condition'
p257
I209
sS'nsubj=#PRP#'
p258
I80
sS'w+2=violence'
p259
I250
sS'nsubj=crisis'
p260
I86
sS'cc=but'
p261
I35
sS'w+2=climate'
p262
I208
sS'w-1=or'
p263
I282
sS'nsubj=condition'
p264
I84
sS'w-1=help'
p265
I273
sS'aux=could'
p266
I27
sS'w+2=fighting'
p267
I219
sS'nsubj=increase'
p268
I96
sS'w-2=crisis'
p269
I327
sS'w-1=over'
p270
I283
sS'dep=where'
p271
I52
sS'nsubj=hardship'
p272
I95
sS'w+1=infrastructure'
p273
I160
sS'nsubj=security'
p274
I107
sS'nsubj=trade'
p275
I111
sS'w-1=themselves'
p276
I287
sS'prep=of'
p277
I127
sS'w-1=further'
p278
I270
sS'dobj=security'
p279
I66
sS'w+2=of'
p280
I234
sS'w+2=-lrb-'
p281
I190
sS'w+2=that'
p282
I247
sS'w-2=anyone'
p283
I310
sS'dep=take'
p284
I50
sS'w-1=division'
p285
I268
sS'w+2=bottleneck'
p286
I203
sS'w+2=-'
p287
I189
sS'dobj=situation'
p288
I68
sS'advcl=say'
p289
I11
sS'w-1=of'
p290
I280
sS'advcl=of'
p291
I9
sS'w-2=to'
p292
I369
sS'w+2=and'
p293
I198
sS'w-2=and'
p294
I309
sS'dobj=plight'
p295
I62
sS'nsubj=problem'
p296
I101
sS'advcl=adopt'
p297
I0
sS'w-2=Gaza'
p298
I300
sS'w+1=living'
p299
I165
sS'cop=be'
p300
I47
sS'prep=since'
p301
I128
sS'w+1=with'
p302
I187
sS'w+1=crisis'
p303
I149
sS'advcl=feed'
p304
I3
sS'w-2=say'
p305
I362
sS'dobj=shortage'
p306
I67
sS'dobj=economy'
p307
I57
sS'w+2=the'
p308
I248
sS'prep=at'
p309
I121
sS'w-2=will'
p310
I376
sS'prep=as'
p311
I120
sS'w+1=idp'
p312
I156
sS'w-2=,'
p313
I296
sS'w-2=.'
p314
I297
sS'w+2=he'
p315
I223
sS'w+1=what'
p316
I186
sS'aux=have'
p317
I28
sS'w-2=warming'
p318
I372
sS'w-1=,'
p319
I254
sS'w+2=10'
p320
I192
sS'w-2=not'
p321
I348
sS'w-2=while'
p322
I375
sS'w-2=note'
p323
I349
sS'w+1=every'
p324
I154
sS'advcl=willing'
p325
I14
sS'w-2=fact'
p326
I337
sS'w-2=at'
p327
I312
sS'w-2=as'
p328
I311
sS'w+2=strife'
p329
I245
sS'advmod=soon'
p330
I21
sS'w-2=economic'
p331
I332
sS'w+1=security'
p332
I173
sS'conj=remain'
p333
I45
sS'nsubj=action'
p334
I81
sS'w-1=they'
p335
I288
sS'nsubj=malnutrition'
p336
I98
sS'w+1=unless'
p337
I181
sS'w-1=a'
p338
I256
sS'dobj=crisis'
p339
I55
sS'w+2=effect'
p340
I215
sS'nsubj=rate'
p341
I103
sS'w+1=economic'
p342
I151
sS'w+2=drug'
p343
I213
sS'nsubj=measure'
p344
I99
sS'w-2=city'
p345
I317
sS'prep=after'
p346
I118
sS'w+2=situation'
p347
I243
sS'w-2=Afghanistan'
p348
I298
sS'dep=need'
p349
I49
sS'poss=country'
p350
I117
sS'nsubj=death'
p351
I89
sS'w+2=relation'
p352
I240
sS'w-1=Delta'
p353
I255
sS'w+1=amid'
p354
I139
sS'w-2=protest'
p355
I356
sS'w-2=heat'
p356
I342
sS'w+2=court'
p357
I210
sS'nsubj=conflict'
p358
I85
sS'nsubj=situation'
p359
I110
sS'w-2=experience'
p360
I336
sS'w+1=after'
p361
I138
sS'aux=to'
p362
I30
sS'w+2=city'
p363
I206
sS'w+2=energy'
p364
I216
sS'w-2=stem'
p365
I366
sS'advcl=increase'
p366
I6
sS'w+1=-'
p367
I132
sS'w+1=,'
p368
I131
sS'w+1=.'
p369
I134
sS'w-2=region'
p370
I358
sS'w-1=situation'
p371
I285
sS'w+2=.'
p372
I191
sS'w+2=,'
p373
I188
sS'w-1=often'
p374
I281
sS'prep=during'
p375
I124
sS'dobj=status'
p376
I69
sS'nsubj=expansion'
p377
I93
sS'w+1=a'
p378
I137
sS'w+2=especially'
p379
I217
sS'w-2=water'
p380
I373
sS'w-1=inflation'
p381
I275
sS'w-1=may'
p382
I277
sS'w-2=because'
p383
I313
sS'aux=be'
p384
I25
sS'w-2=for'
p385
I339
ssS'dtype'
p386
cnumpy
float64
p387
sS'feature_names_'
p388
(lp389
g297
ag28
ag171
ag304
ag49
ag87
ag366
ag38
ag86
ag291
ag93
ag289
ag35
ag100
ag325
ag241
ag96
ag112
ag211
ag89
ag199
ag330
ag202
ag95
ag61
ag384
ag54
ag266
ag317
ag31
ag362
ag220
ag64
ag148
ag245
ag261
ag216
ag10
ag157
ag55
ag248
ag229
ag163
ag45
ag246
ag333
ag113
ag300
ag181
ag349
ag284
ag219
ag271
ag235
ag16
ag339
ag207
ag307
ag101
ag125
ag27
ag19
ag295
ag232
ag118
ag225
ag279
ag306
ag288
ag376
ag146
ag187
ag128
ag160
ag105
ag106
ag92
ag214
ag121
ag32
ag258
ag334
ag91
ag46
ag264
ag358
ag260
ag150
ag236
ag351
ag41
ag120
ag250
ag377
ag124
ag272
ag268
ag234
ag336
ag344
ag47
ag296
ag136
ag341
ag11
ag159
ag9
ag274
ag156
ag59
ag359
ag275
ag12
ag102
ag240
ag184
ag239
ag350
ag346
ag69
ag311
ag309
ag17
ag145
ag375
ag139
ag63
ag277
ag301
ag224
ag206
ag368
ag367
ag144
ag369
ag149
ag186
ag378
ag361
ag354
ag74
ag122
ag30
ag123
ag249
ag155
ag247
ag210
ag174
ag303
ag15
ag342
ag40
ag8
ag324
ag254
ag312
ag253
ag256
ag251
ag273
ag117
ag39
ag218
ag204
ag299
ag37
ag131
ag60
ag190
ag126
ag243
ag153
ag332
ag233
ag237
ag166
ag57
ag142
ag203
ag137
ag337
ag73
ag183
ag140
ag56
ag316
ag302
ag373
ag287
ag281
ag372
ag320
ag24
ag252
ag223
ag170
ag76
ag293
ag143
ag115
ag135
ag13
ag286
ag196
ag103
ag363
ag238
ag262
ag257
ag357
ag104
ag98
ag343
ag78
ag340
ag364
ag379
ag185
ag267
ag179
ag77
ag227
ag315
ag133
ag161
ag80
ag48
ag50
ag194
ag195
ag177
ag116
ag222
ag280
ag90
ag67
ag25
ag84
ag23
ag352
ag212
ag85
ag347
ag127
ag329
ag172
ag282
ag308
ag182
ag259
ag165
ag167
ag151
ag319
ag353
ag338
ag66
ag20
ag53
ag180
ag36
ag34
ag130
ag72
ag52
ag138
ag65
ag285
ag189
ag278
ag62
ag43
ag265
ag82
ag381
ag132
ag382
ag188
ag178
ag290
ag374
ag263
ag270
ag71
ag371
ag88
ag276
ag335
ag111
ag22
ag176
ag26
ag134
ag21
ag192
ag313
ag314
ag348
ag221
ag298
ag208
ag158
ag129
ag209
ag198
ag70
ag81
ag200
ag294
ag283
ag328
ag327
ag383
ag255
ag162
ag97
ag345
ag193
ag114
ag231
ag242
ag33
ag79
ag42
ag83
ag18
ag269
ag230
ag164
ag44
ag94
ag331
ag110
ag141
ag213
ag360
ag326
ag228
ag385
ag58
ag244
ag356
ag14
ag205
ag191
ag154
ag175
ag321
ag323
ag109
ag51
ag169
ag119
ag29
ag217
ag355
ag108
ag370
ag201
ag197
ag147
ag305
ag68
ag75
ag107
ag365
ag215
ag168
ag292
ag226
ag173
ag318
ag380
ag99
ag322
ag310
ag152
asS'separator'
p390
S'='
sS'sparse'
p391
I01
sb.