ccopy_reg
_reconstructor
p1
(csklearn.svm.classes
LinearSVC
p2
c__builtin__
object
p3
NtRp4
(dp5
S'loss'
p6
S'squared_hinge'
p7
sS'C'
F1
sS'classes_'
p8
cnumpy.core.multiarray
_reconstruct
p9
(cnumpy
ndarray
p10
(I0
tS'b'
tRp11
(I1
(I2
tcnumpy
dtype
p12
(S'S8'
I0
I1
tRp13
(I3
S'|'
NNNI8
I1
I0
tbI00
S'mark\x00\x00\x00\x00restrain'
tbsS'verbose'
p14
I0
sS'intercept_scaling'
p15
I1
sS'dual'
p16
I01
sS'fit_intercept'
p17
I01
sS'max_iter'
p18
I1000
sS'n_iter_'
p19
cnumpy.core.multiarray
scalar
p20
(g12
(S'i4'
I0
I1
tRp21
(I3
S'<'
NNNI-1
I-1
I0
tbS'\xb9\x00\x00\x00'
tRp22
sS'penalty'
p23
S'l2'
p24
sS'multi_class'
p25
S'ovr'
p26
sS'random_state'
p27
NsS'tol'
p28
F0.0001
sS'coef_'
p29
g9
(g10
(I0
tS'b'
tRp30
(I1
(I1
I12
tg12
(S'f8'
I0
I1
tRp31
(I3
S'<'
NNNI-1
I-1
I0
tbI01
S' b\xdf\x03\xf8\xe7t\xbf b\xdf\x03\xf8\xe7t\xbf\x00\xab\xbcP\xd6\xddK? b\xdf\x03\xf8\xe7t\xbf b\xdf\x03\xf8\xe7t\xbf\x00\xab\xbcP\xd6\xddK? b\xdf\x03\xf8\xe7t\xbf\x00\xab\xbcP\xd6\xddK? b\xdf\x03\xf8\xe7t\xbf\x00\xab\xbcP\xd6\xddK? b\xdf\x03\xf8\xe7t\xbf\x00\xab\xbcP\xd6\xddK?'
tbsS'intercept_'
p32
g9
(g10
(I0
tS'b'
tRp33
(I1
(I1
tg31
I00
S'\x00\xcd\xc79=lq\xbf'
tbsS'class_weight'
p34
Nsb.