ccopy_reg
_reconstructor
p1
(csklearn.feature_extraction.dict_vectorizer
DictVectorizer
p2
c__builtin__
object
p3
NtRp4
(dp5
S'sort'
p6
I01
sS'feature_names_'
p7
(lp8
S'advcl=raise'
p9
aS'advmod=basically'
p10
aS'aux=can'
p11
aS'aux=could'
p12
aS'aux=have'
p13
aS'aux=to'
p14
aS'auxpass=be'
p15
aS'cc=and'
p16
aS'complm=that'
p17
aS'conj=make'
p18
aS'conj=think'
p19
aS'dep=volition'
p20
aS'dobj=change'
p21
aS'dobj=cooperation'
p22
aS'dobj=feeling'
p23
aS'dobj=government'
p24
aS'dobj=harvest'
p25
aS'dobj=immunity'
p26
aS'dobj=kind'
p27
aS'dobj=level'
p28
aS'dobj=shock'
p29
aS'dobj=stroke'
p30
aS'nsubj=#PRP#'
p31
aS'nsubj=be'
p32
aS'nsubj=move'
p33
aS'nsubj=scientist'
p34
aS'nsubj=that'
p35
aS'nsubj=which'
p36
aS'nsubj=who'
p37
aS'nsubjpass=movement'
p38
aS'partmod=suggest'
p39
aS'partmod=use'
p40
aS'prep=by'
p41
aS'prep=from'
p42
aS'prep=in'
p43
aS'prep=on'
p44
aS'prep=to'
p45
aS'w+1=.'
p46
aS'w+1=...'
p47
aS'w+1=a'
p48
aS'w+1=bad'
p49
aS'w+1=by'
p50
aS'w+1=change'
p51
aS'w+1=coma'
p52
aS'w+1=cooperation'
p53
aS'w+1=immunity'
p54
aS'w+1=other'
p55
aS'w+1=substantial'
p56
aS'w+1=the'
p57
aS'w+1=this'
p58
aS'w+2=.'
p59
aS'w+2=Japan'
p60
aS'w+2=and'
p61
aS'w+2=climate'
p62
aS'w+2=climatic'
p63
aS'w+2=feeling'
p64
aS'w+2=from'
p65
aS'w+2=government'
p66
aS'w+2=harvest'
p67
aS'w+2=heat'
p68
aS'w+2=kind'
p69
aS'w+2=level'
p70
aS'w+2=rather'
p71
aS'w+2=stroke'
p72
aS'w+2=the'
p73
aS'w+2=to'
p74
aS'w-1=a'
p75
aS'w-1=basically'
p76
aS'w-1=be'
p77
aS'w-1=can'
p78
aS'w-1=cause'
p79
aS'w-1=conflict'
p80
aS'w-1=could'
p81
aS'w-1=difficulty'
p82
aS'w-1=drought'
p83
aS'w-1=human'
p84
aS'w-1=scientist'
p85
aS'w-1=that'
p86
aS'w-1=therefore'
p87
aS'w-1=to'
p88
aS'w-1=which'
p89
aS'w-1=you'
p90
aS'w-2=,'
p91
aS'w-2=-'
p92
aS'w-2=a'
p93
aS'w-2=and'
p94
aS'w-2=be'
p95
aS'w-2=have'
p96
aS'w-2=in'
p97
aS'w-2=incentive'
p98
aS'w-2=increase'
p99
aS'w-2=move'
p100
aS'w-2=natural'
p101
aS'w-2=not'
p102
aS'w-2=procedure'
p103
aS'w-2=show'
p104
aS'w-2=that'
p105
aS'w-2=the'
p106
aS'w-2=use'
p107
aS'w-2=who'
p108
aS'xcomp=declare'
p109
asS'dtype'
p110
cnumpy
float64
p111
sS'vocabulary_'
p112
(dp113
g36
I27
sg65
I56
sg99
I90
sg63
I54
sg107
I98
sg54
I45
sg37
I28
sg88
I79
sg64
I55
sg41
I32
sg61
I52
sg83
I74
sg94
I85
sg67
I58
sg26
I17
sg58
I49
sg69
I60
sg28
I19
sg98
I89
sg70
I61
sg30
I21
sg40
I31
sg73
I64
sg109
I100
sg91
I82
sg22
I13
sg13
I4
sg53
I44
sg77
I68
sg21
I12
sg27
I18
sg102
I93
sg78
I69
sg97
I88
sg19
I10
sg32
I23
sg89
I80
sg49
I40
sg101
I92
sg108
I99
sg56
I47
sg66
I57
sg74
I65
sg80
I71
sg93
I84
sg20
I11
sg39
I30
sg75
I66
sg25
I16
sg84
I75
sg81
I72
sg15
I6
sg11
I2
sg17
I8
sg34
I25
sg90
I81
sg85
I76
sg60
I51
sg103
I94
sg96
I87
sg16
I7
sg105
I96
sg57
I48
sg50
I41
sg100
I91
sg71
I62
sg29
I20
sg79
I70
sg51
I42
sg43
I34
sg31
I22
sg42
I33
sg87
I78
sg38
I29
sg23
I14
sg45
I36
sg14
I5
sg62
I53
sg76
I67
sg18
I9
sg12
I3
sg106
I97
sg24
I15
sg46
I37
sg104
I95
sg59
I50
sg55
I46
sg9
I0
sg72
I63
sg52
I43
sg35
I26
sg92
I83
sg82
I73
sg47
I38
sg68
I59
sg48
I39
sg95
I86
sg44
I35
sg86
I77
sg33
I24
sg10
I1
ssS'separator'
p114
S'='
sS'sparse'
p115
I01
sb.