ccopy_reg
_reconstructor
p1
(csklearn.feature_extraction.dict_vectorizer
DictVectorizer
p2
c__builtin__
object
p3
NtRp4
(dp5
S'vocabulary_'
p6
(dp7
S'advmod=then'
p8
I11
sS'w+2=2010'
p9
I308
sS'amod=perfect'
p10
I30
sS'dobj=number'
p11
I104
sS'det=no'
p12
I76
sS'dobj=outfit'
p13
I106
sS'xcomp=lend'
p14
I622
sS'w+2=overcome'
p15
I385
sS'w+2=my'
p16
I378
sS'w+2=Melbourne'
p17
I324
sS'w-2=mixed'
p18
I575
sS'ccomp=narrow'
p19
I56
sS'w+2=but'
p20
I349
sS'w-2=election'
p21
I545
sS'w-1=ban'
p22
I432
sS'prep=that'
p23
I219
sS'w+1=until'
p24
I296
sS'w-2=need'
p25
I576
sS'w+2=money'
p26
I377
sS'rcmod=available'
p27
I224
sS'nsubjpass=Kagame'
p28
I189
sS'w-2=they'
p29
I606
sS'w-2=organize'
p30
I584
sS'dobj=agency'
p31
I83
sS'prep=by'
p32
I214
sS'w-1=perfectly'
p33
I475
sS'w-2=expose'
p34
I549
sS'prep=between'
p35
I213
sS'w-2=country'
p36
I537
sS'w+2=british'
p37
I348
sS'csubj=be'
p38
I68
sS'w-1=home'
p39
I459
sS'nsubj=government'
p40
I171
sS'dobj=both'
p41
I86
sS'nn=delegation'
p42
I140
sS'poss=year'
p43
I208
sS'w+2=recent'
p44
I391
sS'advmod=so'
p45
I10
sS'w+2=well'
p46
I407
sS'w-2=intend'
p47
I563
sS'conj=Lanka'
p48
I61
sS'tmod=year'
p49
I231
sS'nsubj=center'
p50
I166
sS'w-1=will'
p51
I502
sS'nsubj=vote'
p52
I188
sS'amod=friendly'
p53
I22
sS'w-1=drop'
p54
I447
sS'w+2=proposal'
p55
I390
sS'nsubj=number'
p56
I175
sS'w+2=begin'
p57
I343
sS'w-1=be'
p58
I433
sS'w+2=English'
p59
I318
sS'w-2=the'
p60
I604
sS'w+2=satellite'
p61
I395
sS'w+1=she'
p62
I284
sS'xcomp=give'
p63
I621
sS'w-2=time'
p64
I607
sS'ccomp=be'
p65
I55
sS'nn=boxing'
p66
I136
sS'nsubj=Tau'
p67
I160
sS'w+2=available'
p68
I341
sS'nsubj=singles'
p69
I180
sS'mark=because'
p70
I125
sS'w-2=potentially'
p71
I589
sS'amod=important'
p72
I24
sS'w+1=on'
p73
I274
sS'w+2=last'
p74
I374
sS'w+2=patient'
p75
I387
sS'w+2=favor'
p76
I357
sS'w+2=Los'
p77
I323
sS'w-1=professional'
p78
I476
sS'w-1=its'
p79
I463
sS'w-1=have'
p80
I458
sS'ccomp=say'
p81
I57
sS'w+1=human-rights'
p82
I266
sS'w+1=October'
p83
I238
sS'w+2=-lrb-'
p84
I305
sS'w-2=forfeit'
p85
I554
sS'w+2=in'
p86
I370
sS'nn=qualification'
p87
I148
sS'nsubjpass=troops'
p88
I195
sS'amod=shove'
p89
I36
sS'w-2=all'
p90
I525
sS'advmod=exactly'
p91
I7
sS'w-2=other'
p92
I585
sS'w-1=second'
p93
I483
sS'w+2=lend'
p94
I375
sS'w-1=also'
p95
I428
sS'nsubj=name'
p96
I174
sS'complm=that'
p97
I59
sS'advmod=at'
p98
I5
sS'amod=second-round'
p99
I34
sS'w+2=will'
p100
I410
sS'w+1=government'
p101
I262
sS'rcmod=attract'
p102
I223
sS'w-2=upcoming'
p103
I611
sS'w+1=the'
p104
I288
sS'w-2=for'
p105
I553
sS'w+2=be'
p106
I342
sS'w+1=they'
p107
I289
sS'w-2=group'
p108
I558
sS'w-2=miss'
p109
I573
sS'w+1=those'
p110
I291
sS'w-2=would'
p111
I619
sS'w-2=investigator'
p112
I566
sS'nsubj=sample'
p113
I178
sS'w+2=russian'
p114
I394
sS'prep=in'
p115
I216
sS'w+2=Bulgaria'
p116
I313
sS'aux=would'
p117
I50
sS'w-1=football'
p118
I453
sS'w+1=for'
p119
I261
sS'w-1=about'
p120
I427
sS'w-2=leader'
p121
I569
sS'advmod=yet'
p122
I14
sS'w-2=top'
p123
I609
sS'nn=U.S.-China'
p124
I135
sS'dobj=gain'
p125
I93
sS'w+2=convention'
p126
I351
sS'w-1=Federer'
p127
I421
sS'prep=to'
p128
I220
sS'w-1=second-round'
p129
I484
sS'dobj=worker'
p130
I122
sS'nn=championship'
p131
I137
sS'w+1=and'
p132
I246
sS'nn=soccer'
p133
I151
sS'dobj=word'
p134
I121
sS'w+1=child'
p135
I257
sS'nsubj=all'
p136
I163
sS'w+2=Monday'
p137
I325
sS'xcomp=make'
p138
I623
sS'w+1=any'
p139
I247
sS'nsubj=that'
p140
I185
sS'w-2=condition'
p141
I536
sS'w-1=U.S.-China'
p142
I425
sS'w-1=when'
p143
I501
sS'w-2=government'
p144
I557
sS'nn=opening'
p145
I147
sS'prt=up'
p146
I222
sS'w+2=amount'
p147
I338
sS'det=this'
p148
I79
sS'w-1=night'
p149
I469
sS'nsubj=app'
p150
I164
sS'parataxis=be'
p151
I197
sS'w+2=we'
p152
I406
sS'w-1=test'
p153
I491
sS'poss=#DATE#'
p154
I201
sS'nn=singles'
p155
I150
sS'w-2=DPRK'
p156
I509
sS'advcl=invite'
p157
I3
sS'w-1=visually'
p158
I500
sS'w-1=cricket'
p159
I441
sS'dobj=convention'
p160
I91
sS'w-1=early'
p161
I448
sS'mark=if'
p162
I126
sS'mark=in'
p163
I127
sS'w+2=almost'
p164
I335
sS'amod=first'
p165
I21
sS'w-1=rubber'
p166
I481
sS'nsubj=reality'
p167
I176
sS'w+1=available'
p168
I250
sS'w-2=sector'
p169
I597
sS'w+2=former'
p170
I358
sS'w+2=when'
p171
I408
sS'nn=league'
p172
I145
sS'w-1=next'
p173
I468
sS'nsubj=Jankovic'
p174
I157
sS'w+1=have'
p175
I264
sS'w+1=outfit'
p176
I275
sS'w-2=States'
p177
I518
sS'det=the'
p178
I78
sS'w-2=decisive'
p179
I540
sS'w-2=employment'
p180
I546
sS'w+2=job'
p181
I373
sS'w+2=similar'
p182
I399
sS'w+2=host'
p183
I369
sS'w-2=sanction'
p184
I595
sS'w-2=or'
p185
I583
sS'w-2=progress'
p186
I591
sS'w+1=cap'
p187
I256
sS'nsubjpass=action'
p188
I190
sS'w-2=of'
p189
I579
sS'nsubj=style'
p190
I184
sS'w+1=can'
p191
I255
sS'w-1=group-d'
p192
I457
sS'w-1=time'
p193
I497
sS'w-2=ear'
p194
I544
sS'w-1=to'
p195
I498
sS'advcl=evidence'
p196
I2
sS'w-1=first'
p197
I452
sS'dobj=scrub'
p198
I116
sS'w+1=that'
p199
I287
sS'dobj=#PRP#'
p200
I80
sS'w-2=do'
p201
I541
sS'dobj=upsurge'
p202
I118
sS'appos=#NUMBER#'
p203
I42
sS'poss=Cup'
p204
I204
sS'poss=Americans'
p205
I203
sS'w-2=close'
p206
I534
sS'dobj=motorbike'
p207
I102
sS'w-1=Soccer'
p208
I422
sS'nsubj=some'
p209
I182
sS'w-2=win'
p210
I616
sS'w+1=Saturday'
p211
I239
sS'w-2=take'
p212
I603
sS'w+1=as'
p213
I248
sS'dobj=contribution'
p214
I90
sS'nsubj=Russia'
p215
I159
sS'w+1=at'
p216
I249
sS'w+2=Djokovic'
p217
I317
sS'parataxis=note'
p218
I198
sS'w+2=against'
p219
I334
sS'w+1=he'
p220
I265
sS'w+2=so'
p221
I400
sS'w-2=australian-rules'
p222
I530
sS'w-2=dominate'
p223
I542
sS'infmod=send'
p224
I124
sS'w-1=can'
p225
I437
sS'w+1=make'
p226
I272
sS'w-2=able'
p227
I522
sS'advmod=earlier'
p228
I6
sS'w+2=seal'
p229
I396
sS'amod=theprevious'
p230
I38
sS'w-1=say'
p231
I482
sS'w+2=Jaipur'
p232
I321
sS'w+2=own'
p233
I386
sS'w-2=theprevious'
p234
I605
sS'advmod=when'
p235
I13
sS'w-1=win'
p236
I503
sS'dobj=patient'
p237
I107
sS'w-2=she'
p238
I598
sS'w+1=VTI'
p239
I243
sS'prep=for'
p240
I215
sS'w-1=shove'
p241
I486
sS'dobj=student'
p242
I117
sS'w-2=turn'
p243
I610
sS'w+2=Sweden'
p244
I329
sS'w-1=Sudan'
p245
I423
sS'w+2=incinerate'
p246
I371
sS'w+1=Friday'
p247
I235
sS'amod=next'
p248
I28
sS'w-1=no'
p249
I470
sS'w-2=1972'
p250
I508
sS'nsubjpass=danger'
p251
I191
sS'nn=football'
p252
I142
sS'w+1=Kenny'
p253
I237
sS'w-1=in'
p254
I461
sS'w+1=see'
p255
I282
sS'auxpass=be'
p256
I51
sS'w+2=Australia'
p257
I310
sS"w-1='s"
p258
I415
sS'w-1=soccer'
p259
I488
sS'w-1=friendly'
p260
I454
sS'amod=top'
p261
I40
sS'w+2=contribution'
p262
I350
sS'w+2=Russia'
p263
I327
sS'w-2=League'
p264
I513
sS'w+2=good'
p265
I362
sS'w-2=a'
p266
I521
sS'w-1=qualification'
p267
I477
sS'w-1=stage'
p268
I489
sS'dobj=measure'
p269
I100
sS'w+1=soft'
p270
I286
sS'w-2=boycott'
p271
I532
sS'w+1=hat'
p272
I263
sS'nsubj=#NUMBER#'
p273
I154
sS'w+2=she'
p274
I398
sS'w+2=think'
p275
I404
sS'w+1=its'
p276
I270
sS'dobj=interest'
p277
I96
sS'w+2=with'
p278
I412
sS'w-2=dead'
p279
I538
sS'amod=interesting'
p280
I25
sS'nn=night'
p281
I146
sS'w+2=1-0'
p282
I307
sS'nn=tennis'
p283
I152
sS'w-1=the'
p284
I493
sS'poss=Women'
p285
I206
sS'partmod=secure'
p286
I200
sS'w-1=tennis'
p287
I490
sS'w+2=year'
p288
I414
sS'w+2=biblical'
p289
I345
sS'w-1=delegation'
p290
I443
sS'nsubj=this'
p291
I186
sS'w+2=of'
p292
I381
sS'w-1=perfect'
p293
I474
sS'w+1=to'
p294
I293
sS'det=that'
p295
I77
sS'w+2=6th'
p296
I309
sS'dobj=resource'
p297
I112
sS'w-1=and'
p298
I429
sS'w+1=really'
p299
I279
sS'dobj=name'
p300
I103
sS'w-2=struggle'
p301
I602
sS'w-1=exhibition'
p302
I450
sS'amod=third-round'
p303
I39
sS'w+2=resource'
p304
I392
sS'w-1=charity'
p305
I440
sS'w+2=win'
p306
I411
sS'w-2=strike'
p307
I601
sS'w-2=world'
p308
I618
sS'dobj=rhetoric'
p309
I113
sS'w-2=Sunday'
p310
I519
sS'w+2=american'
p311
I337
sS'w+2=high'
p312
I368
sS'nn=U.S.'
p313
I134
sS'w+2=performance'
p314
I388
sS"w-2='s"
p315
I505
sS'w-2=first'
p316
I552
sS'dep=wave'
p317
I73
sS'nsubjpass=percentage'
p318
I193
sS'w-2=play'
p319
I587
sS'poss=Galaxy'
p320
I205
sS'w-2=Obama'
p321
I514
sS'w-2=work'
p322
I617
sS'w-2=second'
p323
I596
sS'w-2=robe'
p324
I594
sS'advcl=assign'
p325
I0
sS'det=another'
p326
I75
sS'w+1=because'
p327
I252
sS'w+2=Brazil'
p328
I311
sS'w+1=turn'
p329
I295
sS'dobj=report'
p330
I111
sS'w+1=over'
p331
I276
sS'w+1=pillbox'
p332
I277
sS'w+2=hat'
p333
I366
sS'dobj=amount'
p334
I84
sS'w-2=watch'
p335
I614
sS'dobj=intensity'
p336
I95
sS'w+2=send'
p337
I397
sS'w-2=its'
p338
I568
sS'w+2=extent'
p339
I355
sS'nsubj=space'
p340
I183
sS'w-2=Judah'
p341
I510
sS'w+2=Britain'
p342
I312
sS'w+2=Tatiana'
p343
I330
sS'nsubj=series'
p344
I179
sS'nn=Cup'
p345
I130
sS'w-2=space'
p346
I599
sS'nsubj=dna'
p347
I170
sS'w+1=final'
p348
I259
sS'w+1=between'
p349
I253
sS'w-2=rate'
p350
I592
sS'nsubj=Brown'
p351
I156
sS'conj=#NUMBER#'
p352
I60
sS'nsubj=regalia'
p353
I177
sS'w-2=international'
p354
I565
sS'dobj=job'
p355
I97
sS'w-1=remarkable'
p356
I479
sS'w-1=they'
p357
I494
sS'aux=do'
p358
I46
sS'w-1=best-of-three'
p359
I435
sS'w-2=double'
p360
I543
sS'appos=attendance'
p361
I43
sS'aux=will'
p362
I49
sS'w+2=giant'
p363
I360
sS'w-2=network'
p364
I577
sS'rcmod=win'
p365
I229
sS'nn=charity'
p366
I138
sS'expl=there'
p367
I123
sS'nsubj=decision'
p368
I168
sS'prep=with'
p369
I221
sS'cc=or'
p370
I54
sS'w-1=opening'
p371
I473
sS'nn=rubber'
p372
I149
sS'w-2=in'
p373
I562
sS'w+2=Jurgen'
p374
I322
sS'xcomp=stop'
p375
I624
sS'w+2=Palermo'
p376
I326
sS'w-1=league'
p377
I464
sS'rcmod=say'
p378
I228
sS'nn=group-d'
p379
I143
sS'nsubj=helmet'
p380
I172
sS'nsubj=soccer'
p381
I181
sS'w+1=pre-war'
p382
I278
sS'prep=because'
p383
I212
sS'ccomp=try'
p384
I58
sS'nsubj=Obama'
p385
I158
sS'w+2=hardy'
p386
I365
sS'dep=Chelsea'
p387
I69
sS'w-2=it'
p388
I567
sS'dep=prepare'
p389
I72
sS'w-2=mix'
p390
I574
sS'dobj=opening'
p391
I105
sS'w-2=start'
p392
I600
sS'num=#NUMBER#'
p393
I196
sS"w+2=''"
p394
I302
sS'w-2=Kagame'
p395
I511
sS'w-1=this'
p396
I496
sS'w-2=friendly'
p397
I556
sS'advmod=also'
p398
I4
sS'w-1=mixed'
p399
I466
sS'w+2=intensity'
p400
I372
sS'advmod=perfectly'
p401
I9
sS'w+2=Social'
p402
I328
sS'dep=contribute'
p403
I70
sS'w+1=may'
p404
I273
sS'nsubj=director'
p405
I169
sS'amod=australian-rules'
p406
I16
sS'w-1=64'
p407
I419
sS'w-1=boxing'
p408
I436
sS'w-1=reverse-singles'
p409
I480
sS'dobj=cable'
p410
I87
sS'amod=upcoming'
p411
I41
sS'cc=and'
p412
I52
sS'nn=Soccer'
p413
I132
sS'w-1=dna'
p414
I444
sS'dep=double'
p415
I71
sS'w+1=by'
p416
I254
sS'w+1=will'
p417
I299
sS'w+1=be'
p418
I251
sS'amod=final'
p419
I20
sS'w+2=student'
p420
I401
sS"w+2='s"
p421
I303
sS'dobj=extent'
p422
I92
sS'w+1=Urban'
p423
I242
sS'w+1=if'
p424
I267
sS'w-2=intention'
p425
I564
sS'rcmod=note'
p426
I227
sS'w+1=in'
p427
I268
sS'dobj=ring'
p428
I114
sS'mark=until'
p429
I128
sS'nsubj=#PRP#'
p430
I155
sS'w+2=Igor'
p431
I320
sS'amod=professional'
p432
I31
sS'w+1=into'
p433
I269
sS'cc=but'
p434
I53
sS'w-2=decide'
p435
I539
sS'w-1=qualify'
p436
I478
sS'conj=game'
p437
I63
sS'poss=#PRP#'
p438
I202
sS'w+1=against'
p439
I245
sS'dobj=prosperity'
p440
I110
sS'w-1=Cup'
p441
I420
sS'w-1=least'
p442
I465
sS'w-2=find'
p443
I551
sS'w+1=should'
p444
I285
sS'w-2=out'
p445
I586
sS'w-1=final'
p446
I451
sS'rcmod=give'
p447
I225
sS'w+2=each'
p448
I353
sS'w+2=China'
p449
I316
sS'w+1=Somaliland'
p450
I240
sS'w-2=upgrade'
p451
I612
sS'dobj=performance'
p452
I108
sS'w+2=which'
p453
I409
sS'w-2=be'
p454
I531
sS'prep=of'
p455
I217
sS'dobj=Kenny'
p456
I82
sS'prep=on'
p457
I218
sS'nsubj=tune'
p458
I187
sS'w-1=ground'
p459
I456
sS'nn=Sudan'
p460
I133
sS'nsubj=man'
p461
I173
sS'amod=european'
p462
I19
sS'w-1=center'
p463
I438
sS'w-2=off'
p464
I580
sS'w-1=do'
p465
I445
sS'w-1=championship'
p466
I439
sS'conj=come'
p467
I62
sS'w-2=action'
p468
I523
sS'w+2=both'
p469
I347
sS'dobj=$'
p470
I81
sS'amod=international'
p471
I26
sS'cop=seem'
p472
I67
sS'w-2=Services'
p473
I517
sS'amod=other'
p474
I29
sS'w+2=less'
p475
I376
sS'w-2=app'
p476
I528
sS'w-1=away'
p477
I431
sS'w+2=also'
p478
I336
sS'w-2=to'
p479
I608
sS'w-1=double'
p480
I446
sS'w-2=coat'
p481
I535
sS'w+2=any'
p482
I340
sS'nsubj=administration'
p483
I162
sS'w+2=up'
p484
I405
sS'w+1=donor'
p485
I258
sS'amod=greater'
p486
I23
sS'nsubjpass=improvement'
p487
I192
sS'dobj=round'
p488
I115
sS'w-1=of'
p489
I472
sS'w+2=out'
p490
I384
sS'conj=go'
p491
I64
sS'w+2=and'
p492
I339
sS'tmod=#DATE#'
p493
I230
sS'w-2=and'
p494
I526
sS'w+1=up'
p495
I297
sS'dobj=vision'
p496
I120
sS'w-1=two'
p497
I499
sS'w+2=about'
p498
I333
sS'w+1=series'
p499
I283
sS'w+2=fall'
p500
I356
sS'w+2=$'
p501
I301
sS'w-2=one'
p502
I581
sS'advmod=nearly'
p503
I8
sS'cop=be'
p504
I66
sS'w-2=he'
p505
I560
sS'w-2=region'
p506
I593
sS'w-1=greater'
p507
I455
sS'dobj=level'
p508
I98
sS'w+1=Thursday'
p509
I241
sS'w-2=World'
p510
I520
sS'amod=second'
p511
I33
sS'w+1=with'
p512
I300
sS'w+2=boom'
p513
I346
sS'w-1=nearly'
p514
I467
sS'w-1=important'
p515
I460
sS'w+2=the'
p516
I403
sS'prep=at'
p517
I211
sS'w-2=will'
p518
I615
sS'w-2=european'
p519
I548
sS'prep=as'
p520
I210
sS'w-2=Koreans'
p521
I512
sS'w-2=,'
p522
I506
sS'w-2=.'
p523
I507
sS'w-2=pro-celebrity'
p524
I590
sS'advmod=unfortunately'
p525
I12
sS'nn=home'
p526
I144
sS'w+1=what'
p527
I298
sS"w-2='"
p528
I504
sS'nn=cricket'
p529
I139
sS'aux=have'
p530
I47
sS'nsubj=cup'
p531
I167
sS'w-1=third-round'
p532
I495
sS'amod=annual'
p533
I15
sS'w-2=announce'
p534
I527
sS'w-2=after'
p535
I524
sS'w-1=.'
p536
I418
sS'rcmod=last'
p537
I226
sS'w-1=,'
p538
I416
sS'nn=Federer'
p539
I131
sS'w-2=not'
p540
I578
sS'w+2=express'
p541
I354
sS'w-1=shout'
p542
I485
sS'w+1=Kahn'
p543
I236
sS'w-2=four'
p544
I555
sS'w-2=at'
p545
I529
sS'w-2=man'
p546
I572
sS'w-1=interesting'
p547
I462
sS'w+1=this'
p548
I290
sS'w+1=fix'
p549
I260
sS'dobj=life'
p550
I99
sS'w+2=one'
p551
I382
sS'aux=can'
p552
I45
sS'w+1=security'
p553
I281
sS'dobj=proposal'
p554
I109
sS'w+2=no'
p555
I380
sS'nsubjpass=stimulus'
p556
I194
sS'dobj=hat'
p557
I94
sS'partmod=fix'
p558
I199
sS'w+2=government'
p559
I363
sS'w-2=Saturday'
p560
I515
sS'nsubj=action'
p561
I161
sS'w-1=elimination'
p562
I449
sS'w+2=gain'
p563
I359
sS'w-2=lot'
p564
I571
sS'det=a'
p565
I74
sS'w-1=a'
p566
I426
sS'w+2=police'
p567
I389
sS'w+1=together'
p568
I294
sS'w+1=time'
p569
I292
sS'dobj=view'
p570
I119
sS'w+2=word'
p571
I413
sS'w+2=green'
p572
I364
sS'w-1=-rrb-'
p573
I417
sS'dobj=money'
p574
I101
sS'w-2=position'
p575
I588
sS'w-2=very'
p576
I613
sS'w-2=opening'
p577
I582
sS'w-2=charity'
p578
I533
sS'w+2=give'
p579
I361
sS'w+2=best'
p580
I344
sS'advcl=contain'
p581
I1
sS'w-2=Segev'
p582
I516
sS'dobj=commitment'
p583
I89
sS'w-2=year'
p584
I620
sS'w+2=have'
p585
I367
sS'amod=shout'
p586
I35
sS'prep=against'
p587
I209
sS'w+1=last'
p588
I271
sS'nn=test'
p589
I153
sS'dobj=boom'
p590
I85
sS'conj=overlook'
p591
I65
sS'nn=exhibition'
p592
I141
sS'w+2=U.S.'
p593
I331
sS'nsubj=army'
p594
I165
sS'w-2=have'
p595
I559
sS'w+2=term'
p596
I402
sS'w+2=other'
p597
I383
sS'amod=reverse-singles'
p598
I32
sS'w+2=dulko'
p599
I352
sS'w-1=singles'
p600
I487
sS'aux=to'
p601
I48
sS'w-2=hold'
p602
I561
sS'amod=mixed'
p603
I27
sS'w+2=name'
p604
I379
sS'w-1=best-of-five'
p605
I434
sS'w+1=,'
p606
I232
sS'w+1=.'
p607
I233
sS'w-2=far'
p608
I550
sS'w+2=.'
p609
I306
sS'w+2=,'
p610
I304
sS'amod=dead'
p611
I17
sS'neg=not'
p612
I129
sS'w+1=?'
p613
I234
sS'amod=elimination'
p614
I18
sS'w-1=U.S.'
p615
I424
sS'poss=man'
p616
I207
sS'w-1=cup'
p617
I442
sS'w-2=enjoy'
p618
I547
sS'w+1=record'
p619
I280
sS'w+2=I'
p620
I319
sS'w+2=Cairo'
p621
I314
sS'dobj=child'
p622
I88
sS'w+2=rhetoric'
p623
I393
sS'w+1=a'
p624
I244
sS'w-1=not'
p625
I471
sS'amod=soft'
p626
I37
sS'w-1=at'
p627
I430
sS'w-1=that'
p628
I492
sS'aux=be'
p629
I44
sS'w-2=lose'
p630
I570
sS'w+2=Chela'
p631
I315
sS'w+2=a'
p632
I332
ssS'dtype'
p633
cnumpy
float64
p634
sS'feature_names_'
p635
(lp636
g325
ag581
ag196
ag157
ag398
ag98
ag228
ag91
ag503
ag401
ag45
ag8
ag525
ag235
ag122
ag533
ag406
ag611
ag614
ag462
ag419
ag165
ag53
ag486
ag72
ag280
ag471
ag603
ag248
ag474
ag10
ag432
ag598
ag511
ag99
ag586
ag89
ag626
ag230
ag303
ag261
ag411
ag203
ag361
ag629
ag552
ag358
ag530
ag601
ag362
ag117
ag256
ag412
ag434
ag370
ag65
ag19
ag81
ag384
ag97
ag352
ag48
ag467
ag437
ag491
ag591
ag504
ag472
ag38
ag387
ag403
ag415
ag389
ag317
ag565
ag326
ag12
ag295
ag178
ag148
ag200
ag470
ag456
ag31
ag334
ag590
ag41
ag410
ag622
ag583
ag214
ag160
ag422
ag125
ag557
ag336
ag277
ag355
ag508
ag550
ag269
ag574
ag207
ag300
ag11
ag391
ag13
ag237
ag452
ag554
ag440
ag330
ag297
ag309
ag428
ag488
ag198
ag242
ag202
ag570
ag496
ag134
ag130
ag367
ag224
ag70
ag162
ag163
ag429
ag612
ag345
ag539
ag413
ag460
ag313
ag124
ag66
ag131
ag366
ag529
ag42
ag592
ag252
ag379
ag526
ag172
ag281
ag145
ag87
ag372
ag155
ag133
ag283
ag589
ag273
ag430
ag351
ag174
ag385
ag215
ag67
ag561
ag483
ag136
ag150
ag594
ag50
ag531
ag368
ag405
ag347
ag40
ag380
ag461
ag96
ag56
ag167
ag353
ag113
ag344
ag69
ag381
ag209
ag340
ag190
ag140
ag291
ag458
ag52
ag28
ag188
ag251
ag487
ag318
ag556
ag88
ag393
ag151
ag218
ag558
ag286
ag154
ag438
ag205
ag204
ag320
ag285
ag616
ag43
ag587
ag520
ag517
ag383
ag35
ag32
ag240
ag115
ag455
ag457
ag23
ag128
ag369
ag146
ag102
ag27
ag447
ag537
ag426
ag378
ag365
ag493
ag49
ag606
ag607
ag613
ag247
ag543
ag253
ag83
ag211
ag450
ag509
ag423
ag239
ag624
ag439
ag132
ag139
ag213
ag216
ag168
ag418
ag327
ag349
ag416
ag191
ag187
ag135
ag485
ag348
ag549
ag119
ag101
ag272
ag175
ag220
ag82
ag424
ag427
ag433
ag276
ag588
ag226
ag404
ag73
ag176
ag331
ag332
ag382
ag299
ag619
ag553
ag255
ag499
ag62
ag444
ag270
ag199
ag104
ag107
ag548
ag110
ag569
ag294
ag568
ag329
ag24
ag495
ag527
ag417
ag512
ag501
ag394
ag421
ag610
ag84
ag609
ag282
ag9
ag296
ag257
ag328
ag342
ag116
ag621
ag631
ag449
ag217
ag59
ag620
ag431
ag232
ag374
ag77
ag17
ag137
ag376
ag263
ag402
ag244
ag343
ag593
ag632
ag498
ag219
ag164
ag478
ag311
ag147
ag492
ag482
ag68
ag106
ag57
ag580
ag289
ag513
ag469
ag37
ag20
ag262
ag126
ag599
ag448
ag541
ag339
ag500
ag76
ag170
ag563
ag363
ag579
ag265
ag559
ag572
ag386
ag333
ag585
ag312
ag183
ag86
ag246
ag400
ag181
ag74
ag94
ag475
ag26
ag16
ag604
ag555
ag292
ag551
ag597
ag490
ag15
ag233
ag75
ag314
ag567
ag55
ag44
ag304
ag623
ag114
ag61
ag229
ag337
ag274
ag182
ag221
ag420
ag596
ag516
ag275
ag484
ag152
ag46
ag171
ag453
ag100
ag306
ag278
ag571
ag288
ag258
ag538
ag573
ag536
ag407
ag441
ag127
ag208
ag245
ag615
ag142
ag566
ag120
ag95
ag298
ag627
ag477
ag22
ag58
ag605
ag359
ag408
ag225
ag463
ag466
ag305
ag159
ag617
ag290
ag414
ag465
ag480
ag54
ag161
ag562
ag302
ag446
ag197
ag118
ag260
ag507
ag459
ag192
ag80
ag39
ag515
ag254
ag547
ag79
ag377
ag442
ag399
ag514
ag173
ag149
ag249
ag625
ag489
ag371
ag293
ag33
ag78
ag267
ag436
ag356
ag409
ag166
ag231
ag93
ag129
ag542
ag241
ag600
ag259
ag268
ag287
ag153
ag628
ag284
ag357
ag532
ag396
ag193
ag195
ag497
ag158
ag143
ag51
ag236
ag528
ag315
ag522
ag523
ag250
ag156
ag341
ag395
ag521
ag264
ag321
ag560
ag582
ag473
ag177
ag310
ag510
ag266
ag227
ag468
ag535
ag90
ag494
ag534
ag476
ag545
ag222
ag454
ag271
ag578
ag206
ag481
ag141
ag36
ag279
ag435
ag179
ag201
ag223
ag360
ag194
ag21
ag180
ag618
ag519
ag34
ag608
ag443
ag316
ag105
ag85
ag544
ag397
ag144
ag108
ag595
ag505
ag602
ag373
ag47
ag425
ag354
ag112
ag388
ag338
ag121
ag630
ag564
ag546
ag109
ag390
ag18
ag25
ag364
ag540
ag189
ag464
ag502
ag577
ag185
ag30
ag92
ag445
ag319
ag575
ag71
ag524
ag186
ag350
ag506
ag324
ag184
ag323
ag169
ag238
ag346
ag392
ag307
ag301
ag212
ag60
ag234
ag29
ag64
ag479
ag123
ag243
ag103
ag451
ag576
ag335
ag518
ag210
ag322
ag308
ag111
ag584
ag63
ag14
ag138
ag375
asS'separator'
p637
S'='
sS'sparse'
p638
I01
sb.