ccopy_reg
_reconstructor
p1
(csklearn.feature_extraction.dict_vectorizer
DictVectorizer
p2
c__builtin__
object
p3
NtRp4
(dp5
S'sort'
p6
I01
sS'feature_names_'
p7
(lp8
S'advmod=repeatedly'
p9
aS'advmod=where'
p10
aS'aux=can'
p11
aS'aux=do'
p12
aS'aux=have'
p13
aS'aux=to'
p14
aS'cc=and'
p15
aS'complm=whether'
p16
aS'conj=destroy'
p17
aS'conj=seek'
p18
aS'dobj=#NUMBER#'
p19
aS'dobj=friend'
p20
aS'neg=not'
p21
aS'nsubj=#PRP#'
p22
aS'nsubj=Musharraf'
p23
aS'nsubj=terrorist'
p24
aS'nsubj=turkish'
p25
aS'prep=as'
p26
aS'prep=between'
p27
aS'prep=from'
p28
aS'prep=in'
p29
aS'prep=with'
p30
aS'w+1=among'
p31
aS'w+1=between'
p32
aS'w+1=friend'
p33
aS'w+1=the'
p34
aS'w+1=with'
p35
aS'w+2=Iraqis'
p36
aS'w+2=fighter'
p37
aS'w+2=from'
p38
aS'w+2=the'
p39
aS'w+2=two'
p40
aS'w+2=ugandan'
p41
aS'w-1=I'
p42
aS'w-1=can'
p43
aS'w-1=help'
p44
aS'w-1=not'
p45
aS'w-1=repeatedly'
p46
aS'w-1=that'
p47
aS'w-1=to'
p48
aS'w-2=can'
p49
aS'w-2=do'
p50
aS'w-2=hard'
p51
aS'w-2=have'
p52
aS'w-2=it'
p53
aS'w-2=not'
p54
aS'w-2=say'
p55
aS'w-2=where'
p56
asS'dtype'
p57
cnumpy
float64
p58
sS'vocabulary_'
p59
(dp60
g23
I14
sg38
I29
sg40
I31
sg10
I1
sg35
I26
sg14
I5
sg31
I22
sg55
I46
sg36
I27
sg39
I30
sg17
I8
sg26
I17
sg19
I10
sg44
I35
sg18
I9
sg30
I21
sg11
I2
sg16
I7
sg13
I4
sg51
I42
sg24
I15
sg49
I40
sg54
I45
sg46
I37
sg15
I6
sg20
I11
sg25
I16
sg34
I25
sg45
I36
sg56
I47
sg53
I44
sg33
I24
sg52
I43
sg48
I39
sg42
I33
sg32
I23
sg27
I18
sg28
I19
sg9
I0
sg29
I20
sg50
I41
sg21
I12
sg47
I38
sg41
I32
sg37
I28
sg22
I13
sg43
I34
sg12
I3
ssS'separator'
p61
S'='
sS'sparse'
p62
I01
sb.