ccopy_reg
_reconstructor
p1
(csklearn.feature_extraction.dict_vectorizer
DictVectorizer
p2
c__builtin__
object
p3
NtRp4
(dp5
S'sort'
p6
I01
sS'feature_names_'
p7
(lp8
S'advcl=flog'
p9
aS'advmod=again'
p10
aS'advmod=also'
p11
aS'advmod=grossly'
p12
aS'advmod=probably'
p13
aS'advmod=when'
p14
aS'aux=be'
p15
aS'aux=can'
p16
aS'aux=do'
p17
aS'aux=should'
p18
aS'aux=to'
p19
aS'aux=would'
p20
aS'auxpass=be'
p21
aS'cc=and'
p22
aS'cc=but'
p23
aS'ccomp=do'
p24
aS'ccomp=go'
p25
aS'complm=that'
p26
aS'conj=believe'
p27
aS'conj=make'
p28
aS'dep=because'
p29
aS'dep=number'
p30
aS'dep=so'
p31
aS'dep=stick'
p32
aS'dobj=Nouvelles'
p33
aS'dobj=capacity'
p34
aS'dobj=challenge'
p35
aS'dobj=depth'
p36
aS'dobj=determination'
p37
aS'dobj=difficulty'
p38
aS'dobj=dosage'
p39
aS'dobj=enemy'
p40
aS'dobj=extent'
p41
aS'dobj=impact'
p42
aS'dobj=load'
p43
aS'dobj=need'
p44
aS'dobj=power'
p45
aS'dobj=resolve'
p46
aS'dobj=significance'
p47
aS'dobj=situation'
p48
aS'dobj=threat'
p49
aS'dobj=toll'
p50
aS'dobj=transformation'
p51
aS'expl=there'
p52
aS'neg=not'
p53
aS'nsubj=#NUMBER#'
p54
aS'nsubj=#PRP#'
p55
aS'nsubj=Iran'
p56
aS'nsubj=all'
p57
aS'nsubj=appeal'
p58
aS'nsubj=coalition'
p59
aS'nsubj=everybody'
p60
aS'nsubj=figure'
p61
aS'nsubj=people'
p62
aS'nsubjpass=#PRP#'
p63
aS'nsubjpass=case'
p64
aS'nsubjpass=influence'
p65
aS'nsubjpass=significance'
p66
aS'parataxis=refer'
p67
aS'prep=by'
p68
aS'prep=for'
p69
aS'prep=in'
p70
aS'prep=on'
p71
aS'prep=over'
p72
aS"w+1=''"
p73
aS'w+1=,'
p74
aS'w+1=.'
p75
aS'w+1=Forces'
p76
aS'w+1=a'
p77
aS'w+1=and'
p78
aS'w+1=either'
p79
aS'w+1=for'
p80
aS'w+1=how'
p81
aS'w+1=humanitarian'
p82
aS'w+1=the'
p83
aS'w+1=we'
p84
aS"w+2=''"
p85
aS'w+2=Microsoft'
p86
aS'w+2=Nouvelles'
p87
aS'w+2=and'
p88
aS'w+2=challenge'
p89
aS'w+2=corrosive'
p90
aS'w+2=depth'
p91
aS'w+2=determination'
p92
aS'w+2=difficulty'
p93
aS'w+2=dosage'
p94
aS'w+2=emergency'
p95
aS'w+2=enemy'
p96
aS'w+2=extent'
p97
aS'w+2=impact'
p98
aS'w+2=iranian'
p99
aS'w+2=military'
p100
aS'w+2=much'
p101
aS'w+2=need'
p102
aS'w+2=power'
p103
aS'w+2=real'
p104
aS'w+2=resolve'
p105
aS'w+2=situation'
p106
aS'w+2=the'
p107
aS'w+2=threat'
p108
aS'w+2=transformation'
p109
aS'w-1=,'
p110
aS'w-1=-rrb-'
p111
aS'w-1=all'
p112
aS'w-1=and'
p113
aS'w-1=assistance'
p114
aS'w-1=be'
p115
aS'w-1=coalition'
p116
aS'w-1=everybody'
p117
aS'w-1=figure'
p118
aS'w-1=grossly'
p119
aS'w-1=not'
p120
aS'w-1=of'
p121
aS'w-1=probably'
p122
aS'w-1=survey'
p123
aS'w-1=they'
p124
aS'w-1=to'
p125
aS"w-2=''"
p126
aS'w-2=Juba'
p127
aS'w-2=Lachman'
p128
aS'w-2=Obama'
p129
aS'w-2=be'
p130
aS'w-2=because'
p131
aS'w-2=can'
p132
aS'w-2=catastrophic'
p133
aS'w-2=do'
p134
aS'w-2=doctor'
p135
aS'w-2=international'
p136
aS'w-2=it'
p137
aS'w-2=its'
p138
aS'w-2=long-ruling'
p139
aS'w-2=not'
p140
aS'w-2=people'
p141
aS'w-2=perhaps'
p142
aS'w-2=should'
p143
aS'w-2=still'
p144
aS'w-2=there'
p145
aS'w-2=think'
p146
aS'w-2=want'
p147
aS'w-2=while'
p148
aS'w-2=wish'
p149
aS'w-2=would'
p150
asS'dtype'
p151
cnumpy
float64
p152
sS'vocabulary_'
p153
(dp154
g9
I0
sg129
I120
sg86
I77
sg61
I52
sg141
I132
sg76
I67
sg142
I133
sg30
I21
sg33
I24
sg13
I4
sg150
I141
sg101
I92
sg118
I109
sg147
I138
sg40
I31
sg45
I36
sg46
I37
sg97
I88
sg48
I39
sg121
I112
sg125
I116
sg68
I59
sg88
I79
sg35
I26
sg134
I125
sg140
I131
sg104
I95
sg128
I119
sg136
I127
sg12
I3
sg31
I22
sg149
I140
sg20
I11
sg105
I96
sg42
I33
sg79
I70
sg91
I82
sg52
I43
sg107
I98
sg122
I113
sg62
I53
sg100
I91
sg127
I118
sg144
I135
sg81
I72
sg115
I106
sg146
I137
sg37
I28
sg112
I103
sg110
I101
sg119
I110
sg98
I89
sg148
I139
sg67
I58
sg95
I86
sg137
I128
sg116
I107
sg60
I51
sg18
I9
sg14
I5
sg38
I29
sg124
I115
sg69
I60
sg17
I8
sg96
I87
sg84
I75
sg139
I130
sg138
I129
sg85
I76
sg114
I105
sg25
I16
sg11
I2
sg23
I14
sg64
I55
sg111
I102
sg145
I136
sg21
I12
sg16
I7
sg26
I17
sg108
I99
sg106
I97
sg102
I93
sg22
I13
sg50
I41
sg83
I74
sg120
I111
sg94
I85
sg32
I23
sg58
I49
sg51
I42
sg89
I80
sg54
I45
sg41
I32
sg63
I54
sg70
I61
sg82
I73
sg80
I71
sg133
I124
sg93
I84
sg55
I46
sg65
I56
sg24
I15
sg73
I64
sg19
I10
sg49
I40
sg143
I134
sg131
I122
sg72
I63
sg28
I19
sg47
I38
sg78
I69
sg29
I20
sg39
I30
sg59
I50
sg126
I117
sg74
I65
sg75
I66
sg57
I48
sg132
I123
sg123
I114
sg135
I126
sg27
I18
sg53
I44
sg10
I1
sg44
I35
sg113
I104
sg90
I81
sg66
I57
sg43
I34
sg87
I78
sg109
I100
sg34
I25
sg77
I68
sg130
I121
sg99
I90
sg92
I83
sg36
I27
sg71
I62
sg15
I6
sg117
I108
sg56
I47
sg103
I94
ssS'separator'
p155
S'='
sS'sparse'
p156
I01
sb.