ccopy_reg
_reconstructor
p1
(csklearn.feature_extraction.dict_vectorizer
DictVectorizer
p2
c__builtin__
object
p3
NtRp4
(dp5
S'sort'
p6
I01
sS'feature_names_'
p7
(lp8
S'advcl=acknowledge'
p9
aS'advcl=ask'
p10
aS'advcl=contend'
p11
aS'advcl=focus'
p12
aS'advcl=industry'
p13
aS'advcl=most'
p14
aS'advcl=stop'
p15
aS'advcl=withdraw'
p16
aS'advcl=work'
p17
aS'advmod=again'
p18
aS'advmod=ahead'
p19
aS'advmod=also'
p20
aS'advmod=closer'
p21
aS'advmod=further'
p22
aS'advmod=here'
p23
aS'advmod=however'
p24
aS'advmod=indeed'
p25
aS'advmod=long'
p26
aS'advmod=more'
p27
aS'advmod=now'
p28
aS'advmod=of'
p29
aS'advmod=rarely'
p30
aS'advmod=rather'
p31
aS'advmod=repeatedly'
p32
aS'advmod=third'
p33
aS'advmod=when'
p34
aS'aux=be'
p35
aS'aux=have'
p36
aS'aux=should'
p37
aS'aux=to'
p38
aS'aux=will'
p39
aS'aux=would'
p40
aS'auxpass=be'
p41
aS'cc=and'
p42
aS'cc=but'
p43
aS'ccomp=able'
p44
aS'ccomp=about'
p45
aS'ccomp=action'
p46
aS'ccomp=affect'
p47
aS'ccomp=apply'
p48
aS'ccomp=area'
p49
aS'ccomp=aware'
p50
aS'ccomp=base'
p51
aS'ccomp=be'
p52
aS'ccomp=become'
p53
aS'ccomp=better'
p54
aS'ccomp=central'
p55
aS'ccomp=come'
p56
aS'ccomp=complete'
p57
aS'ccomp=connect'
p58
aS'ccomp=consider'
p59
aS'ccomp=continue'
p60
aS'ccomp=crucial'
p61
aS'ccomp=design'
p62
aS'ccomp=destabilize'
p63
aS'ccomp=disagree'
p64
aS'ccomp=do'
p65
aS'ccomp=draw'
p66
aS'ccomp=engage'
p67
aS'ccomp=exclude'
p68
aS'ccomp=execute'
p69
aS'ccomp=exist'
p70
aS'ccomp=extend'
p71
aS'ccomp=face'
p72
aS'ccomp=fluid'
p73
aS'ccomp=focus'
p74
aS'ccomp=forget'
p75
aS'ccomp=goal'
p76
aS'ccomp=handle'
p77
aS'ccomp=have'
p78
aS'ccomp=help'
p79
aS'ccomp=implement'
p80
aS'ccomp=interact'
p81
aS'ccomp=know'
p82
aS'ccomp=link'
p83
aS'ccomp=make'
p84
aS'ccomp=mean'
p85
aS'ccomp=meet'
p86
aS'ccomp=name'
p87
aS'ccomp=need'
p88
aS'ccomp=neglect'
p89
aS'ccomp=outsider'
p90
aS'ccomp=phase'
p91
aS'ccomp=point'
p92
aS'ccomp=prove'
p93
aS'ccomp=religion'
p94
aS'ccomp=renounce'
p95
aS'ccomp=request'
p96
aS'ccomp=return'
p97
aS'ccomp=right'
p98
aS'ccomp=rights'
p99
aS'ccomp=say'
p100
aS'ccomp=seek'
p101
aS'ccomp=sound'
p102
aS'ccomp=talk'
p103
aS'ccomp=terrorist'
p104
aS'ccomp=use'
p105
aS'ccomp=vital'
p106
aS'ccomp=welcome'
p107
aS'complm=that'
p108
aS'conj=acquire'
p109
aS'conj=also'
p110
aS'conj=be'
p111
aS'conj=cite'
p112
aS'conj=distance'
p113
aS'conj=downplay'
p114
aS'conj=educate'
p115
aS'conj=exception'
p116
aS'conj=expect'
p117
aS'conj=get'
p118
aS'conj=institutionalize'
p119
aS'conj=proposal'
p120
aS'conj=recognize'
p121
aS'conj=reduce'
p122
aS'conj=say'
p123
aS'conj=urge'
p124
aS'csubj=court'
p125
aS'csubj=let'
p126
aS'dep=Heller'
p127
aS'dep=be'
p128
aS'dep=deliberate'
p129
aS'dep=military'
p130
aS'dep=say'
p131
aS'dep=similar'
p132
aS'dep=while'
p133
aS'dobj=#PRP#'
p134
aS'dobj=Nelson'
p135
aS'dobj=accomplishment'
p136
aS'dobj=achievement'
p137
aS'dobj=advance'
p138
aS'dobj=area'
p139
aS'dobj=association'
p140
aS'dobj=background'
p141
aS'dobj=call'
p142
aS'dobj=care'
p143
aS'dobj=commitment'
p144
aS'dobj=concern'
p145
aS'dobj=confidence'
p146
aS'dobj=cooperation'
p147
aS'dobj=danger'
p148
aS'dobj=demand'
p149
aS'dobj=development'
p150
aS'dobj=difference'
p151
aS'dobj=diplomacy'
p152
aS'dobj=education'
p153
aS'dobj=efficiency'
p154
aS'dobj=effort'
p155
aS'dobj=evolution'
p156
aS'dobj=experience'
p157
aS'dobj=frustration'
p158
aS'dobj=fusion'
p159
aS'dobj=health'
p160
aS'dobj=help'
p161
aS'dobj=importance'
p162
aS'dobj=incentive'
p163
aS'dobj=inthe'
p164
aS'dobj=issue'
p165
aS'dobj=law'
p166
aS'dobj=leadership'
p167
aS'dobj=membership'
p168
aS'dobj=message'
p169
aS'dobj=nature'
p170
aS'dobj=need'
p171
aS'dobj=opposition'
p172
aS'dobj=part'
p173
aS'dobj=point'
p174
aS'dobj=position'
p175
aS'dobj=record'
p176
aS'dobj=respect'
p177
aS'dobj=responsibility'
p178
aS'dobj=right'
p179
aS'dobj=role'
p180
aS'dobj=root'
p181
aS'dobj=scope'
p182
aS'dobj=service'
p183
aS'dobj=similarity'
p184
aS'dobj=story'
p185
aS'dobj=strength'
p186
aS'dobj=support'
p187
aS'dobj=thing'
p188
aS'dobj=threat'
p189
aS'dobj=tie'
p190
aS'dobj=upbringing'
p191
aS'dobj=use'
p192
aS'dobj=value'
p193
aS'dobj=year'
p194
aS'mark=though'
p195
aS'mark=while'
p196
aS'neg=not'
p197
aS'nsubj=#PRP#'
p198
aS'nsubj=Abdallah'
p199
aS'nsubj=Allen'
p200
aS'nsubj=Bartlett'
p201
aS'nsubj=Biden'
p202
aS'nsubj=Branson'
p203
aS'nsubj=Buey'
p204
aS'nsubj=Bush'
p205
aS'nsubj=Calderon'
p206
aS'nsubj=Carlos'
p207
aS'nsubj=Clinton'
p208
aS'nsubj=Delhi'
p209
aS'nsubj=Dumont'
p210
aS'nsubj=Edwards'
p211
aS'nsubj=Emir'
p212
aS'nsubj=Erdogan'
p213
aS'nsubj=Ethiopia'
p214
aS'nsubj=Gelb'
p215
aS'nsubj=Geschwind'
p216
aS'nsubj=Gettlefinger'
p217
aS'nsubj=Goldenberg'
p218
aS'nsubj=Haberman'
p219
aS'nsubj=Hadley'
p220
aS'nsubj=Hill'
p221
aS'nsubj=Huckabee'
p222
aS'nsubj=Hussein'
p223
aS'nsubj=Imams'
p224
aS'nsubj=Lantos'
p225
aS'nsubj=McCain'
p226
aS'nsubj=Obama'
p227
aS'nsubj=Petraeus'
p228
aS'nsubj=Putin'
p229
aS'nsubj=Rice'
p230
aS'nsubj=Romney'
p231
aS'nsubj=Rossouw'
p232
aS'nsubj=Rybak'
p233
aS'nsubj=Sarkozy'
p234
aS'nsubj=Secretary'
p235
aS'nsubj=Singh'
p236
aS'nsubj=Snow'
p237
aS'nsubj=Thompson'
p238
aS'nsubj=Walden'
p239
aS'nsubj=a'
p240
aS'nsubj=ad'
p241
aS'nsubj=automaker'
p242
aS'nsubj=backer'
p243
aS'nsubj=campaign'
p244
aS'nsubj=contender'
p245
aS'nsubj=country'
p246
aS'nsubj=delegate'
p247
aS'nsubj=exhibition'
p248
aS'nsubj=government'
p249
aS'nsubj=lawson-brown'
p250
aS'nsubj=leader'
p251
aS'nsubj=leadership'
p252
aS'nsubj=letter'
p253
aS'nsubj=minister'
p254
aS'nsubj=nuhayyan'
p255
aS'nsubj=official'
p256
aS'nsubj=opponent'
p257
aS'nsubj=other'
p258
aS'nsubj=policy'
p259
aS'nsubj=president'
p260
aS'nsubj=reform'
p261
aS'nsubj=report'
p262
aS'nsubj=republican'
p263
aS'nsubj=resident'
p264
aS'nsubj=senator'
p265
aS'nsubj=statement'
p266
aS'nsubj=strategy'
p267
aS'nsubj=text'
p268
aS'nsubj=that'
p269
aS'nsubj=venue'
p270
aS'nsubj=who'
p271
aS'nsubjpass=#PRP#'
p272
aS'nsubjpass=immunization'
p273
aS'nsubjpass=point'
p274
aS'parataxis=do'
p275
aS'partmod=speak'
p276
aS'prep=as'
p277
aS'prep=at'
p278
aS'prep=by'
p279
aS'prep=despite'
p280
aS'prep=during'
p281
aS'prep=for'
p282
aS'prep=from'
p283
aS'prep=in'
p284
aS'prep=include'
p285
aS'prep=like'
p286
aS'prep=on'
p287
aS'prep=over'
p288
aS'prep=since'
p289
aS'prep=through'
p290
aS'prep=to'
p291
aS'prep=with'
p292
aS'purpcl=counter'
p293
aS'purpcl=enlist'
p294
aS'tmod=time'
p295
aS'tmod=today'
p296
aS'w+1=,'
p297
aS'w+1=Africa'
p298
aS'w+1=America'
p299
aS'w+1=Britain'
p300
aS'w+1=Democrats'
p301
aS'w+1=India'
p302
aS'w+1=Kibaki'
p303
aS'w+1=Nelson'
p304
aS'w+1=Turkey'
p305
aS'w+1=U.S.'
p306
aS'w+1=`'
p307
aS'w+1=a'
p308
aS'w+1=accomplishment'
p309
aS'w+1=again'
p310
aS'w+1=and'
p311
aS'w+1=any'
p312
aS'w+1=area'
p313
aS'w+1=austerity'
p314
aS'w+1=better'
p315
aS'w+1=build'
p316
aS'w+1=by'
p317
aS'w+1=closer'
p318
aS'w+1=customer'
p319
aS'w+1=democratic'
p320
aS'w+1=diplomacy'
p321
aS'w+1=diplomatic'
p322
aS'w+1=domestic'
p323
aS'w+1=economic'
p324
aS'w+1=education'
p325
aS'w+1=equitable'
p326
aS'w+1=family'
p327
aS'w+1=fuel'
p328
aS'w+1=government'
p329
aS'w+1=he'
p330
aS'w+1=health'
p331
aS'w+1=help'
p332
aS'w+1=how'
p333
aS'w+1=in'
p334
aS'w+1=incentive'
p335
aS'w+1=its'
p336
aS'w+1=more'
p337
aS'w+1=muslim'
p338
aS'w+1=not'
p339
aS'w+1=on'
p340
aS'w+1=once'
p341
aS'w+1=only'
p342
aS'w+1=part'
p343
aS'w+1=presidential'
p344
aS'w+1=preventive'
p345
aS'w+1=regional'
p346
aS'w+1=respect'
p347
aS'w+1=shared'
p348
aS'w+1=she'
p349
aS'w+1=social'
p350
aS'w+1=sound'
p351
aS'w+1=start'
p352
aS'w+1=story'
p353
aS'w+1=that'
p354
aS'w+1=the'
p355
aS'w+1=there'
p356
aS'w+1=these'
p357
aS'w+1=they'
p358
aS'w+1=this'
p359
aS'w+1=to'
p360
aS'w+1=today'
p361
aS'w+1=value'
p362
aS'w+1=we'
p363
aS'w+1=what'
p364
aS'w+1=with'
p365
aS"w+2='"
p366
aS"w+2='s"
p367
aS'w+2=,'
p368
aS'w+2=-'
p369
aS'w+2=-lrb-'
p370
aS'w+2=.'
p371
aS'w+2=AfriCom'
p372
aS'w+2=I'
p373
aS'w+2=India'
p374
aS'w+2=Islam'
p375
aS'w+2=Kurdistan'
p376
aS'w+2=Palestinians'
p377
aS'w+2=Russia'
p378
aS'w+2=Saddam'
p379
aS'w+2=U.N.'
p380
aS'w+2=U.S.'
p381
aS'w+2=again'
p382
aS'w+2=agriculture'
p383
aS'w+2=all'
p384
aS'w+2=although'
p385
aS'w+2=american'
p386
aS'w+2=and'
p387
aS'w+2=anti-retroviral'
p388
aS'w+2=any'
p389
aS'w+2=area'
p390
aS'w+2=as'
p391
aS'w+2=at'
p392
aS'w+2=background'
p393
aS'w+2=be'
p394
aS'w+2=bipartisan'
p395
aS'w+2=british'
p396
aS'w+2=business'
p397
aS'w+2=call'
p398
aS'w+2=care'
p399
aS'w+2=choice'
p400
aS'w+2=city'
p401
aS'w+2=commitment'
p402
aS'w+2=concern'
p403
aS'w+2=confidence'
p404
aS'w+2=cultural'
p405
aS'w+2=danger'
p406
aS'w+2=deal'
p407
aS'w+2=deliberate'
p408
aS'w+2=demand'
p409
aS'w+2=development'
p410
aS'w+2=difference'
p411
aS'w+2=diplomacy'
p412
aS'w+2=diplomat'
p413
aS'w+2=disaster'
p414
aS'w+2=efficiency'
p415
aS'w+2=effort'
p416
aS'w+2=evolution'
p417
aS'w+2=experience'
p418
aS'w+2=extensive'
p419
aS'w+2=for'
p420
aS'w+2=fuel'
p421
aS'w+2=fusion'
p422
aS'w+2=generally'
p423
aS'w+2=goal'
p424
aS'w+2=government'
p425
aS'w+2=he'
p426
aS'w+2=high'
p427
aS'w+2=immigrant'
p428
aS'w+2=importance'
p429
aS'w+2=in'
p430
aS'w+2=individual'
p431
aS'w+2=institutionalize'
p432
aS'w+2=inter-religious'
p433
aS'w+2=issue'
p434
aS'w+2=it'
p435
aS'w+2=its'
p436
aS'w+2=law'
p437
aS'w+2=leadership'
p438
aS'w+2=long'
p439
aS'w+2=long-term'
p440
aS'w+2=many'
p441
aS'w+2=measure'
p442
aS'w+2=membership'
p443
aS'w+2=message'
p444
aS'w+2=military'
p445
aS'w+2=more'
p446
aS'w+2=must'
p447
aS'w+2=need'
p448
aS'w+2=no'
p449
aS'w+2=note'
p450
aS'w+2=of'
p451
aS'w+2=on'
p452
aS'w+2=only'
p453
aS'w+2=other'
p454
aS'w+2=passionate'
p455
aS'w+2=people'
p456
aS'w+2=point'
p457
aS'w+2=poor'
p458
aS'w+2=property'
p459
aS'w+2=public'
p460
aS'w+2=recommendation'
p461
aS'w+2=reduction'
p462
aS'w+2=reform'
p463
aS'w+2=religious'
p464
aS'w+2=remain'
p465
aS'w+2=right'
p466
aS'w+2=role'
p467
aS'w+2=root'
p468
aS'w+2=science'
p469
aS'w+2=scope'
p470
aS'w+2=service'
p471
aS'w+2=similarity'
p472
aS'w+2=situation'
p473
aS'w+2=southern'
p474
aS'w+2=speech'
p475
aS'w+2=strong'
p476
aS'w+2=support'
p477
aS'w+2=the'
p478
aS'w+2=these'
p479
aS'w+2=this'
p480
aS'w+2=threat'
p481
aS'w+2=tie'
p482
aS'w+2=up'
p483
aS'w+2=use'
p484
aS'w+2=value'
p485
aS'w+2=very'
p486
aS'w+2=we'
p487
aS'w+2=will'
p488
aS'w+2=would'
p489
aS'w+2=year'
p490
aS"w-1=''"
p491
aS'w-1=,'
p492
aS'w-1=-'
p493
aS'w-1=-rrb-'
p494
aS'w-1=Allen'
p495
aS'w-1=Bartlett'
p496
aS'w-1=Biden'
p497
aS'w-1=Branson'
p498
aS'w-1=Buey'
p499
aS'w-1=Bush'
p500
aS'w-1=Calderon'
p501
aS'w-1=Carlos'
p502
aS'w-1=Chad'
p503
aS'w-1=Clinton'
p504
aS'w-1=Diplomacy'
p505
aS'w-1=Dumont'
p506
aS'w-1=Edwards'
p507
aS'w-1=Ethiopia'
p508
aS'w-1=Gelb'
p509
aS'w-1=Geschwind'
p510
aS'w-1=Haberman'
p511
aS'w-1=Hadley'
p512
aS'w-1=Hill'
p513
aS'w-1=I'
p514
aS'w-1=Imams'
p515
aS'w-1=McCain'
p516
aS'w-1=Putin'
p517
aS'w-1=Rice'
p518
aS'w-1=Romney'
p519
aS'w-1=Ros-Lehtinen'
p520
aS'w-1=Secretary'
p521
aS'w-1=Snow'
p522
aS'w-1=Thompson'
p523
aS'w-1=Turkey'
p524
aS'w-1=Whelan'
p525
aS'w-1=also'
p526
aS'w-1=and'
p527
aS'w-1=be'
p528
aS'w-1=but'
p529
aS'w-1=by'
p530
aS'w-1=delegate'
p531
aS'w-1=exhibition'
p532
aS'w-1=first'
p533
aS'w-1=further'
p534
aS'w-1=have'
p535
aS'w-1=he'
p536
aS'w-1=in'
p537
aS'w-1=it'
p538
aS'w-1=lawson-brown'
p539
aS'w-1=leader'
p540
aS'w-1=letter'
p541
aS'w-1=long'
p542
aS'w-1=minister'
p543
aS'w-1=now'
p544
aS'w-1=nuhayyan'
p545
aS'w-1=of'
p546
aS'w-1=other'
p547
aS'w-1=part'
p548
aS'w-1=president'
p549
aS'w-1=rarely'
p550
aS'w-1=rather'
p551
aS'w-1=repeatedly'
p552
aS'w-1=report'
p553
aS'w-1=researcher'
p554
aS'w-1=senator'
p555
aS'w-1=she'
p556
aS'w-1=should'
p557
aS'w-1=something'
p558
aS'w-1=statement'
p559
aS'w-1=that'
p560
aS'w-1=they'
p561
aS'w-1=three'
p562
aS'w-1=to'
p563
aS'w-1=venue'
p564
aS'w-1=we'
p565
aS'w-1=while'
p566
aS'w-1=will'
p567
aS'w-1=would'
p568
aS"w-2=''"
p569
aS'w-2=,'
p570
aS'w-2=-'
p571
aS'w-2=.'
p572
aS'w-2=Big'
p573
aS'w-2=Citizen'
p574
aS'w-2=Clinton'
p575
aS'w-2=Council'
p576
aS'w-2=D.C.'
p577
aS'w-2=Delhi'
p578
aS'w-2=Edwards'
p579
aS'w-2=Emir'
p580
aS'w-2=Forum'
p581
aS'w-2=Gates'
p582
aS'w-2=Heller'
p583
aS'w-2=Hill'
p584
aS'w-2=Huckabee'
p585
aS'w-2=Hussein'
p586
aS'w-2=I'
p587
aS'w-2=Ileana'
p588
aS'w-2=Iran'
p589
aS'w-2=John'
p590
aS'w-2=Joshua'
p591
aS'w-2=McCain'
p592
aS'w-2=Mr.'
p593
aS'w-2=Obama'
p594
aS'w-2=Peter'
p595
aS'w-2=President'
p596
aS'w-2=Reagan'
p597
aS'w-2=Rybak'
p598
aS'w-2=Secretary'
p599
aS'w-2=Singh'
p600
aS'w-2=States'
p601
aS'w-2=Theresa'
p602
aS'w-2=accident'
p603
aS'w-2=activist'
p604
aS'w-2=ad'
p605
aS'w-2=agree'
p606
aS'w-2=and'
p607
aS'w-2=automaker'
p608
aS'w-2=be'
p609
aS'w-2=begin'
p610
aS'w-2=both'
p611
aS'w-2=but'
p612
aS'w-2=campaign'
p613
aS'w-2=contender'
p614
aS'w-2=continue'
p615
aS'w-2=country'
p616
aS'w-2=day'
p617
aS'w-2=del'
p618
aS'w-2=develop'
p619
aS'w-2=economy'
p620
aS'w-2=faction'
p621
aS'w-2=fail'
p622
aS'w-2=flower'
p623
aS'w-2=foreign'
p624
aS'w-2=further'
p625
aS'w-2=go'
p626
aS'w-2=have'
p627
aS'w-2=he'
p628
aS'w-2=here'
p629
aS'w-2=hope'
p630
aS'w-2=immunization'
p631
aS'w-2=important'
p632
aS'w-2=indeed'
p633
aS'w-2=leader'
p634
aS'w-2=let'
p635
aS'w-2=like'
p636
aS'w-2=low'
p637
aS'w-2=march'
p638
aS'w-2=month'
p639
aS'w-2=need'
p640
aS'w-2=official'
p641
aS'w-2=on'
p642
aS'w-2=one'
p643
aS'w-2=other'
p644
aS'w-2=outcome'
p645
aS'w-2=particular'
p646
aS'w-2=point'
p647
aS'w-2=policy'
p648
aS'w-2=political'
p649
aS'w-2=project'
p650
aS'w-2=promise'
p651
aS'w-2=public'
p652
aS'w-2=recognition'
p653
aS'w-2=regardless'
p654
aS'w-2=republican'
p655
aS'w-2=say'
p656
aS'w-2=seek'
p657
aS'w-2=she'
p658
aS'w-2=so'
p659
aS'w-2=strategy'
p660
aS'w-2=strike'
p661
aS'w-2=team'
p662
aS'w-2=text'
p663
aS'w-2=textbook'
p664
aS'w-2=that'
p665
aS'w-2=the'
p666
aS'w-2=toward'
p667
aS'w-2=try'
p668
aS'w-2=venture'
p669
aS'w-2=want'
p670
aS'w-2=we'
p671
aS'w-2=while'
p672
aS'w-2=worry'
p673
aS'w-2=would'
p674
aS'xcomp=build'
p675
aS'xcomp=deal'
p676
aS'xcomp=ensure'
p677
aS'xcomp=mediate'
p678
aS'xcomp=movement'
p679
aS'xcomp=note'
p680
aS'xcomp=shore'
p681
asS'dtype'
p682
cnumpy
float64
p683
sS'vocabulary_'
p684
(dp685
g179
I170
sg166
I157
sg95
I86
sg27
I18
sg469
I460
sg250
I241
sg671
I662
sg598
I589
sg184
I175
sg506
I497
sg234
I225
sg245
I236
sg209
I200
sg343
I334
sg163
I154
sg442
I433
sg325
I316
sg322
I313
sg484
I475
sg599
I590
sg202
I193
sg640
I631
sg621
I612
sg550
I541
sg648
I639
sg433
I424
sg279
I270
sg616
I607
sg396
I387
sg362
I353
sg354
I345
sg57
I48
sg496
I487
sg249
I240
sg274
I265
sg418
I409
sg568
I559
sg82
I73
sg49
I40
sg151
I142
sg235
I226
sg372
I363
sg635
I626
sg357
I348
sg342
I333
sg385
I376
sg637
I628
sg567
I558
sg423
I414
sg217
I208
sg155
I146
sg427
I418
sg263
I254
sg530
I521
sg333
I324
sg528
I519
sg247
I238
sg664
I655
sg475
I466
sg167
I158
sg327
I318
sg666
I657
sg576
I567
sg349
I340
sg251
I242
sg101
I92
sg318
I309
sg549
I540
sg500
I491
sg332
I323
sg663
I654
sg646
I637
sg497
I488
sg15
I6
sg206
I197
sg86
I77
sg518
I509
sg539
I530
sg340
I331
sg632
I623
sg444
I435
sg447
I438
sg83
I74
sg162
I153
sg265
I256
sg535
I526
sg100
I91
sg93
I84
sg370
I361
sg430
I421
sg103
I94
sg175
I166
sg630
I621
sg302
I293
sg507
I498
sg681
I672
sg602
I593
sg644
I635
sg614
I605
sg78
I69
sg526
I517
sg108
I99
sg459
I450
sg14
I5
sg135
I126
sg96
I87
sg139
I130
sg422
I413
sg585
I576
sg660
I651
sg472
I463
sg143
I134
sg488
I479
sg133
I124
sg329
I320
sg339
I330
sg675
I666
sg388
I379
sg522
I513
sg665
I656
sg355
I346
sg113
I104
sg555
I546
sg394
I385
sg358
I349
sg115
I106
sg176
I167
sg272
I263
sg122
I113
sg284
I275
sg40
I31
sg517
I508
sg513
I504
sg319
I310
sg634
I625
sg653
I644
sg457
I448
sg188
I179
sg84
I75
sg291
I282
sg350
I341
sg116
I107
sg73
I64
sg189
I180
sg218
I209
sg214
I205
sg311
I302
sg561
I552
sg117
I108
sg316
I307
sg9
I0
sg650
I641
sg282
I273
sg521
I512
sg60
I51
sg591
I582
sg573
I564
sg420
I411
sg72
I63
sg575
I566
sg504
I495
sg638
I629
sg171
I162
sg58
I49
sg538
I529
sg22
I13
sg33
I24
sg25
I16
sg23
I14
sg152
I143
sg645
I636
sg480
I471
sg204
I195
sg479
I470
sg537
I528
sg487
I478
sg111
I102
sg524
I515
sg657
I648
sg352
I343
sg434
I425
sg301
I292
sg74
I65
sg586
I577
sg502
I493
sg525
I516
sg180
I171
sg193
I184
sg559
I550
sg230
I221
sg30
I21
sg393
I384
sg417
I408
sg584
I575
sg600
I591
sg606
I597
sg238
I229
sg408
I399
sg221
I212
sg463
I454
sg243
I234
sg398
I389
sg131
I122
sg205
I196
sg97
I88
sg53
I44
sg112
I103
sg633
I624
sg285
I276
sg552
I543
sg187
I178
sg464
I455
sg271
I262
sg604
I595
sg512
I503
sg165
I156
sg120
I111
sg642
I633
sg563
I554
sg273
I264
sg276
I267
sg579
I570
sg446
I437
sg590
I581
sg134
I125
sg312
I303
sg185
I176
sg323
I314
sg551
I542
sg262
I253
sg557
I548
sg474
I465
sg140
I131
sg314
I305
sg114
I105
sg269
I260
sg216
I207
sg416
I407
sg678
I669
sg351
I342
sg147
I138
sg578
I569
sg477
I468
sg330
I321
sg384
I375
sg12
I3
sg110
I101
sg582
I573
sg181
I172
sg468
I459
sg641
I632
sg558
I549
sg275
I266
sg29
I20
sg511
I502
sg52
I43
sg406
I397
sg158
I149
sg564
I555
sg615
I606
sg203
I194
sg92
I83
sg34
I25
sg543
I534
sg32
I23
sg233
I224
sg168
I159
sg676
I667
sg11
I2
sg658
I649
sg407
I398
sg670
I661
sg363
I354
sg248
I239
sg119
I110
sg253
I244
sg392
I383
sg548
I539
sg391
I382
sg280
I271
sg593
I584
sg542
I533
sg41
I32
sg47
I38
sg126
I117
sg374
I365
sg51
I42
sg378
I369
sg229
I220
sg335
I326
sg81
I72
sg356
I347
sg519
I510
sg458
I449
sg200
I191
sg336
I327
sg150
I141
sg164
I155
sg655
I646
sg223
I214
sg344
I335
sg61
I52
sg232
I223
sg75
I66
sg121
I112
sg467
I458
sg460
I451
sg490
I481
sg105
I96
sg241
I232
sg345
I336
sg562
I553
sg219
I210
sg639
I630
sg10
I1
sg191
I182
sg260
I251
sg153
I144
sg569
I560
sg505
I496
sg400
I391
sg451
I442
sg452
I443
sg360
I351
sg440
I431
sg527
I518
sg618
I609
sg532
I523
sg257
I248
sg212
I203
sg13
I4
sg63
I54
sg261
I252
sg55
I46
sg438
I429
sg566
I557
sg66
I57
sg62
I53
sg470
I461
sg375
I366
sg553
I544
sg386
I377
sg613
I604
sg109
I100
sg503
I494
sg556
I547
sg213
I204
sg486
I477
sg594
I585
sg21
I12
sg237
I228
sg419
I410
sg626
I617
sg489
I480
sg178
I169
sg88
I79
sg146
I137
sg107
I98
sg674
I665
sg192
I183
sg64
I55
sg353
I344
sg589
I580
sg436
I427
sg195
I186
sg629
I620
sg145
I136
sg508
I499
sg603
I594
sg429
I420
sg190
I181
sg321
I312
sg79
I70
sg90
I81
sg547
I538
sg580
I571
sg326
I317
sg196
I187
sg124
I115
sg380
I371
sg516
I507
sg215
I206
sg652
I643
sg296
I287
sg399
I390
sg39
I30
sg441
I432
sg127
I118
sg581
I572
sg292
I283
sg148
I139
sg157
I148
sg445
I436
sg48
I39
sg456
I447
sg313
I304
sg207
I198
sg414
I405
sg617
I608
sg679
I670
sg170
I161
sg421
I412
sg482
I473
sg211
I202
sg59
I50
sg231
I222
sg300
I291
sg227
I218
sg102
I93
sg501
I492
sg491
I482
sg669
I660
sg498
I489
sg413
I404
sg622
I613
sg431
I422
sg246
I237
sg673
I664
sg20
I11
sg485
I476
sg177
I168
sg531
I522
sg255
I246
sg45
I36
sg305
I296
sg68
I59
sg432
I423
sg667
I658
sg545
I536
sg24
I15
sg481
I472
sg601
I592
sg94
I85
sg448
I439
sg210
I201
sg627
I618
sg42
I33
sg208
I199
sg77
I68
sg515
I506
sg71
I62
sg317
I308
sg137
I128
sg240
I231
sg346
I337
sg529
I520
sg367
I358
sg465
I456
sg662
I653
sg595
I586
sg123
I114
sg256
I247
sg309
I300
sg623
I614
sg54
I45
sg334
I325
sg476
I467
sg198
I189
sg266
I257
sg331
I322
sg299
I290
sg404
I395
sg315
I306
sg651
I642
sg50
I41
sg224
I215
sg43
I34
sg19
I10
sg128
I119
sg44
I35
sg286
I277
sg596
I587
sg583
I574
sg91
I82
sg483
I474
sg294
I285
sg592
I583
sg18
I9
sg610
I601
sg225
I216
sg118
I109
sg636
I627
sg403
I394
sg361
I352
sg471
I462
sg541
I532
sg609
I600
sg142
I133
sg624
I615
sg534
I525
sg199
I190
sg680
I671
sg287
I278
sg98
I89
sg186
I177
sg424
I415
sg264
I255
sg132
I123
sg201
I192
sg69
I60
sg415
I406
sg239
I230
sg411
I402
sg341
I332
sg106
I97
sg377
I368
sg466
I457
sg620
I611
sg87
I78
sg631
I622
sg389
I380
sg270
I261
sg259
I250
sg540
I531
sg288
I279
sg574
I565
sg80
I71
sg588
I579
sg546
I537
sg17
I8
sg387
I378
sg607
I598
sg405
I396
sg450
I441
sg197
I188
sg668
I659
sg70
I61
sg643
I634
sg359
I350
sg449
I440
sg295
I286
sg254
I245
sg628
I619
sg382
I373
sg337
I328
sg76
I67
sg365
I356
sg379
I370
sg16
I7
sg28
I19
sg656
I647
sg401
I392
sg478
I469
sg520
I511
sg172
I163
sg277
I268
sg125
I116
sg570
I561
sg348
I339
sg572
I563
sg426
I417
sg298
I289
sg364
I355
sg410
I401
sg36
I27
sg149
I140
sg612
I603
sg89
I80
sg453
I444
sg129
I120
sg493
I484
sg492
I483
sg169
I160
sg672
I663
sg587
I578
sg523
I514
sg677
I668
sg242
I233
sg99
I90
sg154
I145
sg455
I446
sg290
I281
sg138
I129
sg26
I17
sg605
I596
sg220
I211
sg514
I505
sg37
I28
sg425
I416
sg320
I311
sg160
I151
sg267
I258
sg328
I319
sg226
I217
sg647
I638
sg130
I121
sg136
I127
sg67
I58
sg659
I650
sg536
I527
sg183
I174
sg324
I315
sg494
I485
sg625
I616
sg310
I301
sg554
I545
sg661
I652
sg289
I280
sg236
I227
sg383
I374
sg462
I453
sg435
I426
sg258
I249
sg156
I147
sg654
I645
sg390
I381
sg473
I464
sg144
I135
sg376
I367
sg293
I284
sg65
I56
sg461
I452
sg159
I150
sg649
I640
sg544
I535
sg228
I219
sg194
I185
sg182
I173
sg619
I610
sg222
I213
sg611
I602
sg303
I294
sg104
I95
sg381
I372
sg338
I329
sg174
I165
sg533
I524
sg283
I274
sg85
I76
sg454
I445
sg244
I235
sg31
I22
sg608
I599
sg347
I338
sg565
I556
sg38
I29
sg499
I490
sg437
I428
sg597
I588
sg395
I386
sg278
I269
sg173
I164
sg443
I434
sg268
I259
sg297
I288
sg141
I132
sg371
I362
sg368
I359
sg369
I360
sg366
I357
sg281
I272
sg439
I430
sg161
I152
sg571
I562
sg509
I500
sg252
I243
sg373
I364
sg56
I47
sg412
I403
sg510
I501
sg308
I299
sg307
I298
sg409
I400
sg306
I297
sg402
I393
sg304
I295
sg577
I568
sg397
I388
sg560
I551
sg35
I26
sg495
I486
sg46
I37
sg428
I419
ssS'separator'
p686
S'='
sS'sparse'
p687
I01
sb.