ccopy_reg
_reconstructor
p1
(csklearn.feature_extraction.dict_vectorizer
DictVectorizer
p2
c__builtin__
object
p3
NtRp4
(dp5
S'vocabulary_'
p6
(dp7
S'dobj=killing'
p8
I897
sS'nsubjpass=Russia'
p9
I1574
sS'w+2=correct'
p10
I2860
sS'w-2=Malcolm'
p11
I4433
sS'w+2=Patricia'
p12
I2620
sS'nsubj=Cross'
p13
I1260
sS'w+2=ongoing'
p14
I3193
sS'w-2=Cross'
p15
I4315
sS'ccomp=deny'
p16
I407
sS'w-2=wire'
p17
I5145
sS'w-2=dolphin'
p18
I4740
sS'advmod=more'
p19
I87
sS'w-1=Pasricha'
p20
I3717
sS'dep=receive'
p21
I801
sS'amod=science-based'
p22
I253
sS'det=no'
p23
I829
sS'advmod=certainly'
p24
I62
sS'nn=press'
p25
I1176
sS'w+2=earlier'
p26
I2929
sS'w-1=major'
p27
I4024
sS'ccomp=higher'
p28
I461
sS'w-2=Niger'
p29
I4463
sS'w-1=authoritative'
p30
I3856
sS'nsubj=poll'
p31
I1519
sS'w-2=Germany'
p32
I4359
sS'w-2=surround'
p33
I5073
sS'w-2=Human'
p34
I4378
sS'dobj=percent'
p35
I914
sS'w+2=survivor'
p36
I3385
sS'w-1=Parliament'
p37
I3716
sS'w+1=reveal'
p38
I2252
sS'w-2=televise'
p39
I5082
sS'w-2=russian'
p40
I5020
sS'ccomp=indicate'
p41
I474
sS'nsubjpass=Flynn'
p42
I1570
sS'nsubjpass=that'
p43
I1671
sS'w-1=certainly'
p44
I3879
sS'w+2=but'
p45
I2804
sS'w+2=civilian'
p46
I2825
sS'w-2=anticipate'
p47
I4616
sS'rcmod=prove'
p48
I1868
sS'nsubj=team'
p49
I1545
sS'xcomp=include'
p50
I5198
sS'w+2=target'
p51
I3390
sS'w+2=international'
p52
I3069
sS'w-2=new'
p53
I4908
sS'w-2=team'
p54
I5081
sS'w+2=Mumbai'
p55
I2598
sS'w-1=newspaper'
p56
I4049
sS'w-2=body'
p57
I4650
sS'appos=Guterres'
p58
I295
sS'w-1=diplomat'
p59
I3921
sS'w-2=56,000'
p60
I4241
sS'w-2=insurgent'
p61
I4834
sS'dep=boat'
p62
I740
sS'w-2=NATO'
p63
I4450
sS'w-1=economic'
p64
I3937
sS'w-2=need'
p65
I4907
sS'w+2=prepare'
p66
I3240
sS'w+2=so-called'
p67
I3350
sS'w-1=survey'
p68
I4169
sS'xcomp=bring'
p69
I5163
sS'nsubj=witness'
p70
I1558
sS'nsubj=Sand'
p71
I1383
sS'w+2=nation'
p72
I3162
sS'nsubjpass=injury'
p73
I1625
sS'w+2=multiple'
p74
I3156
sS'w-1=Center'
p75
I3575
sS'nsubj=migrant'
p76
I1497
sS'w-2=humanitarian'
p77
I4819
sS'w-2=israeli'
p78
I4848
sS'w-1=study'
p79
I4161
sS'nsubjpass=leak'
p80
I1628
sS'w+2=Geneva'
p81
I2498
sS'w-1=survivor'
p82
I4170
sS'nsubj=Nations'
p83
I1350
sS'nsubjpass=general'
p84
I1619
sS'w-2=comment'
p85
I4685
sS'w-1=King'
p86
I3664
sS'w+2=December'
p87
I2474
sS'w-1=hotel'
p88
I3981
sS'abbrev=D.O.T.'
p89
I0
sS'w-1=worker'
p90
I4220
sS'w+1=state'
p91
I2287
sS'w+1=raise'
p92
I2231
sS'nsubj=station'
p93
I1541
sS'w-1=new'
p94
I4046
sS'w-1=EU'
p95
I3601
sS'w+2=Ms.'
p96
I2596
sS'nsubj=Steinglass'
p97
I1399
sS'advmod=behind'
p98
I60
sS'w+2=recent'
p99
I3279
sS'w+2=intensive'
p100
I3067
sS'w+1=restrict'
p101
I2250
sS'nsubjpass=president'
p102
I1647
sS'w+1=recently'
p103
I2239
sS'w-1=Brown'
p104
I3564
sS'w-2=focus'
p105
I4780
sS'advmod=annually'
p106
I57
sS'w+2=Amsterdam'
p107
I2419
sS'w+2=several'
p108
I3328
sS'w-1=rights'
p109
I4123
sS'conj=destroy'
p110
I642
sS'rcmod=get'
p111
I1845
sS'w-1=will'
p112
I4217
sS'w-1=journalist'
p113
I4010
sS'nsubj=Saine'
p114
I1382
sS'w-1=Iraq'
p115
I3652
sS'nn=Institute'
p116
I1038
sS'w-2=administration'
p117
I4583
sS'w-1=LisaBryant'
p118
I3672
sS'w-2=Yi'
p119
I4571
sS'ccomp=cheer'
p120
I378
sS'w-2=verify'
p121
I5125
sS'ccomp=satisfactory'
p122
I554
sS'w-2=decade'
p123
I4712
sS'nsubjpass=clash'
p124
I1600
sS'nsubj=Naranjo'
p125
I1349
sS'dep=use'
p126
I820
sS'w-2=among'
p127
I4609
sS'w+2=environmental'
p128
I2947
sS'nn=Delta'
p129
I1015
sS'nsubjpass=people'
p130
I1645
sS'nsubj=Ferdinando'
p131
I1278
sS'w+1=it'
p132
I2154
sS'w-2=thousand'
p133
I5093
sS'w+2=internet'
p134
I3070
sS'w-2=able'
p135
I4576
sS'w+2=Reporters'
p136
I2635
sS'w+1=she'
p137
I2269
sS'w-1=post-mortem'
p138
I4088
sS'advcl=estimate'
p139
I23
sS'w-2=time'
p140
I5095
sS'rcmod=circulate'
p141
I1828
sS'w+1=incursion'
p142
I2142
sS'conj=allegation'
p143
I621
sS'w+1=hijacking'
p144
I2131
sS'advmod=mostly'
p145
I89
sS'w+1=aim'
p146
I1976
sS'w-1=News'
p147
I3704
sS'w+2=Russians'
p148
I2644
sS'nsubjpass=job'
p149
I1627
sS'ccomp=shoot'
p150
I565
sS'nsubj=delegation'
p151
I1463
sS'w+2=heavy'
p152
I3028
sS'w-2=Barry'
p153
I4280
sS'w+2=condemn'
p154
I2845
sS'w+2=Italy'
p155
I2531
sS'w+1=of'
p156
I2194
sS'w+2=nuclear'
p157
I3180
sS'w-1=Fedynsky'
p158
I3610
sS'dobj=sighting'
p159
I936
sS'nn=census'
p160
I1129
sS'w-2=2007'
p161
I4237
sS'w+2=Ahmed'
p162
I2414
sS"w-1=Ma'ariv"
p163
I3674
sS'dep=die'
p164
I758
sS'w+2=Darfur'
p165
I2472
sS'conj=broadcast'
p166
I630
sS'w+2=sharp'
p167
I3331
sS'ccomp=carry'
p168
I372
sS'nsubjpass=tb'
p169
I1670
sS'w+2=Kenneth'
p170
I2551
sS'xcomp=cover'
p171
I5172
sS'w+2=school'
p172
I3314
sS'w+1=or'
p173
I2201
sS'w-1=some'
p174
I4153
sS'nsubj=survivor'
p175
I1544
sS'rcmod=investigate'
p176
I1855
sS'w-2=continue'
p177
I4696
sS'w-1=await'
p178
I3858
sS'ccomp=say'
p179
I555
sS'w-2=Red'
p180
I4493
sS'nsubjpass=baby'
p181
I1586
sS'w-2=parliament'
p182
I4944
sS'w+2=israeli'
p183
I3081
sS'dep=produce'
p184
I799
sS'w+2=three'
p185
I3407
sS'dep=submit'
p186
I813
sS'w+2=eight'
p187
I2936
sS'nsubj=Herman'
p188
I1297
sS'w+2=Austria'
p189
I2428
sS'w+2=Sunday'
p190
I2674
sS'nn=UNESCAP'
p191
I1100
sS'w+2=corn'
p192
I2859
sS'w-1=Wadhams'
p193
I3804
sS'w-2=see'
p194
I5032
sS'w-2=illegal'
p195
I4822
sS'w+2=Tehran'
p196
I2681
sS'w-1=key'
p197
I4012
sS'w-2=all'
p198
I4600
sS'w+1=release'
p199
I2245
sS'w-2=only'
p200
I4928
sS'advmod=formally'
p201
I73
sS'dobj=sign'
p202
I937
sS'ccomp=have'
p203
I456
sS'w-1=could'
p204
I3902
sS'w+2=Algerian'
p205
I2416
sS'w-2=on'
p206
I4924
sS'w+2=you'
p207
I3498
sS'prep=around'
p208
I1784
sS'nsubjpass=cholera'
p209
I1597
sS'w+1=no'
p210
I2191
sS'w+2=bus'
p211
I2802
sS'w-2=japanese'
p212
I4852
sS'w+2=statistician'
p213
I3369
sS'nsubjpass=infection'
p214
I1624
sS'w-1=Yeranian'
p215
I3819
sS'w-2=various'
p216
I5123
sS'w-1=you'
p217
I4224
sS'w+2=Hong'
p218
I2508
sS'w-1=document'
p219
I3928
sS'w+1=emerge'
p220
I2087
sS'w+2=fund'
p221
I3001
sS'advcl=be'
p222
I11
sS'nn=Vietnam'
p223
I1105
sS'nsubj=Jazeera'
p224
I1309
sS'w-2=that'
p225
I5084
sS'w+1=the'
p226
I2309
sS'infmod=present'
p227
I967
sS'w-1=counter'
p228
I3904
sS'ccomp=rape'
p229
I529
sS'w+1=bring'
p230
I2011
sS'rcmod=receive'
p231
I1870
sS'w+2=soldier'
p232
I3351
sS'w-1=Bobb'
p233
I3560
sS'w+1=good'
p234
I2120
sS'w-2=offer'
p235
I4922
sS'w-1=follow'
p236
I3955
sS'dep=cast'
p237
I746
sS'amod=indian'
p238
I191
sS'w+2=Kenya'
p239
I2552
sS'w-2=investigator'
p240
I4845
sS'nn=UNRWA'
p241
I1103
sS'w+1=outbreak'
p242
I2203
sS'dobj=death'
p243
I861
sS'partmod=survey'
p244
I1736
sS'dep=jail'
p245
I781
sS'appos=Floyd'
p246
I293
sS'w-2=station'
p247
I5062
sS'w+2=humanitarian'
p248
I3043
sS'w-1=monitoring'
p249
I4037
sS'w+2=Freetown'
p250
I2494
sS'w+1=Africa'
p251
I1930
sS'w+1=calculate'
p252
I2017
sS'w-2=African'
p253
I4250
sS'amod=monthly'
p254
I217
sS'w+2=substantial'
p255
I3376
sS'w+2=further'
p256
I3002
sS'w-1=colonel'
p257
I3885
sS'nsubj=U.N.'
p258
I1413
sS'nsubj=Wadhams'
p259
I1420
sS'w-1=credible'
p260
I3906
sS'w+1=iraqi'
p261
I2151
sS'w+2=of'
p262
I3184
sS'w+2=Uzbekistan'
p263
I2701
sS'ccomp=detain'
p264
I411
sS'w-1=unanimous'
p265
I4193
sS'w-1=intelligence'
p266
I3995
sS'nsubj=Solana'
p267
I1398
sS'advcl=calm'
p268
I14
sS'w-2=UNAIDS'
p269
I4555
sS'w-1=Byrne'
p270
I3570
sS'ccomp=blame'
p271
I365
sS'w+2=blast'
p272
I2791
sS'xcomp=present'
p273
I5223
sS'nn=Transportation'
p274
I1093
sS'conj=sympathy'
p275
I709
sS'amod=unconfirmed'
p276
I276
sS'ccomp=similar'
p277
I567
sS'w-2=announcement'
p278
I4613
sS'w-1=Naranjo'
p279
I3701
sS'w-2=Free'
p280
I4350
sS'conj=buy'
p281
I632
sS'dobj=work'
p282
I961
sS'dep=burn'
p283
I742
sS'w-2=accord'
p284
I4579
sS'w-1=skirmish'
p285
I4151
sS'nn=Bobb'
p286
I997
sS'w+2=already'
p287
I2746
sS'xcomp=close'
p288
I5167
sS'poss=president'
p289
I1772
sS'partmod=recruit'
p290
I1729
sS'w-1=Library'
p291
I3670
sS'w-2=permission'
p292
I4952
sS'xcomp=provide'
p293
I5225
sS'nn=damage'
p294
I1139
sS'w-1=conference'
p295
I3893
sS'w+1=later'
p296
I2161
sS'w+2=France'
p297
I2493
sS'ccomp=face'
p298
I437
sS'w-1=Cooper'
p299
I3587
sS'nsubj=that'
p300
I1547
sS'advmod=further'
p301
I74
sS'w+2=another'
p302
I2757
sS'advmod=here'
p303
I75
sS'w+2=troubled'
p304
I3427
sS'partmod=go'
p305
I1710
sS'w-1=handover'
p306
I3974
sS'w+2=agency'
p307
I2730
sS'w+2=camp'
p308
I2808
sS'ccomp=graduate'
p309
I450
sS'w+2=key'
p310
I3089
sS'dep=enrollment'
p311
I760
sS'w+2=widespread'
p312
I3489
sS'w-2=Tuesday'
p313
I4552
sS'w+2=smuggler'
p314
I3347
sS'w-2=landmine'
p315
I4864
sS'w-2=Crime'
p316
I4312
sS'ccomp=send'
p317
I560
sS'w+2=disruption'
p318
I2912
sS'nsubj=Elman'
p319
I1270
sS'dobj=resident'
p320
I931
sS'w+2=badly'
p321
I2782
sS'poss=Department'
p322
I1750
sS'w-1=Office'
p323
I3710
sS'nsubj=Gonul'
p324
I1288
sS'w+2=practice'
p325
I3235
sS'nsubjpass=seizure'
p326
I1654
sS'w-2=Craig'
p327
I4310
sS'w-1=Organization'
p328
I3712
sS'w+1=blame'
p329
I2007
sS'w+2=diarrhea'
p330
I2902
sS'w-2=continually'
p331
I4695
sS'partmod=leak'
p332
I1717
sS'nsubj=Donnelly'
p333
I1264
sS'w+2=expert'
p334
I2960
sS'w-2=Somalia'
p335
I4522
sS'w-1=Colombant'
p336
I3581
sS'w+1=lag'
p337
I2158
sS'ccomp=agency'
p338
I344
sS'w+1=write'
p339
I2348
sS'w-1=Bouchard'
p340
I3562
sS'amod=continue'
p341
I144
sS'advmod=where'
p342
I118
sS'w+2=kurdish'
p343
I3093
sS'w+2=space'
p344
I3358
sS'amod=similar'
p345
I262
sS'w-1=Gentile'
p346
I3623
sS'w+2=when'
p347
I3483
sS'w-1=joint'
p348
I4009
sS'w+1=should'
p349
I2270
sS'nsubj=King'
p350
I1318
sS'w+2=call'
p351
I2807
sS'w-2=Rasmussen'
p352
I4491
sS'w+2=remove'
p353
I3291
sS'w+2=egyptian'
p354
I2935
sS'w-2=Alex'
p355
I4253
sS'partmod=time'
p356
I1737
sS'w-1=news'
p357
I4048
sS'dobj=plane'
p358
I916
sS'prep=out'
p359
I1806
sS'amod=black'
p360
I134
sS'xcomp=damage'
p361
I5174
sS'nsubj=Hamann'
p362
I1291
sS'w+2=65'
p363
I2399
sS'w+2=30'
p364
I2385
sS'w+2=31'
p365
I2387
sS'w-2=sighting'
p366
I5041
sS'ccomp=bid'
p367
I364
sS'w+2=institution'
p368
I3064
sS'dep=International'
p369
I727
sS'partmod=deliver'
p370
I1703
sS'w+1=acknowledge'
p371
I1969
sS'rcmod=begin'
p372
I1824
sS'w+2=kill'
p373
I3091
sS"w-1=O'Sullivan"
p374
I3709
sS'w+2=sporadic'
p375
I3364
sS'w+2=see'
p376
I3320
sS'w-1=tv'
p377
I4190
sS'w+2=follower'
p378
I2987
sS'w+1=Clinton'
p379
I1934
sS'advmod=inaccurately'
p380
I79
sS'w+1=both'
p381
I2009
sS'w-1=companion'
p382
I3889
sS'w+2=Sudan'
p383
I2673
sS'w+2=pilgrim'
p384
I3220
sS'w+2=60'
p385
I2397
sS'w+2=illness'
p386
I3048
sS'w-2=line'
p387
I4872
sS'w+2=mass'
p388
I3131
sS'w-2=Arab'
p389
I4267
sS'w-1=time'
p390
I4183
sS'ccomp=reject'
p391
I536
sS'w-1=to'
p392
I4184
sS'w+2=sex'
p393
I3329
sS'w+2=Inspector'
p394
I2519
sS'nsubj=Davis'
p395
I1262
sS'w-2=da'
p396
I4703
sS'w+1=--'
p397
I1906
sS'w-2=between'
p398
I4645
sS'appos=senator'
p399
I312
sS'dobj=version'
p400
I952
sS'w-1=500-page'
p401
I3523
sS'w+2=mid-career'
p402
I3138
sS'w+2=statement'
p403
I3368
sS'w+2=David'
p404
I2473
sS'w-1=Government'
p405
I3626
sS'dobj=#PRP#'
p406
I838
sS'w-1=Anod'
p407
I3538
sS'w-2=do'
p408
I4737
sS'nn=ipcc'
p409
I1161
sS'w-1=2010'
p410
I3516
sS'w-1=ranger'
p411
I4107
sS'w+2=Cambodia'
p412
I2454
sS'appos=#NUMBER#'
p413
I290
sS'w+1=you'
p414
I2351
sS'dobj=concession'
p415
I857
sS'w-2=Terry'
p416
I4540
sS'w-2=point'
p417
I4957
sS'dep=give'
p418
I766
sS'w-1=Shryock'
p419
I3763
sS'w-1=receive'
p420
I4109
sS'rcmod=increase'
p421
I1852
sS'nsubj=UNICEF'
p422
I1415
sS'w+1=benchmark'
p423
I2003
sS'w+2=violation'
p424
I3463
sS'xcomp=leader'
p425
I5207
sS'w+1=fromnairobus'
p426
I2113
sS'ccomp=#NUMBER#'
p427
I335
sS'w+1=appear'
p428
I1986
sS'ccomp=resolve'
p429
I544
sS'w+2=Kolkata'
p430
I2561
sS'partmod=use'
p431
I1740
sS'rcmod=lack'
p432
I1857
sS'w+2=unavailable'
p433
I3438
sS'w-2=and'
p434
I4611
sS'w+2=hundred'
p435
I3044
sS'w+2=effort'
p436
I2934
sS'advmod=extensively'
p437
I70
sS'w-1=actually'
p438
I3826
sS'xcomp=exceed'
p439
I5185
sS'w-2=Yuriko'
p440
I4573
sS'w-1=ABAC'
p441
I3528
sS'nsubj=deployer'
p442
I1464
sS'w-1=colleague'
p443
I3884
sS'w+2=Khost'
p444
I2554
sS'nsubjpass=turnout'
p445
I1675
sS'nsubj=company'
p446
I1456
sS'w+1=he'
p447
I2124
sS'w-2=two'
p448
I5111
sS'w+2=all'
p449
I2739
sS'amod=fatal'
p450
I165
sS'w-1=over'
p451
I4074
sS'amod=yeranian'
p452
I289
sS'ccomp=crash'
p453
I397
sS'w+2=fictitious'
p454
I2972
sS'conj=open'
p455
I677
sS'appos=rating'
p456
I311
sS'w-2=contradict'
p457
I4697
sS'amod=six-page'
p458
I263
sS'nsubj=GlaxoSmithKline'
p459
I1286
sS'nn=Mitchell'
p460
I1058
sS'nn=earnings'
p461
I1144
sS'ccomp=commute'
p462
I388
sS'w+1=mirror'
p463
I2179
sS'w+2=organizer'
p464
I3198
sS'w-2=palestinian'
p465
I4941
sS'w+1=through'
p466
I2318
sS'w-1=Lang'
p467
I3667
sS'det=some'
p468
I830
sS'poss=secretary-general'
p469
I1773
sS'ccomp=loot'
p470
I494
sS'w+2=because'
p471
I2785
sS'w+2=criticism'
p472
I2873
sS'nn=entertainment'
p473
I1147
sS'advmod=most'
p474
I88
sS'w-2=Casey'
p475
I4295
sS'nn=progress'
p476
I1177
sS'w-1=next'
p477
I4050
sS'ccomp=limit'
p478
I491
sS'w-2=of'
p479
I4921
sS'ccomp=round'
p480
I552
sS'nsubj=Bobb'
p481
I1232
sS'amod=credible'
p482
I146
sS'ccomp=make'
p483
I496
sS'dobj=feeling'
p484
I875
sS'w+2=kenyan'
p485
I3088
sS'ccomp=skeptical'
p486
I568
sS'w+1=confirm'
p487
I2041
sS'w-1=CIA'
p488
I3571
sS'rcmod=visit'
p489
I1887
sS'nn=International'
p490
I1040
sS'nn=market'
p491
I1164
sS'partmod=call'
p492
I1697
sS'w+2=percent'
p493
I3215
sS'xcomp=prepare'
p494
I5222
sS'w+1=draw'
p495
I2075
sS'w+2=UNICEF'
p496
I2697
sS'amod=scathing'
p497
I252
sS'w-2=highly'
p498
I4811
sS'w-1=earlier'
p499
I3934
sS'w+2=unacceptable'
p500
I3437
sS'w+1=Friday'
p501
I1937
sS'w-2=News'
p502
I4458
sS'w-1=IAEA'
p503
I3639
sS'w+2=something'
p504
I3354
sS'nn=witness'
p505
I1203
sS'w-1=Children'
p506
I3576
sS'w+2=Uganda'
p507
I2698
sS'xcomp=do'
p508
I5181
sS'w+2=could'
p509
I2864
sS'rcmod=support'
p510
I1884
sS'w-2=Energy'
p511
I4338
sS'prep=despite'
p512
I1793
sS'w+2=Kim'
p513
I2557
sS'w-2=Rand'
p514
I4490
sS'w-2=Mr.'
p515
I4449
sS'w+1=progress'
p516
I2220
sS'w-1=release'
p517
I4115
sS'w-2=department'
p518
I4722
sS'conj=live'
p519
I670
sS'w+2=live'
p520
I3113
sS'w+1=see'
p521
I2259
sS'w-2=channel'
p522
I4673
sS'nn=unit'
p523
I1198
sS'partmod=mandate'
p524
I1720
sS'w+2=Ho'
p525
I2507
sS'ccomp=open'
p526
I506
sS'w+1=set'
p527
I2265
sS'dobj=company'
p528
I856
sS'w-1=team'
p529
I4172
sS'w-1=monthly'
p530
I4039
sS'w-1=gunman'
p531
I3973
sS'w+2=Russia'
p532
I2643
sS'w+2=hand'
p533
I3022
sS'w+2=iranian-american'
p534
I3077
sS'w+1=use'
p535
I2332
sS'amod=korean'
p536
I201
sS'w-1=Crocker'
p537
I3591
sS'w-2=retract'
p538
I5012
sS'nsubj=president'
p539
I1520
sS'w-1=Wales'
p540
I3806
sS'xcomp=stiffen'
p541
I5243
sS'w+1=ranking'
p542
I2232
sS'w+1=enrollment'
p543
I2090
sS'w-2=highly-anticipated'
p544
I4812
sS'w-1=job'
p545
I4008
sS'nn=Times'
p546
I1091
sS'w-2=Thailand'
p547
I4542
sS'poss=Organization'
p548
I1754
sS'nn=Majtenyi'
p549
I1050
sS'w-1=consistent'
p550
I3898
sS'w-1=say'
p551
I4125
sS'nsubjpass=Waxman'
p552
I1578
sS'w+2=follow'
p553
I2986
sS'w-2=discourage'
p554
I4730
sS'w+2=poor'
p555
I3230
sS'w+2=calculate'
p556
I2806
sS'nsubj=researcher'
p557
I1528
sS'w-1=initial'
p558
I3992
sS'nsubj=Schearf'
p559
I1385
sS'nn=IMF'
p560
I1034
sS'nsubjpass=majority'
p561
I1630
sS'w+2=decline'
p562
I2887
sS'ccomp=remove'
p563
I540
sS'dep=gross'
p564
I769
sS'w+2=New'
p565
I2603
sS'w-2=from'
p566
I4793
sS'w+2=-'
p567
I2356
sS'w-2=central'
p568
I4671
sS'w+2=tie'
p569
I3408
sS'ccomp=push'
p570
I525
sS'nsubj=census'
p571
I1447
sS'w+2=show'
p572
I3336
sS'advcl=attack'
p573
I9
sS'w-1=15th'
p574
I3511
sS'ccomp=claim'
p575
I379
sS'w-2=those'
p576
I5092
sS'w+2=indicate'
p577
I3059
sS'w-2=accompany'
p578
I4578
sS'w-2=Jeff'
p579
I4397
sS'dobj=quote'
p580
I925
sS'w-1=draft'
p581
I3931
sS'advcl=among'
p582
I6
sS'w+2=Israel'
p583
I2529
sS'w-1=Conflict'
p584
I3585
sS'w-2=arm'
p585
I4620
sS'w+2=public'
p586
I3260
sS'w-2=Mail'
p587
I4432
sS'nsubj=Thornycroft'
p588
I1408
sS'w-1=I'
p589
I3638
sS'ccomp=step'
p590
I576
sS'nn=army'
p591
I1124
sS'w-2=soldier'
p592
I5050
sS'w+2=al-qaida'
p593
I2737
sS'w-1=observer'
p594
I4058
sS'w+1=credit'
p595
I2048
sS'ccomp=suspect'
p596
I582
sS'amod=excellent'
p597
I162
sS'nn=Thornycroft'
p598
I1090
sS'w-1=schearf'
p599
I4128
sS'w+1=express'
p600
I2097
sS'w-1=eyewitness'
p601
I3945
sS'w-2=Maritime'
p602
I4439
sS'w-2=agent'
p603
I4593
sS'w-1=supportersare'
p604
I4168
sS'w-2=confirm'
p605
I4692
sS'w-1=vague'
p606
I4203
sS'w-2=so-called'
p607
I5049
sS'nn=emergency'
p608
I1145
sS'w+1=brisk'
p609
I2012
sS'dep=hold'
p610
I776
sS'nsubj=commission'
p611
I1453
sS'w-1=ground'
p612
I3969
sS'appos=tribute'
p613
I317
sS'ccomp=infected'
p614
I476
sS'w-1=fact-checking'
p615
I3946
sS'w-1=numerous'
p616
I4056
sS'w+1=eat'
p617
I2083
sS'advcl=candidate'
p618
I15
sS'det=any'
p619
I826
sS'ccomp=announce'
p620
I348
sS'w+2=Khartoum'
p621
I2553
sS'amod=flawed'
p622
I173
sS'conj=bird'
p623
I627
sS'w-1=26'
p624
I3520
sS'nsubj=Xinhua'
p625
I1429
sS'w-2=mainly'
p626
I4879
sS'w-1=Sawyer'
p627
I3749
sS'w+2=along'
p628
I2745
sS'w-2=Winograd'
p629
I4568
sS'w-1=interim'
p630
I3996
sS'nsubj=Addington'
p631
I1208
sS'w+2=duty'
p632
I2927
sS'w+2=Congress'
p633
I2466
sS'w+2=Rawalpindi'
p634
I2633
sS'w-2=Esfandiari'
p635
I4340
sS'w-2=mil'
p636
I4893
sS'w-2=space'
p637
I5054
sS'ccomp=incentive'
p638
I471
sS'nsubj=confidence'
p639
I1459
sS'w-2=prevent'
p640
I4969
sS'w+1=each'
p641
I2079
sS'w-1=Agency'
p642
I3534
sS'nsubj=military'
p643
I1498
sS'advmod=far'
p644
I71
sS'rcmod=publish'
p645
I1869
sS'w+2=high'
p646
I3030
sS'nn=Office'
p647
I1066
sS'nn=dorianjone'
p648
I1142
sS'w-1=Popiolkowski'
p649
I3723
sS'w-2=Jerusalem'
p650
I4398
sS'w+2=topic'
p651
I3416
sS'w-2=civilian'
p652
I4678
sS'nsubj=Nigeria'
p653
I1353
sS'rcmod=have'
p654
I1847
sS'rcmod=learn'
p655
I1858
sS'amod=admiral'
p656
I124
sS'rcmod=plan'
p657
I1866
sS'w+2=tourism'
p658
I3418
sS'ccomp=file'
p659
I438
sS'w-1=Bryant'
p660
I3565
sS'nn=violence'
p661
I1200
sS'nsubj=e-newsletter'
p662
I1472
sS'parataxis=wait'
p663
I1688
sS'xcomp=alive'
p664
I5160
sS'w-1=defense'
p665
I3914
sS'w+1=meeting'
p666
I2176
sS'w+1=sign'
p667
I2273
sS'rcmod=play'
p668
I1867
sS'nsubj=Barber'
p669
I1221
sS'nsubj=University'
p670
I1417
sS'w-1=Simpson'
p671
I3764
sS'predet=all'
p672
I1776
sS'w+2=casualty'
p673
I2813
sS'w+2=contest'
p674
I2855
sS'w-2=usual'
p675
I5118
sS'w+1=show'
p676
I2271
sS'w+2=prisoner'
p677
I3248
sS'w-1=Tate'
p678
I3777
sS'w-2=amnesty'
p679
I4608
sS'w-2=Uma'
p680
I4559
sS'nn=update'
p681
I1199
sS'nsubj=Heilmann'
p682
I1293
sS'w-2=Carter'
p683
I4294
sS'w+2=Terre'
p684
I2682
sS'nn=Sisco'
p685
I1084
sS'w-2=Karen'
p686
I4408
sS'amod=who-commissioned'
p687
I286
sS'w-1=cable'
p688
I3871
sS'w-2=Cindy'
p689
I4303
sS'w-2=recede'
p690
I4993
sS'w+2=plan'
p691
I3222
sS'w-2=denounce'
p692
I4720
sS'w-2=Carmen'
p693
I4290
sS'dep=consider'
p694
I753
sS'w+2=skyrocket'
p695
I3344
sS'ccomp=threaten'
p696
I588
sS'w-1=Federation'
p697
I3609
sS'w-2=Information'
p698
I4388
sS'rcmod=come'
p699
I1830
sS'w-2=its'
p700
I4851
sS'w+2=Aro'
p701
I2421
sS'w+2=Afghan'
p702
I2411
sS'ccomp=present'
p703
I519
sS'w-1=Administration'
p704
I3532
sS'w+1=highlight'
p705
I2130
sS'w-2=aside'
p706
I4624
sS'w-2=Machrine'
p707
I4430
sS'w-1=Teeple'
p708
I3778
sS'w-1=amputee'
p709
I3841
sS'w+1=between'
p710
I2005
sS'nsubj=general'
p711
I1477
sS'w+2=local'
p712
I3114
sS'nn=handover'
p713
I1154
sS'ccomp=reminder'
p714
I539
sS'w+2=speak'
p715
I3360
sS'w-1=Worth'
p716
I3816
sS'w+2=Petraeus'
p717
I2623
sS'partmod=speculate'
p718
I1733
sS'conj=#NUMBER#'
p719
I612
sS'ccomp=result'
p720
I547
sS'ccomp=oppose'
p721
I507
sS'w-2=expect'
p722
I4761
sS'w+1=address'
p723
I1971
sS'w-2=detainee'
p724
I4726
sS'mark=while'
p725
I980
sS'parataxis=complain'
p726
I1682
sS'amod=new'
p727
I220
sS'xcomp=part'
p728
I5216
sS'w-2=secretary-general'
p729
I5030
sS'nsubj=area'
p730
I1437
sS'w-1=damning'
p731
I3912
sS'w-1=medical'
p732
I4030
sS'advmod=publicly'
p733
I104
sS'w+2=Mahalla'
p734
I2576
sS'w-2=Alpha'
p735
I4256
sS'w+2=Kosovo'
p736
I2563
sS'w-2=Arabia'
p737
I4268
sS'ccomp=believe'
p738
I363
sS'w-2=Trish'
p739
I4551
sS'w+2=Christmas'
p740
I2462
sS'w+1=author'
p741
I1996
sS'w-2=Sates'
p742
I4509
sS'w+1=Mario'
p743
I1943
sS'w+2=new'
p744
I3167
sS'xcomp=send'
p745
I5236
sS'w-2=korean'
p746
I4861
sS'w+2=Kaufman'
p747
I2550
sS'w-2=area'
p748
I4619
sS'w+2=fruit'
p749
I2998
sS'w+2=Hanoi'
p750
I2504
sS'w-1=abuse'
p751
I3824
sS'advcl=watch'
p752
I48
sS'w-2=patient'
p753
I4947
sS'w+2=180'
p754
I2372
sS'w+1=artillery'
p755
I1989
sS'cc=or'
p756
I333
sS'w+2=once'
p757
I3190
sS'w+2=u.s.-based'
p758
I3434
sS'w+2=military'
p759
I3141
sS'nsubj=community'
p760
I1455
sS'ccomp=chance'
p761
I376
sS'w-2=Bill'
p762
I4283
sS'w+1=clearly'
p763
I2030
sS'w-2=still'
p764
I5063
sS'w+2=ready'
p765
I3276
sS'w+2=contain'
p766
I2854
sS'advmod=carefully'
p767
I61
sS'w+2=Defense'
p768
I2475
sS'xcomp=Rajapaksa'
p769
I5156
sS'w-2=journalist'
p770
I4854
sS'w+2=receive'
p771
I3278
sS'w-2=number'
p772
I4920
sS'w-1=federal'
p773
I3949
sS'w-2=Policy'
p774
I4485
sS'w-2=trip'
p775
I5102
sS'w-2=dismiss'
p776
I4732
sS'w-2=Ceasefire'
p777
I4298
sS'w-1=she'
p778
I4143
sS'w+2=suicide'
p779
I3381
sS'w-1=two-volume'
p780
I4192
sS'w-1=arcega'
p781
I3848
sS'w+2=analyze'
p782
I2752
sS'w-2=before'
p783
I4641
sS'w-2=read'
p784
I4990
sS'rcmod=inflame'
p785
I1854
sS'w-2=Estimate'
p786
I4341
sS'w+2=Ouagadougou'
p787
I2616
sS'w-1=provisional'
p788
I4101
sS'w-2=Steve'
p789
I4529
sS'nn=international'
p790
I1160
sS'advmod=since'
p791
I110
sS'amod=unprecedented'
p792
I278
sS'w+2=revaluation'
p793
I3299
sS'rcmod=offer'
p794
I1862
sS'w-1=Latham'
p795
I3668
sS'w-1=talk'
p796
I4171
sS'w+2=rarely'
p797
I3271
sS'w+2=Cecilia'
p798
I2457
sS'w+2=abuse'
p799
I2717
sS'w+2=mount'
p800
I3153
sS'w+2=concession'
p801
I2843
sS'w+2=nearly'
p802
I3163
sS'nsubj=Administration'
p803
I1209
sS'w-2=Associated'
p804
I4273
sS'ccomp=shut'
p805
I566
sS'w-2=massively'
p806
I4887
sS'conj=undergo'
p807
I713
sS'dep=prepare'
p808
I797
sS'nsubj=Khan'
p809
I1315
sS'amod=other'
p810
I229
sS'w-1=113-page'
p811
I3507
sS'dep=limit'
p812
I785
sS'w+2=fighting'
p813
I2974
sS'w-1=administration'
p814
I3828
sS'w-2=talk'
p815
I5079
sS'w-2=detailed'
p816
I4725
sS'nsubj=Chislett'
p817
I1246
sS'ccomp=win'
p818
I605
sS'w+1=conclusion'
p819
I2038
sS'w+2=alarming'
p820
I2738
sS'w-2=Teri'
p821
I4539
sS'w-1=Tran'
p822
I3786
sS'amod=earlier'
p823
I156
sS'w+2=Nouakchott'
p824
I2610
sS'amod=few'
p825
I168
sS'w-2=specific'
p826
I5056
sS'w-1=Migiro'
p827
I3691
sS'nn=Medical'
p828
I1055
sS'conj=retract'
p829
I697
sS'w+1=Xu'
p830
I1964
sS'w+2=listing'
p831
I3111
sS'amod=comprehensive'
p832
I138
sS'nsubj=carmaker'
p833
I1446
sS'nn=Committee'
p834
I1010
sS'nn=group'
p835
I1153
sS'conj=option'
p836
I678
sS'ccomp=skyrocket'
p837
I569
sS'w+1=severe'
p838
I2267
sS'advmod=widely'
p839
I120
sS'w-2=broadcast'
p840
I4654
sS'mark=although'
p841
I971
sS'w-2=curfew'
p842
I4702
sS'ccomp=report'
p843
I542
sS'w+1=ElBaradei'
p844
I1936
sS'nsubj=Shryock'
p845
I1393
sS'w-2=investigate'
p846
I4843
sS'w+1=close'
p847
I2031
sS'w-2=we'
p848
I5134
sS'w-1=first-hand'
p849
I3954
sS'w-2=Waxman'
p850
I4564
sS'w-2=my'
p851
I4904
sS'rcmod=bring'
p852
I1826
sS'w-1=amid'
p853
I3840
sS'w+2=country'
p854
I2865
sS'w+2=bolster'
p855
I2793
sS'w+2=ask'
p856
I2772
sS'nsubj=Corben'
p857
I1257
sS'partmod=show'
p858
I1732
sS'advmod=why'
p859
I119
sS'dobj=end'
p860
I873
sS'w-2=have'
p861
I4806
sS'nsubj=MTV'
p862
I1327
sS'w+1=predict'
p863
I2217
sS'w+2=no'
p864
I3173
sS'parataxis=hand'
p865
I1683
sS'dobj=headquarters'
p866
I884
sS'w+2=demonstrate'
p867
I2892
sS'nsubj=amnesty'
p868
I1436
sS'w-1=115-page'
p869
I3508
sS'w-1=Wagner'
p870
I3805
sS'amod=bi-partisan'
p871
I133
sS'dobj=emergency'
p872
I872
sS'w+1=will'
p873
I2342
sS'nsubj=Hospital'
p874
I1299
sS'nn=landmark'
p875
I1163
sS'nsubjpass=progress'
p876
I1649
sS'ccomp=pull'
p877
I524
sS'w+1=cover'
p878
I2047
sS'w-1=Bangkok'
p879
I3546
sS'nsubjpass=state'
p880
I1666
sS'w-1=person'
p881
I4083
sS'w+2=Sao'
p882
I2649
sS'w+1=inflation'
p883
I2144
sS'w+2=Korea'
p884
I2562
sS'nsubjpass=abortion'
p885
I1580
sS'w+1=if'
p886
I2136
sS'w+2=matter'
p887
I3132
sS'w+2=Cyprus'
p888
I2470
sS'w+1=senior'
p889
I2262
sS'w-2=2006'
p890
I4236
sS'w+2=Georgia'
p891
I2499
sS'nsubj=Gallo'
p892
I1283
sS'rcmod=note'
p893
I1861
sS'w+1=in'
p894
I2139
sS'w+2=interview'
p895
I3071
sS'w+2=psychological'
p896
I3259
sS'advcl=conduct'
p897
I17
sS'rcmod=drop'
p898
I1837
sS'dobj=that'
p899
I947
sS'nsubj=nurse'
p900
I1505
sS'nsubj=#PRP#'
p901
I1206
sS'w-1=latest'
p902
I4016
sS'w+1=about'
p903
I1967
sS'w-2=memo'
p904
I4889
sS'w-2=independent'
p905
I4828
sS'w+2=major'
p906
I3123
sS'w-1=from'
p907
I3962
sS'w+1=forecast'
p908
I2108
sS'nsubj=Jenkins'
p909
I1310
sS'w+2=little'
p910
I3112
sS'nn=undp'
p911
I1196
sS'nn=job'
p912
I1162
sS'w-2=paper'
p913
I4942
sS'w-2=iom'
p914
I4846
sS'w+2=last'
p915
I3096
sS'nsubj=Reuters'
p916
I1372
sS'w+2=Molo'
p917
I2590
sS'w+2=get'
p918
I3007
sS'amod=israeli'
p919
I197
sS'w+2=UN'
p920
I2694
sS'advcl=cause'
p921
I16
sS'poss=#PRP#'
p922
I1744
sS'dobj=#NUMBER#'
p923
I837
sS'w+1=development'
p924
I2066
sS'nn=countdown'
p925
I1137
sS'w+2=allay'
p926
I2740
sS'w-2=Caroline'
p927
I4292
sS'w-1=several'
p928
I4142
sS'conj=intimidation'
p929
I661
sS'w+1=might'
p930
I2178
sS'xcomp=want'
p931
I5246
sS'nn=Yard'
p932
I1115
sS'w-2=increase'
p933
I4826
sS'w-1=army'
p934
I3850
sS'w-2=litany'
p935
I4873
sS'xcomp=hold'
p936
I5195
sS'ccomp=infect'
p937
I475
sS'nn=NIE'
p938
I1060
sS'w-2=mention'
p939
I4890
sS'nn=truth'
p940
I1194
sS'nsubj=Poll'
p941
I1363
sS'w+2=constitute'
p942
I2851
sS'amod=erroneous'
p943
I160
sS'w-2=violence'
p944
I5129
sS'nn=draft'
p945
I1143
sS'conj=infect'
p946
I656
sS"possessive='s"
p947
I1775
sS'w+2=violate'
p948
I3462
sS'w-2=like'
p949
I4871
sS'w+2=trend'
p950
I3425
sS'partmod=narrate'
p951
I1723
sS'xcomp=run'
p952
I5233
sS'w+2=drop'
p953
I2923
sS'nsubj=Achin'
p954
I1207
sS'w-2=Victoria'
p955
I4562
sS'w-2=furnish'
p956
I4794
sS'nsubj=school'
p957
I1533
sS'w-1=confidential'
p958
I3894
sS'nsubj=Presutti'
p959
I1367
sS'nsubj=Sawyer'
p960
I1384
sS'nsubj=Bouchard'
p961
I1234
sS'w-1=McNeill'
p962
I3685
sS'w-2=Benjamin'
p963
I4282
sS'advcl=discuss'
p964
I21
sS'w-1=group'
p965
I3970
sS'w-2=deadline'
p966
I4708
sS'xcomp=decline'
p967
I5175
sS'w+2=Srinagar'
p968
I2668
sS'w-2=merely'
p969
I4891
sS'w-2=into'
p970
I4841
sS'w-2=Minister'
p971
I4446
sS'nsubj=Bowman'
p972
I1235
sS'w-2=hard-liner'
p973
I4805
sS'w+1=basically'
p974
I1998
sS'w-1=delay'
p975
I3915
sS'w-1=damage'
p976
I3911
sS'mark=after'
p977
I970
sS'w+2=militant'
p978
I3140
sS'ccomp=hope'
p979
I466
sS'ccomp=measure'
p980
I497
sS'w+2=range'
p981
I3270
sS'w-1=Rights'
p982
I3737
sS'w+2=continued'
p983
I2857
sS'w-2=street'
p984
I5065
sS'w+1=greater'
p985
I2121
sS'w-1=Mogadishu'
p986
I3694
sS'w-1=month'
p987
I4038
sS'advmod=responsibly'
p988
I108
sS'w+2=300'
p989
I2386
sS'nn=UNICEF'
p990
I1102
sS'w+1=card'
p991
I2019
sS'dep=underweight'
p992
I819
sS'w-1=still-classified'
p993
I4160
sS'w-2=kind'
p994
I4858
sS'w+2=Somali'
p995
I2663
sS'w+1=co-author'
p996
I2032
sS'w+1=critically'
p997
I2052
sS'w+2=neighbor'
p998
I3165
sS'conj=restriction'
p999
I695
sS'conj=come'
p1000
I635
sS'w+1=strong'
p1001
I2290
sS'w+2=extra'
p1002
I2963
sS'w-2=first'
p1003
I4776
sS'infmod=deflect'
p1004
I965
sS'w-1=empowerment'
p1005
I3938
sS'w-2=school'
p1006
I5027
sS'prep=compare'
p1007
I1791
sS'w-1=NIE'
p1008
I3699
sS'w+1=reluctantly'
p1009
I2246
sS'w+2=airline'
p1010
I2734
sS'nsubj=Kohli'
p1011
I1319
sS'ccomp=resume'
p1012
I548
sS'nsubjpass=situation'
p1013
I1658
sS'ccomp=uproot'
p1014
I595
sS'w-2=more'
p1015
I4900
sS'w+2=unrealistic'
p1016
I3446
sS'w+1=Geo'
p1017
I1940
sS'nn=rights'
p1018
I1179
sS'w+2=John'
p1019
I2538
sS'w-2=Egypt'
p1020
I4335
sS'w-2=really'
p1021
I4991
sS'nsubj=Mercer'
p1022
I1339
sS'w+2=North'
p1023
I2609
sS'w-2=security'
p1024
I5031
sS'w-1=injury'
p1025
I3994
sS'w+2=visit'
p1026
I3466
sS'w+2=Samak'
p1027
I2647
sS'appos=Guinea-Bissau'
p1028
I294
sS'nsubj=athlete'
p1029
I1439
sS'w+2=inside'
p1030
I3063
sS'ccomp=provide'
p1031
I522
sS'w-1=ship'
p1032
I4144
sS'nn=Clark'
p1033
I1008
sS'w-1=resident'
p1034
I4119
sS'w-2=Reporting'
p1035
I4494
sS'w+2=May'
p1036
I2582
sS'dep=Atonement'
p1037
I724
sS'w-1=Gbenekama'
p1038
I3622
sS'w-2=White'
p1039
I4566
sS'w-2=Liberia'
p1040
I4424
sS'xcomp=slow'
p1041
I5239
sS'dep=talk'
p1042
I814
sS'w+2=maintenance'
p1043
I3122
sS'conj=pass'
p1044
I682
sS'w+2=Assistant'
p1045
I2424
sS'rcmod=suggest'
p1046
I1883
sS'w+2=inject'
p1047
I3061
sS'w-1=Togo'
p1048
I3784
sS'nsubj=chairman'
p1049
I1448
sS'w-2=Algerian'
p1050
I4254
sS'w-1=foundation'
p1051
I3959
sS'w+2=out'
p1052
I3201
sS'nn=weather'
p1053
I1201
sS'w-2=to'
p1054
I5096
sS'conj=record'
p1055
I691
sS'ccomp=double'
p1056
I422
sS'dep=be'
p1057
I738
sS'nsubj=governor'
p1058
I1479
sS'w-1=weather'
p1059
I4208
sS'nsubj=cable'
p1060
I1445
sS'w+1=11'
p1061
I1910
sS'xcomp=pay'
p1062
I5217
sS'w+2=drastic'
p1063
I2919
sS'w-1=Donnelly'
p1064
I3597
sS'w-2=2,000'
p1065
I4234
sS'w+1=17'
p1066
I1912
sS'w-1=scientific'
p1067
I4131
sS'w-2=Daniel'
p1068
I4320
sS'w+2=price'
p1069
I3247
sS'w-2=question'
p1070
I4985
sS'w+2=celebration'
p1071
I2815
sS'ccomp=rise'
p1072
I551
sS'w-2=one'
p1073
I4926
sS'nn=Telegraph'
p1074
I1089
sS'w+2=black'
p1075
I2790
sS'w-2=any'
p1076
I4617
sS'nsubj=statistics'
p1077
I1542
sS'ccomp=solve'
p1078
I571
sS'w+2=transfer'
p1079
I3422
sS'nsubj=W.H.O.'
p1080
I1419
sS'w+2=urban'
p1081
I3451
sS'amod=mere'
p1082
I214
sS'w+2=flooding'
p1083
I2984
sS'prep=since'
p1084
I1809
sS'w+1=dozen'
p1085
I2074
sS'poss=investigator'
p1086
I1769
sS'w+1=begin'
p1087
I2002
sS'w-2=spread'
p1088
I5057
sS'w+1=business'
p1089
I2014
sS'w-2=Roger'
p1090
I4499
sS'w-2=call'
p1091
I4659
sS'w-2=internal'
p1092
I4839
sS'w+1=argue'
p1093
I1987
sS'w-2=Suzanne'
p1094
I4532
sS'w-1=Union'
p1095
I3797
sS'w+2=Seguela'
p1096
I2654
sS'w+2=UNHCR'
p1097
I2696
sS'nsubj=Brothers'
p1098
I1236
sS'w+1=throw'
p1099
I2320
sS'w-2=player'
p1100
I4956
sS'conj=evidence'
p1101
I646
sS'w-1=courtroom'
p1102
I3905
sS'w-1=hospital'
p1103
I3980
sS'w+2=Proceedings'
p1104
I2629
sS'nsubj=Comiteau'
p1105
I1251
sS'w-1=annual'
p1106
I3845
sS'ccomp=conclude'
p1107
I390
sS'nn=mission'
p1108
I1167
sS'nsubj=Farris'
p1109
I1273
sS'w+2=fall'
p1110
I2966
sS'nn=Media'
p1111
I1054
sS'w-2=angrily'
p1112
I4612
sS'amod=annual'
p1113
I127
sS'nsubj=hospital'
p1114
I1483
sS'w+2=18'
p1115
I2371
sS'w+1=talk'
p1116
I2304
sS'dep=once'
p1117
I795
sS'w-1=third'
p1118
I4180
sS'w-1=widespread'
p1119
I4215
sS'rcmod=urge'
p1120
I1886
sS'w+2=10'
p1121
I2360
sS'w+2=12'
p1122
I2364
sS'w-2=Catherine'
p1123
I4296
sS'w-1=Kohli'
p1124
I3665
sS'w-2=New'
p1125
I4457
sS'w+2=disappear'
p1126
I2905
sS'w+2=Goma'
p1127
I2500
sS'w-2=Amberin'
p1128
I4259
sS'w-2=policeman'
p1129
I4959
sS'w-1=quarterly'
p1130
I4103
sS'dep=that'
p1131
I815
sS'advmod=soon'
p1132
I113
sS'advcl=specify'
p1133
I42
sS'nsubj=Rosenfeld'
p1134
I1379
sS'amod=on-scene'
p1135
I226
sS'amod=nine-page'
p1136
I223
sS'w+2=read'
p1137
I3275
sS'w-1=security'
p1138
I4136
sS'xcomp=kill'
p1139
I5202
sS'w-2=other'
p1140
I4933
sS'w-2=u.s'
p1141
I5112
sS'w+1=serbian'
p1142
I2263
sS'dobj=decline'
p1143
I862
sS'w+1=live'
p1144
I2164
sS'w-2=worker'
p1145
I5150
sS'conj=remain'
p1146
I693
sS'amod=last'
p1147
I203
sS'w+2=government'
p1148
I3010
sS'w-1=then'
p1149
I4176
sS'w-2=alarm'
p1150
I4598
sS'w-2=hundred'
p1151
I4820
sS'dobj=those'
p1152
I948
sS'nsubj=Interpol'
p1153
I1306
sS'w-2=Phil'
p1154
I4481
sS'nsubj=Times'
p1155
I1409
sS'nsubj=scientist'
p1156
I1534
sS'w-1=reconciliation'
p1157
I4112
sS"nn=Ma'ariv"
p1158
I1049
sS'w+2=kalenjin'
p1159
I3087
sS'w-1=Delta'
p1160
I3595
sS'w-1=Schearf'
p1161
I3750
sS'w-1=Reader'
p1162
I3731
sS'nsubj=Program'
p1163
I1368
sS'w-2=he'
p1164
I4807
sS'ccomp=engage'
p1165
I429
sS'w-2=Jordan'
p1166
I4402
sS'w+2=rise'
p1167
I3302
sS'poss=administration'
p1168
I1764
sS'w-2=co-chair'
p1169
I4681
sS'w+1=pay'
p1170
I2209
sS'w+2=trace'
p1171
I3420
sS'nn=Lang'
p1172
I1047
sS'ccomp=submerge'
p1173
I578
sS'w-1=little'
p1174
I4019
sS'w-2=outbreak'
p1175
I4934
sS'w-1=discount'
p1176
I3923
sS'w+1=burn'
p1177
I2013
sS'w+2=warn'
p1178
I3475
sS'amod=daily'
p1179
I149
sS'w+1=Monday'
p1180
I1945
sS'w+2=chief'
p1181
I2820
sS'nsubj=Byrd'
p1182
I1240
sS'w-1=panel'
p1183
I4076
sS'w+2=surface'
p1184
I3384
sS'w-1=Graitcer'
p1185
I3627
sS'w+2=just'
p1186
I3086
sS'w+2=urge'
p1187
I3452
sS'w+1=which'
p1188
I2341
sS'w-2=Ricci'
p1189
I4496
sS'w-2=Food'
p1190
I4349
sS'w-1=civilian'
p1191
I3882
sS'w-1=Society'
p1192
I3768
sS'amod=several'
p1193
I260
sS'amod=third'
p1194
I271
sS'w-2=Al-Arabiya'
p1195
I4252
sS'w+2=Nairobi'
p1196
I2602
sS'w+2=Bangladeshi'
p1197
I2436
sS'prep=after'
p1198
I1780
sS'nsubjpass=civilian'
p1199
I1598
sS'w+2=situation'
p1200
I3343
sS'w-1=scientist'
p1201
I4132
sS'w-2=Thibault'
p1202
I4543
sS'w+2=raise'
p1203
I3269
sS'dobj=policy'
p1204
I919
sS'w+2=recommendation'
p1205
I3281
sS'nsubj=Elash'
p1206
I1269
sS'w-2=some'
p1207
I5051
sS'w+2=mention'
p1208
I3136
sS'w-1=Monde'
p1209
I3696
sS'w+2=identify'
p1210
I3046
sS'w+2=study'
p1211
I3374
sS'partmod=argue'
p1212
I1692
sS'nn=road'
p1213
I1180
sS'w+2=Rangoon'
p1214
I2632
sS'w-2=dozen'
p1215
I4743
sS'w-1=congressional'
p1216
I3897
sS'partmod=mark'
p1217
I1721
sS'dep=believe'
p1218
I739
sS'w-2=compile'
p1219
I4688
sS'dep=send'
p1220
I807
sS'w+2=will'
p1221
I3490
sS'cc=well'
p1222
I334
sS'w-2=although'
p1223
I4604
sS'ccomp=arrive'
p1224
I353
sS'w-2=refugee'
p1225
I4997
sS'w-1=daily'
p1226
I3910
sS'w+2=Abuja'
p1227
I2407
sS'advmod=now'
p1228
I94
sS'w-2=Kamchatka'
p1229
I4406
sS'partmod=prepare'
p1230
I1724
sS'w+2=global'
p1231
I3008
sS'w-2=turkish'
p1232
I5108
sS'w-1=Ho'
p1233
I3636
sS'amod=foreign'
p1234
I174
sS'w+2=certainly'
p1235
I2817
sS'ccomp=capture'
p1236
I371
sS'w-1=Rivers'
p1237
I3739
sS'w-2=result'
p1238
I5011
sS'w-2=aftermath'
p1239
I4589
sS'ccomp=monitor'
p1240
I500
sS'w-1=archive'
p1241
I3849
sS'w-1=all'
p1242
I3836
sS'w+2=capture'
p1243
I2810
sS'w-1=first'
p1244
I3953
sS'w-1=Thibodeaux'
p1245
I3780
sS'w-1=Abuja'
p1246
I3529
sS'xcomp=frequent'
p1247
I5191
sS'w+2=Johnston'
p1248
I2539
sS'w+2=transnational'
p1249
I3423
sS'prep=base'
p1250
I1787
sS'w+2=other'
p1251
I3199
sS'nsubjpass=Siemens'
p1252
I1576
sS'nn=police'
p1253
I1173
sS'amod=consistent'
p1254
I143
sS'w+2=alternate'
p1255
I2748
sS'w+2=Guantanamo'
p1256
I2501
sS'w-2=bar'
p1257
I4637
sS'nn=companion'
p1258
I1134
sS'w+1=before'
p1259
I2001
sS'w-1=incident'
p1260
I3987
sS'w+2=town'
p1261
I3419
sS'ccomp=describe'
p1262
I409
sS'dobj=al-qaida'
p1263
I843
sS'w+2=cattle'
p1264
I2814
sS'w+2=100'
p1265
I2362
sS'advcl=expect'
p1266
I25
sS'w+2=Refugees'
p1267
I2634
sS'ccomp=suffer'
p1268
I579
sS'w-1=displaced'
p1269
I3926
sS'ccomp=disappear'
p1270
I415
sS'nn=policy'
p1271
I1174
sS'nsubjpass=agreement'
p1272
I1581
sS'w-2=Greece'
p1273
I4363
sS'w+1=new'
p1274
I2189
sS'w-2=ecuadorian'
p1275
I4751
sS'w-1=prevent'
p1276
I4093
sS'w+1=back'
p1277
I1997
sS'w-2=car'
p1278
I4663
sS'w+1=significant'
p1279
I2274
sS'w+2=somali'
p1280
I3352
sS'w+1=ease'
p1281
I2082
sS'nsubj=Watch'
p1282
I1422
sS'w-2=give'
p1283
I4800
sS'w+2=Tokyo'
p1284
I2687
sS'nsubjpass=israeli'
p1285
I1626
sS'dep=kill'
p1286
I782
sS'w-1=Rueda'
p1287
I3744
sS'dobj=rainfall'
p1288
I926
sS'w-1=GM'
p1289
I3619
sS'dobj=camp'
p1290
I850
sS'nsubj=Post'
p1291
I1365
sS'w+2=traveler'
p1292
I3424
sS'neg=not'
p1293
I983
sS'w+2=Interpol'
p1294
I2522
sS'w-1=Committee'
p1295
I3584
sS'w+2=long'
p1296
I3117
sS'nsubj=Fedynsky'
p1297
I1276
sS'nsubj=Initiative'
p1298
I1303
sS'poss=Institution'
p1299
I1753
sS'w+1=do'
p1300
I2070
sS'w-1=Bickers'
p1301
I3553
sS'ccomp=drag'
p1302
I425
sS'w-2=Tripoli'
p1303
I4550
sS'w+2=Junction'
p1304
I2541
sS'conj=visit'
p1305
I714
sS'w+2=h1n1'
p1306
I3020
sS'w+1=commend'
p1307
I2034
sS'nsubjpass=fighting'
p1308
I1614
sS'nn=FAO'
p1309
I1021
sS'w+2=however'
p1310
I3041
sS'w-1=Kenya'
p1311
I3660
sS'nn=post-mortem'
p1312
I1175
sS'nsubjpass=death'
p1313
I1605
sS'poss=Amano'
p1314
I1745
sS'w+1=early'
p1315
I2081
sS'w-2=federal'
p1316
I4769
sS'w+1=hundred'
p1317
I2134
sS'w+2=especially'
p1318
I2948
sS'w-1=must'
p1319
I4041
sS'w+2=Beckham'
p1320
I2437
sS'w+2=result'
p1321
I3298
sS'w+2=Somaliland'
p1322
I2665
sS'w-1=Gollust'
p1323
I3624
sS'nsubj=Service'
p1324
I1390
sS'w+2=business'
p1325
I2803
sS'w-2=cholera'
p1326
I4675
sS'w-2=private'
p1327
I4971
sS'conj=widespread'
p1328
I717
sS'w-2=turnout'
p1329
I5109
sS'nsubjpass=China'
p1330
I1567
sS'ccomp=investigate'
p1331
I480
sS'w+2=ministry'
p1332
I3144
sS'rcmod=look'
p1333
I1859
sS'w-2=Institution'
p1334
I4389
sS'w+1=what'
p1335
I2339
sS'amod=arcega'
p1336
I128
sS'w+1=strongly'
p1337
I2291
sS'w+2=element'
p1338
I2938
sS'w+2=adjacent'
p1339
I2726
sS'w-1=refugee'
p1340
I4113
sS'dep=this'
p1341
I816
sS'nn=Payne'
p1342
I1073
sS'w-2=enrage'
p1343
I4756
sS'w+2=premise'
p1344
I3238
sS'w+2=Bensonville'
p1345
I2441
sS'w-2=arrest'
p1346
I4621
sS'w+1=earlier'
p1347
I2080
sS'nn=Sciences'
p1348
I1082
sS'w+1=generally'
p1349
I2117
sS'partmod=complete'
p1350
I1700
sS'w-1=Iceland'
p1351
I3644
sS'w-1=migrant'
p1352
I4032
sS'w+1=responsibly'
p1353
I2249
sS'w+2=import'
p1354
I3050
sS'nsubj=Thibodeaux'
p1355
I1407
sS'w-2=Robert'
p1356
I4498
sS'w-1=Association'
p1357
I3542
sS'w-1=Institute'
p1358
I3649
sS'w+2=Liberia'
p1359
I2569
sS'w-2=road'
p1360
I5018
sS'nn=CSIRO'
p1361
I1005
sS'w+2=next'
p1362
I3170
sS'nsubj=Kollock'
p1363
I1320
sS'nn=News'
p1364
I1062
sS'w-2=reporter'
p1365
I5005
sS'w+2=Paris'
p1366
I2619
sS'w+2=corruption'
p1367
I2862
sS'w+2=mark'
p1368
I3129
sS'conj=lack'
p1369
I667
sS'w+1=Prime'
p1370
I1952
sS'nsubj=Asharqalawsat'
p1371
I1214
sS'w-2=Heart'
p1372
I4369
sS'w+2=Deputy'
p1373
I2477
sS'w-1=already'
p1374
I3837
sS'parataxis=reflect'
p1375
I1685
sS'nsubj=Khartoum'
p1376
I1316
sS'w-1=driver'
p1377
I3932
sS'ccomp=share'
p1378
I561
sS'dobj=pressure'
p1379
I921
sS'nn=Gul'
p1380
I1029
sS'ccomp=abducted'
p1381
I336
sS'ccomp=fire'
p1382
I440
sS'det=all'
p1383
I824
sS'amod=mandatory'
p1384
I211
sS'conj=alive'
p1385
I620
sS'w+2=south'
p1386
I3356
sS'w+2=european'
p1387
I2951
sS'w+1=on'
p1388
I2196
sS'ccomp=return'
p1389
I549
sS'w+1=support'
p1390
I2299
sS'nsubj=many'
p1391
I1495
sS'w-2=wise'
p1392
I5147
sS'w-2=Nico'
p1393
I4461
sS'w+1=blast'
p1394
I2008
sS'w+1=send'
p1395
I2261
sS'nsubj=doctor'
p1396
I1468
sS'w+1=that'
p1397
I2308
sS'w+2=observer'
p1398
I3182
sS'w-2=Naomi'
p1399
I4453
sS'w+2=empty'
p1400
I2942
sS'amod=anecdotal'
p1401
I126
sS'nsubj=Ardayeva'
p1402
I1213
sS'w-2=interim'
p1403
I4838
sS'ccomp=sponsor'
p1404
I574
sS'w-1=402'
p1405
I3522
sS'advmod=periodically'
p1406
I100
sS'nsubj=LaDeau'
p1407
I1321
sS'appos=forum'
p1408
I306
sS'w+2=Karachi'
p1409
I2547
sS'w-1=Martig'
p1410
I3683
sS'w+2=base'
p1411
I2783
sS'conj=due'
p1412
I645
sS'w+2=express'
p1413
I2962
sS'w+2=Miami'
p1414
I2585
sS'w+1=consumer'
p1415
I2044
sS'w-1=violence'
p1416
I4206
sS'ccomp=find'
p1417
I439
sS'ccomp=spark'
p1418
I572
sS'w-2=Cairo'
p1419
I4288
sS'w-2=than'
p1420
I5083
sS'w+2=movement'
p1421
I3154
sS'nn=Licadho'
p1422
I1048
sS'w+2=affect'
p1423
I2727
sS'advmod=so'
p1424
I111
sS'w+1=26'
p1425
I1917
sS'w+2=namely'
p1426
I3159
sS'nsubj=study'
p1427
I1543
sS'w-2=commander'
p1428
I4684
sS'advmod=just'
p1429
I81
sS'dobj=Kim'
p1430
I839
sS'cc=nor'
p1431
I332
sS'w+2=although'
p1432
I2749
sS'dobj=finances'
p1433
I877
sS'w+2=torture'
p1434
I3417
sS'w-2=public'
p1435
I4981
sS'nn=Winograd'
p1436
I1113
sS'w+1=gross'
p1437
I2122
sS'amod=so-called'
p1438
I265
sS'dobj=turnout'
p1439
I951
sS'infmod=release'
p1440
I969
sS'nsubjpass=palace'
p1441
I1644
sS'w-1=Hamann'
p1442
I3631
sS'amod=long-anticipated'
p1443
I208
sS'aux=may'
p1444
I323
sS'w+1=spiritual'
p1445
I2285
sS'ccomp=shed'
p1446
I563
sS'w-2=Delana'
p1447
I4323
sS'w+2=gender'
p1448
I3006
sS'w-2=receive'
p1449
I4994
sS'w-1=Bertel'
p1450
I3552
sS'xcomp=hand'
p1451
I5192
sS'w+1=Taliban'
p1452
I1956
sS'w+2=International'
p1453
I2521
sS'w-2=I'
p1454
I4382
sS'dep=improve'
p1455
I777
sS'advcl=drown'
p1456
I22
sS'nn=Pasricha'
p1457
I1072
sS'w-2=trouble'
p1458
I5104
sS'advcl=pull'
p1459
I35
sS'w+2=noose'
p1460
I3174
sS'w+2=bio-fuel'
p1461
I2788
sS'ccomp=create'
p1462
I398
sS'w+1=case'
p1463
I2021
sS'w+2=satellite'
p1464
I3309
sS'w-2=Henry'
p1465
I4371
sS'w-2=make'
p1466
I4881
sS'w+2=it'
p1467
I3083
sS'nn=afp'
p1468
I1119
sS'w-2=alive'
p1469
I4599
sS'ccomp=seem'
p1470
I558
sS'nsubj=leader'
p1471
I1492
sS'ccomp=seek'
p1472
I557
sS'w-2=as'
p1473
I4623
sS'w-2=cast'
p1474
I4666
sS'xcomp=play'
p1475
I5221
sS'w-2=man'
p1476
I4883
sS'w+1=just'
p1477
I2156
sS'w-1=Byrd'
p1478
I3569
sS'w-2=slow'
p1479
I5046
sS'nsubj=mission'
p1480
I1500
sS'w-1=nine-page'
p1481
I4051
sS'w+1=natural'
p1482
I2186
sS'w+1=extensively'
p1483
I2098
sS'dep=lead'
p1484
I783
sS'w+2=form'
p1485
I2993
sS'nsubj=Gul'
p1486
I1289
sS'w-2=Matt'
p1487
I4440
sS'rcmod=find'
p1488
I1842
sS'mark=unless'
p1489
I979
sS'w+2=Riyadh'
p1490
I2638
sS'w+2=Interior'
p1491
I2520
sS'w-1=gunfight'
p1492
I3972
sS'w-2=many'
p1493
I4885
sS'poss=E.U.'
p1494
I1751
sS'nn=Wekesa'
p1495
I1112
sS'w+2=nine'
p1496
I3172
sS'dep=contain'
p1497
I754
sS'w+2=first'
p1498
I2980
sS'nsubjpass=democrat'
p1499
I1606
sS'w+2=Church'
p1500
I2463
sS'amod=sexual'
p1501
I261
sS'w-2=fatal'
p1502
I4768
sS'w-2=Douglas'
p1503
I4329
sS'w-2=Network'
p1504
I4456
sS'w+2=foreign'
p1505
I2991
sS'w+2=slow'
p1506
I3345
sS'w+1=describe'
p1507
I2064
sS'dep=hang'
p1508
I770
sS'w-2=mexican'
p1509
I4892
sS'w-1=anjanapasricha'
p1510
I3844
sS'w+1=sighting'
p1511
I2272
sS'nsubj=Kilner'
p1512
I1317
sS'w-1=community'
p1513
I3888
sS'w+2=if'
p1514
I3047
sS'w+2=post-traumatic'
p1515
I3234
sS'w+1=mainly'
p1516
I2167
sS'w+2=substantive'
p1517
I3377
sS'w+2=-lrb-'
p1518
I2357
sS'ccomp=accuse'
p1519
I340
sS'w-1=internal'
p1520
I3998
sS'w+2=in'
p1521
I3053
sS'w+2=large'
p1522
I3095
sS'w+2=greatly'
p1523
I3015
sS'w+2=hoard'
p1524
I3036
sS'dobj=plot'
p1525
I918
sS'w-2=hope'
p1526
I4814
sS'dobj=statistics'
p1527
I943
sS'w-1=Castelfranco'
p1528
I3573
sS'w+2=find'
p1529
I2977
sS'amod=long-awaited'
p1530
I209
sS'w-1=Oxfam'
p1531
I3714
sS'w-1=media'
p1532
I4029
sS'conj=other'
p1533
I680
sS'ccomp=remain'
p1534
I538
sS'nn=Maphosa'
p1535
I1051
sS'prep=about'
p1536
I1777
sS'aux=can'
p1537
I319
sS'nn=au'
p1538
I1125
sS'w+2=San'
p1539
I2648
sS'nsubj=Crocker'
p1540
I1259
sS'w-1=Berger'
p1541
I3551
sS'w-1=Times'
p1542
I3782
sS'w-2=General'
p1543
I4355
sS'w-1=Mexico'
p1544
I3690
sS'dep=see'
p1545
I806
sS'w-1=Makino'
p1546
I3676
sS'w-2=Economic'
p1547
I4331
sS'ccomp=collude'
p1548
I384
sS'nn=Troeh'
p1549
I1094
sS'w-2=statement'
p1550
I5061
sS'w+1=within'
p1551
I2344
sS'w-1=despite'
p1552
I3919
sS'ccomp=expose'
p1553
I436
sS'conj=promise'
p1554
I686
sS'w+2=upset'
p1555
I3449
sS'nn=CIA'
p1556
I1004
sS'w+2=Stockholm'
p1557
I2672
sS'w-1=past'
p1558
I4078
sS'nsubj=Jacobs-Lorena'
p1559
I1308
sS'w-2=put'
p1560
I4984
sS'w-2=case'
p1561
I4665
sS'w-1=Burton'
p1562
I3568
sS'w+2=Bethesda'
p1563
I2442
sS'w-2=Measles'
p1564
I4443
sS'w+2=Muhazi'
p1565
I2597
sS'nsubj=observer'
p1566
I1506
sS'amod=atomic'
p1567
I129
sS'w+1=over'
p1568
I2207
sS'nn=Wolfson'
p1569
I1114
sS'amod=economic'
p1570
I158
sS'w+1=sharply'
p1571
I2268
sS'nn=tv'
p1572
I1195
sS'w+2=dozen'
p1573
I2917
sS'w+2=Mombasa'
p1574
I2591
sS'dep=throw'
p1575
I818
sS'w+1=for'
p1576
I2107
sS'nsubjpass=theft'
p1577
I1672
sS'w-1=initially'
p1578
I3993
sS'w-1=confirm'
p1579
I3895
sS'conj=wash'
p1580
I716
sS'w+2=point'
p1581
I3225
sS'w-1=often'
p1582
I4063
sS'conj=feast'
p1583
I648
sS'w-2=Labor'
p1584
I4419
sS'conj=abuse'
p1585
I615
sS'w-1=deny'
p1586
I3917
sS'nsubjpass=arrival'
p1587
I1583
sS'w-2=british'
p1588
I4653
sS'dep=cause'
p1589
I747
sS'w-1=global'
p1590
I3967
sS'w+2=those'
p1591
I3403
sS'w-2=recent'
p1592
I4995
sS'prep=to'
p1593
I1814
sS'w+2=Paul'
p1594
I2621
sS'w+1=narrate'
p1595
I2185
sS'w+2=193'
p1596
I2373
sS'nsubj=Berger'
p1597
I1225
sS'w+2=marriage'
p1598
I3130
sS'w-2=Iran'
p1599
I4390
sS'conj=jet'
p1600
I663
sS'w+2=financial'
p1601
I2976
sS'w+2=unemployment'
p1602
I3441
sS'w-2=intention'
p1603
I4836
sS'xcomp=land'
p1604
I5205
sS'conj=make'
p1605
I672
sS'w-1=still'
p1606
I4159
sS'advmod=north'
p1607
I92
sS'w-1=they'
p1608
I4179
sS'nn=Bouchard'
p1609
I999
sS'ccomp=seize'
p1610
I559
sS'w+2=increase'
p1611
I3058
sS'w-1=BBC'
p1612
I3544
sS'w+2=how'
p1613
I3040
sS'dobj=#DATE#'
p1614
I836
sS'w+2=crystal'
p1615
I2876
sS'w-2=labor'
p1616
I4862
sS'nsubjpass=proposal'
p1617
I1650
sS'ccomp=reopen'
p1618
I541
sS'w+2=for'
p1619
I2988
sS'conj=kill'
p1620
I666
sS'w+2=emission'
p1621
I2941
sS'nsubj=Schlein'
p1622
I1386
sS'w+1=prepare'
p1623
I2218
sS'dep=find'
p1624
I762
sS'dobj=whom'
p1625
I960
sS'w-1=six'
p1626
I4149
sS'w-1=such'
p1627
I4166
sS'amod=feature-type'
p1628
I166
sS'w-2=Amy'
p1629
I4261
sS'w+2=trade'
p1630
I3421
sS'dobj=attack'
p1631
I846
sS'w-2=face'
p1632
I4763
sS'w+2=miss'
p1633
I3146
sS'w+1=study'
p1634
I2292
sS'w+2=bird'
p1635
I2789
sS'dobj=which'
p1636
I958
sS'w+2=600'
p1637
I2398
sS'w+2=strictly'
p1638
I3373
sS'advmod=or'
p1639
I97
sS'w+2=we'
p1640
I3476
sS'w-2=indian'
p1641
I4829
sS'dobj=all'
p1642
I844
sS'w+2=rebel'
p1643
I3277
sS'w-1=Medical'
p1644
I3687
sS'w-2=admiral'
p1645
I4584
sS'w-2=several'
p1646
I5037
sS'ccomp=impound'
p1647
I469
sS'xcomp=threaten'
p1648
I5244
sS'w+1=list'
p1649
I2163
sS'w+1=project'
p1650
I2221
sS'advcl=mount'
p1651
I31
sS'w-2=-rrb-'
p1652
I4230
sS'w+2=Teheran'
p1653
I2680
sS'w-2=Cathy'
p1654
I4297
sS'amod=weekly'
p1655
I284
sS'w-2=Court'
p1656
I4309
sS'w-1=casualty'
p1657
I3877
sS'w+2=official'
p1658
I3188
sS'w-2=vaccine'
p1659
I5120
sS'dobj=crime'
p1660
I858
sS'w-2=trader'
p1661
I5099
sS'w-1=issue'
p1662
I4005
sS'w-2=present'
p1663
I4966
sS'conj=school'
p1664
I700
sS'w+2=breakthrough'
p1665
I2796
sS'w+1=single'
p1666
I2278
sS'w+2=attempt'
p1667
I2777
sS'w-2=Lauren'
p1668
I4421
sS'w+1=day'
p1669
I2056
sS'partmod=exaggerate'
p1670
I1708
sS'w-2=massive'
p1671
I4886
sS'w+1=maintain'
p1672
I2168
sS'w+2=act'
p1673
I2722
sS'advmod=though'
p1674
I116
sS'w-2=fine'
p1675
I4774
sS'advmod=rarely'
p1676
I106
sS'w+1=6,300'
p1677
I1924
sS'amod=televise'
p1678
I270
sS'w-1=Service'
p1679
I3760
sS'w-1=Affairs'
p1680
I3533
sS'w-2=Rory'
p1681
I4501
sS'ccomp=hard'
p1682
I454
sS'w-1=mere'
p1683
I4031
sS'w-1=dire'
p1684
I3922
sS'ccomp=hold'
p1685
I465
sS'w-2=17'
p1686
I4233
sS'w-2=13'
p1687
I4232
sS'w-2=claim'
p1688
I4679
sS'w-1=McCulloch'
p1689
I3684
sS'w+2=too'
p1690
I3414
sS'rcmod=import'
p1691
I1851
sS'nn=Pentagon'
p1692
I1074
sS'w+1=characterize'
p1693
I2025
sS'w-2=Ruth'
p1694
I4504
sS'w-2=Iraq'
p1695
I4391
sS'w-1=-lrb-'
p1696
I3504
sS'det=the'
p1697
I832
sS'w-1=in'
p1698
I3985
sS'w-2=business'
p1699
I4656
sS'w+1=sub-saharan'
p1700
I2293
sS'ccomp=lead'
p1701
I487
sS'w-1=Yemen'
p1702
I3818
sS'dobj=people'
p1703
I913
sS'w+2=ease'
p1704
I2931
sS'w+2=Chandigarh'
p1705
I2459
sS'ccomp=leak'
p1706
I489
sS'w+2=disrespect'
p1707
I2911
sS'w-1=International'
p1708
I3651
sS'nsubj=News'
p1709
I1352
sS'rel=in'
p1710
I1888
sS'w+2=draw'
p1711
I2920
sS'dobj=progress'
p1712
I924
sS'w+2=publish'
p1713
I3261
sS'advmod=meanwhile'
p1714
I86
sS'dobj=activity'
p1715
I842
sS'w-2=human'
p1716
I4818
sS'amod=questionable'
p1717
I244
sS'w-2=informant'
p1718
I4831
sS'w-1=Schlender'
p1719
I3752
sS'w-1=anecdotal'
p1720
I3843
sS'w-2=move'
p1721
I4903
sS'w+2=Saly'
p1722
I2646
sS'nsubjpass=child'
p1723
I1596
sS'w+1=people'
p1724
I2210
sS'w+2=EU'
p1725
I2479
sS'w-2=Chad'
p1726
I4301
sS'appos=Turner'
p1727
I299
sS'w+1=get'
p1728
I2118
sS'w+2=32-year-old'
p1729
I2388
sS'w+1=gay'
p1730
I2116
sS'w+2=schedule'
p1731
I3313
sS'w+2=Banda'
p1732
I2432
sS'ccomp=spread'
p1733
I575
sS'w+2=anger'
p1734
I2754
sS'w-1=Comiteau'
p1735
I3582
sS'nsubj=daily'
p1736
I1461
sS'w-1=should'
p1737
I4146
sS'dobj=breakthrough'
p1738
I848
sS'w-2=possibly'
p1739
I4961
sS'w+1=election-related'
p1740
I2085
sS'w+2=Seoul'
p1741
I2657
sS'w+2=usually'
p1742
I3455
sS'conj=angolan'
p1743
I623
sS'w+2=explosion'
p1744
I2961
sS'w+2=gun'
p1745
I3018
sS'w-2=american'
p1746
I4605
sS'rcmod=continue'
p1747
I1833
sS'w-1=Jallow'
p1748
I3653
sS'conj=recommendation'
p1749
I690
sS'w-1=Costa'
p1750
I3590
sS'w+1=encouraging'
p1751
I2089
sS'w+2=Thai'
p1752
I2683
sS'w+2=month'
p1753
I3149
sS'nsubj=informant'
p1754
I1487
sS'w+2=rights'
p1755
I3301
sS'w+1=woman'
p1756
I2345
sS'w+1=call'
p1757
I2018
sS'ccomp=tackle'
p1758
I584
sS'w-2=take'
p1759
I5078
sS'w+2=quickly'
p1760
I3264
sS'prep=over'
p1761
I1807
sS'w-1=15'
p1762
I3510
sS'w-2=respond'
p1763
I5009
sS'nn=Social'
p1764
I1085
sS'w+2=actually'
p1765
I2724
sS'w-2=Amnesty'
p1766
I4260
sS'w-1=airport'
p1767
I3835
sS'nsubj=town'
p1768
I1550
sS'conj=seek'
p1769
I702
sS'w-2=wisdom'
p1770
I5146
sS'w-1=similar'
p1771
I4147
sS'w+2=technology'
p1772
I3391
sS'w+2=pressure'
p1773
I3245
sS'advmod=possibly'
p1774
I101
sS'w+2=force'
p1775
I2989
sS'amod=two-volume'
p1776
I273
sS'w+2=produce'
p1777
I3251
sS'amod=still-classified'
p1778
I267
sS'w+2=measure'
p1779
I3134
sS'w+2=remote'
p1780
I3290
sS'w-2=border'
p1781
I4651
sS'w-1=recent'
p1782
I4110
sS'poss=Watch'
p1783
I1762
sS'xcomp=have'
p1784
I5193
sS'w-2=Dan'
p1785
I4319
sS'w-1=under'
p1786
I4195
sS'w+2=continue'
p1787
I2856
sS'nn=IFPRI'
p1788
I1033
sS'w+2=NATO'
p1789
I2600
sS'w-1=Suli'
p1790
I3772
sS'dep=headquarters'
p1791
I772
sS'w+2=acute'
p1792
I2725
sS'amod=disturbing'
p1793
I153
sS'w+2=fresh'
p1794
I2996
sS'w+2=save'
p1795
I3310
sS'ccomp=be'
p1796
I360
sS'amod=official'
p1797
I225
sS'w+2=42,000'
p1798
I2392
sS'nsubj=Federation'
p1799
I1275
sS'w+1=32'
p1800
I1919
sS'w-1=with'
p1801
I4218
sS'w-1=Fry'
p1802
I3616
sS'w-1=Troeh'
p1803
I3787
sS'w-1=previously'
p1804
I4095
sS'w+2=allegedly'
p1805
I2743
sS'w+2=Kabul'
p1806
I2543
sS'w+2=own'
p1807
I3207
sS'w-2=black'
p1808
I4649
sS'w-1=just-published'
p1809
I4011
sS'w-2=Hospital'
p1810
I4375
sS'w+2=unfounded'
p1811
I3443
sS'w-1=Kilner'
p1812
I3663
sS'poss=General'
p1813
I1752
sS'w+2=drive'
p1814
I2922
sS'nsubj=Organization'
p1815
I1358
sS'w+2=location'
p1816
I3115
sS'w+1=recuperating'
p1817
I2242
sS'advmod=alone'
p1818
I54
sS'dobj=spending'
p1819
I940
sS'partmod=miss'
p1820
I1722
sS'w-1=Migration'
p1821
I3692
sS'w-1=Reuters'
p1822
I3734
sS'w-1=long-awaited'
p1823
I4023
sS'nn=aid'
p1824
I1121
sS'w+1=interior'
p1825
I2147
sS'w-2=far'
p1826
I4766
sS'w+2=far'
p1827
I2968
sS'nsubjpass=one-third'
p1828
I1642
sS'partmod=release'
p1829
I1730
sS'w+2=talk'
p1830
I3389
sS'w+2=charity'
p1831
I2819
sS'w+2=London'
p1832
I2572
sS'w+2=Dakar'
p1833
I2471
sS'w-2=D.O.T.'
p1834
I4316
sS'nsubj=Ramiah'
p1835
I1369
sS'partmod=have'
p1836
I1711
sS'nsubj=Colombant'
p1837
I1250
sS'parataxis=say'
p1838
I1687
sS'w+2=accuse'
p1839
I2721
sS'w-2=Humanitarian'
p1840
I4379
sS'w-1=Intelligence'
p1841
I3650
sS'nsubj=Noh'
p1842
I1354
sS'w+2=while'
p1843
I3486
sS'w+2=various'
p1844
I3456
sS'w-1=turkish'
p1845
I4189
sS'w-1=countdown'
p1846
I3903
sS'w-1=fourth'
p1847
I3960
sS'w-2=require'
p1848
I5006
sS'conj=ally'
p1849
I622
sS'w+2=Pailin'
p1850
I2617
sS'nsubj=Byrne'
p1851
I1241
sS'w-1=commission'
p1852
I3886
sS'ccomp=affect'
p1853
I343
sS'w-1=one'
p1854
I4067
sS'w-2=Guttmacher'
p1855
I4364
sS'w+2=Commissioner'
p1856
I2465
sS'nsubj=Media'
p1857
I1337
sS'nsubj=TV'
p1858
I1403
sS'amod=complete'
p1859
I137
sS'w-1=Thornycroft'
p1860
I3781
sS'ccomp=havebeen'
p1861
I457
sS'rcmod=fly'
p1862
I1843
sS'w+1=hear'
p1863
I2126
sS'w-1=the'
p1864
I4175
sS'w-2=over'
p1865
I4936
sS'w-1=case'
p1866
I3876
sS'nn=Bank'
p1867
I994
sS'w-1=Department'
p1868
I3596
sS'w-1=feature-type'
p1869
I3948
sS'amod=quarterly'
p1870
I243
sS'w-1=Program'
p1871
I3729
sS'dobj=Lesotho'
p1872
I840
sS'w+2=Thursday'
p1873
I2685
sS'w-2=malaria'
p1874
I4882
sS'nsubjpass=soldier'
p1875
I1660
sS'ccomp=force'
p1876
I444
sS'w+2=preparation'
p1877
I3239
sS'nsubjpass=arrest'
p1878
I1582
sS'xcomp=donor'
p1879
I5182
sS'w+2=since'
p1880
I3342
sS'w-2=Taliban'
p1881
I4536
sS'nsubj=state'
p1882
I1540
sS'nsubj=Newhouse'
p1883
I1351
sS'w-1=summary'
p1884
I4167
sS'w+2=proof'
p1885
I3255
sS'appos=activist'
p1886
I300
sS'dobj=reporter'
p1887
I930
sS'w+2=radio'
p1888
I3266
sS'w+1=Paris'
p1889
I1950
sS'conj=be'
p1890
I625
sS'w+2=insurgent'
p1891
I3065
sS'w+1=publicly'
p1892
I2227
sS'conj=confer'
p1893
I638
sS'w-2=once'
p1894
I4925
sS'w-1=Melton'
p1895
I3688
sS'nsubj=Office'
p1896
I1357
sS'w-1=committee'
p1897
I3887
sS'w+2=question'
p1898
I3263
sS'xcomp=ill'
p1899
I5197
sS'w+2=crime'
p1900
I2868
sS'partmod=conduct'
p1901
I1701
sS'nsubj=Indicators'
p1902
I1302
sS'w-1=travel'
p1903
I4188
sS'w+2=walkout'
p1904
I3474
sS'w+2=Pokhara'
p1905
I2625
sS'w-1=comprehensive'
p1906
I3892
sS'w+2=Katherine'
p1907
I2548
sS'appos=Estimate'
p1908
I292
sS'w-2=none'
p1909
I4916
sS'dobj=capture'
p1910
I853
sS'w-2=Department'
p1911
I4325
sS'nn=Post'
p1912
I1076
sS'expl=there'
p1913
I962
sS'nsubjpass=slowdown'
p1914
I1659
sS'w+1=system'
p1915
I2302
sS'w+2=year'
p1916
I3496
sS'nsubj=Bos'
p1917
I1233
sS'dobj=success'
p1918
I945
sS'ccomp=reschedule'
p1919
I543
sS'w-1=Fell'
p1920
I3611
sS'w-1=UNESCAP'
p1921
I3792
sS'w-2=cause'
p1922
I4669
sS'w+2=emerge'
p1923
I2940
sS'w-1=periodic'
p1924
I4081
sS'w+2=Abyei'
p1925
I2408
sS'ccomp=ask'
p1926
I354
sS'amod=fourth'
p1927
I176
sS'ccomp=collaborate'
p1928
I383
sS'ccomp=high'
p1929
I460
sS'w-1=Ardayeva'
p1930
I3540
sS'w+2=Huambo'
p1931
I2511
sS'w-1=long-anticipated'
p1932
I4022
sS'poss=general'
p1933
I1767
sS'w+2=issue'
p1934
I3082
sS'conj=support'
p1935
I708
sS'w-2=Barbero'
p1936
I4279
sS'w-2=after'
p1937
I4588
sS'dep=people'
p1938
I796
sS'ccomp=inform'
p1939
I477
sS'w+1=to'
p1940
I2322
sS'nsubj=expert'
p1941
I1473
sS'nsubjpass=failure'
p1942
I1612
sS'amod=formal'
p1943
I175
sS'w-2=staff'
p1944
I5058
sS'w-2=Ambassador'
p1945
I4258
sS'ccomp=hit'
p1946
I464
sS'w-1=we'
p1947
I4207
sS'w+2=Hezbollah'
p1948
I2506
sS'w+2=he'
p1949
I3025
sS'w+1=claim'
p1950
I2029
sS'w-1=substantiate'
p1951
I4164
sS'w-2=Union'
p1952
I4560
sS'w-2=scare'
p1953
I5023
sS'w+1=tens-of-thousand'
p1954
I2307
sS'nsubj=Cavaliere'
p1955
I1244
sS'w+2=stabilize'
p1956
I3366
sS'w-1=Seck'
p1957
I3756
sS'w+2=Washington'
p1958
I2705
sS'appos=libertarian'
p1959
I308
sS'w-1=yeranian'
p1960
I4223
sS'ccomp=lose'
p1961
I495
sS'w+2=Waziri'
p1962
I2706
sS'w-1=Board'
p1963
I3559
sS'w+2=critic'
p1964
I2871
sS'w+2=Lagos'
p1965
I2567
sS'advcl=wait'
p1966
I46
sS'w+2=building'
p1967
I2800
sS'w+2=Sidney'
p1968
I2660
sS'w+2=California'
p1969
I2453
sS'w+1=include'
p1970
I2140
sS'nsubj=staff'
p1971
I1539
sS'w+2=occupancy'
p1972
I3183
sS'advmod=first'
p1973
I72
sS'w+2=congolese'
p1974
I2849
sS'dobj=rise'
p1975
I934
sS'w+1=sale'
p1976
I2256
sS'dobj=case'
p1977
I854
sS'nn=department'
p1978
I1141
sS'rcmod=pay'
p1979
I1865
sS'w-2=ICRC'
p1980
I4385
sS'nsubj=Mission'
p1981
I1343
sS'w+2=September'
p1982
I2658
sS'w-2=six'
p1983
I5045
sS'w-1=Fincher'
p1984
I3613
sS'ccomp=break'
p1985
I366
sS'ccomp=torture'
p1986
I589
sS'w+2=April'
p1987
I2420
sS'w+1=attempt'
p1988
I1994
sS'nn=agency'
p1989
I1120
sS'w+2=investigator'
p1990
I3073
sS'w+2=nor'
p1991
I3175
sS'w-2=proceedings'
p1992
I4973
sS'ccomp=clean'
p1993
I380
sS'nsubj=ministry'
p1994
I1499
sS'ccomp=clear'
p1995
I381
sS'w-2=Obama'
p1996
I4467
sS'w+2=likely'
p1997
I3109
sS'w-2=Gabon'
p1998
I4353
sS'w-1=Survey'
p1999
I3773
sS'w+2=Manila'
p2000
I2577
sS'w+2=now'
p2001
I3179
sS'w-1=number'
p2002
I4055
sS'w+1=map'
p2003
I2172
sS'w+1=South'
p2004
I1953
sS'w-2=least'
p2005
I4869
sS'w+1=kill'
p2006
I2157
sS'amod=vague'
p2007
I281
sS'rcmod=indicate'
p2008
I1853
sS'w+2=sophisticated'
p2009
I3355
sS'w-2=state'
p2010
I5060
sS'xcomp=setback'
p2011
I5237
sS'nsubj=Conde'
p2012
I1255
sS'w-2=overwhelming'
p2013
I4938
sS'w+1=say'
p2014
I2257
sS'advmod=accurately'
p2015
I50
sS'w-2=sexual'
p2016
I5038
sS'nsubj=Zaman'
p2017
I1432
sS'ccomp=welcome'
p2018
I603
sS'w+2=Iraq-Afghanistan'
p2019
I2525
sS'w-1=have'
p2020
I3976
sS'dobj=growth'
p2021
I882
sS'w-1=people'
p2022
I4080
sS'w-1=regular'
p2023
I4114
sS'advcl=turn'
p2024
I44
sS'conj=otherwise'
p2025
I681
sS'w-2=news'
p2026
I4910
sS'w-2=Scotland'
p2027
I4512
sS'w+1=mostly'
p2028
I2183
sS'ccomp=anger'
p2029
I347
sS'w+2=understanding'
p2030
I3440
sS'tmod=day'
p2031
I1892
sS'w+2=economic'
p2032
I2932
sS'parataxis=hospitalize'
p2033
I1684
sS'rcmod=part'
p2034
I1864
sS'w+2=allege'
p2035
I2742
sS'w-1=Gonul'
p2036
I3625
sS'dobj=station'
p2037
I942
sS'conj=level'
p2038
I669
sS'ccomp=suspend'
p2039
I583
sS'xcomp=crush'
p2040
I5173
sS'w+1=since'
p2041
I2277
sS'nn=IAEA'
p2042
I1032
sS'w-1=unemployment'
p2043
I4198
sS'w+2=hiv'
p2044
I3035
sS'nsubjpass=authority'
p2045
I1585
sS'w+1=directly'
p2046
I2068
sS'w+1=among'
p2047
I1981
sS'w-2=previous'
p2048
I4970
sS'w-2=because'
p2049
I4640
sS'w-2=back'
p2050
I4634
sS'w-2=resolution'
p2051
I5008
sS'advmod=there'
p2052
I115
sS'advmod=promptly'
p2053
I103
sS'nsubj=total'
p2054
I1549
sS'w+2=report.globalintegrity.org'
p2055
I3294
sS'w-2=Brent'
p2056
I4284
sS'w-2=earlier'
p2057
I4746
sS'w-2=Dabo'
p2058
I4317
sS'ccomp=total'
p2059
I590
sS'w-2=Brian'
p2060
I4285
sS'w+1=could'
p2061
I2046
sS'w-2=Nigeria'
p2062
I4464
sS'w+2=U.N.'
p2063
I2692
sS'w+2=Kampala'
p2064
I2545
sS'w+2=leading'
p2065
I3101
sS'w+2=over'
p2066
I3204
sS'w-1=Palus'
p2067
I3715
sS'w+2=delegate'
p2068
I2890
sS'w-2=Paul'
p2069
I4475
sS'w-1=leak'
p2070
I4018
sS'xcomp=commit'
p2071
I5168
sS'w+2=many'
p2072
I3128
sS'w+2=contact'
p2073
I2853
sS'w+2=off'
p2074
I3185
sS'ccomp=fugitive'
p2075
I445
sS'nsubjpass=Win'
p2076
I1579
sS'dep=migrant'
p2077
I789
sS'tmod=report'
p2078
I1897
sS'w+2=controversial'
p2079
I2858
sS'nsubjpass=tsunami'
p2080
I1674
sS'w+2=CairoIraq'
p2081
I2452
sS'w-2=resident'
p2082
I5007
sS'amod=global'
p2083
I182
sS'w-1=Post'
p2084
I3724
sS'partmod=blast'
p2085
I1695
sS'w+1=only'
p2086
I2200
sS'w-1=unconfirmed'
p2087
I4194
sS'w-2=Gates'
p2088
I4354
sS'w-2=balanced'
p2089
I4635
sS'nsubj=driver'
p2090
I1471
sS'w-2=endorse'
p2091
I4755
sS'w-2=incident'
p2092
I4824
sS'rcmod=say'
p2093
I1877
sS'w-2=preliminary'
p2094
I4964
sS'w+2=its'
p2095
I3084
sS'nsubjpass=Tajbaksh'
p2096
I1577
sS'conj=kidnapping'
p2097
I665
sS'w-1=Bureau'
p2098
I3566
sS'w-1=many'
p2099
I4026
sS'nn=Jallow'
p2100
I1042
sS'amod=in'
p2101
I189
sS'nsubj=Fars'
p2102
I1274
sS'w-2=China'
p2103
I4302
sS'nsubjpass=supplies'
p2104
I1668
sS'w-2=Pasricha'
p2105
I4474
sS'w+2=dream'
p2106
I2921
sS'w-2=day'
p2107
I4706
sS'w-2=Center'
p2108
I4299
sS'nn=solution'
p2109
I1185
sS'ccomp=urge'
p2110
I596
sS'w-2=usually'
p2111
I5119
sS'dep=Nigeria'
p2112
I728
sS'w-1=Blears'
p2113
I3556
sS'w-2=mosque'
p2114
I4901
sS'w+2=commit'
p2115
I2837
sS'w+2=fuel'
p2116
I2999
sS'w+2=scatter'
p2117
I3312
sS'nsubj=Martig'
p2118
I1334
sS'w-2=district'
p2119
I4735
sS'dobj=problem'
p2120
I922
sS'partmod=increase'
p2121
I1714
sS'ccomp=try'
p2122
I593
sS'w-2=level'
p2123
I4870
sS'w-1=,'
p2124
I3502
sS'ccomp=close'
p2125
I382
sS'w-1=ICRC'
p2126
I3640
sS'dep=challenge'
p2127
I748
sS'nsubjpass=government'
p2128
I1620
sS'w+1=stop'
p2129
I2288
sS'partmod=suggest'
p2130
I1735
sS'w-2=House-Senate'
p2131
I4377
sS'nsubj=lobbyist'
p2132
I1493
sS'w-1=Maphosa'
p2133
I3679
sS'w-2=injury'
p2134
I4832
sS'w+2=private'
p2135
I3249
sS'w-2=come'
p2136
I4683
sS'amod=national'
p2137
I218
sS'ccomp=commit'
p2138
I387
sS'w-2=Sam'
p2139
I4507
sS'nsubj=Trust'
p2140
I1412
sS'ccomp=discuss'
p2141
I416
sS'w-1=state-by-state'
p2142
I4156
sS'w+2=January'
p2143
I2533
sS'w-1=monitor'
p2144
I4036
sS'w-2=who'
p2145
I5143
sS'w-2=earnings'
p2146
I4748
sS'w-1=Singh'
p2147
I3765
sS'w-2=say'
p2148
I5022
sS'w+2=visitor'
p2149
I3467
sS'ccomp=divide'
p2150
I420
sS'w-2=Hong'
p2151
I4374
sS'tmod=quarter'
p2152
I1896
sS'dobj=irregularity'
p2153
I894
sS'advcl=bundle'
p2154
I13
sS'w+2=lawmaker'
p2155
I3098
sS'nsubjpass=case'
p2156
I1592
sS'w+1=Pakistan'
p2157
I1949
sS'w+1=proliferation'
p2158
I2222
sS'xcomp=receive'
p2159
I5228
sS'nsubjpass=car'
p2160
I1591
sS'w-2=recently'
p2161
I4996
sS'w-1=national'
p2162
I4042
sS'nsubj=Drew'
p2163
I1266
sS'nsubjpass=stampede'
p2164
I1665
sS'w-2=Arabiya'
p2165
I4269
sS'w-1=Jones'
p2166
I3655
sS'w+2=villager'
p2167
I3461
sS'w-2=western'
p2168
I5137
sS'w-2=deny'
p2169
I4721
sS'w+2=about'
p2170
I2716
sS'w-1=March'
p2171
I3680
sS'w-2=concern'
p2172
I4690
sS'dep=government'
p2173
I768
sS'w+1=may'
p2174
I2174
sS'w-1=radio'
p2175
I4105
sS'w-1=Wolfson'
p2176
I3815
sS'w-2=gap'
p2177
I4796
sS'dobj=finding'
p2178
I878
sS'xcomp=reduce'
p2179
I5229
sS'ccomp=stop'
p2180
I577
sS'nsubj=trader'
p2181
I1551
sS'w-2=delegate'
p2182
I4717
sS'w-2=Jade'
p2183
I4395
sS'w+2=Kaiser'
p2184
I2544
sS'w+2=dengue-like'
p2185
I2893
sS'w-2=despite'
p2186
I4724
sS'w+2=eager'
p2187
I2928
sS'nsubj=korean'
p2188
I1491
sS'w+2=NewDelhi'
p2189
I2604
sS'ccomp=increase'
p2190
I473
sS'ccomp=expect'
p2191
I435
sS'dep=again'
p2192
I733
sS'nn=adb'
p2193
I1117
sS'amod=various'
p2194
I282
sS'w-2=refute'
p2195
I4998
sS'aux=to'
p2196
I326
sS'poss=commission'
p2197
I1765
sS'w+1=loss'
p2198
I2166
sS'nsubjpass=market'
p2199
I1633
sS'nsubj=Commission'
p2200
I1252
sS'advcl=prepare'
p2201
I33
sS'nn=GAO'
p2202
I1025
sS'ccomp=widespread'
p2203
I604
sS'dobj=revaluation'
p2204
I933
sS'w+2=estimate'
p2205
I2949
sS'w+2=short'
p2206
I3334
sS'xcomp=quote'
p2207
I5226
sS'w+1=present'
p2208
I2219
sS'dep=get'
p2209
I765
sS'prep=off'
p2210
I1804
sS'nsubj=Journal'
p2211
I1312
sS'nsubj=official'
p2212
I1508
sS'w+1=recommend'
p2213
I2240
sS'nsubjpass=result'
p2214
I1653
sS'w-1=Majtenyi'
p2215
I3675
sS'w-2=Geological'
p2216
I4357
sS'w+2=wedding'
p2217
I3477
sS'w+1=miss'
p2218
I2180
sS'advcl=see'
p2219
I39
sS'w-2=commission'
p2220
I4687
sS'w-2=al-Maliki'
p2221
I4597
sS'w-2=Marianne'
p2222
I4437
sS'appos=tank'
p2223
I316
sS'advmod=early'
p2224
I67
sS'dobj=sale'
p2225
I935
sS'nsubj=Ford'
p2226
I1280
sS'w+2=Fazlullah'
p2227
I2488
sS'w-2=along'
p2228
I4601
sS'w-1=23-page'
p2229
I3519
sS'w+2=overall'
p2230
I3205
sS'w+2=al-Qaida'
p2231
I2735
sS'w-2=AFP'
p2232
I4245
sS'cc=but'
p2233
I331
sS'nn=media'
p2234
I1165
sS'w+1=cease-fire'
p2235
I2023
sS'amod=live'
p2236
I206
sS'nn=travel'
p2237
I1193
sS'nsubj=Mort'
p2238
I1347
sS'w-2=papers'
p2239
I4943
sS'w+2=Mrs.'
p2240
I2595
sS'w-2=in'
p2241
I4823
sS'w-2=Fair'
p2242
I4345
sS'xcomp=make'
p2243
I5209
sS'w+2=senegal'
p2244
I3323
sS'conj=report'
p2245
I694
sS'w-1=Wekesa'
p2246
I3809
sS'nn=Agency'
p2247
I988
sS'advcl=follow'
p2248
I26
sS'amod=dire'
p2249
I152
sS'rcmod=accuse'
p2250
I1819
sS'w-2=already'
p2251
I4602
sS'partmod=demand'
p2252
I1704
sS'ccomp=predict'
p2253
I518
sS'w+2=testimony'
p2254
I3394
sS'w-1=entertainment'
p2255
I3939
sS'conj=accusation'
p2256
I616
sS'w-2=Friday'
p2257
I4351
sS'w-1=inaccurately'
p2258
I3986
sS'w+2=suggest'
p2259
I3380
sS'w+2=Brussels'
p2260
I2446
sS'w+2=5,000'
p2261
I2394
sS'dobj=fromnairobus'
p2262
I880
sS'w-2=Jim'
p2263
I4400
sS'nn=June'
p2264
I1044
sS'w-1=Dujana'
p2265
I3600
sS'w+2=cover'
p2266
I2867
sS'w+1=come'
p2267
I2033
sS'nsubj=house'
p2268
I1485
sS'w-1=full'
p2269
I3963
sS'xcomp=propose'
p2270
I5224
sS'w-1=WWF'
p2271
I3803
sS'w+2=incident'
p2272
I3055
sS'dobj=fact'
p2273
I874
sS'w-2=September'
p2274
I4516
sS'w+2=Ribadu'
p2275
I2636
sS'amod=early'
p2276
I157
sS'w-2=Eve'
p2277
I4343
sS'w+2=militia'
p2278
I3142
sS'w-1=better'
p2279
I3863
sS'w+2=which'
p2280
I3485
sS'w-2=the'
p2281
I5085
sS'poss=Program'
p2282
I1755
sS'dobj=business'
p2283
I849
sS"w+1=''"
p2284
I1902
sS'w+2=northern'
p2285
I3176
sS'advmod=mainly'
p2286
I85
sS'w-1=further'
p2287
I3964
sS'nsubj=Wellman'
p2288
I1424
sS'nsubj=Ridgwell'
p2289
I1373
sS'w+2=Ronak'
p2290
I2641
sS'w+2=focus'
p2291
I2985
sS'w-2=Joseph'
p2292
I4403
sS'w-1=2008'
p2293
I3515
sS'w+2=compare'
p2294
I2839
sS'ccomp=fly'
p2295
I442
sS'xcomp=reflect'
p2296
I5230
sS'conj=attempt'
p2297
I624
sS'w-1=Nyrop'
p2298
I3708
sS'nsubj=man'
p2299
I1494
sS'nsubj=resident'
p2300
I1529
sS'w-2=Kevin'
p2301
I4415
sS'ccomp=appear'
p2302
I349
sS'w-1=2005'
p2303
I3512
sS'w-1=2006'
p2304
I3513
sS'w-1=2007'
p2305
I3514
sS'nsubj=which'
p2306
I1556
sS'ccomp=rife'
p2307
I550
sS'amod=european'
p2308
I161
sS'prep=accord'
p2309
I1778
sS'xcomp=plant'
p2310
I5220
sS'w+2=they'
p2311
I3401
sS'w-1=accompany'
p2312
I3825
sS'conj=take'
p2313
I710
sS'w-1=Authorities'
p2314
I3543
sS'num=#NUMBER#'
p2315
I1681
sS'nsubj=Rueda'
p2316
I1380
sS'xcomp=resist'
p2317
I5231
sS'dobj=documentary'
p2318
I868
sS'w+2=both'
p2319
I2795
sS'dep=victory'
p2320
I821
sS'conj=turn'
p2321
I712
sS'w-1=600-page'
p2322
I3525
sS'appos=IAEA'
p2323
I296
sS'w+1=out'
p2324
I2202
sS'xcomp=abused'
p2325
I5157
sS'advmod=recently'
p2326
I107
sS'w+2=Lisa'
p2327
I2570
sS'w+1=daily'
p2328
I2054
sS'w-2=emergency'
p2329
I4754
sS'ccomp=progress'
p2330
I521
sS'dep=about'
p2331
I731
sS'w-2=Sabina'
p2332
I4505
sS'w-1=never'
p2333
I4045
sS'w-2=belgian'
p2334
I4643
sS'w-2=Al'
p2335
I4251
sS'w+2=Sydney'
p2336
I2675
sS'w+2=correspondent'
p2337
I2861
sS'w-2=at'
p2338
I4626
sS'advcl=offset'
p2339
I32
sS'w+2=million'
p2340
I3143
sS'conj=protest'
p2341
I687
sS'w+2=low-lying'
p2342
I3120
sS'dep=Commissioner'
p2343
I726
sS'w+2=Bangkok'
p2344
I2434
sS'amod=u.s'
p2345
I274
sS'w-1=who'
p2346
I4212
sS'w-2=Bednarska'
p2347
I4281
sS'w-1=undp'
p2348
I4197
sS'amod=burmese'
p2349
I136
sS'xcomp=negotiate'
p2350
I5212
sS'nsubj=Casey'
p2351
I1242
sS'w+2=up'
p2352
I3448
sS'dobj=campaign'
p2353
I851
sS'w+1=annually'
p2354
I1983
sS'nsubjpass=$'
p2355
I1563
sS'w-1=Marines'
p2356
I3681
sS'w-2=World'
p2357
I4569
sS'w-2=also'
p2358
I4603
sS'w-2=could'
p2359
I4698
sS'nsubjpass=member'
p2360
I1634
sS'w+1=Beijing'
p2361
I1933
sS'w+2=horrific'
p2362
I3037
sS'w+1=reach'
p2363
I2235
sS'w+2=European'
p2364
I2485
sS'w+2=high-powered'
p2365
I3031
sS'w-2=expert'
p2366
I4762
sS'w+1=zanu-pf'
p2367
I2352
sS'ccomp=hide'
p2368
I459
sS'w+2=sustained'
p2369
I3386
sS'w+1=up'
p2370
I2330
sS'w+2=confirm'
p2371
I2848
sS'w-2=Jocelyn'
p2372
I4401
sS'w-1=two'
p2373
I4191
sS'prep=across'
p2374
I1779
sS'amod=oral'
p2375
I228
sS'dobj=destruction'
p2376
I865
sS'amod=iraqi'
p2377
I196
sS'ccomp=exist'
p2378
I433
sS'w-1=forcethe'
p2379
I3957
sS'w-1=Prevention'
p2380
I3728
sS'w-2=Capitol'
p2381
I4289
sS'rcmod=submit'
p2382
I1882
sS'nsubj=Institute'
p2383
I1304
sS'w-1=wildlife'
p2384
I4216
sS'w+2=Somalia'
p2385
I2664
sS'amod=latest'
p2386
I204
sS'w-1=HRW'
p2387
I3630
sS'w-2=landlocked'
p2388
I4863
sS'w+2=cite'
p2389
I2823
sS'advmod=previously'
p2390
I102
sS'prep=regard'
p2391
I1808
sS'w+1=more'
p2392
I2181
sS'w-1=investigate'
p2393
I4000
sS'nn=Khan'
p2394
I1045
sS'w+2=fact'
p2395
I2965
sS'w+1=with'
p2396
I2343
sS'amod=newest'
p2397
I221
sS'nsubj=Rippe'
p2398
I1375
sS'w+1=catch'
p2399
I2022
sS'w-1=originally'
p2400
I4070
sS'w-2=Pentagon'
p2401
I4477
sS'dep=\\*'
p2402
I729
sS'nsubj=Shabelle'
p2403
I1391
sS'w+2=city'
p2404
I2824
sS'nsubj=BBC'
p2405
I1218
sS'w-2=european'
p2406
I4758
sS'nsubj=Health'
p2407
I1292
sS'w-2=,'
p2408
I4228
sS'nn=WTO'
p2409
I1108
sS'w+2=arm'
p2410
I2765
sS'w-1=600,000'
p2411
I3524
sS'ccomp=happy'
p2412
I453
sS'w-2=Monday'
p2413
I4447
sS'tmod=part'
p2414
I1895
sS'w+2=Iraq'
p2415
I2524
sS'w+2=Pervez'
p2416
I2622
sS'dobj=number'
p2417
I906
sS'aux=have'
p2418
I322
sS'w+2=draft'
p2419
I2918
sS'ccomp=neglect'
p2420
I504
sS'w+2=u.s.-led'
p2421
I3435
sS'w-2=think'
p2422
I5090
sS'w+2=Iran'
p2423
I2523
sS'w-2=Monetary'
p2424
I4448
sS'w+2=Bangalore'
p2425
I2433
sS'nn=background'
p2426
I1127
sS'w+1=domestic'
p2427
I2072
sS'nsubj=diplomat'
p2428
I1466
sS'nsubj=Clark'
p2429
I1247
sS'advcl=die'
p2430
I20
sS'w+2=rate'
p2431
I3272
sS'w-2=tunneling'
p2432
I5107
sS'w-2=South'
p2433
I4523
sS'ccomp=kill'
p2434
I486
sS'w+2=United'
p2435
I2699
sS'dobj=visit'
p2436
I955
sS'w-2=it'
p2437
I4850
sS'nsubj=Committee'
p2438
I1254
sS'w-2=Anajana'
p2439
I4262
sS'appos=Oscars'
p2440
I297
sS'partmod=produce'
p2441
I1725
sS'w+1=specifically'
p2442
I2283
sS'w+2=perhaps'
p2443
I3217
sS'w-1=authority'
p2444
I3857
sS'w+2=CD'
p2445
I2450
sS'ccomp=target'
p2446
I586
sS'w-2=opinion'
p2447
I4929
sS'w+2=life'
p2448
I3108
sS'w+1=stress'
p2449
I2289
sS'w+2=vienna-based'
p2450
I3459
sS'amod=leak'
p2451
I205
sS'nsubj=detainee'
p2452
I1465
sS'ccomp=agonize'
p2453
I345
sS'w-2=Crisis'
p2454
I4313
sS'w+2=Friday'
p2455
I2496
sS'w-1=independent'
p2456
I3990
sS'amod=hard'
p2457
I184
sS'abbrev=IFPRI'
p2458
I1
sS'w+1=Mr.'
p2459
I1946
sS'nsubj=Lynch'
p2460
I1326
sS'w-1=local'
p2461
I4021
sS'w+2=West'
p2462
I2708
sS'w-2=dispel'
p2463
I4733
sS'w-1=Payne'
p2464
I3718
sS'w-2=lot'
p2465
I4877
sS'w-1=Webb'
p2466
I3808
sS'w-2=peacekeeper'
p2467
I4949
sS'w-2=downplay'
p2468
I4742
sS'w+1=one-quarter'
p2469
I2198
sS'w+1=dead'
p2470
I2057
sS'w+2=police'
p2471
I3226
sS'w+2=energy'
p2472
I2944
sS'dep=involve'
p2473
I779
sS'ccomp=criminal'
p2474
I399
sS'w+2=investing'
p2475
I3074
sS'w+1=allege'
p2476
I1978
sS'w+2=Cairo'
p2477
I2451
sS'nsubjpass=body'
p2478
I1589
sS'w-2=Kari'
p2479
I4409
sS'w-1=he'
p2480
I3977
sS'w-1=Heinlein'
p2481
I3633
sS'poss=UNHCR'
p2482
I1758
sS'w+1=many'
p2483
I2170
sS'w-2=wake'
p2484
I5130
sS'w+1=similar'
p2485
I2275
sS'w-1=73'
p2486
I3526
sS'w+1=from'
p2487
I2112
sS'poss=Seibert'
p2488
I1756
sS'neg=never'
p2489
I982
sS'w+2=gang'
p2490
I3004
sS'w-2=city'
p2491
I4677
sS'nsubjpass=first'
p2492
I1615
sS'w-2=Anjana'
p2493
I4265
sS'w+2=Oshogbo'
p2494
I2615
sS'w-1=June'
p2495
I3658
sS'nsubj=Press'
p2496
I1366
sS'w-2=Xinhua'
p2497
I4570
sS'w-2=Development'
p2498
I4327
sS'ccomp=cross'
p2499
I401
sS'nsubj=other'
p2500
I1510
sS'w-1=GAO'
p2501
I3618
sS'w-1=Bank'
p2502
I3547
sS'xcomp=eat'
p2503
I5183
sS'w+2=senior'
p2504
I3324
sS'w-2=Las'
p2505
I4420
sS'ccomp=do'
p2506
I421
sS'w+2=main'
p2507
I3121
sS'w+1=four'
p2508
I2111
sS'w+2=board'
p2509
I2792
sS'w-2=series'
p2510
I5035
sS'w-1=now'
p2511
I4054
sS'w+2=prostitution'
p2512
I3256
sS'w+2=border'
p2513
I2794
sS'w-1=press'
p2514
I4092
sS'w-1=negative'
p2515
I4043
sS'w-1=continue'
p2516
I3899
sS'nsubj=Sisco'
p2517
I1396
sS'w-1=Realtors'
p2518
I3732
sS'ccomp=visit'
p2519
I598
sS'nsubj=dozen'
p2520
I1470
sS'nsubjpass=Esfandiari'
p2521
I1569
sS'dep=likely'
p2522
I784
sS'w-2=USA'
p2523
I4558
sS'w-1=Kearney'
p2524
I3659
sS'dobj=location'
p2525
I898
sS'ccomp=flee'
p2526
I441
sS'rcmod=send'
p2527
I1879
sS'w+2=significant'
p2528
I3339
sS'w-2=however'
p2529
I4817
sS'nsubjpass=who'
p2530
I1680
sS'w+2=trouble'
p2531
I3426
sS'w-2=this'
p2532
I5091
sS'mark=since'
p2533
I977
sS'w+2=vote-buying'
p2534
I3471
sS'w+2=authentic'
p2535
I2779
sS'w-2=clear'
p2536
I4680
sS'w-2=vietnamese'
p2537
I5127
sS'w+2=U.S.'
p2538
I2693
sS'nn=TomRivers'
p2539
I1092
sS'w-1=Today'
p2540
I3783
sS'w+2=denounce'
p2541
I2894
sS'nn=BBC'
p2542
I992
sS'poss=CIA'
p2543
I1749
sS'nn=UN'
p2544
I1097
sS'prep=from'
p2545
I1797
sS'nn=Marks'
p2546
I1052
sS'w+2=injury'
p2547
I3062
sS'w-1=correspondent'
p2548
I3901
sS'w+2=small'
p2549
I3346
sS'dobj=who'
p2550
I959
sS'w-2=quit'
p2551
I4987
sS'w-2=Le'
p2552
I4422
sS'rcmod=compile'
p2553
I1831
sS'w-1=immediate'
p2554
I3984
sS'w+2=asian'
p2555
I2771
sS'amod=online'
p2556
I227
sS'w+2=charge'
p2557
I2818
sS'w+2=morning'
p2558
I3151
sS'w-1=Barber'
p2559
I3548
sS'nsubj=Estimate'
p2560
I1271
sS'amod=soon-to-be-released'
p2561
I266
sS'rcmod=force'
p2562
I1844
sS'w+2=opposition'
p2563
I3196
sS'w+2=rating'
p2564
I3273
sS'w-1=W.H.O.'
p2565
I3800
sS'w+2=praise'
p2566
I3236
sS'dobj=some'
p2567
I939
sS'w+1=huge'
p2568
I2132
sS'rcmod=kill'
p2569
I1856
sS'dep=hear'
p2570
I773
sS'w+1=,'
p2571
I1904
sS'w+1=.'
p2572
I1909
sS'w+1=cholera'
p2573
I2027
sS'nn=Jones'
p2574
I1043
sS'dep=after'
p2575
I732
sS'w+2=iranian'
p2576
I3076
sS'w-2=forcibly'
p2577
I4784
sS'w-2=leader'
p2578
I4867
sS'nn=Senate'
p2579
I1083
sS'w+1=:'
p2580
I1927
sS'advcl=after'
p2581
I5
sS'conj=show'
p2582
I705
sS'dobj=hijacking'
p2583
I885
sS'w-1=there'
p2584
I4177
sS'w+2=lebanese'
p2585
I3103
sS'w+1=carefully'
p2586
I2020
sS'ccomp=register'
p2587
I535
sS'w-2=Handicap'
p2588
I4367
sS'w-2=Phillip'
p2589
I4483
sS'w-2=Lisa'
p2590
I4425
sS'w+2=critical'
p2591
I2872
sS'w+2=399'
p2592
I2389
sS'rcmod=call'
p2593
I1827
sS'w-1=ipcc'
p2594
I4002
sS'w-2=Thursday'
p2595
I4546
sS'partmod=list'
p2596
I1718
sS'w+2=game'
p2597
I3003
sS'ccomp=doubt'
p2598
I423
sS'w-2=nigerian'
p2599
I4913
sS'w+2=disagreement'
p2600
I2904
sS'amod=dutch'
p2601
I155
sS'nsubj=breakthrough'
p2602
I1443
sS'w+2=State'
p2603
I2670
sS'w-2=next'
p2604
I4912
sS'w-1=mind'
p2605
I4034
sS'w+1=recent'
p2606
I2238
sS'mark=with'
p2607
I981
sS'dobj=nation'
p2608
I904
sS'w+2=support'
p2609
I3383
sS'w+1=a'
p2610
I1966
sS'w+1=`'
p2611
I1965
sS'w-2=Washington'
p2612
I4563
sS'w+2=forced'
p2613
I2990
sS'w-1=audit'
p2614
I3855
sS'nsubj=Bayron'
p2615
I1223
sS'nsubj=Schultz'
p2616
I1387
sS'w-1=repeat'
p2617
I4116
sS'ccomp=download'
p2618
I424
sS'w+1=U.S.'
p2619
I1960
sS'w+2=Kyrgyzstan'
p2620
I2566
sS'w+2=intelligence'
p2621
I3066
sS'w+1=detail'
p2622
I2065
sS'nsubj=International'
p2623
I1305
sS'w+2=Bulawayo'
p2624
I2448
sS'w-1=that'
p2625
I4174
sS'w+1=breathing'
p2626
I2010
sS'w+2=90,000'
p2627
I2406
sS'conj=something'
p2628
I706
sS'w-1=Yard'
p2629
I3817
sS'xcomp=offer'
p2630
I5213
sS'nn=forum'
p2631
I1151
sS'w+1=Israel'
p2632
I1942
sS'w-1=TomRivers'
p2633
I3785
sS'w-1=Vietnam'
p2634
I3798
sS'w-1=21-page'
p2635
I3517
sS'nn=Bos'
p2636
I998
sS'w+1=add'
p2637
I1970
sS'w+2=Guinea-Bissau'
p2638
I2502
sS'nsubjpass=many'
p2639
I1632
sS'w-1=town'
p2640
I4186
sS'w-2=9\\/11'
p2641
I4242
sS'ccomp=worsen'
p2642
I607
sS'w-1=Hennessy'
p2643
I3634
sS'w-1=dismiss'
p2644
I3925
sS'w-2=Taiwan'
p2645
I4535
sS'w+2=so'
p2646
I3349
sS'w+2=Haiti'
p2647
I2503
sS'w+2=armed'
p2648
I2766
sS'w-2=publication'
p2649
I4982
sS'nsubj=refugee'
p2650
I1527
sS'w-2=investigation'
p2651
I4844
sS'w-1=scandalous'
p2652
I4126
sS'nsubj=figure'
p2653
I1474
sS'w-2=people'
p2654
I4950
sS'w+2=among'
p2655
I2751
sS'nn=WOZA'
p2656
I1107
sS'w+2=Nahr'
p2657
I2601
sS'w-2=again'
p2658
I4591
sS'w-1=outrageous'
p2659
I4073
sS'conj=photograph'
p2660
I684
sS'nsubj=Monde'
p2661
I1345
sS'dobj=soldier'
p2662
I938
sS'w+1=world'
p2663
I2346
sS'w+2=during'
p2664
I2926
sS'w+2=KwaZulu'
p2665
I2565
sS'w+1=regard'
p2666
I2244
sS'w-1=UNHCR'
p2667
I3793
sS'w+1=deal'
p2668
I2058
sS'ccomp=pardon'
p2669
I511
sS'w+2=recruit'
p2670
I3283
sS'conj=challenging'
p2671
I633
sS'w-2=send'
p2672
I5033
sS'w+1=here'
p2673
I2127
sS'xcomp=deny'
p2674
I5177
sS'ccomp=bar'
p2675
I359
sS'w-2=Anita'
p2676
I4264
sS'w-1=figure'
p2677
I3951
sS'dep=many'
p2678
I788
sS'xcomp=use'
p2679
I5245
sS'xcomp=consider'
p2680
I5171
sS'w-1=America'
p2681
I3535
sS'w-2=use'
p2682
I5117
sS'nsubj=Yeranian'
p2683
I1431
sS'w-2=submit'
p2684
I5068
sS'w+2=clinical'
p2685
I2829
sS'w-1=complete'
p2686
I3891
sS'nsubj=Makino'
p2687
I1329
sS'w-2=base'
p2688
I4638
sS'w+2=late'
p2689
I3097
sS'partmod=collect'
p2690
I1698
sS'w+2=400,000'
p2691
I2391
sS'w-2=Organization'
p2692
I4470
sS'nn=iaea'
p2693
I1155
sS'ccomp=intensify'
p2694
I479
sS'w+2=asylum'
p2695
I2774
sS'w-2=United'
p2696
I4561
sS'dobj=loss'
p2697
I899
sS'w-2=flag'
p2698
I4777
sS'nn=newspaper'
p2699
I1170
sS'ccomp=complete'
p2700
I389
sS'w+2=close'
p2701
I2830
sS'w-1=audio'
p2702
I3854
sS'w-2=grower'
p2703
I4804
sS'w+2=only'
p2704
I3194
sS'w-1=market'
p2705
I4027
sS'nn=McCulloch'
p2706
I1053
sS'w+2=some'
p2707
I3353
sS'amod=confirm'
p2708
I140
sS'w+2=true'
p2709
I3428
sS'w-1=admiral'
p2710
I3829
sS'w+2=child'
p2711
I2821
sS'aux=should'
p2712
I325
sS'nsubj=shop'
p2713
I1536
sS'w+2=French'
p2714
I2495
sS'w-2=London'
p2715
I4427
sS'w+2=Jennifer'
p2716
I2535
sS'nn=inspector'
p2717
I1158
sS'w+2=Air'
p2718
I2415
sS'w+1=top'
p2719
I2323
sS'w+2=condom'
p2720
I2847
sS'w+1=UNCTAD'
p2721
I1961
sS'w-2=Russia'
p2722
I4502
sS'w-2=troops'
p2723
I5103
sS'ccomp=debate'
p2724
I403
sS'nsubj=Robertson'
p2725
I1377
sS'amod=mexican'
p2726
I215
sS'w-2=York'
p2727
I4572
sS'w+2=problem'
p2728
I3250
sS'w+2=fewer'
p2729
I2971
sS'w-2=Justice'
p2730
I4405
sS'w-1=delegation'
p2731
I3916
sS'w+1=prompt'
p2732
I2223
sS'w-2=militantsIndia'
p2733
I4894
sS'amod=horrible'
p2734
I186
sS'rcmod=appear'
p2735
I1821
sS'nsubj=hotel'
p2736
I1484
sS'w+1=attribute'
p2737
I1995
sS'parataxis=rejoin'
p2738
I1686
sS'nsubj=source'
p2739
I1538
sS'nn=Iraq'
p2740
I1041
sS'w+2=Sri'
p2741
I2667
sS'w-1=preliminary'
p2742
I4089
sS'nsubj=Herald'
p2743
I1296
sS'w+2=Louga'
p2744
I2574
sS'w+1=criticize'
p2745
I2053
sS'nsubjpass=department'
p2746
I1608
sS'w+2=Milan'
p2747
I2586
sS'w-2=country'
p2748
I4699
sS'w+2=case'
p2749
I2812
sS'ccomp=beat'
p2750
I361
sS'nsubj=Ham'
p2751
I1290
sS'w+2=initiate'
p2752
I3060
sS'w-2=Sarah'
p2753
I4508
sS'w-2=Ken'
p2754
I4414
sS'rcmod=recommend'
p2755
I1871
sS'nn=Achin'
p2756
I987
sS'w-2=Sudanese'
p2757
I4531
sS'ccomp=own'
p2758
I510
sS'nn=Robinson'
p2759
I1080
sS'ccomp=catch'
p2760
I373
sS'w-1=negotiator'
p2761
I4044
sS'w-2=discount'
p2762
I4729
sS'ccomp=injure'
p2763
I478
sS'w-2=Industry'
p2764
I4387
sS'nsubj=Bakshian'
p2765
I1219
sS'w+1=submit'
p2766
I2294
sS'w-1=Maoists'
p2767
I3678
sS'nn=Schlender'
p2768
I1081
sS'w+2=Cotabato'
p2769
I2467
sS'w-1=subsequent'
p2770
I4163
sS'dobj=cease-fire'
p2771
I855
sS'w-1=Villarreal'
p2772
I3799
sS'w+1=feeling'
p2773
I2100
sS'conj=insist'
p2774
I659
sS'w-2=down'
p2775
I4741
sS'tmod=morning'
p2776
I1894
sS'w+2=to'
p2777
I3410
sS'w-1=conflict'
p2778
I3896
sS'w-2=decide'
p2779
I4713
sS'w+1=meanwhile'
p2780
I2175
sS'w+2=message'
p2781
I3137
sS'w-2=urge'
p2782
I5116
sS'w-2=advantage'
p2783
I4585
sS'w+2=Los'
p2784
I2573
sS'w+2=Europe'
p2785
I2484
sS'w-1=expert'
p2786
I3944
sS'nsubj=Eagle'
p2787
I1268
sS'w-1=its'
p2788
I4007
sS'nn=UNHCR'
p2789
I1101
sS'amod=investigative'
p2790
I195
sS'conj=burn'
p2791
I631
sS'w-2=courage'
p2792
I4700
sS'amod=regular'
p2793
I246
sS'w-2=advisory'
p2794
I4586
sS'w+2=NASA'
p2795
I2599
sS'prep=next'
p2796
I1802
sS'w-2=broadcaster'
p2797
I4655
sS'w+2=document'
p2798
I2916
sS'ccomp=go'
p2799
I449
sS'w+2=why'
p2800
I3488
sS'nn=Official'
p2801
I1067
sS'w-2=prepare'
p2802
I4965
sS'w+1=datum'
p2803
I2055
sS'ccomp=occur'
p2804
I505
sS'w+2=attack'
p2805
I2776
sS'w+2=who'
p2806
I3487
sS'nsubjpass=Office'
p2807
I1572
sS'nn=Corporation'
p2808
I1012
sS'w-2=four'
p2809
I4789
sS'w-1=Zimbabwe'
p2810
I3821
sS'w+2=criminal'
p2811
I2869
sS'w+2=al-faroon'
p2812
I2736
sS'w+2=science'
p2813
I3315
sS'complm=that'
p2814
I611
sS'nn=TV'
p2815
I1088
sS'w+2=weekend'
p2816
I3479
sS'dobj=matter'
p2817
I902
sS'w-2=Liam'
p2818
I4423
sS'tmod=month'
p2819
I1893
sS'w-2=australian'
p2820
I4629
sS'conj=peaceful'
p2821
I683
sS'w-2=amount'
p2822
I4610
sS'nsubjpass=mention'
p2823
I1635
sS'w-2=strategy'
p2824
I5064
sS'w+2=vote'
p2825
I3470
sS'w+2=Johannesburg'
p2826
I2537
sS'dep=on'
p2827
I794
sS'ccomp=opposition'
p2828
I508
sS'nsubj=Center'
p2829
I1245
sS'w+2=President'
p2830
I2627
sS'dep=oh'
p2831
I793
sS'amod=fictitious'
p2832
I169
sS'w+1=now'
p2833
I2193
sS'dobj=arrest'
p2834
I845
sS'w+2=improve'
p2835
I3051
sS'nsubjpass=Delhi'
p2836
I1568
sS'w-1=IMF'
p2837
I3642
sS'w-2=Salami'
p2838
I4506
sS'w+1=most'
p2839
I2182
sS'w-2=for'
p2840
I4782
sS'w+1=smuggler'
p2841
I2279
sS'w+1=yesterday'
p2842
I2349
sS'w+1=they'
p2843
I2312
sS'w-2=Jessi'
p2844
I4399
sS'tmod=yesterday'
p2845
I1901
sS'w-2=transmitted'
p2846
I5101
sS'nsubj=victim'
p2847
I1553
sS'w-2=daughter'
p2848
I4705
sS'w-2=scathing'
p2849
I5025
sS'w+1=those'
p2850
I2314
sS'advmod=quickly'
p2851
I105
sS'w+1=involve'
p2852
I2150
sS'amod=periodic'
p2853
I233
sS'w+2=Pyongyang'
p2854
I2630
sS'advmod=daily'
p2855
I64
sS'nn=Europe'
p2856
I1020
sS'w+2=today'
p2857
I3412
sS'prep=in'
p2858
I1798
sS'w-2=Thomas'
p2859
I4544
sS'nn=subcommittee'
p2860
I1188
sS'partmod=accuse'
p2861
I1689
sS'w+2=IOM'
p2862
I2515
sS'w+2=responsibility'
p2863
I3297
sS'w-1=about'
p2864
I3823
sS'w-2=rights'
p2865
I5015
sS'w-1=Dovi'
p2866
I3598
sS'nsubj=villager'
p2867
I1554
sS'w+1=stabilize'
p2868
I2286
sS'w-2=connection'
p2869
I4693
sS'amod=own'
p2870
I231
sS'w+1=attack'
p2871
I1993
sS'w-2=groupshave'
p2872
I4803
sS'w-1=Monday'
p2873
I3695
sS'advmod=yet'
p2874
I121
sS'w+1=promptly'
p2875
I2224
sS'w+2=outbreak'
p2876
I3202
sS'w-2=Nancy-Amelia'
p2877
I4452
sS'prep=amid'
p2878
I1782
sS'w+2=deplore'
p2879
I2895
sS'dobj=gain'
p2880
I881
sS'w+2=reduction'
p2881
I3285
sS'w-1=Shearf'
p2882
I3762
sS'ccomp=tell'
p2883
I587
sS'w+2=renew'
p2884
I3292
sS'dep=bad'
p2885
I737
sS'w-1=passenger'
p2886
I4077
sS'xcomp=different'
p2887
I5179
sS'w+2=portuguese-speaking'
p2888
I3232
sS'dobj=threat'
p2889
I949
sS'w+1=several'
p2890
I2266
sS'w+2=political'
p2891
I3228
sS'w-1=bank'
p2892
I3860
sS'nn=Parliament'
p2893
I1071
sS'appos=Bowen'
p2894
I291
sS'w+2=arrest'
p2895
I2768
sS'w-1=Corben'
p2896
I3588
sS'ccomp=deteriorate'
p2897
I412
sS'xcomp=see'
p2898
I5234
sS'appos=committee'
p2899
I305
sS'w-2=north'
p2900
I4917
sS'dobj=result'
p2901
I932
sS'nsubj=GM'
p2902
I1282
sS'w+2=steady'
p2903
I3370
sS'w-2=province'
p2904
I4980
sS'w-2=overshadow'
p2905
I4937
sS'w+1=cricket'
p2906
I2049
sS'advcl=base'
p2907
I10
sS'nsubj=group'
p2908
I1480
sS'ccomp=ignore'
p2909
I467
sS'w-2=bird'
p2910
I4647
sS'w+2=Monday'
p2911
I2592
sS'w+2=start'
p2912
I3367
sS'conj=news'
p2913
I674
sS'ccomp=import'
p2914
I468
sS'w+1=agree'
p2915
I1975
sS'w-1=Group'
p2916
I3628
sS'nsubj=Mohammed'
p2917
I1344
sS'w+2=Nina-Maria'
p2918
I2607
sS'w+1=arrive'
p2919
I1988
sS'w+1=take'
p2920
I2303
sS'w-2=Newspaper'
p2921
I4459
sS'w-2=government'
p2922
I4801
sS'w-2=persistent'
p2923
I4953
sS'w+2=accept'
p2924
I2718
sS'nn=schearf'
p2925
I1181
sS'nsubj=Authorities'
p2926
I1217
sS'w-1=carmaker'
p2927
I3874
sS'w+2=sanction'
p2928
I3308
sS'det=this'
p2929
I834
sS'w-1=India'
p2930
I3646
sS'w+2=plot'
p2931
I3224
sS'amod=key'
p2932
I200
sS'w+1=thousand'
p2933
I2315
sS'nsubj=grower'
p2934
I1481
sS'w+1=we'
p2935
I2337
sS'w+1=threat'
p2936
I2316
sS'poss=#DATE#'
p2937
I1743
sS'w-1=Solutions'
p2938
I3769
sS'nsubjpass=outbreak'
p2939
I1643
sS'w-1=afternoon'
p2940
I3832
sS'w+2=News'
p2941
I2605
sS'ccomp=work'
p2942
I606
sS'w+1=receive'
p2943
I2237
sS'w+1=estimate'
p2944
I2091
sS'w-1=Pearson'
p2945
I3719
sS'nn=study'
p2946
I1187
sS'w+2=army'
p2947
I2767
sS'w-2=IOM'
p2948
I4386
sS'nsubj=Whampoa'
p2949
I1425
sS'w-1=early'
p2950
I3935
sS'w+2=fisherman'
p2951
I2981
sS'w-2=Nancy'
p2952
I4451
sS'w-2=target'
p2953
I5080
sS'mark=if'
p2954
I975
sS'rcmod=damage'
p2955
I1834
sS'mark=in'
p2956
I976
sS'w+2=worker'
p2957
I3494
sS'ccomp=erupt'
p2958
I432
sS'w+2=almost'
p2959
I2744
sS'amod=first'
p2960
I171
sS'w+2=Democrats'
p2961
I2476
sS'nsubj=Tran'
p2962
I1411
sS'w+2=not'
p2963
I3177
sS'w+2=Indonesia'
p2964
I2518
sS'w-1=formal'
p2965
I3958
sS'dobj=violation'
p2966
I953
sS'w+2=day'
p2967
I2882
sS'nsubj=Barbero'
p2968
I1222
sS'w-2=Island'
p2969
I4393
sS'amod=american'
p2970
I125
sS'w+1=compete'
p2971
I2035
sS'appos=spell'
p2972
I314
sS'w-2=Geneva'
p2973
I4356
sS'dobj=news'
p2974
I905
sS'w+2=125'
p2975
I2366
sS'rcmod=be'
p2976
I1823
sS'w-2=since'
p2977
I5043
sS'amod=#NUMBER#'
p2978
I122
sS'w+2=120'
p2979
I2365
sS'w-2=study'
p2980
I5067
sS'amod=publish'
p2981
I242
sS'dep=say'
p2982
I805
sS'ccomp=live'
p2983
I493
sS'w-1=Arabia'
p2984
I3539
sS'w+2=Afghanistan'
p2985
I2412
sS'w+2=Margaret'
p2986
I2580
sS'w-2=believe'
p2987
I4644
sS'w-2=planning'
p2988
I4955
sS'w-1=Birungi'
p2989
I3555
sS'w-1=television'
p2990
I4173
sS'w+2=killing'
p2991
I3092
sS'ccomp=move'
p2992
I501
sS'w+2=negotiation'
p2993
I3164
sS'det=these'
p2994
I833
sS'w-2=Accounting'
p2995
I4247
sS'dobj=internet'
p2996
I892
sS'w-2=disturb'
p2997
I4736
sS'nsubjpass=spokeswoman'
p2998
I1664
sS'w-2=through'
p2999
I5094
sS'w-1=Rippe'
p3000
I3738
sS'conj=clear'
p3001
I634
sS'w-1=Congo'
p3002
I3586
sS'nsubjpass=virus'
p3003
I1678
sS'nsubj=district'
p3004
I1467
sS'prep=within'
p3005
I1816
sS'w+2=regional'
p3006
I3286
sS'w+2=carmaker'
p3007
I2811
sS'xcomp=disagree'
p3008
I5180
sS'w+2=brussels-based'
p3009
I2799
sS'poss=Vitit'
p3010
I1761
sS'w+1=urge'
p3011
I2331
sS'nsubj=who'
p3012
I1557
sS'conj=tortured'
p3013
I711
sS'w+2=libertarian'
p3014
I3107
sS'w+2=Kano'
p3015
I2546
sS'w+2=journalist'
p3016
I3085
sS'w+1=Sudan'
p3017
I1954
sS'w+2=smuggling'
p3018
I3348
sS'w+2=Beijing'
p3019
I2438
sS'nsubj=bank'
p3020
I1442
sS'w-2=child'
p3021
I4674
sS'w+2=Irbil'
p3022
I2526
sS'ccomp=add'
p3023
I342
sS'w-1=positive'
p3024
I4087
sS'w+2=might'
p3025
I3139
sS'w-2=Street'
p3026
I4530
sS'w-1=detailed'
p3027
I3920
sS'w-1=Mercer'
p3028
I3689
sS'w+2=british'
p3029
I2797
sS'nsubj=intelligence'
p3030
I1488
sS'w+2=expect'
p3031
I2959
sS'rcmod=co-write'
p3032
I1829
sS'w-1=Robertson'
p3033
I3740
sS'rcmod=hold'
p3034
I1850
sS'w-1=province'
p3035
I4100
sS'w+2=release'
p3036
I3287
sS'w-2=Karzai'
p3037
I4410
sS'nsubj=party'
p3038
I1513
sS'w-1=Richardson'
p3039
I3735
sS'nsubj=Reporting'
p3040
I1370
sS'w-1=program'
p3041
I4097
sS'xcomp=sick'
p3042
I5238
sS'nsubj=authority'
p3043
I1441
sS'w+2=burma'
p3044
I2801
sS'amod=persistent'
p3045
I234
sS'xcomp=comprise'
p3046
I5170
sS'w-2=.'
p3047
I4231
sS'conj=shoot'
p3048
I704
sS'w-1=iraqi'
p3049
I4003
sS'w-2=Research'
p3050
I4495
sS'w-2=but'
p3051
I4657
sS'w-1=Malone'
p3052
I3677
sS'nsubjpass=Arabia'
p3053
I1564
sS'dep=close'
p3054
I749
sS'w-1=rand'
p3055
I4106
sS'w-1=Rosenfeld'
p3056
I3743
sS'w-2=agreement'
p3057
I4595
sS'w-1=irregularity'
p3058
I4004
sS'w+1=West'
p3059
I1963
sS'w+2=Bali'
p3060
I2430
sS'w-2=dollar'
p3061
I4739
sS'xcomp=reach'
p3062
I5227
sS'w-2=attack'
p3063
I4627
sS'amod=grow'
p3064
I183
sS'w+2=doctor'
p3065
I2915
sS'advmod=however'
p3066
I77
sS'w-2=decree'
p3067
I4715
sS'w-1=and'
p3068
I3842
sS'aux=must'
p3069
I324
sS'w+1=as'
p3070
I1990
sS'w-2=another'
p3071
I4615
sS'w+1=at'
p3072
I1992
sS'conj=get'
p3073
I652
sS'conj=comply'
p3074
I636
sS'partmod=worry'
p3075
I1741
sS'w-1=clash'
p3076
I3883
sS'w-2=Dorian'
p3077
I4328
sS'nsubj=House'
p3078
I1300
sS'amod=conflict'
p3079
I141
sS'amod=general'
p3080
I181
sS'w-1=own'
p3081
I4075
sS'partmod=assess'
p3082
I1693
sS'w+1=torrential'
p3083
I2324
sS'w-1=oral'
p3084
I4069
sS'w-1=Clark'
p3085
I3578
sS'dep=re-ignite'
p3086
I800
sS'w-2=Ayaz'
p3087
I4275
sS'w-2=Thai'
p3088
I4541
sS'w-2=bipedalism'
p3089
I4646
sS'w-1=Gates'
p3090
I3621
sS'w+2=unfair'
p3091
I3442
sS'w+2=Charles'
p3092
I2460
sS'nn=rand'
p3093
I1178
sS'w+2=Mannar'
p3094
I2578
sS'w-1=Official'
p3095
I3711
sS'w-1=can'
p3096
I3873
sS'w-2=official'
p3097
I4923
sS'advcl=introduce'
p3098
I28
sS'w-2=produce'
p3099
I4974
sS'amod=unrealistic'
p3100
I279
sS'w+2=Smith'
p3101
I2662
sS'dep=arrest'
p3102
I735
sS'w-1=false'
p3103
I3947
sS'w+2=press'
p3104
I3244
sS'advmod=earlier'
p3105
I66
sS'w-1=persistent'
p3106
I4082
sS'nn=Outlook'
p3107
I1069
sS'xcomp=lag'
p3108
I5204
sS'dobj=intimidation'
p3109
I893
sS'nsubjpass=conservative'
p3110
I1601
sS'amod=yearly'
p3111
I288
sS'w-2=August'
p3112
I4274
sS'w+2=crop'
p3113
I2875
sS'w-1=those'
p3114
I4182
sS'conj=moderate'
p3115
I673
sS'w-1=would'
p3116
I4221
sS'advmod=when'
p3117
I117
sS'det=those'
p3118
I835
sS'w+2=isolate'
p3119
I3080
sS'dep=slowly'
p3120
I808
sS'w+2=condition'
p3121
I2846
sS'w-1=infection'
p3122
I3991
sS'nsubjpass=claim'
p3123
I1599
sS'dobj=odyssey'
p3124
I907
sS'w+2=opium'
p3125
I3195
sS'amod=presidential'
p3126
I238
sS'w-2=annual'
p3127
I4614
sS'w+1=mention'
p3128
I2177
sS'w+1=venezuelan'
p3129
I2333
sS'w+2=Yogyakarta'
p3130
I2711
sS'w+2=Feith'
p3131
I2491
sS'w-2=key'
p3132
I4856
sS'nn=Wadhams'
p3133
I1110
sS'dobj=stampede'
p3134
I941
sS'w+2=dead'
p3135
I2883
sS"w-1='s"
p3136
I3501
sS'w+2=Bamako'
p3137
I2431
sS'w-2=even'
p3138
I4759
sS'w+2=Dr.'
p3139
I2478
sS'w+2=look'
p3140
I3118
sS'w-1=Elash'
p3141
I3603
sS'w+2=Cronulla'
p3142
I2469
sS'w-2=early'
p3143
I4747
sS'w-2=view'
p3144
I5128
sS'w-2=deliver'
p3145
I4718
sS'nn=panel'
p3146
I1171
sS'w-2=Shelley'
p3147
I4518
sS'w+2=finding'
p3148
I2978
sS'w-2=value'
p3149
I5122
sS'w-1=hear'
p3150
I3978
sS'nn=Bangkok'
p3151
I993
sS'nsubj=Cochrane'
p3152
I1248
sS'advmod=initially'
p3153
I80
sS'w-2=while'
p3154
I5142
sS'w-2=Commission'
p3155
I4308
sS'dep=#NUMBER#'
p3156
I723
sS'w+2=sub-Saharan'
p3157
I3375
sS'conj=wound'
p3158
I719
sS'auxpass=be'
p3159
I329
sS'w-2=second'
p3160
I5029
sS'w+2=Harare'
p3161
I2505
sS'w+2=Yemeni'
p3162
I2710
sS'w-1=into'
p3163
I3999
sS'w+1=near-nightly'
p3164
I2187
sS'w+2=Mexican'
p3165
I2583
sS'w-1=Mitchell'
p3166
I3693
sS'ccomp=improve'
p3167
I470
sS'w+1=turkish-brokered'
p3168
I2326
sS'nn=EU'
p3169
I1018
sS'w+2=after'
p3170
I2729
sS'w+2=tobacco'
p3171
I3411
sS'w+2=deliver'
p3172
I2891
sS'w+1=aggressively'
p3173
I1974
sS'w-1=solution'
p3174
I4152
sS'w-1=Index'
p3175
I3645
sS'w+2=engage'
p3176
I2945
sS'w+1=Wednesday'
p3177
I1962
sS'w+2=Phnom'
p3178
I2624
sS'advmod=officially'
p3179
I95
sS'w+2=overnight'
p3180
I3206
sS'conj=confident'
p3181
I639
sS'advmod=still'
p3182
I114
sS'w+1=next'
p3183
I2190
sS'ccomp=grow'
p3184
I451
sS'w-2=last'
p3185
I4865
sS'w+2=UNAIDS'
p3186
I2695
sS'w+1=there'
p3187
I2311
sS'prep=follow'
p3188
I1795
sS'w-1=30-page'
p3189
I3521
sS'w-1=Sciences'
p3190
I3755
sS'nsubj=Australia'
p3191
I1216
sS'w+1=give'
p3192
I2119
sS'w+1=elsewhere'
p3193
I2086
sS'nsubj=#NUMBER#'
p3194
I1205
sS'xcomp=week'
p3195
I5247
sS'w+1=massive'
p3196
I2173
sS'w+1=25'
p3197
I1916
sS'w-1=erroneous'
p3198
I3940
sS'w+2=terrorist'
p3199
I3393
sS'w-1=Heilmann'
p3200
I3632
sS'ccomp=shatter'
p3201
I562
sS'w-2=Syria'
p3202
I4533
sS'w+1=its'
p3203
I2155
sS'w+2=elevate'
p3204
I2939
sS'w+2=anticipated'
p3205
I2759
sS'nsubj=Shearf'
p3206
I1392
sS'ccomp=pose'
p3207
I517
sS'w+2=extremist'
p3208
I2964
sS'w-2=Hutchinson'
p3209
I4381
sS'ccomp=agree'
p3210
I346
sS'dep=prevent'
p3211
I798
sS'dobj=what'
p3212
I957
sS'w-2=local'
p3213
I4875
sS"w-1=''"
p3214
I3500
sS'w+1=General'
p3215
I1939
sS'ccomp=treat'
p3216
I591
sS'w+1=u.s'
p3217
I2328
sS'w+1=periodically'
p3218
I2211
sS'nsubj=Heinlein'
p3219
I1294
sS'nsubjpass=#NUMBER#'
p3220
I1561
sS'w+2=intimidation'
p3221
I3072
sS'w+2=application'
p3222
I2764
sS'w-2=William'
p3223
I4567
sS'w-2=place'
p3224
I4954
sS'w-2=most'
p3225
I4902
sS'w+2=iTunes'
p3226
I3045
sS'w+2=though'
p3227
I3404
sS'poss=Britain'
p3228
I1748
sS'w-2=-'
p3229
I4229
sS'ccomp=quote'
p3230
I526
sS'nsubj=Mike'
p3231
I1342
sS'w+2=federation'
p3232
I2970
sS'nn=Refugees'
p3233
I1079
sS'w+2=letter'
p3234
I3106
sS'w-1=July'
p3235
I3657
sS'nsubj=airport'
p3236
I1434
sS'w+2=peace'
p3237
I3212
sS'w-1=UNDP'
p3238
I3791
sS'w+1=provide'
p3239
I2226
sS'w+1=2003'
p3240
I1915
sS'poss=U.N.'
p3241
I1757
sS'nsubjpass=man'
p3242
I1631
sS'nsubj=this'
p3243
I1548
sS'nsubj=ICRC'
p3244
I1301
sS'w+2=one-sided'
p3245
I3192
sS'w+2=March'
p3246
I2579
sS'nn=Nations'
p3247
I1061
sS'nsubjpass=Bush'
p3248
I1565
sS'w-2=Crescent'
p3249
I4311
sS'w-2=stress'
p3250
I5066
sS'nsubjpass=hiv'
p3251
I1621
sS'w+1=Ian'
p3252
I1941
sS'nsubjpass=Shops'
p3253
I1575
sS'w+1=plan'
p3254
I2214
sS'w+2=grassroot'
p3255
I3013
sS'amod=major'
p3256
I210
sS'w-1=every'
p3257
I3943
sS'w+2=separatist'
p3258
I3325
sS'w+2=make'
p3259
I3125
sS'nsubj=Liberian'
p3260
I1323
sS'ccomp=accelerate'
p3261
I338
sS'nsubj=#DATE#'
p3262
I1204
sS'infmod=affect'
p3263
I963
sS'w-1=shop'
p3264
I4145
sS'w+2=Honolulu'
p3265
I2509
sS'w-1=department'
p3266
I3918
sS'dep=both'
p3267
I741
sS'w+2=India'
p3268
I2517
sS'w-1=Indicators'
p3269
I3647
sS'w-2=hear'
p3270
I4808
sS'w+2=grow'
p3271
I3017
sS'xcomp=low'
p3272
I5208
sS'nsubj=Costa'
p3273
I1258
sS'nsubj=Bureau'
p3274
I1239
sS'w+2=125,000'
p3275
I2367
sS'w+2=Human'
p3276
I2512
sS'w+2=examine'
p3277
I2957
sS'w-2=write'
p3278
I5153
sS'conj=look'
p3279
I671
sS'nsubj=outlet'
p3280
I1511
sS'w+2=american'
p3281
I2750
sS'w+2=recommend'
p3282
I3280
sS'xcomp=Multan'
p3283
I5155
sS'nn=Petraeus'
p3284
I1075
sS'tmod=weekend'
p3285
I1899
sS'w-1=Senate'
p3286
I3758
sS'nn=U.S.'
p3287
I1096
sS'w-1=servant'
p3288
I4140
sS'amod=scandalous'
p3289
I251
sS'w-1=believe'
p3290
I3862
sS'w-2=Rights'
p3291
I4497
sS'w-2=candidate'
p3292
I4662
sS'w+2=Kigali'
p3293
I2556
sS'w+1=yet'
p3294
I2350
sS'dobj=datum'
p3295
I860
sS'w+2=replace'
p3296
I3293
sS'dobj=damage'
p3297
I859
sS'ccomp=peaceful'
p3298
I513
sS'w-1=nurse'
p3299
I4057
sS'w+1=cite'
p3300
I2028
sS'w-1=witness'
p3301
I4219
sS'w-2=Zimbabwe'
p3302
I4574
sS'nn=America'
p3303
I989
sS'xcomp=stay'
p3304
I5242
sS'w-2=pregnant'
p3305
I4963
sS'w-1=WTO'
p3306
I3802
sS'w-2=Madhur'
p3307
I4431
sS'w-1=by'
p3308
I3870
sS'w+2=there'
p3309
I3399
sS'appos=official'
p3310
I310
sS'ccomp=wound'
p3311
I610
sS'partmod=disappear'
p3312
I1705
sS'w-2=describe'
p3313
I4723
sS'w+1=sudanese'
p3314
I2297
sS'w-2=newly'
p3315
I4909
sS'w-2=she'
p3316
I5039
sS'w+2=17'
p3317
I2370
sS'w+2=compile'
p3318
I2841
sS'w+2=broken'
p3319
I2798
sS'w+2=entitle'
p3320
I2946
sS'w+1=because'
p3321
I2000
sS'w+1=survey'
p3322
I2301
sS'w+2=government-sponsored'
p3323
I3011
sS'w+2=every'
p3324
I2953
sS'w-2=Liz'
p3325
I4426
sS'w-1=result'
p3326
I4120
sS'w-2=Peta'
p3327
I4478
sS'w-2=heavily'
p3328
I4809
sS'ccomp=bring'
p3329
I368
sS'w+2=politics'
p3330
I3229
sS'w+2=South'
p3331
I2666
sS'ccomp=hardy'
p3332
I455
sS'ccomp=attend'
p3333
I357
sS'w+2=healing'
p3334
I3026
sS'w+2=much'
p3335
I3155
sS'w-2=breakthrough'
p3336
I4652
sS'w-1=Nigeria'
p3337
I3706
sS'w+2=otherwise'
p3338
I3200
sS'mark=though'
p3339
I978
sS'partmod=entitle'
p3340
I1707
sS'w-2=FAO'
p3341
I4344
sS'ccomp=ready'
p3342
I531
sS'nsubjpass=Iran'
p3343
I1571
sS'amod=semi-annual'
p3344
I258
sS'nsubj=Odierno'
p3345
I1356
sS'nsubjpass=cave'
p3346
I1594
sS'w-2=Bankers'
p3347
I4278
sS'nsubj=half'
p3348
I1482
sS'ccomp=respond'
p3349
I545
sS'w-1=Morley'
p3350
I3697
sS'w-1=official'
p3351
I4061
sS'rcmod=release'
p3352
I1873
sS'w-2=forum'
p3353
I4787
sS'advmod=even'
p3354
I69
sS'ccomp=involve'
p3355
I482
sS'w+2=gunman'
p3356
I3019
sS'amod=audio'
p3357
I130
sS'w-2=camp'
p3358
I4660
sS'w+1=outright'
p3359
I2205
sS'w+2=unit'
p3360
I3444
sS'w+1=decline'
p3361
I2060
sS'w+1=donation'
p3362
I2073
sS'infmod=read'
p3363
I968
sS'w+2=June'
p3364
I2542
sS'w+1=high'
p3365
I2128
sS'w+1=repeatedly'
p3366
I2247
sS'dep=compile'
p3367
I750
sS'w+2=Taleban'
p3368
I2678
sS'w-2=interested'
p3369
I4837
sS'w-2=Timor'
p3370
I4548
sS'w+2=cholera'
p3371
I2822
sS'w-2=internally'
p3372
I4840
sS'w+2=commercial'
p3373
I2836
sS'dobj=kidnapping'
p3374
I896
sS'aux=will'
p3375
I327
sS'nn=Reader'
p3376
I1077
sS'w-2=complete'
p3377
I4689
sS'w-1=September'
p3378
I3759
sS'ccomp=get'
p3379
I447
sS'xcomp=flee'
p3380
I5190
sS'w+2=Javier'
p3381
I2534
sS'w+2=malnutrition'
p3382
I3126
sS'w+1=2.6'
p3383
I1914
sS'w+2=culture'
p3384
I2877
sS'w-2=tsunami'
p3385
I5105
sS'w-2=know'
p3386
I4860
sS'rcmod=displace'
p3387
I1835
sS'w+1=diversity'
p3388
I2069
sS'w-1=arrival'
p3389
I3851
sS'w+1=extreme'
p3390
I2099
sS'dep=soldier'
p3391
I809
sS'prep=with'
p3392
I1815
sS'nsubj=Bertel'
p3393
I1226
sS'nsubj=tv'
p3394
I1552
sS'w-2=online'
p3395
I4927
sS'w+1=dynamite'
p3396
I2078
sS'dobj=stress'
p3397
I944
sS'w+2=lead'
p3398
I3099
sS'conj=share'
p3399
I703
sS'amod=previous'
p3400
I239
sS'w+2=grave'
p3401
I3014
sS'nsubj=Robinson'
p3402
I1378
sS'nsubjpass=none'
p3403
I1639
sS'w-1=Fund'
p3404
I3617
sS'w+1=figure'
p3405
I2101
sS'w-2=publish'
p3406
I4983
sS'w-1=critical'
p3407
I3908
sS'w-2=May'
p3408
I4441
sS'partmod=allege'
p3409
I1691
sS'w-1=on-scene'
p3410
I4065
sS'w-2=rise'
p3411
I5017
sS'w-1=FAO'
p3412
I3605
sS'w-2=relieve'
p3413
I5002
sS'advcl=support'
p3414
I43
sS'w+2=highlight'
p3415
I3033
sS'w+1=bird'
p3416
I2006
sS'w+1=outstandingly'
p3417
I2206
sS'w-1=recently'
p3418
I4111
sS'w-2=care'
p3419
I4664
sS'w-1=military'
p3420
I4033
sS'nsubj=service'
p3421
I1535
sS'nn=television'
p3422
I1192
sS'w-2=victim'
p3423
I5126
sS'w-2=knob'
p3424
I4859
sS'w-2=Edward'
p3425
I4333
sS'w-2=opposition'
p3426
I4930
sS'w-1=Social'
p3427
I3767
sS'w+2=do'
p3428
I2914
sS'nsubjpass=number'
p3429
I1640
sS'w-2=due'
p3430
I4745
sS'rcmod=expect'
p3431
I1840
sS'w+2=say'
p3432
I3311
sS'w+1=demand'
p3433
I2062
sS'w-1=agency'
p3434
I3833
sS'w-2=suggest'
p3435
I5070
sS'w+2=Kremlin'
p3436
I2564
sS'nsubj=Teeple'
p3437
I1405
sS'w+2=step'
p3438
I3371
sS'w+1=America'
p3439
I1931
sS'w-2=Tendai'
p3440
I4538
sS'w-2=hit'
p3441
I4813
sS'nsubj=Nagano'
p3442
I1348
sS'w+2=prepared'
p3443
I3241
sS'w+2=Tuareg'
p3444
I2689
sS'dobj=truth'
p3445
I950
sS'nn=Commission'
p3446
I1009
sS'w-2=vaccineSaudi'
p3447
I5121
sS'w+2=seek'
p3448
I3321
sS'det=both'
p3449
I827
sS'nsubj=au'
p3450
I1440
sS'w+2=newly-laid'
p3451
I3168
sS'dobj=reduction'
p3452
I929
sS'ccomp=order'
p3453
I509
sS'nn=Gentile'
p3454
I1026
sS'nn=ship'
p3455
I1184
sS'nsubjpass=talk'
p3456
I1669
sS'w+1=rape'
p3457
I2233
sS'w+2=fraud'
p3458
I2994
sS'w-2=up'
p3459
I5115
sS'w-1=any'
p3460
I3847
sS'w+2=Obama'
p3461
I2613
sS'nsubj=Association'
p3462
I1215
sS'w+2=announcement'
p3463
I2755
sS'amod=current'
p3464
I148
sS'xcomp=own'
p3465
I5215
sS'w+1=critical'
p3466
I2051
sS'w-2=palace'
p3467
I4940
sS'conj=die'
p3468
I643
sS'w-1=Uganda'
p3469
I3796
sS'nsubjpass=Patarkatsishvili'
p3470
I1573
sS'w-2=Post'
p3471
I4486
sS'xcomp=soften'
p3472
I5240
sS'mark=because'
p3473
I973
sS'appos=state'
p3474
I315
sS'w-2=IAEA'
p3475
I4383
sS'infmod=come'
p3476
I964
sS'w+1=increase'
p3477
I2141
sS'nsubj=Fund'
p3478
I1281
sS'xcomp=kilometer'
p3479
I5203
sS'w-1=include'
p3480
I3988
sS'w-2=GAO'
p3481
I4352
sS'w-1=Security'
p3482
I3757
sS'w+2=criticize'
p3483
I2874
sS'w-1=Ramiah'
p3484
I3730
sS'w-1=Winograd'
p3485
I3814
sS'conj=official'
p3486
I676
sS'nsubj=LisaBryant'
p3487
I1324
sS'cc=and'
p3488
I330
sS'nsubj=ranger'
p3489
I1526
sS'w+2=Shanghai'
p3490
I2659
sS'w+2=February'
p3491
I2489
sS'w+2=recuperate'
p3492
I3284
sS'amod=brief'
p3493
I135
sS'nsubjpass=official'
p3494
I1641
sS'w-1=yearly'
p3495
I4222
sS'w-2=productivity'
p3496
I4975
sS'conj=kick'
p3497
I664
sS'w+1=by'
p3498
I2016
sS'w+1=robbery'
p3499
I2253
sS'rcmod=express'
p3500
I1841
sS'w+2=community'
p3501
I2838
sS'nsubj=Pasricha'
p3502
I1360
sS'w+2=Moscow'
p3503
I2593
sS'nn=eyewitness'
p3504
I1148
sS'w+2=sale'
p3505
I3307
sS'w-2=police'
p3506
I4958
sS'w-2=Asharqalawsat'
p3507
I4272
sS'ccomp=surface'
p3508
I581
sS'w+2=Islamabadthe'
p3509
I2528
sS'w-2=declare'
p3510
I4714
sS'nsubjpass=assault'
p3511
I1584
sS'w-2=war'
p3512
I5132
sS'w+1=intimidation'
p3513
I2148
sS'conj=say'
p3514
I699
sS'amod=negative'
p3515
I219
sS'dobj=difference'
p3516
I867
sS'w-2=something'
p3517
I5052
sS'w+2=economy'
p3518
I2933
sS'advmod=anytime'
p3519
I58
sS'ccomp=plunge'
p3520
I516
sS'tmod=year'
p3521
I1900
sS'w-1=downplay'
p3522
I3930
sS'w+1=-lrb-'
p3523
I1907
sS'amod=western'
p3524
I285
sS'nsubj=rights'
p3525
I1532
sS'w-2=fire'
p3526
I4775
sS'w+2=Syria'
p3527
I2676
sS'w+1=health'
p3528
I2125
sS'ccomp=suggest'
p3529
I580
sS'xcomp=kidnap'
p3530
I5201
sS'w+2=violence'
p3531
I3464
sS'w-2=Heda'
p3532
I4370
sS'amod=undercover'
p3533
I277
sS'w+2=toll'
p3534
I3413
sS'w+2=family'
p3535
I2967
sS'w+1=into'
p3536
I2149
sS'w-1=Initiative'
p3537
I3648
sS'w-2=Siemens'
p3538
I4519
sS'advcl=approach'
p3539
I7
sS'w-2=set'
p3540
I5036
sS'w+1=voter'
p3541
I2335
sS'nsubjpass=dengue'
p3542
I1607
sS'w-1=Beattie'
p3543
I3550
sS'w-1=Outlook'
p3544
I3713
sS'w-1=credit'
p3545
I3907
sS'w-2=party'
p3546
I4945
sS'amod=internal'
p3547
I194
sS'w-2=category'
p3548
I4668
sS'w-2=schedule'
p3549
I5026
sS'nsubjpass=protest'
p3550
I1651
sS'aux=could'
p3551
I320
sS'w-1=company'
p3552
I3890
sS'w-2=find'
p3553
I4773
sS'tmod=week'
p3554
I1898
sS'w-2=detention'
p3555
I4727
sS'w+1=-rrb-'
p3556
I1908
sS'w-2=echo'
p3557
I4749
sS'w-1=service'
p3558
I4141
sS'w-1=final'
p3559
I3952
sS'w+2=secret'
p3560
I3317
sS'w+1=lay'
p3561
I2162
sS'w-1=Achin'
p3562
I3530
sS'nsubj=Swicord'
p3563
I1402
sS'w+1=place'
p3564
I2213
sS'w-2=these'
p3565
I5087
sS'w-1=130-page'
p3566
I3509
sS'ccomp=link'
p3567
I492
sS'dobj=outbreak'
p3568
I910
sS'w+2=25'
p3569
I2382
sS'amod=provisional'
p3570
I241
sS'w+2=China'
p3571
I2461
sS'nn=empowerment'
p3572
I1146
sS'w-2=amid'
p3573
I4606
sS'w+2=concern'
p3574
I2842
sS'w-2=Paige'
p3575
I4472
sS'w+1=focus'
p3576
I2105
sS'ccomp=unlikely'
p3577
I594
sS'amod=numerous'
p3578
I224
sS'w-2=Julie'
p3579
I4404
sS'xcomp=be'
p3580
I5162
sS'nn=Zimbabwe'
p3581
I1116
sS'w-2=egyptian'
p3582
I4752
sS'nsubjpass=fighter'
p3583
I1613
sS'nsubj=negotiator'
p3584
I1501
sS'w-2=Baghdad'
p3585
I4276
sS'ccomp=sheltered'
p3586
I564
sS'w-2=not'
p3587
I4918
sS'nsubj=Whitman'
p3588
I1426
sS'w-1=disturbing'
p3589
I3927
sS'amod=scientific'
p3590
I254
sS'prep=of'
p3591
I1803
sS'amod=such'
p3592
I269
sS'w+2=appear'
p3593
I2763
sS'nsubj=radio'
p3594
I1524
sS'w-1=science-based'
p3595
I4130
sS'w-2=daily'
p3596
I4704
sS'w-2=Katie'
p3597
I4411
sS'prep=on'
p3598
I1805
sS'w+2=project'
p3599
I3254
sS'nn=WWF'
p3600
I1109
sS'w-1=Nations'
p3601
I3702
sS'w-1=rape'
p3602
I4108
sS'w+2=anywhere'
p3603
I2761
sS'w-2=with'
p3604
I5148
sS'amod=military'
p3605
I216
sS'xcomp=fight'
p3606
I5187
sS'partmod=receive'
p3607
I1728
sS'rcmod=help'
p3608
I1848
sS'nn=Migration'
p3609
I1057
sS'w+2=Prime'
p3610
I2628
sS'w-1=Billinghurst'
p3611
I3554
sS'w+1=80'
p3612
I1926
sS"w-2=''"
p3613
I4226
sS'dep=ask'
p3614
I736
sS'w-2=bite'
p3615
I4648
sS'nn=ambassador'
p3616
I1122
sS'w-2=Armed'
p3617
I4271
sS'w-2=fighter'
p3618
I4770
sS'w+2=consumption'
p3619
I2852
sS'w-2=where'
p3620
I5140
sS'w-2=monitor'
p3621
I4898
sS'w+2=Romania'
p3622
I2639
sS'dep=have'
p3623
I771
sS'dobj=fighting'
p3624
I876
sS'xcomp=seek'
p3625
I5235
sS'nn=defense'
p3626
I1140
sS'w+2=offensive'
p3627
I3186
sS'nsubj=investigation'
p3628
I1489
sS'ccomp=reach'
p3629
I530
sS'rcmod=analyze'
p3630
I1820
sS'w+2=evidence'
p3631
I2955
sS'ccomp=trickle'
p3632
I592
sS'w-1=census'
p3633
I3878
sS'nsubj=woman'
p3634
I1559
sS'nsubj=Latham'
p3635
I1322
sS'amod=critical'
p3636
I147
sS'nsubj=incident'
p3637
I1486
sS'nsubjpass=battle'
p3638
I1587
sS'nn=Villarreal'
p3639
I1106
sS'advmod=separately'
p3640
I109
sS'appos=manufacturer'
p3641
I309
sS'w+2=that'
p3642
I3396
sS'w-2=questionable'
p3643
I4986
sS'amod=initial'
p3644
I192
sS'w-2=leak'
p3645
I4868
sS'nn=Group'
p3646
I1028
sS'ccomp=rally'
p3647
I528
sS'partmod=bring'
p3648
I1696
sS'nn=Crocker'
p3649
I1013
sS'w-1=Wilkison'
p3650
I3813
sS'w-1=Chislett'
p3651
I3577
sS'w-1=FitzPatrick'
p3652
I3614
sS'nn=conference'
p3653
I1135
sS'w-2=week'
p3654
I5136
sS'w+2=despite'
p3655
I2898
sS'w+2=yet'
p3656
I3497
sS'w-1=produce'
p3657
I4096
sS'nsubjpass=southeast'
p3658
I1662
sS'w-1=leader'
p3659
I4017
sS'w-2=no'
p3660
I4914
sS'advcl=present'
p3661
I34
sS'nn=#DATE#'
p3662
I984
sS'advcl=leadersagree'
p3663
I30
sS'w+2=sighting'
p3664
I3337
sS'w-2=system'
p3665
I5076
sS'nn=Solutions'
p3666
I1086
sS'advcl=say'
p3667
I38
sS'w+2=discuss'
p3668
I2909
sS'w-1=of'
p3669
I4059
sS'nsubj=police'
p3670
I1518
sS'ccomp=attract'
p3671
I358
sS'w+2=fight'
p3672
I2973
sS'w+2=Madlala-Routledge'
p3673
I2575
sS'conj=go'
p3674
I653
sS'nn=Children'
p3675
I1007
sS'w-2=follow'
p3676
I4781
sS'ccomp=provoke'
p3677
I523
sS"nn=O'Sullivan"
p3678
I1065
sS'det=that'
p3679
I831
sS'dep=Bacar'
p3680
I725
sS'w-2=file'
p3681
I4772
sS'w-1=Bos'
p3682
I3561
sS'advmod=actually'
p3683
I51
sS'w-2=intelligence'
p3684
I4835
sS'w+2=note'
p3685
I3178
sS'w+1=examine'
p3686
I2093
sS'rcmod=make'
p3687
I1860
sS'nsubj=Tate'
p3688
I1404
sS'w+1=first'
p3689
I2104
sS'w+1=this'
p3690
I2313
sS'w+2=mandate'
p3691
I3127
sS'w+2=Preah'
p3692
I2626
sS'w+2=dangerous'
p3693
I2880
sS'nsubj=Bickers'
p3694
I1227
sS'w-1=Farris'
p3695
I3607
sS'w+2=86'
p3696
I2405
sS'w-1=Blume'
p3697
I3558
sS'poss=Union'
p3698
I1759
sS'w-2=speak'
p3699
I5055
sS'w+2=WTO'
p3700
I2704
sS'xcomp=experience'
p3701
I5186
sS'w+2=discourage'
p3702
I2907
sS'appos=bid'
p3703
I302
sS'w+1=suggest'
p3704
I2298
sS'conj=breakdown'
p3705
I629
sS'w+2=investment'
p3706
I3075
sS'w+1=North'
p3707
I1948
sS'rcmod=that'
p3708
I1885
sS'w-2=will'
p3709
I5144
sS'w+2=record'
p3710
I3282
sS'w+2=ten'
p3711
I3392
sS'w+2=America'
p3712
I2418
sS'w+2=leader'
p3713
I3100
sS'w-2=coincide'
p3714
I4682
sS'w+2=apparently'
p3715
I2762
sS'w-1=Sisco'
p3716
I3766
sS'dobj=rate'
p3717
I927
sS'w+2=syrian'
p3718
I3387
sS'w+2=climate'
p3719
I2828
sS'w+2=White'
p3720
I2709
sS'nsubj=Worth'
p3721
I1428
sS'dobj=attempt'
p3722
I847
sS'w-1=torture'
p3723
I4185
sS'amod=controversial'
p3724
I145
sS'w-1=Refugees'
p3725
I3733
sS'w-2=concerned'
p3726
I4691
sS'prep=among'
p3727
I1783
sS'nn=team'
p3728
I1191
sS'w+2=victory'
p3729
I3458
sS'w+2=Bush'
p3730
I2449
sS'partmod=say'
p3731
I1731
sS'nsubj=Rivers'
p3732
I1376
sS'w-2=now'
p3733
I4919
sS'w-1=last'
p3734
I4014
sS'nsubjpass=resolution'
p3735
I1652
sS'w-1=UNICEF'
p3736
I3794
sS'ccomp=demand'
p3737
I406
sS'w-2=proposal'
p3738
I4977
sS'amod=human'
p3739
I187
sS'amod=full'
p3740
I179
sS'w-2=trail'
p3741
I5100
sS'w+2=exaggerate'
p3742
I2956
sS'ccomp=burn'
p3743
I369
sS'dep=a'
p3744
I730
sS'nn=government'
p3745
I1152
sS'w-1=also'
p3746
I3838
sS'amod=interim'
p3747
I193
sS'w+1=surface'
p3748
I2300
sS'w+1=quote'
p3749
I2230
sS'w+2=inaccurate'
p3750
I3054
sS'nsubj=Palus'
p3751
I1359
sS'w+2=french'
p3752
I2995
sS'w+1=due'
p3753
I2076
sS'w+2=root'
p3754
I3304
sS'w+1=during'
p3755
I2077
sS'w-2=Petraeus'
p3756
I4480
sS'nn=Organization'
p3757
I1068
sS'conj=add'
p3758
I618
sS'w-2=Dakar'
p3759
I4318
sS'w+1=change'
p3760
I2024
sS'w-2=Philip'
p3761
I4482
sS'nsubj=Migiro'
p3762
I1341
sS'w-2=reject'
p3763
I5000
sS'dep=hoard'
p3764
I775
sS'w-2=Simon'
p3765
I4520
sS'w-2=afternoon'
p3766
I4590
sS'ccomp=consider'
p3767
I393
sS'w-2=economic'
p3768
I4750
sS'det=a'
p3769
I823
sS'dep=for'
p3770
I763
sS'w-2=Israel'
p3771
I4394
sS'w-2=death'
p3772
I4710
sS'w-2=precede'
p3773
I4962
sS'conj=consider'
p3774
I640
sS'w+2=finances'
p3775
I2975
sS'w+1=expose'
p3776
I2096
sS'w+2=election'
p3777
I2937
sS'w+1=time'
p3778
I2321
sS'tmod=co-exist'
p3779
I1891
sS'w+1=manyanalyst'
p3780
I2171
sS'amod=independent'
p3781
I190
sS'w+2=death'
p3782
I2885
sS'nn=Center'
p3783
I1006
sS'w-2=Bush'
p3784
I4286
sS'nn=Drew'
p3785
I1017
sS'w+2=speculation'
p3786
I3361
sS'w-2=include'
p3787
I4825
sS'partmod=highlight'
p3788
I1712
sS'nn=Mort'
p3789
I1059
sS'nsubj=Wagner'
p3790
I1421
sS'w-2=source'
p3791
I5053
sS'w+2=least'
p3792
I3102
sS'w-1=provide'
p3793
I4099
sS'advmod=immediately'
p3794
I78
sS'w+2=drug'
p3795
I2924
sS'nn=Amnesty'
p3796
I990
sS'w-2=casualty'
p3797
I4667
sS'nn=administration'
p3798
I1118
sS'w-2=major'
p3799
I4880
sS'w-1=policy'
p3800
I4085
sS'w+2=devastate'
p3801
I2899
sS'nsubj=Department'
p3802
I1263
sS'w-1=House'
p3803
I3637
sS'w+1=document'
p3804
I2071
sS'nsubj=Dabo'
p3805
I1261
sS'w+2=due'
p3806
I2925
sS'w+1=illegal'
p3807
I2137
sS'w-2=Science'
p3808
I4511
sS'w+1=initially'
p3809
I2145
sS'w+2=Eritrea'
p3810
I2482
sS'xcomp=address'
p3811
I5158
sS'w-1=police'
p3812
I4084
sS'nsubjpass=eviction'
p3813
I1611
sS'w-2=woman'
p3814
I5149
sS'w-1=Wellman'
p3815
I3810
sS'xcomp=climb'
p3816
I5166
sS'w-1=Cochrane'
p3817
I3579
sS'acomp=dead'
p3818
I2
sS'w-2=Tom'
p3819
I4549
sS'w+2=have'
p3820
I3023
sS'w+1=one-third'
p3821
I2199
sS'amod=scout'
p3822
I255
sS'w-2=near'
p3823
I4906
sS'dobj=patrolling'
p3824
I912
sS'w-1=Media'
p3825
I3686
sS'w-1=Mort'
p3826
I3698
sS'w-1=Watch'
p3827
I3807
sS'w-2=Ron'
p3828
I4500
sS'dobj=reaction'
p3829
I928
sS'w-2=Angola'
p3830
I4263
sS'w+1=result'
p3831
I2251
sS'w-1=increase'
p3832
I3989
sS'ccomp=process'
p3833
I520
sS'w+2=Cape'
p3834
I2455
sS'w+1=late'
p3835
I2160
sS'w-1=widely'
p3836
I4214
sS'w-2=protest'
p3837
I4978
sS'xcomp=compete'
p3838
I5169
sS'ccomp=assume'
p3839
I356
sS'amod=rights'
p3840
I249
sS'w+2=than'
p3841
I3395
sS'w+2=heavily-armed'
p3842
I3027
sS'w-1=interior'
p3843
I3997
sS'nsubj=patient'
p3844
I1514
sS'w-1=Bowman'
p3845
I3563
sS'w-1=government'
p3846
I3968
sS'w-2=Thornycroft'
p3847
I4545
sS'w-2=awareness'
p3848
I4633
sS'w-1=FBI'
p3849
I3606
sS'w+2=Steve'
p3850
I2671
sS'w-2=Paula'
p3851
I4476
sS'w+2=Tuesday'
p3852
I2690
sS'w+2=Senegal'
p3853
I2656
sS'w+1=rapid'
p3854
I2234
sS'w-2=game'
p3855
I4795
sS'conj=resume'
p3856
I696
sS'conj=project'
p3857
I685
sS'w-2=Esele'
p3858
I4339
sS'nn=secretary'
p3859
I1182
sS'w-2=unable'
p3860
I5114
sS'w+1=better-than-expected'
p3861
I2004
sS'nsubjpass=use'
p3862
I1676
sS'w-2=February'
p3863
I4346
sS'amod=further'
p3864
I180
sS'ccomp=issue'
p3865
I483
sS'w-2=30'
p3866
I4239
sS'w+2=Kochi'
p3867
I2560
sS'conj=orderly'
p3868
I679
sS'w+2=campaign'
p3869
I2809
sS'amod=free'
p3870
I177
sS'w-2=swirl'
p3871
I5075
sS'w+2=name'
p3872
I3158
sS'dep=response'
p3873
I804
sS'partmod=issue'
p3874
I1716
sS'w-1=investigative'
p3875
I4001
sS'amod=just-published'
p3876
I199
sS'poss=week'
p3877
I1774
sS'w+2=iraqi'
p3878
I3078
sS'w+2=type'
p3879
I3433
sS'w+2=68h'
p3880
I2402
sS'w+1=conduct'
p3881
I2040
sS'w+1=represent'
p3882
I2248
sS'w+2=thousand'
p3883
I3405
sS'w-1=for'
p3884
I3956
sS'nsubj=colonel'
p3885
I1450
sS'partmod=quote'
p3886
I1727
sS'ccomp=follow'
p3887
I443
sS'w-2=region'
p3888
I4999
sS'w+2=provide'
p3889
I3258
sS'w+2=most'
p3890
I3152
sS'advmod=elsewhere'
p3891
I68
sS'rcmod=due'
p3892
I1838
sS'w+2=partly'
p3893
I3211
sS'w+2=fault'
p3894
I2969
sS'w-2=excellent'
p3895
I4760
sS'nsubj=Popiolkowski'
p3896
I1364
sS'w-2=staging'
p3897
I5059
sS'w-1=U.S.'
p3898
I3789
sS'w+1=propose'
p3899
I2225
sS'prep=during'
p3900
I1794
sS'w-1=earnings'
p3901
I3936
sS'conj=include'
p3902
I655
sS'w+2=take'
p3903
I3388
sS'w+2=photograph'
p3904
I3218
sS'nsubj=Ryu'
p3905
I1381
sS'w+2=per'
p3906
I3214
sS'w+1=higher'
p3907
I2129
sS'nn=Oxfam'
p3908
I1070
sS'w+1=note'
p3909
I2192
sS'w-2=periodically'
p3910
I4951
sS'w+2=spark'
p3911
I3359
sS'poss=paper'
p3912
I1771
sS'xcomp=hear'
p3913
I5194
sS'w-1=publish'
p3914
I4102
sS'w-2=Michael'
p3915
I4444
sS'w-1=on'
p3916
I4064
sS'w+2=monitor'
p3917
I3148
sS'w-2=flatly'
p3918
I4779
sS'w-1=soon-to-be-released'
p3919
I4155
sS'nn=Brown'
p3920
I1001
sS'w+2=improvement'
p3921
I3052
sS'nsubj=organization'
p3922
I1509
sS'w-1=not'
p3923
I4053
sS'amod=immediate'
p3924
I188
sS'w-1=newest'
p3925
I4047
sS'w-2=David'
p3926
I4321
sS'ccomp=vow'
p3927
I599
sS'w-1=success'
p3928
I4165
sS'ccomp=see'
p3929
I556
sS'nn=Watch'
p3930
I1111
sS'w+1=vote'
p3931
I2334
sS'nsubjpass=name'
p3932
I1638
sS'aux=be'
p3933
I318
sS'nsubj=rancher'
p3934
I1525
sS'w+1=possible'
p3935
I2215
sS'dobj=half'
p3936
I883
sS'w-2=challenge'
p3937
I4672
sS'w+2=ElBaradei'
p3938
I2481
sS"w-2='s"
p3939
I4227
sS'w+2=Thiaroye'
p3940
I2684
sS'w-2=there'
p3941
I5086
sS'amod=small'
p3942
I264
sS'prep=before'
p3943
I1788
sS'w+2=full'
p3944
I3000
sS'conj=concerned'
p3945
I637
sS'w+2=turnout'
p3946
I3431
sS'w+2=rwandan'
p3947
I3306
sS'nsubj=Dovi'
p3948
I1265
sS'w+2=Sarkozy'
p3949
I2650
sS'w-1=require'
p3950
I4117
sS'ccomp=call'
p3951
I370
sS'w-2=ammunition'
p3952
I4607
sS'w+2=irregularity'
p3953
I3079
sS'w-2=organization'
p3954
I4932
sS'w+2=ethiopian'
p3955
I2950
sS'w-1=Newhouse'
p3956
I3703
sS'w-2=document'
p3957
I4738
sS'w-1=Ferdinando'
p3958
I3612
sS'w+2=daily'
p3959
I2878
sS'w+2=narrate'
p3960
I3161
sS'amod=due'
p3961
I154
sS'w+2=FDI'
p3962
I2487
sS'w-2=misleading'
p3963
I4897
sS'w+1=crime'
p3964
I2050
sS'ccomp=enter'
p3965
I430
sS'nn=correspondent'
p3966
I1136
sS'w-2=acknowledge'
p3967
I4580
sS'advcl=have'
p3968
I27
sS'nsubj=broadcaster'
p3969
I1444
sS'w+2=number'
p3970
I3181
sS'w-1=Sachs'
p3971
I3746
sS'w-2=Siri'
p3972
I4521
sS'w-2=election'
p3973
I4753
sS'w-2=ElBaradei'
p3974
I4336
sS'w-2=review'
p3975
I5013
sS'w-1=Khan'
p3976
I3661
sS'amod=unanimous'
p3977
I275
sS'prep=that'
p3978
I1811
sS'w-1=Whitman'
p3979
I3812
sS'w+2=25,000'
p3980
I2383
sS'w+2=use'
p3981
I3454
sS'w-1=UNRWA'
p3982
I3795
sS'w-1=mission'
p3983
I4035
sS'w-2=just'
p3984
I4855
sS'w+2=conclusion'
p3985
I2844
sS'w-2=;'
p3986
I4243
sS'w-2=slowdown'
p3987
I5047
sS'nsubj=Fell'
p3988
I1277
sS'nsubj=Gates'
p3989
I1284
sS'w-2=thing'
p3990
I5089
sS'w+1=Bacar'
p3991
I1932
sS'w-2=directly'
p3992
I4728
sS'w+2=Beijing.Jean-Pierre'
p3993
I2439
sS'w-2=they'
p3994
I5088
sS'prep=than'
p3995
I1810
sS'nn=mil'
p3996
I1166
sS'prep=by'
p3997
I1790
sS'w+2=discussion'
p3998
I2910
sS'w-2=Colonel'
p3999
I4305
sS'dobj=fire'
p4000
I879
sS'prep=between'
p4001
I1789
sS'ccomp=happen'
p4002
I452
sS'nsubjpass=speed'
p4003
I1663
sS'w-2=outlet'
p4004
I4935
sS'w-1=Marks'
p4005
I3682
sS'w+1=deride'
p4006
I2063
sS'w-2=afp'
p4007
I4587
sS'nsubj=government'
p4008
I1478
sS'nsubj=concern'
p4009
I1458
sS'w-2=magazine'
p4010
I4878
sS'ccomp=continent'
p4011
I395
sS'w-2=media'
p4012
I4888
sS'rcmod=show'
p4013
I1880
sS'partmod=expect'
p4014
I1709
sS'w+1=excessive'
p4015
I2094
sS'w-1=CSIRO'
p4016
I3572
sS'w+2=Srinigar'
p4017
I2669
sS'xcomp=meet'
p4018
I5210
sS'dobj=increase'
p4019
I889
sS'w-2=Stephanie'
p4020
I4528
sS'w-1=chadbouchard'
p4021
I3880
sS'w+1=192'
p4022
I1913
sS'nsubj=Wilkison'
p4023
I1427
sS'rcmod=escalate'
p4024
I1839
sS'advcl=declare'
p4025
I19
sS'nsubj=panel'
p4026
I1512
sS'advmod=originally'
p4027
I98
sS'w-2=release'
p4028
I5001
sS'w-2=Scott'
p4029
I4513
sS'ccomp=would'
p4030
I609
sS'advcl=ask'
p4031
I8
sS'w+2=these'
p4032
I3400
sS'w-2=separate'
p4033
I5034
sS'nsubjpass=campus'
p4034
I1590
sS'conj=blizzard'
p4035
I628
sS'nsubj=Schwarz'
p4036
I1388
sS'w-2=Lute'
p4037
I4428
sS'ccomp=wash'
p4038
I602
sS'w-1=Statistics'
p4039
I3770
sS'dobj=other'
p4040
I909
sS'w+1=local'
p4041
I2165
sS'advcl=session'
p4042
I41
sS'nsubjpass=contingent'
p4043
I1602
sS'conj=stop'
p4044
I707
sS'w+1=offer'
p4045
I2195
sS'w+2=u.s.-supplied'
p4046
I3436
sS'w-1=see'
p4047
I4137
sS'w+1=seriously'
p4048
I2264
sS'w-1=be'
p4049
I3861
sS'w-2=pay'
p4050
I4948
sS'nsubjpass=datum'
p4051
I1604
sS'nsubj=Majtenyi'
p4052
I1328
sS'acomp=miss'
p4053
I3
sS'amod=premature'
p4054
I237
sS'w+2=plane'
p4055
I3223
sS'w+2=115'
p4056
I2363
sS'w-2=democrat'
p4057
I4719
sS'w+2=activity'
p4058
I2723
sS'w+2=Rosemary'
p4059
I2642
sS'nsubj=Ho'
p4060
I1298
sS'dobj=proceedings'
p4061
I923
sS'w+2=70'
p4062
I2403
sS'amod=local'
p4063
I207
sS'w-2=de'
p4064
I4707
sS'w-1=Ridgwell'
p4065
I3736
sS'amod=authoritative'
p4066
I131
sS'w-2=force'
p4067
I4783
sS'ccomp=destroy'
p4068
I410
sS'nn=credit'
p4069
I1138
sS'nsubj=clash'
p4070
I1449
sS'xcomp=old'
p4071
I5214
sS'w-1=urgent'
p4072
I4202
sS'ccomp=gear'
p4073
I446
sS'w-2=provide'
p4074
I4979
sS'w-1=Noh'
p4075
I3707
sS'w+2=panicky'
p4076
I3209
sS'ccomp=meet'
p4077
I498
sS'w+1=troop'
p4078
I2325
sS'w+2=July'
p4079
I2540
sS'w+2=upsurge'
p4080
I3450
sS'conj=want'
p4081
I715
sS'w-1=these'
p4082
I4178
sS'w+2=developed'
p4083
I2901
sS'w+1=450,000'
p4084
I1921
sS'dobj=incident'
p4085
I888
sS'xcomp=plan'
p4086
I5219
sS'conj=find'
p4087
I649
sS'w-2=false'
p4088
I4765
sS'amod=better'
p4089
I132
sS'amod=fresh'
p4090
I178
sS'w+2=congress'
p4091
I2850
sS'w-2=Arjun'
p4092
I4270
sS'dep=recruit'
p4093
I802
sS'w+2=ITN'
p4094
I2516
sS'w-1=live'
p4095
I4020
sS'w+2=deflect'
p4096
I2889
sS'nsubj=nobody'
p4097
I1503
sS'w+2=Wednesday'
p4098
I2707
sS'dep=though'
p4099
I817
sS'w-2=Online'
p4100
I4469
sS'nsubj=Morley'
p4101
I1346
sS'nn=Fair'
p4102
I1022
sS'w-1=Ford'
p4103
I3615
sS'amod=vietnamese'
p4104
I283
sS'w+2=what'
p4105
I3482
sS'w+2=1983'
p4106
I2374
sS'w-2=Party'
p4107
I4473
sS'amod=secret'
p4108
I257
sS'w-2=web'
p4109
I5135
sS'ccomp=argue'
p4110
I351
sS'dobj=injured'
p4111
I890
sS'w+2=everything'
p4112
I2954
sS'w-2=Marissa'
p4113
I4438
sS'ccomp=edge'
p4114
I427
sS'w-1=Rodgers'
p4115
I3742
sS'w-2=nobody'
p4116
I4915
sS'w+2=Vrindavan'
p4117
I2703
sS'dobj=movement'
p4118
I903
sS'w-1=outlet'
p4119
I4072
sS'w-2=agency'
p4120
I4592
sS'w+2=Jakarta'
p4121
I2532
sS'w-1=which'
p4122
I4210
sS'w-2=U.N.'
p4123
I4553
sS'w+1=condemn'
p4124
I2039
sS'nsubj=Beattie'
p4125
I1224
sS'w-1=Commission'
p4126
I3583
sS'w-2=Homeland'
p4127
I4373
sS'w+2=unrest'
p4128
I3447
sS'poss=America'
p4129
I1746
sS'w-2=wound'
p4130
I5152
sS'w+1=another'
p4131
I1984
sS'dep=also'
p4132
I734
sS'w+2=serious'
p4133
I3326
sS'ccomp=cut'
p4134
I402
sS'nsubj=Arab'
p4135
I1212
sS'w-2=GlaxoSmithKline'
p4136
I4360
sS'w-1=quit'
p4137
I4104
sS'w-1=only'
p4138
I4068
sS'nsubj=weekthat'
p4139
I1555
sS'w+2=event'
p4140
I2952
sS'w+2=policy'
p4141
I3227
sS'w+2=by'
p4142
I2805
sS'xcomp=fire'
p4143
I5189
sS'nn=monitoring'
p4144
I1168
sS'w-2=Ham'
p4145
I4366
sS'w-2=Financial'
p4146
I4347
sS'w+2=Senator'
p4147
I2655
sS'w+2=2,000'
p4148
I2375
sS'w-2=reward'
p4149
I5014
sS'w-1=adb'
p4150
I3827
sS'w-2=Selah'
p4151
I4515
sS'w+2=be'
p4152
I2784
sS'conj=prove'
p4153
I688
sS'w-2=Commerce'
p4154
I4307
sS'w-2=group'
p4155
I4802
sS'nsubj=picture'
p4156
I1517
sS'w-1=U.N.'
p4157
I3788
sS'w+2=president'
p4158
I3242
sS'w-2=too'
p4159
I5097
sS'nsubjpass=#PRP#'
p4160
I1562
sS'w-1=mostly'
p4161
I4040
sS'nn=Edward'
p4162
I1019
sS'w-1=81'
p4163
I3527
sS'w+2=russian'
p4164
I3305
sS'nsubj=McNeill'
p4165
I1336
sS'w+2=Tillman'
p4166
I2686
sS'nsubjpass=casualty'
p4167
I1593
sS'aux=would'
p4168
I328
sS'poss=Board'
p4169
I1747
sS'ccomp=miss'
p4170
I499
sS'w-1=it'
p4171
I4006
sS'w+2=still'
p4172
I3372
sS'w+2=Minister'
p4173
I2587
sS'conj=form'
p4174
I651
sS"w-2='"
p4175
I4225
sS'w+2=Beirut'
p4176
I2440
sS'w+2=ICRC'
p4177
I2514
sS'w-1=Fars'
p4178
I3608
sS'w-2=farmer'
p4179
I4767
sS'w-2=Saturday'
p4180
I4510
sS'w+2=gradually'
p4181
I3012
sS'w+1=immediately'
p4182
I2138
sS'w-1=TV'
p4183
I3776
sS'w+1=sometime'
p4184
I2282
sS'w-2=Flynn'
p4185
I4348
sS'w+2=vote-rigging'
p4186
I3472
sS'dep=stabilize'
p4187
I811
sS'w+2=speed'
p4188
I3362
sS'w+1=simultaneous'
p4189
I2276
sS'w+2=Pakistan'
p4190
I2618
sS'w-2=a'
p4191
I4575
sS'amod=preliminary'
p4192
I236
sS'w-2=Korea'
p4193
I4417
sS'w+2=Chad'
p4194
I2458
sS'xcomp=house'
p4195
I5196
sS'conj=retrieve'
p4196
I698
sS'w-1=Newspaper'
p4197
I3705
sS'w+2=come'
p4198
I2834
sS'nsubjpass=damage'
p4199
I1603
sS'advmod=ago'
p4200
I53
sS'w+1=identify'
p4201
I2135
sS'w-2=James'
p4202
I4396
sS'w-2=way'
p4203
I5133
sS'w+2=accusation'
p4204
I2720
sS'w+1=and'
p4205
I1982
sS'amod=widespread'
p4206
I287
sS'w-1=Bayron'
p4207
I3549
sS'w-2=2002'
p4208
I4235
sS'poss=expert'
p4209
I1766
sS'w+2=quote'
p4210
I3265
sS'w-2=ask'
p4211
I4625
sS'nsubjpass=player'
p4212
I1646
sS'nsubjpass=flow'
p4213
I1617
sS'w+1=weaker'
p4214
I2338
sS'w-1=Gul'
p4215
I3629
sS'ccomp=continue'
p4216
I396
sS'dep=month'
p4217
I790
sS'w-2=Anya'
p4218
I4266
sS'w-2=wane'
p4219
I5131
sS'dobj=capital'
p4220
I852
sS'dep=fall'
p4221
I761
sS'w+1=any'
p4222
I1985
sS'w-2=Crocker'
p4223
I4314
sS'dep=week'
p4224
I822
sS'w+2=send'
p4225
I3322
sS'w+1=issue'
p4226
I2153
sS'ccomp=raid'
p4227
I527
sS'nsubj=Collins'
p4228
I1249
sS'dobj=improvement'
p4229
I887
sS'w+2=derision'
p4230
I2896
sS'w-2=job'
p4231
I4853
sS'w+2=this'
p4232
I3402
sS'w+1=almost'
p4233
I1979
sS'w+2=800'
p4234
I2404
sS'nsubj=Mexico'
p4235
I1340
sS'nsubj=Commissioner'
p4236
I1253
sS'w-2=Nina-Maria'
p4237
I4465
sS'nsubj=Gbenekama'
p4238
I1285
sS'w-1=Asharqalawsat'
p4239
I3541
sS'w+2=deeply'
p4240
I2888
sS'w+1=Thai'
p4241
I1957
sS'w-2=Odierno'
p4242
I4468
sS'nn=Business'
p4243
I1003
sS'w-1=Saine'
p4244
I3747
sS'nsubj=Hennessy'
p4245
I1295
sS'nsubjpass=fraud'
p4246
I1618
sS'w+2=Budapest'
p4247
I2447
sS'w-1=Addington'
p4248
I3531
sS'w-2=State'
p4249
I4525
sS'w+2=lender'
p4250
I3105
sS'w+2=us-based'
p4251
I3453
sS'amod=positive'
p4252
I235
sS'w-1=burmese'
p4253
I3867
sS'w+2=Singapore'
p4254
I2661
sS'w+2=Bangladesh'
p4255
I2435
sS'nsubj=Gollust'
p4256
I1287
sS'amod=first-hand'
p4257
I172
sS'w-2=issue'
p4258
I4849
sS'nsubjpass=more'
p4259
I1636
sS'amod=highly-anticipated'
p4260
I185
sS'w+2=should'
p4261
I3335
sS'w+2=Britain'
p4262
I2444
sS'w+2=african'
p4263
I2728
sS'advmod=high'
p4264
I76
sS'nsubj=UNHCR'
p4265
I1414
sS'w+2=Kathmandu'
p4266
I2549
sS'w+2=pakistani'
p4267
I3208
sS'w-2=Actuarial'
p4268
I4248
sS'advmod=directly'
p4269
I65
sS'w-1=dorianjone'
p4270
I3929
sS'prep=against'
p4271
I1781
sS'nn=Board'
p4272
I996
sS'nsubjpass=several'
p4273
I1655
sS'nsubj=Jones'
p4274
I1311
sS'nsubj=Maphosa'
p4275
I1331
sS'w+1=human'
p4276
I2133
sS'ccomp=enthusiastic'
p4277
I431
sS'amod=medical'
p4278
I213
sS'w-2=siege'
p4279
I5040
sS'w-2=Noel'
p4280
I4466
sS'w-2=sikh'
p4281
I5042
sS'appos=soccer'
p4282
I313
sS'ccomp=want'
p4283
I600
sS'w+2=work'
p4284
I3493
sS'w+1=have'
p4285
I2123
sS'conj=al-Bandar'
p4286
I619
sS'w+1=russian'
p4287
I2255
sS'partmod=write'
p4288
I1742
sS'w-2=so'
p4289
I5048
sS'partmod=document'
p4290
I1706
sS'w-2=Phuong'
p4291
I4484
sS'w-2=table'
p4292
I5077
sS'conj=become'
p4293
I626
sS'w+2=crisis'
p4294
I2870
sS'w-2=ago'
p4295
I4594
sS'w+1=conclude'
p4296
I2037
sS'w+2=similar'
p4297
I3340
sS'w-2=Abu'
p4298
I4246
sS'w+2=resident'
p4299
I3296
sS'w+2=college'
p4300
I2833
sS'w+2=2007'
p4301
I2381
sS'w+2=2006'
p4302
I2380
sS'w+2=2005'
p4303
I2379
sS'nsubj=press'
p4304
I1521
sS'w+2=2003'
p4305
I2378
sS'w-2=RAND'
p4306
I4487
sS'w+2=2000'
p4307
I2377
sS'w+1=put'
p4308
I2229
sS'w+1=unusually'
p4309
I2329
sS'w+2=central'
p4310
I2816
sS'w+2=incorrectly'
p4311
I3057
sS'w+2=allegation'
p4312
I2741
sS'w+1=505,000'
p4313
I1923
sS'w+2=end'
p4314
I2943
sS'w+1=potentially'
p4315
I2216
sS'dobj=issue'
p4316
I895
sS'w-1=Whampoa'
p4317
I3811
sS'rcmod=display'
p4318
I1836
sS'w-2=2008'
p4319
I4238
sS'w-1=verify'
p4320
I4204
sS'w-1=disease'
p4321
I3924
sS'w+2=rocket'
p4322
I3303
sS'amod=past'
p4323
I232
sS'w-2=anything'
p4324
I4618
sS'w+2=more'
p4325
I3150
sS'nsubj=percent'
p4326
I1516
sS'w+2=reaction'
p4327
I3274
sS'ccomp=decrease'
p4328
I405
sS'w-1=Burge'
p4329
I3567
sS"nsubj=O'Sullivan"
p4330
I1355
sS'w-2=which'
p4331
I5141
sS'w-2=Kayla'
p4332
I4413
sS'nsubj=Simpson'
p4333
I1394
sS'w+2=Mexico'
p4334
I2584
sS'conj=accuse'
p4335
I617
sS'nsubj=Kayhan'
p4336
I1313
sS'w-1=other'
p4337
I4071
sS'w-1=Steinglass'
p4338
I3771
sS'w+2=Secretary'
p4339
I2652
sS'w-2=about'
p4340
I4577
sS'w+2=program'
p4341
I3252
sS'nn=Bowman'
p4342
I1000
sS'w+2=offer'
p4343
I3187
sS'w+2=Brown'
p4344
I2445
sS'nsubj=Union'
p4345
I1416
sS'nsubj=site'
p4346
I1537
sS'w+2=southern'
p4347
I3357
sS'w-1=landmark'
p4348
I4013
sS'w-1=background'
p4349
I3859
sS'w+2=seriously'
p4350
I3327
sS'w-2=manger'
p4351
I4884
sS'w+2=human'
p4352
I3042
sS'nn=status'
p4353
I1186
sS'amod=release'
p4354
I247
sS'nn=Department'
p4355
I1016
sS'w+2=secondary'
p4356
I3316
sS'w-1=-rrb-'
p4357
I3505
sS'w-2=vehemently'
p4358
I5124
sS'w-2=narrate'
p4359
I4905
sS'w-2=survey'
p4360
I5074
sS'w+2=welcome'
p4361
I3480
sS'w-2=Amano'
p4362
I4257
sS'w-2=support'
p4363
I5071
sS'prep=throughout'
p4364
I1813
sS'ccomp=worst'
p4365
I608
sS'nsubj=Dujana'
p4366
I1267
sS'w+2=20'
p4367
I2376
sS'nsubj=committee'
p4368
I1454
sS'w-1=undercover'
p4369
I4196
sS'w+1=nearly'
p4370
I2188
sS'prt=out'
p4371
I1818
sS'w-2=McCormack'
p4372
I4442
sS'amod=urgent'
p4373
I280
sS'w+2=Ziegler'
p4374
I2712
sS'w-1=highest'
p4375
I3979
sS'w+2=hd'
p4376
I3024
sS'nn=Khartoum'
p4377
I1046
sS'ccomp=include'
p4378
I472
sS'w-2=military'
p4379
I4895
sS'w-1=both'
p4380
I3865
sS'w-2=newspaper'
p4381
I4911
sS'w+1=make'
p4382
I2169
sS'w+2=whether'
p4383
I3484
sS'nsubj=Yemen'
p4384
I1430
sS'conj=information'
p4385
I657
sS'w-2=Central'
p4386
I4300
sS'w-1=call'
p4387
I3872
sS'w+2=at'
p4388
I2775
sS'w-2=aid'
p4389
I4596
sS'nn=survey'
p4390
I1190
sS'w-2=rope'
p4391
I5019
sS'dep=issue'
p4392
I780
sS'w+2=house-to-house'
p4393
I3039
sS'w-2=author'
p4394
I4630
sS'w+2=1,000'
p4395
I2359
sS'w-2=rioting'
p4396
I5016
sS'w+1=two'
p4397
I2327
sS'w+2=protester'
p4398
I3257
sS'w+2=Asia'
p4399
I2422
sS'w+2=popular'
p4400
I3231
sS'nsubj=Blears'
p4401
I1229
sS'w-2=Carol'
p4402
I4291
sS'w-2=gay'
p4403
I4797
sS'w-2=press'
p4404
I4968
sS'rcmod=rock'
p4405
I1876
sS'w+2=develop'
p4406
I2900
sS'nsubj=result'
p4407
I1530
sS'nsubj=Malone'
p4408
I1330
sS'xcomp=investigate'
p4409
I5200
sS'w+1=considerable'
p4410
I2043
sS'w-2=poll'
p4411
I4960
sS'w-1=Press'
p4412
I3726
sS'prep=for'
p4413
I1796
sS'w-2=Lynch'
p4414
I4429
sS'advcl=reach'
p4415
I36
sS'nsubj=force'
p4416
I1475
sS'dobj=marriage'
p4417
I901
sS'nsubjpass=violence'
p4418
I1677
sS'w-1=Shabelle'
p4419
I3761
sS'nsubj=Billinghurst'
p4420
I1228
sS'nn=Cross'
p4421
I1014
sS'w+2=Islamabad'
p4422
I2527
sS'amod=federal'
p4423
I167
sS'dobj=hometown'
p4424
I886
sS'w+2=67'
p4425
I2401
sS'advcl=want'
p4426
I47
sS'w-1=Amnesty'
p4427
I3536
sS'w+1=Sunday'
p4428
I1955
sS'nsubj=media'
p4429
I1496
sS'w+2=as'
p4430
I2770
sS'w-2=U.S.'
p4431
I4554
sS'dep=make'
p4432
I787
sS'w+2=intern'
p4433
I3068
sS'w+2=include'
p4434
I3056
sS'w-1=once'
p4435
I4066
sS'w+1=would'
p4436
I2347
sS'w+2=link'
p4437
I3110
sS'nsubjpass=flamingo'
p4438
I1616
sS'w+1=formally'
p4439
I2110
sS'rcmod=hit'
p4440
I1849
sS'w+2=Egypt'
p4441
I2480
sS'ccomp=challenge'
p4442
I375
sS'w-1=Schlein'
p4443
I3751
sS'w-1=Herman'
p4444
I3635
sS'w+1=40'
p4445
I1920
sS'w+1=theirs'
p4446
I2310
sS'w+2=Australia'
p4447
I2427
sS'w-2=tv'
p4448
I5110
sS'w+2=sudanese'
p4449
I3379
sS'conj=face'
p4450
I647
sS'w+1=outline'
p4451
I2204
sS'w+2=volunteer'
p4452
I3469
sS'amod=outrageous'
p4453
I230
sS'w-2=Goldman'
p4454
I4361
sS'advmod=long'
p4455
I84
sS'w-2=tuberculosis'
p4456
I5106
sS'w-2=bank'
p4457
I4636
sS'nn=HRW'
p4458
I1030
sS'w-1=separate'
p4459
I4139
sS'ccomp=deploy'
p4460
I408
sS'nn=business'
p4461
I1128
sS'w-2=Nick'
p4462
I4460
sS'advmod=outright'
p4463
I99
sS'rcmod=seek'
p4464
I1878
sS'w-1=ambassador'
p4465
I3839
sS'nsubj=ambassador'
p4466
I1435
sS'advmod=much'
p4467
I90
sS'w-2=flamingo'
p4468
I4778
sS'nn=Nyrop'
p4469
I1064
sS'amod=separate'
p4470
I259
sS'w+2=foreword'
p4471
I2992
sS'w-1=dutch'
p4472
I3933
sS'w-1=Presutti'
p4473
I3727
sS'w+2=Transparency'
p4474
I2688
sS'ccomp=leader'
p4475
I488
sS'w-2=Nathan'
p4476
I4454
sS'w-2=Oscar'
p4477
I4471
sS'w-1=Poll'
p4478
I3722
sS'w+2=Lohberg'
p4479
I2571
sS'nsubj=Suli'
p4480
I1400
sS'nsubj=Melton'
p4481
I1338
sS'w+2=decade'
p4482
I2886
sS'w+2=Astroland'
p4483
I2425
sS'infmod=focus'
p4484
I966
sS'conj=interview'
p4485
I660
sS'dep=calm'
p4486
I744
sS'w+2=she'
p4487
I3332
sS'w+2=net'
p4488
I3166
sS'nsubjpass=dozen'
p4489
I1610
sS'w+2=Ambassador'
p4490
I2417
sS'ccomp=warn'
p4491
I601
sS'w-2=year'
p4492
I5154
sS'dobj=development'
p4493
I866
sS'nn=Government'
p4494
I1027
sS'nn=person'
p4495
I1172
sS'nn=wildlife'
p4496
I1202
sS'w+2=with'
p4497
I3491
sS'nsubj=Thailand'
p4498
I1406
sS'w+2=Kibaya'
p4499
I2555
sS'rcmod=halt'
p4500
I1846
sS'csubjpass=neighbor'
p4501
I722
sS'w-1=Zaman'
p4502
I3820
sS'dep=confirm'
p4503
I752
sS'w+2=assailant'
p4504
I2773
sS'amod=many'
p4505
I212
sS'w+2=Uribe'
p4506
I2700
sS'dobj=partner'
p4507
I911
sS'xcomp=find'
p4508
I5188
sS'w-1=road'
p4509
I4124
sS'w-2=Shahnawaz'
p4510
I4517
sS'ccomp=drop'
p4511
I426
sS'w-2=Manuel'
p4512
I4436
sS'w+2=air'
p4513
I2733
sS'nn=imb'
p4514
I1156
sS'nn=Fincher'
p4515
I1023
sS'w+2=Seattle'
p4516
I2651
sS'w+2=high-technology'
p4517
I3032
sS'w+2=aim'
p4518
I2732
sS'w+2=artillery'
p4519
I2769
sS'conj=finding'
p4520
I650
sS'w-1=Ryu'
p4521
I3745
sS'dobj=player'
p4522
I917
sS'ccomp=use'
p4523
I597
sS'w+2=aid'
p4524
I2731
sS'amod=expect'
p4525
I163
sS'w-2=subsequent'
p4526
I5069
sS'w-2=George'
p4527
I4358
sS'w-2=Manicaland'
p4528
I4435
sS'nn=fact-checking'
p4529
I1149
sS'w-2=month'
p4530
I4899
sS'w+1=speculate'
p4531
I2284
sS'w+2=or'
p4532
I3197
sS'w-1=Swicord'
p4533
I3774
sS'nsubj=Bryant'
p4534
I1238
sS'w+2=earnings'
p4535
I2930
sS'nsubjpass=most'
p4536
I1637
sS'w-2=hour'
p4537
I4816
sS'w+1=-'
p4538
I1905
sS'w-2=Wednesday'
p4539
I4565
sS'w-2=attention'
p4540
I4628
sS'w+2=coalition'
p4541
I2832
sS'w+2=hire'
p4542
I3034
sS'w+1=assess'
p4543
I1991
sS'conj=investigation'
p4544
I662
sS'w-1=aid'
p4545
I3834
sS'advmod=sometimes'
p4546
I112
sS'w+2=outside'
p4547
I3203
sS'w+2=clearly'
p4548
I2827
sS'w+2=on'
p4549
I3189
sS'w-2=forward'
p4550
I4788
sS'w+1=Gbagbo'
p4551
I1938
sS'w-2=US'
p4552
I4557
sS'w+2=design'
p4553
I2897
sS'w+2=Kinshasa'
p4554
I2558
sS'nn=UNDP'
p4555
I1099
sS'appos=carmaker'
p4556
I303
sS'w+1=so'
p4557
I2280
sS'prep=into'
p4558
I1800
sS'dep=campaign'
p4559
I745
sS'nn=Realtors'
p4560
I1078
sS'nn=Fry'
p4561
I1024
sS'w+2=rainfall'
p4562
I3268
sS'w+2=my'
p4563
I3157
sS'w+2=flamingo'
p4564
I2983
sS'amod=private'
p4565
I240
sS'w+2=pre-deployment'
p4566
I3237
sS'w+1=refer'
p4567
I2243
sS'w+2=house'
p4568
I3038
sS'w+2=part'
p4569
I3210
sS'w-2=Haba'
p4570
I4365
sS'w-2=formal'
p4571
I4786
sS'w+1=tb'
p4572
I2306
sS'w-1=while'
p4573
I4211
sS'w-2=kill'
p4574
I4857
sS'xcomp=miss'
p4575
I5211
sS'w+2=Modena'
p4576
I2588
sS'prep=without'
p4577
I1817
sS'w+2=Croatia'
p4578
I2468
sS'nsubj=Voice'
p4579
I1418
sS'nn=Union'
p4580
I1104
sS'nn=ABAC'
p4581
I985
sS'w+2=nigerian'
p4582
I3171
sS'nn=audit'
p4583
I1126
sS'amod=false'
p4584
I164
sS'w+2=voice'
p4585
I3468
sS'w+2=five'
p4586
I2982
sS'w+2=performance'
p4587
I3216
sS'nn=Corben'
p4588
I1011
sS'ccomp=chase'
p4589
I377
sS'dep=debilitate'
p4590
I756
sS'w+2=lack'
p4591
I3094
sS'nsubj=newspaper'
p4592
I1502
sS'conj=not'
p4593
I675
sS'w+2=loss'
p4594
I3119
sS'w+2=from'
p4595
I2997
sS'w+2=two'
p4596
I3432
sS'nsubj=Anderton'
p4597
I1211
sS'w-1=schoolboy'
p4598
I4129
sS'w+2=half'
p4599
I3021
sS'conj=relate'
p4600
I692
sS'advmod=continually'
p4601
I63
sS'partmod=base'
p4602
I1694
sS'w-2=freedom'
p4603
I4791
sS'w+2=compete'
p4604
I2840
sS'ccomp=speak'
p4605
I573
sS'nsubj=agency'
p4606
I1433
sS'w-1=scathing'
p4607
I4127
sS'w-1=statistics'
p4608
I4157
sS'w+2=may'
p4609
I3133
sS'w-2=Radio'
p4610
I4489
sS'w-1=current'
p4611
I3909
sS'advmod=often'
p4612
I96
sS'w-1=revise'
p4613
I4122
sS'w-2=fail'
p4614
I4764
sS'w-1=Kollock'
p4615
I3666
sS'ccomp=arrest'
p4616
I352
sS'w+2=underline'
p4617
I3439
sS'det=another'
p4618
I825
sS'w+1=deliver'
p4619
I2061
sS'w-1=Schultz'
p4620
I3753
sS'w+2=Taipei'
p4621
I2677
sS'ccomp=need'
p4622
I503
sS'xcomp=delicacy'
p4623
I5176
sS'w-1=Cavaliere'
p4624
I3574
sS'w-1=return'
p4625
I4121
sS'w+2=welder'
p4626
I3481
sS'w-2=cite'
p4627
I4676
sS'w+2=majority'
p4628
I3124
sS'amod=landlocked'
p4629
I202
sS'nsubjpass=discovery'
p4630
I1609
sS'w-1=MTV'
p4631
I3673
sS'w-1=hard'
p4632
I3975
sS'ccomp=disagree'
p4633
I414
sS'w+1=Daniel'
p4634
I1935
sS'w+2=Rice'
p4635
I2637
sS'w-2=Khartoum'
p4636
I4416
sS'w+2=date'
p4637
I2881
sS'poss=Willis'
p4638
I1763
sS'dobj=deficit'
p4639
I863
sS'w-1=Petraeus'
p4640
I3721
sS'w-2=ugandan'
p4641
I5113
sS'w-2=here'
p4642
I4810
sS'w-1=status'
p4643
I4158
sS'poss=group'
p4644
I1768
sS'amod=subsequent'
p4645
I268
sS'partmod=make'
p4646
I1719
sS'ccomp=confirm'
p4647
I392
sS'w+2=Masisi'
p4648
I2581
sS'w-2=rape'
p4649
I4989
sS'nn=Burge'
p4650
I1002
sS'ccomp=displaced'
p4651
I418
sS'amod=joint'
p4652
I198
sS'w+1=death'
p4653
I2059
sS'w-1=Cross'
p4654
I3592
sS'w-1=UN'
p4655
I3790
sS'partmod=involve'
p4656
I1715
sS'w-1=sometimes'
p4657
I4154
sS'ccomp=help'
p4658
I458
sS'w-2=Peter'
p4659
I4479
sS'ccomp=soldier'
p4660
I570
sS'w-2=available'
p4661
I4632
sS'w-2=Russian'
p4662
I4503
sS'w+2=author'
p4663
I2780
sS'w+2=court'
p4664
I2866
sS'w+2=General'
p4665
I2497
sS'w-1=Europe'
p4666
I3604
sS'w-2=suppose'
p4667
I5072
sS'poss=VOA'
p4668
I1760
sS'dobj=delivery'
p4669
I864
sS'ccomp=end'
p4670
I428
sS'w+2=anonymous'
p4671
I2756
sS'amod=damning'
p4672
I150
sS'w-1=unit'
p4673
I4199
sS'w+2=Istanbul'
p4674
I2530
sS'xcomp=revive'
p4675
I5232
sS'aux=do'
p4676
I321
sS'nsubj=retailer'
p4677
I1531
sS'w-2=if'
p4678
I4821
sS'w-2=problem'
p4679
I4972
sS'w+2=news'
p4680
I3169
sS'w-1=iaea'
p4681
I3982
sS'w-1=second'
p4682
I4134
sS'nsubj=television'
p4683
I1546
sS'w-2=cave'
p4684
I4670
sS'w+1=run'
p4685
I2254
sS'ccomp=run'
p4686
I553
sS'w+2=voter'
p4687
I3473
sS'ccomp=pay'
p4688
I512
sS'advmod=already'
p4689
I55
sS'w+2=15,000'
p4690
I2369
sS'w+2=Capitol'
p4691
I2456
sS'advcl=involve'
p4692
I29
sS'w+1=tank'
p4693
I2305
sS'nn=news'
p4694
I1169
sS'dobj=piece'
p4695
I915
sS'nn=Abuja'
p4696
I986
sS'w-1=Corporation'
p4697
I3589
sS'nsubjpass=this'
p4698
I1673
sS'conj=WWF'
p4699
I614
sS'dobj=population'
p4700
I920
sS'w+2=Hood'
p4701
I2510
sS'w-1=Drew'
p4702
I3599
sS'nsubj=FitzPatrick'
p4703
I1279
sS'nsubj=people'
p4704
I1515
sS'w+2=gay'
p4705
I3005
sS'conj=search'
p4706
I701
sS'w-2=criticize'
p4707
I4701
sS'w-1=Telegraph'
p4708
I3779
sS'nsubj=commander'
p4709
I1452
sS'w-1=even'
p4710
I3942
sS'w-1=imb'
p4711
I3983
sS'nsubj=foundation'
p4712
I1476
sS'w+2=disaster'
p4713
I2906
sS'xcomp=penalize'
p4714
I5218
sS'w+2=people'
p4715
I3213
sS'nn=Iceland'
p4716
I1036
sS'xcomp=start'
p4717
I5241
sS'w-1=Khartoum'
p4718
I3662
sS'w-2=iraqi'
p4719
I4847
sS'ccomp=highlight'
p4720
I462
sS'nn=incident'
p4721
I1157
sS'w-2=Herald'
p4722
I4372
sS'w-1=Nagano'
p4723
I3700
sS'w-2=especially'
p4724
I4757
sS'w+2=view'
p4725
I3460
sS'w-2=E.U.'
p4726
I4330
sS'nn=UNAIDS'
p4727
I1098
sS'w-2=president'
p4728
I4967
sS'ccomp=music'
p4729
I502
sS'w+1=seek'
p4730
I2260
sS'w-2=miraculously'
p4731
I4896
sS'w-1=semi-annual'
p4732
I4138
sS'w-1=six-page'
p4733
I4150
sS'w+2=authority'
p4734
I2781
sS'dep=country'
p4735
I755
sS'nsubjpass=incident'
p4736
I1623
sS'advmod=little'
p4737
I83
sS'w+2=summit'
p4738
I3382
sS'w+1=foreign'
p4739
I2109
sS'nsubj=concept'
p4740
I1457
sS'w+2=Colombo'
p4741
I2464
sS'w+2=Fort'
p4742
I2492
sS'w-1=weekly'
p4743
I4209
sS'nsubj=command'
p4744
I1451
sS'ccomp=displace'
p4745
I417
sS'nsubj=deal'
p4746
I1462
sS'w-2=Mike'
p4747
I4445
sS'w+1=one'
p4748
I2197
sS'dep=device'
p4749
I757
sS'w+2=Rwanda'
p4750
I2645
sS'ccomp=release'
p4751
I537
sS'w+2=week'
p4752
I3478
sS'w-1=brief'
p4753
I3866
sS'xcomp=challenging'
p4754
I5165
sS'advcl=exchange'
p4755
I24
sS'w-2=repay'
p4756
I5004
sS'w+2=help'
p4757
I3029
sS'w+2=exceed'
p4758
I2958
sS'w-2=independence'
p4759
I4827
sS'dep=subject'
p4760
I812
sS'conj=happen'
p4761
I654
sS'advmod=about'
p4762
I49
sS'dobj=drop'
p4763
I870
sS'w+2=discrimination'
p4764
I2908
sS'ccomp=die'
p4765
I413
sS'w+2=August'
p4766
I2426
sS"w+2=''"
p4767
I2353
sS'nsubj=country'
p4768
I1460
sS'nsubj=Cooper'
p4769
I1256
sS'w-1=this'
p4770
I4181
sS'w-2=pain'
p4771
I4939
sS'w-2=draft'
p4772
I4744
sS'w+2=November'
p4773
I2611
sS'w+2=vast'
p4774
I3457
sS'w+1=when'
p4775
I2340
sS'nn=Berger'
p4776
I995
sS'w-2=Government'
p4777
I4362
sS'w+1=follow'
p4778
I2106
sS'nsubj=officer'
p4779
I1507
sS'w+2=Secretary-General'
p4780
I2653
sS'w+2=Kivu'
p4781
I2559
sS'w-2=UNHCR'
p4782
I4556
sS'w+1=even'
p4783
I2092
sS'w+2=timing'
p4784
I3409
sS'w-1=carry'
p4785
I3875
sS'w-2=program'
p4786
I4976
sS'w+2=threat'
p4787
I3406
sS'w-2=Afghan'
p4788
I4249
sS'nsubjpass=line'
p4789
I1629
sS'w+2=anti-semitism'
p4790
I2758
sS'nsubjpass=study'
p4791
I1667
sS'w-1=Delhi'
p4792
I3594
sS'conj=work'
p4793
I718
sS'w-1=european'
p4794
I3941
sS'w+2=Aceh'
p4795
I2409
sS'w+2=deadlock'
p4796
I2884
sS'w-1=poll'
p4797
I4086
sS'partmod=travel'
p4798
I1738
sS'w+1=experience'
p4799
I2095
sS'w+2=50'
p4800
I2395
sS'w+1=also'
p4801
I1980
sS'w+2=53'
p4802
I2396
sS'w+2=locust'
p4803
I3116
sS'advcl=resume'
p4804
I37
sS'w-1=Jazeera'
p4805
I3654
sS'dobj=insurgent'
p4806
I891
sS'xcomp=african'
p4807
I5159
sS'w-1=business'
p4808
I3868
sS'nsubj=Today'
p4809
I1410
sS'w+2=remittance'
p4810
I3289
sS'w+2=turkish'
p4811
I3430
sS'partmod=try'
p4812
I1739
sS'ccomp=combine'
p4813
I385
sS'w-1=but'
p4814
I3869
sS"w+2='s"
p4815
I2354
sS'w-2=when'
p4816
I5139
sS'w+2=Ramona'
p4817
I2631
sS'w-1=premature'
p4818
I4090
sS'w+1=50'
p4819
I1922
sS'w+2=visa'
p4820
I3465
sS'ccomp=reflect'
p4821
I533
sS'w+2=progress'
p4822
I3253
sS'w+1=Medvedev'
p4823
I1944
sS'nn=Anderton'
p4824
I991
sS'nn=security'
p4825
I1183
sS'w-2=Delia'
p4826
I4324
sS'w+2=top'
p4827
I3415
sS'nsubj=journalist'
p4828
I1490
sS'ccomp=jump'
p4829
I485
sS'w+2=Bhutto'
p4830
I2443
sS'w-2=Claudia'
p4831
I4304
sS'w+2=group'
p4832
I3016
sS'w-1=scout'
p4833
I4133
sS'ccomp=invite'
p4834
I481
sS'dep=heighten'
p4835
I774
sS'poss=month'
p4836
I1770
sS'w-2=TV'
p4837
I4534
sS'det=every'
p4838
I828
sS'w-2=Seibert'
p4839
I4514
sS'conj=leave'
p4840
I668
sS'dobj=malnutrition'
p4841
I900
sS'w+2=command'
p4842
I2835
sS'xcomp=avoid'
p4843
I5161
sS'ccomp=contain'
p4844
I394
sS'w-2=Business'
p4845
I4287
sS'w-2=longer'
p4846
I4876
sS'w+2=mixed'
p4847
I3147
sS'w-2=horrify'
p4848
I4815
sS'w+1=publish'
p4849
I2228
sS'nn=House'
p4850
I1031
sS'w-2=campaign'
p4851
I4661
sS'w-2=Health'
p4852
I4368
sS'w-1=trader'
p4853
I4187
sS'w+1=against'
p4854
I1973
sS'w-2=responsibility'
p4855
I5010
sS'w-1=no'
p4856
I4052
sS'w+2=before'
p4857
I2786
sS'nsubj=arrival'
p4858
I1438
sS'w+2=different'
p4859
I2903
sS'w-1=Davis'
p4860
I3593
sS'w+2=fire'
p4861
I2979
sS'ccomp=able'
p4862
I337
sS'w+2=religious'
p4863
I3288
sS'advmod=aggressively'
p4864
I52
sS'w-2=consistently'
p4865
I4694
sS'w-2=sale'
p4866
I5021
sS'w-1=get'
p4867
I3966
sS'rcmod=aware'
p4868
I1822
sS'w+2=physical'
p4869
I3219
sS'ccomp=expand'
p4870
I434
sS'w-1=Sand'
p4871
I3748
sS'ccomp=join'
p4872
I484
sS'nn=Mercer'
p4873
I1056
sS'w+1=find'
p4874
I2102
sS'w+2=clash'
p4875
I2826
sS'partmod=identify'
p4876
I1713
sS'w+2=unnamed'
p4877
I3445
sS'mark=before'
p4878
I974
sS'w+1=emphasize'
p4879
I2088
sS'w-1=unprecedented'
p4880
I4200
sS'advmod=back'
p4881
I59
sS'dep=invite'
p4882
I778
sS'w+2=Assad'
p4883
I2423
sS'w-1=IFPRI'
p4884
I3641
sS'nsubjpass=Cheney'
p4885
I1566
sS'w-1=afp'
p4886
I3830
sS'w-1=Bakshian'
p4887
I3545
sS'w-2=Tenda'
p4888
I4537
sS'w+2=also'
p4889
I2747
sS'w-1=site'
p4890
I4148
sS'w-1=secretary'
p4891
I4135
sS'amod=next'
p4892
I222
sS'partmod=submit'
p4893
I1734
sS'w-2=discuss'
p4894
I4731
sS'xcomp=lead'
p4895
I5206
sS'w-2=authority'
p4896
I4631
sS"w+1='s"
p4897
I1903
sS'w+2=Mr.'
p4898
I2594
sS'appos=Republicans'
p4899
I298
sS'w-2=be'
p4900
I4639
sS'w-2=what'
p4901
I5138
sS'w+2=besides'
p4902
I2787
sS'w-2=Stefan'
p4903
I4527
sS'ccomp=plummet'
p4904
I515
sS'rcmod=regroup'
p4905
I1872
sS'w+2=positive'
p4906
I3233
sS'w+1=three'
p4907
I2317
sS'conj=Snowe'
p4908
I613
sS'w-2=Carolyn'
p4909
I4293
sS'nsubj=Bank'
p4910
I1220
sS'nsubjpass=some'
p4911
I1661
sS'nn=summary'
p4912
I1189
sS'nsubj=Lute'
p4913
I1325
sS'w-2=Spyer'
p4914
I4524
sS'w+2=27,000'
p4915
I2384
sS'w-1=officially'
p4916
I4062
sS'w-2=by'
p4917
I4658
sS'w-1=check'
p4918
I3881
sS'w+1=finding'
p4919
I2103
sS'w-2=Economist'
p4920
I4332
sS'w-2=general'
p4921
I4798
sS'nsubj=Representative'
p4922
I1371
sS'advcl=begin'
p4923
I12
sS'w-1=after'
p4924
I3831
sS'rcmod=renew'
p4925
I1874
sS'w+1=Tuesday'
p4926
I1959
sS'dep=spread'
p4927
I810
sS'rcmod=state'
p4928
I1881
sS'nn=unemployment'
p4929
I1197
sS'w-1=Anderton'
p4930
I3537
sS'w+2=presidential'
p4931
I3243
sS'w-2=Efam'
p4932
I4334
sS'nsubj=Brown'
p4933
I1237
sS'nsubj=Survey'
p4934
I1401
sS'w+1=ready'
p4935
I2236
sS'w-2=Times'
p4936
I4547
sS'w-1=fresh'
p4937
I3961
sS'ccomp=begin'
p4938
I362
sS'w+2=account'
p4939
I2719
sS'w+2=damage'
p4940
I2879
sS'w+2=simply'
p4941
I3341
sS'w+1=all'
p4942
I1977
sS'w-2=town'
p4943
I5098
sS'dobj=system'
p4944
I946
sS'tmod=Nigeria'
p4945
I1890
sS'w+2=Nkunda'
p4946
I2608
sS'w+1=warn'
p4947
I2336
sS'w-2=foreign'
p4948
I4785
sS'w-1=Sydney'
p4949
I3775
sS'w+2=Rome'
p4950
I2640
sS'w-1=Collins'
p4951
I3580
sS'w+2=pilot'
p4952
I3221
sS'w-1=Robinson'
p4953
I3741
sS'w-1=bi-partisan'
p4954
I3864
sS'w+2=rain'
p4955
I3267
sS'amod=turkish'
p4956
I272
sS'w+2=.'
p4957
I2358
sS'w-1=Lewinski'
p4958
I3669
sS'w-1=controversial'
p4959
I3900
sS'w+2=any'
p4960
I2760
sS'appos=change'
p4961
I304
sS'w+2=,'
p4962
I2355
sS'dep=conclude'
p4963
I751
sS'ccomp=distrust'
p4964
I419
sS'w-1=Gallo'
p4965
I3620
sS'nsubj=Agency'
p4966
I1210
sS'nn=intelligence'
p4967
I1159
sS'partmod=come'
p4968
I1699
sS'w-2=indicate'
p4969
I4830
sS'w+2=legislator'
p4970
I3104
sS'ccomp=criticize'
p4971
I400
sS'w-2=Nations'
p4972
I4455
sS'partmod=confirm'
p4973
I1702
sS'w-1=progress'
p4974
I4098
sS'w-2=worry'
p4975
I5151
sS'nsubj=Marks'
p4976
I1333
sS'dep=either'
p4977
I759
sS'xcomp=injure'
p4978
I5199
sS'w+1=irregularity'
p4979
I2152
sS'tmod=#DATE#'
p4980
I1889
sS'w+2=Nzerekore'
p4981
I2612
sS'w+2=member'
p4982
I3135
sS'nsubjpass=shark'
p4983
I1656
sS'dobj=act'
p4984
I841
sS'w-2=Hunger'
p4985
I4380
sS'nsubj=FAO'
p4986
I1272
sS'w-1=officer'
p4987
I4060
sS'nn=forcethe'
p4988
I1150
sS'nsubj=problem'
p4989
I1522
sS'w-2=get'
p4990
I4799
sS'ccomp=cause'
p4991
I374
sS'nsubjpass=hostage'
p4992
I1622
sS'w+2=Jerusalem'
p4993
I2536
sS'w+2=Orlando'
p4994
I2614
sS'ccomp=take'
p4995
I585
sS'w+1=?'
p4996
I1928
sS'w-2=french'
p4997
I4792
sS'w+2=spending'
p4998
I3363
sS'advmod=nearly'
p4999
I91
sS'advmod=also'
p5000
I56
sS'cop=be'
p5001
I720
sS'advcl=visit'
p5002
I45
sS'w-1=Journal'
p5003
I3656
sS'w+1=name'
p5004
I2184
sS'w+1=fromthe'
p5005
I2114
sS'dep=offer'
p5006
I792
sS'w-2=scientist'
p5007
I5028
sS'w+2=Lake'
p5008
I2568
sS'xcomp=die'
p5009
I5178
sS'w+1=Thursday'
p5010
I1958
sS'w+2=Turkey'
p5011
I2691
sS'nsubj=Pearson'
p5012
I1361
sS'nn=Newspaper'
p5013
I1063
sS'amod=second'
p5014
I256
sS'w+2=10,000'
p5015
I2361
sS'rcmod=contain'
p5016
I1832
sS'ccomp=assistance'
p5017
I355
sS'w-1=IOM'
p5018
I3643
sS'dep=live'
p5019
I786
sS'w-2=inspector'
p5020
I4833
sS'ccomp=acknowledge'
p5021
I341
sS'w+1=success'
p5022
I2295
sS'nn=anjanapasricha'
p5023
I1123
sS'w-2=debate'
p5024
I4711
sS'w-2=deadlock'
p5025
I4709
sS'w+2=Nigeria'
p5026
I2606
sS'prep=at'
p5027
I1786
sS'prep=as'
p5028
I1785
sS'advmod=notably'
p5029
I93
sS'w+2=co-write'
p5030
I2831
sS'w-2=arrival'
p5031
I4622
sS'w-1=few'
p5032
I3950
sS'dobj=volunteer'
p5033
I956
sS'w-1=Pentagon'
p5034
I3720
sS'w+2=truth'
p5035
I3429
sS'w-2=Raymond'
p5036
I4492
sS'w+1=charge'
p5037
I2026
sS'w-2=introduce'
p5038
I4842
sS'prep=concern'
p5039
I1792
sS'rcmod=result'
p5040
I1875
sS"w-1='"
p5041
I3499
sS'w-1=Potts'
p5042
I3725
sS'w+2=shipment'
p5043
I3333
sS'w-1=.'
p5044
I3506
sS'w-1=-'
p5045
I3503
sS'amod=russian'
p5046
I250
sS'w-2=Kurt'
p5047
I4418
sS'w-2=defense'
p5048
I4716
sS'appos=journalist'
p5049
I307
sS'amod=detailed'
p5050
I151
sS'w-2=Colorado'
p5051
I4306
sS'w-2=or'
p5052
I4931
sS'amod=congressional'
p5053
I142
sS'w-1=deal'
p5054
I3913
sS'dobj=violence'
p5055
I954
sS'w-1=Block'
p5056
I3557
sS'prep=through'
p5057
I1812
sS'w+1=accuse'
p5058
I1968
sS'amod=accompany'
p5059
I123
sS'w+2=one'
p5060
I3191
sS'w+2=Baghdad'
p5061
I2429
sS'w+1=security'
p5062
I2258
sS'w+1=full'
p5063
I2115
sS'w-2=Nicola'
p5064
I4462
sS'amod=recent'
p5065
I245
sS'nsubj=Seck'
p5066
I1389
sS'w+1=injured'
p5067
I2146
sS'w-2=scared'
p5068
I5024
sS'nsubjpass=chief'
p5069
I1595
sS'prep=include'
p5070
I1799
sS'w-2=free'
p5071
I4790
sS'nn=U.N.'
p5072
I1095
sS'nn=IOM'
p5073
I1035
sS'w+1=petroleum'
p5074
I2212
sS'w-2=behind'
p5075
I4642
sS'w-2=Alisha'
p5076
I4255
sS'w+2=such'
p5077
I3378
sS'w-2=Irrawaddy'
p5078
I4392
sS'w-1=a'
p5079
I3822
sS'w+2=representative'
p5080
I3295
sS'nn=chadbouchard'
p5081
I1130
sS'w+2=Federation'
p5082
I2490
sS'w+2=previously'
p5083
I3246
sS'nsubjpass=which'
p5084
I1679
sS'ccomp=decline'
p5085
I404
sS'partmod=publish'
p5086
I1726
sS'amod=require'
p5087
I248
sS'w+2=sign'
p5088
I3338
sS'w+1=concern'
p5089
I2036
sS'w+1=indicate'
p5090
I2143
sS'conj=receive'
p5091
I689
sS'mark=as'
p5092
I972
sS'w-2=House'
p5093
I4376
sS'w+2=security'
p5094
I3319
sS'conj=disappear'
p5095
I644
sS'w+2=narcotic'
p5096
I3160
sS'w-1=Schwarz'
p5097
I3754
sS'nn=Sydney'
p5098
I1087
sS'advcl=seek'
p5099
I40
sS'nsubj=Rights'
p5100
I1374
sS'xcomp=catch'
p5101
I5164
sS'acomp=russian'
p5102
I4
sS'w-2=Embassy-Baghdad'
p5103
I4337
sS'w-1=subcommittee'
p5104
I4162
sS'w-2=situation'
p5105
I5044
sS'w-1=general'
p5106
I3965
sS'w-2=address'
p5107
I4582
sS'w-1=researcher'
p5108
I4118
sS'w+2=Addis'
p5109
I2410
sS'w+2=misconduct'
p5110
I3145
sS'nsubj=Singh'
p5111
I1395
sS'dobj=donation'
p5112
I869
sS'w-2=fighting'
p5113
I4771
sS'ccomp=leave'
p5114
I490
sS'w+1=President'
p5115
I1951
sS'w-2=States'
p5116
I4526
sS'dobj=earnings'
p5117
I871
sS'ccomp=hinder'
p5118
I463
sS'w-2=ICG'
p5119
I4384
sS'w+2=65,000'
p5120
I2400
sS'dep=force'
p5121
I764
sS'w-1=grow'
p5122
I3971
sS'w+2=then'
p5123
I3398
sS'w-1=Licadho'
p5124
I3671
sS'conj=cull'
p5125
I641
sS'dep=need'
p5126
I791
sS'w-1=previous'
p5127
I4094
sS'w+2=kidnapping'
p5128
I3090
sS'w-1=220-page'
p5129
I3518
sS'amod=egyptian'
p5130
I159
sS'w+2=the'
p5131
I3397
sS'nsubj=Petraeus'
p5132
I1362
sS'w-2=RFI'
p5133
I4488
sS'w+1=162'
p5134
I1911
sS'ccomp=refuse'
p5135
I534
sS'dep=go'
p5136
I767
sS'w-2=quote'
p5137
I4988
sS'w-2=Deborah'
p5138
I4322
sS'nsubj=Kearney'
p5139
I1314
sS'w+1=last'
p5140
I2159
sS'rcmod=blame'
p5141
I1825
sS'dep=but'
p5142
I743
sS'nn=commission'
p5143
I1131
sS'w-1=villager'
p5144
I4205
sS'w+2=cost'
p5145
I2863
sS'w+1=Afghan'
p5146
I1929
sS'w+2=quarter'
p5147
I3262
sS'nsubj=Webb'
p5148
I1423
sS'w-1=later'
p5149
I4015
sS'ccomp=receive'
p5150
I532
sS'w+1=paint'
p5151
I2208
sS'nsubj=Society'
p5152
I1397
sS'ccomp=approve'
p5153
I350
sS'dep=resist'
p5154
I803
sS'nn=Index'
p5155
I1037
sS'ccomp=conduct'
p5156
I391
sS'ccomp=give'
p5157
I448
sS'w+2=australian'
p5158
I2778
sS'w-2=Mandy'
p5159
I4434
sS'w+2=write'
p5160
I3495
sS'w+1=consider'
p5161
I2042
sS'nsubj=Mbeki'
p5162
I1335
sS'w+1=difficulty'
p5163
I2067
sS'w+2=and'
p5164
I2753
sS'w-2=360'
p5165
I4240
sS'w-1=may'
p5166
I4028
sS'w+2=FBI'
p5167
I2486
sS'nsubj=Castelfranco'
p5168
I1243
sS'w+2=sexual'
p5169
I3330
sS'w+1=Nigeria'
p5170
I1947
sS'w+1=after'
p5171
I1972
sS'nsubj=nonsense'
p5172
I1504
sS'ccomp=account'
p5173
I339
sS'advcl=continue'
p5174
I18
sS'w-1=WOZA'
p5175
I3801
sS'w+1=300'
p5176
I1918
sS'w+2=woman'
p5177
I3492
sS'w-1=Eagle'
p5178
I3602
sS'w+2=141'
p5179
I2368
sS'w+2=globally'
p5180
I3009
sS'amod=final'
p5181
I170
sS'ccomp=play'
p5182
I514
sS'w-2=rebel'
p5183
I4992
sS'ccomp=brief'
p5184
I367
sS'w+2=Mogadishu'
p5185
I2589
sS'w-2=latest'
p5186
I4866
sS'w+1=corruption'
p5187
I2045
sS'w-2=disseminate'
p5188
I4734
sS'w-2=Baker'
p5189
I4277
sS'w+1=such'
p5190
I2296
sS'w-1=update'
p5191
I4201
sS'ccomp=responsible'
p5192
I546
sS'w+2=Africa'
p5193
I2413
sS'w+2=spread'
p5194
I3365
sS'w-2=commercial'
p5195
I4686
sS'w-1=patient'
p5196
I4079
sS'w+1=63'
p5197
I1925
sS'w+2=dissension'
p5198
I2913
sS'nsubj=worker'
p5199
I1560
sS'nsubjpass=problem'
p5200
I1648
sS'w+2=Ethiopia'
p5201
I2483
sS'advmod=later'
p5202
I82
sS'w-1=who-commissioned'
p5203
I4213
sS'partmod=affect'
p5204
I1690
sS'w+2=rigging'
p5205
I3300
sS'w+1=some'
p5206
I2281
sS'w+1=election'
p5207
I2084
sS'nsubj=Iraq'
p5208
I1307
sS'nsubj=proportion'
p5209
I1523
sS'appos=authority'
p5210
I301
sS'nsubj=Block'
p5211
I1230
sS'w-2=past'
p5212
I4946
sS'w-2=ABA'
p5213
I4244
sS'prep=near'
p5214
I1801
sS'rcmod=operate'
p5215
I1863
sS'nsubjpass=blast'
p5216
I1588
sS'nsubj=Marines'
p5217
I1332
sS'nsubj=document'
p5218
I1469
sS'w-2=Derek'
p5219
I4326
sS'w+2=40'
p5220
I2390
sS'w-1=another'
p5221
I3846
sS'dobj=official'
p5222
I908
sS'w-2=reluctant'
p5223
I5003
sS'xcomp=enamored'
p5224
I5184
sS'w+1=record'
p5225
I2241
sS'w+2=I'
p5226
I2513
sS'ccomp=come'
p5227
I386
sS'w+2=Zimbabwe'
p5228
I2713
sS'nsubj=Blume'
p5229
I1231
sS'w+2=sectarian'
p5230
I3318
sS'w+2=Taliban'
p5231
I2679
sS'nn=community'
p5232
I1133
sS'w-2=lobbyist'
p5233
I4874
sS'w-2=Kandahar'
p5234
I4407
sS'w-1=presidential'
p5235
I4091
sS'w+1=but'
p5236
I2015
sS'w+1=be'
p5237
I1999
sS'w+2=Vietnam'
p5238
I2702
sS'w-2=European'
p5239
I4342
sS'w-1=au'
p5240
I3853
sS'w+1=throughout'
p5241
I2319
sS'w-1=as'
p5242
I3852
sS'nsubjpass=sighting'
p5243
I1657
sS'nn=Intelligence'
p5244
I1039
sS'w-2=add'
p5245
I4581
sS'w-2=Katy'
p5246
I4412
sS'conj=initiate'
p5247
I658
sS'nn=committee'
p5248
I1132
sS'csubj=contribute'
p5249
I721
sS'amod=confidential'
p5250
I139
sS'w+2=`'
p5251
I2714
sS'w+2=a'
p5252
I2715
sS'w+2=immigrant'
p5253
I3049
sS'w-1=man'
p5254
I4025
sS'w+2=48'
p5255
I2393
ssS'dtype'
p5256
cnumpy
float64
p5257
sS'feature_names_'
p5258
(lp5259
g89
ag2458
ag3818
ag4053
ag5102
ag2581
ag582
ag3539
ag4031
ag573
ag2907
ag222
ag4923
ag2154
ag268
ag618
ag921
ag897
ag5174
ag4025
ag2430
ag964
ag1456
ag139
ag4755
ag1266
ag2248
ag3968
ag3098
ag4692
ag3663
ag1651
ag2339
ag2201
ag3661
ag1459
ag4415
ag4804
ag3667
ag2219
ag5099
ag4042
ag1133
ag3414
ag2024
ag5002
ag1966
ag4426
ag752
ag4762
ag2015
ag3683
ag4864
ag4200
ag1818
ag4689
ag5000
ag106
ag3519
ag4881
ag98
ag767
ag24
ag4601
ag2855
ag4269
ag3105
ag2224
ag3891
ag3354
ag437
ag644
ag1973
ag201
ag301
ag303
ag4264
ag3066
ag3794
ag380
ag3153
ag1429
ag5202
ag4737
ag4455
ag2286
ag1714
ag19
ag474
ag145
ag4467
ag4999
ag1607
ag5029
ag1228
ag3179
ag4612
ag1639
ag4027
ag4463
ag1406
ag1774
ag2390
ag2053
ag733
ag2851
ag1676
ag2326
ag988
ag3640
ag791
ag1424
ag4546
ag1132
ag3182
ag2052
ag1674
ag3117
ag342
ag859
ag839
ag2874
ag2978
ag5059
ag656
ag2970
ag1401
ag1113
ag1336
ag1567
ag3357
ag4066
ag4089
ag871
ag360
ag3493
ag2349
ag1859
ag832
ag5250
ag2708
ag3079
ag5053
ag1254
ag341
ag3724
ag482
ag3636
ag3464
ag1179
ag4672
ag5050
ag2249
ag1793
ag3961
ag2601
ag823
ag2276
ag1570
ag5130
ag943
ag2308
ag597
ag4525
ag4584
ag450
ag1628
ag4423
ag825
ag2832
ag5181
ag2960
ag4257
ag622
ag1234
ag1943
ag1927
ag3870
ag4090
ag3740
ag3864
ag3080
ag2083
ag3064
ag2457
ag4260
ag2734
ag3739
ag3924
ag2101
ag3781
ag238
ag3644
ag3747
ag3547
ag2790
ag2377
ag919
ag4652
ag3876
ag2932
ag536
ag4629
ag1147
ag2386
ag2451
ag2236
ag4063
ag1443
ag1530
ag3256
ag1384
ag4505
ag4278
ag1082
ag2726
ag3605
ag254
ag2137
ag3515
ag727
ag2397
ag4892
ag1136
ag3578
ag1797
ag1135
ag2556
ag2375
ag810
ag4453
ag2870
ag4323
ag2853
ag3045
ag4252
ag4192
ag4054
ag3126
ag3400
ag4565
ag3570
ag2981
ag1870
ag1717
ag5065
ag2793
ag4354
ag5087
ag3840
ag5046
ag3289
ag497
ag22
ag3590
ag3822
ag5014
ag4108
ag3344
ag4470
ag1193
ag1501
ag345
ag458
ag3942
ag1438
ag2561
ag1778
ag4645
ag3592
ag1678
ag1194
ag4956
ag1776
ag2345
ag3977
ag276
ag3533
ag792
ag3100
ag4373
ag2007
ag2194
ag4104
ag1655
ag3524
ag687
ag4206
ag3111
ag452
ag413
ag2894
ag1908
ag246
ag1028
ag58
ag2323
ag2440
ag4899
ag1727
ag1886
ag5210
ag3703
ag4556
ag4961
ag2899
ag1408
ag5049
ag1959
ag3641
ag3310
ag456
ag399
ag4282
ag2972
ag3474
ag2223
ag613
ag3933
ag1537
ag3551
ag4676
ag2418
ag1444
ag3069
ag2712
ag2196
ag3375
ag4168
ag3159
ag3488
ag2233
ag1431
ag756
ag1222
ag427
ag1381
ag4862
ag3261
ag5173
ag1519
ag5021
ag3023
ag1853
ag338
ag2453
ag3210
ag2029
ag620
ag2302
ag5153
ag4110
ag4616
ag1224
ag1926
ag5017
ag3839
ag3333
ag3671
ag2675
ag1796
ag2750
ag4938
ag738
ag367
ag271
ag1985
ag5184
ag3329
ag3743
ag3951
ag1236
ag168
ag2760
ag4991
ag4442
ag761
ag4589
ag120
ag575
ag1993
ag1995
ag2125
ag1928
ag1548
ag4813
ag5227
ag2138
ag462
ag2700
ag1107
ag5156
ag4647
ag3767
ag4844
ag4011
ag4216
ag453
ag1462
ag2474
ag4971
ag2499
ag4134
ag2724
ag5085
ag4328
ag3737
ag16
ag4460
ag1262
ag4068
ag264
ag2897
ag4765
ag4633
ag1270
ag2141
ag4745
ag4651
ag4964
ag2150
ag2506
ag1056
ag2598
ag2618
ag1302
ag4511
ag4114
ag4670
ag1165
ag3965
ag4277
ag2958
ag2378
ag4870
ag2191
ag1553
ag298
ag659
ag1417
ag1382
ag2526
ag2295
ag3887
ag1876
ag2075
ag4073
ag3379
ag5157
ag2799
ag309
ag3184
ag4002
ag2412
ag1682
ag3332
ag203
ag1861
ag4658
ag2368
ag1929
ag28
ag4720
ag5118
ag1946
ag1685
ag979
ag2909
ag2914
ag1647
ag3167
ag638
ag4378
ag2190
ag41
ag937
ag614
ag1939
ag2763
ag2694
ag1331
ag4834
ag3355
ag3865
ag4872
ag4829
ag2434
ag1701
ag4475
ag1706
ag5114
ag478
ag3567
ag2983
ag470
ag1961
ag483
ag980
ag4077
ag4170
ag1240
ag2992
ag4729
ag4622
ag2420
ag2804
ag526
ag721
ag2828
ag3453
ag2758
ag2669
ag4688
ag3298
ag5182
ag4904
ag3520
ag3207
ag2253
ag703
ag3833
ag2330
ag1031
ag3677
ag877
ag570
ag3230
ag4227
ag3647
ag229
ag3629
ag3342
ag5150
ag4821
ag5135
ag2587
ag391
ag4751
ag1534
ag714
ag563
ag1618
ag843
ag1919
ag429
ag3349
ag5192
ag720
ag1012
ag1389
ag2307
ag1072
ag480
ag4686
ag122
ag179
ag3929
ag1472
ag1470
ag1610
ag317
ag1378
ag3201
ag1446
ag3586
ag150
ag805
ag277
ag486
ag837
ag4660
ag1078
ag1418
ag4605
ag1404
ag1733
ag590
ag2180
ag1173
ag1268
ag3529
ag3508
ag596
ag2039
ag1758
ag4995
ag2446
ag2883
ag696
ag1986
ag2059
ag3216
ag3632
ag2122
ag3577
ag1014
ag2110
ag4523
ag2519
ag3927
ag4283
ag4491
ag4038
ag2018
ag2203
ag818
ag2942
ag2642
ag4365
ag4030
ag3311
ag2814
ag719
ag4908
ag4699
ag1585
ag2256
ag4335
ag3758
ag4286
ag1385
ag143
ag1849
ag1743
ag2297
ag1890
ag4293
ag623
ag4035
ag3705
ag166
ag2791
ag281
ag2671
ag3001
ag1000
ag3074
ag3945
ag1893
ag3181
ag3774
ag5125
ag110
ag3468
ag5095
ag1412
ag1101
ag4450
ag1583
ag4087
ag4520
ag4174
ag3073
ag3674
ag4761
ag3902
ag946
ag4385
ag5247
ag2774
ag4485
ag929
ag4544
ag1600
ag3497
ag2097
ag1620
ag1369
ag4840
ag2038
ag519
ag3279
ag1605
ag3115
ag2913
ag4593
ag3486
ag455
ag836
ag3868
ag1533
ag2025
ag1044
ag2821
ag2660
ag3857
ag1554
ag2341
ag4153
ag5091
ag1749
ag1055
ag4600
ag1146
ag2245
ag999
ag3856
ag829
ag4196
ag3514
ag1664
ag4706
ag1769
ag3399
ag3048
ag2582
ag2628
ag4044
ag1935
ag275
ag2313
ag3013
ag2321
ag807
ag1305
ag4081
ag1580
ag1328
ag4793
ag3158
ag5001
ag5249
ag4501
ag3156
ag1037
ag3680
ag2343
ag369
ag2112
ag2402
ag3744
ag2331
ag2575
ag2192
ag4132
ag3102
ag3614
ag2885
ag1057
ag1218
ag62
ag3267
ag283
ag5142
ag4486
ag4559
ag237
ag1589
ag2127
ag3054
ag3367
ag4963
ag4503
ag694
ag1497
ag4735
ag4590
ag4749
ag164
ag4977
ag311
ag4221
ag1624
ag3770
ag5121
ag2209
ag418
ag5136
ag2173
ag564
ag1508
ag3623
ag1791
ag2570
ag4835
ag3764
ag610
ag1455
ag4882
ag2473
ag4392
ag245
ag1286
ag1484
ag2522
ag812
ag5019
ag4432
ag2678
ag2077
ag4217
ag5126
ag5006
ag2831
ag2827
ag1117
ag1938
ag808
ag3211
ag184
ag3086
ag21
ag4093
ag5154
ag3873
ag2982
ag1545
ag1220
ag3120
ag3391
ag4927
ag4187
ag4760
ag186
ag1042
ag1131
ag1341
ag4099
ag1575
ag992
ag126
ag2320
ag4224
ag3769
ag1383
ag4618
ag619
ag3449
ag4838
ag23
ag468
ag3679
ag1697
ag2994
ag2929
ag3118
ag1614
ag923
ag406
ag1430
ag1872
ag4984
ag1715
ag1263
ag1642
ag2834
ag1631
ag3722
ag1738
ag2283
ag1290
ag2353
ag4220
ag1910
ag1977
ag2771
ag528
ag415
ag1660
ag3297
ag3295
ag243
ag1143
ag4639
ag4669
ag2376
ag4493
ag3516
ag2318
ag5112
ag4763
ag5117
ag872
ag860
ag2273
ag484
ag3624
ag1433
ag2178
ag4000
ag2262
ag2880
ag2021
ag3936
ag866
ag2583
ag4424
ag4229
ag4085
ag4019
ag4111
ag4806
ag2996
ag3109
ag2153
ag4316
ag3374
ag8
ag2525
ag2697
ag4841
ag4417
ag2817
ag4118
ag2608
ag2974
ag2417
ag3124
ag5222
ag4040
ag3568
ag4507
ag3824
ag1703
ag35
ag4695
ag358
ag4522
ag1525
ag1204
ag4700
ag1379
ag2120
ag4061
ag1712
ag580
ag1288
ag3717
ag3829
ag3452
ag1887
ag320
ag2901
ag2204
ag1975
ag2225
ag159
ag202
ag2662
ag2567
ag1819
ag3134
ag2037
ag1527
ag3397
ag1918
ag4944
ag899
ag1152
ag2889
ag3445
ag1439
ag400
ag2966
ag5055
ag2436
ag5033
ag3212
ag1636
ag2550
ag1625
ag282
ag1913
ag3263
ag3476
ag1004
ag4484
ag227
ag3363
ag1440
ag977
ag841
ag5092
ag3473
ag4878
ag2954
ag2956
ag2533
ag3339
ag1489
ag725
ag2607
ag2489
ag1293
ag3662
ag4581
ag4696
ag2756
ag2247
ag3303
ag3796
ag4824
ag2542
ag3151
ag1867
ag4776
ag4272
ag286
ag2636
ag1609
ag4342
ag3920
ag4650
ag4243
ag1556
ag1361
ag3783
ag3675
ag1033
ag3446
ag834
ag4588
ag2808
ag3649
ag4421
ag129
ag4355
ag3785
ag3169
ag4162
ag2856
ag1309
ag4102
ag4515
ag4561
ag2202
ag3454
ag4494
ag3646
ag1380
ag4458
ag4850
ag2042
ag1788
ag560
ag5073
ag4716
ag5155
ag116
ag5244
ag490
ag2740
ag2100
ag2574
ag2264
ag2394
ag4377
ag1172
ag1422
ag1158
ag549
ag1535
ag2546
ag2706
ag1111
ag828
ag4873
ag3609
ag460
ag3789
ag938
ag3247
ag1364
ag5013
ag4469
ag3678
ag647
ag2801
ag3757
ag3107
ag3908
ag2893
ag1457
ag1342
ag1692
ag3284
ag1912
ag3376
ag4560
ag3233
ag2759
ag2768
ag1348
ag2579
ag685
ag1764
ag3666
ag5098
ag2815
ag1074
ag598
ag546
ag2539
ag274
ag1549
ag5072
ag3287
ag2544
ag4727
ag4555
ag191
ag2789
ag990
ag241
ag4580
ag223
ag3639
ag2656
ag2409
ag3600
ag3133
ag3930
ag1495
ag1436
ag1569
ag932
ag3581
ag2193
ag3798
ag1468
ag1989
ag1824
ag3616
ag5023
ag591
ag1538
ag4583
ag2426
ag4461
ag160
ag5081
ag5143
ag5248
ag5232
ag1258
ag3653
ag3966
ag925
ag4069
ag294
ag3626
ag1978
ag648
ag945
ag461
ag608
ag3572
ag473
ag3504
ag4529
ag4988
ag2631
ag3745
ag835
ag713
ag2693
ag4514
ag4721
ag2717
ag4967
ag790
ag409
ag912
ag875
ag491
ag2234
ag3996
ag1108
ag4144
ag4694
ag2699
ag3146
ag4495
ag1253
ag1271
ag1312
ag25
ag476
ag3093
ag1018
ag1213
ag2925
ag3859
ag4825
ag3455
ag2109
ag4353
ag2946
ag2860
ag4912
ag4390
ag3728
ag3422
ag2237
ag940
ag1572
ag911
ag4929
ag523
ag681
ag661
ag1053
ag4496
ag505
ag3262
ag3194
ag901
ag954
ag631
ag803
ag4966
ag4597
ag4135
ag1402
ag1371
ag3462
ag3191
ag2926
ag2405
ag2765
ag4910
ag669
ag2968
ag2615
ag4125
ag1597
ag3393
ag3694
ag4420
ag4401
ag5211
ag5229
ag481
ag1917
ag961
ag972
ag1098
ag4933
ag4534
ag3274
ag1182
ag1851
ag2351
ag5168
ag1955
ag2829
ag817
ag2429
ag3152
ag4228
ag1837
ag1105
ag2200
ag4236
ag2438
ag2012
ag4769
ag857
ag3273
ag1540
ag13
ag3805
ag395
ag3802
ag333
ag3948
ag2163
ag4366
ag2787
ag1206
ag319
ag2560
ag4986
ag1109
ag2102
ag1799
ag1297
ag3988
ag131
ag4703
ag2226
ag3478
ag2902
ag892
ag3989
ag4238
ag459
ag4256
ag324
ag1486
ag2751
ag362
ag2407
ag682
ag3219
ag4245
ag2743
ag188
ag4060
ag874
ag3078
ag3244
ag1902
ag1298
ag2383
ag2623
ag1153
ag5208
ag1559
ag224
ag909
ag4274
ag2211
ag4336
ag5139
ag809
ag1376
ag1512
ag350
ag1011
ag1363
ag1407
ag3635
ag3260
ag3487
ag4913
ag2460
ag862
ag4052
ag2687
ag4408
ag4275
ag5217
ag4976
ag2118
ag5162
ag4165
ag1857
ag4481
ag1022
ag4235
ag3762
ag3231
ag1981
ag2917
ag2661
ag4101
ag2238
ag3442
ag125
ag83
ag1883
ag1709
ag653
ag1842
ag4330
ag3345
ag1896
ag1815
ag3751
ag3502
ag5012
ag5132
ag941
ag3896
ag1291
ag2496
ag959
ag1163
ag1835
ag3040
ag4922
ag916
ag2289
ag5100
ag2398
ag3732
ag2725
ag3402
ag1134
ag2316
ag3905
ag114
ag71
ag960
ag559
ag1622
ag2616
ag4036
ag5066
ag1324
ag2403
ag3206
ag845
ag4333
ag5111
ag2517
ag5152
ag267
ag97
ag4480
ag4934
ag3563
ag1858
ag3688
ag3437
ag4498
ag1355
ag588
ag1155
ag4809
ag2962
ag2140
ag258
ag4265
ag422
ag4345
ag670
ag4579
ag1080
ag259
ag3790
ag1282
ag5148
ag2288
ag2949
ag3588
ag4023
ag3721
ag625
ag4384
ag2683
ag2017
ag4606
ag3236
ag4466
ag868
ag730
ag4858
ag1029
ag3450
ag3043
ag3020
ag2602
ag3969
ag1060
ag833
ag571
ag1049
ag4070
ag3885
ag4744
ag4709
ag611
ag4368
ag760
ag446
ag4740
ag4009
ag639
ag4768
ag1736
ag4746
ag151
ag442
ag2452
ag2428
ag3004
ag1396
ag5218
ag2520
ag2090
ag662
ag1941
ag2653
ag4416
ag4712
ag711
ag4008
ag1058
ag2908
ag2934
ag3348
ag1114
ag2736
ag2268
ag3637
ag1754
ag3030
ag3628
ag4828
ag2188
ag1471
ag2132
ag2299
ag1391
ag4429
ag76
ag643
ag1994
ag1480
ag3584
ag4592
ag4097
ag5172
ag900
ag1566
ag4779
ag2212
ag3922
ag2500
ag3280
ag4026
ag3038
ag3844
ag4704
ag4326
ag4156
ag3670
ag31
ag539
ag4304
ag4989
ag5209
ag3594
ag3934
ag3489
ag2650
ag557
ag2300
ag4407
ag4677
ag3525
ag957
ag1156
ag3421
ag2713
ag4346
ag2739
ag1971
ag1882
ag93
ag1077
ag1427
ag175
ag49
ag4683
ag300
ag3243
ag2054
ag1768
ag2181
ag3394
ag2847
ag2867
ag4139
ag2306
ag3012
ag70
ag3634
ag5199
ag3220
ag4160
ag2355
ag3053
ag3248
ag4885
ag1330
ag2836
ag2521
ag42
ag3343
ag2807
ag3470
ag9
ag3253
ag1252
ag2096
ag552
ag2076
ag885
ag1272
ag1878
ag1587
ag3511
ag2045
ag181
ag3638
ag5216
ag2478
ag4034
ag2160
ag2156
ag4167
ag3346
ag5069
ag1723
ag209
ag1199
ag3123
ag124
ag3110
ag4043
ag4199
ag4051
ag1313
ag1499
ag3542
ag2746
ag4630
ag4489
ag3813
ag1942
ag3583
ag1308
ag2492
ag4438
ag4213
ag4246
ag84
ag2128
ag3251
ag4992
ag4736
ag214
ag73
ag1285
ag149
ag80
ag4789
ag561
ag3242
ag2639
ag2199
ag2360
ag2823
ag4259
ag4536
ag3932
ag3403
ag3429
ag3494
ag1828
ag2939
ag1441
ag130
ag4212
ag102
ag5200
ag876
ag1617
ag3550
ag3735
ag2214
ag326
ag4273
ag4983
ag5243
ag1013
ag1914
ag1875
ag4911
ag3658
ag4003
ag2998
ag2164
ag880
ag4791
ag2104
ag3456
ag169
ag43
ag1577
ag4698
ag2080
ag445
ag3862
ag4418
ag3003
ag5084
ag2530
ag2315
ag726
ag865
ag2033
ag1375
ag2738
ag1838
ag663
ag2861
ag5204
ag3409
ag1212
ag3082
ag4602
ag2085
ag3648
ag492
ag2690
ag4968
ag1350
ag1901
ag4973
ag370
ag2252
ag3312
ag4290
ag3340
ag1670
ag4014
ag305
ag1836
ag3788
ag4876
ag2121
ag4656
ag3874
ag332
ag2596
ag4646
ag524
ag1217
ag1820
ag951
ag1230
ag2441
ag5086
ag3886
ag3607
ag290
ag1829
ag3731
ag858
ag718
ag4893
ag2130
ag244
ag356
ag4798
ag4812
ag431
ag3075
ag4288
ag2937
ag922
ag1314
ag4129
ag4169
ag3228
ag2543
ag322
ag1494
ag1813
ag1299
ag548
ag2282
ag2488
ag3241
ag2482
ag3698
ag4668
ag3010
ag1783
ag4638
ag1168
ag2197
ag4209
ag1933
ag4644
ag1086
ag4836
ag3912
ag289
ag469
ag3877
ag947
ag672
ag1536
ag2309
ag2374
ag1198
ag4271
ag2878
ag3727
ag208
ag5028
ag5027
ag1250
ag3943
ag4001
ag3997
ag1007
ag5039
ag512
ag3900
ag3188
ag4413
ag2545
ag2858
ag5070
ag4558
ag5214
ag2796
ag3591
ag2210
ag3598
ag359
ag1761
ag2391
ag1084
ag3995
ag3978
ag5057
ag4364
ag1593
ag3392
ag3005
ag4577
ag4371
ag2250
ag3630
ag2735
ag4868
ag2976
ag372
ag5141
ag852
ag2593
ag141
ag3032
ag699
ag2553
ag5016
ag1747
ag2955
ag3387
ag4318
ag898
ag3892
ag4024
ag3431
ag3500
ag1488
ag1862
ag2562
ag111
ag4500
ag654
ag3608
ag4440
ag3034
ag1691
ag421
ag2008
ag785
ag176
ag2569
ag432
ag655
ag1333
ag3687
ag893
ag794
ag5215
ag2034
ag1979
ag657
ag668
ag48
ag645
ag231
ag2755
ag4905
ag3352
ag4925
ag5040
ag4405
ag2093
ag4464
ag2527
ag4013
ag4928
ag2382
ag1046
ag510
ag3708
ag1120
ag489
ag1710
ag4980
ag4945
ag3779
ag2031
ag2819
ag2776
ag2414
ag2152
ag2078
ag3554
ag3285
ag3521
ag2845
ag2284
ag4897
ag2571
ag4538
ag397
ag3523
ag3556
ag2572
ag1061
ag5134
ag1066
ag4022
ag3383
ag3240
ag3197
ag1425
ag5176
ag1800
ag4445
ag4084
ag4819
ag4313
ag1677
ag5197
ag3612
ag2580
ag4996
ag5146
ag251
ag3439
ag3991
ag2361
ag379
ag4634
ag844
ag501
ag4551
ag3215
ag1017
ag3252
ag2632
ag743
ag4823
ag1180
ag2459
ag5170
ag3707
ag2157
ag1889
ag5115
ag1370
ag2004
ag3017
ag4428
ag1452
ag4241
ag5010
ag4926
ag2619
ag2721
ag3177
ag3059
ag830
ag2611
ag2610
ag903
ag5058
ag371
ag2637
ag723
ag5171
ag4854
ag3173
ag2915
ag146
ag4942
ag2476
ag4233
ag4801
ag2047
ag4205
ag2354
ag4131
ag4222
ag428
ag1093
ag2919
ag755
ag3070
ag4543
ag3072
ag2871
ag1988
ag2737
ag741
ag1277
ag974
ag5237
ag3321
ag1259
ag1087
ag423
ag3861
ag710
ag3416
ag329
ag1394
ag381
ag2626
ag230
ag609
ag1177
ag1089
ag5236
ag3498
ag252
ag1757
ag991
ag2586
ag1463
ag2399
ag2235
ag3760
ag1693
ag5037
ag2573
ag3300
ag1950
ag763
ag847
ag996
ag2267
ag1307
ag2971
ag5089
ag4296
ag819
ag4124
ag3881
ag487
ag5161
ag4410
ag1415
ag5187
ag2061
ag878
ag595
ag2906
ag3964
ag3466
ag997
ag2745
ag2328
ag2803
ag1669
ag2470
ag2668
ag4653
ag3361
ag4619
ag3433
ag4006
ag1507
ag2622
ag924
ag5163
ag2046
ag3388
ag1300
ag3804
ag2427
ag3362
ag1085
ag495
ag3753
ag3755
ag3396
ag641
ag1347
ag1315
ag1281
ag617
ag5207
ag1740
ag3193
ag220
ag4879
ag1751
ag543
ag2944
ag4783
ag3686
ag4015
ag4799
ag3776
ag600
ag1483
ag3390
ag2773
ag3405
ag4874
ag4919
ag3689
ag3576
ag4778
ag1576
ag908
ag4739
ag4439
ag2508
ag2487
ag426
ag5005
ag5063
ag1730
ag1349
ag1728
ag3192
ag234
ag985
ag1437
ag4285
ag447
ag3528
ag1863
ag2673
ag3365
ag3907
ag705
ag144
ag2568
ag4276
ag1317
ag4201
ag886
ag3807
ag4182
ag894
ag1970
ag3477
ag142
ag5090
ag883
ag3809
ag5067
ag1825
ag3513
ag3536
ag2852
ag261
ag4979
ag4226
ag132
ag3203
ag1477
ag2006
ag337
ag5140
ag3835
ag296
ag3561
ag1649
ag1144
ag4041
ag2198
ag1516
ag1672
ag4382
ag2483
ag3780
ag2003
ag3196
ag2174
ag2780
ag666
ag3128
ag930
ag463
ag2218
ag2392
ag2839
ag2028
ag5004
ag1595
ag1482
ag3164
ag4370
ag1274
ag3183
ag210
ag3909
ag2833
ag156
ag4045
ag1388
ag4748
ag2469
ag3821
ag2086
ag173
ag2324
ag242
ag4451
ag3359
ag3417
ag1568
ag5151
ag1170
ag1724
ag3218
ag5074
ag3564
ag3254
ag3935
ag4315
ag863
ag1623
ag2208
ag516
ag1650
ag2158
ag2732
ag2875
ag3899
ag3239
ag1892
ag4849
ag4308
ag3749
ag92
ag542
ag3457
ag3854
ag2363
ag4935
ag2943
ag2606
ag103
ag2213
ag5225
ag1817
ag4567
ag2666
ag199
ag1009
ag3366
ag3882
ag1353
ag101
ag3831
ag38
ag3499
ag4685
ag4287
ag1976
ag2014
ag5062
ag521
ag4730
ag1395
ag889
ag1142
ag4048
ag527
ag2890
ag838
ag1571
ag137
ag349
ag676
ag1511
ag667
ag1279
ag2485
ag4189
ag2041
ag1666
ag2841
ag4557
ag5206
ag4184
ag2442
ag4531
ag1445
ag2868
ag91
ag2129
ag2449
ag1001
ag1337
ag1634
ag1700
ag2766
ag5022
ag5190
ag3314
ag3704
ag1390
ag3748
ag3322
ag1915
ag2920
ag1116
ag4693
ag4572
ag1954
ag1397
ag226
ag4446
ag3187
ag2843
ag3690
ag2850
ag2933
ag2936
ag4907
ag466
ag5241
ag1099
ag3778
ag1940
ag2719
ag3083
ag4078
ag3168
ag4397
ag3217
ag4309
ag2370
ag3011
ag535
ag3129
ag3931
ag3541
ag4947
ag2935
ag4214
ag1335
ag4775
ag1188
ag873
ag2396
ag1551
ag1756
ag2663
ag4436
ag339
ag2842
ag3294
ag414
ag2367
ag4767
ag4815
ag4962
ag567
ag1518
ag4957
ag4395
ag1121
ag5015
ag1265
ag4056
ag1122
ag2979
ag2975
ag3275
ag5179
ag4690
ag3317
ag1115
ag754
ag1596
ag4106
ag4148
ag4367
ag4307
ag4305
ag4303
ag4302
ag4301
ag3569
ag3980
ag4915
ag364
ag989
ag365
ag1729
ag2592
ag5220
ag2691
ag1798
ag5255
ag2261
ag4800
ag4802
ag385
ag1637
ag363
ag5120
ag4425
ag3880
ag4062
ag4234
ag3696
ag2627
ag1227
ag1925
ag4795
ag5109
ag702
ag2985
ag5193
ag162
ag2718
ag205
ag4490
ag3712
ag107
ag1987
ag701
ag4399
ag4883
ag1045
ag4483
ag4766
ag4447
ag189
ag5061
ag3060
ag3137
ag1732
ag2425
ag2344
ag4255
ag1197
ag1320
ag3019
ag3993
ag4176
ag1345
ag1563
ag4830
ag4262
ag4344
ag2260
ag4247
ag2624
ag3730
ag2445
ag2477
ag2081
ag1969
ag412
ag3834
ag4691
ag798
ag4194
ag1705
ag3092
ag3571
ag740
ag1500
ag4741
ag1856
ag633
ag2769
ag4578
ag3142
ag888
ag1833
ag165
ag404
ag87
ag768
ag2961
ag1373
ag3139
ag1725
ag4441
ag3938
ag3810
ag5201
ag2785
ag2364
ag5167
ag3962
ag2227
ag3491
ag5082
ag3131
ag4742
ag297
ag250
ag2714
ag2455
ag4665
ag81
ag891
ag1127
ag1256
ag2638
ag2647
ag750
ag3161
ag1948
ag525
ag218
ag3265
ag4701
ag1931
ag3276
ag5226
ag4177
ag2862
ag4094
ag3268
ag2964
ag394
ag1491
ag1453
ag1294
ag2423
ag2415
ag2019
ag3022
ag4422
ag3509
ag583
ag4674
ag155
ag4121
ag2143
ag3381
ag2716
ag4993
ag2826
ag1019
ag1248
ag4079
ag1304
ag3364
ag1806
ag2184
ag2064
ag3015
ag1409
ag1907
ag4266
ag747
ag170
ag239
ag621
ag444
ag4499
ag3293
ag513
ag4554
ag4781
ag3867
ag430
ag884
ag736
ag3436
ag2665
ag2620
ag1965
ag5008
ag1359
ag2327
ag4479
ag1832
ag2784
ag2744
ag3673
ag734
ag2000
ag3094
ag3246
ag2986
ag4648
ag1036
ag3165
ag4334
ag1414
ag2747
ag4173
ag4576
ag5185
ag917
ag1574
ag2911
ag3503
ag4898
ag2240
ag96
ag1565
ag55
ag2795
ag1789
ag2657
ag1196
ag565
ag2189
ag2941
ag5026
ag2918
ag4946
ag1023
ag824
ag4773
ag4981
ag3461
ag4994
ag2494
ag787
ag1850
ag4190
ag1366
ag12
ag1594
ag2416
ag717
ag3178
ag1905
ag3692
ag2830
ag3610
ag1104
ag2854
ag4817
ag1214
ag634
ag1267
ag136
ag2275
ag4635
ag1490
ag3622
ag4950
ag2290
ag4059
ag532
ag148
ag4750
ag1722
ag1027
ag1539
ag882
ag3949
ag4516
ag4339
ag4780
ag1096
ag4147
ag3853
ag1741
ag1982
ag3490
ag1968
ag4254
ag3101
ag995
ag2385
ag1322
ag3331
ag2741
ag968
ag4017
ag2603
ag3850
ag1557
ag383
ag190
ag2336
ag3527
ag4621
ag3368
ag5231
ag1653
ag196
ag684
ag1752
ag3940
ag1873
ag4166
ag1284
ag4474
ag3444
ag3852
ag5011
ag2063
ag2538
ag920
ag3186
ag1097
ag496
ag507
ag2435
ag4506
ag263
ag5238
ag4117
ag3700
ag1958
ag1962
ag4098
ag2462
ag3720
ag3162
ag3130
ag4374
ag5228
ag5251
ag5252
ag2170
ag799
ag2924
ag4939
ag4204
ag1839
ag1673
ag4058
ag1765
ag1792
ag1339
ag1423
ag4263
ag3170
ag307
ag4524
ag4518
ag4513
ag1010
ag2231
ag2812
ag593
ag820
ag449
ag926
ag4312
ag2035
ag1805
ag2959
ag628
ag287
ag4889
ag1255
ag1432
ag3281
ag2655
ag782
ag5164
ag1734
ag3463
ag4671
ag302
ag4790
ag3205
ag4960
ag3603
ag3715
ag3593
ag3222
ag2410
ag2648
ag2947
ag2895
ag4519
ag4430
ag2555
ag856
ag4504
ag2695
ag4388
ag2805
ag1667
ag5158
ag2535
ag4663
ag4734
ag321
ag1411
ag4152
ag471
ag4857
ag4902
ag1461
ag1635
ag1075
ag272
ag2509
ag855
ag2513
ag2319
ag1665
ag3029
ag3319
ag3009
ag1967
ag3044
ag211
ag1325
ag45
ag4142
ag556
ag351
ag308
ag3869
ag1243
ag3007
ag2749
ag673
ag1264
ag1071
ag4310
ag1235
ag2557
ag1831
ag1181
ag2711
ag3371
ag2389
ag2404
ag46
ag4875
ag4548
ag3719
ag2685
ag2701
ag5030
ag4541
ag4300
ag4198
ag4842
ag3373
ag2115
ag3501
ag2294
ag4604
ag3318
ag3574
ag801
ag3985
ag154
ag3121
ag2720
ag2371
ag1974
ag4091
ag942
ag3619
ag2073
ag766
ag674
ag1787
ag983
ag2079
ag192
ag10
ag2337
ag1367
ag5145
ag509
ag854
ag4664
ag2266
ag1900
ag2811
ag4294
ag1964
ag2591
ag472
ag3483
ag3113
ag1615
ag3384
ag3959
ag4940
ag3693
ag4637
ag2967
ag3135
ag4796
ag3782
ag4482
ag562
ag4240
ag4096
ag2068
ag3172
ag867
ag2185
ag2541
ag2879
ag4230
ag4553
ag3655
ag3801
ag4406
ag4083
ag330
ag4859
ag2600
ag1126
ag4713
ag3702
ag4764
ag3668
ag3998
ag1707
ag318
ag5198
ag3428
ag3065
ag2798
ag1573
ag2419
ag1063
ag1711
ag2106
ag1814
ag953
ag3795
ag3806
ag2664
ag632
ag2187
ag26
ag4535
ag1704
ag2032
ag3518
ag436
ag354
ag187
ag3777
ag1338
ag3204
ag1923
ag1621
ag1400
ag4314
ag2472
ag3176
ag3320
ag128
ag1318
ag2205
ag3955
ag1387
ag4140
ag3324
ag4112
ag3631
ag3742
ag3277
ag4758
ag3031
ag334
ag1744
ag1413
ag1002
ag3208
ag2395
ag1110
ag3535
ag1827
ag3894
ag3232
ag2729
ag454
ag3672
ag813
ag3775
ag1601
ag1529
ag3148
ag4861
ag1498
ag2951
ag4586
ag4564
ag1083
ag2291
ag553
ag378
ag1619
ag1775
ag2613
ag1505
ag4471
ag1485
ag3458
ag3752
ag1794
ag4595
ag749
ag2116
ag3944
ag221
ag256
ag2597
ag2490
ag4705
ag1448
ag918
ag1231
ag5180
ag1148
ag3323
ag4181
ag3255
ag3401
ag1523
ag4832
ag3271
ag1745
ag3356
ag1306
ag4599
ag533
ag3820
ag4376
ag1949
ag3334
ag3842
ag152
ag4757
ag646
ag2365
ag4517
ag3415
ag4542
ag2044
ag1524
ag2362
ag4568
ag4393
ag1613
ag1310
ag4352
ag248
ag435
ag3226
ag1210
ag1514
ag386
ag5253
ag1354
ag2835
ag3921
ag1521
ag3750
ag2272
ag4434
ag4311
ag1611
ag577
ag2752
ag1047
ag2547
ag1030
ag368
ag1891
ag2621
ag100
ag4433
ag52
ag134
ag895
ag3221
ag1990
ag2475
ag3706
ag2576
ag534
ag3878
ag3953
ag3119
ag183
ag1934
ag1467
ag2095
ag3016
ag1186
ag1159
ag485
ag310
ag5128
ag373
ag2991
ag343
ag4591
ag1522
ag915
ag2689
ag2155
ag3398
ag3713
ag2065
ag3792
ag2585
ag4970
ag4250
ag3234
ag3014
ag2448
ag1997
ag4437
ag831
ag910
ag520
ag712
ag1816
ag4803
ag1296
ag3140
ag4594
ag2342
ag2507
ag1043
ag906
ag4628
ag3259
ag3382
ag3691
ag2072
ag1368
ag1598
ag388
ag887
ag4609
ag1779
ag4982
ag1208
ag2781
ag402
ag3025
ag978
ag759
ag2278
ag2340
ag1332
ag5110
ag1633
ag4847
ag3917
ag1753
ag4325
ag2558
ag3890
ag800
ag1421
ag3335
ag74
ag4563
ag3872
ag1426
ag5096
ag3960
ag72
ag802
ag2993
ag998
ag4488
ag744
ag3451
ag4680
ag1362
ag4582
ag1496
ag864
ag1460
ag1991
ag2285
ag2963
ag3685
ag2001
ag157
ag3970
ag1398
ag1972
ag262
ag2074
ag3627
ag4343
ag1658
ag4549
ag757
ag5060
ag3245
ag14
ag2704
ag3125
ag2563
ag4532
ag464
ag1251
ag3338
ag1052
ag2876
ag4547
ag2066
ag2230
ag3180
ag1807
ag4267
ag4076
ag4569
ag3893
ag3237
ag4715
ag3906
ag493
ag4587
ag2443
ag3904
ag4869
ag384
ag4952
ag691
ag4055
ag2931
ag1581
ag2471
ag4141
ag2891
ag3330
ag555
ag4400
ag2888
ag4906
ag1515
ag325
ag2566
ag4566
ag1344
ag1877
ag66
ag3443
ag4158
ag4931
ag3104
ag1773
ag5083
ag1069
ag677
ag2135
ag2728
ag1777
ag4341
ag4822
ag3599
ag1885
ag2512
ag4398
ag3889
ag896
ag586
ag1713
ag5147
ag1898
ag1760
ag4210
ag1888
ag4955
ag4562
ag1203
ag981
ag797
ag2431
ag2564
ag4327
ag1137
ag765
ag1643
ag771
ag99
ag3282
ag1205
ag3710
ag2670
ag3492
ag2881
ag3006
ag3036
ag4863
ag4810
ag1780
ag353
ag2884
ag3296
ag2055
ag5080
ag4299
ag2863
ag1321
ag793
ag5205
ag1755
ag1167
ag4322
ag3754
ag4164
ag3947
ag3505
ag2928
ag1464
ag1795
ag3432
ag2117
ag1731
ag172
ag2813
ag4356
ag3560
ag5230
ag5094
ag376
ag3448
ag4225
ag2244
ag2504
ag3258
ag4133
ag4350
ag108
ag393
ag5169
ag167
ag4487
ag5043
ag2206
ag4261
ag572
ag3664
ag5088
ag2528
ag4297
ag4941
ag1880
ag1200
ag695
ag1506
ag2549
ag314
ag3018
ag2646
ag67
ag232
ag1280
ag2707
ag504
ag2009
ag1386
ag4347
ag344
ag3911
ag715
ag3786
ag4188
ag4998
ag375
ag5194
ag1956
ag2912
ag403
ag213
ag2903
ag3438
ag4172
ag1638
ag1211
ag3157
ag255
ag1517
ag5077
ag4449
ag2259
ag779
ag4738
ag2609
ag1184
ag36
ag2369
ag3718
ag3903
ag1830
ag51
ag1772
ag3711
ag3199
ag2254
ag3841
ag3642
ag5131
ag5123
ag3309
ag4032
ag2311
ag4232
ag1591
ag3227
ag3883
ag4787
ag185
ag569
ag4784
ag2777
ag3171
ag2857
ag3534
ag1690
ag4827
ag651
ag1434
ag658
ag1261
ag1171
ag1630
ag1079
ag1249
ag1292
ag950
ag2531
ag304
ag2709
ag5035
ag4811
ag3946
ag4596
ag3879
ag758
ag2421
ag4046
ag500
ag433
ag4617
ag2030
ag1602
ag3091
ag1811
ag3360
ag4877
ag1016
ag4128
ag2352
ag1555
ag4080
ag1081
ag1187
ag4251
ag3981
ag1742
ag1844
ag4774
ag3729
ag2450
ag4725
ag2167
ag948
ag424
ag3531
ag4820
ag1026
ag2149
ag4585
ag4452
ag2825
ag2534
ag4186
ag4687
ag1904
ag1178
ag1640
ag2217
ag4752
ag2816
ag4361
ag4626
ag4105
ag347
ag4383
ag2280
ag1843
ag2806
ag2800
ag312
ag1221
ag4497
ag5177
ag4284
ag2957
ag5160
ag1916
ag3656
ag207
ag5041
ag3214
ag3136
ag2124
ag5045
ag1696
ag4357
ag5044
ag811
ag869
ag3566
ag1762
ag574
ag2303
ag2304
ag2305
ag2293
ag410
ag2635
ag5129
ag2229
ag624
ag3189
ag1405
ag401
ag2411
ag2322
ag2486
ag4163
ag441
ag1246
ag3562
ag4248
ag704
ag1680
ag642
ag2681
ag4427
ag4930
ag407
ag2984
ag1930
ag4239
ag1357
ag2314
ag1612
ag4887
ag879
ag2502
ag2559
ag4207
ag3543
ag1541
ag1450
ag1301
ag3611
ag2989
ag2113
ag5056
ag3697
ag1963
ag233
ag3682
ag340
ag3845
ag104
ag660
ag2098
ag4329
ag1562
ag1478
ag270
ag488
ag4016
ag1528
ag4624
ag75
ag506
ag3651
ag3085
ag3817
ag4951
ag336
ag1735
ag4126
ag1295
ag584
ag3002
ag299
ag2896
ag4697
ag1750
ag537
ag4654
ag4860
ag4792
ag1160
ag1868
ag1064
ag2866
ag4702
ag2265
ag95
ag5178
ag3141
ag4666
ag3412
ag3849
ag3695
ag4178
ag697
ag158
ag1920
ag3958
ag1984
ag3652
ag4103
ag1802
ag3404
ag2501
ag1289
ag4965
ag3090
ag1038
ag346
ag1323
ag2036
ag405
ag1185
ag2916
ag4215
ag2387
ag1442
ag3200
ag2481
ag2643
ag4444
ag1233
ag3803
ag589
ag503
ag2126
ag4884
ag2837
ag5018
ag1351
ag3175
ag2930
ag3269
ag3537
ag1358
ag1841
ag1708
ag115
ag1748
ag4805
ag2166
ag5003
ag3235
ag2495
ag2524
ag1311
ag3976
ag4718
ag1812
ag86
ag1124
ag4615
ag467
ag795
ag4958
ag291
ag5124
ag118
ag4631
ag163
ag2215
ag1546
ag3052
ag2767
ag2133
ag2171
ag2356
ag4005
ag1410
ag1689
ag962
ag3825
ag1644
ag1895
ag3028
ag1544
ag827
ag1821
ag3166
ag986
ag2873
ag1209
ag3350
ag3826
ag1008
ag4723
ag279
ag3601
ag3956
ag147
ag4197
ag3337
ag4075
ag2298
ag374
ag323
ag3095
ag328
ag3544
ag1531
ag2067
ag37
ag20
ag2464
ag2945
ag5034
ag4640
ag4478
ag649
ag2084
ag5042
ag4412
ag4473
ag2380
ag1871
ag3484
ag1162
ag2518
ag3725
ag1822
ag3039
ag4065
ag982
ag3000
ag1237
ag3033
ag4953
ag4115
ag3056
ag1287
ag4521
ag3971
ag4244
ag4871
ag627
ag1161
ag4443
ag1719
ag4620
ag5097
ag3190
ag1957
ag3482
ag3286
ag3378
ag1679
ag4419
ag2882
ag419
ag671
ag2147
ag3716
ag3427
ag1192
ag2938
ag4039
ag4338
ag1790
ag1999
ag4533
ag4949
ag4183
ag678
ag708
ag4708
ag1245
ag1860
ag1542
ag2540
ag1048
ag2633
ag822
ag1803
ag4157
ag3898
ag4655
ag3238
ag1921
ag2667
ag3736
ag3982
ag3469
ag1095
ag2634
ag2772
ag2565
ag5175
ag3306
ag2271
ag193
ag870
ag540
ag3827
ag2466
ag2246
ag3815
ag4317
ag3979
ag3650
ag3485
ag2176
ag716
ag2629
ag1702
ag215
ag4502
ag2810
ag5079
ag2864
ag751
ag2312
ag438
ag4150
ag814
ag2710
ag4886
ag4924
ag2940
ag3434
ag4545
ag1767
ag1242
ag1374
ag3746
ag4465
ag853
ag709
ag3068
ag1720
ag1510
ag1106
ag5221
ag3460
ag781
ag1241
ag934
ag3389
ag5242
ag5240
ag2702
ag2614
ag30
ag2444
ag178
ag4349
ag2892
ag4049
ag3290
ag2279
ag4954
ag4380
ag4753
ag4253
ag4808
ag4814
ag3308
ag688
ag4387
ag3096
ag2927
ag4785
ag1866
ag1657
ag3633
ag44
ag4021
ag4918
ag1191
ag3076
ag443
ag257
ag1852
ag1897
ag1513
ag382
ag3552
ag2686
ag1906
ag295
ag958
ag1579
ag2778
ag1216
ag550
ag2516
ag4959
ag2548
ag204
ag1846
ag228
ag1102
ag260
ag3545
ag3407
ag4611
ag1226
ag976
ag731
ag5054
ag665
ag975
ag2731
ag1586
ag3266
ag1552
ag3027
ag59
ag1684
ag1176
ag4321
ag2644
ag1269
ag3589
ag219
ag4270
ag3522
ag581
ag1377
ag4472
ag499
ag2950
ag3901
ag64
ag1005
ag2255
ag3198
ag4794
ag4710
ag3257
ag2786
ag601
ag615
ag3103
ag1869
ag773
ag5032
ag2677
ag3559
ag1244
ag849
ag236
ag3884
ag2379
ag2965
ag1051
ag1847
ag4937
ag907
ag2269
ag2287
ag5106
ag4867
ag1590
ag3846
ag612
ag965
ag5122
ag1492
ag531
ag306
ag4632
ag2020
ag2480
ag3150
ag4375
ag1103
ag88
ag4681
ag4711
ag2554
ag1698
ag2258
ag1260
ag3480
ag3832
ag2456
ag3122
ag558
ag1578
ag1025
ag266
ag630
ag3843
ag1520
ag3163
ag2393
ag3875
ag2594
ag3049
ag3058
ag1662
ag4171
ag2788
ag545
ag348
ag113
ag1809
ag197
ag4348
ag3734
ag5149
ag902
ag3659
ag2070
ag1174
ag4095
ag2461
ag1932
ag1823
ag27
ag5254
ag2099
ag2705
ag5166
ag1532
ag732
ag1683
ag1352
ag3420
ag2605
ag3983
ag2144
ag249
ag987
ag530
ag4161
ag1319
ag2162
ag2515
ag2761
ag2333
ag94
ag3925
ag357
ag56
ag477
ag1481
ag4856
ag3923
ag2511
ag2002
ag616
ag3299
ag594
ag3669
ag4987
ag3351
ag4916
ag1582
ag3916
ag3410
ag4435
ag1854
ag4138
ag3084
ag2400
ag4337
ag4119
ag2659
ag451
ag3081
ag1183
ag2886
ag1558
ag5196
ag2022
ag1924
ag3106
ag881
ag3812
ag3800
ag4797
ag3024
ag138
ag2742
ag4818
ag5235
ag2514
ag1276
ag5127
ag1804
ag3657
ag3041
ag4974
ag3793
ag3035
ag788
ag3914
ag1130
ag4137
ag2175
ag3055
ag411
ag3602
ag420
ag1782
ag3418
ag1157
ag1340
ag2023
ag517
ag2617
ag3950
ag5108
ag1034
ag3326
ag4625
ag4613
ag109
ag4509
ag551
ag2652
ag4607
ag599
ag4598
ag3595
ag1067
ag1201
ag4833
ag4682
ag4891
ag1138
ag4047
ag4732
ag4459
ag3288
ag3558
ag928
ag778
ag1032
ag3264
ag1737
ag1771
ag4890
ag1626
ag4733
ag285
ag3174
ag174
ag4657
ag3919
ag2142
ag4608
ag4643
ag1606
ag993
ag79
ag5104
ag2770
ag1951
ag3928
ag1627
ag1884
ag604
ag68
ag82
ag796
ag529
ag2990
ag2625
ag1864
ag1149
ag2584
ag4082
ag1608
ag1118
ag4770
ag3114
ag390
ag392
ag3723
ag2640
ag4853
ag1903
ag1845
ag377
ag2373
ag780
ag265
ag2087
ag1786
ag4369
ag2348
ag2043
ag4673
ag4880
ag5191
ag4072
ag606
ag4320
ag5144
ag1416
ag1947
ag1059
ag4743
ag4122
ag4573
ag2346
ag5203
ag3836
ag1119
ag2384
ag112
ag1801
ag3301
ag90
ag3116
ag3495
ag1960
ag217
ag4175
ag3613
ag3939
ag2408
ag3229
ag1652
ag3047
ag1687
ag1686
ag1065
ag4208
ag890
ag161
ag4319
ag3866
ag5165
ag60
ag2641
ag3986
ag5213
ag2232
ag4298
ag2995
ag4268
ag4788
ag253
ag2335
ag1195
ag355
ag1050
ag5076
ag735
ag4362
ag1945
ag1128
ag1766
ag1629
ag2439
ag3830
ag2676
ag2493
ag4218
ag389
ag737
ag2165
ag4092
ag3617
ag3507
ag804
ag3112
ag3087
ag3585
ag5189
ag3347
ag1936
ag153
ag2347
ag963
ag762
ag2056
ag2060
ag3784
ag4845
ag1419
ag2381
ag693
ag4402
ag927
ag4909
ag683
ag475
ag1123
ag1654
ag777
ag2108
ag4386
ag1726
ag2103
ag689
ag4831
ag3999
ag5051
ag4154
ag3155
ag1656
ag327
ag3249
ag316
ag2454
ag4223
ag15
ag1834
ag2058
ag3759
ag1785
ag1068
ag3926
ag5138
ag1447
ag4826
ag1911
ag5219
ag2498
ag3077
ag1503
ag4726
ag1547
ag4920
ag3425
ag4932
ag1020
ag3974
ag5103
ag511
ag3858
ag635
ag786
ag5239
ag2277
ag3341
ag2242
ag3863
ag4146
ag4185
ag1190
ag280
ag2257
ag3481
ag1998
ag2088
ag1543
ag2973
ag2216
ag4527
ag32
ag4136
ag4454
ag4777
ag1273
ag1855
ag4570
ag4145
ag2588
ag4852
ag1372
ag3532
ag1465
ag4722
ag4127
ag2151
ag1810
ag5093
ag2131
ag34
ag1840
ag4985
ag3209
ag1454
ag3475
ag5119
ag1980
ag2948
ag2764
ag698
ag1334
ag1599
ag1695
ag5078
ag2969
ag3771
ag2183
ag4202
ag579
ag650
ag2844
ag2263
ag2372
ag1166
ag2292
ag3579
ag2730
ag1229
ag5234
ag686
ag2479
ag3037
ag3597
ag5246
ag4332
ag2754
ag2301
ag4636
ag4193
ag5047
ag1584
ag2505
ag1668
ag2552
ag2818
ag1040
ag2590
ag3325
ag2715
ag4037
ag4414
ag707
ag3307
ag587
ag11
ag5159
ag4528
ag4512
ag2222
ag4113
ag602
ag1487
ag3408
ag4372
ag1564
ag3915
ag4747
ag971
ag2413
ag2424
ag515
ag63
ag2952
ag2877
ag1399
ag4476
ag4972
ag1504
ag1125
ag502
ag2921
ag4462
ag1393
ag5064
ag29
ag2062
ag4237
ag4280
ag1996
ag4242
ag4100
ag2692
ag4477
ag3575
ag4107
ag2105
ag2069
ag3851
ag2401
ag3327
ag4659
ag3756
ag1154
ag3761
ag2589
ag4291
ag774
ag3471
ag4306
ag5133
ag4610
ag514
ag352
ag5036
ag180
ag1035
ag3050
ag1189
ag3291
ag1356
ag1090
ag3828
ag1681
ag2722
ag4662
ag1694
ag2332
ag2838
ag2139
ag2753
ag742
ag4180
ag3808
ag2027
ag4029
ag4839
ag4151
ag2274
ag4510
ag3147
ag3538
ag3765
ag3972
ag335
ag2433
ag4914
ag4249
ag5116
ag4903
ag4020
ag789
ag3026
ag2757
ag1094
ag3202
ag4837
ag2645
ag1881
ag4888
ag3440
ag821
ag416
ag3088
ag547
ag1202
ag2859
ag3847
ag2595
ag4936
ag3370
ag3819
ag1303
ag739
ag313
ag4123
ag4431
ag269
ag4782
ag4552
ag2523
ag680
ag1952
ag2696
ag955
ag2612
ag850
ag4539
ag1039
ag3223
ag629
ag2357
ag2497
ag119
ag2727
ag440
ag3302
ag4191
ag135
ag4340
ag578
ag284
ag3967
ag5245
ag5107
ag117
ag1645
ag2783
ag2794
ag4007
ag1937
ag1239
ag3766
ag2658
ag4120
ag603
ag4295
ag3057
ag4389
ag2221
ag1150
ag1469
ag198
ag2228
ag2251
ag2358
ag1223
ag1746
ag3573
ag3952
ag679
ag127
ag2822
ag434
ag1112
ag278
ag3127
ag3071
ag47
ag1076
ag4324
ag748
ag585
ag1346
ag5031
ag1473
ag706
ag4211
ag2338
ag3063
ag4540
ag2820
ag4394
ag4896
ag4661
ag3848
ag2050
ag2089
ag4457
ag1257
ag2688
ag4900
ag2049
ag783
ag5075
ag2334
ag2987
ag398
ag3089
ag2910
ag3615
ag1808
ag57
ag1781
ag3336
ag1588
ag840
ag2797
ag1699
ag3051
ag4917
ag1091
ag3358
ag4851
ag3292
ag1278
ag3419
ag1561
ag1474
ag3797
ag3548
ag1922
ag4684
ag568
ag3937
ag522
ag3021
ag1326
ag4627
ag2491
ag652
ag1688
ag2536
ag1169
ag3714
ag2136
ag1428
ag85
ag5195
ag2220
ag1219
ag3377
ag2172
ag3726
ag605
ag2869
ag4865
ag331
ag177
ag457
ag2359
ag2748
ag2792
ag4707
ag842
ag396
ag3596
ag2848
ag2107
ag4064
ag966
ag5025
ag3772
ag5024
ag123
ag2779
ag3510
ag3067
ag5048
ag2182
ag3145
ag4057
ag692
ag2169
ag518
ag3313
ag2186
ag816
ag724
ag3555
ag3992
ag2762
ag554
ag4894
ag776
ag2463
ag5188
ag2119
ag2997
ag408
ag3957
ag3061
ag18
ag2775
ag2468
ag1215
ag4772
ag3430
ag2057
ag3143
ag2146
ag3557
ag3768
ag1275
ag3582
ag3973
ag2329
ag2091
ag1343
ag4724
ag2406
ag3138
ag3895
ag722
ag2366
ag1632
ag4614
ag4088
ag1826
ag4179
ag1502
ag1316
ag3618
ag5113
ag3681
ag3553
ag1675
ag3526
ag1003
ag2698
ag4468
ag3918
ag105
ag3676
ag2840
ag4067
ag2577
ag4948
ag4571
ag3353
ag4550
ag2809
ag5071
ag4603
ag4997
ag566
ag956
ag3855
ag2177
ag4403
ag4921
ag4990
ag1283
ag2922
ag4155
ag2872
ag2703
ag973
ag861
ag1164
ag3270
ag3328
ag4642
ag498
ag544
ag3441
ag1526
ag4848
ag4537
ag2529
ag1716
ag77
ag1151
ag4678
ag195
ag2241
ag2092
ag3787
ag933
ag4759
ag905
ag1641
ag4969
ag1718
ag2134
ag5020
ag61
ag3684
ag1603
ag3369
ag1403
ag1092
ag3372
ag970
ag5038
ag846
ag2651
ag240
ag914
ag4719
ag78
ag4258
ag2437
ag700
ag212
ag4231
ag770
ag3984
ag3132
ag4574
ag994
ag3424
ag3386
ag746
ag1616
ag2388
ag315
ag3185
ag5186
ag2578
ag3645
ag2005
ag2123
ag949
ag387
ag935
ag5233
ag3213
ag4846
ag2465
ag4010
ag626
ag3799
ag1466
ag1874
ag1476
ag4351
ag1493
ag1671
ag806
ag4012
ag904
ag939
ag969
ag1509
ag636
ag2733
ag4379
ag4731
ag3963
ag3621
ag4530
ag1015
ag2114
ag3225
ag1721
ag851
ag4359
ag3823
ag65
ag53
ag3315
ag2026
ag4381
ag2604
ag2599
ag3660
ag4116
ag1909
ag2900
ag3587
ag3733
ag772
ag479
ag235
ag3097
ag206
ag1894
ag1073
ag3395
ag200
ag2447
ag3426
ag5052
ag3954
ag1140
ag1175
ag4004
ag1865
ag2905
ag2013
ag4771
ag3467
ag465
ag913
ag2239
ag182
ag3546
ag5212
ag753
ag4050
ag2467
ag2654
ag3910
ag292
ag2923
ag3224
ag2988
ag1100
ag417
ag3506
ag1129
ag4411
ag1739
ag3773
ag3305
ag2094
ag2802
ag1663
ag4728
ag4404
ag640
ag2048
ag1327
ag4679
ag1992
ag3099
ag3496
ag4786
ag3738
ag3837
ag4074
ag2904
ag1435
ag2649
ag3406
ag1560
ag1070
ag3643
ag2551
ag5137
ag4649
ag784
ag1021
ag5183
ag690
ag1449
ag1592
ag2161
ag1225
ag2195
ag3888
ag3763
ag4028
ag3413
ag5223
ag4756
ag1365
ag1848
ag2082
ag2051
ag1763
ag4855
ag1238
ag538
ag3975
ag4149
ag2865
ag4396
ag3411
ag1360
ag4391
ag40
ag4866
ag2148
ag1953
ag5068
ag2849
ag3549
ag1006
ag5007
ag3160
ag729
ag1024
ag194
ag2672
ag4033
ag2510
ag3540
ag1646
ag2016
ag3316
ag4279
ag366
ag4281
ag2977
ag5105
ag1983
ag1479
ag3987
ag4289
ag607
ag592
ag1207
ag3517
ag3791
ag637
ag3699
ag826
ag1088
ag1944
ag3897
ag2010
ag1550
ag247
ag764
ag2824
ag984
ag3250
ag2980
ag2684
ag4526
ag3435
ag4363
ag4667
ag33
ag4360
ag3871
ag3665
ag4292
ag1759
ag815
ag2953
ag54
ag39
ag1420
ag225
ag2281
ag3941
ag3565
ag3994
ag3990
ag2422
ag2532
ag576
ag133
ag2999
ag140
ag1054
ag4159
ag4943
ag1661
ag3741
ag2846
ag775
ag2723
ag1458
ag3385
ag4456
ag2432
ag1232
ag1329
ag4448
ag448
ag1141
ag4641
ag3860
ag3459
ag2782
ag2682
ag675
ag2111
ag1659
ag3447
ag3149
ag216
ag4358
ag121
ag3423
ag2537
ag3144
ag944
ag2484
ag4219
ag3512
ag4203
ag848
ag4109
ag3654
ag2168
ag4901
ag4816
ag3620
ag4331
ag3154
ag2145
ag3709
ag17
ag1770
ag1392
ag3604
ag3814
ag1145
ag4975
ag4130
ag3278
ag4492
ag3283
ag769
ag2325
ag3811
ag4807
ag664
ag4843
ag3580
ag69
ag5101
ag4754
ag3816
ag288
ag2071
ag3838
ag3046
ag2680
ag171
ag2040
ag361
ag967
ag4623
ag2674
ag5009
ag2887
ag3008
ag508
ag1879
ag2503
ag5224
ag439
ag3701
ag3606
ag4508
ag4143
ag3380
ag1247
ag1451
ag1784
ag3913
ag936
ag4195
ag1899
ag50
ag4978
ag4409
ag3530
ag1139
ag3479
ag3108
ag1604
ag4895
ag425
ag3272
ag2243
ag4018
ag4575
ag2350
ag2630
ag4071
ag3465
ag728
ag1062
ag4714
ag4086
ag2310
ag1475
ag494
ag273
ag2270
ag293
ag2207
ag3062
ag2159
ag2179
ag2296
ag2317
ag4675
ag952
ag2898
ag3625
ag745
ag2011
ag3042
ag1041
ag3472
ag4717
ag3304
ag541
ag1648
ag2679
ag931
ag3195
asS'separator'
p5260
S'='
sS'sparse'
p5261
I01
sb.