ccopy_reg
_reconstructor
p1
(csklearn.feature_extraction.dict_vectorizer
DictVectorizer
p2
c__builtin__
object
p3
NtRp4
(dp5
S'sort'
p6
I01
sS'feature_names_'
p7
(lp8
S'advcl=change'
p9
aS'advmod=already'
p10
aS'advmod=completely'
p11
aS'advmod=just'
p12
aS'advmod=literally'
p13
aS'advmod=often'
p14
aS'advmod=quickly'
p15
aS'advmod=simply'
p16
aS'advmod=soon'
p17
aS'advmod=when'
p18
aS'aux=be'
p19
aS'aux=can'
p20
aS'aux=could'
p21
aS'aux=have'
p22
aS'aux=to'
p23
aS'aux=will'
p24
aS'auxpass=be'
p25
aS'auxpass=get'
p26
aS'auxpass=seem'
p27
aS'cc=and'
p28
aS'ccomp=build'
p29
aS'ccomp=call'
p30
aS'ccomp=suppose'
p31
aS'complm=that'
p32
aS'conj=Fatah'
p33
aS'conj=in'
p34
aS'conj=lose'
p35
aS'conj=possible'
p36
aS'dep=argue'
p37
aS'dep=destroy'
p38
aS'dobj=anything'
p39
aS'dobj=capability'
p40
aS'dobj=care'
p41
aS'dobj=country'
p42
aS'dobj=government'
p43
aS'dobj=institution'
p44
aS'dobj=police'
p45
aS'dobj=process'
p46
aS'dobj=resource'
p47
aS'dobj=roadway'
p48
aS'dobj=sens'
p49
aS'dobj=shield'
p50
aS'dobj=supply'
p51
aS'dobj=system'
p52
aS'dobj=warming'
p53
aS'mark=because'
p54
aS'mark=before'
p55
aS'nsubj=Iraqis'
p56
aS'nsubj=flood'
p57
aS'nsubj=gang'
p58
aS'nsubj=increase'
p59
aS'nsubj=issue'
p60
aS'nsubj=militant'
p61
aS'nsubj=missile'
p62
aS'nsubj=reaction'
p63
aS'nsubj=sight'
p64
aS'nsubj=that'
p65
aS'nsubj=violence'
p66
aS'nsubj=weapon'
p67
aS'nsubjpass=#PRP#'
p68
aS'nsubjpass=Haile'
p69
aS'nsubjpass=Shops'
p70
aS'nsubjpass=capacity'
p71
aS'nsubjpass=city'
p72
aS'nsubjpass=court'
p73
aS'nsubjpass=improvement'
p74
aS'nsubjpass=people'
p75
aS'nsubjpass=population'
p76
aS'nsubjpass=resident'
p77
aS'nsubjpass=state'
p78
aS'nsubjpass=system'
p79
aS'nsubjpass=town'
p80
aS'nsubjpass=troops'
p81
aS'nsubjpass=who'
p82
aS'prep=after'
p83
aS'prep=along'
p84
aS'prep=as'
p85
aS'prep=at'
p86
aS'prep=before'
p87
aS'prep=by'
p88
aS'prep=for'
p89
aS'prep=from'
p90
aS'prep=in'
p91
aS'prep=with'
p92
aS'w+1=,'
p93
aS'w+1=.'
p94
aS'w+1=Fatah'
p95
aS'w+1=after'
p96
aS'w+1=and'
p97
aS'w+1=anything'
p98
aS'w+1=at'
p99
aS'w+1=attempt'
p100
aS'w+1=because'
p101
aS'w+1=before'
p102
aS'w+1=by'
p103
aS'w+1=global'
p104
aS'w+1=local'
p105
aS'w+1=police'
p106
aS'w+1=state'
p107
aS'w+1=supply'
p108
aS'w+1=the'
p109
aS'w+1=they'
p110
aS'w+1=what'
p111
aS'w+1=with'
p112
aS"w+2=''"
p113
aS'w+2=,'
p114
aS'w+2=1948'
p115
aS'w+2=Mr.'
p116
aS'w+2=Palestinians'
p117
aS'w+2=a'
p118
aS'w+2=and'
p119
aS'w+2=be'
p120
aS'w+2=challenge'
p121
aS'w+2=conflict-driven'
p122
aS'w+2=country'
p123
aS'w+2=demand'
p124
aS'w+2=event'
p125
aS'w+2=fragile'
p126
aS'w+2=give'
p127
aS'w+2=government'
p128
aS'w+2=gunman'
p129
aS'w+2=health'
p130
aS'w+2=host'
p131
aS'w+2=in'
p132
aS'w+2=institution'
p133
aS'w+2=islamist'
p134
aS'w+2=it'
p135
aS'w+2=nothing'
p136
aS'w+2=penetrate'
p137
aS'w+2=resource'
p138
aS'w+2=sens'
p139
aS'w+2=step'
p140
aS'w+2=system'
p141
aS'w+2=the'
p142
aS'w+2=this'
p143
aS'w+2=to'
p144
aS'w+2=unable'
p145
aS'w+2=warming'
p146
aS'w+2=water'
p147
aS'w+2=you'
p148
aS'w-1=Gaza'
p149
aS'w-1=Italy'
p150
aS'w-1=already'
p151
aS'w-1=be'
p152
aS'w-1=can'
p153
aS'w-1=completely'
p154
aS'w-1=could'
p155
aS'w-1=emotionally'
p156
aS'w-1=get'
p157
aS'w-1=government'
p158
aS'w-1=have'
p159
aS'w-1=just'
p160
aS'w-1=literally'
p161
aS'w-1=often'
p162
aS'w-1=reaction'
p163
aS'w-1=seem'
p164
aS'w-1=soon'
p165
aS'w-1=that'
p166
aS'w-1=to'
p167
aS'w-2=,'
p168
aS'w-2=Iraqis'
p169
aS'w-2=be'
p170
aS'w-2=can'
p171
aS'w-2=continue'
p172
aS'w-2=country'
p173
aS'w-2=court'
p174
aS'w-2=gang'
p175
aS'w-2=have'
p176
aS'w-2=he'
p177
aS'w-2=image'
p178
aS'w-2=in'
p179
aS'w-2=interim'
p180
aS'w-2=militant'
p181
aS'w-2=missile'
p182
aS'w-2=negative'
p183
aS'w-2=of'
p184
aS'w-2=ownership'
p185
aS'w-2=people'
p186
aS'w-2=population'
p187
aS'w-2=quickly'
p188
aS'w-2=returnee'
p189
aS'w-2=simply'
p190
aS'w-2=situation'
p191
aS'w-2=so'
p192
aS'w-2=state'
p193
aS'w-2=that'
p194
aS'w-2=they'
p195
aS'w-2=threaten'
p196
aS'w-2=to'
p197
aS'w-2=weapon'
p198
aS'w-2=who'
p199
aS'w-2=will'
p200
aS'xcomp=attempt'
p201
aS'xcomp=loyal'
p202
aS'xcomp=send'
p203
asS'dtype'
p204
cnumpy
float64
p205
sS'vocabulary_'
p206
(dp207
g141
I132
sg100
I91
sg183
I174
sg193
I184
sg69
I60
sg73
I64
sg30
I21
sg57
I48
sg87
I78
sg119
I110
sg31
I22
sg186
I177
sg174
I165
sg14
I5
sg75
I66
sg19
I10
sg52
I43
sg79
I70
sg39
I30
sg56
I47
sg130
I121
sg66
I57
sg101
I92
sg117
I108
sg45
I36
sg37
I28
sg88
I79
sg51
I42
sg115
I106
sg131
I122
sg164
I155
sg15
I6
sg134
I125
sg149
I140
sg143
I134
sg74
I65
sg184
I175
sg76
I67
sg195
I186
sg167
I158
sg139
I130
sg197
I188
sg46
I37
sg27
I18
sg150
I141
sg173
I164
sg196
I187
sg106
I97
sg34
I25
sg11
I2
sg70
I61
sg107
I98
sg177
I168
sg77
I68
sg24
I15
sg63
I54
sg198
I189
sg10
I1
sg36
I27
sg122
I113
sg29
I20
sg12
I3
sg154
I145
sg142
I133
sg86
I77
sg200
I191
sg99
I90
sg168
I159
sg92
I83
sg105
I96
sg111
I102
sg22
I13
sg126
I117
sg35
I26
sg152
I143
sg129
I120
sg153
I144
sg181
I172
sg179
I170
sg163
I154
sg201
I192
sg44
I35
sg137
I128
sg17
I8
sg172
I163
sg54
I45
sg72
I63
sg199
I190
sg148
I139
sg18
I9
sg128
I119
sg140
I131
sg144
I135
sg61
I52
sg84
I75
sg13
I4
sg89
I80
sg156
I147
sg159
I150
sg33
I24
sg48
I39
sg64
I55
sg192
I183
sg113
I104
sg132
I123
sg189
I180
sg81
I72
sg135
I126
sg104
I95
sg98
I89
sg71
I62
sg191
I182
sg155
I146
sg175
I166
sg25
I16
sg20
I11
sg32
I23
sg50
I41
sg83
I74
sg146
I137
sg127
I118
sg178
I169
sg123
I114
sg41
I32
sg9
I0
sg82
I73
sg176
I167
sg28
I19
sg161
I152
sg133
I124
sg125
I116
sg95
I86
sg194
I185
sg112
I103
sg109
I100
sg60
I51
sg80
I71
sg103
I94
sg16
I7
sg160
I151
sg136
I127
sg120
I111
sg110
I101
sg121
I112
sg78
I69
sg190
I181
sg85
I76
sg151
I142
sg68
I59
sg182
I173
sg91
I82
sg202
I193
sg158
I149
sg38
I29
sg67
I58
sg90
I81
sg96
I87
sg203
I194
sg169
I160
sg23
I14
sg102
I93
sg53
I44
sg188
I179
sg62
I53
sg157
I148
sg97
I88
sg116
I107
sg21
I12
sg165
I156
sg187
I178
sg93
I84
sg43
I34
sg94
I85
sg147
I138
sg171
I162
sg59
I50
sg114
I105
sg162
I153
sg58
I49
sg55
I46
sg49
I40
sg65
I56
sg47
I38
sg108
I99
sg40
I31
sg26
I17
sg138
I129
sg170
I161
sg118
I109
sg124
I115
sg180
I171
sg166
I157
sg145
I136
sg185
I176
sg42
I33
ssS'separator'
p208
S'='
sS'sparse'
p209
I01
sb.