ccopy_reg
_reconstructor
p1
(csklearn.feature_extraction.dict_vectorizer
DictVectorizer
p2
c__builtin__
object
p3
NtRp4
(dp5
S'vocabulary_'
p6
(dp7
S'nsubj=which'
p8
I64
sS'w+2=lack'
p9
I116
sS'w-1=never'
p10
I146
sS'nsubj=what'
p11
I63
sS'w-2=design'
p12
I166
sS'w+1=,'
p13
I83
sS'w-2=people'
p14
I176
sS'advmod=often'
p15
I6
sS'nsubjpass=people'
p16
I68
sS'dobj=search'
p17
I44
sS'dobj=soldier'
p18
I47
sS'w-2=business'
p19
I164
sS'w-2=to'
p20
I184
sS'dobj=people'
p21
I42
sS'w+2=.'
p22
I105
sS'dobj=mission'
p23
I41
sS'conj=disorient'
p24
I29
sS'auxpass=get'
p25
I22
sS'advcl=educate'
p26
I1
sS'dobj=situation'
p27
I46
sS'w-2=system'
p28
I181
sS'w-2=they'
p29
I183
sS'w-1=to'
p30
I154
sS'nsubj=system'
p31
I61
sS'prep=by'
p32
I77
sS'w+2=and'
p33
I109
sS'w-2=and'
p34
I162
sS'w+1=many'
p35
I93
sS'prep=about'
p36
I76
sS'nsubj=government'
p37
I59
sS'w-2=not'
p38
I173
sS'w+2=weakness'
p39
I129
sS'w-1=many'
p40
I144
sS'w+2=there'
p41
I124
sS'cop=be'
p42
I33
sS'w+1=recover'
p43
I96
sS'aux=do'
p44
I14
sS'aux=will'
p45
I19
sS'w+1=with'
p46
I101
sS'advmod=simply'
p47
I9
sS'advmod=now'
p48
I5
sS'w-2=say'
p49
I177
sS'w-2=do'
p50
I168
sS'advmod=just'
p51
I4
sS'w+2=the'
p52
I123
sS'w+1=as'
p53
I88
sS'w+2=weapon'
p54
I130
sS'w-1=will'
p55
I158
sS'w-2=,'
p56
I159
sS'prep=with'
p57
I81
sS'nsubj=Shopping'
p58
I57
sS'w-2=try'
p59
I185
sS'aux=have'
p60
I15
sS'w-1=be'
p61
I138
sS'w-1=still'
p62
I153
sS'w-1=,'
p63
I136
sS'nsubj=election'
p64
I58
sS'w+2=disorient'
p65
I112
sS'w-2=now'
p66
I174
sS'w-1=can'
p67
I139
sS'w+2=activity'
p68
I107
sS'advmod=prior'
p69
I7
sS'w-1=likely'
p70
I143
sS'w-2=leave'
p71
I170
sS'w-2=it'
p72
I169
sS'advmod=totally'
p73
I11
sS'w+2=three'
p74
I126
sS'conj=help'
p75
I30
sS'w-1=which'
p76
I157
sS'xcomp=describe'
p77
I190
sS'mark=because'
p78
I51
sS'aux=might'
p79
I16
sS'w+2=search'
p80
I118
sS'aux=should'
p81
I17
sS'w+1=situation'
p82
I97
sS'w-2=will'
p83
I187
sS'w+2=to'
p84
I127
sS'w-2=many'
p85
I172
sS'dobj=everybody'
p86
I38
sS'w-2=a'
p87
I161
sS'nsubjpass=refugee'
p88
I70
sS'prep=for'
p89
I78
sS'parataxis=ask'
p90
I75
sS'w+2=so-called'
p91
I121
sS'w-1=have'
p92
I142
sS'ccomp=say'
p93
I26
sS'nsubjpass=voter'
p94
I74
sS'w+2=if'
p95
I114
sS'nsubj=Bush'
p96
I55
sS"w+2=''"
p97
I103
sS'nsubjpass=parent'
p98
I67
sS'w+2=where'
p99
I132
sS'w-2=Bush'
p100
I160
sS'w+2=what'
p101
I131
sS'conj=pick'
p102
I31
sS'advmod=also'
p103
I2
sS'nsubjpass=restraint'
p104
I71
sS'neg=never'
p105
I52
sS'w-1=totally'
p106
I155
sS'auxpass=be'
p107
I21
sS'aux=can'
p108
I13
sS'complm=that'
p109
I27
sS'w+1=people'
p110
I95
sS'w+2=separatism'
p111
I120
sS'w+2=describe'
p112
I111
sS'ccomp=leave'
p113
I25
sS'advmod=as'
p114
I3
sS'w+1=everybody'
p115
I91
sS'w+1=map'
p116
I94
sS'prep=to'
p117
I80
sS'cc=and'
p118
I23
sS'nsubj=management'
p119
I60
sS'dobj=Americans'
p120
I36
sS'w-2=that'
p121
I182
sS'w+2=voter'
p122
I128
sS'w+1=the'
p123
I98
sS'w+1=by'
p124
I90
sS'xcomp=#PRP#'
p125
I188
sS'w-2=management'
p126
I171
sS'dobj=seeker'
p127
I45
sS'cc=but'
p128
I24
sS'w+2=soldier'
p129
I122
sS'w-2=speculator'
p130
I180
sS'w-1=government'
p131
I141
sS'w+2=afraid'
p132
I108
sS'nsubjpass=publicity'
p133
I69
sS'nsubjpass=#PRP#'
p134
I65
sS'w+1=you'
p135
I102
sS'conj=say'
p136
I32
sS'w-1=also'
p137
I137
sS'aux=would'
p138
I20
sS'w-2=voter'
p139
I186
sS'w+1=for'
p140
I92
sS'w+2=U.S.'
p141
I106
sS'w-2=be'
p142
I163
sS'nsubjpass=owner'
p143
I66
sS'w+2=with'
p144
I134
sS'w-1=simply'
p145
I152
sS'nsubj=#PRP#'
p146
I54
sS'w+1=about'
p147
I86
sS"w-1=''"
p148
I135
sS'w-1=seem'
p149
I151
sS'advmod=rather'
p150
I8
sS'dobj=map'
p151
I39
sS"w+1=''"
p152
I82
sS'acomp=many'
p153
I0
sS'aux=to'
p154
I18
sS'w-2=should'
p155
I178
sS'w-2=sometimes'
p156
I179
sS'w+1=voter'
p157
I100
sS'w+1=Americans'
p158
I85
sS'w-2=parent'
p159
I175
sS'dobj=restraint'
p160
I43
sS'w-1=get'
p161
I140
sS'dobj=thought'
p162
I48
sS'dobj=voter'
p163
I49
sS'w-2=can'
p164
I165
sS'dobj=audience'
p165
I37
sS'dobj=market'
p166
I40
sS'nsubj=Iran'
p167
I56
sS'w+2=thought'
p168
I125
sS'conj=afraid'
p169
I28
sS'w+2=how'
p170
I113
sS'w+1=.'
p171
I84
sS'w-2=detect'
p172
I167
sS'w+2=market'
p173
I117
sS'advmod=sometimes'
p174
I10
sS'w+2=,'
p175
I104
sS'w-1=often'
p176
I148
sS'w+1=to'
p177
I99
sS'xcomp=defend'
p178
I189
sS'w+2=audience'
p179
I110
sS'neg=not'
p180
I53
sS'w-1=rather'
p181
I150
sS'w+1=and'
p182
I87
sS'nsubj=that'
p183
I62
sS'nsubjpass=sympathy'
p184
I73
sS'w-1=might'
p185
I145
sS'w+2=which'
p186
I133
sS'w+2=just'
p187
I115
sS'dep=contrary'
p188
I34
sS'xcomp=say'
p189
I191
sS'w-1=what'
p190
I156
sS'w-1=not'
p191
I147
sS'dep=possible'
p192
I35
sS'prep=of'
p193
I79
sS'w+2=seeker'
p194
I119
sS'aux=be'
p195
I12
sS'dobj=weapon'
p196
I50
sS'nsubjpass=some'
p197
I72
sS'w-1=owner'
p198
I149
sS'w+1=asylum'
p199
I89
ssS'dtype'
p200
cnumpy
float64
p201
sS'feature_names_'
p202
(lp203
g153
ag26
ag103
ag114
ag51
ag48
ag15
ag69
ag150
ag47
ag174
ag73
ag195
ag108
ag44
ag60
ag79
ag81
ag154
ag45
ag138
ag107
ag25
ag118
ag128
ag113
ag93
ag109
ag169
ag24
ag75
ag102
ag136
ag42
ag188
ag192
ag120
ag165
ag86
ag151
ag166
ag23
ag21
ag160
ag17
ag127
ag27
ag18
ag162
ag163
ag196
ag78
ag105
ag180
ag146
ag96
ag167
ag58
ag64
ag37
ag119
ag31
ag183
ag11
ag8
ag134
ag143
ag98
ag16
ag133
ag88
ag104
ag197
ag184
ag94
ag90
ag36
ag32
ag89
ag193
ag117
ag57
ag152
ag13
ag171
ag158
ag147
ag182
ag53
ag199
ag124
ag115
ag140
ag35
ag116
ag110
ag43
ag82
ag123
ag177
ag157
ag46
ag135
ag97
ag175
ag22
ag141
ag68
ag132
ag33
ag179
ag112
ag65
ag170
ag95
ag187
ag9
ag173
ag80
ag194
ag111
ag91
ag129
ag52
ag41
ag168
ag74
ag84
ag122
ag39
ag54
ag101
ag99
ag186
ag144
ag148
ag63
ag137
ag61
ag67
ag161
ag131
ag92
ag70
ag40
ag185
ag10
ag191
ag176
ag198
ag181
ag149
ag145
ag62
ag30
ag106
ag190
ag76
ag55
ag56
ag100
ag87
ag34
ag142
ag19
ag164
ag12
ag172
ag50
ag72
ag71
ag126
ag85
ag38
ag66
ag159
ag14
ag49
ag155
ag156
ag130
ag28
ag121
ag29
ag20
ag59
ag139
ag83
ag125
ag178
ag77
ag189
asS'separator'
p204
S'='
sS'sparse'
p205
I01
sb.