ccopy_reg
_reconstructor
p1
(csklearn.feature_extraction.dict_vectorizer
DictVectorizer
p2
c__builtin__
object
p3
NtRp4
(dp5
S'sort'
p6
I01
sS'feature_names_'
p7
(lp8
S'acomp=bore'
p9
aS'advcl=begin'
p10
aS'advcl=meet'
p11
aS'advcl=strike'
p12
aS'advcl=wage'
p13
aS'advmod=actively'
p14
aS'advmod=allegedly'
p15
aS'advmod=also'
p16
aS'advmod=always'
p17
aS'advmod=directly'
p18
aS'advmod=forcibly'
p19
aS'advmod=increasingly'
p20
aS'advmod=locally'
p21
aS'advmod=many'
p22
aS'advmod=minute'
p23
aS'advmod=more'
p24
aS'advmod=nationwide'
p25
aS'advmod=on'
p26
aS'advmod=really'
p27
aS'advmod=recently'
p28
aS'advmod=reportedly'
p29
aS'advmod=systematically'
p30
aS'advmod=when'
p31
aS'amod=blind'
p32
aS'amod=force'
p33
aS'amod=fresh'
p34
aS'amod=more'
p35
aS'amod=new'
p36
aS'amod=potential'
p37
aS'amod=young'
p38
aS'amod=younger'
p39
aS'aux=be'
p40
aS'aux=have'
p41
aS'aux=to'
p42
aS'aux=will'
p43
aS'aux=would'
p44
aS'auxpass=be'
p45
aS'cc=and'
p46
aS'cc=but'
p47
aS'cc=or'
p48
aS'ccomp=complete'
p49
aS'ccomp=continue'
p50
aS'ccomp=inspector'
p51
aS'ccomp=round'
p52
aS'complm=that'
p53
aS'conj=able'
p54
aS'conj=accelerate'
p55
aS'conj=acquire'
p56
aS'conj=camera'
p57
aS'conj=carry'
p58
aS'conj=coerce'
p59
aS'conj=deploy'
p60
aS'conj=divide'
p61
aS'conj=equip'
p62
aS'conj=figure'
p63
aS'conj=justify'
p64
aS'conj=plan'
p65
aS'conj=propagate'
p66
aS'conj=sanctuary'
p67
aS'conj=train'
p68
aS'conj=use'
p69
aS'cop=be'
p70
aS'dep=after'
p71
aS'dep=at'
p72
aS'dep=do'
p73
aS'dep=get'
p74
aS'dep=go'
p75
aS'dep=not'
p76
aS'dep=order'
p77
aS'dep=receive'
p78
aS'dep=that'
p79
aS'det=some'
p80
aS'det=the'
p81
aS'det=these'
p82
aS'dobj=#PRP#'
p83
aS'dobj=Indians'
p84
aS'dobj=Jobim'
p85
aS'dobj=Madheshis'
p86
aS'dobj=army'
p87
aS'dobj=artist'
p88
aS'dobj=astronaut'
p89
aS'dobj=bank'
p90
aS'dobj=bomber'
p91
aS'dobj=breed'
p92
aS'dobj=candidate'
p93
aS'dobj=category'
p94
aS'dobj=ceremony'
p95
aS'dobj=child'
p96
aS'dobj=citizen'
p97
aS'dobj=company'
p98
aS'dobj=concert-goer'
p99
aS'dobj=concertgoer'
p100
aS'dobj=fighter'
p101
aS'dobj=follower'
p102
aS'dobj=generation'
p103
aS'dobj=graduate'
p104
aS'dobj=group'
p105
aS'dobj=individual'
p106
aS'dobj=man'
p107
aS'dobj=member'
p108
aS'dobj=mercenary'
p109
aS'dobj=militant'
p110
aS'dobj=militia'
p111
aS'dobj=more'
p112
aS'dobj=name'
p113
aS'dobj=number'
p114
aS'dobj=officer'
p115
aS'dobj=operative'
p116
aS'dobj=participant'
p117
aS'dobj=partner'
p118
aS'dobj=passenger'
p119
aS'dobj=people'
p120
aS'dobj=personnel'
p121
aS'dobj=soldier'
p122
aS'dobj=strategy'
p123
aS'dobj=terrorist'
p124
aS'dobj=train'
p125
aS'dobj=trainee'
p126
aS'dobj=volunteer'
p127
aS'dobj=voter'
p128
aS'dobj=worker'
p129
aS'dobj=youth'
p130
aS'infmod=carry'
p131
aS'infmod=fight'
p132
aS'mark=for'
p133
aS'mark=if'
p134
aS'mark=in'
p135
aS'neg=not'
p136
aS'nn=army'
p137
aS'nn=chess'
p138
aS'nn=police'
p139
aS'nn=territory'
p140
aS'nsubj=#PRP#'
p141
aS'nsubj=Agency'
p142
aS'nsubj=Bryant'
p143
aS'nsubj=Jahangir'
p144
aS'nsubj=Mungiki'
p145
aS'nsubj=Navy'
p146
aS'nsubj=Qaeda'
p147
aS'nsubj=Shabbab'
p148
aS'nsubj=Worldfocus'
p149
aS'nsubj=a'
p150
aS'nsubj=al-Qaida'
p151
aS'nsubj=army'
p152
aS'nsubj=artist'
p153
aS'nsubj=camp'
p154
aS'nsubj=case'
p155
aS'nsubj=center'
p156
aS'nsubj=civilian'
p157
aS'nsubj=each'
p158
aS'nsubj=fund'
p159
aS'nsubj=group'
p160
aS'nsubj=internet'
p161
aS'nsubj=ltte'
p162
aS'nsubj=mathematics'
p163
aS'nsubj=organization'
p164
aS'nsubj=party'
p165
aS'nsubj=police'
p166
aS'nsubj=scientist'
p167
aS'nsubj=scorpion'
p168
aS'nsubj=scripture'
p169
aS'nsubj=soldier'
p170
aS'nsubj=some'
p171
aS'nsubj=that'
p172
aS'nsubj=this'
p173
aS'nsubj=volunteer'
p174
aS'nsubj=what'
p175
aS'nsubj=which'
p176
aS'nsubj=who'
p177
aS'nsubjpass=#NUMBER#'
p178
aS'nsubjpass=#PRP#'
p179
aS'nsubjpass=Europeans'
p180
aS'nsubjpass=Gurkhas'
p181
aS'nsubjpass=Muslims'
p182
aS'nsubjpass=Theo'
p183
aS'nsubjpass=bomber'
p184
aS'nsubjpass=boy'
p185
aS'nsubjpass=child'
p186
aS'nsubjpass=expert'
p187
aS'nsubjpass=fighter'
p188
aS'nsubjpass=islander'
p189
aS'nsubjpass=man'
p190
aS'nsubjpass=many'
p191
aS'nsubjpass=minor'
p192
aS'nsubjpass=nurse'
p193
aS'nsubjpass=other'
p194
aS'nsubjpass=people'
p195
aS'nsubjpass=personnel'
p196
aS'nsubjpass=police'
p197
aS'nsubjpass=resident'
p198
aS'nsubjpass=soldier'
p199
aS'nsubjpass=some'
p200
aS'nsubjpass=volunteer'
p201
aS'nsubjpass=who'
p202
aS'num=#NUMBER#'
p203
aS'partmod=undergo'
p204
aS'poss=#PRP#'
p205
aS'prep=about'
p206
aS'prep=across'
p207
aS'prep=after'
p208
aS'prep=along'
p209
aS'prep=as'
p210
aS'prep=by'
p211
aS'prep=during'
p212
aS'prep=for'
p213
aS'prep=from'
p214
aS'prep=in'
p215
aS'prep=into'
p216
aS'prep=of'
p217
aS'prep=on'
p218
aS'prep=start'
p219
aS'prep=to'
p220
aS'purpcl=try'
p221
aS"w+1='"
p222
aS'w+1=,'
p223
aS'w+1=.'
p224
aS'w+1=15'
p225
aS'w+1=Gurkha'
p226
aS'w+1=Hollywood'
p227
aS'w+1=Indians'
p228
aS'w+1=Janjaweed'
p229
aS'w+1=a'
p230
aS'w+1=abroad'
p231
aS'w+1=additional'
p232
aS'w+1=after'
p233
aS'w+1=and'
p234
aS'w+1=another'
p235
aS'w+1=artist'
p236
aS'w+1=as'
p237
aS'w+1=at'
p238
aS'w+1=be'
p239
aS'w+1=black'
p240
aS'w+1=bore'
p241
aS'w+1=brazilian'
p242
aS'w+1=by'
p243
aS'w+1=campaign'
p244
aS'w+1=child'
p245
aS'w+1=citizen'
p246
aS'w+1=concert-goer'
p247
aS'w+1=concertgoer'
p248
aS'w+1=do'
p249
aS'w+1=during'
p250
aS'w+1=eat'
p251
aS'w+1=effort'
p252
aS'w+1=follower'
p253
aS'w+1=for'
p254
aS'w+1=force'
p255
aS'w+1=from'
p256
aS'w+1=get'
p257
aS'w+1=go'
p258
aS'w+1=graduation'
p259
aS'w+1=he'
p260
aS'w+1=health'
p261
aS'w+1=in'
p262
aS'w+1=individual'
p263
aS'w+1=into'
p264
aS'w+1=its'
p265
aS'w+1=local'
p266
aS'w+1=medical'
p267
aS'w+1=mercenary'
p268
aS'w+1=migrant'
p269
aS'w+1=more'
p270
aS'w+1=muslim'
p271
aS'w+1=must'
p272
aS'w+1=new'
p273
aS'w+1=of'
p274
aS'w+1=on'
p275
aS'w+1=operative'
p276
aS'w+1=or'
p277
aS'w+1=outstanding'
p278
aS'w+1=passenger'
p279
aS'w+1=people'
p280
aS'w+1=potential'
p281
aS'w+1=private'
p282
aS'w+1=professional'
p283
aS'w+1=receive'
p284
aS'w+1=say'
p285
aS'w+1=seem'
p286
aS'w+1=some'
p287
aS'w+1=start'
p288
aS'w+1=strategy'
p289
aS'w+1=substantial'
p290
aS'w+1=suicide'
p291
aS'w+1=terrorist'
p292
aS'w+1=these'
p293
aS'w+1=they'
p294
aS'w+1=to'
p295
aS'w+1=train'
p296
aS'w+1=undergo'
p297
aS'w+1=unskilled'
p298
aS'w+1=use'
p299
aS'w+1=volunteer'
p300
aS'w+1=voter'
p301
aS'w+1=when'
p302
aS'w+1=who'
p303
aS'w+1=woman'
p304
aS'w+1=worker'
p305
aS'w+1=would-be'
p306
aS'w+1=young'
p307
aS"w+2=''"
p308
aS'w+2=,'
p309
aS'w+2=-rrb-'
p310
aS'w+2=.'
p311
aS'w+2=19,000'
p312
aS'w+2=Africa'
p313
aS'w+2=Eastleigh'
p314
aS'w+2=Madheshis'
p315
aS'w+2=Middle'
p316
aS'w+2=Somalia'
p317
aS'w+2=a'
p318
aS'w+2=actress'
p319
aS'w+2=al-qaida'
p320
aS'w+2=all'
p321
aS'w+2=along'
p322
aS'w+2=and'
p323
aS'w+2=armed'
p324
aS'w+2=army'
p325
aS'w+2=astronaut'
p326
aS'w+2=bank'
p327
aS'w+2=basic'
p328
aS'w+2=be'
p329
aS'w+2=become'
p330
aS'w+2=big'
p331
aS'w+2=bomber'
p332
aS'w+2=bring'
p333
aS'w+2=but'
p334
aS'w+2=by'
p335
aS'w+2=call'
p336
aS'w+2=candidate'
p337
aS'w+2=carry'
p338
aS'w+2=category'
p339
aS'w+2=ceremony'
p340
aS'w+2=child'
p341
aS'w+2=college'
p342
aS'w+2=company'
p343
aS'w+2=complete'
p344
aS'w+2=constantly'
p345
aS'w+2=displacement'
p346
aS'w+2=divide'
p347
aS'w+2=drug'
p348
aS'w+2=encourage'
p349
aS'w+2=every'
p350
aS'w+2=extremist'
p351
aS'w+2=family'
p352
aS'w+2=fight'
p353
aS'w+2=fighter'
p354
aS'w+2=find'
p355
aS'w+2=first'
p356
aS'w+2=foot'
p357
aS'w+2=for'
p358
aS'w+2=from'
p359
aS'w+2=graduate'
p360
aS'w+2=groom'
p361
aS'w+2=guerilla'
p362
aS'w+2=have'
p363
aS'w+2=he'
p364
aS'w+2=improve'
p365
aS'w+2=in'
p366
aS'w+2=individual'
p367
aS'w+2=infiltrate'
p368
aS'w+2=intense'
p369
aS'w+2=intensive'
p370
aS'w+2=into'
p371
aS'w+2=islamic'
p372
aS'w+2=its'
p373
aS'w+2=jihadist'
p374
aS'w+2=join'
p375
aS'w+2=keep'
p376
aS'w+2=large'
p377
aS'w+2=local'
p378
aS'w+2=lunch'
p379
aS'w+2=man'
p380
aS'w+2=many'
p381
aS'w+2=member'
p382
aS'w+2=militant'
p383
aS'w+2=militia'
p384
aS'w+2=million'
p385
aS'w+2=new'
p386
aS'w+2=not'
p387
aS'w+2=number'
p388
aS'w+2=order'
p389
aS'w+2=pakistani'
p390
aS'w+2=participant'
p391
aS'w+2=partner'
p392
aS'w+2=pass'
p393
aS'w+2=people'
p394
aS'w+2=personnel'
p395
aS'w+2=refugee'
p396
aS'w+2=rival'
p397
aS'w+2=search'
p398
aS'w+2=send'
p399
aS'w+2=singer-songwriter'
p400
aS'w+2=soldier'
p401
aS'w+2=star'
p402
aS'w+2=suicide'
p403
aS'w+2=terrorist'
p404
aS'w+2=that'
p405
aS'w+2=the'
p406
aS'w+2=they'
p407
aS'w+2=this'
p408
aS'w+2=through'
p409
aS'w+2=to'
p410
aS'w+2=today'
p411
aS'w+2=train'
p412
aS'w+2=training'
p413
aS'w+2=use'
p414
aS'w+2=war'
p415
aS'w+2=who'
p416
aS'w+2=worker'
p417
aS'w+2=youth'
p418
aS'w-1=,'
p419
aS'w-1=Bryant'
p420
aS'w-1=Navy'
p421
aS'w-1=Qaeda'
p422
aS'w-1=Shabbab'
p423
aS'w-1=a'
p424
aS'w-1=actively'
p425
aS'w-1=allegedly'
p426
aS'w-1=always'
p427
aS'w-1=and'
p428
aS'w-1=anyone'
p429
aS'w-1=army'
p430
aS'w-1=as'
p431
aS'w-1=athlete'
p432
aS'w-1=avoid'
p433
aS'w-1=be'
p434
aS'w-1=begin'
p435
aS'w-1=boy'
p436
aS'w-1=by'
p437
aS'w-1=chess'
p438
aS'w-1=deny'
p439
aS'w-1=directly'
p440
aS'w-1=each'
p441
aS'w-1=fighter'
p442
aS'w-1=for'
p443
aS'w-1=force'
p444
aS'w-1=forcibly'
p445
aS'w-1=fresh'
p446
aS'w-1=from'
p447
aS'w-1=have'
p448
aS'w-1=he'
p449
aS'w-1=help'
p450
aS'w-1=impaired'
p451
aS'w-1=in'
p452
aS'w-1=increasingly'
p453
aS'w-1=intensive'
p454
aS'w-1=locally'
p455
aS'w-1=militia'
p456
aS'w-1=more'
p457
aS'w-1=new'
p458
aS'w-1=not'
p459
aS'w-1=of'
p460
aS'w-1=or'
p461
aS'w-1=order'
p462
aS'w-1=organization'
p463
aS'w-1=people'
p464
aS'w-1=police'
p465
aS'w-1=potential'
p466
aS'w-1=really'
p467
aS'w-1=recently'
p468
aS'w-1=reportedly'
p469
aS'w-1=say'
p470
aS'w-1=scientist'
p471
aS'w-1=scorpion'
p472
aS'w-1=share'
p473
aS'w-1=some'
p474
aS'w-1=systematically'
p475
aS'w-1=terrorist'
p476
aS'w-1=that'
p477
aS'w-1=the'
p478
aS'w-1=these'
p479
aS'w-1=they'
p480
aS'w-1=this'
p481
aS'w-1=to'
p482
aS'w-1=volunteer'
p483
aS'w-1=we'
p484
aS'w-1=what'
p485
aS'w-1=which'
p486
aS'w-1=who'
p487
aS'w-1=young'
p488
aS'w-1=younger'
p489
aS"w-2=''"
p490
aS"w-2='s"
p491
aS'w-2=,'
p492
aS'w-2=.'
p493
aS'w-2=12-year-old'
p494
aS'w-2=Agency'
p495
aS'w-2=Facely'
p496
aS'w-2=Florida'
p497
aS'w-2=Jahangir'
p498
aS'w-2=Jaquard'
p499
aS'w-2=Liberia'
p500
aS'w-2=Nkunda'
p501
aS'w-2=States'
p502
aS'w-2=Theo'
p503
aS'w-2=Worldfocus'
p504
aS'w-2=a'
p505
aS'w-2=accuse'
p506
aS'w-2=advise'
p507
aS'w-2=after'
p508
aS'w-2=against'
p509
aS'w-2=agency'
p510
aS'w-2=aim'
p511
aS'w-2=al'
p512
aS'w-2=also'
p513
aS'w-2=and'
p514
aS'w-2=army'
p515
aS'w-2=as'
p516
aS'w-2=at'
p517
aS'w-2=attempt'
p518
aS'w-2=attend'
p519
aS'w-2=be'
p520
aS'w-2=before'
p521
aS'w-2=bomber'
p522
aS'w-2=camp'
p523
aS'w-2=capability'
p524
aS'w-2=ceremony'
p525
aS'w-2=civilian'
p526
aS'w-2=commander'
p527
aS'w-2=continue'
p528
aS'w-2=decision'
p529
aS'w-2=down'
p530
aS'w-2=easy'
p531
aS'w-2=every'
p532
aS'w-2=exploit'
p533
aS'w-2=fight'
p534
aS'w-2=find'
p535
aS'w-2=fitness'
p536
aS'w-2=for'
p537
aS'w-2=fund'
p538
aS'w-2=gain'
p539
aS'w-2=get'
p540
aS'w-2=group'
p541
aS'w-2=guilty'
p542
aS'w-2=have'
p543
aS'w-2=he'
p544
aS'w-2=help'
p545
aS'w-2=hope'
p546
aS'w-2=in'
p547
aS'w-2=increasingly'
p548
aS'w-2=information'
p549
aS'w-2=internet'
p550
aS'w-2=learn'
p551
aS'w-2=local'
p552
aS'w-2=man'
p553
aS'w-2=many'
p554
aS'w-2=minor'
p555
aS'w-2=mobilize'
p556
aS'w-2=model'
p557
aS'w-2=month'
p558
aS'w-2=most'
p559
aS'w-2=need'
p560
aS'w-2=network'
p561
aS'w-2=new'
p562
aS'w-2=non-profit'
p563
aS'w-2=number'
p564
aS'w-2=of'
p565
aS'w-2=officer'
p566
aS'w-2=on'
p567
aS'w-2=one'
p568
aS'w-2=or'
p569
aS'w-2=order'
p570
aS'w-2=organization'
p571
aS'w-2=other'
p572
aS'w-2=police'
p573
aS'w-2=potential'
p574
aS'w-2=program'
p575
aS'w-2=prominent'
p576
aS'w-2=ratio'
p577
aS'w-2=refrain'
p578
aS'w-2=report'
p579
aS'w-2=reportedly'
p580
aS'w-2=resident'
p581
aS'w-2=responsible'
p582
aS'w-2=seek'
p583
aS'w-2=she'
p584
aS'w-2=soldier'
p585
aS'w-2=some'
p586
aS'w-2=succumb'
p587
aS'w-2=such'
p588
aS'w-2=supplies'
p589
aS'w-2=that'
p590
aS'w-2=the'
p591
aS'w-2=these'
p592
aS'w-2=they'
p593
aS'w-2=to'
p594
aS'w-2=train'
p595
aS'w-2=try'
p596
aS'w-2=undernourishment'
p597
aS'w-2=underway'
p598
aS'w-2=use'
p599
aS'w-2=village'
p600
aS'w-2=visually'
p601
aS'w-2=volunteer'
p602
aS'w-2=watch'
p603
aS'w-2=web'
p604
aS'w-2=which'
p605
aS'w-2=who'
p606
aS'w-2=will'
p607
aS'w-2=would'
p608
aS'w-2=year'
p609
aS'w-2=you'
p610
aS'w-2=young'
p611
aS'xcomp=act'
p612
aS'xcomp=anchor'
p613
aS'xcomp=carry'
p614
aS'xcomp=commit'
p615
aS'xcomp=expand'
p616
aS'xcomp=fight'
p617
aS'xcomp=help'
p618
aS'xcomp=improve'
p619
aS'xcomp=join'
p620
aS'xcomp=keep'
p621
aS'xcomp=listen'
p622
aS'xcomp=overthrow'
p623
aS'xcomp=raise'
p624
aS'xcomp=search'
p625
aS'xcomp=star'
p626
aS'xcomp=target'
p627
aS'xcomp=teach'
p628
aS'xcomp=travel'
p629
aS'xcomp=wage'
p630
asS'dtype'
p631
cnumpy
float64
p632
sS'vocabulary_'
p633
(dp634
g324
I315
sg294
I285
sg577
I568
sg66
I57
sg150
I141
sg24
I15
sg124
I115
sg629
I620
sg182
I173
sg73
I64
sg20
I11
sg195
I186
sg122
I113
sg455
I446
sg289
I280
sg388
I379
sg334
I325
sg359
I350
sg162
I153
sg55
I46
sg562
I553
sg414
I405
sg573
I564
sg380
I371
sg589
I580
sg560
I551
sg417
I408
sg151
I142
sg593
I584
sg432
I423
sg519
I510
sg211
I202
sg587
I578
sg305
I296
sg105
I96
sg74
I65
sg49
I40
sg389
I380
sg215
I206
sg345
I336
sg470
I461
sg548
I539
sg341
I332
sg384
I375
sg602
I593
sg458
I449
sg370
I361
sg293
I284
sg27
I18
sg527
I518
sg178
I169
sg522
I513
sg197
I188
sg84
I75
sg620
I611
sg140
I131
sg437
I428
sg434
I425
sg291
I282
sg591
I582
sg433
I424
sg409
I400
sg194
I185
sg521
I512
sg563
I554
sg175
I166
sg595
I586
sg367
I358
sg88
I79
sg126
I117
sg606
I597
sg274
I265
sg410
I401
sg275
I266
sg554
I545
sg39
I30
sg369
I360
sg356
I347
sg277
I268
sg474
I465
sg89
I80
sg34
I25
sg448
I439
sg366
I357
sg201
I192
sg546
I537
sg253
I244
sg169
I160
sg355
I346
sg438
I429
sg416
I407
sg539
I530
sg510
I501
sg206
I197
sg486
I477
sg53
I44
sg280
I271
sg167
I158
sg467
I458
sg496
I487
sg451
I442
sg330
I321
sg163
I154
sg617
I608
sg447
I438
sg557
I548
sg31
I22
sg335
I326
sg310
I301
sg390
I381
sg164
I155
sg15
I6
sg537
I528
sg329
I320
sg423
I414
sg401
I392
sg541
I532
sg168
I159
sg579
I570
sg292
I283
sg564
I555
sg147
I138
sg44
I35
sg254
I245
sg251
I242
sg115
I106
sg32
I23
sg439
I430
sg92
I83
sg57
I48
sg600
I591
sg174
I165
sg220
I211
sg281
I272
sg159
I150
sg129
I120
sg286
I277
sg205
I196
sg619
I610
sg234
I225
sg584
I575
sg621
I612
sg245
I236
sg60
I51
sg59
I50
sg50
I41
sg358
I349
sg56
I47
sg570
I561
sg172
I163
sg304
I295
sg26
I17
sg376
I367
sg349
I340
sg160
I151
sg284
I275
sg478
I469
sg153
I144
sg325
I316
sg583
I574
sg288
I279
sg229
I220
sg134
I125
sg354
I345
sg135
I126
sg542
I533
sg426
I417
sg489
I480
sg387
I378
sg343
I334
sg425
I416
sg561
I552
sg278
I269
sg191
I182
sg336
I327
sg187
I178
sg144
I135
sg81
I72
sg82
I73
sg120
I111
sg599
I590
sg130
I121
sg603
I594
sg112
I103
sg569
I560
sg209
I200
sg177
I168
sg372
I363
sg523
I514
sg565
I556
sg181
I172
sg567
I558
sg482
I473
sg473
I464
sg165
I156
sg83
I74
sg300
I291
sg11
I2
sg337
I328
sg170
I161
sg240
I231
sg237
I228
sg238
I229
sg307
I298
sg279
I270
sg515
I506
sg321
I312
sg14
I5
sg625
I616
sg116
I107
sg133
I124
sg132
I123
sg626
I617
sg80
I71
sg528
I519
sg511
I502
sg398
I389
sg247
I238
sg457
I448
sg111
I102
sg52
I43
sg236
I227
sg94
I85
sg276
I267
sg221
I212
sg213
I204
sg79
I70
sg333
I324
sg550
I541
sg585
I576
sg463
I454
sg444
I435
sg259
I250
sg441
I432
sg219
I210
sg452
I443
sg61
I52
sg51
I42
sg45
I36
sg13
I4
sg208
I199
sg87
I78
sg17
I8
sg98
I89
sg385
I376
sg67
I58
sg158
I149
sg597
I588
sg103
I94
sg520
I511
sg199
I190
sg252
I243
sg12
I3
sg148
I139
sg465
I456
sg75
I66
sg534
I525
sg138
I129
sg440
I431
sg404
I395
sg549
I540
sg265
I256
sg351
I342
sg347
I338
sg552
I543
sg328
I319
sg118
I109
sg316
I307
sg365
I356
sg299
I290
sg464
I455
sg559
I550
sg532
I523
sg590
I581
sg121
I112
sg62
I53
sg137
I128
sg320
I311
sg558
I549
sg456
I447
sg143
I134
sg156
I147
sg190
I181
sg472
I463
sg508
I499
sg295
I286
sg428
I419
sg113
I104
sg216
I207
sg322
I313
sg412
I403
sg58
I49
sg231
I222
sg30
I21
sg226
I217
sg497
I488
sg578
I569
sg402
I393
sg518
I509
sg491
I482
sg526
I517
sg258
I249
sg618
I609
sg611
I602
sg531
I522
sg420
I411
sg204
I195
sg298
I289
sg581
I572
sg9
I0
sg242
I233
sg266
I257
sg37
I28
sg582
I573
sg260
I251
sg76
I67
sg18
I9
sg501
I492
sg350
I341
sg285
I276
sg608
I599
sg65
I56
sg500
I491
sg373
I364
sg574
I565
sg399
I390
sg408
I399
sg612
I603
sg248
I239
sg326
I317
sg605
I596
sg340
I331
sg342
I333
sg580
I571
sg171
I162
sg427
I418
sg411
I402
sg533
I524
sg145
I136
sg507
I498
sg91
I82
sg36
I27
sg495
I486
sg378
I369
sg513
I504
sg43
I34
sg312
I303
sg338
I329
sg381
I372
sg386
I377
sg227
I218
sg48
I39
sg556
I547
sg327
I318
sg28
I19
sg394
I385
sg551
I542
sg403
I394
sg476
I467
sg547
I538
sg468
I459
sg524
I515
sg469
I460
sg108
I99
sg536
I527
sg555
I546
sg214
I205
sg314
I305
sg69
I60
sg379
I370
sg315
I306
sg109
I100
sg624
I615
sg308
I299
sg571
I562
sg139
I130
sg481
I472
sg233
I224
sg16
I7
sg360
I351
sg598
I589
sg244
I235
sg506
I497
sg575
I566
sg422
I413
sg502
I493
sg445
I436
sg479
I470
sg202
I193
sg543
I534
sg46
I37
sg33
I24
sg243
I234
sg601
I592
sg239
I230
sg296
I287
sg257
I248
sg78
I69
sg185
I176
sg339
I330
sg627
I618
sg586
I577
sg262
I253
sg99
I90
sg141
I132
sg261
I252
sg538
I529
sg352
I343
sg264
I255
sg47
I38
sg301
I292
sg488
I479
sg196
I187
sg106
I97
sg393
I384
sg450
I441
sg535
I526
sg85
I76
sg430
I421
sg499
I490
sg246
I237
sg319
I310
sg616
I607
sg592
I583
sg415
I406
sg530
I521
sg346
I337
sg188
I179
sg475
I466
sg217
I208
sg622
I613
sg442
I433
sg218
I209
sg180
I171
sg383
I374
sg23
I14
sg200
I191
sg184
I175
sg86
I77
sg332
I323
sg361
I352
sg176
I167
sg490
I481
sg10
I1
sg25
I16
sg421
I412
sg462
I453
sg203
I194
sg173
I164
sg446
I437
sg397
I388
sg97
I88
sg186
I177
sg255
I246
sg269
I260
sg630
I621
sg110
I101
sg405
I396
sg35
I26
sg509
I500
sg287
I278
sg487
I478
sg540
I531
sg306
I297
sg461
I452
sg104
I95
sg142
I133
sg460
I451
sg166
I157
sg357
I348
sg353
I344
sg594
I585
sg323
I314
sg514
I505
sg38
I29
sg382
I373
sg225
I216
sg282
I273
sg596
I587
sg568
I559
sg604
I595
sg70
I61
sg290
I281
sg317
I308
sg544
I535
sg198
I189
sg270
I261
sg155
I146
sg54
I45
sg207
I198
sg371
I362
sg406
I397
sg607
I598
sg503
I494
sg210
I201
sg492
I483
sg493
I484
sg127
I118
sg364
I355
sg454
I445
sg114
I105
sg41
I32
sg123
I114
sg90
I81
sg419
I410
sg241
I232
sg149
I140
sg517
I508
sg516
I507
sg553
I544
sg72
I63
sg529
I520
sg512
I503
sg377
I368
sg628
I619
sg572
I563
sg297
I288
sg235
I226
sg93
I84
sg250
I241
sg362
I353
sg614
I605
sg505
I496
sg480
I471
sg95
I86
sg483
I474
sg424
I415
sg146
I137
sg125
I116
sg395
I386
sg368
I359
sg566
I557
sg449
I440
sg400
I391
sg232
I223
sg348
I339
sg256
I247
sg392
I383
sg588
I579
sg525
I516
sg504
I495
sg193
I184
sg407
I398
sg613
I604
sg429
I420
sg272
I263
sg471
I462
sg157
I148
sg101
I92
sg609
I600
sg485
I476
sg154
I145
sg363
I354
sg396
I387
sg192
I183
sg375
I366
sg102
I93
sg228
I219
sg418
I409
sg68
I59
sg117
I108
sg267
I258
sg179
I170
sg21
I12
sg615
I606
sg77
I68
sg152
I143
sg271
I262
sg303
I294
sg545
I536
sg436
I427
sg302
I293
sg374
I365
sg19
I10
sg484
I475
sg42
I33
sg610
I601
sg283
I274
sg623
I614
sg498
I489
sg107
I98
sg189
I180
sg313
I304
sg391
I382
sg128
I119
sg273
I264
sg453
I444
sg222
I213
sg413
I404
sg443
I434
sg223
I214
sg224
I215
sg268
I259
sg71
I62
sg311
I302
sg309
I300
sg136
I127
sg212
I203
sg263
I254
sg63
I54
sg249
I240
sg576
I567
sg22
I13
sg161
I152
sg344
I335
sg64
I55
sg119
I110
sg96
I87
sg230
I221
sg466
I457
sg459
I450
sg435
I426
sg131
I122
sg29
I20
sg431
I422
sg477
I468
sg40
I31
sg183
I174
sg331
I322
sg318
I309
sg100
I91
sg494
I485
ssS'separator'
p635
S'='
sS'sparse'
p636
I01
sb.