ccopy_reg
_reconstructor
p1
(csklearn.feature_extraction.dict_vectorizer
DictVectorizer
p2
c__builtin__
object
p3
NtRp4
(dp5
S'vocabulary_'
p6
(dp7
S'w+1=strongly'
p8
I255
sS'nsubjpass=many'
p9
I188
sS'w-1=Asia'
p10
I366
sS'advmod=more'
p11
I18
sS'aux=have'
p12
I38
sS'dep=do'
p13
I75
sS'w-2=people'
p14
I507
sS'advcl=tire'
p15
I5
sS'w-2=capacity'
p16
I463
sS'conj=lose'
p17
I62
sS'dobj=much'
p18
I101
sS'dobj=hostage'
p19
I96
sS'w-1=country'
p20
I385
sS'advmod=well'
p21
I31
sS'conj=hide'
p22
I61
sS'conj=close'
p23
I55
sS'nsubj=investigator'
p24
I159
sS'w-1=nation'
p25
I399
sS'w-2=can'
p26
I462
sS'w-2=police'
p27
I510
sS'w-2=haven'
p28
I485
sS'w-2=they'
p29
I525
sS'nsubj=business'
p30
I147
sS'conj=severe'
p31
I68
sS'prep=by'
p32
I200
sS'w+2=nation'
p33
I317
sS'w-2=country'
p34
I466
sS'w+1=that'
p35
I257
sS'w+1=belongings'
p36
I224
sS'w-2=some'
p37
I520
sS'conj=rebuild'
p38
I64
sS'w-1=survivor'
p39
I417
sS'xcomp=end'
p40
I543
sS'w-1=market'
p41
I398
sS'w-1=say'
p42
I410
sS'dobj=remains'
p43
I107
sS'w+1=top'
p44
I262
sS'w+2=productive'
p45
I323
sS'nsubjpass=#NUMBER#'
p46
I181
sS'w+2=weapon'
p47
I357
sS'w-1=will'
p48
I427
sS'w-2=Figure'
p49
I444
sS'w-2=campaign'
p50
I461
sS'nsubjpass=lot'
p51
I187
sS'w-1=be'
p52
I378
sS'advmod=eventually'
p53
I15
sS'w+2=rapidly'
p54
I327
sS'w+2=Hurricane'
p55
I280
sS'w-2=the'
p56
I524
sS'dobj=Brennan'
p57
I82
sS'conj=missing'
p58
I63
sS'w-2=time'
p59
I526
sS'w-2=before'
p60
I456
sS'w-2=where'
p61
I535
sS'w+2=recession'
p62
I329
sS'w-1=Giunta'
p63
I368
sS'advcl=take'
p64
I4
sS'w-2=who'
p65
I538
sS'advcl=stop'
p66
I3
sS'dobj=material'
p67
I100
sS'w-1=state'
p68
I414
sS'nsubj=Gemayel'
p69
I135
sS'w+1=on'
p70
I244
sS'w+2=treasure'
p71
I354
sS'w+2=last'
p72
I312
sS'conj=strengthen'
p73
I69
sS'w+2=must'
p74
I316
sS'w-2=market'
p75
I495
sS'nsubj=survivor'
p76
I174
sS'w-1=with'
p77
I428
sS'w-2=continue'
p78
I465
sS'w-2=Africa'
p79
I440
sS'w-1=have'
p80
I393
sS'w+2=-lrb-'
p81
I271
sS'w+2=in'
p82
I307
sS'w+2=what'
p83
I358
sS'w+2=who'
p84
I360
sS'w-1=document'
p85
I387
sS'w-1=could'
p86
I384
sS'advmod=strongly'
p87
I28
sS'advmod=once'
p88
I20
sS'prep=about'
p89
I195
sS'aux=can'
p90
I35
sS'complm=that'
p91
I52
sS'advmod=successfully'
p92
I29
sS'w-2=population'
p93
I511
sS'nsubj=Church'
p94
I131
sS'w-1=you'
p95
I431
sS'w+2=but'
p96
I292
sS'w-2=effort'
p97
I470
sS'nsubjpass=handgun'
p98
I186
sS'w+1=teen'
p99
I256
sS'w+1=the'
p100
I258
sS'w+1=vehicle'
p101
I265
sS'w-1=raid'
p102
I409
sS'dobj=recorder'
p103
I106
sS'w+2=be'
p104
I288
sS'w+1=they'
p105
I259
sS'dobj=fossil'
p106
I94
sS'w+1=those'
p107
I260
sS'advmod=quickly'
p108
I22
sS'dobj=wreckage'
p109
I115
sS'prep=in'
p110
I203
sS'aux=would'
p111
I42
sS'w+1=for'
p112
I233
sS'nsubj=Lebanon'
p113
I138
sS'advmod=somewhat'
p114
I25
sS'w-1=Gemayel'
p115
I367
sS'w+2=land'
p116
I311
sS'w-2=that'
p117
I523
sS'prep=amid'
p118
I198
sS'w+1=quickly'
p119
I249
sS'w+1=addict'
p120
I220
sS'w+2=sense'
p121
I337
sS'w+2=political'
p122
I322
sS'csubj=recall'
p123
I73
sS'parataxis=exact'
p124
I194
sS'advmod=ago'
p125
I8
sS'w-1=still'
p126
I415
sS'w+1=and'
p127
I222
sS'w-1=they'
p128
I420
sS'conj=expect'
p129
I58
sS'nsubj=Asia'
p130
I128
sS'w-2=project'
p131
I512
sS'nsubj=Figure'
p132
I134
sS'w-2=Camara'
p133
I442
sS'advmod=enough'
p134
I13
sS'nsubj=that'
p135
I175
sS'w-1=it'
p136
I397
sS'w-2=government'
p137
I481
sS'w-2=artifact'
p138
I454
sS'w+2=this'
p139
I350
sS'w-1=successfully'
p140
I416
sS'w+2=bird'
p141
I289
sS'dobj=which'
p142
I114
sS'nsubj=nigerian'
p143
I162
sS'advcl=use'
p144
I6
sS'conj=be'
p145
I53
sS'w+2=surgery'
p146
I343
sS'nsubj=day'
p147
I150
sS'w-1=the'
p148
I419
sS'nsubjpass=firearm'
p149
I185
sS'dobj=weapon'
p150
I113
sS'mark=if'
p151
I120
sS'w-2=percent'
p152
I508
sS'dobj=role'
p153
I108
sS'w+2=now'
p154
I318
sS'w+2=2,600'
p155
I277
sS'advmod=where'
p156
I33
sS'w-2=false'
p157
I476
sS'nsubj=Pakistan'
p158
I141
sS'w+2=when'
p159
I359
sS'dobj=city'
p160
I89
sS'w-2=which'
p161
I536
sS'nsubj=troops'
p162
I177
sS'w+1=soldier'
p163
I251
sS'w+2=30'
p164
I278
sS'w+2=body'
p165
I290
sS'dobj=people'
p166
I103
sS'nsubjpass=downturn'
p167
I184
sS'w-1=world'
p168
I429
sS'w+2=sea'
p169
I336
sS'nsubj=who'
p170
I180
sS'w-2=body'
p171
I458
sS'w-2=of'
p172
I504
sS'w-2=day'
p173
I467
sS'w-1=to'
p174
I421
sS'w+1=patient'
p175
I247
sS'w+2=credibility'
p176
I299
sS'w+2=more'
p177
I315
sS'w-1=two'
p178
I424
sS'dobj=#PRP#'
p179
I80
sS'dobj=treasure'
p180
I111
sS'nsubj=province'
p181
I169
sS'w+2=box'
p182
I291
sS'w-1=stable'
p183
I413
sS'w-1=before'
p184
I379
sS'nsubj=Mauritania'
p185
I139
sS'w+1=stolen'
p186
I254
sS'w-2=afraid'
p187
I451
sS'nsubj=human'
p188
I156
sS'w+1=black'
p189
I225
sS'w-1=investigator'
p190
I396
sS'w+2=quickly'
p191
I326
sS'prep=over'
p192
I206
sS'w+2=2,400'
p193
I276
sS'w+1=at'
p194
I223
sS'nsubj=project'
p195
I168
sS'w+1=he'
p196
I237
sS'w+1=from'
p197
I235
sS'mark=for'
p198
I119
sS'nsubjpass=that'
p199
I193
sS'w-1=would'
p200
I430
sS'w-2=military'
p201
I498
sS'w-1=can'
p202
I382
sS'w-2=official'
p203
I505
sS'w-2=judge'
p204
I492
sS'w-2=able'
p205
I449
sS'ccomp=be'
p206
I48
sS'w-1=confuse'
p207
I383
sS'advmod=thanks'
p208
I30
sS'w+2=three'
p209
I352
sS'w+1=two'
p210
I263
sS'dobj=asset'
p211
I85
sS'advmod=when'
p212
I32
sS'dobj=ship'
p213
I109
sS'advcl=restore'
p214
I1
sS'w+1=production'
p215
I248
sS'nsubj=detail'
p216
I151
sS'advmod=barely'
p217
I11
sS'advmod=along'
p218
I9
sS'dep=that'
p219
I78
sS'w-2=together'
p220
I528
sS'w-2=start'
p221
I521
sS'w+2=at'
p222
I287
sS'dep=from'
p223
I76
sS'w-1=tuna'
p224
I423
sS'w-2=victory'
p225
I532
sS'w+2=state'
p226
I340
sS'dobj=cost'
p227
I90
sS'auxpass=be'
p228
I43
sS'w-2=eventually'
p229
I473
sS'w+2=regroup'
p230
I330
sS'advmod=still'
p231
I27
sS'w-2=injured'
p232
I490
sS'w-1=fully'
p233
I392
sS'w+2=say'
p234
I335
sS'nsubj=state'
p235
I172
sS'w+2=decade'
p236
I300
sS'w+2=she'
p237
I338
sS'w-2=financial'
p238
I478
sS'nsubj=Cambodia'
p239
I130
sS'dobj=addict'
p240
I84
sS'w-2=-rrb-'
p241
I436
sS'w+1=somewhat'
p242
I253
sS'dep=before'
p243
I74
sS'w-2=year'
p244
I541
sS'nsubj=India'
p245
I137
sS'w+2=role'
p246
I333
sS'w+2=year'
p247
I361
sS'dobj=vehicle'
p248
I112
sS'dobj=body'
p249
I87
sS'dobj=personnel'
p250
I104
sS'w+2=put'
p251
I325
sS'w-2=Pakistan'
p252
I445
sS'w-2=month'
p253
I500
sS'w+1=valuable'
p254
I264
sS'nsubjpass=most'
p255
I189
sS"w-2=''"
p256
I432
sS'w+2=of'
p257
I319
sS'nsubj=al-Hakim'
p258
I145
sS'conj=feel'
p259
I59
sS'w+2=to'
p260
I353
sS'w+2=he'
p261
I304
sS'w-2=struggle'
p262
I522
sS'dobj=identity'
p263
I97
sS'w+2=extreme'
p264
I302
sS'nsubj=population'
p265
I167
sS'ccomp=start'
p266
I50
sS'w-1=evidence'
p267
I390
sS'w+2=pull'
p268
I324
sS'prep=without'
p269
I208
sS'nsubj=Giunta'
p270
I136
sS'w+2=addict'
p271
I285
sS'nsubjpass=survivor'
p272
I192
sS'w-1=tooth'
p273
I422
sS'w+2=Roach'
p274
I282
sS"w-2='s"
p275
I433
sS'w-2=civilian'
p276
I464
sS'nsubj=capacity'
p277
I148
sS'w-1=never'
p278
I400
sS'w+2=from'
p279
I303
sS'conj=return'
p280
I66
sS'w-2=Bollywood'
p281
I441
sS'nsubj=Serbia'
p282
I143
sS'w+2=lose'
p283
I314
sS'aux=be'
p284
I34
sS'w-2=she'
p285
I517
sS'w+2=require'
p286
I332
sS'nsubj=Camara'
p287
I129
sS'w-2=mechanism'
p288
I496
sS'nsubj=effort'
p289
I153
sS'nsubj=stock'
p290
I173
sS'w+1=over'
p291
I246
sS'w-2=would'
p292
I540
sS'w+2=those'
p293
I351
sS'w-1=do'
p294
I386
sS'dep=war'
p295
I79
sS'w-1=artifact'
p296
I376
sS'w+1=several'
p297
I250
sS'w-1=official'
p298
I404
sS'advmod=even'
p299
I14
sS'w-2=war-ravaged'
p300
I533
sS'mark=while'
p301
I123
sS'aux=do'
p302
I37
sS'dobj=item'
p303
I98
sS'nsubj=institution'
p304
I158
sS'aux=will'
p305
I41
sS'w-2=patient'
p306
I506
sS'expl=there'
p307
I116
sS'prep=outside'
p308
I205
sS'nsubj=people'
p309
I165
sS'prep=with'
p310
I207
sS'cc=or'
p311
I46
sS'w+1=well'
p312
I267
sS'w-2=troops'
p313
I530
sS'w-1=skate'
p314
I411
sS'w+2=its'
p315
I310
sS'w-2=plan'
p316
I509
sS'w-2=if'
p317
I488
sS'nsubj=body'
p318
I146
sS'nsubj=family'
p319
I154
sS'w-2=in'
p320
I489
sS'w-1=barely'
p321
I377
sS'w-1=victim'
p322
I425
sS'w-2=nation'
p323
I501
sS'nsubj=Emma'
p324
I133
sS'w-2=it'
p325
I491
sS'dobj=politician'
p326
I105
sS'w+2=crash'
p327
I298
sS'w+1=far'
p328
I232
sS'w+1=much'
p329
I243
sS'w+2=later'
p330
I313
sS'w+2=civil'
p331
I296
sS'w-1=Mississippi'
p332
I371
sS'w-1=after'
p333
I373
sS'w-2=meet'
p334
I497
sS"w+2=''"
p335
I269
sS'nsubj=country'
p336
I149
sS'w-2=exclusively'
p337
I474
sS'advmod=also'
p338
I10
sS'w-2=forest'
p339
I480
sS'nsubj=Congo'
p340
I132
sS'mark=although'
p341
I117
sS'w+1=very'
p342
I266
sS'w+1=drug'
p343
I228
sS'w-2=economy'
p344
I469
sS'nsubj=region'
p345
I171
sS'w-2=Afghan'
p346
I439
sS'dobj=Iraq'
p347
I83
sS'w-2=States'
p348
I446
sS'w+1=Brennan'
p349
I216
sS'xcomp=remove'
p350
I544
sS'w-2=have'
p351
I484
sS'w+1=fossil'
p352
I234
sS'cc=and'
p353
I44
sS'conj=study'
p354
I70
sS'w-2=Williams'
p355
I447
sS'nsubj=industry'
p356
I157
sS'w-1=we'
p357
I426
sS'w-1=slowly'
p358
I412
sS'w+1=wreckage'
p359
I268
sS'w-1=but'
p360
I381
sS'nsubj=film'
p361
I155
sS'w-2=should'
p362
I518
sS'w+1=Iraq'
p363
I217
sS'w-1=people'
p364
I407
sS'conj=say'
p365
I67
sS'nsubj=official'
p366
I163
sS'tmod=year'
p367
I211
sS'w+2=hillside'
p368
I305
sS'w+1=it'
p369
I238
sS'mark=until'
p370
I122
sS'nsubj=#PRP#'
p371
I126
sS'w+1=about'
p372
I219
sS'w+1=emotionally'
p373
I230
sS'cc=but'
p374
I45
sS'nsubj=victim'
p375
I178
sS'w+1=material'
p376
I240
sS'ccomp=use'
p377
I51
sS'aux=could'
p378
I36
sS'prep=like'
p379
I204
sS'w+1=-rrb-'
p380
I213
sS'w-2=show'
p381
I519
sS'w+2=war'
p382
I356
sS'w-2=begin'
p383
I457
sS'w+2=cancer'
p384
I294
sS'conj=find'
p385
I60
sS'w+2=item'
p386
I309
sS'nsubj=market'
p387
I160
sS'nsubj=trade'
p388
I176
sS'w-2=be'
p389
I455
sS'rel=of'
p390
I209
sS'w+1=three'
p391
I261
sS'w-1=economy'
p392
I388
sS'dobj=strength'
p393
I110
sS'nsubjpass=some'
p394
I191
sS'conj=dispute'
p395
I56
sS'nsubj=which'
p396
I179
sS'w-1=for'
p397
I391
sS'conj=take'
p398
I71
sS'w+1=,'
p399
I212
sS'dobj=$'
p400
I81
sS'w-1=eventually'
p401
I389
sS'w+1=once'
p402
I245
sS'w+1=body'
p403
I226
sS'w-2=Aceh'
p404
I438
sS'w-2=actually'
p405
I450
sS'w-2=hard'
p406
I483
sS'w+2=that'
p407
I346
sS'dobj=hillside'
p408
I95
sS'w+1=some'
p409
I252
sS'w-1=on'
p410
I405
sS'dobj=craft'
p411
I91
sS'w+2=Norris'
p412
I281
sS'w-1=or'
p413
I406
sS'nsubjpass=recorder'
p414
I190
sS'advcl=say'
p415
I2
sS'nsubj=police'
p416
I166
sS'w-2=to'
p417
I527
sS'w+2=and'
p418
I286
sS'tmod=#DATE#'
p419
I210
sS'w-2=and'
p420
I453
sS'w-1=province'
p421
I408
sS'advmod=actually'
p422
I7
sS'mark=so'
p423
I121
sS'w-2=try'
p424
I531
sS'conj=behave'
p425
I54
sS'w-2=enough'
p426
I471
sS'w-2=he'
p427
I486
sS'w-2=region'
p428
I514
sS'advmod=previously'
p429
I21
sS'w+1=more'
p430
I242
sS'advmod=now'
p431
I19
sS'w-1=human'
p432
I395
sS'advmod=fully'
p433
I16
sS'conj=embroil'
p434
I57
sS'w+2=city'
p435
I295
sS'w+2=100'
p436
I274
sS'prep=at'
p437
I199
sS'w-2=will'
p438
I539
sS'w-2=,'
p439
I434
sS'w-2=-'
p440
I435
sS'w-2=.'
p441
I437
sS'w-1=and'
p442
I375
sS'advmod=south'
p443
I26
sS'nsubj=Afghanistan'
p444
I127
sS'w-2=but'
p445
I460
sS'w+2=14'
p446
I275
sS'w-1=.'
p447
I364
sS'w-1=,'
p448
I362
sS'w+2=10'
p449
I273
sS'w-2=not'
p450
I502
sS'w-2=now'
p451
I503
sS'w-2=while'
p452
I537
sS'w-2=handgun'
p453
I482
sS'w+1=military'
p454
I241
sS'w+2=rebuild'
p455
I328
sS'w-1=also'
p456
I374
sS'w-2=Congo'
p457
I443
sS'dobj=belongings'
p458
I86
sS'w-1=I'
p459
I369
sS'w-2=film'
p460
I477
sS'aux=should'
p461
I39
sS'w+1=during'
p462
I229
sS'w-2=reef'
p463
I513
sS'w+2=Friday'
p464
I279
sS'w-2=burmese'
p465
I459
sS'w-2=a'
p466
I448
sS'w+2=such'
p467
I342
sS'w-1=a'
p468
I372
sS'w+2=personnel'
p469
I321
sS'w-1=-lrb-'
p470
I363
sS'nsubjpass=body'
p471
I183
sS'mark=as'
p472
I118
sS'w-1=he'
p473
I394
sS'dobj=land'
p474
I99
sS'w+2=abuser'
p475
I284
sS'w+2=there'
p476
I348
sS'advmod=emotionally'
p477
I12
sS'nsubj=economy'
p478
I152
sS'conj=regroup'
p479
I65
sS'neg=never'
p480
I124
sS'w-2=loan'
p481
I493
sS'w+2=rumor'
p482
I334
sS'w+2=strength'
p483
I341
sS'w-2=ensure'
p484
I472
sS'w+2=violent'
p485
I355
sS'w+2=they'
p486
I349
sS'conj=view'
p487
I72
sS'prep=after'
p488
I196
sS'w-2=we'
p489
I534
sS'w-2=al-Hakim'
p490
I452
sS'w-2=rest'
p491
I515
sS'w+1=enough'
p492
I231
sS'w+2=hostage'
p493
I306
sS'w+2=remains'
p494
I331
sS'w+1=fully'
p495
I236
sS'prep=against'
p496
I197
sS'w-2=loss'
p497
I494
sS'w+2=cost'
p498
I297
sS'w+1=looted'
p499
I239
sS'w-1=nigerian'
p500
I401
sS'w-2=trade'
p501
I529
sS'w+2=than'
p502
I344
sS'nsubj=patient'
p503
I164
sS'w-2=say'
p504
I516
sS'w-1=body'
p505
I380
sS'prep=from'
p506
I202
sS'w+2=injury'
p507
I308
sS'w+2=other'
p508
I320
sS'w-2=help'
p509
I487
sS'w+1=after'
p510
I221
sS'w-1=Lebanon'
p511
I370
sS'w+2=thanks'
p512
I345
sS'ccomp=act'
p513
I47
sS'aux=to'
p514
I40
sS'w-2=facility'
p515
I475
sS'dobj=economy'
p516
I93
sS'ccomp=describe'
p517
I49
sS'xcomp=deliver'
p518
I542
sS'advmod=slowly'
p519
I24
sS'w+2=the'
p520
I347
sS'dep=put'
p521
I77
sS'w-1=Aborigines'
p522
I365
sS'nsubj=military'
p523
I161
sS'dobj=part'
p524
I102
sS'advmod=later'
p525
I17
sS'nsubjpass=all'
p526
I182
sS'w+1=.'
p527
I214
sS'w+2=by'
p528
I293
sS'w+2=.'
p529
I272
sS'w+2=,'
p530
I270
sS'nsubj=Mississippi'
p531
I140
sS'dobj=document'
p532
I92
sS'w+1=:'
p533
I215
sS'neg=not'
p534
I125
sS'prep=during'
p535
I201
sS'advmod=rapidly'
p536
I23
sS'advcl=break'
p537
I0
sS'nsubj=Republic'
p538
I142
sS'nsubj=reef'
p539
I170
sS'dobj=capacity'
p540
I88
sS'nsubj=Williams'
p541
I144
sS'w+1=a'
p542
I218
sS'w-1=now'
p543
I403
sS'w-1=not'
p544
I402
sS'w+1=but'
p545
I227
sS'w-2=difficult'
p546
I468
sS'w-1=that'
p547
I418
sS'w+2=document'
p548
I301
sS'w-2=for'
p549
I479
sS'w-2=miss'
p550
I499
sS'w+2=a'
p551
I283
sS'w+2=ship'
p552
I339
ssS'dtype'
p553
cnumpy
float64
p554
sS'feature_names_'
p555
(lp556
g537
ag214
ag415
ag66
ag64
ag15
ag144
ag422
ag125
ag218
ag338
ag217
ag477
ag134
ag299
ag53
ag433
ag525
ag11
ag431
ag88
ag429
ag108
ag536
ag519
ag114
ag443
ag231
ag87
ag92
ag208
ag21
ag212
ag156
ag284
ag90
ag378
ag302
ag12
ag461
ag514
ag305
ag111
ag228
ag353
ag374
ag311
ag513
ag206
ag517
ag266
ag377
ag91
ag145
ag425
ag23
ag395
ag434
ag129
ag259
ag385
ag22
ag17
ag58
ag38
ag479
ag280
ag365
ag31
ag73
ag354
ag398
ag487
ag123
ag243
ag13
ag223
ag521
ag219
ag295
ag179
ag400
ag57
ag347
ag240
ag211
ag458
ag249
ag540
ag160
ag227
ag411
ag532
ag516
ag106
ag408
ag19
ag263
ag303
ag474
ag67
ag18
ag524
ag166
ag250
ag326
ag103
ag43
ag153
ag213
ag393
ag180
ag248
ag150
ag142
ag109
ag307
ag341
ag472
ag198
ag151
ag423
ag370
ag301
ag480
ag534
ag371
ag444
ag130
ag287
ag239
ag94
ag340
ag324
ag132
ag69
ag270
ag245
ag113
ag185
ag531
ag158
ag538
ag282
ag541
ag258
ag318
ag30
ag277
ag336
ag147
ag216
ag478
ag289
ag319
ag361
ag188
ag356
ag304
ag24
ag387
ag523
ag143
ag366
ag503
ag309
ag416
ag265
ag195
ag181
ag539
ag345
ag235
ag290
ag76
ag135
ag388
ag162
ag375
ag396
ag170
ag46
ag526
ag471
ag167
ag149
ag98
ag51
ag9
ag255
ag414
ag394
ag272
ag199
ag124
ag89
ag488
ag496
ag118
ag437
ag32
ag535
ag506
ag110
ag379
ag308
ag192
ag310
ag269
ag390
ag419
ag367
ag399
ag380
ag527
ag533
ag349
ag363
ag542
ag372
ag120
ag510
ag127
ag194
ag36
ag189
ag403
ag545
ag343
ag462
ag373
ag492
ag328
ag112
ag352
ag197
ag495
ag196
ag369
ag499
ag376
ag454
ag430
ag329
ag70
ag402
ag291
ag175
ag215
ag119
ag297
ag163
ag409
ag242
ag186
ag8
ag99
ag35
ag100
ag105
ag107
ag391
ag44
ag210
ag254
ag101
ag342
ag312
ag359
ag335
ag530
ag81
ag529
ag449
ag436
ag446
ag193
ag155
ag164
ag464
ag55
ag412
ag274
ag551
ag475
ag271
ag418
ag222
ag104
ag141
ag165
ag182
ag96
ag528
ag384
ag435
ag331
ag498
ag327
ag176
ag236
ag548
ag264
ag279
ag261
ag368
ag493
ag82
ag507
ag386
ag315
ag116
ag72
ag330
ag283
ag177
ag74
ag33
ag154
ag257
ag508
ag469
ag122
ag45
ag268
ag251
ag191
ag54
ag455
ag62
ag230
ag494
ag286
ag246
ag482
ag234
ag169
ag121
ag237
ag552
ag226
ag483
ag467
ag146
ag502
ag512
ag407
ag520
ag476
ag486
ag139
ag293
ag209
ag260
ag71
ag485
ag382
ag47
ag83
ag159
ag84
ag247
ag448
ag470
ag447
ag522
ag10
ag115
ag63
ag459
ag511
ag332
ag468
ag333
ag456
ag442
ag296
ag321
ag52
ag184
ag505
ag360
ag202
ag207
ag86
ag20
ag294
ag85
ag392
ag401
ag267
ag397
ag233
ag80
ag473
ag432
ag190
ag136
ag41
ag25
ag278
ag500
ag544
ag543
ag298
ag410
ag413
ag364
ag421
ag102
ag42
ag314
ag358
ag183
ag68
ag126
ag140
ag39
ag547
ag148
ag128
ag174
ag273
ag224
ag178
ag322
ag357
ag48
ag77
ag168
ag200
ag95
ag256
ag275
ag439
ag440
ag241
ag441
ag404
ag346
ag79
ag281
ag133
ag457
ag49
ag252
ag348
ag355
ag466
ag205
ag405
ag187
ag490
ag420
ag138
ag389
ag60
ag383
ag171
ag465
ag445
ag50
ag26
ag16
ag276
ag78
ag34
ag173
ag546
ag344
ag97
ag426
ag484
ag229
ag337
ag515
ag157
ag460
ag238
ag549
ag339
ag137
ag453
ag406
ag351
ag28
ag427
ag509
ag317
ag320
ag232
ag325
ag204
ag481
ag497
ag75
ag288
ag334
ag201
ag550
ag253
ag323
ag450
ag451
ag172
ag203
ag306
ag14
ag152
ag316
ag27
ag93
ag131
ag463
ag428
ag491
ag504
ag285
ag362
ag381
ag37
ag221
ag262
ag117
ag56
ag29
ag59
ag417
ag220
ag501
ag313
ag424
ag225
ag300
ag489
ag61
ag161
ag452
ag65
ag438
ag292
ag244
ag518
ag40
ag350
asS'separator'
p557
S'='
sS'sparse'
p558
I01
sb.