ccopy_reg
_reconstructor
p1
(csklearn.feature_extraction.dict_vectorizer
DictVectorizer
p2
c__builtin__
object
p3
NtRp4
(dp5
S'vocabulary_'
p6
(dp7
S'dobj=violation'
p8
I41
sS'w+2=Hudson'
p9
I90
sS'w+2=kurdish'
p10
I104
sS'w-1=hill'
p11
I131
sS'advmod=right'
p12
I6
sS'w-2=too'
p13
I176
sS'nsubjpass=group'
p14
I53
sS'w-1=Mountain'
p15
I122
sS'advmod=often'
p16
I5
sS'w+2=prime'
p17
I108
sS'dobj=city'
p18
I29
sS'w+2=underservedthose'
p19
I116
sS'w-2=abuse'
p20
I152
sS'dobj=port'
p21
I33
sS'w-2=hard'
p22
I161
sS'w-1=be'
p23
I127
sS'w+2=international'
p24
I103
sS'w+1=Thailand'
p25
I73
sS'dobj=security'
p26
I36
sS'w+2=,'
p27
I88
sS'w-1=apartment'
p28
I124
sS'nsubj=who'
p29
I50
sS'dobj=square'
p30
I38
sS'w-1=mountain'
p31
I136
sS'w-1=land'
p32
I134
sS'w-2=of'
p33
I169
sS'w-2=need'
p34
I167
sS'w-1=.'
p35
I119
sS'w-1=to'
p36
I143
sS'prep=by'
p37
I62
sS'w-1=house'
p38
I133
sS'w+1=abuse'
p39
I74
sS'w-2=hypocritical'
p40
I164
sS'nsubj=government'
p41
I47
sS'w+1=any'
p42
I76
sS'w+1=Molo'
p43
I69
sS'nsubj=both'
p44
I45
sS'nsubj=Mountain'
p45
I44
sS"w-2='s"
p46
I147
sS'nsubjpass=dimension'
p47
I52
sS'aux=will'
p48
I14
sS'w+2=social'
p49
I112
sS'w+2=Christmas'
p50
I89
sS'dobj=abuse'
p51
I25
sS'dobj=capital'
p52
I28
sS'w+2=the'
p53
I115
sS'w+1=as'
p54
I77
sS'xcomp=important'
p55
I180
sS'w-1=will'
p56
I145
sS'w-1=hilltop'
p57
I132
sS'w-1=window'
p58
I146
sS'conj=include'
p59
I21
sS'nsubjpass=match'
p60
I54
sS'w-1=and'
p61
I123
sS'w+1=Hakkari'
p62
I67
sS'aux=may'
p63
I11
sS'aux=have'
p64
I10
sS'advcl=focus'
p65
I0
sS'w+2=ethiopian'
p66
I97
sS'dobj=Thailand'
p67
I24
sS'w+1=how'
p68
I80
sS'nsubjpass=that'
p69
I58
sS'dobj=sea'
p70
I35
sS'w-1=,'
p71
I117
sS'w-2=not'
p72
I168
sS'w-2=the'
p73
I175
sS'nsubjpass=resolution'
p74
I56
sS'w-1=criticism'
p75
I130
sS'w-2=examine'
p76
I157
sS'ccomp=be'
p77
I18
sS'w-2=willing'
p78
I178
sS'w+2=large'
p79
I105
sS'advmod=longer'
p80
I4
sS'w-2=may'
p81
I166
sS'w-2=cramped'
p82
I155
sS'dobj=opportunity'
p83
I32
sS'w-2=who'
p84
I177
sS'nsubjpass=country'
p85
I51
sS'w+2=square'
p86
I114
sS'nsubjpass=student'
p87
I57
sS'w+1=contribution'
p88
I79
sS'w-1=Manhattan'
p89
I120
sS'w-2=a'
p90
I151
sS'w-2=disputed'
p91
I156
sS'w+2=West'
p92
I94
sS'w-2=capital'
p93
I154
sS'w-1=attack'
p94
I125
sS'w+1=Hong'
p95
I68
sS'xcomp=raise'
p96
I181
sS'w-1=-lrb-'
p97
I118
sS'w-2=house'
p98
I163
sS'w+2=gross'
p99
I100
sS'w-2=willingness'
p100
I179
sS'w+2=security'
p101
I110
sS'w-2=sprawl'
p102
I171
sS'w+1=Serbia'
p103
I71
sS'w+2=Peter'
p104
I93
sS'w-2=longer'
p105
I165
sS'w-1=cliff'
p106
I129
sS'auxpass=be'
p107
I15
sS'aux=can'
p108
I9
sS'complm=that'
p109
I19
sS'prep=around'
p110
I61
sS'w-2=gallery'
p111
I159
sS'w+2=far'
p112
I98
sS'dobj=area'
p113
I26
sS'dobj=boulevard'
p114
I27
sS'dobj=River'
p115
I23
sS'w+2=sit'
p116
I111
sS'nsubjpass=who'
p117
I59
sS'cc=and'
p118
I16
sS'w-2=fighter'
p119
I158
sS'advmod=still'
p120
I7
sS'w-2=that'
p121
I174
sS'w+1=the'
p122
I86
sS'w+1=by'
p123
I78
sS'w-2=grassy'
p124
I160
sS'w+2=source'
p125
I113
sS'cc=but'
p126
I17
sS'advcl=look'
p127
I1
sS'w-2=Enchey'
p128
I149
sS"w+2='s"
p129
I87
sS'dobj=record'
p130
I34
sS'w+2=many'
p131
I106
sS'dobj=fighter'
p132
I30
sS'w+1=if'
p133
I81
sS'prep=in'
p134
I63
sS'w+1=in'
p135
I82
sS'dobj=source'
p136
I37
sS'dobj=minister'
p137
I31
sS'w+1=predominantly'
p138
I83
sS'nsubj=#PRP#'
p139
I43
sS'w+2=Ibar'
p140
I91
sS'w-2=heart'
p141
I162
sS'w+1=something'
p142
I85
sS'advmod=largely'
p143
I3
sS'w-1=we'
p144
I144
sS'aux=to'
p145
I13
sS'w-2=Sugarloaf'
p146
I150
sS'w+2=city'
p147
I96
sS'w-1=or'
p148
I138
sS'w-2=steep'
p149
I173
sS'advmod=ago'
p150
I2
sS'w-1=still'
p151
I139
sS'w+2=sea'
p152
I109
sS'w+1=and'
p153
I75
sS'w-1=they'
p154
I142
sS'w-1=that'
p155
I140
sS'w+1=,'
p156
I65
sS'w+1=.'
p157
I66
sS'w+2=of'
p158
I107
sS'w-2=statue'
p159
I172
sS'w+1=Sikkim'
p160
I72
sS'w-1=often'
p161
I137
sS'neg=not'
p162
I42
sS'nsubj=that'
p163
I49
sS'aux=must'
p164
I12
sS'w-1=both'
p165
I128
sS'w+2=he'
p166
I101
sS'dobj=town'
p167
I39
sS'conj=lie'
p168
I22
sS'w+1=so'
p169
I84
sS'w-2=.'
p170
I148
sS'nsubjpass=officer'
p171
I55
sS'w+1=Saint'
p172
I70
sS'w-2=be'
p173
I153
sS'nsubj=criticism'
p174
I46
sS'nsubj=mountain'
p175
I48
sS'w-1=Monastery'
p176
I121
sS'w+2=Kong'
p177
I92
sS'w-1=the'
p178
I141
sS'w-2=office'
p179
I170
sS'prep=on'
p180
I64
sS'w+2=important'
p181
I102
sS'w-1=largely'
p182
I135
sS'aux=be'
p183
I8
sS'dobj=tree'
p184
I40
sS'w+2=fighter'
p185
I99
sS'w-1=basilica'
p186
I126
sS'w+2=a'
p187
I95
sS'parataxis=add'
p188
I60
sS'conj=echo'
p189
I20
ssS'dtype'
p190
cnumpy
float64
p191
sS'feature_names_'
p192
(lp193
g65
ag127
ag150
ag143
ag80
ag16
ag12
ag120
ag183
ag108
ag64
ag63
ag164
ag145
ag48
ag107
ag118
ag126
ag77
ag109
ag189
ag59
ag168
ag115
ag67
ag51
ag113
ag114
ag52
ag18
ag132
ag137
ag83
ag21
ag130
ag70
ag26
ag136
ag30
ag167
ag184
ag8
ag162
ag139
ag45
ag44
ag174
ag41
ag175
ag163
ag29
ag85
ag47
ag14
ag60
ag171
ag74
ag87
ag69
ag117
ag188
ag110
ag37
ag134
ag180
ag156
ag157
ag62
ag95
ag43
ag172
ag103
ag160
ag25
ag39
ag153
ag42
ag54
ag123
ag88
ag68
ag133
ag135
ag138
ag169
ag142
ag122
ag129
ag27
ag50
ag9
ag140
ag177
ag104
ag92
ag187
ag147
ag66
ag112
ag185
ag99
ag166
ag181
ag24
ag10
ag79
ag131
ag158
ag17
ag152
ag101
ag116
ag49
ag125
ag86
ag53
ag19
ag71
ag97
ag35
ag89
ag176
ag15
ag61
ag28
ag94
ag186
ag23
ag165
ag106
ag75
ag11
ag57
ag38
ag32
ag182
ag31
ag161
ag148
ag151
ag155
ag178
ag154
ag36
ag144
ag56
ag58
ag46
ag170
ag128
ag146
ag90
ag20
ag173
ag93
ag82
ag91
ag76
ag119
ag111
ag124
ag22
ag141
ag98
ag40
ag105
ag81
ag34
ag72
ag33
ag179
ag102
ag159
ag149
ag121
ag73
ag13
ag84
ag78
ag100
ag55
ag96
asS'separator'
p194
S'='
sS'sparse'
p195
I01
sb.