ccopy_reg
_reconstructor
p1
(csklearn.feature_extraction.dict_vectorizer
DictVectorizer
p2
c__builtin__
object
p3
NtRp4
(dp5
S'sort'
p6
I01
sS'feature_names_'
p7
(lp8
S'advcl=be'
p9
aS'advcl=change'
p10
aS'advcl=say'
p11
aS'advmod=#PRP#'
p12
aS'advmod=allegedly'
p13
aS'advmod=also'
p14
aS'advmod=always'
p15
aS'advmod=even'
p16
aS'advmod=initially'
p17
aS'advmod=just'
p18
aS'advmod=once'
p19
aS'advmod=routinely'
p20
aS'advmod=sometimes'
p21
aS'advmod=still'
p22
aS'advmod=when'
p23
aS'aux=be'
p24
aS'aux=can'
p25
aS'aux=do'
p26
aS'aux=have'
p27
aS'aux=to'
p28
aS'aux=will'
p29
aS'auxpass=be'
p30
aS'cc=and'
p31
aS'cc=or'
p32
aS'complm=that'
p33
aS'conj=demand'
p34
aS'conj=erase'
p35
aS'conj=have'
p36
aS'conj=sell'
p37
aS'conj=squander'
p38
aS'conj=want'
p39
aS'dep=break'
p40
aS'dep=can'
p41
aS'dep=create'
p42
aS'dep=how'
p43
aS'dep=steal'
p44
aS'dobj=#DATE#'
p45
aS'dobj=#NUMBER#'
p46
aS'dobj=#PRP#'
p47
aS'dobj=$'
p48
aS'dobj=Christmas'
p49
aS'dobj=Facebook'
p50
aS'dobj=Kosovo'
p51
aS'dobj=Playbook'
p52
aS'dobj=bit'
p53
aS'dobj=box'
p54
aS'dobj=cargo'
p55
aS'dobj=carton'
p56
aS'dobj=cattle'
p57
aS'dobj=chicken'
p58
aS'dobj=child'
p59
aS'dobj=computer'
p60
aS'dobj=cow'
p61
aS'dobj=diamond'
p62
aS'dobj=election'
p63
aS'dobj=everything'
p64
aS'dobj=fixture'
p65
aS'dobj=fund'
p66
aS'dobj=gold'
p67
aS'dobj=headline'
p68
aS'dobj=humanity'
p69
aS'dobj=idea'
p70
aS'dobj=identity'
p71
aS'dobj=little'
p72
aS'dobj=livestock'
p73
aS'dobj=mask'
p74
aS'dobj=moment'
p75
aS'dobj=money'
p76
aS'dobj=number'
p77
aS'dobj=object'
p78
aS'dobj=oil'
p79
aS'dobj=part'
p80
aS'dobj=phone'
p81
aS'dobj=phrase'
p82
aS'dobj=possession'
p83
aS'dobj=property'
p84
aS'dobj=resource'
p85
aS'dobj=secret'
p86
aS'dobj=something'
p87
aS'dobj=supplies'
p88
aS'dobj=telephone'
p89
aS'dobj=that'
p90
aS'dobj=thing'
p91
aS'dobj=treasure'
p92
aS'dobj=vehicle'
p93
aS'dobj=weapon'
p94
aS'dobj=website'
p95
aS'dobj=wiring'
p96
aS'mark=after'
p97
aS'mark=as'
p98
aS'mark=because'
p99
aS'mark=than'
p100
aS'neg=not'
p101
aS'nsubj=#PRP#'
p102
aS'nsubj=Abubakar'
p103
aS'nsubj=Canada'
p104
aS'nsubj=Foundation'
p105
aS'nsubj=Kibaki'
p106
aS'nsubj=Nazis'
p107
aS'nsubj=article'
p108
aS'nsubj=gang'
p109
aS'nsubj=looter'
p110
aS'nsubj=official'
p111
aS'nsubj=that'
p112
aS'nsubj=thief'
p113
aS'nsubj=villager'
p114
aS'nsubj=who'
p115
aS'nsubjpass=#PRP#'
p116
aS'nsubjpass=$'
p117
aS'nsubjpass=amount'
p118
aS'nsubjpass=election'
p119
aS'nsubjpass=everything'
p120
aS'nsubjpass=food'
p121
aS'nsubjpass=fund'
p122
aS'nsubjpass=head'
p123
aS'nsubjpass=identity'
p124
aS'nsubjpass=joy'
p125
aS'nsubjpass=lot'
p126
aS'nsubjpass=panel'
p127
aS'nsubjpass=something'
p128
aS'nsubjpass=that'
p129
aS'partmod=use'
p130
aS'prep=at'
p131
aS'prep=by'
p132
aS'prep=during'
p133
aS'prep=for'
p134
aS'prep=from'
p135
aS'prep=in'
p136
aS'prep=of'
p137
aS'prep=on'
p138
aS'prep=over'
p139
aS'prep=through'
p140
aS'prep=with'
p141
aS'prt=away'
p142
aS'prt=up'
p143
aS'tmod=week'
p144
aS'tmod=year'
p145
aS'w+1=$'
p146
aS'w+1=,'
p147
aS'w+1=.'
p148
aS'w+1=Christmas'
p149
aS'w+1=Congo'
p150
aS'w+1=Kalenjin'
p151
aS'w+1=Kosovo'
p152
aS'w+1=a'
p153
aS'w+1=al-qaida'
p154
aS'w+1=and'
p155
aS'w+1=art'
p156
aS'w+1=as'
p157
aS'w+1=at'
p158
aS'w+1=away'
p159
aS'w+1=ballot'
p160
aS'w+1=be'
p161
aS'w+1=because'
p162
aS'w+1=between'
p163
aS'w+1=billion'
p164
aS'w+1=brick'
p165
aS'w+1=by'
p166
aS'w+1=card'
p167
aS'w+1=cattle'
p168
aS'w+1=child'
p169
aS'w+1=computer'
p170
aS'w+1=copper'
p171
aS'w+1=crude'
p172
aS'w+1=diamond'
p173
aS'w+1=during'
p174
aS'w+1=election'
p175
aS'w+1=every'
p176
aS'w+1=everything'
p177
aS'w+1=five'
p178
aS'w+1=food'
p179
aS'w+1=from'
p180
aS'w+1=gold'
p181
aS'w+1=goods'
p182
aS'w+1=government'
p183
aS'w+1=he'
p184
aS'w+1=in'
p185
aS'w+1=information'
p186
aS'w+1=it'
p187
aS'w+1=italian'
p188
aS'w+1=item'
p189
aS'w+1=military'
p190
aS'w+1=million'
p191
aS'w+1=mobile'
p192
aS'w+1=money'
p193
aS'w+1=nuclear'
p194
aS'w+1=oil'
p195
aS'w+1=or'
p196
aS'w+1=over'
p197
aS'w+1=part'
p198
aS'w+1=passport'
p199
aS'w+1=phrase'
p200
aS'w+1=public'
p201
aS'w+1=several'
p202
aS'w+1=ship'
p203
aS'w+1=should'
p204
aS'w+1=some'
p205
aS'w+1=something'
p206
aS'w+1=supplies'
p207
aS'w+1=that'
p208
aS'w+1=the'
p209
aS'w+1=they'
p210
aS'w+1=thing'
p211
aS'w+1=this'
p212
aS'w+1=through'
p213
aS'w+1=treasure'
p214
aS'w+1=up'
p215
aS'w+1=use'
p216
aS'w+1=valuable'
p217
aS'w+1=vehicle'
p218
aS'w+1=verdict'
p219
aS'w+1=we'
p220
aS'w+1=weapon'
p221
aS'w+1=while'
p222
aS'w+1=you'
p223
aS'w+2=!'
p224
aS"w+2='"
p225
aS"w+2=''"
p226
aS"w+2='s"
p227
aS'w+2=,'
p228
aS'w+2=.'
p229
aS'w+2=110'
p230
aS'w+2=1960'
p231
aS'w+2=Facebook'
p232
aS'w+2=I'
p233
aS'w+2=Liberia'
p234
aS'w+2=Mr.'
p235
aS'w+2=Suam'
p236
aS'w+2=World'
p237
aS'w+2=Zimbabwe'
p238
aS'w+2=and'
p239
aS'w+2=archeological'
p240
aS'w+2=arm'
p241
aS'w+2=art'
p242
aS'w+2=be'
p243
aS'w+2=bit'
p244
aS'w+2=box'
p245
aS'w+2=burn'
p246
aS'w+2=carton'
p247
aS'w+2=checkpoint'
p248
aS'w+2=chicken'
p249
aS'w+2=contact'
p250
aS'w+2=cow'
p251
aS'w+2=credit'
p252
aS'w+2=decade'
p253
aS'w+2=device'
p254
aS'w+2=diamond'
p255
aS'w+2=each'
p256
aS'w+2=election'
p257
aS'w+2=every'
p258
aS'w+2=from'
p259
aS'w+2=fund'
p260
aS'w+2=golden'
p261
aS'w+2=good'
p262
aS'w+2=government'
p263
aS'w+2=have'
p264
aS'w+2=he'
p265
aS'w+2=headline'
p266
aS'w+2=humanity'
p267
aS'w+2=idea'
p268
aS'w+2=identity'
p269
aS'w+2=in'
p270
aS'w+2=intellectual'
p271
aS'w+2=it'
p272
aS'w+2=leave'
p273
aS'w+2=lighting'
p274
aS'w+2=little'
p275
aS'w+2=livestock'
p276
aS'w+2=looting'
p277
aS'w+2=money'
p278
aS'w+2=much'
p279
aS'w+2=number'
p280
aS'w+2=of'
p281
aS'w+2=on'
p282
aS'w+2=or'
p283
aS'w+2=other'
p284
aS'w+2=phone'
p285
aS'w+2=possession'
p286
aS'w+2=property'
p287
aS'w+2=secret'
p288
aS'w+2=spotlight'
p289
aS'w+2=squander'
p290
aS'w+2=still'
p291
aS'w+2=telephone'
p292
aS'w+2=the'
p293
aS'w+2=these'
p294
aS'w+2=to'
p295
aS'w+2=vehicle'
p296
aS'w+2=weapon'
p297
aS'w+2=website'
p298
aS'w+2=when'
p299
aS'w+2=which'
p300
aS'w+2=wiring'
p301
aS'w+2=would'
p302
aS'w+2=year'
p303
aS"w-1=''"
p304
aS'w-1=,'
p305
aS'w-1=Abubakar'
p306
aS'w-1=Canada'
p307
aS'w-1=Kibaki'
p308
aS'w-1=Nazis'
p309
aS'w-1=`'
p310
aS'w-1=a'
p311
aS'w-1=after'
p312
aS'w-1=allegedly'
p313
aS'w-1=also'
p314
aS'w-1=always'
p315
aS'w-1=and'
p316
aS'w-1=be'
p317
aS'w-1=belongings'
p318
aS'w-1=buy'
p319
aS'w-1=by'
p320
aS'w-1=car'
p321
aS'w-1=catch'
p322
aS'w-1=dog'
p323
aS'w-1=even'
p324
aS'w-1=food'
p325
aS'w-1=for'
p326
aS'w-1=from'
p327
aS'w-1=have'
p328
aS'w-1=he'
p329
aS'w-1=in'
p330
aS'w-1=initially'
p331
aS'w-1=just'
p332
aS'w-1=like'
p333
aS'w-1=locate'
p334
aS'w-1=mail'
p335
aS'w-1=not'
p336
aS'w-1=of'
p337
aS'w-1=on'
p338
aS'w-1=or'
p339
aS'w-1=painting'
p340
aS'w-1=property'
p341
aS'w-1=receive'
p342
aS'w-1=routinely'
p343
aS'w-1=still'
p344
aS'w-1=the'
p345
aS'w-1=they'
p346
aS'w-1=thief'
p347
aS'w-1=to'
p348
aS'w-1=use'
p349
aS'w-1=vehicle'
p350
aS'w-1=we'
p351
aS'w-1=who'
p352
aS'w-1=will'
p353
aS'w-1=with'
p354
aS'w-1=you'
p355
aS"w-2=''"
p356
aS'w-2=,'
p357
aS'w-2=.'
p358
aS'w-2=Foundation'
p359
aS'w-2=Grinch'
p360
aS'w-2=Kenya'
p361
aS'w-2=Mr.'
p362
aS'w-2=Mugabe'
p363
aS'w-2=November'
p364
aS'w-2=a'
p365
aS'w-2=abuse'
p366
aS'w-2=accuse'
p367
aS'w-2=adventure'
p368
aS'w-2=after'
p369
aS'w-2=allow'
p370
aS'w-2=and'
p371
aS'w-2=arrest'
p372
aS'w-2=article'
p373
aS'w-2=as'
p374
aS'w-2=attempt'
p375
aS'w-2=bare'
p376
aS'w-2=be'
p377
aS'w-2=because'
p378
aS'w-2=beg'
p379
aS'w-2=box'
p380
aS'w-2=camp'
p381
aS'w-2=can'
p382
aS'w-2=cattle'
p383
aS'w-2=celebration'
p384
aS'w-2=civilian'
p385
aS'w-2=come'
p386
aS'w-2=computer'
p387
aS'w-2=conviction'
p388
aS'w-2=criminal'
p389
aS'w-2=database'
p390
aS'w-2=do'
p391
aS'w-2=election'
p392
aS'w-2=enterprise'
p393
aS'w-2=everything'
p394
aS'w-2=excuse'
p395
aS'w-2=find'
p396
aS'w-2=food'
p397
aS'w-2=for'
p398
aS'w-2=force'
p399
aS'w-2=fund'
p400
aS'w-2=gang'
p401
aS'w-2=have'
p402
aS'w-2=he'
p403
aS'w-2=hijack'
p404
aS'w-2=interest'
p405
aS'w-2=it'
p406
aS'w-2=knowingly'
p407
aS'w-2=likely'
p408
aS'w-2=load'
p409
aS'w-2=looter'
p410
aS'w-2=lose'
p411
aS'w-2=many'
p412
aS'w-2=ministry'
p413
aS'w-2=momentum'
p414
aS'w-2=money'
p415
aS'w-2=not'
p416
aS'w-2=of'
p417
aS'w-2=office'
p418
aS'w-2=official'
p419
aS'w-2=own'
p420
aS'w-2=panel'
p421
aS'w-2=people'
p422
aS'w-2=perhaps'
p423
aS'w-2=powerful'
p424
aS'w-2=return'
p425
aS'w-2=sabotage'
p426
aS'w-2=say'
p427
aS'w-2=seek'
p428
aS'w-2=since'
p429
aS'w-2=something'
p430
aS'w-2=station'
p431
aS'w-2=than'
p432
aS'w-2=that'
p433
aS'w-2=the'
p434
aS'w-2=they'
p435
aS'w-2=track'
p436
aS'w-2=trade'
p437
aS'w-2=trafficking'
p438
aS'w-2=try'
p439
aS'w-2=two'
p440
aS'w-2=villager'
p441
aS'w-2=want'
p442
aS'w-2=we'
p443
aS'w-2=who'
p444
aS'w-2=will'
p445
aS'w-2=worshipper'
p446
aS'xcomp=use'
p447
asS'dtype'
p448
cnumpy
float64
p449
sS'vocabulary_'
p450
(dp451
g296
I287
sg237
I228
sg443
I434
sg422
I413
sg280
I271
sg198
I189
sg392
I383
sg127
I118
sg447
I438
sg372
I363
sg34
I25
sg435
I426
sg429
I420
sg333
I324
sg132
I123
sg60
I51
sg208
I199
sg363
I354
sg165
I156
sg387
I378
sg277
I268
sg298
I289
sg171
I162
sg331
I322
sg86
I77
sg18
I9
sg185
I176
sg353
I344
sg51
I42
sg320
I311
sg126
I117
sg317
I308
sg151
I142
sg254
I245
sg434
I425
sg252
I243
sg43
I34
sg230
I221
sg379
I370
sg125
I116
sg325
I316
sg64
I55
sg340
I331
sg99
I90
sg444
I435
sg251
I242
sg343
I334
sg295
I286
sg211
I202
sg412
I403
sg39
I30
sg413
I404
sg196
I187
sg359
I350
sg160
I151
sg430
I421
sg232
I223
sg193
I184
sg270
I261
sg272
I263
sg189
I180
sg393
I384
sg20
I11
sg205
I196
sg401
I392
sg314
I305
sg25
I16
sg33
I24
sg287
I278
sg194
I185
sg179
I170
sg380
I371
sg355
I346
sg178
I169
sg142
I133
sg113
I104
sg183
I174
sg9
I0
sg433
I424
sg209
I200
sg215
I206
sg13
I4
sg432
I423
sg398
I389
sg243
I234
sg210
I201
sg116
I107
sg156
I147
sg136
I127
sg42
I33
sg292
I283
sg291
I282
sg95
I86
sg91
I82
sg206
I197
sg327
I318
sg203
I194
sg368
I359
sg441
I432
sg344
I335
sg155
I146
sg247
I238
sg67
I58
sg62
I53
sg169
I160
sg45
I36
sg134
I125
sg414
I405
sg112
I103
sg83
I74
sg143
I134
sg294
I285
sg40
I31
sg330
I321
sg172
I163
sg63
I54
sg288
I279
sg82
I73
sg345
I336
sg428
I419
sg349
I340
sg94
I85
sg200
I191
sg38
I29
sg61
I52
sg267
I258
sg290
I281
sg436
I427
sg250
I241
sg299
I290
sg423
I414
sg361
I352
sg240
I231
sg115
I106
sg108
I99
sg417
I408
sg168
I159
sg348
I339
sg58
I49
sg420
I411
sg47
I38
sg391
I382
sg92
I83
sg282
I273
sg245
I236
sg223
I214
sg394
I385
sg181
I172
sg130
I121
sg139
I130
sg157
I148
sg158
I149
sg321
I312
sg184
I175
sg440
I431
sg129
I120
sg419
I410
sg177
I168
sg397
I388
sg213
I204
sg107
I98
sg354
I345
sg23
I14
sg221
I212
sg286
I277
sg65
I56
sg220
I211
sg313
I304
sg362
I353
sg342
I333
sg17
I8
sg30
I21
sg15
I6
sg104
I95
sg262
I253
sg22
I13
sg49
I40
sg81
I72
sg103
I94
sg253
I244
sg381
I372
sg242
I233
sg87
I78
sg241
I232
sg261
I252
sg304
I295
sg306
I297
sg74
I65
sg52
I43
sg216
I207
sg303
I294
sg93
I84
sg370
I361
sg283
I274
sg217
I208
sg356
I347
sg334
I325
sg281
I272
sg21
I12
sg369
I360
sg109
I100
sg35
I26
sg248
I239
sg85
I76
sg316
I307
sg36
I27
sg72
I63
sg71
I62
sg186
I177
sg318
I309
sg121
I112
sg110
I101
sg375
I366
sg96
I87
sg405
I396
sg44
I35
sg100
I91
sg385
I376
sg259
I250
sg278
I269
sg149
I140
sg389
I380
sg162
I153
sg258
I249
sg197
I188
sg173
I164
sg279
I270
sg105
I96
sg119
I110
sg202
I193
sg163
I154
sg16
I7
sg315
I306
sg54
I45
sg421
I412
sg425
I416
sg26
I17
sg29
I20
sg106
I97
sg55
I46
sg301
I292
sg431
I422
sg141
I132
sg32
I23
sg273
I264
sg188
I179
sg406
I397
sg195
I186
sg70
I61
sg154
I145
sg309
I300
sg426
I417
sg236
I227
sg386
I377
sg312
I303
sg214
I205
sg124
I115
sg226
I217
sg56
I47
sg388
I379
sg89
I80
sg150
I141
sg14
I5
sg123
I114
sg367
I358
sg285
I276
sg69
I60
sg10
I1
sg402
I393
sg31
I22
sg159
I150
sg79
I70
sg166
I157
sg332
I323
sg161
I152
sg227
I218
sg390
I381
sg122
I113
sg57
I48
sg111
I102
sg145
I136
sg187
I178
sg90
I81
sg102
I93
sg400
I391
sg275
I266
sg249
I240
sg118
I109
sg114
I105
sg376
I367
sg46
I37
sg396
I387
sg204
I195
sg297
I288
sg415
I406
sg424
I415
sg300
I291
sg404
I395
sg235
I226
sg377
I368
sg289
I280
sg137
I128
sg328
I319
sg383
I374
sg138
I129
sg97
I88
sg246
I237
sg167
I158
sg144
I135
sg170
I161
sg48
I39
sg257
I248
sg41
I32
sg260
I251
sg366
I357
sg219
I210
sg68
I59
sg229
I220
sg338
I329
sg352
I343
sg442
I433
sg339
I330
sg228
I219
sg371
I362
sg256
I247
sg117
I108
sg255
I246
sg11
I2
sg337
I328
sg239
I230
sg12
I3
sg384
I375
sg222
I213
sg101
I92
sg439
I430
sg373
I364
sg212
I203
sg403
I394
sg120
I111
sg269
I260
sg409
I400
sg427
I418
sg302
I293
sg131
I122
sg445
I436
sg357
I348
sg358
I349
sg265
I256
sg308
I299
sg77
I68
sg27
I18
sg164
I155
sg234
I225
sg231
I222
sg78
I69
sg305
I296
sg416
I407
sg182
I173
sg176
I167
sg190
I181
sg268
I259
sg374
I365
sg140
I131
sg66
I57
sg50
I41
sg174
I165
sg263
I254
sg207
I198
sg365
I356
sg346
I337
sg311
I302
sg310
I301
sg347
I338
sg199
I190
sg323
I314
sg98
I89
sg329
I320
sg410
I401
sg73
I64
sg88
I79
sg76
I67
sg180
I171
sg446
I437
sg364
I355
sg322
I313
sg350
I341
sg264
I255
sg128
I119
sg408
I399
sg341
I332
sg324
I315
sg407
I398
sg135
I126
sg201
I192
sg37
I28
sg284
I275
sg395
I386
sg276
I267
sg351
I342
sg28
I19
sg266
I257
sg271
I262
sg293
I284
sg80
I71
sg191
I182
sg146
I137
sg274
I265
sg75
I66
sg326
I317
sg147
I138
sg360
I351
sg148
I139
sg382
I373
sg175
I166
sg307
I298
sg224
I215
sg225
I216
sg133
I124
sg19
I10
sg233
I224
sg238
I229
sg152
I143
sg438
I429
sg218
I209
sg59
I50
sg153
I144
sg336
I327
sg437
I428
sg319
I310
sg244
I235
sg84
I75
sg418
I409
sg378
I369
sg192
I183
sg399
I390
sg24
I15
sg335
I326
sg411
I402
sg53
I44
ssS'separator'
p452
S'='
sS'sparse'
p453
I01
sb.