ccopy_reg
_reconstructor
p1
(csklearn.feature_extraction.dict_vectorizer
DictVectorizer
p2
c__builtin__
object
p3
NtRp4
(dp5
S'sort'
p6
I01
sS'feature_names_'
p7
(lp8
S'advcl=be'
p9
aS'advcl=return'
p10
aS'advcl=suspend'
p11
aS'advmod=absolutely'
p12
aS'advmod=again'
p13
aS'advmod=almost'
p14
aS'advmod=away'
p15
aS'advmod=dearly'
p16
aS'advmod=even'
p17
aS'advmod=how'
p18
aS'advmod=just'
p19
aS'advmod=now'
p20
aS'advmod=overwhelmingly'
p21
aS'advmod=prior'
p22
aS'advmod=simply'
p23
aS'advmod=so'
p24
aS'advmod=then'
p25
aS'advmod=there'
p26
aS'advmod=truly'
p27
aS'advmod=well'
p28
aS'advmod=whenever'
p29
aS'advmod=where'
p30
aS'amod=best'
p31
aS'amod=certain'
p32
aS'amod=last'
p33
aS'amod=long'
p34
aS'amod=strongest'
p35
aS'aux=be'
p36
aS'aux=can'
p37
aS'aux=do'
p38
aS'aux=have'
p39
aS'aux=may'
p40
aS'aux=might'
p41
aS'aux=to'
p42
aS'aux=would'
p43
aS'auxpass=be'
p44
aS'cc=and'
p45
aS'cc=but'
p46
aS'cc=or'
p47
aS'ccomp=american'
p48
aS'ccomp=apologize'
p49
aS'ccomp=be'
p50
aS'ccomp=break'
p51
aS'ccomp=careful'
p52
aS'ccomp=case'
p53
aS'ccomp=choose'
p54
aS'ccomp=come'
p55
aS'ccomp=consult'
p56
aS'ccomp=die'
p57
aS'ccomp=do'
p58
aS'ccomp=eliminate'
p59
aS'ccomp=end'
p60
aS'ccomp=find'
p61
aS'ccomp=get'
p62
aS'ccomp=give'
p63
aS'ccomp=go'
p64
aS'ccomp=have'
p65
aS'ccomp=impact'
p66
aS'ccomp=know'
p67
aS'ccomp=lead'
p68
aS'ccomp=learn'
p69
aS'ccomp=need'
p70
aS'ccomp=option'
p71
aS'ccomp=over'
p72
aS'ccomp=present'
p73
aS'ccomp=provide'
p74
aS'ccomp=put'
p75
aS'ccomp=report'
p76
aS'ccomp=return'
p77
aS'ccomp=scatter'
p78
aS'ccomp=see'
p79
aS'ccomp=seize'
p80
aS'ccomp=shut'
p81
aS'ccomp=sort'
p82
aS'ccomp=stand'
p83
aS'ccomp=stronger'
p84
aS'ccomp=think'
p85
aS'ccomp=use'
p86
aS'ccomp=vote'
p87
aS'ccomp=would'
p88
aS'complm=that'
p89
aS'complm=whether'
p90
aS'conj=aspiration'
p91
aS'conj=believe'
p92
aS'conj=happen'
p93
aS'conj=have'
p94
aS'conj=hope'
p95
aS'conj=kill'
p96
aS'conj=not'
p97
aS'conj=warn'
p98
aS'cop=be'
p99
aS'dep=do'
p100
aS'dep=fact'
p101
aS'dep=further'
p102
aS'dep=if'
p103
aS'dep=return'
p104
aS'dep=say'
p105
aS'dep=that'
p106
aS'dep=whatever'
p107
aS'det=a'
p108
aS'det=no'
p109
aS'det=the'
p110
aS'dobj=#NUMBER#'
p111
aS'dobj=#PRP#'
p112
aS'dobj=Americans'
p113
aS'dobj=Rudd'
p114
aS'dobj=Society'
p115
aS'dobj=ambassador'
p116
aS'dobj=chaos'
p117
aS'dobj=family'
p118
aS'dobj=luck'
p119
aS'dobj=member'
p120
aS'dobj=oic'
p121
aS'dobj=recovery'
p122
aS'dobj=success'
p123
aS'dobj=sympathy'
p124
aS'dobj=tree'
p125
aS'dobj=what'
p126
aS'dobj=whatever'
p127
aS'dobj=which'
p128
aS'infmod=make'
p129
aS'infmod=normalize'
p130
aS'infmod=revive'
p131
aS'iobj=#PRP#'
p132
aS'iobj=all'
p133
aS'mark=as'
p134
aS'mark=because'
p135
aS'mark=if'
p136
aS'mark=while'
p137
aS'neg=not'
p138
aS'nsubj=#NUMBER#'
p139
aS'nsubj=#PRP#'
p140
aS'nsubj=Carter'
p141
aS'nsubj=Committee'
p142
aS'nsubj=Democrats'
p143
aS'nsubj=Hernandez'
p144
aS'nsubj=Iran'
p145
aS'nsubj=Iranians'
p146
aS'nsubj=Malaysia'
p147
aS'nsubj=Muslims'
p148
aS'nsubj=States'
p149
aS'nsubj=attention'
p150
aS'nsubj=believe'
p151
aS'nsubj=everybody'
p152
aS'nsubj=family'
p153
aS'nsubj=ltte'
p154
aS'nsubj=majority'
p155
aS'nsubj=nobody'
p156
aS'nsubj=official'
p157
aS'nsubj=opportunity'
p158
aS'nsubj=peace'
p159
aS'nsubj=people'
p160
aS'nsubj=person'
p161
aS'nsubj=that'
p162
aS'nsubj=which'
p163
aS'nsubj=who'
p164
aS'nsubj=world'
p165
aS'nsubjpass=generation'
p166
aS'parataxis=decide'
p167
aS'poss=#PRP#'
p168
aS'poss=Thompson'
p169
aS'poss=community'
p170
aS'poss=country'
p171
aS'poss=father'
p172
aS'poss=minister'
p173
aS'poss=people'
p174
aS'prep=after'
p175
aS'prep=as'
p176
aS'prep=for'
p177
aS'prep=from'
p178
aS'prep=in'
p179
aS'prep=of'
p180
aS'prep=on'
p181
aS'prep=over'
p182
aS'prep=to'
p183
aS'prep=towards'
p184
aS'prep=with'
p185
aS'w+1=,'
p186
aS'w+1=.'
p187
aS'w+1=:'
p188
aS'w+1=Americans'
p189
aS'w+1=I'
p190
aS'w+1=Mr.'
p191
aS'w+1=all'
p192
aS'w+1=and'
p193
aS'w+1=away'
p194
aS'w+1=be'
p195
aS'w+1=chaos'
p196
aS'w+1=election'
p197
aS'w+1=for'
p198
aS'w+1=from'
p199
aS'w+1=fulfillment'
p200
aS'w+1=he'
p201
aS'w+1=in'
p202
aS'w+1=it'
p203
aS'w+1=list'
p204
aS'w+1=not'
p205
aS'w+1=of'
p206
aS'w+1=on'
p207
aS'w+1=peaceful'
p208
aS'w+1=she'
p209
aS'w+1=somebody'
p210
aS'w+1=someone'
p211
aS'w+1=that'
p212
aS'w+1=the'
p213
aS'w+1=there'
p214
aS'w+1=they'
p215
aS'w+1=this'
p216
aS'w+1=to'
p217
aS'w+1=tree'
p218
aS'w+1=we'
p219
aS'w+1=you'
p220
aS"w+2=''"
p221
aS'w+2=,'
p222
aS'w+2=.'
p223
aS'w+2=Bush'
p224
aS'w+2=Condoleezza'
p225
aS'w+2=Evelyne'
p226
aS'w+2=Kosovo'
p227
aS'w+2=Medvedev'
p228
aS'w+2=Republicans'
p229
aS'w+2=Rudd'
p230
aS'w+2=United'
p231
aS'w+2=Wildlife'
p232
aS'w+2=a'
p233
aS'w+2=achieve'
p234
aS'w+2=administrative'
p235
aS'w+2=adopt'
p236
aS'w+2=african'
p237
aS'w+2=all'
p238
aS'w+2=ambassador'
p239
aS'w+2=and'
p240
aS'w+2=appeal'
p241
aS'w+2=around'
p242
aS'w+2=aspiration'
p243
aS'w+2=assure'
p244
aS'w+2=away'
p245
aS'w+2=be'
p246
aS'w+2=brief'
p247
aS'w+2=build'
p248
aS'w+2=come'
p249
aS'w+2=compete'
p250
aS'w+2=cooperate'
p251
aS'w+2=could'
p252
aS'w+2=discuss'
p253
aS'w+2=do'
p254
aS'w+2=dvd'
p255
aS'w+2=effort'
p256
aS'w+2=enter'
p257
aS'w+2=express'
p258
aS'w+2=family'
p259
aS'w+2=for'
p260
aS'w+2=further'
p261
aS'w+2=give'
p262
aS'w+2=go'
p263
aS'w+2=good'
p264
aS'w+2=hang'
p265
aS'w+2=harm'
p266
aS'w+2=have'
p267
aS'w+2=he'
p268
aS'w+2=honorable'
p269
aS'w+2=how'
p270
aS'w+2=join'
p271
aS'w+2=justify'
p272
aS'w+2=kindly'
p273
aS'w+2=leave'
p274
aS'w+2=live'
p275
aS'w+2=make'
p276
aS'w+2=marry'
p277
aS'w+2=means'
p278
aS'w+2=name'
p279
aS'w+2=not'
p280
aS'w+2=of'
p281
aS'w+2=official'
p282
aS'w+2=oic'
p283
aS'w+2=play'
p284
aS'w+2=politics'
p285
aS'w+2=president'
p286
aS'w+2=put'
p287
aS'w+2=remain'
p288
aS'w+2=renounce'
p289
aS'w+2=resist'
p290
aS'w+2=resolve'
p291
aS'w+2=retaliate'
p292
aS'w+2=return'
p293
aS'w+2=run'
p294
aS'w+2=see'
p295
aS'w+2=some'
p296
aS'w+2=talk'
p297
aS'w+2=thank'
p298
aS'w+2=that'
p299
aS'w+2=the'
p300
aS'w+2=they'
p301
aS'w+2=this'
p302
aS'w+2=to'
p303
aS'w+2=transfer'
p304
aS'w+2=underestimate'
p305
aS'w+2=university'
p306
aS'w+2=use'
p307
aS'w+2=war'
p308
aS'w+2=well'
p309
aS'w+2=work'
p310
aS'w+2=world'
p311
aS'w+2=would'
p312
aS'w+2=you'
p313
aS"w-1=''"
p314
aS"w-1='s"
p315
aS'w-1=,'
p316
aS'w-1=Adrian'
p317
aS'w-1=Bush'
p318
aS'w-1=Carter'
p319
aS'w-1=Committee'
p320
aS'w-1=East'
p321
aS'w-1=Hernandez'
p322
aS'w-1=I'
p323
aS'w-1=Iran'
p324
aS'w-1=Iranians'
p325
aS'w-1=Iraqis'
p326
aS'w-1=Malaysia'
p327
aS'w-1=Muslims'
p328
aS'w-1=Syria'
p329
aS'w-1=a'
p330
aS'w-1=again'
p331
aS'w-1=almost'
p332
aS'w-1=and'
p333
aS'w-1=anyone'
p334
aS'w-1=applicant'
p335
aS'w-1=be'
p336
aS'w-1=best'
p337
aS'w-1=by'
p338
aS'w-1=can'
p339
aS'w-1=candidate'
p340
aS'w-1=certain'
p341
aS'w-1=company'
p342
aS'w-1=dearly'
p343
aS'w-1=family'
p344
aS'w-1=foreigner'
p345
aS'w-1=grant'
p346
aS'w-1=have'
p347
aS'w-1=he'
p348
aS'w-1=just'
p349
aS'w-1=last'
p350
aS'w-1=long'
p351
aS'w-1=may'
p352
aS'w-1=might'
p353
aS'w-1=no'
p354
aS'w-1=not'
p355
aS'w-1=now'
p356
aS'w-1=of'
p357
aS'w-1=official'
p358
aS'w-1=or'
p359
aS'w-1=overwhelmingly'
p360
aS'w-1=peace'
p361
aS'w-1=people'
p362
aS'w-1=person'
p363
aS'w-1=president'
p364
aS'w-1=she'
p365
aS'w-1=simply'
p366
aS'w-1=strongest'
p367
aS'w-1=the'
p368
aS'w-1=they'
p369
aS'w-1=those'
p370
aS'w-1=to'
p371
aS'w-1=truly'
p372
aS'w-1=we'
p373
aS'w-1=who'
p374
aS'w-1=world'
p375
aS'w-1=would'
p376
aS'w-1=you'
p377
aS"w-2=''"
p378
aS"w-2='s"
p379
aS'w-2=,'
p380
aS'w-2=.'
p381
aS'w-2=10'
p382
aS'w-2=18'
p383
aS'w-2=Dennis'
p384
aS'w-2=East'
p385
aS'w-2=I'
p386
aS'w-2=Laura'
p387
aS'w-2=Middle'
p388
aS'w-2=Mr.'
p389
aS'w-2=Nobel'
p390
aS'w-2=Palestinians'
p391
aS'w-2=a'
p392
aS'w-2=about'
p393
aS'w-2=and'
p394
aS'w-2=anybody'
p395
aS'w-2=anyone'
p396
aS'w-2=anything'
p397
aS'w-2=articulate'
p398
aS'w-2=as'
p399
aS'w-2=be'
p400
aS'w-2=bit'
p401
aS'w-2=can'
p402
aS'w-2=citizen'
p403
aS'w-2=community'
p404
aS'w-2=course'
p405
aS'w-2=do'
p406
aS'w-2=else'
p407
aS'w-2=energy'
p408
aS'w-2=entire'
p409
aS'w-2=express'
p410
aS'w-2=extend'
p411
aS'w-2=fact'
p412
aS'w-2=father'
p413
aS'w-2=for'
p414
aS'w-2=foreigner'
p415
aS'w-2=get'
p416
aS'w-2=government'
p417
aS'w-2=have'
p418
aS'w-2=he'
p419
aS'w-2=hear'
p420
aS'w-2=hiv-infected'
p421
aS'w-2=honor'
p422
aS'w-2=house'
p423
aS'w-2=how'
p424
aS'w-2=i.'
p425
aS'w-2=if'
p426
aS'w-2=in'
p427
aS'w-2=iraqi'
p428
aS'w-2=just'
p429
aS'w-2=ltte'
p430
aS'w-2=minister'
p431
aS'w-2=nobody'
p432
aS'w-2=not'
p433
aS'w-2=of'
p434
aS'w-2=oh'
p435
aS'w-2=on'
p436
aS'w-2=opportunity'
p437
aS'w-2=people'
p438
aS'w-2=power'
p439
aS'w-2=premiership'
p440
aS'w-2=present'
p441
aS'w-2=reporter'
p442
aS'w-2=say'
p443
aS'w-2=some'
p444
aS'w-2=spokesman'
p445
aS'w-2=sudanese'
p446
aS'w-2=support'
p447
aS'w-2=that'
p448
aS'w-2=the'
p449
aS'w-2=they'
p450
aS'w-2=this'
p451
aS'w-2=those'
p452
aS'w-2=through'
p453
aS'w-2=to'
p454
aS'w-2=want'
p455
aS'w-2=we'
p456
aS'w-2=week'
p457
aS'w-2=whatever'
p458
aS'w-2=whenever'
p459
aS'w-2=where'
p460
aS'w-2=whether'
p461
aS'w-2=which'
p462
aS'w-2=with'
p463
aS'w-2=woman'
p464
aS'w-2=would'
p465
aS'w-2=write'
p466
aS'w-2=you'
p467
aS'xcomp=Christmas'
p468
aS'xcomp=Easter'
p469
aS'xcomp=Thanksgiving'
p470
aS'xcomp=achieve'
p471
aS'xcomp=adopt'
p472
aS'xcomp=anonymous'
p473
aS'xcomp=appeal'
p474
aS'xcomp=assure'
p475
aS'xcomp=be'
p476
aS'xcomp=best'
p477
aS'xcomp=brief'
p478
aS'xcomp=build'
p479
aS'xcomp=compete'
p480
aS'xcomp=condemn'
p481
aS'xcomp=continue'
p482
aS'xcomp=cooperate'
p483
aS'xcomp=discuss'
p484
aS'xcomp=do'
p485
aS'xcomp=enter'
p486
aS'xcomp=express'
p487
aS'xcomp=give'
p488
aS'xcomp=go'
p489
aS'xcomp=harm'
p490
aS'xcomp=have'
p491
aS'xcomp=identify'
p492
aS'xcomp=join'
p493
aS'xcomp=justify'
p494
aS'xcomp=know'
p495
aS'xcomp=leave'
p496
aS'xcomp=live'
p497
aS'xcomp=make'
p498
aS'xcomp=marry'
p499
aS'xcomp=mission'
p500
aS'xcomp=name'
p501
aS'xcomp=part'
p502
aS'xcomp=play'
p503
aS'xcomp=put'
p504
aS'xcomp=remain'
p505
aS'xcomp=renounce'
p506
aS'xcomp=request'
p507
aS'xcomp=resist'
p508
aS'xcomp=resolve'
p509
aS'xcomp=retaliate'
p510
aS'xcomp=return'
p511
aS'xcomp=run'
p512
aS'xcomp=see'
p513
aS'xcomp=talk'
p514
aS'xcomp=thank'
p515
aS'xcomp=transfer'
p516
aS'xcomp=underestimate'
p517
aS'xcomp=unnamed'
p518
aS'xcomp=use'
p519
aS'xcomp=work'
p520
asS'dtype'
p521
cnumpy
float64
p522
sS'vocabulary_'
p523
(dp524
g25
I16
sg109
I100
sg456
I447
sg175
I166
sg438
I429
sg97
I88
sg69
I60
sg423
I414
sg495
I486
sg28
I19
sg154
I145
sg363
I354
sg519
I510
sg307
I298
sg129
I120
sg340
I331
sg450
I441
sg77
I68
sg266
I257
sg326
I317
sg151
I142
sg212
I203
sg517
I508
sg376
I367
sg66
I57
sg67
I58
sg335
I326
sg61
I52
sg265
I256
sg257
I248
sg24
I15
sg309
I300
sg405
I396
sg19
I10
sg27
I18
sg88
I79
sg208
I199
sg319
I310
sg231
I222
sg40
I31
sg493
I484
sg515
I506
sg338
I329
sg336
I327
sg142
I133
sg324
I315
sg294
I285
sg397
I388
sg439
I430
sg460
I451
sg248
I239
sg229
I220
sg318
I309
sg334
I325
sg440
I431
sg41
I32
sg10
I1
sg206
I197
sg241
I232
sg234
I225
sg303
I294
sg207
I198
sg290
I281
sg458
I449
sg347
I338
sg343
I334
sg156
I147
sg457
I448
sg239
I230
sg64
I55
sg331
I322
sg513
I504
sg466
I457
sg432
I423
sg65
I56
sg37
I28
sg89
I80
sg150
I141
sg236
I227
sg198
I189
sg311
I302
sg377
I368
sg471
I462
sg205
I196
sg479
I470
sg9
I0
sg113
I104
sg448
I439
sg213
I204
sg391
I382
sg442
I433
sg414
I405
sg246
I237
sg215
I206
sg286
I277
sg321
I312
sg131
I122
sg179
I170
sg43
I34
sg403
I394
sg306
I297
sg261
I252
sg183
I174
sg392
I383
sg249
I240
sg141
I132
sg193
I184
sg273
I264
sg270
I261
sg111
I102
sg429
I420
sg344
I335
sg260
I251
sg96
I87
sg317
I308
sg393
I384
sg162
I153
sg53
I44
sg417
I408
sg437
I428
sg128
I119
sg368
I359
sg328
I319
sg80
I71
sg282
I273
sg71
I62
sg136
I127
sg48
I39
sg237
I228
sg298
I289
sg250
I241
sg280
I271
sg30
I21
sg407
I398
sg200
I191
sg132
I123
sg269
I260
sg490
I481
sg383
I374
sg224
I215
sg84
I75
sg382
I373
sg105
I96
sg95
I86
sg110
I101
sg404
I395
sg332
I323
sg453
I444
sg295
I286
sg375
I366
sg75
I66
sg164
I155
sg503
I494
sg434
I425
sg508
I499
sg408
I399
sg436
I427
sg371
I362
sg435
I426
sg346
I337
sg112
I103
sg406
I397
sg509
I500
sg305
I296
sg308
I299
sg220
I211
sg387
I378
sg504
I495
sg102
I93
sg251
I242
sg23
I14
sg63
I54
sg182
I173
sg518
I509
sg201
I192
sg124
I115
sg238
I229
sg235
I226
sg491
I482
sg339
I330
sg22
I13
sg50
I41
sg492
I483
sg415
I406
sg370
I361
sg327
I318
sg497
I488
sg501
I492
sg447
I438
sg177
I168
sg106
I97
sg219
I210
sg34
I25
sg247
I238
sg232
I223
sg472
I463
sg297
I288
sg256
I247
sg29
I20
sg283
I274
sg389
I380
sg293
I284
sg169
I160
sg351
I342
sg275
I266
sg44
I35
sg315
I306
sg252
I243
sg98
I89
sg242
I233
sg204
I195
sg264
I255
sg483
I474
sg51
I42
sg482
I473
sg511
I502
sg101
I92
sg214
I205
sg477
I468
sg139
I130
sg148
I139
sg59
I50
sg144
I135
sg117
I108
sg284
I275
sg360
I351
sg126
I117
sg314
I305
sg520
I511
sg421
I412
sg243
I234
sg362
I353
sg189
I180
sg123
I114
sg287
I278
sg210
I201
sg354
I345
sg505
I496
sg218
I209
sg378
I369
sg496
I487
sg494
I485
sg281
I272
sg481
I472
sg217
I208
sg125
I116
sg459
I450
sg268
I259
sg276
I267
sg445
I436
sg401
I392
sg510
I501
sg94
I85
sg500
I491
sg478
I469
sg54
I45
sg379
I370
sg365
I356
sg107
I98
sg364
I355
sg83
I74
sg372
I363
sg70
I61
sg170
I161
sg122
I113
sg285
I276
sg465
I456
sg87
I78
sg302
I293
sg499
I490
sg320
I311
sg73
I64
sg230
I221
sg462
I453
sg358
I349
sg17
I8
sg26
I17
sg411
I402
sg31
I22
sg60
I51
sg137
I128
sg449
I440
sg18
I9
sg38
I29
sg502
I493
sg388
I379
sg463
I454
sg425
I416
sg227
I218
sg62
I53
sg211
I202
sg149
I140
sg209
I200
sg367
I358
sg35
I26
sg160
I151
sg185
I176
sg47
I38
sg278
I269
sg488
I479
sg100
I91
sg322
I313
sg274
I265
sg428
I419
sg426
I417
sg153
I144
sg165
I156
sg427
I418
sg12
I3
sg254
I245
sg120
I111
sg350
I341
sg152
I143
sg15
I6
sg506
I497
sg93
I84
sg57
I48
sg221
I212
sg161
I152
sg452
I443
sg115
I106
sg143
I134
sg413
I404
sg76
I67
sg464
I455
sg135
I126
sg409
I400
sg272
I263
sg68
I59
sg418
I409
sg174
I165
sg121
I112
sg104
I95
sg373
I364
sg194
I185
sg14
I5
sg82
I73
sg349
I340
sg195
I186
sg277
I268
sg288
I279
sg444
I435
sg296
I287
sg157
I148
sg56
I47
sg202
I193
sg203
I194
sg366
I357
sg140
I131
sg263
I254
sg81
I72
sg259
I250
sg468
I459
sg46
I37
sg86
I77
sg168
I159
sg172
I163
sg498
I489
sg329
I320
sg116
I107
sg342
I333
sg158
I149
sg118
I109
sg173
I164
sg103
I94
sg13
I4
sg395
I386
sg476
I467
sg353
I344
sg400
I391
sg180
I171
sg16
I7
sg181
I172
sg341
I332
sg325
I316
sg155
I146
sg114
I105
sg163
I154
sg301
I292
sg184
I175
sg486
I477
sg119
I110
sg469
I460
sg192
I183
sg72
I63
sg422
I413
sg228
I219
sg299
I290
sg396
I387
sg484
I475
sg223
I214
sg74
I65
sg374
I365
sg416
I407
sg455
I446
sg359
I350
sg512
I503
sg516
I507
sg253
I244
sg357
I348
sg454
I445
sg240
I231
sg394
I385
sg487
I478
sg410
I401
sg255
I246
sg216
I207
sg78
I69
sg419
I410
sg430
I421
sg127
I118
sg291
I282
sg431
I422
sg271
I262
sg20
I11
sg92
I83
sg443
I434
sg489
I480
sg300
I291
sg49
I40
sg176
I167
sg380
I371
sg381
I372
sg333
I324
sg39
I30
sg11
I2
sg190
I181
sg316
I307
sg433
I424
sg258
I249
sg446
I437
sg386
I377
sg473
I464
sg412
I403
sg399
I390
sg424
I415
sg384
I375
sg21
I12
sg146
I137
sg99
I90
sg323
I314
sg313
I304
sg159
I150
sg33
I24
sg470
I461
sg369
I360
sg441
I432
sg108
I99
sg330
I321
sg337
I328
sg133
I124
sg304
I295
sg310
I301
sg134
I125
sg348
I339
sg244
I235
sg398
I389
sg85
I76
sg199
I190
sg196
I187
sg461
I452
sg90
I81
sg474
I465
sg262
I253
sg147
I138
sg91
I82
sg292
I283
sg58
I49
sg289
I280
sg267
I258
sg171
I162
sg345
I336
sg226
I217
sg420
I411
sg480
I471
sg451
I442
sg514
I505
sg361
I352
sg178
I169
sg45
I36
sg52
I43
sg130
I121
sg42
I33
sg467
I458
sg312
I303
sg167
I158
sg279
I270
sg507
I498
sg145
I136
sg186
I177
sg187
I178
sg402
I393
sg197
I188
sg222
I213
sg188
I179
sg138
I129
sg385
I376
sg475
I466
sg225
I216
sg191
I182
sg55
I46
sg356
I347
sg355
I346
sg245
I236
sg390
I381
sg485
I476
sg352
I343
sg79
I70
sg36
I27
sg32
I23
sg166
I157
sg233
I224
ssS'separator'
p525
S'='
sS'sparse'
p526
I01
sb.