ccopy_reg
_reconstructor
p1
(csklearn.feature_extraction.dict_vectorizer
DictVectorizer
p2
c__builtin__
object
p3
NtRp4
(dp5
S'vocabulary_'
p6
(dp7
S'w+2=soldier'
p8
I114
sS'w-2=billion'
p9
I156
sS'w+1=mining'
p10
I71
sS'w-1=of'
p11
I136
sS'xcomp=match'
p12
I188
sS'w+1=,'
p13
I56
sS'nn=defense'
p14
I38
sS'w+1=local'
p15
I69
sS'amod=potential'
p16
I5
sS'w-1=consider'
p17
I127
sS'dobj=system'
p18
I35
sS'dobj=port'
p19
I31
sS'det=the'
p20
I20
sS'w-1=infrastructure'
p21
I133
sS'w+2=North'
p22
I86
sS'w+2=loyal'
p23
I102
sS'nsubjpass=airport'
p24
I45
sS'prep=include'
p25
I52
sS'w-1=or'
p26
I138
sS'w+1=diplomatic'
p27
I63
sS'w+2=sanitation'
p28
I110
sS'w+2=this'
p29
I117
sS'w+2=match'
p30
I103
sS'w-2=of'
p31
I175
sS'w+2=Britain'
p32
I85
sS'w+2=old'
p33
I106
sS'w-2=on'
p34
I176
sS'w-1=to'
p35
I145
sS'w-2=deploy'
p36
I163
sS'w-2=to'
p37
I183
sS'w+2=and'
p38
I92
sS'w-2=and'
p39
I153
sS'w-1=,'
p40
I120
sS'dobj=airport'
p41
I22
sS'w-1=visit'
p42
I146
sS'dobj=quality'
p43
I32
sS'w-2=do'
p44
I164
sS'w+2=America'
p45
I84
sS'w-2=contend'
p46
I161
sS'w-1=say'
p47
I141
sS'w+1=you'
p48
I81
sS'xcomp=loyal'
p49
I187
sS'dobj=facility'
p50
I25
sS'dobj=network'
p51
I29
sS'dobj=level'
p52
I28
sS'w-1=military'
p53
I134
sS'nn=security'
p54
I41
sS'w-2=also'
p55
I152
sS'w+2=level'
p56
I101
sS'w-2=dollar'
p57
I165
sS'dobj=defens'
p58
I24
sS'w+2=access'
p59
I89
sS'dobj=skill'
p60
I34
sS'w-2=will'
p61
I185
sS'w-1=against'
p62
I122
sS'w-2=,'
p63
I147
sS'w-1=and'
p64
I123
sS'w+1=Darfur'
p65
I59
sS'w+2=force'
p66
I99
sS'nn=infrastructure'
p67
I39
sS'nn=room'
p68
I40
sS'aux=have'
p69
I9
sS'w-1=by'
p70
I126
sS'w-1=be'
p71
I124
sS'dobj=force'
p72
I26
sS'conj=build'
p73
I16
sS'w-2=not'
p74
I174
sS'w-2=the'
p75
I181
sS'dobj=rating'
p76
I33
sS'dobj=organization'
p77
I30
sS'dobj=infrastructure'
p78
I27
sS'nsubjpass=infrastructure'
p79
I47
sS'w-2=air'
p80
I151
sS'w-1=fancy'
p81
I130
sS'amod=technological'
p82
I6
sS'w-1=room'
p83
I140
sS'w-2=Congo'
p84
I148
sS'w+2=quality'
p85
I109
sS'w-1=security'
p86
I142
sS'w+1=force'
p87
I65
sS'w+2=tie'
p88
I118
sS'w+1=could'
p89
I62
sS'w+2=country'
p90
I95
sS'w+1=of'
p91
I74
sS'w+1=Britain'
p92
I58
sS'xcomp=reflect'
p93
I189
sS'w+2=skill'
p94
I113
sS'aux=must'
p95
I10
sS'w-2=a'
p96
I150
sS'w-2=expert'
p97
I166
sS'prep=for'
p98
I50
sS'det=a'
p99
I19
sS'aux=do'
p100
I8
sS'w-1=a'
p101
I121
sS'w+2=Poland'
p102
I87
sS'w+2=clinic'
p103
I93
sS'nsubj=city'
p104
I43
sS"w+2=''"
p105
I82
sS'nsubj=country'
p106
I44
sS'w-2=help'
p107
I170
sS'w+2=security'
p108
I111
sS'advmod=also'
p109
I1
sS'w-2=russian'
p110
I180
sS'w-2=hotel'
p111
I171
sS'nsubj=Congo'
p112
I42
sS'w-2=invest'
p113
I172
sS'w-2=city'
p114
I159
sS'auxpass=be'
p115
I12
sS'prep=around'
p116
I49
sS'w+1=nuclear'
p117
I73
sS'w+2=they'
p118
I116
sS'dep=relationship'
p119
I18
sS'w-1=behind'
p120
I125
sS'w-2=have'
p121
I169
sS'cc=and'
p122
I13
sS'advcl=be'
p123
I0
sS'w-1=despite'
p124
I129
sS'w+1=the'
p125
I77
sS'w-1=not'
p126
I135
sS'w-2=for'
p127
I167
sS'w-2=must'
p128
I173
sS'cc=but'
p129
I14
sS'w+1=they'
p130
I78
sS'w-1=defense'
p131
I128
sS'w+2=cost'
p132
I94
sS"w+2='s"
p133
I83
sS'w-1=technological'
p134
I143
sS'w+2=plan'
p135
I107
sS'w-2=relief'
p136
I179
sS'w+1=if'
p137
I66
sS'prep=in'
p138
I51
sS'w+1=medical'
p139
I70
sS'w+1=transportation'
p140
I80
sS'w+1=its'
p141
I68
sS'w+1=for'
p142
I64
sS'w+2=U.S.'
p143
I88
sS'w-2=be'
p144
I155
sS'w+2=infrastructure'
p145
I100
sS"w-1=''"
p146
I119
sS'w+2=port'
p147
I108
sS'w+1=Nigeria'
p148
I60
sS'w-2=those'
p149
I182
sS'w+1=internet'
p150
I67
sS"w+1=''"
p151
I55
sS'w-2=promise'
p152
I178
sS'prep=to'
p153
I54
sS'w+2=air'
p154
I90
sS'w+2=airport'
p155
I91
sS'aux=to'
p156
I11
sS'w-2=decide'
p157
I162
sS'w+1=social'
p158
I76
sS'xcomp=exist'
p159
I186
sS'w-1=help'
p160
I131
sS'w+1=and'
p161
I61
sS'dobj=access'
p162
I21
sS'w-2=company'
p163
I160
sS'nsubjpass=dam'
p164
I46
sS'w+1=.'
p165
I57
sS'w-2=can'
p166
I158
sS'nsubjpass=military'
p167
I48
sS'w+1=to'
p168
I79
sS'w-2=around'
p169
I154
sS'neg=not'
p170
I37
sS'conj=provide'
p171
I17
sS'advmod=on'
p172
I2
sS'w+2=network'
p173
I105
sS'w-2=well'
p174
I184
sS'w-2=form'
p175
I168
sS'dobj=clinic'
p176
I23
sS'w+2=defense'
p177
I96
sS'w-2=poverty'
p178
I177
sS'w-1=in'
p179
I132
sS'w+2=service'
p180
I112
sS'w+1=missile'
p181
I72
sS'w-1=potential'
p182
I139
sS'w+2=spend'
p183
I115
sS'w-1=ongoing'
p184
I137
sS'prep=of'
p185
I53
sS'conj=be'
p186
I15
sS'w+2=exist'
p187
I97
sS'w-1=the'
p188
I144
sS'w+2=missile'
p189
I104
sS'aux=be'
p190
I7
sS'w-2=Dayton'
p191
I149
sS'mark=if'
p192
I36
sS'w-2=building'
p193
I157
sS'amod=ongoing'
p194
I4
sS'w+2=five'
p195
I98
sS'w+1=road'
p196
I75
sS'amod=fancy'
p197
I3
ssS'dtype'
p198
cnumpy
float64
p199
sS'feature_names_'
p200
(lp201
g123
ag109
ag172
ag197
ag194
ag16
ag82
ag190
ag100
ag69
ag95
ag156
ag115
ag122
ag129
ag186
ag73
ag171
ag119
ag99
ag20
ag162
ag41
ag176
ag58
ag50
ag72
ag78
ag52
ag51
ag77
ag19
ag43
ag76
ag60
ag18
ag192
ag170
ag14
ag67
ag68
ag54
ag112
ag104
ag106
ag24
ag164
ag79
ag167
ag116
ag98
ag138
ag25
ag185
ag153
ag151
ag13
ag165
ag92
ag65
ag148
ag161
ag89
ag27
ag142
ag87
ag137
ag150
ag141
ag15
ag139
ag10
ag181
ag117
ag91
ag196
ag158
ag125
ag130
ag168
ag140
ag48
ag105
ag133
ag45
ag32
ag22
ag102
ag143
ag59
ag154
ag155
ag38
ag103
ag132
ag90
ag177
ag187
ag195
ag66
ag145
ag56
ag23
ag30
ag189
ag173
ag33
ag135
ag147
ag85
ag28
ag108
ag180
ag94
ag8
ag183
ag118
ag29
ag88
ag146
ag40
ag101
ag62
ag64
ag71
ag120
ag70
ag17
ag131
ag124
ag81
ag160
ag179
ag21
ag53
ag126
ag11
ag184
ag26
ag182
ag83
ag47
ag86
ag134
ag188
ag35
ag42
ag63
ag84
ag191
ag96
ag80
ag55
ag39
ag169
ag144
ag9
ag193
ag166
ag114
ag163
ag46
ag157
ag36
ag44
ag57
ag97
ag127
ag175
ag121
ag107
ag111
ag113
ag128
ag74
ag31
ag34
ag178
ag152
ag136
ag110
ag75
ag149
ag37
ag174
ag61
ag159
ag49
ag12
ag93
asS'separator'
p202
S'='
sS'sparse'
p203
I01
sb.