ccopy_reg
_reconstructor
p1
(csklearn.feature_extraction.dict_vectorizer
DictVectorizer
p2
c__builtin__
object
p3
NtRp4
(dp5
S'sort'
p6
I01
sS'feature_names_'
p7
(lp8
S'advcl=arrive'
p9
aS'advcl=give'
p10
aS'advcl=use'
p11
aS'advcl=want'
p12
aS'advmod=recently'
p13
aS'aux=could'
p14
aS'aux=have'
p15
aS'aux=may'
p16
aS'aux=might'
p17
aS'aux=should'
p18
aS'aux=to'
p19
aS'aux=will'
p20
aS'auxpass=be'
p21
aS'cc=and'
p22
aS'cc=but'
p23
aS'ccomp=forget'
p24
aS'complm=that'
p25
aS'complm=whether'
p26
aS'conj=consider'
p27
aS'conj=forget'
p28
aS'conj=move'
p29
aS'conj=say'
p30
aS'dep=do'
p31
aS'dep=look'
p32
aS'dep=say'
p33
aS'dep=torture'
p34
aS'dobj=#NUMBER#'
p35
aS'dobj=#PRP#'
p36
aS'dobj=$'
p37
aS'dobj=Olmert'
p38
aS'dobj=Suharto'
p39
aS'dobj=Vlok'
p40
aS'dobj=anyone'
p41
aS'dobj=debt'
p42
aS'dobj=killer'
p43
aS'dobj=leader'
p44
aS'dobj=mistake'
p45
aS'dobj=nothing'
p46
aS'dobj=other'
p47
aS'dobj=those'
p48
aS'dobj=violation'
p49
aS'mark=if'
p50
aS'neg=never'
p51
aS'neg=not'
p52
aS'nsubj=#PRP#'
p53
aS'nsubj=Chikane'
p54
aS'nsubj=God'
p55
aS'nsubj=colleague'
p56
aS'nsubj=people'
p57
aS'nsubj=public'
p58
aS'nsubjpass=#PRP#'
p59
aS'nsubjpass=angel'
p60
aS'nsubjpass=last'
p61
aS'nsubjpass=nation'
p62
aS'nsubjpass=patient'
p63
aS'nsubjpass=visitor'
p64
aS'nsubjpass=which'
p65
aS'parataxis=say'
p66
aS'prep=by'
p67
aS'prep=for'
p68
aS'prep=include'
p69
aS'prep=on'
p70
aS'tmod=year'
p71
aS'w+1=,'
p72
aS'w+1=-'
p73
aS'w+1=I'
p74
aS'w+1=Mr.'
p75
aS'w+1=Vlok'
p76
aS'w+1=and'
p77
aS'w+1=anyone'
p78
aS'w+1=be'
p79
aS'w+1=but'
p80
aS'w+1=by'
p81
aS'w+1=debt'
p82
aS'w+1=each'
p83
aS'w+1=for'
p84
aS'w+1=he'
p85
aS'w+1=if'
p86
aS'w+1=its'
p87
aS'w+1=more'
p88
aS'w+1=nothing'
p89
aS'w+1=one'
p90
aS'w+1=she'
p91
aS'w+1=the'
p92
aS'w+1=those'
p93
aS'w+1=torture'
p94
aS'w+1=unless'
p95
aS"w+2=''"
p96
aS'w+2=,'
p97
aS'w+2=.'
p98
aS'w+2=God'
p99
aS'w+2=Hamas'
p100
aS'w+2=I'
p101
aS'w+2=Olmert'
p102
aS'w+2=Suharto'
p103
aS'w+2=accountable'
p104
aS'w+2=after'
p105
aS'w+2=and'
p106
aS'w+2=another'
p107
aS'w+2=because'
p108
aS'w+2=but'
p109
aS'w+2=compare'
p110
aS'w+2=country'
p111
aS'w+2=debt'
p112
aS'w+2=demand'
p113
aS'w+2=killer'
p114
aS'w+2=leader'
p115
aS'w+2=let'
p116
aS'w+2=meet'
p117
aS'w+2=mistake'
p118
aS'w+2=move'
p119
aS'w+2=other'
p120
aS'w+2=so'
p121
aS'w+2=than'
p122
aS'w+2=we'
p123
aS'w+2=who'
p124
aS'w+2=wonder'
p125
aS'w-1=Chikane'
p126
aS'w-1=and'
p127
aS'w-1=be'
p128
aS'w-1=forgivenessand'
p129
aS'w-1=may'
p130
aS'w-1=never'
p131
aS'w-1=people'
p132
aS'w-1=recently'
p133
aS'w-1=should'
p134
aS'w-1=to'
p135
aS'w-1=we'
p136
aS'w-1=will'
p137
aS'w-1=year'
p138
aS'w-1=you'
p139
aS"w-2=''"
p140
aS'w-2=,'
p141
aS'w-2=.'
p142
aS'w-2=God'
p143
aS'w-2=be'
p144
aS'w-2=better'
p145
aS'w-2=but'
p146
aS'w-2=could'
p147
aS'w-2=countryman'
p148
aS'w-2=forget'
p149
aS'w-2=go'
p150
aS'w-2=hard'
p151
aS'w-2=have'
p152
aS'w-2=heart'
p153
aS'w-2=hope'
p154
aS'w-2=if'
p155
aS'w-2=invent'
p156
aS'w-2=last'
p157
aS'w-2=may'
p158
aS'w-2=might'
p159
aS'w-2=neighbor'
p160
aS'w-2=not'
p161
aS'w-2=public'
p162
aS'w-2=quick'
p163
aS'w-2=ready'
p164
aS'w-2=rwandan'
p165
aS'w-2=to'
p166
aS'w-2=understand'
p167
aS'w-2=we'
p168
aS'w-2=will'
p169
aS'w-2=willing'
p170
aS'xcomp=Lucifer'
p171
asS'dtype'
p172
cnumpy
float64
p173
sS'vocabulary_'
p174
(dp175
g165
I156
sg131
I122
sg73
I64
sg49
I40
sg159
I150
sg15
I6
sg37
I28
sg168
I159
sg13
I4
sg33
I24
sg150
I141
sg122
I113
sg151
I142
sg109
I100
sg69
I60
sg64
I55
sg48
I39
sg103
I94
sg59
I50
sg147
I138
sg61
I52
sg135
I126
sg67
I58
sg106
I97
sg171
I162
sg36
I27
sg134
I125
sg30
I21
sg102
I93
sg54
I45
sg113
I104
sg82
I73
sg27
I18
sg162
I153
sg46
I37
sg156
I147
sg20
I11
sg31
I22
sg169
I160
sg100
I91
sg137
I128
sg141
I132
sg107
I98
sg57
I48
sg115
I106
sg112
I103
sg85
I76
sg47
I38
sg16
I7
sg32
I23
sg146
I137
sg89
I80
sg128
I119
sg161
I152
sg28
I19
sg155
I146
sg91
I82
sg117
I108
sg133
I124
sg108
I99
sg158
I149
sg17
I8
sg111
I102
sg25
I16
sg118
I109
sg121
I112
sg164
I155
sg90
I81
sg68
I59
sg95
I86
sg170
I161
sg65
I56
sg34
I25
sg96
I87
sg12
I3
sg44
I35
sg83
I74
sg154
I145
sg66
I57
sg99
I90
sg124
I115
sg41
I32
sg10
I1
sg51
I42
sg21
I12
sg129
I120
sg58
I49
sg26
I17
sg88
I79
sg40
I31
sg105
I96
sg157
I148
sg139
I130
sg166
I157
sg152
I143
sg56
I47
sg22
I13
sg18
I9
sg145
I136
sg38
I29
sg9
I0
sg92
I83
sg78
I69
sg81
I72
sg79
I70
sg19
I10
sg93
I84
sg148
I139
sg29
I20
sg86
I77
sg45
I36
sg163
I154
sg42
I33
sg87
I78
sg84
I75
sg71
I62
sg63
I54
sg94
I85
sg53
I44
sg119
I110
sg153
I144
sg39
I30
sg120
I111
sg24
I15
sg104
I95
sg116
I107
sg55
I46
sg136
I127
sg23
I14
sg132
I123
sg62
I53
sg35
I26
sg77
I68
sg149
I140
sg125
I116
sg14
I5
sg140
I131
sg143
I134
sg72
I63
sg98
I89
sg97
I88
sg52
I43
sg76
I67
sg127
I118
sg74
I65
sg43
I34
sg142
I133
sg75
I66
sg101
I92
sg114
I105
sg123
I114
sg138
I129
sg11
I2
sg144
I135
sg167
I158
sg80
I71
sg160
I151
sg130
I121
sg126
I117
sg70
I61
sg110
I101
sg50
I41
sg60
I51
ssS'separator'
p176
S'='
sS'sparse'
p177
I01
sb.