ccopy_reg
_reconstructor
p1
(csklearn.feature_extraction.dict_vectorizer
DictVectorizer
p2
c__builtin__
object
p3
NtRp4
(dp5
S'vocabulary_'
p6
(dp7
S'w-2=dependence'
p8
I306
sS'advmod=certainly'
p9
I2
sS'w+2=problem'
p10
I218
sS'w-2=Muslims'
p11
I292
sS'w+2=health'
p12
I195
sS'dobj=much'
p13
I66
sS'nsubj=child'
p14
I87
sS'w-2=mean'
p15
I328
sS'mark=like'
p16
I78
sS'w+2=but'
p17
I186
sS'w-1=constant'
p18
I249
sS'w+2=entail'
p19
I190
sS'amod=senegal'
p20
I22
sS'w-2=need'
p21
I330
sS'w-2=they'
p22
I348
sS'w+2=british'
p23
I185
sS'w+1=that'
p24
I160
sS'conj=perseverance'
p25
I41
sS'w+1=than'
p26
I159
sS'nsubj=Muslims'
p27
I86
sS'w-2=from'
p28
I313
sS'w+1=too'
p29
I165
sS'w-2=we'
p30
I354
sS'w-1=mean'
p31
I261
sS'w-1=will'
p32
I284
sS'w+2=pilgrimage'
p33
I213
sS'poss=army'
p34
I97
sS'w+2=son'
p35
I223
sS'w-1=be'
p36
I248
sS'advmod=eventually'
p37
I4
sS'w-2=coerce'
p38
I303
sS'w+2=speech'
p39
I224
sS'w-2=investment'
p40
I322
sS'w-2=the'
p41
I347
sS'w+1=job'
p42
I143
sS'w+2=blood'
p43
I183
sS'w+1=just'
p44
I144
sS'mark=because'
p45
I77
sS'w+2=country'
p46
I188
sS'w+1=of'
p47
I153
sS'w+2=to'
p48
I230
sS'w+1=on'
p49
I154
sS'w+1=himself'
p50
I140
sS'w-1=some'
p51
I271
sS'w+2=my'
p52
I204
sS'w-1=have'
p53
I255
sS'ccomp=say'
p54
I36
sS'w-2=courage'
p55
I305
sS'w+1=United'
p56
I123
sS'w-2=fasting'
p57
I310
sS'w+2=who'
p58
I235
sS'w-2=ram'
p59
I335
sS'w+2=Nations'
p60
I174
sS'w-1=senegal'
p61
I269
sS'w-1=also'
p62
I245
sS'aux=can'
p63
I27
sS'complm=that'
p64
I37
sS'dobj=blood'
p65
I55
sS'poss=son'
p66
I98
sS'w+2=will'
p67
I236
sS'xcomp=achieve'
p68
I362
sS'w-1=whose'
p69
I283
sS'dobj=content'
p70
I57
sS'w-2=that'
p71
I346
sS'w-1=where'
p72
I281
sS'w-2=merit'
p73
I329
sS'amod=tough'
p74
I24
sS'w-2=for'
p75
I311
sS'amod=ultimate'
p76
I25
sS'xcomp=avoid'
p77
I364
sS'w+1=they'
p78
I163
sS'w-1=already'
p79
I244
sS'w+2=animal'
p80
I179
sS'prep=in'
p81
I105
sS'w+2=short-term'
p82
I221
sS'w+1=for'
p83
I134
sS'w-2=biblical'
p84
I301
sS'w-2=riverbank'
p85
I339
sS'amod=terrible'
p86
I23
sS'w+1=and'
p87
I125
sS'amod=painful'
p88
I20
sS'w-2=forget'
p89
I312
sS'w-1=american'
p90
I246
sS'dobj=lamb'
p91
I63
sS'w+2=perseverance'
p92
I212
sS'w+2=for'
p93
I192
sS'w+1=other'
p94
I155
sS'w-2=about'
p95
I293
sS'nsubj=that'
p96
I89
sS'w-2=willing'
p97
I357
sS'w+2=white'
p98
I234
sS'det=this'
p99
I52
sS'w+2=we'
p100
I232
sS'w+2=bring'
p101
I184
sS'w+2=sheep'
p102
I220
sS'w-1=the'
p103
I274
sS'amod=incredible'
p104
I17
sS'w-2=seek'
p105
I341
sS'w-1=hard'
p106
I254
sS'partmod=lead'
p107
I94
sS'w-1=personal'
p108
I268
sS'w+2=now'
p109
I208
sS'w+2=not'
p110
I207
sS'dobj=growth'
p111
I60
sS'advmod=where'
p112
I9
sS'w+2=lot'
p113
I201
sS'amod=american'
p114
I10
sS'w+2=Afghanistan'
p115
I172
sS'w+1=Europe'
p116
I122
sS'w-2=Abraham'
p117
I288
sS'conj=sacrifice'
p118
I43
sS'w-2=functionality'
p119
I314
sS'det=the'
p120
I51
sS'nsubj=troops'
p121
I91
sS'rel=for'
p122
I117
sS'w+2=kill'
p123
I197
sS'w-2=or'
p124
I332
sS'nsubj=who'
p125
I92
sS'w-2=of'
p126
I331
sS'w-1=to'
p127
I277
sS'advmod=instead'
p128
I5
sS'dobj=#PRP#'
p129
I53
sS'w-2=do'
p130
I307
sS'w-2=Museum'
p131
I291
sS'xcomp=put'
p132
I368
sS'w+1=as'
p133
I126
sS'w+1=at'
p134
I127
sS'ccomp=operation'
p135
I35
sS'w+1=he'
p136
I139
sS'w-2=army'
p137
I296
sS'w+1=instead'
p138
I141
sS'w+1=themselves'
p139
I162
sS'w-2=unselfishness'
p140
I353
sS'w-1=less'
p141
I260
sS'nsubjpass=that'
p142
I93
sS'w+1=make'
p143
I147
sS'conj=prayer'
p144
I42
sS'det=some'
p145
I50
sS'w-2=continue'
p146
I304
sS'w-1=more'
p147
I262
sS'w-2=ready'
p148
I336
sS'rcmod=take'
p149
I115
sS'w-1=throw'
p150
I276
sS'prep=for'
p151
I103
sS'w+1=we'
p152
I166
sS'dobj=tradition'
p153
I73
sS'amod=personal'
p154
I21
sS'dobj=son'
p155
I70
sS'w+2=as'
p156
I181
sS'auxpass=be'
p157
I31
sS'w-1=incredible'
p158
I258
sS'rcmod=prepare'
p159
I113
sS"w-1='s"
p160
I239
sS'nn=sheep'
p161
I81
sS'amod=constant'
p162
I12
sS'dobj=deal'
p163
I58
sS'advmod=much'
p164
I6
sS'nsubj=#NUMBER#'
p165
I82
sS'w+2=you'
p166
I238
sS'prep=of'
p167
I106
sS'w+2=try'
p168
I231
sS'conj=confront'
p169
I38
sS'w+2=play'
p170
I214
sS'dobj=what'
p171
I75
sS'w-2=those'
p172
I350
sS'w+1=my'
p173
I151
sS'w-2=Iraqis'
p174
I290
sS'dobj=lot'
p175
I65
sS'conj=part'
p176
I40
sS'w-2=himself'
p177
I318
sS'w-1=enormous'
p178
I250
sS"w-2=''"
p179
I286
sS'preconj=either'
p180
I100
sS'w+2=of'
p181
I209
sS'w+2=yet'
p182
I237
sS'w+2=on'
p183
I210
sS'w+1=to'
p184
I164
sS'xcomp=appease'
p185
I363
sS'w-1=and'
p186
I247
sS'w+2=make'
p187
I202
sS'w+1=so'
p188
I158
sS'dep=at'
p189
I46
sS'w+1=lie'
p190
I146
sS'xcomp=prop'
p191
I366
sS'w+2=stability'
p192
I225
sS'w-1=heroic'
p193
I257
sS'w+1=ease'
p194
I132
sS'w-1=sheep'
p195
I270
sS'nsubj=Abraham'
p196
I84
sS'w-1=never'
p197
I263
sS'rcmod=have'
p198
I110
sS'dobj=speech'
p199
I71
sS'w+2=necessary'
p200
I205
sS'w-2=work'
p201
I359
sS'w-2=entail'
p202
I309
sS'advmod=often'
p203
I8
sS'w-2=would'
p204
I360
sS'w+2=much'
p205
I203
sS'rcmod=entail'
p206
I109
sS'w+2=those'
p207
I229
sS'w+2=economic'
p208
I189
sS'w+1=mount'
p209
I149
sS'w+2=well-being'
p210
I233
sS'dep=kill'
p211
I48
sS'w+2=protect'
p212
I219
sS'advmod=even'
p213
I3
sS'dobj=job'
p214
I62
sS'xcomp=protect'
p215
I367
sS'aux=will'
p216
I30
sS'advmod=already'
p217
I0
sS'expl=there'
p218
I76
sS'nsubj=people'
p219
I88
sS'cc=or'
p220
I34
sS'w-2=troops'
p221
I352
sS'w+1=big'
p222
I129
sS'w-2=avoid'
p223
I299
sS'w-2=in'
p224
I321
sS'w-2=either'
p225
I308
sS'dobj=problem'
p226
I68
sS'w-2=service'
p227
I342
sS'w-2=risk'
p228
I338
sS'w-1=offer'
p229
I265
sS'dobj=competitiveness'
p230
I56
sS'w-1=painful'
p231
I267
sS'w-2=recognize'
p232
I337
sS"w+2=''"
p233
I168
sS'amod=enormous'
p234
I13
sS'w+1=global'
p235
I137
sS'w+1=necessary'
p236
I152
sS'w-2=heroism'
p237
I317
sS'w-2=invoke'
p238
I323
sS'w-2=woman'
p239
I358
sS'dobj=life'
p240
I64
sS'w+1=even'
p241
I133
sS'w+2=essential'
p242
I191
sS'w+2=need'
p243
I206
sS'w-2=have'
p244
I316
sS'cc=and'
p245
I32
sS'w+2=content'
p246
I187
sS'conj=those'
p247
I44
sS'w+1=by'
p248
I130
sS'rcmod=require'
p249
I114
sS'w+1=be'
p250
I128
sS'amod=further'
p251
I14
sS'w-2=sheep'
p252
I343
sS"w+2='s"
p253
I169
sS'w+1=free'
p254
I135
sS'w+2=some'
p255
I222
sS'w+1=it'
p256
I142
sS'nsubj=#PRP#'
p257
I83
sS"w+1=''"
p258
I118
sS'cc=but'
p259
I33
sS'poss=#PRP#'
p260
I96
sS'w-1=ultimate'
p261
I279
sS'w-2=suffer'
p262
I345
sS'w-1=without'
p263
I285
sS'nsubj=thing'
p264
I90
sS'w-2=like'
p265
I324
sS'poss=whose'
p266
I99
sS'w+1=lead'
p267
I145
sS'w-1=into'
p268
I259
sS'w-2=be'
p269
I300
sS'w-2=what'
p270
I355
sS'rcmod=need'
p271
I112
sS'w-1=further'
p272
I253
sS'w-2=prayer'
p273
I333
sS'prep=on'
p274
I107
sS'dep=both'
p275
I47
sS'dobj=stability'
p276
I72
sS'dobj=security'
p277
I69
sS'w+2=justice'
p278
I196
sS'w+2=great'
p279
I193
sS'w-1=eventually'
p280
I251
sS'w+2=pride'
p281
I217
sS'w-2=honor'
p282
I319
sS'rel=during'
p283
I116
sS'w-2=hard'
p284
I315
sS'w+2=that'
p285
I226
sS'amod=more'
p286
I19
sS'amod=lot'
p287
I18
sS'w-2=can'
p288
I302
sS'nsubj=Americans'
p289
I85
sS'w-1=who'
p290
I282
sS'partmod=need'
p291
I95
sS'conj=depend'
p292
I39
sS'w-2=to'
p293
I351
sS'w+2=and'
p294
I178
sS'w-2=and'
p295
I294
sS'neg=not'
p296
I80
sS'rcmod=make'
p297
I111
sS'advmod=also'
p298
I1
sS'cop=be'
p299
I45
sS'w+1=protect'
p300
I157
sS'w+1=more'
p301
I148
sS'advmod=now'
p302
I7
sS'w-2=say'
p303
I340
sS'w+2=lay'
p304
I199
sS'w+2=the'
p305
I227
sS'prep=at'
p306
I102
sS'w-2=will'
p307
I356
sS'w-2=,'
p308
I287
sS'w+2=he'
p309
I194
sS'w+2=Iraq'
p310
I173
sS'aux=have'
p311
I28
sS'w+1=principle'
p312
I156
sS'w+1=do'
p313
I131
sS'w-1=.'
p314
I241
sS'w-1=,'
p315
I240
sS'w-2=I'
p316
I289
sS'purpcl=kill'
p317
I108
sS'w-2=at'
p318
I298
sS'w+2=appease'
p319
I180
sS'w-2=as'
p320
I297
sS'prep=about'
p321
I101
sS'w-2=prefer'
p322
I334
sS'w-1=I'
p323
I242
sS'dobj=well-being'
p324
I74
sS'amod=hard'
p325
I15
sS'w-2=appreciate'
p326
I295
sS'dobj=health'
p327
I61
sS'w-1=they'
p328
I275
sS'w-2=lot'
p329
I326
sS'det=a'
p330
I49
sS'w-1=a'
p331
I243
sS'xcomp=celebrate'
p332
I365
sS'w-2=make'
p333
I327
sS'w-1=he'
p334
I256
sS'w+1=growth'
p335
I138
sS'w+1=from'
p336
I136
sS'neg=never'
p337
I79
sS'dobj=ease'
p338
I59
sS'w-2=son'
p339
I344
sS'w+2=they'
p340
I228
sS'w+1=must'
p341
I150
sS'dobj=pride'
p342
I67
sS'w-1=not'
p343
I264
sS'amod=heroic'
p344
I16
sS'w+2=ahead'
p345
I176
sS'w-2=this'
p346
I349
sS'w+2=U.S.'
p347
I175
sS'prep=from'
p348
I104
sS'dobj=animal'
p349
I54
sS'w+2=other'
p350
I211
sS'w-2=impose'
p351
I320
sS'w-1=we'
p352
I280
sS'aux=to'
p353
I29
sS'w-2=you'
p354
I361
sS'w-1=tough'
p355
I278
sS'w-1=for'
p356
I252
sS'w+1=,'
p357
I119
sS'w+1=.'
p358
I120
sS'w-1=terrible'
p359
I272
sS'w+2=.'
p360
I171
sS'w+2=,'
p361
I170
sS'w-1=often'
p362
I266
sS'w+1=;'
p363
I121
sS'w+1=the'
p364
I161
sS'w+2=present'
p365
I216
sS'w+2=life'
p366
I200
sS'amod=biblical'
p367
I11
sS'w+2=prayer'
p368
I215
sS'w+2=lamb'
p369
I198
sS'w+1=a'
p370
I124
sS'w+1=will'
p371
I167
sS'w-2=loss'
p372
I325
sS'w-1=that'
p373
I273
sS'aux=be'
p374
I26
sS'w+2=all'
p375
I177
sS'w+2=be'
p376
I182
ssS'dtype'
p377
cnumpy
float64
p378
sS'feature_names_'
p379
(lp380
g217
ag298
ag9
ag213
ag37
ag128
ag164
ag302
ag203
ag112
ag114
ag367
ag162
ag234
ag251
ag325
ag344
ag104
ag287
ag286
ag88
ag154
ag20
ag86
ag74
ag76
ag374
ag63
ag311
ag353
ag216
ag157
ag245
ag259
ag220
ag135
ag54
ag64
ag169
ag292
ag176
ag25
ag144
ag118
ag247
ag299
ag189
ag275
ag211
ag330
ag145
ag120
ag99
ag129
ag349
ag65
ag230
ag70
ag163
ag338
ag111
ag327
ag214
ag91
ag240
ag175
ag13
ag342
ag226
ag277
ag155
ag199
ag276
ag153
ag324
ag171
ag218
ag45
ag16
ag337
ag296
ag161
ag165
ag257
ag196
ag289
ag27
ag14
ag219
ag96
ag264
ag121
ag125
ag142
ag107
ag291
ag260
ag34
ag66
ag266
ag180
ag321
ag306
ag151
ag348
ag81
ag167
ag274
ag317
ag206
ag198
ag297
ag271
ag159
ag249
ag149
ag283
ag122
ag258
ag357
ag358
ag363
ag116
ag56
ag370
ag87
ag133
ag134
ag250
ag222
ag248
ag313
ag194
ag241
ag83
ag254
ag336
ag235
ag335
ag136
ag50
ag138
ag256
ag42
ag44
ag267
ag190
ag143
ag301
ag209
ag341
ag173
ag236
ag47
ag49
ag94
ag312
ag300
ag188
ag26
ag24
ag364
ag139
ag78
ag184
ag29
ag152
ag371
ag233
ag253
ag361
ag360
ag115
ag310
ag60
ag347
ag345
ag375
ag294
ag80
ag319
ag156
ag376
ag43
ag101
ag23
ag17
ag246
ag46
ag208
ag19
ag242
ag93
ag279
ag309
ag12
ag278
ag123
ag369
ag304
ag366
ag113
ag187
ag205
ag52
ag200
ag243
ag110
ag109
ag181
ag183
ag350
ag92
ag33
ag170
ag368
ag365
ag281
ag10
ag212
ag102
ag82
ag255
ag35
ag39
ag192
ag285
ag305
ag340
ag207
ag48
ag168
ag100
ag210
ag98
ag58
ag67
ag182
ag166
ag160
ag315
ag314
ag323
ag331
ag79
ag62
ag90
ag186
ag36
ag18
ag178
ag280
ag356
ag272
ag106
ag53
ag334
ag193
ag158
ag268
ag141
ag31
ag147
ag197
ag343
ag229
ag362
ag231
ag108
ag61
ag195
ag51
ag359
ag373
ag103
ag328
ag150
ag127
ag355
ag261
ag352
ag72
ag290
ag69
ag32
ag263
ag179
ag308
ag117
ag316
ag174
ag131
ag11
ag95
ag295
ag326
ag137
ag320
ag318
ag223
ag269
ag84
ag288
ag38
ag146
ag55
ag8
ag130
ag225
ag202
ag57
ag75
ag89
ag28
ag119
ag284
ag244
ag237
ag177
ag282
ag351
ag224
ag40
ag238
ag265
ag372
ag329
ag333
ag15
ag73
ag21
ag126
ag124
ag273
ag322
ag59
ag148
ag232
ag228
ag85
ag303
ag105
ag227
ag252
ag339
ag262
ag71
ag41
ag22
ag346
ag172
ag293
ag221
ag140
ag30
ag270
ag307
ag97
ag239
ag201
ag204
ag354
ag68
ag185
ag77
ag332
ag191
ag215
ag132
asS'separator'
p381
S'='
sS'sparse'
p382
I01
sb.