ccopy_reg
_reconstructor
p1
(csklearn.feature_extraction.dict_vectorizer
DictVectorizer
p2
c__builtin__
object
p3
NtRp4
(dp5
S'sort'
p6
I01
sS'feature_names_'
p7
(lp8
S'advcl=than'
p9
aS'aux=to'
p10
aS'auxpass=be'
p11
aS'cc=and'
p12
aS'ccomp=pull'
p13
aS'conj=go'
p14
aS'dobj=#PRP#'
p15
aS'dobj=Jones'
p16
aS'dobj=mind'
p17
aS'nsubj=image'
p18
aS'nsubj=that'
p19
aS'nsubjpass=#PRP#'
p20
aS'partmod=make'
p21
aS'w+1=.'
p22
aS'w+1=Douglas'
p23
aS'w+1=she'
p24
aS'w+1=that'
p25
aS'w+1=the'
p26
aS"w+2=''"
p27
aS'w+2=,'
p28
aS'w+2=Jones'
p29
aS'w+2=mind'
p30
aS'w+2=she'
p31
aS'w-1=and'
p32
aS'w-1=be'
p33
aS'w-1=image'
p34
aS'w-1=that'
p35
aS'w-1=to'
p36
aS'w-2=,'
p37
aS'w-2=he'
p38
aS'w-2=script'
p39
aS'w-2=the'
p40
aS'w-2=want'
p41
asS'dtype'
p42
cnumpy
float64
p43
sS'vocabulary_'
p44
(dp45
g38
I29
sg34
I25
sg29
I20
sg27
I18
sg10
I1
sg30
I21
sg37
I28
sg11
I2
sg35
I26
sg22
I13
sg33
I24
sg14
I5
sg28
I19
sg16
I7
sg40
I31
sg12
I3
sg41
I32
sg19
I10
sg24
I15
sg32
I23
sg18
I9
sg26
I17
sg36
I27
sg21
I12
sg23
I14
sg20
I11
sg13
I4
sg31
I22
sg25
I16
sg9
I0
sg15
I6
sg39
I30
sg17
I8
ssS'separator'
p46
S'='
sS'sparse'
p47
I01
sb.