ccopy_reg
_reconstructor
p1
(csklearn.feature_extraction.dict_vectorizer
DictVectorizer
p2
c__builtin__
object
p3
NtRp4
(dp5
S'vocabulary_'
p6
(dp7
S'w-2=unique'
p8
I131
sS'nsubj=tribe'
p9
I30
sS'w-1=of'
p10
I96
sS'w-2=black'
p11
I110
sS'amod=archeological'
p12
I3
sS'w+2=when'
p13
I78
sS'amod=other'
p14
I13
sS'w+2=Europe'
p15
I63
sS'w+1=because'
p16
I47
sS'det=the'
p17
I24
sS'advmod=sometimes'
p18
I2
sS'prep=include'
p19
I39
sS'w-1=cultural'
p20
I85
sS'w-1=spanish'
p21
I99
sS'amod=corrupt'
p22
I5
sS'amod=looted'
p23
I10
sS'w-2=of'
p24
I122
sS'w-1=looted'
p25
I92
sS'amod=great'
p26
I7
sS'w-2=country'
p27
I113
sS'w-2=to'
p28
I130
sS'w-2=gold'
p29
I116
sS'w-1=hidden'
p30
I88
sS'nn=swan'
p31
I26
sS'w-1=other'
p32
I97
sS'w-2=national'
p33
I121
sS'poss=person'
p34
I35
sS'w-2=person'
p35
I124
sS'cop=be'
p36
I21
sS'w-1=natural'
p37
I95
sS'w-1=steal'
p38
I101
sS'advcl=involve'
p39
I1
sS'w-2=we'
p40
I132
sS'w+2=the'
p41
I77
sS'w+1=as'
p42
I45
sS'prep=as'
p43
I36
sS'w+2=another'
p44
I64
sS'w-2=.'
p45
I106
sS'w-2=blood'
p46
I111
sS'w-2=orissa'
p47
I123
sS'w+1=trove'
p48
I57
sS'nsubj=River'
p49
I28
sS'w-2=preserve'
p50
I125
sS'w-2=search'
p51
I127
sS'w-2=the'
p52
I129
sS'w-2=man'
p53
I120
sS'advcl=decide'
p54
I0
sS'w+2=modern'
p55
I73
sS'w-1=sunken'
p56
I102
sS'w+2=medieval'
p57
I72
sS'w+1=of'
p58
I52
sS'w-1=state'
p59
I100
sS'w-1=if'
p60
I89
sS'partmod=await'
p61
I31
sS'w-2=a'
p62
I107
sS'nsubj=trash'
p63
I29
sS'prep=for'
p64
I37
sS'det=a'
p65
I23
sS'w+2=land'
p66
I71
sS'w-1=a'
p67
I82
sS'dep=that'
p68
I22
sS'amod=national'
p69
I11
sS'w+1=hunter'
p70
I50
sS'amod=steal'
p71
I15
sS'amod=natural'
p72
I12
sS'amod=black'
p73
I4
sS"w+2=''"
p74
I58
sS'w+2=in'
p75
I70
sS'w+2=where'
p76
I79
sS'w+2=as'
p77
I65
sS'dobj=land'
p78
I25
sS'w+2=find'
p79
I68
sS'w+1=from'
p80
I49
sS'w-1=national'
p81
I94
sS'complm=that'
p82
I19
sS"w-1='s"
p83
I81
sS'w-2=locate'
p84
I119
sS'amod=several'
p85
I14
sS'w-2=contain'
p86
I112
sS'conj=work'
p87
I20
sS'w-1=must'
p88
I93
sS'cc=and'
p89
I18
sS'poss=country'
p90
I33
sS'w+1=the'
p91
I55
sS'w+1=be'
p92
I46
sS'amod=cultural'
p93
I6
sS'w+2=history'
p94
I69
sS'w+1=find'
p95
I48
sS'w+2=prevent'
p96
I75
sS'prep=in'
p97
I38
sS'w+1=in'
p98
I51
sS'w-2=from'
p99
I115
sS'nsubj=#PRP#'
p100
I27
sS"w-1=''"
p101
I80
sS'prep=to'
p102
I41
sS'w-1=we'
p103
I105
sS'w+1=ship'
p104
I53
sS'amod=sunken'
p105
I16
sS'w+1=such'
p106
I54
sS'poss=#PRP#'
p107
I32
sS'w-2=greatest'
p108
I117
sS'w-2=italian'
p109
I118
sS'w+1=and'
p110
I44
sS'w-1=archeological'
p111
I84
sS'w+2=Ethiopia'
p112
I62
sS'w-1=several'
p113
I98
sS'w+1=,'
p114
I42
sS'w+1=.'
p115
I43
sS'w+2=of'
p116
I74
sS'w-1=swan'
p117
I103
sS'amod=hidden'
p118
I8
sS'w+2=.'
p119
I60
sS'w+2=,'
p120
I59
sS'w+1=to'
p121
I56
sS'w-1=literary'
p122
I91
sS'w+2=close'
p123
I66
sS'poss=man'
p124
I34
sS'w+2=China'
p125
I61
sS'aux=must'
p126
I17
sS'w-1=and'
p127
I83
sS'w+2=restoration'
p128
I76
sS'w-2=ship'
p129
I128
sS'w-1=fossil'
p130
I86
sS'amod=literary'
p131
I9
sS'w-1=in'
p132
I90
sS'w-2=be'
p133
I109
sS'w+2=especially'
p134
I67
sS'prep=of'
p135
I40
sS'w-1=great'
p136
I87
sS'w-1=the'
p137
I104
sS'w-2=for'
p138
I114
sS'w-2=add'
p139
I108
sS'w-2=recover'
p140
I126
ssS'dtype'
p141
cnumpy
float64
p142
sS'feature_names_'
p143
(lp144
g54
ag39
ag18
ag12
ag73
ag22
ag93
ag26
ag118
ag131
ag23
ag69
ag72
ag14
ag85
ag71
ag105
ag126
ag89
ag82
ag87
ag36
ag68
ag65
ag17
ag78
ag31
ag100
ag49
ag63
ag9
ag61
ag107
ag90
ag124
ag34
ag43
ag64
ag97
ag19
ag135
ag102
ag114
ag115
ag110
ag42
ag92
ag16
ag95
ag80
ag70
ag98
ag58
ag104
ag106
ag91
ag121
ag48
ag74
ag120
ag119
ag125
ag112
ag15
ag44
ag77
ag123
ag134
ag79
ag94
ag75
ag66
ag57
ag55
ag116
ag96
ag128
ag41
ag13
ag76
ag101
ag83
ag67
ag127
ag111
ag20
ag130
ag136
ag30
ag60
ag132
ag122
ag25
ag88
ag81
ag37
ag10
ag32
ag113
ag21
ag59
ag38
ag56
ag117
ag137
ag103
ag45
ag62
ag139
ag133
ag11
ag46
ag86
ag27
ag138
ag99
ag29
ag108
ag109
ag84
ag53
ag33
ag24
ag47
ag35
ag50
ag140
ag51
ag129
ag52
ag28
ag8
ag40
asS'separator'
p145
S'='
sS'sparse'
p146
I01
sb.