ccopy_reg
_reconstructor
p1
(csklearn.feature_extraction.dict_vectorizer
DictVectorizer
p2
c__builtin__
object
p3
NtRp4
(dp5
S'vocabulary_'
p6
(dp7
S'w-2=friend'
p8
I39
sS'w-2=Garth'
p9
I38
sS'w-1=be'
p10
I33
sS'w-2=Feet'
p11
I37
sS'advcl=join'
p12
I0
sS'w+2=as'
p13
I23
sS'nsubj=entertainer'
p14
I12
sS'w+1=she'
p15
I20
sS'w+1=and'
p16
I17
sS'w-1=they'
p17
I35
sS'w-2=.'
p18
I36
sS'ccomp=like'
p19
I5
sS'w+1=he'
p20
I18
sS'w-1=good-naturedly'
p21
I34
sS'w+2=that'
p22
I27
sS'nsubj=Brooks'
p23
I11
sS'w+1=must'
p24
I19
sS'w+1=:'
p25
I15
sS'w+2=then'
p26
I28
sS'w-2=suggestion'
p27
I40
sS'cc=and'
p28
I4
sS'conj=rock'
p29
I6
sS'w-1=and'
p30
I32
sS'w+1=I'
p31
I16
sS'w+2=fan'
p32
I25
sS'w+1=they'
p33
I21
sS'w+2=do'
p34
I24
sS'w-2=they'
p35
I42
sS'w-2=taunt'
p36
I41
sS'prep=by'
p37
I14
sS'w+2=and'
p38
I22
sS'advmod=when'
p39
I2
sS'dobj=fan'
p40
I9
sS'w-1=,'
p41
I29
sS'conj=say'
p42
I7
sS'w-1=Brooks'
p43
I30
sS'dobj=#PRP#'
p44
I8
sS'advmod=good-naturedly'
p45
I1
sS'nsubj=friend'
p46
I13
sS'w-1=about'
p47
I31
sS'aux=be'
p48
I3
sS'w+2=stop'
p49
I26
sS'nsubj=#PRP#'
p50
I10
ssS'dtype'
p51
cnumpy
float64
p52
sS'feature_names_'
p53
(lp54
g12
ag45
ag39
ag48
ag28
ag19
ag29
ag42
ag44
ag40
ag50
ag23
ag14
ag46
ag37
ag25
ag31
ag16
ag20
ag24
ag15
ag33
ag38
ag13
ag34
ag32
ag49
ag22
ag26
ag41
ag43
ag47
ag30
ag10
ag21
ag17
ag18
ag11
ag9
ag8
ag27
ag36
ag35
asS'separator'
p55
S'='
sS'sparse'
p56
I01
sb.