ccopy_reg
_reconstructor
p1
(csklearn.feature_extraction.dict_vectorizer
DictVectorizer
p2
c__builtin__
object
p3
NtRp4
(dp5
S'vocabulary_'
p6
(dp7
S'w-2=work'
p8
I168
sS'w+2=sick'
p9
I103
sS'w-2=who'
p10
I166
sS'w+2=hiv'
p11
I94
sS'w-1=arm'
p12
I112
sS'w-2=best'
p13
I140
sS'dobj=system'
p14
I34
sS'w-2=90'
p15
I131
sS'w-2=believe'
p16
I139
sS'w+1=because'
p17
I68
sS'det=the'
p18
I21
sS'w-2=table'
p19
I159
sS'w-1=country'
p20
I116
sS'w-2=to'
p21
I163
sS'dobj=people'
p22
I30
sS'conj=unite'
p23
I18
sS'dobj=mission'
p24
I28
sS'w+2=division'
p25
I91
sS'w+2=in'
p26
I95
sS'w-2=needed-remedy'
p27
I154
sS'dobj=arm'
p28
I23
sS'prep=but'
p29
I54
sS'nsubj=wouldallow'
p30
I47
sS'nsubj=Gates'
p31
I41
sS'dobj=situation'
p32
I33
sS'w-2=kurdish'
p33
I152
sS'w+2=bitterly'
p34
I85
sS'w-2=they'
p35
I161
sS'w-1=to'
p36
I126
sS'dobj=country'
p37
I25
sS'prep=within'
p38
I60
sS'w-2=and'
p39
I136
sS'w+2=nation'
p40
I98
sS'w-2=country'
p41
I144
sS'w-2=hope'
p42
I150
sS'w+1=wound'
p43
I80
sS'w-2=wound'
p44
I169
sS'w-1=survivor'
p45
I125
sS'w+1=this'
p46
I76
sS'dobj=America'
p47
I22
sS'w-2=he'
p48
I148
sS'nn=wound'
p49
I39
sS'aux=will'
p50
I7
sS'w+2=stricken'
p51
I105
sS'advmod=really'
p52
I2
sS'w+2=cause'
p53
I86
sS'conj=pave'
p54
I14
sS'w+1=as'
p55
I67
sS'w-2=will'
p56
I167
sS'prep=as'
p57
I53
sS'w-1=will'
p58
I127
sS'w-2=,'
p59
I130
sS'w+2=easily'
p60
I92
sS'aux=have'
p61
I5
sS'w-1=be'
p62
I114
sS'advmod=eventually'
p63
I0
sS'prep=among'
p64
I52
sS'w-2=endeavor'
p65
I146
sS'csubj=fail'
p66
I19
sS'w-2=not'
p67
I155
sS'w+2=continue'
p68
I88
sS'w-2=the'
p69
I160
sS'w-2=power'
p70
I156
sS'w-2=time'
p71
I162
sS'w-2=able'
p72
I133
sS'w-2=chance'
p73
I142
sS'w-2=nation'
p74
I153
sS'dobj=rift'
p75
I31
sS'prep=through'
p76
I58
sS'w+2=one'
p77
I99
sS'w-2=aim'
p78
I135
sS'w+2=country'
p79
I89
sS'dobj=wound'
p80
I36
sS'w+1=of'
p81
I73
sS'dobj=sick'
p82
I32
sS'w+1=America'
p83
I63
sS'w+2=linger'
p84
I97
sS'nsubjpass=nation'
p85
I48
sS'w-1=region'
p86
I123
sS"w-1=''"
p87
I111
sS'nsubj=survivor'
p88
I46
sS'w-1=best'
p89
I115
sS'w+1=we'
p90
I79
sS'w-2=together'
p91
I164
sS'w-2=adopt'
p92
I134
sS'nsubj=city'
p93
I42
sS"w+2=''"
p94
I81
sS'nsubj=country'
p95
I43
sS'w-1=he'
p96
I118
sS'nsubj=remedy'
p97
I45
sS'conj=continue'
p98
I12
sS'dobj=land'
p99
I27
sS'w+2=wound'
p100
I108
sS'w+1=from'
p101
I71
sS'w-2=city'
p102
I143
sS'auxpass=be'
p103
I8
sS'complm=that'
p104
I11
sS'conj=restore'
p105
I17
sS'w-1=really'
p106
I122
sS'prep=after'
p107
I51
sS'dobj=community'
p108
I24
sS'w+2=situation'
p109
I104
sS'cc=and'
p110
I9
sS'conj=prophesy'
p111
I16
sS'w-2=effort'
p112
I145
sS'advmod=still'
p113
I3
sS'dep=help'
p114
I20
sS'w+1=deep'
p115
I70
sS'xcomp=refill'
p116
I170
sS'w-1=definitely'
p117
I117
sS'w+1=the'
p118
I75
sS'conj=pre-empt'
p119
I15
sS'w+2=unite'
p120
I106
sS'w-2=for'
p121
I147
sS'w+2=community'
p122
I87
sS'nsubj=effort'
p123
I44
sS'w+1=those'
p124
I77
sS'w+1=people'
p125
I74
sS'w+2=you'
p126
I110
sS'conj=move'
p127
I13
sS'prep=in'
p128
I56
sS'w+2=rift'
p129
I102
sS'advmod=how'
p130
I1
sS'w+1=its'
p131
I72
sS'w-2=way'
p132
I165
sS'w+2=arm'
p133
I84
sS'nsubj=#PRP#'
p134
I40
sS'w-1=percent'
p135
I121
sS'prep=from'
p136
I55
sS'w+2=land'
p137
I96
sS'w-2=help'
p138
I149
sS'w+1=after'
p139
I65
sS'w-2=promise'
p140
I157
sS'prep=to'
p141
I59
sS'w-2=intend'
p142
I151
sS'aux=to'
p143
I6
sS'w+2=political'
p144
I100
sS'nsubjpass=wound'
p145
I49
sS'w+2=year'
p146
I109
sS'poss=#PRP#'
p147
I50
sS'w-1=still'
p148
I124
sS'w-1=help'
p149
I119
sS'w+1=and'
p150
I66
sS'w-2=Ford'
p151
I132
sS'dobj=division'
p152
I26
sS"w-2=''"
p153
I129
sS'w+1=,'
p154
I61
sS'w+1=.'
p155
I62
sS'w-2=can'
p156
I141
sS'w+2=,'
p157
I82
sS'w+1=to'
p158
I78
sS'neg=not'
p159
I37
sS'w+2=war'
p160
I107
sS'w-1=it'
p161
I120
sS'w+2=he'
p162
I93
sS'w+2=power'
p163
I101
sS'dobj=nation'
p164
I29
sS'w+1=a'
p165
I64
sS'w-2=be'
p166
I138
sS'prep=of'
p167
I57
sS'nn=arm'
p168
I38
sS'w-1=at'
p169
I113
sS'w-2=attempt'
p170
I137
sS'w-2=seek'
p171
I158
sS'aux=be'
p172
I4
sS'w+2=deep'
p173
I90
sS'w+1=but'
p174
I69
sS'w+2=a'
p175
I83
sS'dobj=trauma'
p176
I35
sS'w-1=wound'
p177
I128
sS'ccomp=break'
p178
I10
ssS'dtype'
p179
cnumpy
float64
p180
sS'feature_names_'
p181
(lp182
g63
ag130
ag52
ag113
ag172
ag61
ag143
ag50
ag103
ag110
ag178
ag104
ag98
ag127
ag54
ag119
ag111
ag105
ag23
ag66
ag114
ag18
ag47
ag28
ag108
ag37
ag152
ag99
ag24
ag164
ag22
ag75
ag82
ag32
ag14
ag176
ag80
ag159
ag168
ag49
ag134
ag31
ag93
ag95
ag123
ag97
ag88
ag30
ag85
ag145
ag147
ag107
ag64
ag57
ag29
ag136
ag128
ag167
ag76
ag141
ag38
ag154
ag155
ag83
ag165
ag139
ag150
ag55
ag17
ag174
ag115
ag101
ag131
ag81
ag125
ag118
ag46
ag124
ag158
ag90
ag43
ag94
ag157
ag175
ag133
ag34
ag53
ag122
ag68
ag79
ag173
ag25
ag60
ag162
ag11
ag26
ag137
ag84
ag40
ag77
ag144
ag163
ag129
ag9
ag109
ag51
ag120
ag160
ag100
ag146
ag126
ag87
ag12
ag169
ag62
ag89
ag20
ag117
ag96
ag149
ag161
ag135
ag106
ag86
ag148
ag45
ag36
ag58
ag177
ag153
ag59
ag15
ag151
ag72
ag92
ag78
ag39
ag170
ag166
ag16
ag13
ag156
ag73
ag102
ag41
ag112
ag65
ag121
ag48
ag138
ag42
ag142
ag33
ag74
ag27
ag67
ag70
ag140
ag171
ag19
ag69
ag35
ag71
ag21
ag91
ag132
ag10
ag56
ag8
ag44
ag116
asS'separator'
p183
S'='
sS'sparse'
p184
I01
sb.