ccopy_reg
_reconstructor
p1
(csklearn.feature_extraction.dict_vectorizer
DictVectorizer
p2
c__builtin__
object
p3
NtRp4
(dp5
S'sort'
p6
I01
sS'feature_names_'
p7
(lp8
S'advcl=show'
p9
aS'advmod=accurately'
p10
aS'advmod=also'
p11
aS'advmod=better'
p12
aS'advmod=generally'
p13
aS'advmod=how'
p14
aS'advmod=just'
p15
aS'advmod=largely'
p16
aS'advmod=nonetheless'
p17
aS'advmod=that'
p18
aS'advmod=widely'
p19
aS'aux=be'
p20
aS'aux=could'
p21
aS'aux=have'
p22
aS'aux=may'
p23
aS'aux=might'
p24
aS'aux=should'
p25
aS'aux=to'
p26
aS'auxpass=be'
p27
aS'cc=and'
p28
aS'cc=but'
p29
aS'ccomp=afford'
p30
aS'ccomp=escalate'
p31
aS'ccomp=girl'
p32
aS'ccomp=overturn'
p33
aS'ccomp=threat'
p34
aS'complm=that'
p35
aS'conj=able'
p36
aS'conj=go'
p37
aS'conj=hold'
p38
aS'conj=know'
p39
aS'conj=real'
p40
aS'conj=say'
p41
aS'conj=support'
p42
aS'csubjpass=change'
p43
aS'dep=be'
p44
aS'dep=like'
p45
aS'dep=result'
p46
aS'dep=say'
p47
aS'dep=that'
p48
aS'dep=what'
p49
aS'dobj=#PRP#'
p50
aS'dobj=Australians'
p51
aS'dobj=Kenya'
p52
aS'dobj=Royal'
p53
aS'dobj=U.S.'
p54
aS'dobj=abuse'
p55
aS'dobj=beef'
p56
aS'dobj=election'
p57
aS'dobj=expression'
p58
aS'dobj=extent'
p59
aS'dobj=gam'
p60
aS'dobj=opposition'
p61
aS'dobj=people'
p62
aS'dobj=politics'
p63
aS'dobj=remark'
p64
aS'dobj=resumption'
p65
aS'dobj=state'
p66
aS'dobj=subtext'
p67
aS'dobj=system'
p68
aS'dobj=what'
p69
aS'dobj=which'
p70
aS'mark=as'
p71
aS'mark=because'
p72
aS'mark=if'
p73
aS'mark=while'
p74
aS'neg=not'
p75
aS'nsubj=#NUMBER#'
p76
aS'nsubj=#PRP#'
p77
aS'nsubj=Americans'
p78
aS'nsubj=Koreans'
p79
aS'nsubj=Schmieding'
p80
aS'nsubj=expert'
p81
aS'nsubj=father'
p82
aS'nsubj=government'
p83
aS'nsubj=majority'
p84
aS'nsubj=number'
p85
aS'nsubj=people'
p86
aS'nsubj=some'
p87
aS'nsubj=viewer'
p88
aS'nsubjpass=#PRP#'
p89
aS'nsubjpass=Annan'
p90
aS'nsubjpass=Islamabad'
p91
aS'nsubjpass=States'
p92
aS'nsubjpass=administration'
p93
aS'nsubjpass=alliance'
p94
aS'nsubjpass=fighter'
p95
aS'nsubjpass=force'
p96
aS'nsubjpass=government'
p97
aS'nsubjpass=judiciary'
p98
aS'nsubjpass=palin'
p99
aS'nsubjpass=reason'
p100
aS'nsubjpass=report'
p101
aS'nsubjpass=that'
p102
aS'nsubjpass=union'
p103
aS'nsubjpass=what'
p104
aS'nsubjpass=which'
p105
aS'nsubjpass=who'
p106
aS'nsubjpass=woman'
p107
aS'parataxis=say'
p108
aS'prep=against'
p109
aS'prep=among'
p110
aS'prep=as'
p111
aS'prep=by'
p112
aS'prep=despite'
p113
aS'prep=from'
p114
aS'prep=in'
p115
aS'prep=to'
p116
aS'prep=with'
p117
aS'rel=to'
p118
aS'tmod=today'
p119
aS'w+1=.'
p120
aS'w+1=Australians'
p121
aS'w+1=Kenya'
p122
aS'w+1=Mr.'
p123
aS'w+1=Royal'
p124
aS'w+1=albanian'
p125
aS'w+1=american'
p126
aS'w+1=and'
p127
aS'w+1=another'
p128
aS'w+1=as'
p129
aS'w+1=barrier'
p130
aS'w+1=by'
p131
aS'w+1=collaborator'
p132
aS'w+1=corruption'
p133
aS'w+1=cruelty'
p134
aS'w+1=electability'
p135
aS'w+1=enemy'
p136
aS'w+1=facial'
p137
aS'w+1=failure'
p138
aS'w+1=fear'
p139
aS'w+1=foreign'
p140
aS'w+1=gam'
p141
aS'w+1=government'
p142
aS'w+1=herself'
p143
aS'w+1=in'
p144
aS'w+1=inability'
p145
aS'w+1=ineffectiveness'
p146
aS'w+1=it'
p147
aS'w+1=lack'
p148
aS'w+1=mdc'
p149
aS'w+1=mishandle'
p150
aS'w+1=moral'
p151
aS'w+1=neo-colonialism'
p152
aS'w+1=norm'
p153
aS'w+1=on'
p154
aS'w+1=opposition'
p155
aS'w+1=politics'
p156
aS'w+1=rate'
p157
aS'w+1=russian'
p158
aS'w+1=self-interest'
p159
aS'w+1=shortcoming'
p160
aS'w+1=side-effect'
p161
aS'w+1=strength'
p162
aS'w+1=sympathy'
p163
aS'w+1=than'
p164
aS'w+1=that'
p165
aS'w+1=the'
p166
aS'w+1=themselves'
p167
aS'w+1=they'
p168
aS'w+1=this'
p169
aS'w+1=threat'
p170
aS'w+1=to'
p171
aS'w+1=today'
p172
aS'w+1=widespread'
p173
aS'w+2=,'
p174
aS'w+2=.'
p175
aS'w+2=Lee'
p176
aS'w+2=South'
p177
aS'w+2=U.S.'
p178
aS'w+2=a'
p179
aS'w+2=affect'
p180
aS'w+2=anything'
p181
aS'w+2=as'
p182
aS'w+2=be'
p183
aS'w+2=because'
p184
aS'w+2=beef'
p185
aS'w+2=corrupt'
p186
aS'w+2=corruption'
p187
aS'w+2=could'
p188
aS'w+2=cultural'
p189
aS'w+2=decade'
p190
aS'w+2=demeaning'
p191
aS'w+2=different'
p192
aS'w+2=do'
p193
aS'w+2=election'
p194
aS'w+2=excessive'
p195
aS'w+2=expression'
p196
aS'w+2=extent'
p197
aS'w+2=fail'
p198
aS'w+2=fight'
p199
aS'w+2=have'
p200
aS'w+2=human'
p201
aS'w+2=in'
p202
aS'w+2=ironic'
p203
aS'w+2=just'
p204
aS'w+2=kikuyu'
p205
aS'w+2=liberator'
p206
aS'w+2=many'
p207
aS'w+2=neutral'
p208
aS'w+2=not'
p209
aS'w+2=nuclear'
p210
aS'w+2=of'
p211
aS'w+2=political'
p212
aS'w+2=prompt'
p213
aS'w+2=real'
p214
aS'w+2=remark'
p215
aS'w+2=represent'
p216
aS'w+2=softer'
p217
aS'w+2=state'
p218
aS'w+2=supporter'
p219
aS'w+2=system'
p220
aS'w+2=that'
p221
aS'w+2=the'
p222
aS'w+2=threat'
p223
aS'w+2=to'
p224
aS'w+2=transgression'
p225
aS"w-1='s"
p226
aS'w-1=.'
p227
aS'w-1=Acehnese'
p228
aS'w-1=Americans'
p229
aS'w-1=I'
p230
aS'w-1=Koreans'
p231
aS'w-1=Turkey'
p232
aS'w-1=a'
p233
aS'w-1=about'
p234
aS'w-1=against'
p235
aS'w-1=also'
p236
aS'w-1=analyst'
p237
aS'w-1=and'
p238
aS'w-1=be'
p239
aS'w-1=better'
p240
aS'w-1=both'
p241
aS'w-1=clan'
p242
aS'w-1=criticize'
p243
aS'w-1=daughter'
p244
aS'w-1=disfigure'
p245
aS'w-1=expert'
p246
aS'w-1=for'
p247
aS'w-1=generally'
p248
aS'w-1=he'
p249
aS'w-1=highest'
p250
aS'w-1=investor'
p251
aS'w-1=it'
p252
aS'w-1=its'
p253
aS'w-1=largely'
p254
aS'w-1=law'
p255
aS'w-1=leader'
p256
aS'w-1=may'
p257
aS'w-1=might'
p258
aS'w-1=not'
p259
aS'w-1=of'
p260
aS'w-1=or'
p261
aS'w-1=other'
p262
aS'w-1=over'
p263
aS'w-1=people'
p264
aS'w-1=say'
p265
aS'w-1=she'
p266
aS'w-1=slightest'
p267
aS'w-1=some'
p268
aS'w-1=they'
p269
aS'w-1=those'
p270
aS'w-1=to'
p271
aS'w-1=viewer'
p272
aS'w-1=we'
p273
aS'w-1=widely'
p274
aS'w-1=with'
p275
aS"w-2=''"
p276
aS'w-2=,'
p277
aS'w-2=Koreans'
p278
aS'w-2=London'
p279
aS'w-2=South'
p280
aS'w-2=States'
p281
aS'w-2=abruptly'
p282
aS'w-2=administration'
p283
aS'w-2=against'
p284
aS'w-2=al-qaida'
p285
aS'w-2=also'
p286
aS'w-2=analyst'
p287
aS'w-2=and'
p288
aS'w-2=arm'
p289
aS'w-2=as'
p290
aS'w-2=be'
p291
aS'w-2=by'
p292
aS'w-2=community'
p293
aS'w-2=could'
p294
aS'w-2=counter'
p295
aS'w-2=country'
p296
aS'w-2=democratic'
p297
aS'w-2=despite'
p298
aS'w-2=for'
p299
aS'w-2=from'
p300
aS'w-2=generally'
p301
aS'w-2=government'
p302
aS'w-2=have'
p303
aS'w-2=he'
p304
aS'w-2=how'
p305
aS'w-2=in'
p306
aS'w-2=inflation'
p307
aS'w-2=it'
p308
aS'w-2=mission'
p309
aS'w-2=nervousness'
p310
aS'w-2=of'
p311
aS'w-2=opening'
p312
aS'w-2=or'
p313
aS'w-2=other'
p314
aS'w-2=out'
p315
aS'w-2=outside'
p316
aS'w-2=people'
p317
aS'w-2=personality'
p318
aS'w-2=potential'
p319
aS'w-2=real'
p320
aS'w-2=reconcile'
p321
aS'w-2=risk'
p322
aS'w-2=sentence'
p323
aS'w-2=service'
p324
aS'w-2=should'
p325
aS'w-2=some'
p326
aS'w-2=that'
p327
aS'w-2=the'
p328
aS'w-2=to'
p329
aS'w-2=union'
p330
aS'w-2=violence'
p331
aS'w-2=we'
p332
aS'w-2=what'
p333
aS'w-2=which'
p334
aS'w-2=who'
p335
aS'w-2=with'
p336
aS'w-2=woman'
p337
aS'w-2=young'
p338
aS'xcomp=be'
p339
aS'xcomp=dominate'
p340
aS'xcomp=invasion'
p341
aS'xcomp=light'
p342
aS'xcomp=much'
p343
aS'xcomp=represent'
p344
aS'xcomp=suffer'
p345
aS'xcomp=torture'
p346
aS'xcomp=travel'
p347
asS'dtype'
p348
cnumpy
float64
p349
sS'vocabulary_'
p350
(dp351
g310
I301
sg220
I211
sg309
I300
sg276
I267
sg151
I142
sg201
I192
sg209
I200
sg96
I87
sg216
I207
sg79
I70
sg338
I329
sg100
I91
sg335
I326
sg293
I284
sg347
I338
sg266
I257
sg156
I147
sg225
I216
sg157
I148
sg283
I274
sg160
I151
sg138
I129
sg47
I38
sg271
I262
sg68
I59
sg98
I89
sg13
I4
sg158
I149
sg180
I171
sg153
I144
sg221
I212
sg102
I93
sg10
I1
sg329
I320
sg62
I53
sg284
I275
sg301
I292
sg42
I33
sg59
I50
sg190
I181
sg187
I178
sg202
I193
sg341
I332
sg261
I252
sg161
I152
sg319
I310
sg256
I247
sg245
I236
sg159
I150
sg343
I334
sg311
I302
sg34
I25
sg163
I154
sg125
I116
sg334
I325
sg199
I190
sg112
I103
sg78
I69
sg177
I168
sg288
I279
sg44
I35
sg296
I287
sg346
I337
sg324
I315
sg165
I156
sg61
I52
sg262
I253
sg189
I180
sg50
I41
sg87
I78
sg83
I74
sg75
I66
sg12
I3
sg214
I205
sg242
I233
sg282
I273
sg124
I115
sg40
I31
sg51
I42
sg265
I256
sg205
I196
sg275
I266
sg164
I155
sg304
I295
sg184
I175
sg272
I263
sg178
I169
sg323
I314
sg196
I187
sg336
I327
sg210
I201
sg286
I277
sg267
I258
sg33
I24
sg55
I46
sg300
I291
sg15
I6
sg222
I213
sg129
I120
sg148
I139
sg235
I226
sg111
I102
sg228
I219
sg118
I109
sg277
I268
sg186
I177
sg86
I77
sg117
I108
sg191
I182
sg134
I125
sg85
I76
sg317
I308
sg167
I158
sg52
I43
sg22
I13
sg94
I85
sg63
I54
sg239
I230
sg289
I280
sg250
I241
sg110
I101
sg227
I218
sg241
I232
sg37
I28
sg328
I319
sg91
I82
sg280
I271
sg344
I335
sg176
I167
sg306
I297
sg119
I110
sg340
I331
sg287
I278
sg90
I81
sg290
I281
sg104
I95
sg169
I160
sg308
I299
sg236
I227
sg305
I296
sg172
I163
sg295
I286
sg203
I194
sg193
I184
sg314
I305
sg270
I261
sg24
I15
sg230
I221
sg140
I131
sg25
I16
sg318
I309
sg54
I45
sg18
I9
sg315
I306
sg53
I44
sg224
I215
sg154
I145
sg260
I251
sg97
I88
sg58
I49
sg269
I260
sg181
I172
sg194
I185
sg268
I259
sg48
I39
sg246
I237
sg149
I140
sg49
I40
sg253
I244
sg43
I34
sg105
I96
sg198
I189
sg240
I231
sg130
I121
sg144
I135
sg173
I164
sg71
I62
sg249
I240
sg263
I254
sg182
I173
sg145
I136
sg108
I99
sg30
I21
sg11
I2
sg121
I112
sg168
I159
sg56
I47
sg19
I10
sg17
I8
sg80
I71
sg155
I146
sg66
I57
sg312
I303
sg27
I18
sg35
I26
sg248
I239
sg72
I63
sg226
I217
sg188
I179
sg244
I235
sg223
I214
sg103
I94
sg281
I272
sg332
I323
sg128
I119
sg297
I288
sg122
I113
sg106
I97
sg337
I328
sg303
I294
sg142
I133
sg28
I19
sg251
I242
sg200
I191
sg141
I132
sg298
I289
sg327
I318
sg166
I157
sg109
I100
sg107
I98
sg259
I250
sg38
I29
sg299
I290
sg183
I174
sg36
I27
sg231
I222
sg333
I324
sg57
I48
sg76
I67
sg195
I186
sg132
I123
sg207
I198
sg126
I117
sg89
I80
sg150
I141
sg26
I17
sg264
I255
sg41
I32
sg243
I234
sg14
I5
sg279
I270
sg285
I276
sg234
I225
sg136
I127
sg229
I220
sg147
I138
sg330
I321
sg77
I68
sg65
I56
sg69
I60
sg9
I0
sg326
I317
sg88
I79
sg206
I197
sg46
I37
sg16
I7
sg116
I107
sg237
I228
sg273
I264
sg114
I105
sg29
I20
sg255
I246
sg325
I316
sg135
I126
sg185
I176
sg212
I203
sg133
I124
sg32
I23
sg274
I265
sg67
I58
sg213
I204
sg127
I118
sg92
I83
sg115
I106
sg345
I336
sg95
I86
sg313
I304
sg21
I12
sg23
I14
sg146
I137
sg197
I188
sg64
I55
sg247
I238
sg20
I11
sg113
I104
sg120
I111
sg211
I202
sg82
I73
sg175
I166
sg74
I65
sg174
I165
sg93
I84
sg171
I162
sg307
I298
sg81
I72
sg217
I208
sg331
I322
sg139
I130
sg252
I243
sg233
I224
sg238
I229
sg31
I22
sg302
I293
sg294
I285
sg131
I122
sg99
I90
sg339
I330
sg123
I114
sg316
I307
sg101
I92
sg70
I61
sg258
I249
sg218
I209
sg322
I313
sg204
I195
sg170
I161
sg342
I333
sg208
I199
sg291
I282
sg162
I153
sg143
I134
sg137
I128
sg39
I30
sg152
I143
sg257
I248
sg60
I51
sg232
I223
sg192
I183
sg254
I245
sg219
I210
sg320
I311
sg321
I312
sg45
I36
sg73
I64
sg215
I206
sg278
I269
sg179
I170
sg84
I75
sg292
I283
ssS'separator'
p352
S'='
sS'sparse'
p353
I01
sb.