ccopy_reg
_reconstructor
p1
(csklearn.feature_extraction.dict_vectorizer
DictVectorizer
p2
c__builtin__
object
p3
NtRp4
(dp5
S'sort'
p6
I01
sS'feature_names_'
p7
(lp8
S'acomp=state-by-state'
p9
aS'advcl=do'
p10
aS'advcl=much'
p11
aS'advcl=of'
p12
aS'advcl=offer'
p13
aS'advcl=re-introduce'
p14
aS'advcl=take'
p15
aS'advcl=tap'
p16
aS'advmod=also'
p17
aS'advmod=at'
p18
aS'advmod=before'
p19
aS'advmod=better'
p20
aS'advmod=currently'
p21
aS'advmod=directly'
p22
aS'advmod=effectively'
p23
aS'advmod=ever'
p24
aS'advmod=fiercely'
p25
aS'advmod=hard'
p26
aS'advmod=here'
p27
aS'advmod=however'
p28
aS'advmod=increasingly'
p29
aS'advmod=internationally'
p30
aS'advmod=longer'
p31
aS'advmod=maybe'
p32
aS'advmod=more'
p33
aS'advmod=now'
p34
aS'advmod=once'
p35
aS'advmod=out'
p36
aS'advmod=publicly'
p37
aS'advmod=regionally'
p38
aS'advmod=seriously'
p39
aS'advmod=so'
p40
aS'advmod=well'
p41
aS'advmod=where'
p42
aS'aux=be'
p43
aS'aux=can'
p44
aS'aux=could'
p45
aS'aux=do'
p46
aS'aux=have'
p47
aS'aux=may'
p48
aS'aux=must'
p49
aS'aux=to'
p50
aS'aux=will'
p51
aS'aux=would'
p52
aS'cc=and'
p53
aS'cc=but'
p54
aS'cc=or'
p55
aS'cc=rather'
p56
aS'ccomp=come'
p57
aS'ccomp=make'
p58
aS'ccomp=restart'
p59
aS'complm=that'
p60
aS'complm=whether'
p61
aS'conj=actually'
p62
aS'conj=bring'
p63
aS'conj=call'
p64
aS'conj=compete'
p65
aS'conj=complement'
p66
aS'conj=do'
p67
aS'conj=double'
p68
aS'conj=dozen'
p69
aS'conj=finish'
p70
aS'conj=leave'
p71
aS'conj=review'
p72
aS'conj=say'
p73
aS'conj=see'
p74
aS'conj=so'
p75
aS'conj=win'
p76
aS'cop=be'
p77
aS'csubj=rebuild'
p78
aS'dep=artist'
p79
aS'dep=compete'
p80
aS'dep=difficult'
p81
aS'dep=easier'
p82
aS'dep=harder'
p83
aS'dep=know'
p84
aS'dep=necessary'
p85
aS'dobj=Olympic'
p86
aS'dobj=againstU'
p87
aS'dobj=computer'
p88
aS'dobj=economy'
p89
aS'dobj=election'
p90
aS'dobj=farmer'
p91
aS'dobj=institution'
p92
aS'dobj=interest'
p93
aS'dobj=performance'
p94
aS'dobj=resource'
p95
aS'dobj=something'
p96
aS'dobj=state'
p97
aS'dobj=symbol'
p98
aS'dobj=which'
p99
aS'infmod=of'
p100
aS'mark=as'
p101
aS'mark=so'
p102
aS'mark=while'
p103
aS'neg=not'
p104
aS'nsubj=#NUMBER#'
p105
aS'nsubj=#PRP#'
p106
aS'nsubj=ADB'
p107
aS'nsubj=Americans'
p108
aS'nsubj=Clinton'
p109
aS'nsubj=Democrats'
p110
aS'nsubj=India'
p111
aS'nsubj=Intel'
p112
aS'nsubj=Lilly'
p113
aS'nsubj=Republicans'
p114
aS'nsubj=Romney'
p115
aS'nsubj=Zubkov'
p116
aS'nsubj=african'
p117
aS'nsubj=animal'
p118
aS'nsubj=athlete'
p119
aS'nsubj=band'
p120
aS'nsubj=candidate'
p121
aS'nsubj=company'
p122
aS'nsubj=contender'
p123
aS'nsubj=country'
p124
aS'nsubj=cyclist'
p125
aS'nsubj=economy'
p126
aS'nsubj=extremist'
p127
aS'nsubj=faction'
p128
aS'nsubj=fan'
p129
aS'nsubj=farm'
p130
aS'nsubj=farmer'
p131
aS'nsubj=filmmaker'
p132
aS'nsubj=fisherman'
p133
aS'nsubj=form'
p134
aS'nsubj=group'
p135
aS'nsubj=man'
p136
aS'nsubj=many'
p137
aS'nsubj=militia'
p138
aS'nsubj=nation'
p139
aS'nsubj=number'
p140
aS'nsubj=of'
p141
aS'nsubj=official'
p142
aS'nsubj=parachute'
p143
aS'nsubj=party'
p144
aS'nsubj=people'
p145
aS'nsubj=plan'
p146
aS'nsubj=player'
p147
aS'nsubj=population'
p148
aS'nsubj=region'
p149
aS'nsubj=runner'
p150
aS'nsubj=sector'
p151
aS'nsubj=sort'
p152
aS'nsubj=team'
p153
aS'nsubj=that'
p154
aS'nsubj=the'
p155
aS'nsubj=total'
p156
aS'nsubj=vehicle'
p157
aS'nsubj=which'
p158
aS'nsubj=who'
p159
aS'nsubj=yacht'
p160
aS'parataxis=work'
p161
aS'partmod=enter'
p162
aS'prep=after'
p163
aS'prep=against'
p164
aS'prep=as'
p165
aS'prep=at'
p166
aS'prep=by'
p167
aS'prep=for'
p168
aS'prep=from'
p169
aS'prep=in'
p170
aS'prep=include'
p171
aS'prep=like'
p172
aS'prep=of'
p173
aS'prep=on'
p174
aS'prep=throughout'
p175
aS'prep=to'
p176
aS'prep=tournament'
p177
aS'prep=until'
p178
aS'prep=with'
p179
aS'purpcl=do'
p180
aS'rel=in'
p181
aS'rel=which'
p182
aS'tmod=day'
p183
aS'tmod=month'
p184
aS'tmod=today'
p185
aS'tmod=week'
p186
aS'tmod=year'
p187
aS'w+1=,'
p188
aS'w+1=.'
p189
aS'w+1=Classmate'
p190
aS'w+1=European'
p191
aS'w+1=after'
p192
aS'w+1=against'
p193
aS'w+1=againstU'
p194
aS'w+1=and'
p195
aS'w+1=annually'
p196
aS'w+1=as'
p197
aS'w+1=at'
p198
aS'w+1=athlete'
p199
aS'w+1=be'
p200
aS'w+1=better'
p201
aS'w+1=booth'
p202
aS'w+1=both'
p203
aS'w+1=by'
p204
aS'w+1=candidate'
p205
aS'w+1=center'
p206
aS'w+1=claim'
p207
aS'w+1=demand'
p208
aS'w+1=directly'
p209
aS'w+1=drug'
p210
aS'w+1=dvd'
p211
aS'w+1=economy'
p212
aS'w+1=entry'
p213
aS'w+1=ethnic'
p214
aS'w+1=faction'
p215
aS'w+1=fiercely'
p216
aS'w+1=for'
p217
aS'w+1=formula'
p218
aS'w+1=hard'
p219
aS'w+1=here'
p220
aS'w+1=idea'
p221
aS'w+1=ideology'
p222
aS'w+1=in'
p223
aS'w+1=internationally'
p224
aS'w+1=like'
p225
aS'w+1=more'
p226
aS'w+1=need'
p227
aS'w+1=next'
p228
aS'w+1=non-binding'
p229
aS'w+1=often'
p230
aS'w+1=on'
p231
aS'w+1=or'
p232
aS'w+1=partisan'
p233
aS'w+1=party'
p234
aS'w+1=pipeline'
p235
aS'w+1=political'
p236
aS'w+1=publicly'
p237
aS'w+1=regionally'
p238
aS'w+1=resolution'
p239
aS'w+1=stake'
p240
aS'w+1=state'
p241
aS'w+1=state-by-state'
p242
aS'w+1=the'
p243
aS'w+1=this'
p244
aS'w+1=to'
p245
aS'w+1=tv'
p246
aS'w+1=very'
p247
aS'w+1=video'
p248
aS'w+1=vision'
p249
aS'w+1=well'
p250
aS'w+1=with'
p251
aS'w+1=world'
p252
aS"w+2=''"
p253
aS'w+2=,'
p254
aS'w+2=.'
p255
aS'w+2=20'
p256
aS'w+2=2005'
p257
aS'w+2=21'
p258
aS'w+2=22'
p259
aS'w+2=500'
p260
aS'w+2=81'
p261
aS'w+2=85'
p262
aS'w+2=?'
p263
aS'w+2=Barack'
p264
aS'w+2=Beijingin'
p265
aS'w+2=Brown'
p266
aS'w+2=China'
p267
aS'w+2=European'
p268
aS'w+2=Formula'
p269
aS'w+2=Hillary'
p270
aS'w+2=I'
p271
aS'w+2=Iowa'
p272
aS'w+2=John'
p273
aS'w+2=Middle'
p274
aS'w+2=Mulally'
p275
aS'w+2=NBA'
p276
aS'w+2=Russia'
p277
aS'w+2=Union'
p278
aS'w+2=a'
p279
aS'w+2=about'
p280
aS'w+2=against'
p281
aS'w+2=and'
p282
aS'w+2=another'
p283
aS'w+2=any'
p284
aS'w+2=anyone'
p285
aS'w+2=artificially-low'
p286
aS'w+2=at'
p287
aS'w+2=attention'
p288
aS'w+2=be'
p289
aS'w+2=become'
p290
aS'w+2=better'
p291
aS'w+2=big'
p292
aS'w+2=business'
p293
aS'w+2=by'
p294
aS'w+2=call'
p295
aS'w+2=candidate'
p296
aS'w+2=catch'
p297
aS'w+2=certain'
p298
aS'w+2=charity'
p299
aS'w+2=club'
p300
aS'w+2=college'
p301
aS'w+2=complement'
p302
aS'w+2=computer'
p303
aS'w+2=cotton'
p304
aS'w+2=domestic'
p305
aS'w+2=drug'
p306
aS'w+2=each'
p307
aS'w+2=effectively'
p308
aS'w+2=elsewhere'
p309
aS'w+2=female'
p310
aS'w+2=fill'
p311
aS'w+2=for'
p312
aS'w+2=form'
p313
aS'w+2=format'
p314
aS'w+2=gang'
p315
aS'w+2=government'
p316
aS'w+2=group'
p317
aS'w+2=have'
p318
aS'w+2=he'
p319
aS'w+2=import'
p320
aS'w+2=in'
p321
aS'w+2=individual'
p322
aS'w+2=industry'
p323
aS'w+2=influence'
p324
aS'w+2=job'
p325
aS'w+2=large'
p326
aS'w+2=larger'
p327
aS'w+2=last'
p328
aS'w+2=leadership'
p329
aS'w+2=live'
p330
aS'w+2=local'
p331
aS'w+2=maybe'
p332
aS'w+2=measure'
p333
aS'w+2=mining'
p334
aS'w+2=more'
p335
aS'w+2=most'
p336
aS'w+2=national'
p337
aS'w+2=need'
p338
aS'w+2=of'
p339
aS'w+2=oil'
p340
aS'w+2=on'
p341
aS'w+2=one'
p342
aS'w+2=or'
p343
aS'w+2=other'
p344
aS'w+2=over'
p345
aS'w+2=plant'
p346
aS'w+2=power'
p347
aS'w+2=pride'
p348
aS'w+2=produce'
p349
aS'w+2=profit'
p350
aS'w+2=record'
p351
aS'w+2=release'
p352
aS'w+2=replace'
p353
aS'w+2=result'
p354
aS'w+2=scarce'
p355
aS'w+2=several'
p356
aS'w+2=show'
p357
aS'w+2=south'
p358
aS'w+2=space'
p359
aS'w+2=star'
p360
aS'w+2=station'
p361
aS'w+2=symbol'
p362
aS'w+2=territory'
p363
aS'w+2=that'
p364
aS'w+2=the'
p365
aS'w+2=they'
p366
aS'w+2=three'
p367
aS'w+2=to'
p368
aS'w+2=tourist'
p369
aS'w+2=try'
p370
aS'w+2=upcome'
p371
aS'w+2=vehicle'
p372
aS'w+2=vote'
p373
aS'w+2=we'
p374
aS'w+2=week'
p375
aS'w+2=wholesale'
p376
aS'w+2=win'
p377
aS'w+2=with'
p378
aS'w+2=year'
p379
aS"w-1='s"
p380
aS'w-1=,'
p381
aS'w-1=.'
p382
aS'w-1=14'
p383
aS'w-1=Countries'
p384
aS'w-1=Democrats'
p385
aS'w-1=I'
p386
aS'w-1=a'
p387
aS'w-1=already'
p388
aS'w-1=also'
p389
aS'w-1=among'
p390
aS'w-1=and'
p391
aS'w-1=another'
p392
aS'w-1=as'
p393
aS'w-1=balance'
p394
aS'w-1=be'
p395
aS'w-1=better'
p396
aS'w-1=between'
p397
aS'w-1=businessesto'
p398
aS'w-1=by'
p399
aS'w-1=can'
p400
aS'w-1=candidate'
p401
aS'w-1=company'
p402
aS'w-1=contender'
p403
aS'w-1=could'
p404
aS'w-1=country'
p405
aS'w-1=cover'
p406
aS'w-1=currently'
p407
aS'w-1=day'
p408
aS'w-1=entertainment'
p409
aS'w-1=ever'
p410
aS'w-1=farm'
p411
aS'w-1=fear'
p412
aS'w-1=fisherman'
p413
aS'w-1=from'
p414
aS'w-1=get'
p415
aS'w-1=have'
p416
aS'w-1=he'
p417
aS'w-1=identify'
p418
aS'w-1=increasingly'
p419
aS'w-1=into'
p420
aS'w-1=investor'
p421
aS'w-1=it'
p422
aS'w-1=keep'
p423
aS'w-1=longer'
p424
aS'w-1=many'
p425
aS'w-1=may'
p426
aS'w-1=multiple'
p427
aS'w-1=must'
p428
aS'w-1=nation'
p429
aS'w-1=necessarily'
p430
aS'w-1=not'
p431
aS'w-1=now'
p432
aS'w-1=of'
p433
aS'w-1=official'
p434
aS'w-1=on'
p435
aS'w-1=only'
p436
aS'w-1=or'
p437
aS'w-1=out'
p438
aS'w-1=party'
p439
aS'w-1=people'
p440
aS'w-1=plan'
p441
aS'w-1=player'
p442
aS'w-1=question'
p443
aS'w-1=report'
p444
aS'w-1=seriously'
p445
aS'w-1=she'
p446
aS'w-1=small'
p447
aS'w-1=student'
p448
aS'w-1=take'
p449
aS'w-1=team'
p450
aS'w-1=that'
p451
aS'w-1=the'
p452
aS'w-1=these'
p453
aS'w-1=they'
p454
aS'w-1=to'
p455
aS'w-1=two'
p456
aS'w-1=vehicle'
p457
aS'w-1=we'
p458
aS'w-1=which'
p459
aS'w-1=while'
p460
aS'w-1=who'
p461
aS'w-1=will'
p462
aS'w-1=world'
p463
aS'w-1=yacht'
p464
aS"w-2='s"
p465
aS'w-2=,'
p466
aS'w-2=.'
p467
aS'w-2=32'
p468
aS'w-2=80'
p469
aS'w-2=875'
p470
aS'w-2=ADB'
p471
aS'w-2=Africa'
p472
aS'w-2=Algeria'
p473
aS'w-2=Asia'
p474
aS'w-2=Baseball'
p475
aS'w-2=Chilingarov'
p476
aS'w-2=Democrats'
p477
aS'w-2=February'
p478
aS'w-2=I'
p479
aS'w-2=Intel'
p480
aS'w-2=June'
p481
aS'w-2=Lilly'
p482
aS'w-2=Nigeria'
p483
aS'w-2=Obama'
p484
aS'w-2=Peru'
p485
aS'w-2=Romney'
p486
aS'w-2=Russia'
p487
aS'w-2=Singapore'
p488
aS'w-2=able'
p489
aS'w-2=addition'
p490
aS'w-2=african'
p491
aS'w-2=allow'
p492
aS'w-2=amid'
p493
aS'w-2=amputee'
p494
aS'w-2=and'
p495
aS'w-2=as'
p496
aS'w-2=athlete'
p497
aS'w-2=balance'
p498
aS'w-2=be'
p499
aS'w-2=block'
p500
aS'w-2=business'
p501
aS'w-2=can'
p502
aS'w-2=candidate'
p503
aS'w-2=capable'
p504
aS'w-2=chance'
p505
aS'w-2=college'
p506
aS'w-2=compare'
p507
aS'w-2=competition'
p508
aS'w-2=conflict'
p509
aS'w-2=conscience'
p510
aS'w-2=contender'
p511
aS'w-2=continue'
p512
aS'w-2=cotton'
p513
aS'w-2=could'
p514
aS'w-2=country'
p515
aS'w-2=crew'
p516
aS'w-2=decide'
p517
aS'w-2=define'
p518
aS'w-2=democratic'
p519
aS'w-2=diet'
p520
aS'w-2=divide'
p521
aS'w-2=do'
p522
aS'w-2=drive'
p523
aS'w-2=driver'
p524
aS'w-2=drum'
p525
aS'w-2=duplicate'
p526
aS'w-2=fact'
p527
aS'w-2=faction'
p528
aS'w-2=feeling'
p529
aS'w-2=film'
p530
aS'w-2=filmmaker'
p531
aS'w-2=fragmented'
p532
aS'w-2=free'
p533
aS'w-2=freely'
p534
aS'w-2=funding'
p535
aS'w-2=generation'
p536
aS'w-2=get'
p537
aS'w-2=goal'
p538
aS'w-2=group'
p539
aS'w-2=hard'
p540
aS'w-2=have'
p541
aS'w-2=he'
p542
aS'w-2=help'
p543
aS'w-2=here'
p544
aS'w-2=honor'
p545
aS'w-2=hope'
p546
aS'w-2=if'
p547
aS'w-2=in'
p548
aS'w-2=intend'
p549
aS'w-2=invite'
p550
aS'w-2=job'
p551
aS'w-2=korean'
p552
aS'w-2=many'
p553
aS'w-2=maze'
p554
aS'w-2=meet'
p555
aS'w-2=militia'
p556
aS'w-2=money'
p557
aS'w-2=multiple'
p558
aS'w-2=necessary'
p559
aS'w-2=need'
p560
aS'w-2=no'
p561
aS'w-2=not'
p562
aS'w-2=of'
p563
aS'w-2=one'
p564
aS'w-2=opportunity'
p565
aS'w-2=organism'
p566
aS'w-2=other'
p567
aS'w-2=party'
p568
aS'w-2=people'
p569
aS'w-2=phone'
p570
aS'w-2=player'
p571
aS'w-2=pop'
p572
aS'w-2=position'
p573
aS'w-2=potential'
p574
aS'w-2=prepare'
p575
aS'w-2=presidential'
p576
aS'w-2=private'
p577
aS'w-2=product'
p578
aS'w-2=ready'
p579
aS'w-2=report'
p580
aS'w-2=return'
p581
aS'w-2=round'
p582
aS'w-2=say'
p583
aS'w-2=scale'
p584
aS'w-2=schedule'
p585
aS'w-2=senegalese'
p586
aS'w-2=side'
p587
aS'w-2=sign'
p588
aS'w-2=situation'
p589
aS'w-2=small'
p590
aS'w-2=so'
p591
aS'w-2=splintered'
p592
aS'w-2=star'
p593
aS'w-2=state'
p594
aS'w-2=student'
p595
aS'w-2=such'
p596
aS'w-2=sum'
p597
aS'w-2=suppose'
p598
aS'w-2=that'
p599
aS'w-2=the'
p600
aS'w-2=there'
p601
aS'w-2=they'
p602
aS'w-2=those'
p603
aS'w-2=to'
p604
aS'w-2=together'
p605
aS'w-2=travel'
p606
aS'w-2=try'
p607
aS'w-2=unable'
p608
aS'w-2=university'
p609
aS'w-2=up'
p610
aS'w-2=vote'
p611
aS'w-2=voter'
p612
aS'w-2=vow'
p613
aS'w-2=we'
p614
aS'w-2=which'
p615
aS'w-2=who'
p616
aS'w-2=will'
p617
aS'w-2=wish'
p618
aS'w-2=woman'
p619
aS'w-2=world'
p620
aS'w-2=would'
p621
aS'w-2=year'
p622
aS'w-2=you'
p623
aS'xcomp=fill'
p624
aS'xcomp=leader'
p625
aS'xcomp=produce'
p626
aS'xcomp=profit'
p627
aS'xcomp=replace'
p628
aS'xcomp=secure'
p629
aS'xcomp=see'
p630
aS'xcomp=show'
p631
aS'xcomp=star'
p632
asS'dtype'
p633
cnumpy
float64
p634
sS'vocabulary_'
p635
(dp636
g372
I363
sg33
I24
sg443
I434
sg323
I314
sg614
I605
sg508
I499
sg569
I560
sg29
I20
sg470
I461
sg123
I114
sg248
I239
sg160
I151
sg150
I141
sg41
I32
sg153
I144
sg490
I481
sg25
I16
sg446
I437
sg429
I420
sg211
I202
sg394
I385
sg362
I353
sg401
I392
sg233
I224
sg560
I551
sg276
I267
sg573
I564
sg118
I109
sg113
I104
sg602
I593
sg70
I61
sg167
I158
sg536
I527
sg137
I128
sg88
I79
sg515
I506
sg309
I300
sg566
I557
sg477
I468
sg534
I525
sg510
I501
sg59
I50
sg535
I526
sg52
I43
sg613
I604
sg398
I389
sg275
I266
sg450
I441
sg26
I17
sg40
I31
sg549
I540
sg356
I347
sg38
I29
sg187
I178
sg20
I11
sg462
I453
sg140
I131
sg48
I39
sg288
I279
sg399
I390
sg14
I5
sg395
I386
sg556
I547
sg408
I399
sg162
I153
sg572
I563
sg600
I591
sg513
I504
sg16
I7
sg107
I98
sg212
I203
sg518
I509
sg39
I30
sg413
I404
sg322
I313
sg15
I6
sg616
I607
sg313
I304
sg445
I436
sg231
I222
sg553
I544
sg328
I319
sg215
I206
sg448
I439
sg232
I223
sg472
I463
sg416
I407
sg312
I303
sg249
I240
sg321
I312
sg326
I317
sg546
I537
sg630
I621
sg511
I502
sg404
I395
sg35
I26
sg389
I380
sg44
I35
sg60
I51
sg224
I215
sg184
I175
sg66
I57
sg373
I364
sg79
I70
sg290
I281
sg23
I14
sg310
I301
sg221
I212
sg436
I427
sg580
I571
sg294
I285
sg243
I234
sg349
I340
sg289
I280
sg539
I530
sg138
I129
sg180
I171
sg388
I379
sg473
I464
sg376
I367
sg170
I161
sg76
I67
sg217
I208
sg334
I325
sg199
I190
sg582
I573
sg265
I256
sg176
I167
sg151
I142
sg612
I603
sg351
I342
sg155
I146
sg486
I477
sg195
I186
sg576
I567
sg9
I0
sg497
I488
sg132
I123
sg272
I263
sg154
I145
sg422
I413
sg27
I18
sg608
I599
sg565
I556
sg626
I617
sg99
I90
sg374
I365
sg588
I579
sg135
I126
sg90
I81
sg225
I216
sg274
I265
sg347
I338
sg504
I495
sg80
I71
sg528
I519
sg594
I585
sg42
I33
sg359
I350
sg358
I349
sg108
I99
sg295
I286
sg425
I416
sg156
I147
sg571
I562
sg218
I209
sg337
I328
sg247
I238
sg287
I278
sg325
I316
sg171
I162
sg257
I248
sg463
I454
sg181
I172
sg159
I150
sg203
I194
sg327
I318
sg299
I290
sg563
I554
sg532
I523
sg586
I577
sg455
I446
sg120
I111
sg177
I168
sg12
I3
sg469
I460
sg335
I326
sg352
I343
sg144
I135
sg522
I513
sg575
I566
sg597
I588
sg371
I362
sg64
I55
sg131
I122
sg266
I257
sg222
I213
sg242
I233
sg298
I289
sg296
I287
sg62
I53
sg28
I19
sg197
I188
sg383
I374
sg198
I189
sg175
I166
sg507
I498
sg122
I113
sg407
I398
sg405
I396
sg333
I324
sg400
I391
sg487
I478
sg632
I623
sg185
I176
sg489
I480
sg505
I496
sg578
I569
sg512
I503
sg367
I358
sg103
I94
sg590
I581
sg216
I207
sg483
I474
sg114
I105
sg579
I570
sg58
I49
sg168
I159
sg415
I406
sg605
I596
sg340
I331
sg286
I277
sg396
I387
sg126
I117
sg117
I108
sg98
I89
sg474
I465
sg314
I305
sg330
I321
sg363
I354
sg380
I371
sg278
I269
sg498
I489
sg424
I415
sg519
I510
sg219
I210
sg277
I268
sg438
I429
sg228
I219
sg332
I323
sg30
I21
sg235
I226
sg525
I516
sg105
I96
sg68
I59
sg32
I23
sg409
I400
sg96
I87
sg93
I84
sg631
I622
sg378
I369
sg75
I66
sg577
I568
sg418
I409
sg552
I543
sg610
I601
sg603
I594
sg452
I443
sg129
I120
sg592
I583
sg440
I431
sg491
I482
sg67
I58
sg246
I237
sg112
I103
sg492
I483
sg343
I334
sg339
I330
sg133
I124
sg341
I332
sg245
I236
sg369
I360
sg95
I86
sg391
I382
sg283
I274
sg624
I615
sg377
I368
sg329
I320
sg601
I592
sg460
I451
sg357
I348
sg280
I271
sg444
I435
sg141
I132
sg465
I456
sg442
I433
sg353
I344
sg484
I475
sg441
I432
sg561
I552
sg494
I485
sg625
I616
sg291
I282
sg526
I517
sg22
I13
sg475
I466
sg521
I512
sg621
I612
sg587
I578
sg397
I388
sg346
I337
sg574
I565
sg147
I138
sg183
I174
sg593
I584
sg544
I535
sg78
I69
sg606
I597
sg303
I294
sg615
I606
sg434
I425
sg301
I292
sg506
I497
sg178
I169
sg305
I296
sg209
I200
sg116
I107
sg227
I218
sg256
I247
sg259
I250
sg24
I15
sg581
I572
sg46
I37
sg345
I336
sg56
I47
sg331
I322
sg37
I28
sg51
I42
sg157
I148
sg237
I228
sg609
I600
sg207
I198
sg145
I136
sg179
I170
sg55
I46
sg250
I241
sg121
I112
sg350
I341
sg598
I589
sg547
I538
sg503
I494
sg548
I539
sg385
I376
sg533
I524
sg205
I196
sg31
I22
sg142
I133
sg229
I220
sg208
I199
sg115
I106
sg297
I288
sg619
I610
sg375
I366
sg234
I225
sg555
I546
sg253
I244
sg124
I115
sg91
I82
sg482
I473
sg17
I8
sg130
I121
sg304
I295
sg595
I586
sg13
I4
sg92
I83
sg509
I500
sg210
I201
sg501
I492
sg411
I402
sg149
I140
sg315
I306
sg11
I2
sg338
I329
sg453
I444
sg541
I532
sg53
I44
sg109
I100
sg21
I12
sg258
I249
sg110
I101
sg204
I195
sg200
I191
sg161
I152
sg119
I110
sg308
I299
sg83
I74
sg84
I75
sg220
I211
sg73
I64
sg241
I232
sg493
I484
sg223
I214
sg368
I359
sg69
I60
sg106
I97
sg317
I308
sg82
I73
sg414
I405
sg379
I370
sg143
I134
sg201
I192
sg71
I62
sg390
I381
sg54
I45
sg517
I508
sg213
I204
sg437
I428
sg230
I221
sg311
I302
sg449
I440
sg193
I184
sg568
I559
sg481
I472
sg585
I576
sg45
I36
sg402
I393
sg172
I163
sg270
I261
sg520
I511
sg500
I491
sg384
I375
sg97
I88
sg554
I545
sg202
I193
sg557
I548
sg447
I438
sg267
I258
sg49
I40
sg10
I1
sg244
I235
sg81
I72
sg94
I85
sg420
I411
sg361
I352
sg499
I490
sg412
I403
sg173
I164
sg370
I361
sg174
I165
sg136
I127
sg125
I116
sg158
I149
sg403
I394
sg427
I418
sg433
I424
sg190
I181
sg302
I293
sg406
I397
sg300
I291
sg285
I276
sg65
I56
sg348
I339
sg127
I118
sg545
I536
sg456
I447
sg273
I264
sg540
I531
sg364
I355
sg524
I515
sg336
I327
sg435
I426
sg461
I452
sg537
I528
sg182
I173
sg284
I275
sg134
I125
sg596
I587
sg74
I65
sg307
I298
sg196
I187
sg514
I505
sg604
I595
sg282
I273
sg495
I486
sg100
I91
sg471
I462
sg430
I421
sg611
I602
sg111
I102
sg102
I93
sg607
I598
sg564
I555
sg128
I119
sg252
I243
sg77
I68
sg269
I260
sg542
I533
sg261
I252
sg262
I253
sg226
I217
sg251
I242
sg538
I529
sg34
I25
sg488
I479
sg583
I574
sg423
I414
sg89
I80
sg365
I356
sg166
I157
sg617
I608
sg165
I156
sg627
I618
sg467
I458
sg319
I310
sg550
I541
sg47
I38
sg86
I77
sg320
I311
sg529
I520
sg382
I373
sg381
I372
sg562
I553
sg85
I76
sg479
I470
sg527
I518
sg496
I487
sg570
I561
sg87
I78
sg342
I333
sg459
I450
sg567
I558
sg386
I377
sg530
I521
sg240
I231
sg152
I143
sg316
I307
sg324
I315
sg454
I445
sg63
I54
sg618
I609
sg387
I378
sg551
I542
sg558
I549
sg531
I522
sg591
I582
sg101
I92
sg417
I408
sg584
I575
sg439
I430
sg306
I297
sg589
I580
sg148
I139
sg464
I455
sg146
I137
sg18
I9
sg478
I469
sg61
I52
sg366
I357
sg457
I448
sg163
I154
sg206
I197
sg191
I182
sg214
I205
sg428
I419
sg622
I613
sg476
I467
sg421
I412
sg318
I309
sg620
I611
sg164
I155
sg238
I229
sg523
I514
sg260
I251
sg19
I10
sg72
I63
sg410
I401
sg360
I351
sg169
I160
sg36
I27
sg629
I620
sg344
I335
sg543
I534
sg192
I183
sg458
I449
sg50
I41
sg623
I614
sg485
I476
sg468
I459
sg139
I130
sg502
I493
sg419
I410
sg239
I230
sg263
I254
sg194
I185
sg186
I177
sg188
I179
sg189
I180
sg599
I590
sg255
I246
sg254
I245
sg236
I227
sg268
I259
sg516
I507
sg104
I95
sg628
I619
sg466
I457
sg392
I383
sg271
I262
sg57
I48
sg281
I272
sg432
I423
sg431
I422
sg264
I255
sg354
I345
sg426
I417
sg393
I384
sg293
I284
sg451
I442
sg43
I34
sg355
I346
sg559
I550
sg480
I471
sg292
I283
sg279
I270
ssS'separator'
p637
S'='
sS'sparse'
p638
I01
sb.