ccopy_reg
_reconstructor
p1
(csklearn.feature_extraction.dict_vectorizer
DictVectorizer
p2
c__builtin__
object
p3
NtRp4
(dp5
S'sort'
p6
I01
sS'feature_names_'
p7
(lp8
S'advcl=feed'
p9
aS'advcl=paralyze'
p10
aS'advcl=successful'
p11
aS'advmod=actually'
p12
aS'advmod=ago'
p13
aS'advmod=already'
p14
aS'advmod=elsewhere'
p15
aS'advmod=frequently'
p16
aS'advmod=higher'
p17
aS'advmod=just'
p18
aS'advmod=nationwide'
p19
aS'advmod=newly'
p20
aS'advmod=officially'
p21
aS'advmod=once'
p22
aS'advmod=poorly'
p23
aS'advmod=properly'
p24
aS'advmod=recently'
p25
aS'advmod=so'
p26
aS'advmod=soon'
p27
aS'advmod=then'
p28
aS'advmod=when'
p29
aS'attr=heirloom'
p30
aS'aux=be'
p31
aS'aux=can'
p32
aS'aux=could'
p33
aS'aux=have'
p34
aS'aux=to'
p35
aS'aux=will'
p36
aS'auxpass=be'
p37
aS'cc=and'
p38
aS'cc=but'
p39
aS'ccomp=back'
p40
aS'ccomp=fashion'
p41
aS'ccomp=threaten'
p42
aS'ccomp=tolerant'
p43
aS'complm=that'
p44
aS'conj=add'
p45
aS'conj=complete'
p46
aS'conj=convert'
p47
aS'conj=drive'
p48
aS'conj=government'
p49
aS'conj=have'
p50
aS'conj=maintain'
p51
aS'conj=research'
p52
aS'conj=run'
p53
aS'conj=train'
p54
aS'cop=be'
p55
aS'dep=Adua'
p56
aS'dep=allow'
p57
aS'dep=look'
p58
aS'dep=order'
p59
aS'dep=that'
p60
aS'dobj=#PRP#'
p61
aS'dobj=Chichi'
p62
aS'dobj=Gnassingbe'
p63
aS'dobj=Kibaki'
p64
aS'dobj=Thailand'
p65
aS'dobj=aerator'
p66
aS'dobj=antenna'
p67
aS'dobj=battery'
p68
aS'dobj=cabinet'
p69
aS'dobj=camera'
p70
aS'dobj=cap'
p71
aS'dobj=centrifuge'
p72
aS'dobj=chief'
p73
aS'dobj=compartment'
p74
aS'dobj=detector'
p75
aS'dobj=device'
p76
aS'dobj=equipment'
p77
aS'dobj=flag'
p78
aS'dobj=floor'
p79
aS'dobj=foundation'
p80
aS'dobj=government'
p81
aS'dobj=habitat'
p82
aS'dobj=heater'
p83
aS'dobj=kilometer'
p84
aS'dobj=laboratory'
p85
aS'dobj=law'
p86
aS'dobj=light'
p87
aS'dobj=malware'
p88
aS'dobj=measure'
p89
aS'dobj=missile'
p90
aS'dobj=module'
p91
aS'dobj=net'
p92
aS'dobj=network'
p93
aS'dobj=pair'
p94
aS'dobj=panel'
p95
aS'dobj=plane'
p96
aS'dobj=seal'
p97
aS'dobj=someone'
p98
aS'dobj=sort'
p99
aS'dobj=system'
p100
aS'dobj=tank'
p101
aS'dobj=that'
p102
aS'dobj=transmitter'
p103
aS'dobj=vault'
p104
aS'dobj=wind-turbine'
p105
aS'dobj=window'
p106
aS'mark=if'
p107
aS'mark=in'
p108
aS'nsubj=#PRP#'
p109
aS'nsubj=Administrators'
p110
aS'nsubj=Corps'
p111
aS'nsubj=Cross'
p112
aS'nsubj=Guest'
p113
aS'nsubj=Iran'
p114
aS'nsubj=NATO'
p115
aS'nsubj=Thailand'
p116
aS'nsubj=ceremony'
p117
aS'nsubj=contractor'
p118
aS'nsubj=crew'
p119
aS'nsubj=department'
p120
aS'nsubj=dock'
p121
aS'nsubj=example'
p122
aS'nsubj=government'
p123
aS'nsubj=husband'
p124
aS'nsubj=member'
p125
aS'nsubj=ministry'
p126
aS'nsubj=mission'
p127
aS'nsubj=possibility'
p128
aS'nsubj=president'
p129
aS'nsubj=that'
p130
aS'nsubj=which'
p131
aS'nsubj=worker'
p132
aS'nsubjpass=#PRP#'
p133
aS'nsubjpass=band'
p134
aS'nsubjpass=detector'
p135
aS'nsubjpass=device'
p136
aS'nsubjpass=pump'
p137
aS'nsubjpass=system'
p138
aS'nsubjpass=technology'
p139
aS'nsubjpass=that'
p140
aS'nsubjpass=which'
p141
aS'nsubjpass=who'
p142
aS'partmod=create'
p143
aS'partmod=take'
p144
aS'prep=about'
p145
aS'prep=after'
p146
aS'prep=along'
p147
aS'prep=as'
p148
aS'prep=at'
p149
aS'prep=by'
p150
aS'prep=for'
p151
aS'prep=in'
p152
aS'prep=near'
p153
aS'prep=on'
p154
aS'prep=over'
p155
aS'prep=since'
p156
aS'prep=throughout'
p157
aS'prep=to'
p158
aS'prep=with'
p159
aS'prep=within'
p160
aS'tmod=#DATE#'
p161
aS'tmod=December'
p162
aS'tmod=year'
p163
aS'w+1=,'
p164
aS'w+1=.'
p165
aS'w+1=10,000'
p166
aS'w+1=6,000'
p167
aS'w+1=May'
p168
aS'w+1=President'
p169
aS'w+1=Prime'
p170
aS'w+1=Umaru'
p171
aS'w+1=a'
p172
aS'w+1=after'
p173
aS'w+1=and'
p174
aS'w+1=as'
p175
aS'w+1=at'
p176
aS'w+1=burial'
p177
aS'w+1=by'
p178
aS'w+1=camera'
p179
aS'w+1=chimney'
p180
aS'w+1=five'
p181
aS'w+1=for'
p182
aS'w+1=he'
p183
aS'w+1=high'
p184
aS'w+1=high-tech'
p185
aS'w+1=higher'
p186
aS'w+1=him17'
p187
aS'w+1=in'
p188
aS'w+1=interceptor'
p189
aS'w+1=it'
p190
aS'w+1=its'
p191
aS'w+1=low-cost'
p192
aS'w+1=low-flow'
p193
aS'w+1=more'
p194
aS'w+1=near'
p195
aS'w+1=new'
p196
aS'w+1=on'
p197
aS'w+1=one'
p198
aS'w+1=public'
p199
aS'w+1=seal'
p200
aS'w+1=security'
p201
aS'w+1=shark'
p202
aS'w+1=solar'
p203
aS'w+1=some'
p204
aS'w+1=someone'
p205
aS'w+1=strict'
p206
aS'w+1=that'
p207
aS'w+1=the'
p208
aS'w+1=these'
p209
aS'w+1=they'
p210
aS'w+1=to'
p211
aS'w+1=two'
p212
aS'w+1=video'
p213
aS'w+1=wind'
p214
aS'w+1=within'
p215
aS"w+2=''"
p216
aS'w+2=29'
p217
aS'w+2=54,000'
p218
aS'w+2=Chewa'
p219
aS'w+2=Columbus'
p220
aS'w+2=Dap'
p221
aS'w+2=Faure'
p222
aS'w+2=January'
p223
aS'w+2=Minister'
p224
aS'w+2=Mr.'
p225
aS'w+2=Mwai'
p226
aS'w+2=November'
p227
aS'w+2=Prime'
p228
aS'w+2=Tibetan'
p229
aS'w+2=U.N.'
p230
aS'w+2=Villa'
p231
aS'w+2=Yar'
p232
aS'w+2=a'
p233
aS'w+2=about'
p234
aS'w+2=advanced'
p235
aS'w+2=aerator'
p236
aS'w+2=and'
p237
aS'w+2=battery'
p238
aS'w+2=camera'
p239
aS'w+2=candidate'
p240
aS'w+2=cap'
p241
aS'w+2=capacity'
p242
aS'w+2=caretaker'
p243
aS'w+2=commission'
p244
aS'w+2=comparatively'
p245
aS'w+2=country'
p246
aS'w+2=democratic'
p247
aS'w+2=double'
p248
aS'w+2=driver'
p249
aS'w+2=european-built'
p250
aS'w+2=first'
p251
aS'w+2=five'
p252
aS'w+2=floor'
p253
aS'w+2=foundation'
p254
aS'w+2=frequency'
p255
aS'w+2=friendlier'
p256
aS'w+2=get'
p257
aS'w+2=habitat'
p258
aS'w+2=head'
p259
aS'w+2=in'
p260
aS'w+2=interim'
p261
aS'w+2=internationally'
p262
aS'w+2=islamic'
p263
aS'w+2=it'
p264
aS'w+2=kilometer'
p265
aS'w+2=larger'
p266
aS'w+2=launch'
p267
aS'w+2=light'
p268
aS'w+2=maintain'
p269
aS'w+2=malware'
p270
aS'w+2=measure'
p271
aS'w+2=million'
p272
aS'w+2=missile'
p273
aS'w+2=nationwide'
p274
aS'w+2=net'
p275
aS'w+2=new'
p276
aS'w+2=on'
p277
aS'w+2=panel'
p278
aS'w+2=power'
p279
aS'w+2=pressurized'
p280
aS'w+2=recent'
p281
aS'w+2=school'
p282
aS'w+2=secular'
p283
aS'w+2=security'
p284
aS'w+2=separate'
p285
aS'w+2=serve'
p286
aS'w+2=solar'
p287
aS'w+2=sort'
p288
aS'w+2=spy'
p289
aS'w+2=system'
p290
aS'w+2=telephone'
p291
aS'w+2=temporary'
p292
aS'w+2=the'
p293
aS'w+2=third'
p294
aS'w+2=three'
p295
aS'w+2=to'
p296
aS'w+2=two'
p297
aS'w+2=up'
p298
aS'w+2=uranium'
p299
aS'w+2=vault'
p300
aS'w+2=vertical'
p301
aS'w+2=who'
p302
aS'w+2=window'
p303
aS'w+2=year'
p304
aS'w-1=,'
p305
aS'w-1=Corps'
p306
aS'w-1=Musharraf'
p307
aS'w-1=NATO'
p308
aS'w-1=Thailand'
p309
aS'w-1=and'
p310
aS'w-1=be'
p311
aS'w-1=by'
p312
aS'w-1=contractor'
p313
aS'w-1=could'
p314
aS'w-1=council'
p315
aS'w-1=crew'
p316
aS'w-1=current'
p317
aS'w-1=dike'
p318
aS'w-1=frequently'
p319
aS'w-1=government'
p320
aS'w-1=have'
p321
aS'w-1=he'
p322
aS'w-1=help'
p323
aS'w-1=husband'
p324
aS'w-1=if'
p325
aS'w-1=include'
p326
aS'w-1=leader'
p327
aS'w-1=line'
p328
aS'w-1=military'
p329
aS'w-1=newly'
p330
aS'w-1=of'
p331
aS'w-1=official'
p332
aS'w-1=officially'
p333
aS'w-1=poorly'
p334
aS'w-1=properly'
p335
aS'w-1=recently'
p336
aS'w-1=soon'
p337
aS'w-1=that'
p338
aS'w-1=to'
p339
aS'w-1=will'
p340
aS'w-2=,'
p341
aS'w-2=.'
p342
aS'w-2=2006'
p343
aS'w-2=Cross'
p344
aS'w-2=Ethiopia'
p345
aS'w-2=Guest'
p346
aS'w-2=Hamas'
p347
aS'w-2=Hezbollah'
p348
aS'w-2=Iran'
p349
aS'w-2=Mercy'
p350
aS'w-2=Mr.'
p351
aS'w-2=Pumps'
p352
aS'w-2=Republic'
p353
aS'w-2=Union'
p354
aS'w-2=actually'
p355
aS'w-2=agree'
p356
aS'w-2=already'
p357
aS'w-2=and'
p358
aS'w-2=authority'
p359
aS'w-2=bay'
p360
aS'w-2=be'
p361
aS'w-2=bind'
p362
aS'w-2=build'
p363
aS'w-2=business'
p364
aS'w-2=constitution'
p365
aS'w-2=country'
p366
aS'w-2=coverage'
p367
aS'w-2=deliver'
p368
aS'w-2=device'
p369
aS'w-2=easy'
p370
aS'w-2=election'
p371
aS'w-2=fence'
p372
aS'w-2=government'
p373
aS'w-2=have'
p374
aS'w-2=hope'
p375
aS'w-2=if'
p376
aS'w-2=inexpensive'
p377
aS'w-2=interim'
p378
aS'w-2=issue'
p379
aS'w-2=it'
p380
aS'w-2=just'
p381
aS'w-2=launch'
p382
aS'w-2=link'
p383
aS'w-2=make'
p384
aS'w-2=military'
p385
aS'w-2=ministry'
p386
aS'w-2=month'
p387
aS'w-2=new'
p388
aS'w-2=objective'
p389
aS'w-2=order'
p390
aS'w-2=phone'
p391
aS'w-2=plan'
p392
aS'w-2=possibility'
p393
aS'w-2=power'
p394
aS'w-2=president'
p395
aS'w-2=program'
p396
aS'w-2=purchase'
p397
aS'w-2=result'
p398
aS'w-2=roof'
p399
aS'w-2=rule'
p400
aS'w-2=see'
p401
aS'w-2=she'
p402
aS'w-2=shuttle'
p403
aS'w-2=so'
p404
aS'w-2=system'
p405
aS'w-2=take'
p406
aS'w-2=that'
p407
aS'w-2=the'
p408
aS'w-2=they'
p409
aS'w-2=to'
p410
aS'w-2=walk'
p411
aS'w-2=want'
p412
aS'w-2=we'
p413
aS'w-2=wealth'
p414
aS'w-2=when'
p415
aS'w-2=which'
p416
aS'w-2=will'
p417
aS'w-2=worker'
p418
aS'w-2=year'
p419
aS'xcomp=carry'
p420
aS'xcomp=come'
p421
aS'xcomp=conserve'
p422
aS'xcomp=double'
p423
aS'xcomp=enrich'
p424
aS'xcomp=guard'
p425
aS'xcomp=help'
p426
aS'xcomp=monitor'
p427
aS'xcomp=prevent'
p428
aS'xcomp=protect'
p429
aS'xcomp=record'
p430
aS'xcomp=routine'
p431
aS'xcomp=serve'
p432
aS'xcomp=vent'
p433
asS'dtype'
p434
cnumpy
float64
p435
sS'vocabulary_'
p436
(dp437
g28
I19
sg86
I77
sg119
I110
sg189
I180
sg249
I240
sg413
I404
sg138
I129
sg99
I90
sg213
I204
sg371
I362
sg62
I53
sg388
I379
sg422
I413
sg69
I60
sg381
I372
sg409
I400
sg49
I40
sg150
I141
sg255
I246
sg266
I257
sg366
I357
sg207
I198
sg123
I114
sg94
I85
sg281
I272
sg254
I245
sg26
I17
sg427
I418
sg18
I9
sg46
I37
sg340
I331
sg232
I223
sg312
I303
sg162
I153
sg311
I302
sg408
I399
sg236
I227
sg394
I385
sg262
I253
sg23
I14
sg382
I373
sg330
I321
sg244
I235
sg256
I247
sg127
I118
sg246
I237
sg221
I212
sg296
I287
sg197
I188
sg397
I388
sg251
I242
sg282
I273
sg386
I377
sg321
I312
sg85
I76
sg260
I251
sg264
I255
sg367
I358
sg222
I213
sg302
I293
sg314
I305
sg22
I13
sg145
I136
sg32
I23
sg44
I35
sg75
I66
sg253
I244
sg181
I172
sg59
I50
sg118
I109
sg407
I398
sg208
I199
sg105
I96
sg192
I183
sg324
I315
sg210
I201
sg45
I36
sg133
I124
sg152
I143
sg335
I326
sg182
I173
sg43
I34
sg170
I161
sg346
I337
sg158
I149
sg215
I206
sg291
I282
sg268
I259
sg13
I4
sg390
I381
sg389
I380
sg421
I412
sg125
I116
sg179
I170
sg171
I162
sg174
I165
sg130
I121
sg308
I299
sg373
I364
sg111
I102
sg41
I32
sg325
I316
sg66
I57
sg214
I205
sg360
I351
sg316
I307
sg139
I130
sg107
I98
sg279
I270
sg108
I99
sg400
I391
sg356
I347
sg63
I54
sg166
I157
sg235
I226
sg96
I87
sg231
I222
sg364
I355
sg403
I394
sg110
I101
sg160
I151
sg147
I138
sg263
I254
sg177
I168
sg339
I330
sg61
I52
sg128
I119
sg351
I342
sg143
I134
sg124
I115
sg104
I95
sg95
I86
sg280
I271
sg241
I232
sg287
I278
sg240
I231
sg57
I48
sg406
I397
sg355
I346
sg155
I146
sg175
I166
sg79
I70
sg176
I167
sg352
I343
sg183
I174
sg344
I335
sg58
I49
sg140
I131
sg271
I262
sg16
I7
sg385
I376
sg433
I424
sg283
I274
sg295
I286
sg225
I216
sg212
I203
sg29
I20
sg219
I210
sg402
I393
sg151
I142
sg60
I51
sg411
I402
sg92
I83
sg93
I84
sg187
I178
sg432
I423
sg37
I28
sg299
I290
sg368
I359
sg272
I263
sg21
I12
sg377
I368
sg129
I120
sg193
I184
sg87
I78
sg30
I21
sg209
I200
sg285
I276
sg286
I277
sg98
I89
sg195
I186
sg191
I182
sg76
I67
sg116
I107
sg137
I128
sg304
I295
sg387
I378
sg113
I104
sg81
I72
sg277
I268
sg211
I202
sg310
I301
sg200
I191
sg17
I8
sg259
I250
sg50
I41
sg159
I150
sg414
I405
sg369
I360
sg303
I294
sg328
I319
sg10
I1
sg399
I390
sg229
I220
sg252
I243
sg426
I417
sg297
I288
sg126
I117
sg383
I374
sg52
I43
sg206
I197
sg19
I10
sg103
I94
sg188
I179
sg363
I354
sg97
I88
sg267
I258
sg306
I297
sg349
I340
sg101
I92
sg42
I33
sg239
I230
sg416
I407
sg332
I323
sg180
I171
sg73
I64
sg70
I61
sg157
I148
sg292
I283
sg217
I208
sg230
I221
sg429
I420
sg36
I27
sg14
I5
sg275
I266
sg276
I267
sg205
I196
sg71
I62
sg74
I65
sg78
I69
sg288
I279
sg313
I304
sg431
I422
sg392
I383
sg376
I367
sg334
I325
sg336
I327
sg395
I386
sg380
I371
sg198
I189
sg357
I348
sg68
I59
sg72
I63
sg223
I214
sg216
I207
sg248
I239
sg372
I363
sg227
I218
sg144
I135
sg84
I75
sg301
I292
sg396
I387
sg309
I300
sg20
I11
sg142
I133
sg374
I365
sg38
I29
sg337
I328
sg261
I252
sg178
I169
sg319
I310
sg112
I103
sg415
I406
sg136
I127
sg289
I280
sg343
I334
sg362
I353
sg163
I154
sg278
I269
sg190
I181
sg102
I93
sg109
I100
sg270
I261
sg401
I392
sg39
I30
sg345
I336
sg257
I248
sg350
I341
sg323
I314
sg294
I285
sg33
I24
sg307
I298
sg359
I350
sg203
I194
sg56
I47
sg361
I352
sg199
I190
sg300
I291
sg154
I145
sg91
I82
sg273
I264
sg428
I419
sg228
I219
sg290
I281
sg131
I122
sg226
I217
sg80
I71
sg247
I238
sg168
I159
sg274
I265
sg88
I79
sg165
I156
sg25
I16
sg100
I91
sg115
I106
sg117
I108
sg83
I74
sg424
I415
sg134
I125
sg347
I338
sg412
I403
sg327
I318
sg298
I289
sg375
I366
sg405
I396
sg331
I322
sg410
I401
sg237
I228
sg161
I152
sg358
I349
sg348
I339
sg370
I361
sg67
I58
sg12
I3
sg250
I241
sg234
I225
sg318
I309
sg48
I39
sg391
I382
sg55
I46
sg418
I409
sg202
I193
sg156
I147
sg329
I320
sg9
I0
sg398
I389
sg51
I42
sg293
I284
sg149
I140
sg417
I408
sg148
I139
sg341
I332
sg342
I333
sg315
I306
sg64
I55
sg34
I25
sg65
I56
sg11
I2
sg305
I296
sg269
I260
sg27
I18
sg353
I344
sg201
I192
sg47
I38
sg224
I215
sg420
I411
sg242
I233
sg141
I132
sg184
I175
sg53
I44
sg404
I395
sg185
I176
sg384
I375
sg322
I313
sg284
I275
sg121
I112
sg194
I185
sg379
I370
sg169
I160
sg146
I137
sg89
I80
sg419
I410
sg245
I236
sg423
I414
sg40
I31
sg82
I73
sg54
I45
sg317
I308
sg135
I126
sg238
I229
sg425
I416
sg320
I311
sg106
I97
sg122
I113
sg430
I421
sg77
I68
sg173
I164
sg167
I158
sg120
I111
sg393
I384
sg35
I26
sg265
I256
sg196
I187
sg132
I123
sg114
I105
sg333
I324
sg164
I155
sg258
I249
sg90
I81
sg204
I195
sg15
I6
sg218
I209
sg153
I144
sg354
I345
sg220
I211
sg186
I177
sg243
I234
sg365
I356
sg172
I163
sg378
I369
sg326
I317
sg338
I329
sg31
I22
sg233
I224
sg24
I15
ssS'separator'
p438
S'='
sS'sparse'
p439
I01
sb.