ccopy_reg
_reconstructor
p1
(csklearn.feature_extraction.dict_vectorizer
DictVectorizer
p2
c__builtin__
object
p3
NtRp4
(dp5
S'vocabulary_'
p6
(dp7
S'w+2=easily'
p8
I859
sS'w-1=Asia'
p9
I1049
sS'advmod=more'
p10
I101
sS'nsubj=relation'
p11
I500
sS'w-2=shiver'
p12
I1485
sS'w+2=health'
p13
I892
sS'w+2=but'
p14
I813
sS'dobj=action'
p15
I220
sS'nsubj=team'
p16
I523
sS'dobj=condition'
p17
I233
sS'w-1=Teresa'
p18
I1084
sS'nsubj=Israelis'
p19
I366
sS'nsubj=business'
p20
I417
sS'w-1=athlete'
p21
I1102
sS'w+1=prolonged'
p22
I712
sS'w-1=loss'
p23
I1170
sS'nsubj=rebel'
p24
I498
sS'dobj=fracture'
p25
I263
sS'w+1=wound'
p26
I759
sS'conj=say'
p27
I187
sS'nsubj=Kaiser'
p28
I367
sS'nsubj=Zimbabweans'
p29
I405
sS'w+2=recent'
p30
I973
sS'w+2=intensive'
p31
I910
sS'w-2=Aklilu'
p32
I1264
sS'w-1=Bo'
p33
I1052
sS'w-2=Democratic'
p34
I1274
sS'w-1=will'
p35
I1241
sS'nsubj=number'
p36
I476
sS'w-2=people'
p37
I1461
sS'w-1=Bissau'
p38
I1051
sS'nsubj=strength'
p39
I518
sS'nsubj=Indonesia'
p40
I363
sS'w-2=thousand'
p41
I1513
sS'w-2=where'
p42
I1531
sS'nsubj=#PRP#'
p43
I337
sS'w-2=poor'
p44
I1463
sS'w+2=highest'
p45
I896
sS'w-2=who'
p46
I1533
sS'w-2=2006'
p47
I1258
sS'w+1=on'
p48
I699
sS'w+2=sharp'
p49
I988
sS'w-1=some'
p50
I1221
sS'w+2=my'
p51
I943
sS'w-2=Africa'
p52
I1263
sS'w-1=culture'
p53
I1123
sS'w+1=brutal'
p54
I618
sS'w+2=violence'
p55
I1032
sS'ccomp=have'
p56
I145
sS'w-1=could'
p57
I1120
sS'w+2=you'
p58
I1043
sS'pobj=syndrome'
p59
I548
sS'w+2=rare'
p60
I972
sS'nsubj=destination'
p61
I442
sS'advcl=be'
p62
I13
sS'w-2=that'
p63
I1505
sS'w+1=the'
p64
I738
sS'w+2=crippling'
p65
I830
sS'dobj=shock'
p66
I304
sS'w-1=already'
p67
I1096
sS'w-2=number'
p68
I1449
sS'dobj=weight'
p69
I319
sS'dobj=death'
p70
I240
sS'mark=about'
p71
I325
sS'w-2=citizen'
p72
I1353
sS'w-1=Sharon'
p73
I1081
sS'advmod=immensely'
p74
I96
sS'w+2=further'
p75
I881
sS'w-2=Party'
p76
I1303
sS'w-1=side'
p77
I1220
sS'dobj=flooding'
p78
I261
sS'w-2=definitely'
p79
I1374
sS'nsubj=minister'
p80
I472
sS'nsubj=Asia'
p81
I342
sS'w-1=mother'
p82
I1182
sS'nsubj=member'
p83
I470
sS'advmod=enough'
p84
I84
sS'nsubj=that'
p85
I525
sS'w-2=Ariel'
p86
I1266
sS'xcomp=pass'
p87
I1551
sS'advmod=here'
p88
I93
sS'w+2=heart'
p89
I893
sS'w-2=sector'
p90
I1482
sS'advcl=gear'
p91
I28
sS'tmod=favorite'
p92
I586
sS'nsubj=group'
p93
I459
sS'w+2=since'
p94
I996
sS'acomp=severe'
p95
I6
sS'conj=be'
p96
I158
sS'w-2=democracy'
p97
I1375
sS'partmod=lead'
p98
I546
sS'nsubj=Kashmir'
p99
I368
sS'w+1=blame'
p100
I616
sS'w+2=diarrhea'
p101
I842
sS'w-2=displaced'
p102
I1379
sS'w-2=find'
p103
I1395
sS'w-2=Somalia'
p104
I1307
sS'w+2=escalate'
p105
I867
sS'w-2=entertainment'
p106
I1386
sS'dobj=growth'
p107
I264
sS'advmod=where'
p108
I123
sS'nsubj=Darfur'
p109
I353
sS'w-2=export'
p110
I1390
sS'w-2=community'
p111
I1357
sS'advcl=try'
p112
I61
sS'w+1=health'
p113
I663
sS'prep=include'
p114
I568
sS'nsubj=hope'
p115
I461
sS'advcl=want'
p116
I65
sS'w+1=both'
p117
I617
sS'w+2=hardship'
p118
I887
sS'w+2=politically'
p119
I960
sS'w-1=alone'
p120
I1095
sS'w-1=to'
p121
I1230
sS'w-1=know'
p122
I1167
sS'advmod=especially'
p123
I85
sS'xcomp=force'
p124
I1547
sS'w-2=do'
p125
I1380
sS'dobj=loss'
p126
I275
sS'w-2=Liberal'
p127
I1289
sS'conj=vote'
p128
I199
sS'nsubj=Mauritania'
p129
I375
sS'acomp=much'
p130
I5
sS'w-2=Torres'
p131
I1311
sS'dobj=disaster'
p132
I250
sS'w-1=marriage'
p133
I1174
sS'nsubj=Teresa'
p134
I397
sS'nsubj=company'
p135
I429
sS'w+1=he'
p136
I661
sS'w-1=would'
p137
I1246
sS'w-2=Geneva'
p138
I1276
sS'advcl=greater'
p139
I30
sS'w-2=LDP'
p140
I1288
sS'w+1=through'
p141
I742
sS'w-1=dumpsite'
p142
I1135
sS'w+2=because'
p143
I801
sS'advmod=most'
p144
I102
sS'w-2=likely'
p145
I1429
sS'w-1=more'
p146
I1181
sS'nsubj=Republicans'
p147
I390
sS'w+1=terror'
p148
I736
sS'nsubj=several'
p149
I510
sS'w-2=Guinea'
p150
I1277
sS'xcomp=say'
p151
I1552
sS'w-1=allegedly'
p152
I1094
sS'w-2=horror'
p153
I1413
sS'w-1=force'
p154
I1145
sS'prep=despite'
p155
I561
sS'conj=live'
p156
I179
sS'nsubj=Samphan'
p157
I392
sS'w+2=terrorism'
p158
I1013
sS'nsubj=judiciary'
p159
I466
sS'w-1=party'
p160
I1198
sS'w+1=hard'
p161
I659
sS'w+2=Russia'
p162
I778
sS'w-1=injustice'
p163
I1164
sS'nsubj=Cuba'
p164
I352
sS'w-2=infection'
p165
I1422
sS'dep=face'
p166
I206
sS'w+2=poor'
p167
I961
sS'w+1=significant'
p168
I725
sS'w+2=million'
p169
I934
sS'w+2=decline'
p170
I837
sS'nsubj=Gujarat'
p171
I358
sS'advcl=attack'
p172
I11
sS'w-2=those'
p173
I1512
sS'w+2=trauma'
p174
I1025
sS'nsubj=India'
p175
I362
sS'advcl=#NUMBER#'
p176
I7
sS'w+2=fate'
p177
I870
sS'nsubj=tree'
p178
I529
sS'w-1=project'
p179
I1210
sS'w-2=land'
p180
I1426
sS'w-2=stock'
p181
I1496
sS'w-1=inevitably'
p182
I1162
sS'advmod=much'
p183
I103
sS'w+2=symptom'
p184
I1009
sS'w+2=head'
p185
I891
sS'w+2=biggest'
p186
I803
sS'w+1=frequent'
p187
I651
sS'advmod=far'
p188
I88
sS'w+1=hearing'
p189
I664
sS'w-2=civilian'
p190
I1355
sS'acomp=less'
p191
I2
sS'w-1=never'
p192
I1185
sS'dobj=medicine'
p193
I280
sS'w-2=pain'
p194
I1457
sS'w-2=go'
p195
I1403
sS'nsubj=state'
p196
I516
sS'nsubj=stock'
p197
I517
sS'w+2=decade'
p198
I836
sS'dobj=ankle'
p199
I222
sS'w+2=this'
p200
I1021
sS'w-2=Institute'
p201
I1283
sS'w+1=debilitating'
p202
I626
sS'conj=enjoy'
p203
I168
sS'dobj=ostracism'
p204
I287
sS'dobj=neglect'
p205
I284
sS'w-1=other'
p206
I1196
sS'w-2=family'
p207
I1393
sS'w-2=million'
p208
I1437
sS'w+2=25'
p209
I767
sS'w-2=expect'
p210
I1389
sS'mark=while'
p211
I333
sS'w-2=return'
p212
I1478
sS'dep=so'
p213
I215
sS'ccomp=fall'
p214
I143
sS'nsubj=area'
p215
I411
sS'dobj=first'
p216
I260
sS'nsubj=credibility'
p217
I435
sS'w-2=rape'
p218
I1470
sS'w+1=slower'
p219
I726
sS'w-2=area'
p220
I1334
sS'dobj=epidemic'
p221
I254
sS'w+2=drug-resistant'
p222
I856
sS'w-1=mistreatment'
p223
I1180
sS'nsubj=client'
p224
I424
sS'w+1=scar'
p225
I720
sS'cc=or'
p226
I138
sS'w+2=military'
p227
I933
sS'nsubj=community'
p228
I428
sS'w-2=still'
p229
I1495
sS'w-1=toward'
p230
I1231
sS'nsubj=family'
p231
I452
sS'w-2=in'
p232
I1418
sS'w-1=Democrats'
p233
I1056
sS'w-2=it'
p234
I1423
sS'w+1=permanent'
p235
I707
sS'parataxis=deliver'
p236
I542
sS'w-1=States'
p237
I1083
sS'w+1=far'
p238
I643
sS'w+2=string'
p239
I1004
sS'w-2=standing'
p240
I1491
sS'w+2=die'
p241
I844
sS'dobj=blame'
p242
I226
sS'conj=undergo'
p243
I196
sS'nsubj=woman'
p244
I537
sS'conj=couple'
p245
I163
sS'dobj=amputation'
p246
I221
sS'nsubj=patience'
p247
I482
sS'w-2=Martinique'
p248
I1291
sS'nsubj=dictator'
p249
I443
sS'w+2=double'
p250
I852
sS'advmod=also'
p251
I75
sS'w+1=severe'
p252
I724
sS'w-1=few'
p253
I1144
sS'mark=although'
p254
I327
sS'nsubj=region'
p255
I499
sS'w-1=criminal'
p256
I1122
sS'w-2=States'
p257
I1308
sS'w-1=protection'
p258
I1212
sS'advmod=why'
p259
I124
sS'w-2=have'
p260
I1407
sS'nsubj=student'
p261
I519
sS'w+1=will'
p262
I757
sS'w-1=frequently'
p263
I1146
sS'w-2=what'
p264
I1529
sS'w-1=they'
p265
I1228
sS'w-1=person'
p266
I1203
sS'w+2=early'
p267
I858
sS'w+1=if'
p268
I671
sS'w+1=terrible'
p269
I735
sS'w+1=in'
p270
I673
sS'w-1=Leterme'
p271
I1070
sS'advcl=conduct'
p272
I17
sS'w+2=condition'
p273
I825
sS'dobj=that'
p274
I311
sS'w+1=real'
p275
I716
sS'conj=surge'
p276
I193
sS'w+2=harsh'
p277
I888
sS'w+2=major'
p278
I923
sS'w+2=little'
p279
I919
sS'w+2=year'
p280
I1042
sS'w-2=danger'
p281
I1372
sS'w-1=Minister'
p282
I1072
sS'dobj=#NUMBER#'
p283
I218
sS'w-1=boat'
p284
I1105
sS'dobj=bout'
p285
I229
sS'w+2=cut'
p286
I833
sS'w-2=ruling'
p287
I1480
sS'w-2=Vegas'
p288
I1315
sS'w-1=without'
p289
I1242
sS'advmod=all'
p290
I71
sS'advcl=do'
p291
I22
sS'nsubj=survivor'
p292
I521
sS'w-2=tour'
p293
I1516
sS'dobj=extinction'
p294
I255
sS'w-1=group'
p295
I1151
sS'w-1=themselves'
p296
I1226
sS'w+1=unduly'
p297
I749
sS'w-1=damage'
p298
I1126
sS'mark=after'
p299
I326
sS'w-1=economy'
p300
I1136
sS'advcl=suffer'
p301
I58
sS'advcl=cut'
p302
I19
sS'nsubj=Kikuyu'
p303
I370
sS'w-1=do'
p304
I1134
sS'w+2=disenchantment'
p305
I850
sS'w+2=great'
p306
I885
sS'nsubj=responsibility'
p307
I505
sS'dobj=conflict'
p308
I234
sS'w+2=brutal'
p309
I812
sS'w+2=chronic'
p310
I821
sS'nsubj=most'
p311
I473
sS'nsubj=athlete'
p312
I414
sS'dobj=major'
p313
I277
sS'w-2=operation'
p314
I1454
sS'dobj=form'
p315
I262
sS'w+1=to'
p316
I743
sS'w-2=to'
p317
I1514
sS'w-2=and'
p318
I1327
sS'conj=contemplate'
p319
I161
sS'w+1=these'
p320
I739
sS'w+1=12'
p321
I598
sS'w+2=first'
p322
I871
sS'w-2=republic'
p323
I1475
sS'w-1=zimbabwean'
p324
I1249
sS'nsubj=McDonald'
p325
I377
sS'w-2=worker'
p326
I1538
sS'w-2=he'
p327
I1408
sS'w+1=which'
p328
I754
sS'nsubj=township'
p329
I528
sS'w-2=relationship'
p330
I1473
sS'w+1=engine'
p331
I639
sS'w+2=would'
p332
I1040
sS'w-2=Venezuela'
p333
I1316
sS'acomp=most'
p334
I4
sS'w+2=he'
p335
I890
sS'w-1=industry'
p336
I1161
sS'w+1=what'
p337
I752
sS'w+1=really'
p338
I717
sS'nsubj=First'
p339
I357
sS'w+2=misperception'
p340
I936
sS'w+1=serious'
p341
I721
sS'nsubj=solution'
p342
I513
sS'w+2=shock'
p343
I990
sS'w-2=one'
p344
I1453
sS'nsubj=Fangolo'
p345
I356
sS'w-2=low-lying'
p346
I1430
sS'w-1=then'
p347
I1227
sS'w-1=Israel'
p348
I1066
sS'w+1=price'
p349
I711
sS'advcl=migrate'
p350
I43
sS'dobj=fate'
p351
I258
sS'w+2=effect'
p352
I861
sS'w+2=rise'
p353
I976
sS'w-1=client'
p354
I1115
sS'advmod=emotionally'
p355
I83
sS'w-2=further'
p356
I1400
sS'w-2=very'
p357
I1524
sS'w+2=pain'
p358
I956
sS'prep=since'
p359
I575
sS'dobj=complication'
p360
I232
sS'w-1=Kaiser'
p361
I1067
sS'w+2=dictatorship'
p362
I843
sS'prep=after'
p363
I551
sS'w+2=alzheimer'
p364
I786
sS'nsubj=poor'
p365
I490
sS'nsubj=civilian'
p366
I422
sS'dobj=toll'
p367
I314
sS'prep=against'
p368
I552
sS'advcl=happen'
p369
I31
sS'w+2=massive'
p370
I927
sS'ccomp=defeat'
p371
I141
sS'w-1=all'
p372
I1093
sS'w-2=head'
p373
I1409
sS'advmod=inevitably'
p374
I98
sS'nsubj=example'
p375
I450
sS'w-2=zimbabwean'
p376
I1542
sS'w-2=reminder'
p377
I1474
sS'w-2=you'
p378
I1541
sS'advcl=go'
p379
I29
sS'w-2=America'
p380
I1265
sS'ccomp=suffer'
p381
I151
sS'w-1=election'
p382
I1139
sS'tmod=stress'
p383
I591
sS'w+1=new'
p384
I698
sS'w+1=symptom'
p385
I734
sS'w-2=teenager'
p386
I1504
sS'neg=not'
p387
I335
sS'w+2=mechanical'
p388
I929
sS'w+2=muslim'
p389
I942
sS'w-1=girl'
p390
I1148
sS'nsubj=youngster'
p391
I539
sS'w-2=Olympic'
p392
I1299
sS'conj=affect'
p393
I154
sS'nsubj=Cowboys'
p394
I351
sS'advcl=uphold'
p395
I63
sS'dobj=illness'
p396
I268
sS'w-2=Kenyans'
p397
I1286
sS'nsubj=Mediterraneancountries'
p398
I378
sS'w+2=armed'
p399
I791
sS'dobj=rebellion'
p400
I296
sS'w-2=billion'
p401
I1345
sS'w-1=picker'
p402
I1204
sS'dep=not'
p403
I211
sS'w+2=problem'
p404
I966
sS'w-2=complain'
p405
I1360
sS'w+2=protest'
p406
I967
sS'w+2=victim'
p407
I1031
sS'nsubj=process'
p408
I492
sS'dobj=pressure'
p409
I292
sS'w+2=instability'
p410
I909
sS'w+2=terminal'
p411
I1012
sS'nsubj=many'
p412
I467
sS'dobj=cut'
p413
I237
sS'dobj=pain'
p414
I289
sS'w+2=hyperinflation'
p415
I902
sS'w-1=say'
p416
I1218
sS'ccomp=fume'
p417
I144
sS'dep=endure'
p418
I203
sS'advmod=needlessly'
p419
I104
sS'w+2=osteoarthritis'
p420
I953
sS'w+1=consequence'
p421
I622
sS'dobj=disability'
p422
I248
sS'aux=may'
p423
I130
sS'w-2=militia'
p424
I1436
sS'w-2=trouble'
p425
I1522
sS'advmod=greatly'
p426
I92
sS'w-2=the'
p427
I1506
sS'nsubj=LDP'
p428
I373
sS'w-1=Cowboys'
p429
I1054
sS'w-2=anything'
p430
I1331
sS'w-1=perhaps'
p431
I1202
sS'w+1=immensely'
p432
I672
sS'conj=miserable'
p433
I181
sS'nsubj=Gul'
p434
I359
sS'w-2=answer'
p435
I1329
sS'w+1=hugely'
p436
I670
sS'w+1=half'
p437
I658
sS'w-2=many'
p438
I1433
sS'nsubj=tourism'
p439
I527
sS'dobj=hardship'
p440
I265
sS'w+2=colonial'
p441
I823
sS'w-1=have'
p442
I1154
sS'w-2=elsewhere'
p443
I1384
sS'w-1=community'
p444
I1118
sS'advcl=fall'
p445
I26
sS'w+2=in'
p446
I905
sS'w-2=week'
p447
I1528
sS'dobj=string'
p448
I308
sS'w+2=it'
p449
I912
sS'dobj=failure'
p450
I256
sS'w-2=may'
p451
I1435
sS'w+2=pulmonary'
p452
I969
sS'w-2=other'
p453
I1456
sS'prep=about'
p454
I549
sS'aux=can'
p455
I126
sS'dobj=rule'
p456
I298
sS'advmod=at'
p457
I77
sS'w-1=farmer'
p458
I1143
sS'w+1=during'
p459
I636
sS'w+1=racial'
p460
I714
sS'acomp=more'
p461
I3
sS'xcomp=follow'
p462
I1546
sS'w-1=past'
p463
I1199
sS'advmod=only'
p464
I108
sS'w+2=image'
p465
I903
sS'w+1=for'
p466
I650
sS'w-2=Cooperation'
p467
I1272
sS'prep=to'
p468
I578
sS'w+2=hiv\\/aids'
p469
I898
sS'w+2=unemployment'
p470
I1026
sS'w-1=still'
p471
I1222
sS'nsubj=market'
p472
I468
sS'w-1=parliament'
p473
I1197
sS'w-1=clinic'
p474
I1116
sS'w+2=for'
p475
I875
sS'w-2=consumer'
p476
I1362
sS'w+2=drought'
p477
I854
sS'dobj=attack'
p478
I224
sS'w-1=Bethea'
p479
I1050
sS'nsubj=nigerian'
p480
I475
sS'w+2=we'
p481
I1035
sS'w-2=indian'
p482
I1419
sS'advcl=reject'
p483
I51
sS'w+2=urinary'
p484
I1029
sS'w+2=chaos'
p485
I819
sS'advcl=fight'
p486
I27
sS'w-1=Muslims'
p487
I1073
sS'dobj=decline'
p488
I242
sS'w-1=casualty'
p489
I1112
sS'w+2=hurt'
p490
I900
sS'nsubj=dam'
p491
I439
sS'w-1=militant'
p492
I1178
sS'w-2=cause'
p493
I1351
sS'w-2=mobility'
p494
I1439
sS'w-2=10'
p495
I1256
sS'nsubj=Sharon'
p496
I393
sS'w-1=grief'
p497
I1150
sS'w+1=death'
p498
I625
sS'conj=hope'
p499
I174
sS'nsubj=twin'
p500
I530
sS'conj=sacrifice'
p501
I186
sS'conj=base'
p502
I157
sS'prep=especially'
p503
I563
sS'w+2=body'
p504
I807
sS'w-1=citizen'
p505
I1114
sS'w-1=defeat'
p506
I1128
sS'rel=in'
p507
I582
sS'nsubj=Thomas'
p508
I398
sS'advmod=meanwhile'
p509
I100
sS'w-1=worker'
p510
I1244
sS'w-2=five'
p511
I1397
sS'parataxis=discover'
p512
I544
sS'dobj=symptom'
p513
I310
sS'w-2=household'
p514
I1414
sS'nsubj=province'
p515
I497
sS'w+1=persecution'
p516
I708
sS'w+2=stroke'
p517
I1005
sS'advcl=quit'
p518
I50
sS'nsubj=Party'
p519
I388
sS'w-2=rebel'
p520
I1471
sS'prep=over'
p521
I574
sS'nsubj=Russia'
p522
I391
sS'nsubj=divorcee'
p523
I444
sS'conj=experience'
p524
I170
sS'conj=give'
p525
I172
sS'nsubj=voter'
p526
I534
sS'w-2=conscience'
p527
I1361
sS'w+2=acute'
p528
I783
sS'nsubj=image'
p529
I463
sS'dobj=mortality'
p530
I282
sS'w-2=continue'
p531
I1364
sS'advmod=ever'
p532
I87
sS'nsubj=criminal'
p533
I436
sS'dobj=wound'
p534
I322
sS'acomp=huge'
p535
I1
sS'w-1=minister'
p536
I1179
sS'xcomp=due'
p537
I1545
sS'w-2=credibility'
p538
I1367
sS'nsubj=threataustralium'
p539
I526
sS'w-1=displaced'
p540
I1133
sS'advmod=alone'
p541
I73
sS'w-2=its'
p542
I1424
sS'w-2=northern'
p543
I1446
sS'parataxis=say'
p544
I545
sS'w+2=wound'
p545
I1041
sS'w+2=while'
p546
I1036
sS'w+2=various'
p547
I1030
sS'w-1=long'
p548
I1169
sS'dobj=split'
p549
I307
sS'advcl=overturn'
p550
I47
sS'w-1=one'
p551
I1192
sS'nsubj=competitor'
p552
I430
sS'advcl=before'
p553
I14
sS'w+2=complication'
p554
I824
sS'w-2=United'
p555
I1313
sS'w-1=Dinosaurs'
p556
I1057
sS'nsubj=relationship'
p557
I501
sS'nsubj=estate'
p558
I449
sS'conj=stunt'
p559
I191
sS'w+2=sluggish'
p560
I997
sS'w-2=banking'
p561
I1342
sS'nsubj=effort'
p562
I447
sS'w-2=estimate'
p563
I1387
sS'w+1=under'
p564
I748
sS'w+1=stunning'
p565
I732
sS'nsubj=Bo'
p566
I348
sS'w+1=pulmonary'
p567
I713
sS'w+2=fistula'
p568
I872
sS'dobj=lot'
p569
I276
sS'nsubj=plane'
p570
I488
sS'advmod=unduly'
p571
I119
sS'dobj=persecution'
p572
I291
sS'w+1=grave'
p573
I654
sS'w+2=spinal'
p574
I1000
sS'dobj=decrease'
p575
I243
sS'w-1=Zimbabweans'
p576
I1087
sS'w+2=food'
p577
I874
sS'w-1=and'
p578
I1098
sS'w+2=epidemic'
p579
I865
sS'w+1=twice'
p580
I747
sS'w+2=amputation'
p581
I787
sS'w+1=injury'
p582
I675
sS'w-1=Somalis'
p583
I1082
sS'ccomp=lose'
p584
I146
sS'advcl=expose'
p585
I25
sS'dobj=risk'
p586
I297
sS'advmod=first'
p587
I90
sS'w-1=wound'
p588
I1247
sS'w-2=first'
p589
I1396
sS'w+1=disadvantage'
p590
I631
sS'dep=usually'
p591
I217
sS'w-2=would'
p592
I1540
sS'nsubj=remainder'
p593
I502
sS'nsubj=Kurds'
p594
I372
sS'ccomp=stand'
p595
I150
sS'w-2=state'
p596
I1494
sS'w-1=media'
p597
I1176
sS'w-2=Mother'
p598
I1295
sS'nsubj=Verde'
p599
I403
sS'w-1=affiliate'
p600
I1090
sS'w+2=ailment'
p601
I785
sS'advcl=turn'
p602
I62
sS'w+1=mostly'
p603
I693
sS'w+2=economic'
p604
I860
sS'nsubj=picker'
p605
I487
sS'nsubj=Kivu'
p606
I371
sS'w-1=decathlon'
p607
I1127
sS'nsubj=Turkey'
p608
I401
sS'w+1=abnormally'
p609
I602
sS'advmod=there'
p610
I115
sS'w-1=Party'
p611
I1078
sS'w+1=acute'
p612
I604
sS'w-2=50,000'
p613
I1261
sS'w-2=Nigeria'
p614
I1297
sS'w+2=over'
p615
I955
sS'w+2=many'
p616
I926
sS'w+1=less'
p617
I678
sS'w-1=presidency'
p618
I1209
sS'nsubj=States'
p619
I394
sS'w-2=resident'
p620
I1477
sS'dobj=setback'
p621
I303
sS'w+1=violence'
p622
I750
sS'nsubj=Pavarotti'
p623
I389
sS'w+2=set-back'
p624
I984
sS'w-1=effect'
p625
I1137
sS'w+1=big'
p626
I614
sS'conj=in'
p627
I176
sS'nsubj=world'
p628
I538
sS'w-1=Interior'
p629
I1064
sS'rel=from'
p630
I581
sS'w-1=twin'
p631
I1232
sS'dobj=jump'
p632
I271
sS'dobj=problem'
p633
I293
sS'prep=because'
p634
I557
sS'nsubj=venture'
p635
I531
sS'w-1=developed'
p636
I1131
sS'nsubj=militant'
p637
I471
sS'nsubj=Summers'
p638
I395
sS'w-2=already'
p639
I1326
sS'conj=use'
p640
I197
sS'w+2=northern'
p641
I946
sS'w-1=woman'
p642
I1243
sS'nsubj=Annapolis'
p643
I341
sS'w-1=affected'
p644
I1089
sS'w+2=Alzheimer'
p645
I771
sS'w-1=coalition'
p646
I1117
sS'w+2=pre-concert'
p647
I964
sS'cc=and'
p648
I136
sS'nsubj=culture'
p649
I438
sS'w-2=gas'
p650
I1402
sS'w+1=headache'
p651
I662
sS'nsubj=industry'
p652
I464
sS'advmod=currently'
p653
I79
sS'nsubj=Democrats'
p654
I354
sS'w-2=Indonesia'
p655
I1282
sS'w+1=loss'
p656
I683
sS'w-2=trial'
p657
I1520
sS'w+1=here'
p658
I667
sS'w-2=border'
p659
I1347
sS'w+2=some'
p660
I999
sS'w-2=peace'
p661
I1460
sS'conj=suggest'
p662
I192
sS'xcomp=similar'
p663
I1553
sS'advcl=see'
p664
I53
sS'w-1=Cuba'
p665
I1055
sS'w+1=feeling'
p666
I644
sS'w+1=devastate'
p667
I630
sS'w+2=meningitis'
p668
I930
sS'dobj=onaccount'
p669
I286
sS'advcl=promise'
p670
I48
sS'cc=but'
p671
I137
sS'nsubj=victim'
p672
I532
sS'nsubj=villager'
p673
I533
sS'w-2=away'
p674
I1341
sS'nsubj=parent'
p675
I480
sS'w-1=Indonesia'
p676
I1063
sS'w-1=who'
p677
I1240
sS'xcomp=make'
p678
I1548
sS'w-2=direct'
p679
I1378
sS'nsubj=nation'
p680
I474
sS'w-2=suffer'
p681
I1500
sS'advcl=win'
p682
I66
sS'w+1=today'
p683
I744
sS'w-1=Annapolis'
p684
I1048
sS'w+1=onaccount'
p685
I700
sS'nsubj=protection'
p686
I496
sS'nsubj=Hezbollah'
p687
I361
sS'w-1=year'
p688
I1248
sS'w+1=heavy'
p689
I666
sS'w+1=pang'
p690
I705
sS'advcl=end'
p691
I24
sS'w-2=Prime'
p692
I1305
sS'dobj=discrimination'
p693
I251
sS'nsubj=resident'
p694
I504
sS'nsubj=which'
p695
I535
sS'dobj=injury'
p696
I270
sS'conj=hurt'
p697
I175
sS'advcl=improve'
p698
I36
sS'dobj=delay'
p699
I246
sS'w+2=hiv'
p700
I897
sS'advmod=apparently'
p701
I76
sS'nsubj=Dinosaurs'
p702
I355
sS'dobj=decade'
p703
I241
sS'w-2=apathetic'
p704
I1332
sS'w+1=daily'
p705
I624
sS'w-2=Catholic'
p706
I1271
sS'w-2=treadmill'
p707
I1517
sS'w+1=widespread'
p708
I756
sS'w+2=up'
p709
I1028
sS'nsubj=system'
p710
I522
sS'nsubj=section'
p711
I507
sS'dobj=consequence'
p712
I235
sS'w+1=electoral'
p713
I637
sS'conj=continue'
p714
I162
sS'w+1=while'
p715
I755
sS'w-2=express'
p716
I1391
sS'w+2=defection'
p717
I839
sS'nsubj=Institute'
p718
I364
sS'dobj=wave'
p719
I318
sS'w+1=more'
p720
I691
sS'w+1=with'
p721
I758
sS'dobj=shortage'
p722
I305
sS'w-2=grass-roots'
p723
I1405
sS'w-2=31'
p724
I1259
sS'w-2=european'
p725
I1388
sS'w-2=,'
p726
I1253
sS'w-2=-'
p727
I1254
sS'w-2=.'
p728
I1255
sS'w+2=persistent'
p729
I957
sS'w+2=neglect'
p730
I945
sS"w-2='"
p731
I1250
sS'dobj=number'
p732
I285
sS'aux=have'
p733
I129
sS'w+2=1967'
p734
I765
sS'w-2=think'
p735
I1510
sS'w+2=worst'
p736
I1039
sS'w+2=disease'
p737
I849
sS'w-2=four'
p738
I1399
sS'w-2=I'
p739
I1280
sS'w-2=woman'
p740
I1537
sS'w-2=how'
p741
I1415
sS'w-1=Harlem'
p742
I1059
sS'w-2=a'
p743
I1321
sS'nsubj=Bissau'
p744
I347
sS'nsubj=farmer'
p745
I453
sS'w+1=high'
p746
I668
sS'w-2=Fangolo'
p747
I1275
sS'w-2=make'
p748
I1431
sS'w-1=he'
p749
I1155
sS'w+1=many'
p750
I687
sS'advmod=financially'
p751
I89
sS'w+1=from'
p752
I652
sS'neg=never'
p753
I334
sS'w-2=city'
p754
I1354
sS'nsubj=other'
p755
I479
sS'nsubj=production'
p756
I493
sS'w-2=Afghanistan'
p757
I1262
sS'w+2=minor'
p758
I935
sS'dobj=same'
p759
I299
sS'w+1=enough'
p760
I640
sS'w+1=cardiac'
p761
I620
sS'w-1=Kikuyu'
p762
I1068
sS'nsubj=dozen'
p763
I445
sS'nsubj=Africa'
p764
I339
sS'w+2=need'
p765
I944
sS'w+2=significant'
p766
I994
sS'w+1=discrimination'
p767
I632
sS'w-2=Malabo'
p768
I1290
sS'w-2=this'
p769
I1511
sS'w+2=gastric'
p770
I882
sS'conj=force'
p771
I171
sS'prep=from'
p772
I565
sS'w+2=injury'
p773
I907
sS'w+2=term'
p774
I1011
sS'w+1=when'
p775
I753
sS'advmod=tremendously'
p776
I117
sS'w-1=artist'
p777
I1101
sS'w-2=facility'
p778
I1392
sS'w+2=stress'
p779
I1003
sS'w-1=estate'
p780
I1141
sS'nsubj=democracy'
p781
I441
sS'w-1=Hezbollah'
p782
I1060
sS'w-2=brain'
p783
I1348
sS'dobj=some'
p784
I306
sS'tmod=week'
p785
I593
sS'w+1=,'
p786
I595
sS'w+1=.'
p787
I596
sS'w+1=:'
p788
I599
sS'w+1=?'
p789
I600
sS'dobj=rate'
p790
I295
sS'w-2=high'
p791
I1411
sS'w-2=nigerian'
p792
I1445
sS'w-2=Australians'
p793
I1268
sS'w+1=a'
p794
I601
sS'advmod=reportedly'
p795
I112
sS'w-2=because'
p796
I1344
sS'w+1=needlessly'
p797
I696
sS'w-1=that'
p798
I1224
sS'nsubj=Uri'
p799
I402
sS'nsubj=girl'
p800
I457
sS'w+1=multiple'
p801
I695
sS'w-2=Taliban'
p802
I1309
sS'w+1=flooding'
p803
I647
sS'w+2=japanese'
p804
I913
sS'w+2=mild'
p805
I932
sS'w+1=flu-like'
p806
I648
sS'w+2=during'
p807
I857
sS'w-2=cuban'
p808
I1369
sS'tmod=#PRP#'
p809
I584
sS'nsubj=child'
p810
I419
sS'nsubj=Harlem'
p811
I360
sS'conj=produce'
p812
I184
sS'w+2=street'
p813
I1002
sS'w-2=Ronny'
p814
I1306
sS'w-2=arrest'
p815
I1336
sS'w+1=nevertheless'
p816
I697
sS'w+2=gastro-intestinal'
p817
I883
sS'nsubj=horse'
p818
I462
sS'w-1=african'
p819
I1091
sS'advmod=surprisingly'
p820
I114
sS'w-2=starvation'
p821
I1493
sS'w-1=market'
p822
I1173
sS'w+1=year'
p823
I760
sS'dep=consistent'
p824
I202
sS'w+1=mass'
p825
I688
sS'nsubj=Muslims'
p826
I380
sS'w+1=only'
p827
I702
sS'w+1=too'
p828
I745
sS'w-2=we'
p829
I1527
sS'w+2=severe'
p830
I986
sS'w+2=high'
p831
I895
sS'w+2=asthma'
p832
I795
sS'w+1=setback'
p833
I722
sS'w+2=impact'
p834
I904
sS'w+2=bout'
p835
I808
sS'w+2=greatest'
p836
I886
sS'w-1=beating'
p837
I1104
sS'advcl=take'
p838
I60
sS'tmod=morning'
p839
I588
sS'w+2=to'
p840
I1023
sS'w+2=funding'
p841
I880
sS'w-2=market'
p842
I1434
sS'dep=hugely'
p843
I208
sS'w-1=image'
p844
I1159
sS'conj=need'
p845
I182
sS'w+2=endemic'
p846
I862
sS'w+2=attack'
p847
I797
sS'w-1=habitat'
p848
I1152
sS'complm=that'
p849
I152
sS'w-1=bring'
p850
I1107
sS'w-1=really'
p851
I1213
sS'tmod=month'
p852
I587
sS'dep=flee'
p853
I207
sS'w-2=success'
p854
I1499
sS'w+1=low'
p855
I684
sS'w+2=will'
p856
I1037
sS'nsubj=person'
p857
I486
sS'conj=massive'
p858
I180
sS'advmod=when'
p859
I121
sS'dobj=arrest'
p860
I223
sS'nsubj=al-qaida'
p861
I409
sS'w+1=most'
p862
I692
sS'w-2=for'
p863
I1398
sS'w+1=they'
p864
I740
sS'nsubj=Israel'
p865
I365
sS'prep=if'
p866
I566
sS'advmod=daily'
p867
I80
sS'w-1=hardship'
p868
I1153
sS'prep=in'
p869
I567
sS'w-1=about'
p870
I1088
sS'partmod=locate'
p871
I547
sS'w+2=outbreak'
p872
I954
sS'prep=amid'
p873
I553
sS'w+1=grow'
p874
I657
sS'dobj=feeling'
p875
I259
sS'w-2=illness'
p876
I1417
sS'acomp=great'
p877
I0
sS'nsubj=sector'
p878
I508
sS'w+2=biodiversity'
p879
I804
sS'w+2=political'
p880
I959
sS'w+2=arrest'
p881
I792
sS'w+2=morale'
p882
I937
sS'w-2=athlete'
p883
I1339
sS'nsubj=all'
p884
I410
sS'w-2=bird'
p885
I1346
sS'w+2=water'
p886
I1033
sS'nsubj=prospects'
p887
I495
sS'dobj=more'
p888
I281
sS'xcomp=come'
p889
I1544
sS'w+1=other'
p890
I704
sS'w-1=it'
p891
I1166
sS'nsubj=Corporation'
p892
I350
sS'w-2=government'
p893
I1404
sS'w+2=hunger'
p894
I899
sS'nsubj=reputation'
p895
I503
sS'advcl=use'
p896
I64
sS'w+1=like'
p897
I679
sS'w-1=Pavarotti'
p898
I1079
sS'w-1=apparently'
p899
I1100
sS'w-1=the'
p900
I1225
sS'mark=if'
p901
I330
sS'dobj=trauma'
p902
I315
sS'mark=in'
p903
I331
sS'w+2=post-traumatic'
p904
I962
sS'w+2=now'
p905
I948
sS'w+2=not'
p906
I947
sS'dep=impact'
p907
I209
sS'w+2=lot'
p908
I921
sS'w+2=low'
p909
I922
sS'advcl=shut'
p910
I55
sS'w+2=previous'
p911
I965
sS'nsubj=cold'
p912
I426
sS'w-1=many'
p913
I1172
sS'dep=say'
p914
I214
sS'w-2=400,000'
p915
I1260
sS'w+2=job'
p916
I914
sS'w+1=banking'
p917
I611
sS'w-2=or'
p918
I1455
sS'nsubj=who'
p919
I536
sS'w-1=Kivu'
p920
I1069
sS'w-2=of'
p921
I1451
sS'w+1=long-term'
p922
I682
sS'w+2=Black'
p923
I773
sS'advcl=alive'
p924
I8
sS'w+2=credibility'
p925
I829
sS'nsubj=party'
p926
I481
sS'w+1=domestic'
p927
I634
sS'conj=shoot'
p928
I189
sS'w+2=setback'
p929
I985
sS'w+2=silence'
p930
I995
sS'ccomp=contribute'
p931
I140
sS'advmod=however'
p932
I95
sS'w+1=as'
p933
I609
sS'w-2=another'
p934
I1328
sS'w+2=like'
p935
I918
sS'w+1=at'
p936
I610
sS'w+2=defeat'
p937
I838
sS'nsubj=nun'
p938
I477
sS'dobj=inhabitant'
p939
I269
sS'w-2=army'
p940
I1335
sS'w-1=currently'
p941
I1124
sS'w+2=so'
p942
I998
sS'w+1=pretty'
p943
I710
sS'xcomp=ban'
p944
I1543
sS'advmod=frequently'
p945
I91
sS'w-1=Nations'
p946
I1074
sS'dobj=defeat'
p947
I244
sS'w-1=can'
p948
I1111
sS'w-2=treat'
p949
I1518
sS'w-2=produce'
p950
I1466
sS'advmod=prior'
p951
I110
sS'w-2=assault'
p952
I1338
sS'advmod=earlier'
p953
I81
sS'w-1=Palestinians'
p954
I1077
sS'w+2=Kikuyu'
p955
I776
sS'w-1=those'
p956
I1229
sS'conj=activist'
p957
I153
sS'w-2=rights'
p958
I1479
sS'nsubj=both'
p959
I416
sS'w-2=start'
p960
I1492
sS'advmod=whenever'
p961
I122
sS'w-2=continent'
p962
I1363
sS'auxpass=be'
p963
I135
sS'w+2=malaria'
p964
I924
sS'w-1=himself'
p965
I1157
sS'dobj=deal'
p966
I239
sS'advmod=still'
p967
I113
sS'w-2=must'
p968
I1443
sS'nsubj=Australia'
p969
I343
sS'nsubj=#NUMBER#'
p970
I336
sS'advcl=buy'
p971
I16
sS'w+1=massive'
p972
I689
sS'w+2=terrorist'
p973
I1014
sS'w-2=competitor'
p974
I1359
sS'conj=torture'
p975
I194
sS'w+1=its'
p976
I676
sS'w+2=backache'
p977
I798
sS'dobj=what'
p978
I320
sS'w+2=ban'
p979
I799
sS'tmod=night'
p980
I589
sS'dobj=bondage'
p981
I228
sS'w-2=most'
p982
I1441
sS'w-2=african'
p983
I1324
sS'w-2=plenty'
p984
I1462
sS'w-2=himself'
p985
I1412
sS'conj=do'
p986
I165
sS'w-2=Pakistan'
p987
I1301
sS'w-1=enormous'
p988
I1140
sS"w-2=''"
p989
I1251
sS'w+2=fund'
p990
I879
sS'dep=politically'
p991
I212
sS'w-2=reputation'
p992
I1476
sS'w-2=stress'
p993
I1498
sS'w-2=Microsoft'
p994
I1294
sS'w+2=ten'
p995
I1010
sS'w+2=storm'
p996
I1001
sS'w-2=leave'
p997
I1428
sS'w-2=countless'
p998
I1365
sS'conj=have'
p999
I173
sS'nsubj=Pahrump'
p1000
I385
sS'w+2=leadership'
p1001
I916
sS'nsubj=Niger'
p1002
I382
sS'w-2=there'
p1003
I1507
sS'w+1=malnutrition'
p1004
I686
sS"w-2='s"
p1005
I1252
sS'w-1=effort'
p1006
I1138
sS'advcl=have'
p1007
I32
sS'w-2=Zimbabwe'
p1008
I1320
sS'w+2=broken'
p1009
I809
sS'w+1=because'
p1010
I613
sS'w+1=long'
p1011
I681
sS'w+2=much'
p1012
I941
sS'w-1=Nigeria'
p1013
I1075
sS'w-1=rule'
p1014
I1217
sS'w+1=1,001'
p1015
I597
sS'nsubj=half'
p1016
I460
sS'w-2=which'
p1017
I1532
sS'dobj=most'
p1018
I283
sS'w+2=domestic'
p1019
I851
sS'advcl=stay'
p1020
I57
sS'nsubj=export'
p1021
I451
sS'nsubj=some'
p1022
I514
sS'w+1=decline'
p1023
I627
sS'dobj=brunt'
p1024
I230
sS'w-1=opposition'
p1025
I1194
sS'w-2=Timor'
p1026
I1310
sS'w+2=cholera'
p1027
I820
sS'dobj=kidnapping'
p1028
I272
sS'aux=will'
p1029
I133
sS'w-2=Darfur'
p1030
I1273
sS'dobj=abuse'
p1031
I219
sS'advcl=injure'
p1032
I37
sS'w-2=crop'
p1033
I1368
sS'w-1=veteran'
p1034
I1234
sS'advcl=negotiate'
p1035
I44
sS'prep=with'
p1036
I580
sS'w+2=hyper-inflation'
p1037
I901
sS'nsubj=agency'
p1038
I408
sS'dobj=scar'
p1039
I300
sS'w+2=quite'
p1040
I970
sS'w-2=Mauritania'
p1041
I1292
sS'w-2=India'
p1042
I1281
sS'nsubj=coverage'
p1043
I434
sS'w-1=victim'
p1044
I1235
sS'w-2=victim'
p1045
I1525
sS'w-1=reportedly'
p1046
I1215
sS'w+2=civil'
p1047
I822
sS'w+2=different'
p1048
I845
sS'w-1=after'
p1049
I1092
sS'w+1=rape'
p1050
I715
sS'w-2=abduction'
p1051
I1322
sS'ccomp=receive'
p1052
I148
sS'w-2=currently'
p1053
I1370
sS'conj=die'
p1054
I164
sS'nsubj=Bangladesh'
p1055
I345
sS'nsubj=Taliban'
p1056
I396
sS'w+1=increase'
p1057
I674
sS'w+2=form'
p1058
I876
sS'advcl=difficult'
p1059
I20
sS'ccomp=out'
p1060
I147
sS'w+1=by'
p1061
I619
sS'w+1=be'
p1062
I612
sS'w+2=enough'
p1063
I864
sS'w-2=team'
p1064
I1503
sS'w-2=war'
p1065
I1526
sS'nsubj=Nations'
p1066
I381
sS'w-2=solution'
p1067
I1489
sS'w+1=tremendously'
p1068
I746
sS'tmod=year'
p1069
I594
sS'w-1=delta'
p1070
I1130
sS'w-2=Begum'
p1071
I1269
sS'advmod=both'
p1072
I78
sS'w+1=sprained'
p1073
I730
sS'w+1=little'
p1074
I680
sS'w+2=conflict'
p1075
I826
sS'w-2=race'
p1076
I1469
sS'w-2=1985'
p1077
I1257
sS'w-2=party'
p1078
I1458
sS'w-1=region'
p1079
I1214
sS'nsubj=sixth'
p1080
I512
sS'aux=could'
p1081
I127
sS'w-1=company'
p1082
I1119
sS'prep=like'
p1083
I569
sS'w+2=consequence'
p1084
I827
sS'w-2=indigenous'
p1085
I1420
sS'prep=beyond'
p1086
I559
sS'dep=report'
p1087
I213
sS'w+1=complication'
p1088
I621
sS'parataxis=design'
p1089
I543
sS'w-2=these'
p1090
I1508
sS'dep=in'
p1091
I210
sS'dobj=outbreak'
p1092
I288
sS'w+2=blow'
p1093
I806
sS'w+2=cancer'
p1094
I815
sS'w+2=time'
p1095
I1022
sS'w+1=greatly'
p1096
I656
sS'prep=of'
p1097
I571
sS'w-2=slum'
p1098
I1487
sS'prep=on'
p1099
I573
sS'w+2=bronchitis'
p1100
I810
sS'w-1=Iranians'
p1101
I1065
sS'dobj=back'
p1102
I225
sS'w-2=Pahrump'
p1103
I1300
sS'w-2=company'
p1104
I1358
sS'w+2=failure'
p1105
I868
sS'nsubj=enemy'
p1106
I448
sS'w+2=mortality'
p1107
I939
sS'nsubj=citizen'
p1108
I420
sS'w-1=poor'
p1109
I1207
sS'w+2=than'
p1110
I1015
sS'w+2=same'
p1111
I979
sS'w+2=that'
p1112
I1016
sS'conj=list'
p1113
I178
sS'nsubj=Bethea'
p1114
I346
sS'w-1=child'
p1115
I1113
sS'w-1=or'
p1116
I1195
sS'w-2=system'
p1117
I1502
sS'w+1=abuse'
p1118
I603
sS'advcl=say'
p1119
I52
sS'w-1=of'
p1120
I1189
sS'w-2=Kashmir'
p1121
I1285
sS'nsubj=accuracy'
p1122
I406
sS'w+1=first'
p1123
I646
sS'advmod=now'
p1124
I106
sS'w+1=depression'
p1125
I629
sS'w-2=will'
p1126
I1536
sS'w+1=stand'
p1127
I731
sS'advmod=unfortunately'
p1128
I120
sS'w+1=respiratory'
p1129
I718
sS'w-2=Gujarat'
p1130
I1278
sS'w+1=billion'
p1131
I615
sS'prep=among'
p1132
I554
sS'nsubj=property'
p1133
I494
sS'dobj=kind'
p1134
I273
sS'w-2=not'
p1135
I1447
sS'w-2=now'
p1136
I1448
sS'w-2=as'
p1137
I1337
sS'w-2=man'
p1138
I1432
sS'w+2=suffer'
p1139
I1008
sS'w-1=also'
p1140
I1097
sS'nsubj=side'
p1141
I511
sS'nsubj=Palestinians'
p1142
I387
sS'w-1=lion'
p1143
I1168
sS'w+1=due'
p1144
I635
sS'w+1=heart'
p1145
I665
sS'w-1=system'
p1146
I1223
sS'dobj=time'
p1147
I313
sS'dobj=effect'
p1148
I252
sS'w-2=Hussein'
p1149
I1279
sS'w+2=death'
p1150
I835
sS'w-2=Bush'
p1151
I1270
sS'advcl=put'
p1152
I49
sS'w+2=drug'
p1153
I855
sS'nsubj=economy'
p1154
I446
sS'advcl=know'
p1155
I40
sS'w-1=policy'
p1156
I1205
sS'w-1=must'
p1157
I1183
sS'w+2=have'
p1158
I889
sS'dobj=headache'
p1159
I266
sS'w-2=patrol'
p1160
I1459
sS'w-2=world'
p1161
I1539
sS'w+2=sacrifice'
p1162
I978
sS'nsubj=decathlon'
p1163
I440
sS'w+1=delay'
p1164
I628
sS'nsubj=patient'
p1165
I483
sS'w-1=property'
p1166
I1211
sS'nsubj=army'
p1167
I412
sS'advcl=imagine'
p1168
I34
sS'w+2=direct'
p1169
I846
sS'w+1=cultural'
p1170
I623
sS'aux=to'
p1171
I132
sS'w-2=much'
p1172
I1442
sS'w-2=infant'
p1173
I1421
sS'w-2=region'
p1174
I1472
sS'advmod=perhaps'
p1175
I109
sS'w+2=most'
p1176
I940
sS'advmod=elsewhere'
p1177
I82
sS'w-1=herself'
p1178
I1156
sS'w-2=farmer'
p1179
I1394
sS'prep=during'
p1180
I562
sS'w+2=second'
p1181
I980
sS'w-2=Palestinians'
p1182
I1302
sS'w-2=Australia'
p1183
I1267
sS'w+2=mental'
p1184
I931
sS'dobj=hell'
p1185
I267
sS'w-2=whole'
p1186
I1534
sS'w-1=now'
p1187
I1187
sS'w-1=not'
p1188
I1186
sS'advcl=jail'
p1189
I38
sS'w+1=huge'
p1190
I669
sS'aux=be'
p1191
I125
sS'w+2=century'
p1192
I818
sS'prep=before'
p1193
I558
sS'advmod=about'
p1194
I68
sS'w+1=face'
p1195
I642
sS'ccomp=call'
p1196
I139
sS'w+2=fracture'
p1197
I877
sS'nsubj=Nigeria'
p1198
I383
sS'w-2=acknowledge'
p1199
I1323
sS'w+1=major'
p1200
I685
sS'w+2=number'
p1201
I949
sS'mark=like'
p1202
I332
sS'dobj=set-back'
p1203
I302
sS'w-1=Thomas'
p1204
I1085
sS'w-2=just'
p1205
I1425
sS'w-1=India'
p1206
I1062
sS'w-1=Republicans'
p1207
I1080
sS'w+2=ankle'
p1208
I790
sS'w-2=they'
p1209
I1509
sS'prep=than'
p1210
I576
sS'w-2=common'
p1211
I1356
sS'prep=by'
p1212
I560
sS'w-2=engagement'
p1213
I1385
sS'xcomp=month'
p1214
I1550
sS'w-2=country'
p1215
I1366
sS'nsubj=government'
p1216
I458
sS'w+2=flu-like'
p1217
I873
sS'w-2=North'
p1218
I1298
sS'w-1=voter'
p1219
I1237
sS'nsubj=Timor'
p1220
I399
sS'advmod=really'
p1221
I111
sS'w-1=dam'
p1222
I1125
sS'w+1=financially'
p1223
I645
sS'dobj=damage'
p1224
I238
sS'w-1=be'
p1225
I1103
sS'nsubj=class'
p1226
I423
sS'w+2=malnutrition'
p1227
I925
sS'w+2=shortness'
p1228
I992
sS'nsubj=teenager'
p1229
I524
sS'mark=because'
p1230
I329
sS'dobj=series'
p1231
I301
sS'dobj=casualty'
p1232
I231
sS'w+2=anemia'
p1233
I789
sS'w-2=ill'
p1234
I1416
sS'w-2=agency'
p1235
I1325
sS'w-1=which'
p1236
I1239
sS'w+1=people'
p1237
I706
sS'w-1=I'
p1238
I1061
sS'dobj=famine'
p1239
I257
sS'w+2=serious'
p1240
I983
sS'w+2=arthritis'
p1241
I793
sS'w-1=from'
p1242
I1147
sS'w-2=effort'
p1243
I1383
sS'w-1=only'
p1244
I1193
sS'w+2=by'
p1245
I814
sS'advcl=discourage'
p1246
I21
sS'advmod=allegedly'
p1247
I72
sS'w+2=reverse'
p1248
I975
sS'w+2=be'
p1249
I800
sS'w-2=too'
p1250
I1515
sS'tmod=severe'
p1251
I590
sS'w+1=terrorist'
p1252
I737
sS'advmod=too'
p1253
I116
sS'aux=would'
p1254
I134
sS'nsubjpass=kind'
p1255
I541
sS'w-2=Uganda'
p1256
I1312
sS'nsubj=supplies'
p1257
I520
sS'w-1=population'
p1258
I1208
sS'dobj=the'
p1259
I312
sS'w+2=sudden'
p1260
I1007
sS'conj=usher'
p1261
I198
sS'advmod=ago'
p1262
I70
sS'nsubj=Leterme'
p1263
I374
sS'w+1=and'
p1264
I607
sS'nsubj=Australians'
p1265
I344
sS'w-1=dictator'
p1266
I1132
sS'w-1=family'
p1267
I1142
sS'advmod=indeed'
p1268
I97
sS'w-2=tree'
p1269
I1519
sS'nsubj=Kenya'
p1270
I369
sS'w+2=these'
p1271
I1018
sS'w-2=severe'
p1272
I1483
sS'csubj=report'
p1273
I201
sS'nsubj=artist'
p1274
I413
sS'w+2=series'
p1275
I982
sS'w+2=brunt'
p1276
I811
sS'conj=prefer'
p1277
I183
sS'w+1=harsh'
p1278
I660
sS'advcl=lose'
p1279
I42
sS'nsubj=Pakistan'
p1280
I386
sS'nsubj=retailer'
p1281
I506
sS'w-2=least'
p1282
I1427
sS'w+2=wave'
p1283
I1034
sS'advcl=at'
p1284
I10
sS'w-2=VTB'
p1285
I1314
sS'w+2=crisis'
p1286
I831
sS'prep=not'
p1287
I570
sS'w+2=2005'
p1288
I766
sS'w-1=world'
p1289
I1245
sS'nsubj=cause'
p1290
I418
sS'w-2=survivor'
p1291
I1501
sS'advmod=even'
p1292
I86
sS'w+2=respiratory'
p1293
I974
sS'w+2=more'
p1294
I938
sS'nsubj=percent'
p1295
I485
sS'w-2=Yahukimo'
p1296
I1319
sS'tmod=energy'
p1297
I585
sS'w+1=great'
p1298
I655
sS'w-1=horse'
p1299
I1158
sS'nsubj=consumer'
p1300
I431
sS'nsubj=crop'
p1301
I437
sS'dep=estimate'
p1302
I205
sS'w-2=nutrition'
p1303
I1450
sS'w-2=develop'
p1304
I1376
sS'w+1=ostracism'
p1305
I703
sS'w-1=country'
p1306
I1121
sS'w-1=both'
p1307
I1106
sS'w-1=my'
p1308
I1184
sS'tmod=today'
p1309
I592
sS'w+2=diabetes'
p1310
I841
sS'w-2=Verde'
p1311
I1317
sS'dobj=disadvantage'
p1312
I249
sS'w+2=disability'
p1313
I847
sS'w-1=McDonald'
p1314
I1071
sS'prep=for'
p1315
I564
sS'dep=that'
p1316
I216
sS'nsubj=force'
p1317
I455
sS'dobj=embolism'
p1318
I253
sS'nsubj=Bush'
p1319
I349
sS'w+2=at'
p1320
I796
sS'advcl=available'
p1321
I12
sS'nsubj=media'
p1322
I469
sS'w+2=as'
p1323
I794
sS'nsubj=politician'
p1324
I489
sS'w-2=Mr.'
p1325
I1296
sS'w-2=venture'
p1326
I1523
sS'w-2=appear'
p1327
I1333
sS'w-2=profit'
p1328
I1467
sS'w+2=Australia'
p1329
I772
sS'w+2=could'
p1330
I828
sS'advmod=long'
p1331
I99
sS'w-2=some'
p1332
I1490
sS'w+2=dramatic'
p1333
I853
sS'xcomp=manage'
p1334
I1549
sS'w-1=politician'
p1335
I1206
sS'conj=argue'
p1336
I156
sS'w+2=casualty'
p1337
I817
sS'w+1=eternal'
p1338
I641
sS'dobj=woe'
p1339
I321
sS'w+2=she'
p1340
I989
sS'w-2=custody'
p1341
I1371
sS'w+2=with'
p1342
I1038
sS'w+1=much'
p1343
I694
sS'nsubj=island'
p1344
I465
sS'prep=off'
p1345
I572
sS'advcl=continue'
p1346
I18
sS'nsubj=Minister'
p1347
I379
sS'w-1=people'
p1348
I1201
sS'w+1=right'
p1349
I719
sS'w-1=Pakistan'
p1350
I1076
sS'w-2=month'
p1351
I1440
sS'ccomp=sick'
p1352
I149
sS'w+2=or'
p1353
I952
sS'w-2=garbage'
p1354
I1401
sS'w-2=Wednesday'
p1355
I1318
sS'w+2=of'
p1356
I950
sS'conj=drug-free'
p1357
I166
sS'w-1=resident'
p1358
I1216
sS'conj=believe'
p1359
I159
sS'w+1=so'
p1360
I727
sS'dobj=little'
p1361
I274
sS'nsubj=population'
p1362
I491
sS'w+2=lack'
p1363
I915
sS'w-1=she'
p1364
I1219
sS'w+2=loss'
p1365
I920
sS'w+2=from'
p1366
I878
sS'w+2=poverty'
p1367
I963
sS'w-2=troops'
p1368
I1521
sS'nsubj=gay'
p1369
I456
sS'advmod=often'
p1370
I107
sS'w+2=genetic'
p1371
I884
sS'w+1=disproportionately'
p1372
I633
sS'w+1=amid'
p1373
I606
sS'dobj=defection'
p1374
I245
sS'w-2=prospects'
p1375
I1468
sS'w+1=several'
p1376
I723
sS'w-2=child'
p1377
I1352
sS'w+1=gas'
p1378
I653
sS'w+1=violent'
p1379
I751
sS'nsubj=standing'
p1380
I515
sS'aux=do'
p1381
I128
sS'w+2=famine'
p1382
I869
sS'w+2=Mugabe'
p1383
I777
sS'advcl=support'
p1384
I59
sS'w-1=camp'
p1385
I1110
sS'advmod=already'
p1386
I74
sS'dobj=stroke'
p1387
I309
sS'expl=there'
p1388
I324
sS'w-2=antonov-26'
p1389
I1330
sS'w-1=Uri'
p1390
I1086
sS'w+2=Hamas'
p1391
I774
sS'w-2=guard'
p1392
I1406
sS'nsubj=people'
p1393
I484
sS'w-1=nun'
p1394
I1188
sS'w-2=strength'
p1395
I1497
sS'w+2=publicity'
p1396
I968
sS'advcl=leadership'
p1397
I41
sS'w-2=president'
p1398
I1465
sS'w+2=too'
p1399
I1024
sS'w-2=nation'
p1400
I1444
sS'dobj=pang'
p1401
I290
sS'nsubj=continent'
p1402
I432
sS'w+2=blame'
p1403
I805
sS'w+2=runaway'
p1404
I977
sS'w+2=hell'
p1405
I894
sS'nsubj=command'
p1406
I427
sS'nsubj=Obama'
p1407
I384
sS'w+1=one'
p1408
I701
sS'conj=collapse'
p1409
I160
sS'w+2=curable'
p1410
I832
sS'prep=accord'
p1411
I550
sS'dobj=maximum'
p1412
I279
sS'w+2=discrimination'
p1413
I848
sS'advcl=open'
p1414
I46
sS'ccomp=die'
p1415
I142
sS'w-1=institution'
p1416
I1165
sS"w+2=''"
p1417
I761
sS'nsubj=country'
p1418
I433
sS'w+1=follow'
p1419
I649
sS'conj=try'
p1420
I195
sS'w-2=business'
p1421
I1349
sS'conj=work'
p1422
I200
sS'w+2=abuse'
p1423
I782
sS'prep=under'
p1424
I579
sS'w+2=52'
p1425
I768
sS'w-2=australian'
p1426
I1340
sS'w-1=business'
p1427
I1108
sS'w+2=shortage'
p1428
I991
sS'w-1=but'
p1429
I1109
sS'w-2=when'
p1430
I1530
sS'w+1=emotionally'
p1431
I638
sS'w+2=inordinate'
p1432
I908
sS'dobj=malnutrition'
p1433
I278
sS'advmod=nevertheless'
p1434
I105
sS'w+2=lessrainfall'
p1435
I917
sS'nsubj=boat'
p1436
I415
sS'advcl=kill'
p1437
I39
sS'nsubj=coalition'
p1438
I425
sS'w+1=mental'
p1439
I690
sS'w+2=physical'
p1440
I958
sS'w-2=Perth'
p1441
I1304
sS'w-2=McCain'
p1442
I1293
sS'advmod=again'
p1443
I69
sS'aux=must'
p1444
I131
sS'dobj=blow'
p1445
I227
sS'nsubj=Torres'
p1446
I400
sS'nsubj=security'
p1447
I509
sS'w-1=Harare'
p1448
I1058
sS'w-2=be'
p1449
I1343
sS'w+1=sudden'
p1450
I733
sS'conj=know'
p1451
I177
sS'w+1=three'
p1452
I741
sS'dep=enough'
p1453
I204
sS'w-1=inflict'
p1454
I1163
sS'w-2=dramatically'
p1455
I1381
sS'advcl=begin'
p1456
I15
sS'w-1=typically'
p1457
I1233
sS'nsubj=affiliate'
p1458
I407
sS'w-1=greatly'
p1459
I1149
sS'w+2=damage'
p1460
I834
sS'w-1=Africa'
p1461
I1047
sS'w+2=cardiac'
p1462
I816
sS'w-2=economy'
p1463
I1382
sS'w+2=maximum'
p1464
I928
sS'w+2=rain'
p1465
I971
sS'w+1=some'
p1466
I728
sS'advcl=eliminate'
p1467
I23
sS'w-2=whose'
p1468
I1535
sS'w+1=precipitous'
p1469
I709
sS'conj=see'
p1470
I188
sS'w+2=-'
p1471
I763
sS'w+2=and'
p1472
I788
sS'tmod=#DATE#'
p1473
I583
sS'w-2=older'
p1474
I1452
sS'w-1=officer'
p1475
I1190
sS'conj=endure'
p1476
I167
sS'w-2=she'
p1477
I1484
sS'w+2=abundance'
p1478
I781
sS'w+2=thirst'
p1479
I1020
sS'dobj=protest'
p1480
I294
sS'w+2=again'
p1481
I784
sS'w-2=minister'
p1482
I1438
sS'advcl=announce'
p1483
I9
sS'advcl=occur'
p1484
I45
sS'w-2=say'
p1485
I1481
sS'w+2=the'
p1486
I1017
sS'prep=at'
p1487
I556
sS'prep=as'
p1488
I555
sS'w+1=sporadic'
p1489
I729
sS'w-2=die'
p1490
I1377
sS'nsubj=Afghanistan'
p1491
I338
sS'w-2=but'
p1492
I1350
sS'conj=affectisland'
p1493
I155
sS'w-1=.'
p1494
I1046
sS'w-1=-'
p1495
I1045
sS'w-1=,'
p1496
I1044
sS'w-2=defense'
p1497
I1373
sS'w+2=erratic'
p1498
I866
sS'w-1=indeed'
p1499
I1160
sS'w+2=israeli'
p1500
I911
sS'dobj=violence'
p1501
I316
sS'prep=through'
p1502
I577
sS'w+2=one'
p1503
I951
sS'w+1=another'
p1504
I608
sS'w-2=Kikuyu'
p1505
I1287
sS'advcl=implement'
p1506
I35
sS'conj=struggle'
p1507
I190
sS'w+2=such'
p1508
I1006
sS'nsubj=McCain'
p1509
I376
sS'w+2=depression'
p1510
I840
sS'dobj=crisis'
p1511
I236
sS'w+2=sign'
p1512
I993
sS'w-2=so'
p1513
I1488
sS'nsubj=city'
p1514
I421
sS'mark=as'
p1515
I328
sS'conj=entrench'
p1516
I169
sS'advcl=seek'
p1517
I54
sS'w-2=situation'
p1518
I1486
sS'w+2=Aborigines'
p1519
I769
sS'dobj=depression'
p1520
I247
sS'w-2=Karnataka'
p1521
I1284
sS'w+2=they'
p1522
I1019
sS'w+2=inflated'
p1523
I906
sS'nsubj=opposition'
p1524
I478
sS'nsubj=fish'
p1525
I454
sS'dobj=year'
p1526
I323
sS'w+1=last'
p1527
I677
sS'w-1=villager'
p1528
I1236
sS'conj=retire'
p1529
I185
sS'advcl=hold'
p1530
I33
sS'advmod=how'
p1531
I94
sS'w+2=unskilled'
p1532
I1027
sS'w-1=Corporation'
p1533
I1053
sS'advcl=skim'
p1534
I56
sS'w-1=member'
p1535
I1177
sS'w+2=abject'
p1536
I780
sS'w+2=sexual'
p1537
I987
sS'w-2=help'
p1538
I1410
sS'w+1=after'
p1539
I605
sS'w+2=endure'
p1540
I863
sS'w-1=we'
p1541
I1238
sS'nsubj=Zimbabwe'
p1542
I404
sS'w+2=Africa'
p1543
I770
sS'w-1=patient'
p1544
I1200
sS'advmod=abnormally'
p1545
I67
sS'w-2=population'
p1546
I1464
sS'w-1=delivery'
p1547
I1129
sS'w+2=.'
p1548
I764
sS'w+2=,'
p1549
I762
sS'w-1=often'
p1550
I1191
sS'nsubj=Aklilu'
p1551
I340
sS'dobj=war'
p1552
I317
sS'w-1=another'
p1553
I1099
sS'w+2=I'
p1554
I775
sS'w+2=sectarian'
p1555
I981
sS'w-1=may'
p1556
I1175
sS'nsubj=zimbabwean'
p1557
I540
sS'w+2=big'
p1558
I802
sS'w+2=a'
p1559
I779
sS'w-1=man'
p1560
I1171
sS'advmod=typically'
p1561
I118
ssS'dtype'
p1562
cnumpy
float64
p1563
sS'feature_names_'
p1564
(lp1565
g877
ag535
ag191
ag461
ag334
ag130
ag95
ag176
ag924
ag1483
ag1284
ag172
ag1321
ag62
ag553
ag1456
ag971
ag272
ag1346
ag302
ag1059
ag1246
ag291
ag1467
ag691
ag585
ag445
ag486
ag91
ag379
ag139
ag369
ag1007
ag1530
ag1168
ag1506
ag698
ag1032
ag1189
ag1437
ag1155
ag1397
ag1279
ag350
ag1035
ag1484
ag1414
ag550
ag670
ag1152
ag518
ag483
ag1119
ag664
ag1517
ag910
ag1534
ag1020
ag301
ag1384
ag838
ag112
ag602
ag395
ag896
ag116
ag682
ag1545
ag1194
ag1443
ag1262
ag290
ag1247
ag541
ag1386
ag251
ag701
ag457
ag1072
ag653
ag867
ag953
ag1177
ag355
ag84
ag123
ag1292
ag532
ag188
ag751
ag587
ag945
ag426
ag88
ag1531
ag932
ag74
ag1268
ag374
ag1331
ag509
ag10
ag144
ag183
ag419
ag1434
ag1124
ag1370
ag464
ag1175
ag951
ag1221
ag795
ag967
ag820
ag610
ag1253
ag776
ag1561
ag571
ag1128
ag859
ag961
ag108
ag259
ag1191
ag455
ag1081
ag1381
ag733
ag423
ag1444
ag1171
ag1029
ag1254
ag963
ag648
ag671
ag226
ag1196
ag931
ag371
ag1415
ag214
ag417
ag56
ag584
ag1060
ag1052
ag1352
ag595
ag381
ag849
ag957
ag393
ag1493
ag1336
ag502
ag96
ag1359
ag1409
ag319
ag714
ag245
ag1054
ag986
ag1357
ag1476
ag203
ag1516
ag524
ag771
ag525
ag999
ag499
ag697
ag627
ag1451
ag1113
ag156
ag858
ag433
ag845
ag1277
ag812
ag1529
ag501
ag27
ag1470
ag928
ag1507
ag559
ag662
ag276
ag975
ag1420
ag243
ag640
ag1261
ag128
ag1422
ag1273
ag824
ag418
ag1453
ag1302
ag166
ag853
ag843
ag907
ag1091
ag403
ag991
ag1087
ag914
ag213
ag1316
ag591
ag283
ag1031
ag15
ag246
ag199
ag860
ag478
ag1102
ag242
ag1445
ag981
ag285
ag1024
ag1232
ag360
ag17
ag308
ag712
ag1511
ag413
ag1224
ag966
ag70
ag703
ag488
ag575
ag947
ag1374
ag699
ag1520
ag422
ag1312
ag132
ag693
ag1148
ag1318
ag221
ag294
ag450
ag1239
ag351
ag875
ag216
ag78
ag315
ag25
ag107
ag440
ag1159
ag1185
ag396
ag939
ag696
ag632
ag1028
ag1134
ag1361
ag126
ag569
ag313
ag1433
ag1412
ag193
ag888
ag530
ag1018
ag205
ag732
ag669
ag204
ag1092
ag414
ag1401
ag572
ag409
ag633
ag1480
ag790
ag400
ag586
ag456
ag759
ag1039
ag1231
ag1203
ag621
ag66
ag722
ag784
ag549
ag448
ag1387
ag513
ag274
ag1259
ag1147
ag367
ag902
ag1501
ag1552
ag719
ag69
ag978
ag1339
ag534
ag1526
ag1388
ag71
ag299
ag254
ag1515
ag1230
ag901
ag903
ag1202
ag211
ag753
ag387
ag970
ag43
ag1491
ag764
ag1551
ag643
ag81
ag969
ag1265
ag1055
ag1114
ag744
ag566
ag1319
ag892
ag394
ag164
ag109
ag654
ag702
ag345
ag339
ag171
ag434
ag811
ag687
ag175
ag40
ag718
ag865
ag19
ag28
ag99
ag1270
ag303
ag606
ag594
ag428
ag1263
ag129
ag1509
ag325
ag398
ag1347
ag826
ag1066
ag1002
ag1198
ag1407
ag1000
ag1280
ag1142
ag519
ag623
ag147
ag522
ag157
ag496
ag619
ag638
ag1056
ag134
ag508
ag1220
ag1446
ag608
ag799
ag599
ag1542
ag29
ag1122
ag1458
ag1038
ag861
ag884
ag215
ag1167
ag1274
ag312
ag1436
ag959
ag20
ag1290
ag810
ag1108
ag1514
ag366
ag1226
ag224
ag1438
ag912
ag1406
ag228
ag135
ag552
ag1300
ag1402
ag1418
ag1043
ag217
ag533
ag1301
ag649
ag491
ag1163
ag781
ag61
ag249
ag523
ag763
ag1154
ag562
ag1106
ag558
ag375
ag1021
ag231
ag745
ag1525
ag1317
ag1369
ag800
ag1216
ag93
ag1016
ag115
ag818
ag529
ag652
ag1344
ag159
ag412
ag472
ag1322
ag83
ag637
ag80
ag311
ag680
ag480
ag36
ag938
ag1524
ag755
ag675
ag926
ag247
ag1165
ag1393
ag1295
ag857
ag605
ag570
ag1324
ag365
ag1362
ag408
ag756
ag1133
ag887
ag686
ag515
ag24
ag255
ag11
ag557
ag593
ag895
ag694
ag307
ag1281
ag711
ag878
ag1447
ag149
ag1141
ag1080
ag342
ag1022
ag1380
ag196
ag197
ag39
ag261
ag1257
ag292
ag710
ag16
ag1229
ag85
ag539
ag439
ag329
ag178
ag500
ag635
ag672
ag673
ag526
ag695
ag919
ag244
ag628
ag391
ag1557
ag1255
ag236
ag1089
ag512
ag544
ag98
ag871
ag59
ag454
ag1411
ag363
ag368
ag873
ag1132
ag1488
ag1487
ag634
ag1193
ag1086
ag1212
ag155
ag1180
ag503
ag1315
ag772
ag866
ag869
ag114
ag1083
ag1287
ag1097
ag1345
ag1099
ag521
ag359
ag1210
ag1502
ag468
ag1424
ag1036
ag630
ag507
ag1473
ag809
ag1297
ag92
ag852
ag839
ag980
ag1251
ag383
ag1309
ag785
ag1069
ag786
ag787
ag1015
ag321
ag788
ag789
ag794
ag609
ag1118
ag612
ag1539
ag1373
ag1264
ag1504
ag933
ag936
ag917
ag1062
ag1010
ag626
ag1131
ag100
ag117
ag54
ag1061
ag761
ag1088
ag421
ag1170
ag705
ag498
ag202
ag1023
ag1164
ag1125
ag667
ag590
ag767
ag1372
ag927
ag1144
ag459
ag713
ag1431
ag331
ag760
ag1338
ag1195
ag238
ag666
ag1223
ag1123
ag803
ag806
ag1419
ag466
ag187
ag752
ag1378
ag573
ag1298
ag1096
ag874
ag437
ag161
ag1278
ag136
ag651
ag113
ag189
ag1145
ag689
ag658
ag746
ag1190
ag436
ag268
ag432
ag270
ag1057
ag582
ag976
ag1527
ag617
ag897
ag1074
ag1011
ag922
ag656
ag855
ag1200
ag1004
ag750
ag825
ag972
ag1439
ag720
ag862
ag603
ag1343
ag801
ag797
ag816
ag384
ag48
ag685
ag1408
ag827
ag1305
ag890
ag690
ag1237
ag235
ag516
ag1469
ag943
ag349
ag22
ag567
ag460
ag1050
ag275
ag338
ag1129
ag1349
ag225
ag341
ag833
ag1376
ag252
ag168
ag219
ag1360
ag1466
ag1489
ag1073
ag1127
ag565
ag1450
ag385
ag269
ag148
ag1252
ag64
ag320
ag864
ag1452
ag141
ag316
ag683
ag828
ag1068
ag580
ag564
ag297
ag622
ag1379
ag337
ag775
ag328
ag715
ag708
ag262
ag721
ag26
ag823
ag1417
ag1549
ag1471
ag1548
ag734
ag1288
ag209
ag1425
ag1519
ag1543
ag645
ag1329
ag923
ag1391
ag1554
ag955
ag1383
ag162
ag1559
ag1536
ag1478
ag1423
ag528
ag1481
ag601
ag364
ag581
ag1472
ag1233
ag1208
ag399
ag881
ag1241
ag1323
ag832
ag1320
ag847
ag977
ag979
ag1249
ag143
ag1558
ag186
ag879
ag1403
ag1093
ag504
ag835
ag1009
ag1100
ag1276
ag309
ag14
ag1245
ag1094
ag1462
ag1337
ag1192
ag485
ag1027
ag310
ag1047
ag441
ag554
ag273
ag1075
ag1084
ag1330
ag925
ag65
ag1286
ag1410
ag286
ag1460
ag1150
ag198
ag170
ag937
ag717
ag1510
ag1310
ag101
ag362
ag241
ag1048
ag1169
ag1313
ag1413
ag737
ag305
ag1019
ag250
ag1333
ag477
ag1153
ag222
ag807
ag267
ag8
ag604
ag352
ag846
ag1540
ag1063
ag579
ag1498
ag105
ag1105
ag1382
ag177
ag322
ag568
ag1217
ag577
ag475
ag1058
ag1197
ag1366
ag990
ag841
ag75
ag770
ag817
ag1371
ag306
ag836
ag118
ag277
ag1158
ag335
ag185
ag13
ag89
ag1405
ag831
ag45
ag700
ag469
ag894
ag490
ag1037
ag415
ag465
ag834
ag446
ag1523
ag773
ag1432
ag410
ag31
ag1500
ag449
ag804
ag916
ag1363
ag1001
ag1435
ag935
ag279
ag1365
ag908
ag909
ag278
ag964
ag1227
ag616
ag370
ag1464
ag388
ag668
ag1184
ag805
ag227
ag169
ag758
ag340
ag882
ag1294
ag1107
ag1176
ag1012
ag389
ag51
ag765
ag730
ag641
ag906
ag905
ag1201
ag1356
ag1503
ag1353
ag420
ag872
ag615
ag358
ag729
ag1440
ag880
ag119
ag167
ag904
ag1367
ag647
ag911
ag404
ag406
ag1396
ag452
ag1040
ag1465
ag60
ag30
ag1293
ag1248
ag353
ag1404
ag1162
ag1111
ag1181
ag1555
ag1275
ag1240
ag624
ag929
ag830
ag1537
ag49
ag1340
ag343
ag1428
ag1228
ag1512
ag766
ag930
ag94
ag560
ag942
ag660
ag574
ag996
ag813
ag779
ag239
ag517
ag1508
ag1260
ag1139
ag184
ag995
ag774
ag411
ag158
ag973
ag1110
ag1112
ag1486
ag1271
ag1522
ag1479
ag200
ag1095
ag840
ag1399
ag174
ag470
ag1532
ag709
ag484
ag547
ag407
ag55
ag886
ag1283
ag481
ag546
ag856
ag1342
ag736
ag332
ag545
ag280
ag58
ag1496
ag1495
ag1494
ag1461
ag684
ag9
ag479
ag38
ag33
ag1533
ag429
ag665
ag233
ag556
ag1448
ag742
ag782
ag1238
ag1206
ag676
ag629
ag1101
ag348
ag361
ag762
ag920
ag271
ag1314
ag282
ag487
ag946
ag1013
ag1350
ag954
ag611
ag898
ag1207
ag73
ag583
ag237
ag18
ag1204
ag1390
ag576
ag870
ag644
ag600
ag819
ag1049
ag372
ag152
ag120
ag67
ag1140
ag578
ag1553
ag899
ag777
ag21
ag1225
ag837
ag284
ag1307
ag850
ag1427
ag1429
ag1385
ag948
ag489
ag1115
ag505
ag354
ag474
ag646
ag444
ag1082
ag57
ag1306
ag256
ag53
ag941
ag1222
ag298
ag607
ag506
ag1547
ag1070
ag636
ag1266
ag540
ag304
ag142
ag300
ag625
ag1006
ag382
ag988
ag780
ag1267
ag458
ag253
ag154
ag263
ag1242
ag390
ag1459
ag497
ag295
ag848
ag868
ag442
ag749
ag1178
ag965
ag1299
ag844
ag1499
ag336
ag182
ag1454
ag163
ag1416
ag891
ag122
ag1143
ag548
ag23
ag1560
ag913
ag822
ag133
ag1556
ag597
ag1535
ag492
ag536
ag223
ag146
ag82
ag1157
ag1308
ag192
ag1188
ag1187
ag1394
ag1120
ag1475
ag1550
ag551
ag1244
ag1025
ag1116
ag206
ag473
ag160
ag463
ag1544
ag1348
ag431
ag266
ag402
ag1156
ag1335
ag1109
ag1258
ag618
ag179
ag1166
ag258
ag851
ag1079
ag1046
ag1358
ag1014
ag416
ag1364
ag77
ag50
ag471
ag1146
ag798
ag900
ag296
ag347
ag265
ag956
ag121
ag230
ag631
ag1457
ag1034
ag1044
ag1528
ag1219
ag1541
ag1236
ag677
ag35
ag289
ag642
ag510
ag1289
ag137
ag588
ag688
ag324
ag731
ag989
ag1005
ag726
ag727
ag728
ag495
ag1077
ag47
ag724
ag915
ag613
ag757
ag52
ag32
ag380
ag86
ag1183
ag793
ag1071
ag1151
ag706
ag467
ag1030
ag34
ag747
ag138
ag150
ag1130
ag1149
ag739
ag1042
ag655
ag201
ag1521
ag1121
ag397
ag1505
ag140
ag127
ag768
ag248
ag1041
ag1442
ag994
ag598
ag1325
ag614
ag1218
ag392
ag1103
ag987
ag1182
ag76
ag1441
ag692
ag814
ag104
ag257
ag802
ag1026
ag131
ag1256
ag555
ag1285
ag288
ag333
ag1311
ag1355
ag1296
ag1008
ag743
ag1051
ag1199
ag983
ag1235
ag639
ag318
ag934
ag435
ag1389
ag430
ag704
ag1327
ag220
ag940
ag815
ag1137
ag952
ag883
ag1426
ag674
ag561
ag1449
ag796
ag401
ag885
ag659
ag783
ag1421
ag1492
ag493
ag1377
ag72
ag754
ag190
ag1211
ag111
ag1104
ag974
ag405
ag527
ag476
ag962
ag531
ag998
ag1215
ag538
ag1033
ag808
ag1053
ag1341
ag281
ag1497
ag79
ag97
ag1304
ag1490
ag679
ag102
ag125
ag1455
ag1463
ag1243
ag443
ag1213
ag106
ag563
ag725
ag210
ag110
ag716
ag778
ag207
ag1179
ag103
ag589
ag511
ag863
ag738
ag356
ag1354
ag650
ag195
ag893
ag723
ag1392
ag260
ag327
ag373
ag1538
ag791
ag985
ag153
ag514
ag741
ag1234
ag876
ag232
ag482
ag1085
ag1173
ag165
ag234
ag542
ag1205
ag180
ag1282
ag997
ag145
ag346
ag748
ag1138
ag438
ag842
ag451
ag424
ag208
ag1482
ag494
ag1351
ag982
ag1172
ag968
ag1400
ag792
ag543
ag1135
ag1136
ag68
ag1303
ag921
ag1474
ag344
ag314
ag918
ag453
ag194
ag1078
ag1160
ag661
ag37
ag984
ag44
ag1546
ag1398
ag950
ag1328
ag1375
ag1076
ag218
ag520
ag1174
ag330
ag377
ag323
ag992
ag620
ag212
ag958
ag287
ag1485
ag90
ag1272
ag1477
ag12
ag1518
ag1098
ag1513
ag1067
ag1332
ag240
ag960
ag821
ag596
ag229
ag181
ag1395
ag993
ag854
ag681
ag1291
ag1117
ag1064
ag386
ag63
ag427
ag1003
ag1090
ag1209
ag735
ag769
ag173
ag41
ag317
ag1250
ag293
ag707
ag949
ag1269
ag657
ag1368
ag425
ag1326
ag357
ag1045
ag1065
ag829
ag447
ag264
ag1430
ag42
ag1017
ag46
ag1186
ag1468
ag1126
ag740
ag326
ag1161
ag592
ag378
ag376
ag944
ag889
ag537
ag462
ag124
ag678
ag1334
ag1214
ag87
ag151
ag663
asS'separator'
p1566
S'='
sS'sparse'
p1567
I01
sb.