ccopy_reg
_reconstructor
p1
(csklearn.feature_extraction.dict_vectorizer
DictVectorizer
p2
c__builtin__
object
p3
NtRp4
(dp5
S'vocabulary_'
p6
(dp7
S'w-1=she'
p8
I109
sS'dobj=contention'
p9
I22
sS'nsubj=Lewis'
p10
I38
sS'advmod=directly'
p11
I1
sS'w-1=be'
p12
I103
sS'advmod=where'
p13
I2
sS'w+2=democratic'
p14
I80
sS'w-2=action'
p15
I122
sS'w-1=statement'
p16
I111
sS'w+2=great'
p17
I84
sS'w-2=go'
p18
I132
sS'ccomp=learn'
p19
I12
sS'w-2=hope'
p20
I135
sS'w+2=intention'
p21
I87
sS'nsubjpass=summit'
p22
I46
sS'w-2=to'
p23
I143
sS'w+2=spirit'
p24
I98
sS'w-2=fair'
p25
I131
sS'w+2=international'
p26
I88
sS'w-2=want'
p27
I145
sS'dobj=condition'
p28
I20
sS'nsubjpass=action'
p29
I44
sS'dobj=concern'
p30
I19
sS'conj=demand'
p31
I17
sS'w-2=they'
p32
I142
sS'w-1=to'
p33
I113
sS'prep=by'
p34
I50
sS'w+2=it'
p35
I89
sS'dobj=spirit'
p36
I34
sS'w-1=exhibit'
p37
I105
sS'w-2=U.S.'
p38
I118
sS'prep=about'
p39
I47
sS'dobj=message'
p40
I29
sS'prep=throughout'
p41
I55
sS'w-1=directly'
p42
I104
sS'w-1=would'
p43
I114
sS'w-1=skin'
p44
I110
sS'w-2=expect'
p45
I130
sS'w+1=this'
p46
I68
sS'w-2=he'
p47
I133
sS'w-1=teacher'
p48
I112
sS'w-2=letter'
p49
I138
sS'w-2=also'
p50
I124
sS'w+2=condolence'
p51
I79
sS'w+2=emotional'
p52
I81
sS'w-2=intend'
p53
I137
sS'w-1=message'
p54
I108
sS'dobj=skill'
p55
I33
sS'prep=at'
p56
I49
sS'w-2=will'
p57
I146
sS'w-2=I'
p58
I116
sS'w-2=.'
p59
I115
sS'prep=with'
p60
I57
sS'w-1=and'
p61
I102
sS'w+1=he'
p62
I62
sS'w-2=anxious'
p63
I125
sS'w-2=Lewis'
p64
I117
sS'aux=have'
p65
I3
sS'nsubj=direction'
p66
I40
sS'w+2=fragile'
p67
I82
sS'w+1=how'
p68
I63
sS'nsubj=exhibit'
p69
I41
sS'w-2=try'
p70
I144
sS'w-2=adversity'
p71
I123
sS'dobj=experience'
p72
I25
sS'w-2=the'
p73
I141
sS'w+1=she'
p74
I65
sS'w-2=in'
p75
I136
sS'w+2=idea'
p76
I86
sS'w+1=message'
p77
I64
sS'w-2=able'
p78
I121
sS'w+1=through'
p79
I69
sS'dobj=desire'
p80
I24
sS'auxpass=be'
p81
I7
sS'prep=through'
p82
I54
sS'dobj=idea'
p83
I26
sS'w-2=effective'
p84
I128
sS'w+2=skill'
p85
I97
sS'w-2=a'
p86
I120
sS'nsubj=skin'
p87
I42
sS'w-2=she'
p88
I140
sS'w+2=message'
p89
I90
sS'w+1=we'
p90
I72
sS'w-1=have'
p91
I106
sS'ccomp=say'
p92
I14
sS'ccomp=become'
p93
I10
sS'dobj=position'
p94
I30
sS'ccomp=magnanimous'
p95
I13
sS'advmod=also'
p96
I0
sS'w+2=syrian'
p97
I99
sS'ccomp=have'
p98
I11
sS'dobj=condolence'
p99
I21
sS'complm=that'
p100
I15
sS'w-2=employ'
p101
I129
sS'w+2=gesture'
p102
I83
sS'prep=after'
p103
I48
sS'conj=accept'
p104
I16
sS'w+2=republican'
p105
I94
sS'dobj=deal'
p106
I23
sS'cc=and'
p107
I8
sS'aux=will'
p108
I5
sS'w+2=position'
p109
I91
sS'w+1=the'
p110
I67
sS'w+1=by'
p111
I61
sS'xcomp=settle'
p112
I147
sS'w+2=shared'
p113
I96
sS'cc=but'
p114
I9
sS'dobj=intention'
p115
I28
sS'w+1=status'
p116
I66
sS'prep=in'
p117
I52
sS'w-1=also'
p118
I101
sS'aux=would'
p119
I6
sS'w-2=York'
p120
I119
sS'nsubj=#PRP#'
p121
I37
sS'conj=think'
p122
I18
sS'prep=from'
p123
I51
sS'w-2=help'
p124
I134
sS'nsubj=York'
p125
I39
sS'nsubj=teacher'
p126
I43
sS'prep=to'
p127
I56
sS'aux=to'
p128
I4
sS'w+2=sense'
p129
I95
sS'w+2=the'
p130
I100
sS'w+1=and'
p131
I60
sS'w-2=sculpture'
p132
I139
sS'prep=like'
p133
I53
sS'w+1=.'
p134
I58
sS'dobj=image'
p135
I27
sS'w+2=.'
p136
I73
sS'w+1=to'
p137
I71
sS'w+2=about'
p138
I76
sS'w+2=China'
p139
I74
sS'w+2=he'
p140
I85
sS'w+2=concern'
p141
I78
sS'dobj=relativity'
p142
I31
sS'nsubjpass=message'
p143
I45
sS'dobj=status'
p144
I35
sS'w-1=in'
p145
I107
sS'w+2=relativity'
p146
I93
sS'w+1=a'
p147
I59
sS'w-2=be'
p148
I127
sS'w+2=anti-trafficking'
p149
I77
sS'w+1=throughout'
p150
I70
sS'w+2=positive'
p151
I92
sS'w-2=attempt'
p152
I126
sS'dobj=sense'
p153
I32
sS'w+2=a'
p154
I75
sS'mark=in'
p155
I36
ssS'dtype'
p156
cnumpy
float64
p157
sS'feature_names_'
p158
(lp159
g96
ag11
ag13
ag65
ag128
ag108
ag119
ag81
ag107
ag114
ag93
ag98
ag19
ag95
ag92
ag100
ag104
ag31
ag122
ag30
ag28
ag99
ag9
ag106
ag80
ag72
ag83
ag135
ag115
ag40
ag94
ag142
ag153
ag55
ag36
ag144
ag155
ag121
ag10
ag125
ag66
ag69
ag87
ag126
ag29
ag143
ag22
ag39
ag103
ag56
ag34
ag123
ag117
ag133
ag82
ag41
ag127
ag60
ag134
ag147
ag131
ag111
ag62
ag68
ag77
ag74
ag116
ag110
ag46
ag79
ag150
ag137
ag90
ag136
ag139
ag154
ag138
ag149
ag141
ag51
ag14
ag52
ag67
ag102
ag17
ag140
ag76
ag21
ag26
ag35
ag89
ag109
ag151
ag146
ag105
ag129
ag113
ag85
ag24
ag97
ag130
ag118
ag61
ag12
ag42
ag37
ag91
ag145
ag54
ag8
ag44
ag16
ag48
ag33
ag43
ag59
ag58
ag64
ag38
ag120
ag86
ag78
ag15
ag71
ag50
ag63
ag152
ag148
ag84
ag101
ag45
ag25
ag18
ag47
ag124
ag20
ag75
ag53
ag49
ag132
ag88
ag73
ag32
ag23
ag70
ag27
ag57
ag112
asS'separator'
p160
S'='
sS'sparse'
p161
I01
sb.