ccopy_reg
_reconstructor
p1
(csklearn.feature_extraction.dict_vectorizer
DictVectorizer
p2
c__builtin__
object
p3
NtRp4
(dp5
S'sort'
p6
I01
sS'feature_names_'
p7
(lp8
S'advcl=look'
p9
aS'advmod=first'
p10
aS'advmod=now'
p11
aS'advmod=typically'
p12
aS'amod=british'
p13
aS'amod=egyptian'
p14
aS'amod=few'
p15
aS'amod=unwanted'
p16
aS'appos=kilo'
p17
aS'appos=kilogram'
p18
aS'appos=lot'
p19
aS'aux=be'
p20
aS'aux=have'
p21
aS'aux=may'
p22
aS'aux=to'
p23
aS'auxpass=get'
p24
aS'cc=and'
p25
aS'cc=or'
p26
aS'conj=bad'
p27
aS'conj=dollar'
p28
aS'conj=franc'
p29
aS'conj=kilo'
p30
aS'conj=more'
p31
aS'cop=be'
p32
aS'dep=answer'
p33
aS'dep=month'
p34
aS'dep=receiver'
p35
aS'det=a'
p36
aS'det=the'
p37
aS'det=those'
p38
aS'dobj=Hamas'
p39
aS'dobj=Lebanon'
p40
aS'dobj=Obama'
p41
aS'dobj=base'
p42
aS'dobj=camp'
p43
aS'dobj=hall'
p44
aS'dobj=hideout'
p45
aS'dobj=other'
p46
aS'dobj=podium'
p47
aS'dobj=position'
p48
aS'dobj=spice'
p49
aS'mark=after'
p50
aS'mark=as'
p51
aS'neg=not'
p52
aS'nsubj=#PRP#'
p53
aS'nsubj=Clinton'
p54
aS'nsubj=Police'
p55
aS'nsubj=aircraft'
p56
aS'nsubj=artillery'
p57
aS'nsubj=llama'
p58
aS'nsubj=rebel'
p59
aS'nsubj=storm'
p60
aS'nsubj=tank'
p61
aS'nsubj=year'
p62
aS'nsubjpass=oil'
p63
aS'num=#NUMBER#'
p64
aS'partmod=destroy'
p65
aS'prep=as'
p66
aS'prep=before'
p67
aS'prep=by'
p68
aS'prep=during'
p69
aS'prep=for'
p70
aS'prep=in'
p71
aS'prep=of'
p72
aS'prep=on'
p73
aS'prep=per'
p74
aS'prep=to'
p75
aS'prep=with'
p76
aS'tmod=night'
p77
aS'w+1=,'
p78
aS'w+1=-lrb-'
p79
aS'w+1=-rrb-'
p80
aS'w+1=.'
p81
aS'w+1=Lebanon'
p82
aS'w+1=Obama'
p83
aS'w+1=a'
p84
aS'w+1=and'
p85
aS'w+1=animal'
p86
aS'w+1=at'
p87
aS'w+1=because'
p88
aS'w+1=by'
p89
aS'w+1=each'
p90
aS'w+1=fall'
p91
aS'w+1=for'
p92
aS'w+1=grain'
p93
aS'w+1=of'
p94
aS'w+1=on'
p95
aS'w+1=or'
p96
aS'w+1=pepper'
p97
aS'w+1=per'
p98
aS'w+1=some'
p99
aS'w+1=sterling'
p100
aS'w+1=suspect'
p101
aS'w+1=the'
p102
aS'w+1=they'
p103
aS'w+2=$'
p104
aS'w+2=,'
p105
aS'w+2=136'
p106
aS'w+2=18'
p107
aS'w+2=18,000'
p108
aS'w+2=80'
p109
aS'w+2=I'
p110
aS'w+2=a'
p111
aS'w+2=at'
p112
aS'w+2=base'
p113
aS'w+2=both'
p114
aS'w+2=camp'
p115
aS'w+2=coffee'
p116
aS'w+2=control'
p117
aS'w+2=dollar'
p118
aS'w+2=during'
p119
aS'w+2=for'
p120
aS'w+2=franc'
p121
aS'w+2=front-line'
p122
aS'w+2=goods'
p123
aS'w+2=hall'
p124
aS'w+2=hip-swaying'
p125
aS'w+2=in'
p126
aS'w+2=kilo'
p127
aS'w+2=kurdish'
p128
aS'w+2=militant'
p129
aS'w+2=month'
p130
aS'w+2=more'
p131
aS'w+2=on'
p132
aS'w+2=onsider'
p133
aS'w+2=other'
p134
aS'w+2=plastic'
p135
aS'w+2=podium'
p136
aS'w+2=produce'
p137
aS'w+2=spice'
p138
aS'w+2=square'
p139
aS'w+2=target'
p140
aS'w+2=that'
p141
aS'w+2=the'
p142
aS'w+2=they'
p143
aS'w+2=to'
p144
aS'w+2=year'
p145
aS'w+2=zebra'
p146
aS'w-1=,'
p147
aS'w-1=.'
p148
aS'w-1=100'
p149
aS'w-1=12,500'
p150
aS'w-1=180'
p151
aS'w-1=20'
p152
aS'w-1=300'
p153
aS'w-1=40'
p154
aS'w-1=40,000'
p155
aS'w-1=400'
p156
aS'w-1=50'
p157
aS'w-1=90,000'
p158
aS'w-1=a'
p159
aS'w-1=aircraft'
p160
aS'w-1=artillery'
p161
aS'w-1=baton'
p162
aS'w-1=be'
p163
aS'w-1=begin'
p164
aS'w-1=billion'
p165
aS'w-1=british'
p166
aS'w-1=egyptian'
p167
aS'w-1=few'
p168
aS'w-1=first'
p169
aS'w-1=get'
p170
aS'w-1=have'
p171
aS'w-1=he'
p172
aS'w-1=like'
p173
aS'w-1=million'
p174
aS'w-1=of'
p175
aS'w-1=powerful'
p176
aS'w-1=storm'
p177
aS'w-1=tank'
p178
aS'w-1=the'
p179
aS'w-1=thousand'
p180
aS'w-1=to'
p181
aS'w-1=unwanted'
p182
aS'w-1=woman'
p183
aS'w-2=,'
p184
aS'w-2=.'
p185
aS'w-2=125'
p186
aS'w-2=20,000'
p187
aS'w-2=300'
p188
aS'w-2=350'
p189
aS'w-2=Mix'
p190
aS'w-2=a'
p191
aS'w-2=and'
p192
aS'w-2=area'
p193
aS'w-2=army'
p194
aS'w-2=be'
p195
aS'w-2=billion'
p196
aS'w-2=ethiopian'
p197
aS'w-2=get'
p198
aS'w-2=in'
p199
aS'w-2=israeli'
p200
aS'w-2=kitchen'
p201
aS'w-2=may'
p202
aS'w-2=million'
p203
aS'w-2=not'
p204
aS'w-2=of'
p205
aS'w-2=person'
p206
aS'w-2=prime'
p207
aS'w-2=rebel'
p208
aS'w-2=she'
p209
aS'w-2=supporter'
p210
aS'w-2=sweating-off'
p211
aS'w-2=take'
p212
aS'w-2=than'
p213
aS'w-2=the'
p214
aS'w-2=this'
p215
aS'w-2=those'
p216
aS'w-2=to'
p217
aS'w-2=turkish'
p218
aS'w-2=weigh'
p219
aS'w-2=wield'
p220
aS'w-2=win'
p221
aS'xcomp=prevent'
p222
aS'xcomp=say'
p223
asS'dtype'
p224
cnumpy
float64
p225
sS'vocabulary_'
p226
(dp227
g100
I91
sg67
I58
sg196
I187
sg207
I198
sg128
I119
sg60
I51
sg114
I105
sg197
I188
sg124
I115
sg80
I71
sg98
I89
sg181
I172
sg123
I114
sg119
I110
sg88
I79
sg37
I28
sg141
I132
sg68
I59
sg107
I98
sg149
I140
sg58
I49
sg198
I189
sg220
I211
sg192
I183
sg182
I173
sg24
I15
sg115
I106
sg167
I158
sg205
I196
sg175
I166
sg106
I97
sg173
I164
sg43
I34
sg217
I208
sg133
I124
sg169
I160
sg59
I50
sg131
I122
sg200
I191
sg16
I7
sg156
I147
sg203
I194
sg104
I95
sg31
I22
sg32
I23
sg211
I202
sg164
I155
sg113
I104
sg180
I171
sg109
I100
sg41
I32
sg155
I146
sg93
I84
sg130
I121
sg212
I203
sg122
I113
sg138
I129
sg142
I133
sg11
I2
sg135
I126
sg66
I57
sg184
I175
sg185
I176
sg74
I65
sg26
I17
sg189
I180
sg161
I152
sg46
I37
sg22
I13
sg21
I12
sg86
I77
sg63
I54
sg163
I154
sg45
I36
sg148
I139
sg147
I138
sg204
I195
sg214
I205
sg27
I18
sg76
I67
sg35
I26
sg199
I190
sg56
I47
sg153
I144
sg190
I181
sg33
I24
sg183
I174
sg83
I74
sg150
I141
sg118
I109
sg201
I192
sg117
I108
sg89
I80
sg94
I85
sg139
I130
sg101
I92
sg144
I135
sg95
I86
sg40
I31
sg191
I182
sg48
I39
sg187
I178
sg209
I200
sg70
I61
sg36
I27
sg96
I87
sg159
I150
sg176
I167
sg18
I9
sg223
I214
sg47
I38
sg171
I162
sg87
I78
sg134
I125
sg64
I55
sg143
I134
sg15
I6
sg112
I103
sg126
I117
sg51
I42
sg172
I163
sg90
I81
sg219
I210
sg216
I207
sg160
I151
sg202
I193
sg108
I99
sg168
I159
sg121
I112
sg29
I20
sg178
I169
sg116
I107
sg57
I48
sg39
I30
sg28
I19
sg158
I149
sg25
I16
sg54
I45
sg154
I145
sg14
I5
sg17
I8
sg102
I93
sg38
I29
sg91
I82
sg137
I128
sg213
I204
sg186
I177
sg103
I94
sg9
I0
sg221
I212
sg218
I209
sg215
I206
sg71
I62
sg140
I131
sg19
I10
sg188
I179
sg92
I83
sg79
I70
sg127
I118
sg53
I44
sg82
I73
sg177
I168
sg157
I148
sg75
I66
sg125
I116
sg61
I52
sg23
I14
sg77
I68
sg208
I199
sg65
I56
sg145
I136
sg170
I161
sg165
I156
sg85
I76
sg42
I33
sg129
I120
sg13
I4
sg78
I69
sg81
I72
sg99
I90
sg105
I96
sg34
I25
sg132
I123
sg120
I111
sg62
I53
sg52
I43
sg206
I197
sg69
I60
sg151
I142
sg136
I127
sg30
I21
sg110
I101
sg152
I143
sg166
I157
sg146
I137
sg84
I75
sg195
I186
sg210
I201
sg72
I63
sg10
I1
sg162
I153
sg97
I88
sg179
I170
sg174
I165
sg73
I64
sg44
I35
sg50
I41
sg194
I185
sg20
I11
sg222
I213
sg55
I46
sg193
I184
sg111
I102
sg49
I40
sg12
I3
ssS'separator'
p228
S'='
sS'sparse'
p229
I01
sb.