ccopy_reg
_reconstructor
p1
(csklearn.feature_extraction.dict_vectorizer
DictVectorizer
p2
c__builtin__
object
p3
NtRp4
(dp5
S'sort'
p6
I01
sS'feature_names_'
p7
(lp8
S'acomp=out'
p9
aS'advcl=be'
p10
aS'advcl=challenge'
p11
aS'advcl=come'
p12
aS'advcl=complete'
p13
aS'advcl=for'
p14
aS'advcl=in'
p15
aS'advcl=meeting'
p16
aS'advmod=along'
p17
aS'advmod=also'
p18
aS'advmod=appropriately'
p19
aS'advmod=badly'
p20
aS'advmod=best'
p21
aS'advmod=better'
p22
aS'advmod=completely'
p23
aS'advmod=currently'
p24
aS'advmod=differently'
p25
aS'advmod=directly'
p26
aS'advmod=efficiently'
p27
aS'advmod=enough'
p28
aS'advmod=especially'
p29
aS'advmod=expeditiously'
p30
aS'advmod=firmly'
p31
aS'advmod=graciously'
p32
aS'advmod=how'
p33
aS'advmod=improperly'
p34
aS'advmod=instead'
p35
aS'advmod=legally'
p36
aS'advmod=normally'
p37
aS'advmod=obviously'
p38
aS'advmod=poorly'
p39
aS'advmod=properly'
p40
aS'advmod=prudently'
p41
aS'advmod=really'
p42
aS'advmod=securely'
p43
aS'advmod=separately'
p44
aS'advmod=single-handedly'
p45
aS'advmod=still'
p46
aS'advmod=there'
p47
aS'advmod=well'
p48
aS'advmod=where'
p49
aS'aux=be'
p50
aS'aux=can'
p51
aS'aux=could'
p52
aS'aux=have'
p53
aS'aux=should'
p54
aS'aux=to'
p55
aS'aux=will'
p56
aS'auxpass=be'
p57
aS'cc=and'
p58
aS'cc=but'
p59
aS'ccomp=capture'
p60
aS'ccomp=improve'
p61
aS'ccomp=know'
p62
aS'ccomp=leader'
p63
aS'ccomp=say'
p64
aS'ccomp=see'
p65
aS'complm=that'
p66
aS'conj=allow'
p67
aS'conj=become'
p68
aS'conj=bring'
p69
aS'conj=choose'
p70
aS'conj=do'
p71
aS'conj=guard'
p72
aS'conj=handle'
p73
aS'conj=present'
p74
aS'conj=punish'
p75
aS'conj=responsibility'
p76
aS'conj=stay'
p77
aS'conj=tackle'
p78
aS'dep=do'
p79
aS'dep=on'
p80
aS'dep=pregnant'
p81
aS'dobj=#PRP#'
p82
aS'dobj=Afghanistan'
p83
aS'dobj=Egypt'
p84
aS'dobj=Gambia'
p85
aS'dobj=Nkunda'
p86
aS'dobj=accident'
p87
aS'dobj=affair'
p88
aS'dobj=aid'
p89
aS'dobj=all'
p90
aS'dobj=anything'
p91
aS'dobj=arrest'
p92
aS'dobj=assignment'
p93
aS'dobj=astronaut'
p94
aS'dobj=ball'
p95
aS'dobj=bulk'
p96
aS'dobj=burden'
p97
aS'dobj=business'
p98
aS'dobj=case'
p99
aS'dobj=change'
p100
aS'dobj=chicken'
p101
aS'dobj=complexity'
p102
aS'dobj=complication'
p103
aS'dobj=concern'
p104
aS'dobj=conflict'
p105
aS'dobj=constraint'
p106
aS'dobj=container'
p107
aS'dobj=crisis'
p108
aS'dobj=crowd'
p109
aS'dobj=datum'
p110
aS'dobj=deal'
p111
aS'dobj=debate'
p112
aS'dobj=delivery'
p113
aS'dobj=deployment'
p114
aS'dobj=disaster'
p115
aS'dobj=duty'
p116
aS'dobj=economy'
p117
aS'dobj=effect'
p118
aS'dobj=emotion'
p119
aS'dobj=end'
p120
aS'dobj=exodus'
p121
aS'dobj=explosive'
p122
aS'dobj=fight'
p123
aS'dobj=form'
p124
aS'dobj=fund'
p125
aS'dobj=grievance'
p126
aS'dobj=growth'
p127
aS'dobj=incident'
p128
aS'dobj=inflation'
p129
aS'dobj=information'
p130
aS'dobj=inquiry'
p131
aS'dobj=investigation'
p132
aS'dobj=issue'
p133
aS'dobj=justice'
p134
aS'dobj=leadership'
p135
aS'dobj=legislation'
p136
aS'dobj=livestock'
p137
aS'dobj=load'
p138
aS'dobj=many'
p139
aS'dobj=matter'
p140
aS'dobj=mom'
p141
aS'dobj=more'
p142
aS'dobj=much'
p143
aS'dobj=music'
p144
aS'dobj=oil'
p145
aS'dobj=operation'
p146
aS'dobj=pandemic'
p147
aS'dobj=payload'
p148
aS'dobj=people'
p149
aS'dobj=permit'
p150
aS'dobj=pressure'
p151
aS'dobj=problem'
p152
aS'dobj=process'
p153
aS'dobj=question'
p154
aS'dobj=queue-line'
p155
aS'dobj=relation'
p156
aS'dobj=responsibility'
p157
aS'dobj=rest'
p158
aS'dobj=rifle'
p159
aS'dobj=rise'
p160
aS'dobj=sale'
p161
aS'dobj=scandal'
p162
aS'dobj=security'
p163
aS'dobj=seeker'
p164
aS'dobj=situation'
p165
aS'dobj=staff'
p166
aS'dobj=statistics'
p167
aS'dobj=subsidy'
p168
aS'dobj=support'
p169
aS'dobj=surface'
p170
aS'dobj=surge'
p171
aS'dobj=suspect'
p172
aS'dobj=system'
p173
aS'dobj=talk'
p174
aS'dobj=tanker'
p175
aS'dobj=tape'
p176
aS'dobj=task'
p177
aS'dobj=that'
p178
aS'dobj=the'
p179
aS'dobj=thing'
p180
aS'dobj=those'
p181
aS'dobj=threat'
p182
aS'dobj=transaction'
p183
aS'dobj=transfer'
p184
aS'dobj=troops'
p185
aS'dobj=turnout'
p186
aS'dobj=volume'
p187
aS'dobj=vote'
p188
aS'dobj=war'
p189
aS'dobj=workload'
p190
aS'mark=as'
p191
aS'mark=because'
p192
aS'mark=before'
p193
aS'mark=if'
p194
aS'mark=like'
p195
aS'mark=while'
p196
aS'neg=not'
p197
aS'nsubj=#PRP#'
p198
aS'nsubj=Brazil'
p199
aS'nsubj=Britain'
p200
aS'nsubj=Bush'
p201
aS'nsubj=Church'
p202
aS'nsubj=Crescent'
p203
aS'nsubj=Gonzales'
p204
aS'nsubj=Liberia'
p205
aS'nsubj=McClellan'
p206
aS'nsubj=Musharraf'
p207
aS'nsubj=Sims'
p208
aS'nsubj=States'
p209
aS'nsubj=Uribe'
p210
aS'nsubj=Zardari'
p211
aS'nsubj=a'
p212
aS'nsubj=agency'
p213
aS'nsubj=and'
p214
aS'nsubj=authority'
p215
aS'nsubj=committee'
p216
aS'nsubj=consumer'
p217
aS'nsubj=country'
p218
aS'nsubj=court'
p219
aS'nsubj=cue'
p220
aS'nsubj=embassy'
p221
aS'nsubj=facility'
p222
aS'nsubj=force'
p223
aS'nsubj=government'
p224
aS'nsubj=lawyer'
p225
aS'nsubj=mark'
p226
aS'nsubj=official'
p227
aS'nsubj=person'
p228
aS'nsubj=plan'
p229
aS'nsubj=port'
p230
aS'nsubj=president'
p231
aS'nsubj=refinery'
p232
aS'nsubj=reporter'
p233
aS'nsubj=scandal'
p234
aS'nsubj=size'
p235
aS'nsubj=somebody'
p236
aS'nsubj=state'
p237
aS'nsubj=station'
p238
aS'nsubj=strategy'
p239
aS'nsubj=that'
p240
aS'nsubj=visitor'
p241
aS'nsubj=which'
p242
aS'nsubj=who'
p243
aS'nsubj=wife'
p244
aS'nsubj=woman'
p245
aS'nsubjpass=#PRP#'
p246
aS'nsubjpass=case'
p247
aS'nsubjpass=conflict'
p248
aS'nsubjpass=crisis'
p249
aS'nsubjpass=dismissal'
p250
aS'nsubjpass=firing'
p251
aS'nsubjpass=incident'
p252
aS'nsubjpass=issue'
p253
aS'nsubjpass=justice'
p254
aS'nsubjpass=matter'
p255
aS'nsubjpass=negotiation'
p256
aS'nsubjpass=percent'
p257
aS'nsubjpass=problem'
p258
aS'nsubjpass=process'
p259
aS'nsubjpass=question'
p260
aS'nsubjpass=resettlement'
p261
aS'nsubjpass=this'
p262
aS'nsubjpass=trial'
p263
aS'nsubjpass=vote'
p264
aS'nsubjpass=war'
p265
aS'nsubjpass=way'
p266
aS'parataxis=insist'
p267
aS'prep=as'
p268
aS'prep=at'
p269
aS'prep=by'
p270
aS'prep=during'
p271
aS'prep=for'
p272
aS'prep=from'
p273
aS'prep=in'
p274
aS'prep=inside'
p275
aS'prep=like'
p276
aS'prep=of'
p277
aS'prep=on'
p278
aS'prep=over'
p279
aS'prep=since'
p280
aS'prep=than'
p281
aS'prep=that'
p282
aS'prep=to'
p283
aS'prep=with'
p284
aS'prep=without'
p285
aS'prt=back'
p286
aS'rel=in'
p287
aS'tmod=physically'
p288
aS'tmod=week'
p289
aS"w+1=''"
p290
aS'w+1=,'
p291
aS'w+1=-lrb-'
p292
aS'w+1=.'
p293
aS'w+1=?'
p294
aS'w+1=Afghanistan'
p295
aS'w+1=Egypt'
p296
aS'w+1=Ireland'
p297
aS'w+1=Nkunda'
p298
aS'w+1=U.S.'
p299
aS'w+1=a'
p300
aS'w+1=african'
p301
aS'w+1=agriculture'
p302
aS'w+1=all'
p303
aS'w+1=and'
p304
aS'w+1=any'
p305
aS'w+1=anything'
p306
aS'w+1=appropriately'
p307
aS'w+1=arm'
p308
aS'w+1=asylum'
p309
aS'w+1=at'
p310
aS'w+1=back'
p311
aS'w+1=badly'
p312
aS'w+1=basic'
p313
aS'w+1=bigger'
p314
aS'w+1=by'
p315
aS'w+1=case'
p316
aS'w+1=change'
p317
aS'w+1=classify'
p318
aS'w+1=completely'
p319
aS'w+1=complication'
p320
aS'w+1=crisis'
p321
aS'w+1=dead'
p322
aS'w+1=delivery'
p323
aS'w+1=directly'
p324
aS'w+1=economic'
p325
aS'w+1=expeditiously'
p326
aS'w+1=explosive'
p327
aS'w+1=extended'
p328
aS'w+1=firmly'
p329
aS'w+1=graciously'
p330
aS'w+1=grave'
p331
aS'w+1=grievance'
p332
aS'w+1=he'
p333
aS'w+1=heavy'
p334
aS'w+1=improperly'
p335
aS'w+1=in'
p336
aS'w+1=industrial-relation'
p337
aS'w+1=inflation'
p338
aS'w+1=inside'
p339
aS'w+1=international'
p340
aS'w+1=issue'
p341
aS'w+1=it'
p342
aS'w+1=its'
p343
aS'w+1=justice'
p344
aS'w+1=large'
p345
aS'w+1=like'
p346
aS'w+1=live'
p347
aS'w+1=livestock'
p348
aS'w+1=many'
p349
aS'w+1=mathematical'
p350
aS'w+1=mom'
p351
aS'w+1=more'
p352
aS'w+1=much'
p353
aS'w+1=multiple'
p354
aS'w+1=national'
p355
aS'w+1=natural'
p356
aS'w+1=new'
p357
aS'w+1=nuclear-related'
p358
aS'w+1=oil'
p359
aS'w+1=on'
p360
aS'w+1=only'
p361
aS'w+1=operation'
p362
aS'w+1=other'
p363
aS'w+1=over'
p364
aS'w+1=people'
p365
aS'w+1=permit'
p366
aS'w+1=politically'
p367
aS'w+1=properly'
p368
aS'w+1=relation'
p369
aS'w+1=rifle'
p370
aS'w+1=security'
p371
aS'w+1=seizure'
p372
aS'w+1=separately'
p373
aS'w+1=six'
p374
aS'w+1=snow'
p375
aS'w+1=statistics'
p376
aS'w+1=such'
p377
aS'w+1=terrorism'
p378
aS'w+1=terrorist'
p379
aS'w+1=that'
p380
aS'w+1=the'
p381
aS'w+1=they'
p382
aS'w+1=thing'
p383
aS'w+1=this'
p384
aS'w+1=those'
p385
aS'w+1=through'
p386
aS'w+1=various'
p387
aS'w+1=vote'
p388
aS'w+1=well'
p389
aS'w+1=with'
p390
aS"w+2=''"
p391
aS"w+2='s"
p392
aS'w+2=,'
p393
aS'w+2=-lrb-'
p394
aS'w+2=.'
p395
aS'w+2=100,000'
p396
aS'w+2=?'
p397
aS'w+2=Afghan'
p398
aS'w+2=Gambia'
p399
aS'w+2=Iraq'
p400
aS'w+2=a'
p401
aS'w+2=about'
p402
aS'w+2=accident'
p403
aS'w+2=accuse'
p404
aS'w+2=affair'
p405
aS'w+2=against'
p406
aS'w+2=againstsuspected'
p407
aS'w+2=and'
p408
aS'w+2=arrest'
p409
aS'w+2=assignment'
p410
aS'w+2=astronaut'
p411
aS'w+2=away'
p412
aS'w+2=ball'
p413
aS'w+2=be'
p414
aS'w+2=book'
p415
aS'w+2=bulk'
p416
aS'w+2=burden'
p417
aS'w+2=business'
p418
aS'w+2=by'
p419
aS'w+2=case'
p420
aS'w+2=chicken'
p421
aS'w+2=complexity'
p422
aS'w+2=complicated'
p423
aS'w+2=concern'
p424
aS'w+2=conflict'
p425
aS'w+2=core'
p426
aS'w+2=criminal'
p427
aS'w+2=crisis'
p428
aS'w+2=crude'
p429
aS'w+2=day-to-day'
p430
aS'w+2=deal'
p431
aS'w+2=debt'
p432
aS'w+2=deployment'
p433
aS'w+2=diplomatic'
p434
aS'w+2=disaster'
p435
aS'w+2=during'
p436
aS'w+2=duty'
p437
aS'w+2=economy'
p438
aS'w+2=effect'
p439
aS'w+2=emotion'
p440
aS'w+2=end'
p441
aS'w+2=environmental'
p442
aS'w+2=fight'
p443
aS'w+2=financial'
p444
aS'w+2=first'
p445
aS'w+2=fiscal'
p446
aS'w+2=for'
p447
aS'w+2=form'
p448
aS'w+2=from'
p449
aS'w+2=fund'
p450
aS'w+2=great'
p451
aS'w+2=grow'
p452
aS'w+2=growth'
p453
aS'w+2=humanitarian'
p454
aS'w+2=in'
p455
aS'w+2=incident'
p456
aS'w+2=information'
p457
aS'w+2=inquiry'
p458
aS'w+2=investigation'
p459
aS'w+2=issue'
p460
aS'w+2=legally'
p461
aS'w+2=legislation'
p462
aS'w+2=leopard'
p463
aS'w+2=like'
p464
aS'w+2=likely'
p465
aS'w+2=load'
p466
aS'w+2=massive'
p467
aS'w+2=matter'
p468
aS'w+2=meltdown'
p469
aS'w+2=migration'
p470
aS'w+2=much'
p471
aS'w+2=multi-million'
p472
aS'w+2=new'
p473
aS'w+2=next'
p474
aS'w+2=of'
p475
aS'w+2=office'
p476
aS'w+2=on'
p477
aS'w+2=or'
p478
aS'w+2=out'
p479
aS'w+2=own'
p480
aS'w+2=payload'
p481
aS'w+2=people'
p482
aS'w+2=personal'
p483
aS'w+2=political'
p484
aS'w+2=port'
p485
aS'w+2=pressure'
p486
aS'w+2=problem'
p487
aS'w+2=process'
p488
aS'w+2=prosecution'
p489
aS'w+2=question'
p490
aS'w+2=queue-line'
p491
aS'w+2=real'
p492
aS'w+2=red'
p493
aS'w+2=rest'
p494
aS'w+2=rise'
p495
aS'w+2=sale'
p496
aS'w+2=sar'
p497
aS'w+2=secrecy'
p498
aS'w+2=security'
p499
aS'w+2=seeker'
p500
aS'w+2=sex'
p501
aS'w+2=situation'
p502
aS'w+2=subsidy'
p503
aS'w+2=substantial'
p504
aS'w+2=surface'
p505
aS'w+2=suspect'
p506
aS'w+2=talk'
p507
aS'w+2=tanker'
p508
aS'w+2=task'
p509
aS'w+2=that'
p510
aS'w+2=the'
p511
aS'w+2=there'
p512
aS'w+2=this'
p513
aS'w+2=those'
p514
aS'w+2=threat'
p515
aS'w+2=transaction'
p516
aS'w+2=transfer'
p517
aS'w+2=tsunami'
p518
aS'w+2=turnout'
p519
aS'w+2=unruly'
p520
aS'w+2=very'
p521
aS'w+2=volume'
p522
aS'w+2=war'
p523
aS'w+2=when'
p524
aS'w+2=which'
p525
aS'w+2=who'
p526
aS'w+2=will'
p527
aS'w+2=with'
p528
aS'w+2=worst'
p529
aS"w-1=''"
p530
aS'w-1=,'
p531
aS'w-1=.'
p532
aS'w-1=Crescent'
p533
aS'w-1=Gonzales'
p534
aS'w-1=Liberia'
p535
aS'w-1=Sims'
p536
aS'w-1=a'
p537
aS'w-1=also'
p538
aS'w-1=and'
p539
aS'w-1=authority'
p540
aS'w-1=badly'
p541
aS'w-1=be'
p542
aS'w-1=best'
p543
aS'w-1=broom'
p544
aS'w-1=can'
p545
aS'w-1=completely'
p546
aS'w-1=court'
p547
aS'w-1=currently'
p548
aS'w-1=facility'
p549
aS'w-1=for'
p550
aS'w-1=government'
p551
aS'w-1=have'
p552
aS'w-1=he'
p553
aS'w-1=if'
p554
aS'w-1=in'
p555
aS'w-1=it'
p556
aS'w-1=matter'
p557
aS'w-1=normally'
p558
aS'w-1=not'
p559
aS'w-1=of'
p560
aS'w-1=official'
p561
aS'w-1=on'
p562
aS'w-1=or'
p563
aS'w-1=physically'
p564
aS'w-1=please'
p565
aS'w-1=police'
p566
aS'w-1=poorly'
p567
aS'w-1=president'
p568
aS'w-1=properly'
p569
aS'w-1=she'
p570
aS'w-1=should'
p571
aS'w-1=system'
p572
aS'w-1=that'
p573
aS'w-1=they'
p574
aS'w-1=to'
p575
aS'w-1=towards'
p576
aS'w-1=turn'
p577
aS'w-1=which'
p578
aS'w-1=who'
p579
aS'w-1=wife'
p580
aS'w-1=will'
p581
aS'w-1=you'
p582
aS'w-2=,'
p583
aS'w-2=-'
p584
aS'w-2=.'
p585
aS'w-2=Britain'
p586
aS'w-2=Bush'
p587
aS'w-2=Church'
p588
aS'w-2=Clay'
p589
aS'w-2=Congress'
p590
aS'w-2=I'
p591
aS'w-2=McClellan'
p592
aS'w-2=Pakistan'
p593
aS'w-2=Pyongyang'
p594
aS'w-2=Red'
p595
aS'w-2=Uribe'
p596
aS'w-2=Vlore'
p597
aS'w-2=Zardari'
p598
aS'w-2=ability'
p599
aS'w-2=able'
p600
aS'w-2=aftermath'
p601
aS'w-2=agency'
p602
aS'w-2=allow'
p603
aS'w-2=also'
p604
aS'w-2=and'
p605
aS'w-2=ball'
p606
aS'w-2=be'
p607
aS'w-2=brain'
p608
aS'w-2=but'
p609
aS'w-2=can'
p610
aS'w-2=capable'
p611
aS'w-2=capacity'
p612
aS'w-2=center'
p613
aS'w-2=chinese'
p614
aS'w-2=committee'
p615
aS'w-2=company'
p616
aS'w-2=continue'
p617
aS'w-2=could'
p618
aS'w-2=country'
p619
aS'w-2=court'
p620
aS'w-2=create'
p621
aS'w-2=decision'
p622
aS'w-2=dismissal'
p623
aS'w-2=each'
p624
aS'w-2=economy'
p625
aS'w-2=enough'
p626
aS'w-2=equip'
p627
aS'w-2=find'
p628
aS'w-2=firing'
p629
aS'w-2=force'
p630
aS'w-2=get'
p631
aS'w-2=government'
p632
aS'w-2=have'
p633
aS'w-2=he'
p634
aS'w-2=health'
p635
aS'w-2=highly-secretive'
p636
aS'w-2=how'
p637
aS'w-2=however'
p638
aS'w-2=inadequate'
p639
aS'w-2=incapable'
p640
aS'w-2=infrastructure'
p641
aS'w-2=international'
p642
aS'w-2=issue'
p643
aS'w-2=it'
p644
aS'w-2=job'
p645
aS'w-2=know'
p646
aS'w-2=lawyer'
p647
aS'w-2=like'
p648
aS'w-2=manage'
p649
aS'w-2=mark'
p650
aS'w-2=matter'
p651
aS'w-2=measure'
p652
aS'w-2=method'
p653
aS'w-2=mistake'
p654
aS'w-2=not'
p655
aS'w-2=official'
p656
aS'w-2=only'
p657
aS'w-2=order'
p658
aS'w-2=past'
p659
aS'w-2=person'
p660
aS'w-2=place'
p661
aS'w-2=plan'
p662
aS'w-2=port'
p663
aS'w-2=prepare'
p664
aS'w-2=prepared'
p665
aS'w-2=president'
p666
aS'w-2=raise'
p667
aS'w-2=ready'
p668
aS'w-2=refinery'
p669
aS'w-2=refuse'
p670
aS'w-2=school'
p671
aS'w-2=should'
p672
aS'w-2=so'
p673
aS'w-2=special'
p674
aS'w-2=specialist'
p675
aS'w-2=staff'
p676
aS'w-2=stand-by'
p677
aS'w-2=standby'
p678
aS'w-2=strategy'
p679
aS'w-2=tactic'
p680
aS'w-2=task'
p681
aS'w-2=team'
p682
aS'w-2=term'
p683
aS'w-2=that'
p684
aS'w-2=the'
p685
aS'w-2=there'
p686
aS'w-2=they'
p687
aS'w-2=to'
p688
aS'w-2=toothpaste'
p689
aS'w-2=trade'
p690
aS'w-2=try'
p691
aS'w-2=unable'
p692
aS'w-2=university'
p693
aS'w-2=up'
p694
aS'w-2=very'
p695
aS'w-2=way'
p696
aS'w-2=we'
p697
aS'w-2=weapon'
p698
aS'w-2=where'
p699
aS'w-2=which'
p700
aS'w-2=will'
p701
aS'w-2=willing'
p702
aS'w-2=woman'
p703
aS'w-2=would'
p704
aS'w-2=year'
p705
aS'xcomp=attend'
p706
aS'xcomp=better'
p707
aS'xcomp=criminal'
p708
aS'xcomp=economic'
p709
aS'xcomp=pack'
p710
aS'xcomp=take'
p711
aS'xcomp=war'
p712
asS'dtype'
p713
cnumpy
float64
p714
sS'vocabulary_'
p715
(dp716
g606
I597
sg354
I345
sg519
I510
sg130
I121
sg446
I437
sg487
I478
sg498
I489
sg322
I313
sg91
I82
sg436
I427
sg143
I134
sg541
I532
sg406
I397
sg474
I465
sg302
I293
sg48
I39
sg521
I512
sg571
I562
sg76
I67
sg282
I273
sg151
I142
sg338
I329
sg687
I678
sg281
I272
sg230
I221
sg270
I261
sg619
I610
sg380
I371
sg670
I661
sg244
I235
sg224
I215
sg558
I549
sg62
I53
sg689
I680
sg301
I292
sg375
I366
sg238
I229
sg116
I107
sg469
I460
sg522
I513
sg624
I615
sg361
I352
sg23
I14
sg697
I688
sg696
I687
sg22
I13
sg581
I572
sg429
I420
sg681
I672
sg186
I177
sg292
I283
sg712
I703
sg542
I533
sg15
I6
sg442
I433
sg208
I199
sg175
I166
sg685
I676
sg316
I307
sg39
I30
sg12
I3
sg174
I165
sg356
I347
sg180
I171
sg448
I439
sg496
I487
sg360
I351
sg641
I632
sg675
I666
sg445
I436
sg128
I119
sg36
I27
sg94
I85
sg540
I531
sg430
I421
sg552
I543
sg64
I55
sg481
I472
sg595
I586
sg426
I417
sg394
I385
sg455
I446
sg167
I158
sg32
I23
sg526
I517
sg170
I161
sg656
I647
sg427
I418
sg602
I593
sg538
I529
sg578
I569
sg66
I57
sg365
I356
sg140
I131
sg241
I232
sg413
I404
sg586
I577
sg679
I670
sg433
I424
sg582
I573
sg80
I71
sg9
I0
sg257
I248
sg551
I542
sg228
I219
sg85
I76
sg195
I186
sg450
I441
sg10
I1
sg422
I413
sg684
I675
sg381
I372
sg414
I405
sg382
I373
sg187
I178
sg612
I603
sg147
I138
sg385
I376
sg416
I407
sg379
I370
sg317
I308
sg274
I265
sg569
I560
sg251
I242
sg106
I97
sg129
I120
sg102
I93
sg378
I369
sg308
I299
sg318
I309
sg440
I431
sg271
I262
sg312
I303
sg667
I658
sg283
I274
sg182
I173
sg484
I475
sg179
I170
sg409
I400
sg576
I567
sg658
I649
sg205
I196
sg256
I247
sg431
I422
sg142
I133
sg97
I88
sg447
I438
sg363
I354
sg305
I296
sg28
I19
sg304
I295
sg240
I231
sg556
I547
sg341
I332
sg114
I105
sg632
I623
sg339
I330
sg692
I683
sg674
I665
sg554
I545
sg176
I167
sg134
I125
sg555
I546
sg70
I61
sg90
I81
sg346
I337
sg204
I195
sg460
I451
sg14
I5
sg194
I185
sg611
I602
sg309
I300
sg628
I619
sg465
I456
sg677
I668
sg141
I132
sg127
I118
sg49
I40
sg200
I191
sg118
I109
sg620
I611
sg150
I141
sg95
I86
sg201
I192
sg112
I103
sg580
I571
sg594
I585
sg68
I59
sg428
I419
sg711
I702
sg149
I140
sg457
I448
sg169
I160
sg243
I234
sg77
I68
sg699
I690
sg587
I578
sg337
I328
sg133
I124
sg264
I255
sg575
I566
sg501
I492
sg101
I92
sg29
I20
sg35
I26
sg683
I674
sg506
I497
sg82
I73
sg434
I425
sg215
I206
sg319
I310
sg172
I163
sg523
I514
sg512
I503
sg222
I213
sg158
I149
sg599
I590
sg306
I297
sg207
I198
sg636
I627
sg217
I208
sg177
I168
sg423
I414
sg546
I537
sg279
I270
sg407
I398
sg464
I455
sg310
I301
sg326
I317
sg533
I524
sg648
I639
sg333
I324
sg373
I364
sg548
I539
sg234
I225
sg706
I697
sg676
I667
sg444
I435
sg545
I536
sg139
I130
sg93
I84
sg420
I411
sg600
I591
sg386
I377
sg250
I241
sg253
I244
sg617
I608
sg640
I631
sg295
I286
sg480
I471
sg202
I193
sg81
I72
sg635
I626
sg42
I33
sg668
I659
sg73
I64
sg592
I583
sg588
I579
sg272
I263
sg17
I8
sg254
I245
sg161
I152
sg223
I214
sg678
I669
sg462
I453
sg37
I28
sg507
I498
sg132
I123
sg404
I395
sg232
I223
sg621
I612
sg57
I48
sg11
I2
sg61
I52
sg649
I640
sg517
I508
sg210
I201
sg669
I660
sg46
I37
sg231
I222
sg63
I54
sg509
I500
sg623
I614
sg237
I228
sg372
I363
sg454
I445
sg410
I401
sg343
I334
sg362
I353
sg528
I519
sg709
I700
sg353
I344
sg530
I521
sg485
I476
sg694
I685
sg417
I408
sg203
I194
sg358
I349
sg661
I652
sg335
I326
sg405
I396
sg331
I322
sg276
I267
sg603
I594
sg478
I469
sg639
I630
sg616
I607
sg475
I466
sg477
I468
sg87
I78
sg248
I239
sg19
I10
sg539
I530
sg21
I12
sg505
I496
sg437
I428
sg153
I144
sg650
I641
sg686
I677
sg260
I251
sg402
I393
sg285
I276
sg653
I644
sg419
I410
sg99
I90
sg34
I25
sg275
I266
sg651
I642
sg570
I561
sg86
I77
sg110
I101
sg449
I440
sg486
I477
sg181
I172
sg680
I671
sg577
I568
sg109
I100
sg298
I289
sg383
I374
sg497
I488
sg111
I102
sg568
I559
sg183
I174
sg184
I175
sg340
I331
sg26
I17
sg364
I355
sg704
I695
sg471
I462
sg323
I314
sg514
I505
sg513
I504
sg104
I95
sg398
I389
sg411
I402
sg472
I463
sg700
I691
sg561
I552
sg467
I458
sg324
I315
sg219
I210
sg88
I79
sg47
I38
sg113
I104
sg461
I452
sg642
I633
sg196
I187
sg60
I51
sg604
I595
sg56
I47
sg698
I689
sg25
I16
sg311
I302
sg473
I464
sg524
I515
sg693
I684
sg646
I637
sg262
I253
sg209
I200
sg284
I275
sg466
I457
sg432
I423
sg119
I110
sg389
I380
sg156
I147
sg213
I204
sg671
I662
sg259
I250
sg193
I184
sg13
I4
sg596
I587
sg482
I473
sg100
I91
sg662
I653
sg490
I481
sg27
I18
sg567
I558
sg536
I527
sg493
I484
sg435
I426
sg666
I657
sg598
I589
sg702
I693
sg403
I394
sg359
I350
sg148
I139
sg152
I143
sg190
I181
sg367
I358
sg387
I378
sg396
I387
sg520
I511
sg644
I635
sg557
I548
sg96
I87
sg665
I656
sg211
I202
sg391
I382
sg218
I209
sg476
I467
sg79
I70
sg18
I9
sg199
I190
sg247
I238
sg225
I216
sg252
I243
sg703
I694
sg192
I183
sg459
I450
sg625
I616
sg515
I506
sg518
I509
sg463
I454
sg327
I318
sg491
I482
sg120
I111
sg633
I624
sg597
I588
sg206
I197
sg58
I49
sg376
I367
sg24
I15
sg352
I343
sg315
I306
sg296
I287
sg265
I256
sg500
I491
sg212
I203
sg266
I257
sg313
I304
sg392
I383
sg297
I288
sg682
I673
sg75
I66
sg468
I459
sg227
I218
sg438
I429
sg336
I327
sg638
I629
sg590
I581
sg342
I333
sg178
I169
sg458
I449
sg198
I189
sg549
I540
sg115
I106
sg344
I335
sg421
I412
sg290
I281
sg59
I50
sg710
I701
sg425
I416
sg504
I495
sg89
I80
sg171
I162
sg287
I278
sg71
I62
sg52
I43
sg618
I609
sg547
I538
sg72
I63
sg629
I620
sg593
I584
sg320
I311
sg660
I651
sg144
I135
sg613
I604
sg494
I485
sg366
I357
sg663
I654
sg122
I113
sg424
I415
sg456
I447
sg45
I36
sg261
I252
sg525
I516
sg126
I117
sg155
I146
sg98
I89
sg334
I325
sg307
I298
sg607
I598
sg535
I526
sg277
I268
sg350
I341
sg534
I525
sg278
I269
sg249
I240
sg627
I618
sg221
I212
sg242
I233
sg154
I145
sg470
I461
sg289
I280
sg235
I226
sg163
I154
sg67
I58
sg20
I11
sg159
I150
sg31
I22
sg374
I365
sg451
I442
sg330
I321
sg303
I294
sg131
I122
sg173
I164
sg105
I96
sg245
I236
sg479
I470
sg399
I390
sg510
I501
sg214
I205
sg610
I601
sg408
I399
sg579
I570
sg631
I622
sg563
I554
sg345
I336
sg267
I258
sg368
I359
sg124
I115
sg165
I156
sg615
I606
sg560
I551
sg443
I434
sg44
I35
sg688
I679
sg562
I553
sg605
I596
sg441
I432
sg197
I188
sg691
I682
sg286
I277
sg384
I375
sg626
I617
sg38
I29
sg280
I271
sg370
I361
sg16
I7
sg390
I381
sg321
I312
sg488
I479
sg83
I74
sg657
I648
sg117
I108
sg511
I502
sg269
I260
sg701
I692
sg268
I259
sg583
I574
sg584
I575
sg585
I576
sg43
I34
sg220
I211
sg492
I483
sg400
I391
sg53
I44
sg564
I555
sg609
I600
sg664
I655
sg483
I474
sg532
I523
sg531
I522
sg655
I646
sg529
I520
sg707
I698
sg591
I582
sg135
I126
sg622
I613
sg637
I628
sg125
I116
sg51
I42
sg371
I362
sg453
I444
sg54
I45
sg347
I338
sg572
I563
sg565
I556
sg332
I323
sg239
I230
sg574
I565
sg69
I60
sg537
I528
sg645
I636
sg543
I534
sg108
I99
sg634
I625
sg439
I430
sg348
I339
sg495
I486
sg673
I664
sg508
I499
sg191
I182
sg553
I544
sg499
I490
sg349
I340
sg233
I224
sg325
I316
sg589
I580
sg137
I128
sg166
I157
sg708
I699
sg369
I360
sg695
I686
sg229
I220
sg168
I159
sg452
I443
sg103
I94
sg643
I634
sg516
I507
sg502
I493
sg566
I557
sg705
I696
sg188
I179
sg328
I319
sg314
I305
sg185
I176
sg255
I246
sg614
I605
sg164
I155
sg527
I518
sg157
I148
sg226
I217
sg107
I98
sg33
I24
sg246
I237
sg123
I114
sg78
I69
sg601
I592
sg136
I127
sg647
I638
sg273
I264
sg160
I151
sg415
I406
sg329
I320
sg74
I65
sg55
I46
sg503
I494
sg672
I663
sg263
I254
sg652
I643
sg30
I21
sg162
I153
sg377
I368
sg41
I32
sg357
I348
sg84
I75
sg608
I599
sg397
I388
sg258
I249
sg630
I621
sg550
I541
sg291
I282
sg293
I284
sg92
I83
sg395
I386
sg393
I384
sg489
I480
sg659
I650
sg288
I279
sg355
I346
sg294
I285
sg146
I137
sg189
I180
sg145
I136
sg138
I129
sg351
I342
sg121
I112
sg300
I291
sg559
I550
sg412
I403
sg690
I681
sg299
I290
sg65
I56
sg418
I409
sg388
I379
sg573
I564
sg50
I41
sg654
I645
sg216
I207
sg544
I535
sg236
I227
sg401
I392
sg40
I31
ssS'separator'
p717
S'='
sS'sparse'
p718
I01
sb.