ccopy_reg
_reconstructor
p1
(csklearn.feature_extraction.dict_vectorizer
DictVectorizer
p2
c__builtin__
object
p3
NtRp4
(dp5
S'sort'
p6
I01
sS'feature_names_'
p7
(lp8
S'advmod=soon'
p9
aS'aux=to'
p10
aS'cc=and'
p11
aS'conj=record'
p12
aS'dobj=offer'
p13
aS'dobj=package'
p14
aS'prep=from'
p15
aS'prep=to'
p16
aS"w+1=''"
p17
aS'w+1=,'
p18
aS'w+1=offer'
p19
aS"w+2=''"
p20
aS'w+2=incentive'
p21
aS'w+2=rework'
p22
aS"w-1=''"
p23
aS'w-1=a'
p24
aS'w-1=to'
p25
aS"w-2=''"
p26
aS'w-2=a'
p27
aS'w-2=song'
p28
aS'w-2=the'
p29
asS'dtype'
p30
cnumpy
float64
p31
sS'vocabulary_'
p32
(dp33
g11
I2
sg27
I18
sg15
I6
sg17
I8
sg20
I11
sg16
I7
sg26
I17
sg18
I9
sg10
I1
sg19
I10
sg9
I0
sg28
I19
sg22
I13
sg21
I12
sg24
I15
sg14
I5
sg12
I3
sg25
I16
sg13
I4
sg23
I14
sg29
I20
ssS'separator'
p34
S'='
sS'sparse'
p35
I01
sb.