ccopy_reg
_reconstructor
p1
(csklearn.feature_extraction.dict_vectorizer
DictVectorizer
p2
c__builtin__
object
p3
NtRp4
(dp5
S'sort'
p6
I01
sS'feature_names_'
p7
(lp8
S'advcl=begin'
p9
aS'advcl=convert'
p10
aS'advcl=feel'
p11
aS'advcl=provide'
p12
aS'advcl=see'
p13
aS'advcl=win'
p14
aS'advmod=ago'
p15
aS'advmod=alphabetically'
p16
aS'advmod=already'
p17
aS'advmod=also'
p18
aS'advmod=individually'
p19
aS'advmod=later'
p20
aS'advmod=long'
p21
aS'advmod=most'
p22
aS'advmod=much'
p23
aS'advmod=now'
p24
aS'advmod=officially'
p25
aS'advmod=often'
p26
aS'advmod=once'
p27
aS'advmod=recently'
p28
aS'advmod=similarly'
p29
aS'advmod=still'
p30
aS'amod=acceptable'
p31
aS'amod=broad'
p32
aS'amod=complete'
p33
aS'amod=comprehensive'
p34
aS'amod=computer-generated'
p35
aS'amod=concrete'
p36
aS'amod=correct'
p37
aS'amod=credible'
p38
aS'amod=current'
p39
aS'amod=detailed'
p40
aS'amod=digital'
p41
aS'amod=double'
p42
aS'amod=earlier'
p43
aS'amod=electoral'
p44
aS'amod=electronic'
p45
aS'amod=endanger'
p46
aS'amod=expand'
p47
aS'amod=extensive'
p48
aS'amod=full'
p49
aS'amod=global'
p50
aS'amod=grow'
p51
aS'amod=huge'
p52
aS'amod=inaccurate'
p53
aS'amod=incomplete'
p54
aS'amod=indian'
p55
aS'amod=informal'
p56
aS'amod=initial'
p57
aS'amod=internet-accessible'
p58
aS'amod=iraqi'
p59
aS'amod=lengthy'
p60
aS'amod=long'
p61
aS'amod=most-wanted'
p62
aS'amod=national'
p63
aS'amod=new'
p64
aS'amod=no-fly'
p65
aS'amod=nuclear'
p66
aS'amod=official'
p67
aS'amod=original'
p68
aS'amod=revise'
p69
aS'amod=robust'
p70
aS'amod=so-called'
p71
aS'amod=such'
p72
aS'amod=terrorist'
p73
aS'amod=three-page'
p74
aS'amod=top'
p75
aS'amod=traditional'
p76
aS'amod=u.s'
p77
aS'amod=wait'
p78
aS'amod=want'
p79
aS'amod=wanted'
p80
aS'amod=well-known'
p81
aS'amod=year-end'
p82
aS'appos=Gates'
p83
aS'appos=demarcation'
p84
aS'aux=be'
p85
aS'aux=do'
p86
aS'aux=have'
p87
aS'aux=should'
p88
aS'aux=to'
p89
aS'aux=will'
p90
aS'aux=would'
p91
aS'auxpass=be'
p92
aS'cc=and'
p93
aS'cc=but'
p94
aS'cc=well'
p95
aS'ccomp=consider'
p96
aS'ccomp=live'
p97
aS'ccomp=order'
p98
aS'ccomp=refuse'
p99
aS'ccomp=see'
p100
aS'complm=whether'
p101
aS'conj=Denis'
p102
aS'conj=bar'
p103
aS'conj=base'
p104
aS'conj=believe'
p105
aS'conj=call'
p106
aS'conj=card'
p107
aS'conj=cite'
p108
aS'conj=definition'
p109
aS'conj=demarcation'
p110
aS'conj=end'
p111
aS'conj=enhance'
p112
aS'conj=give'
p113
aS'conj=government'
p114
aS'conj=have'
p115
aS'conj=make'
p116
aS'conj=president'
p117
aS'conj=problem'
p118
aS'conj=refuse'
p119
aS'conj=say'
p120
aS'conj=subject'
p121
aS'conj=worker'
p122
aS'cop=appear'
p123
aS'cop=be'
p124
aS'cop=remain'
p125
aS'dep=Tier'
p126
aS'dep=above'
p127
aS'dep=be'
p128
aS'dep=candidate'
p129
aS'dep=include'
p130
aS'dep=mirroring'
p131
aS'dep=of'
p132
aS'dep=sign'
p133
aS'det=a'
p134
aS'det=no'
p135
aS'det=that'
p136
aS'det=the'
p137
aS'det=this'
p138
aS'dobj=#PRP#'
p139
aS'dobj=Afghanistan'
p140
aS'dobj=Eritrea'
p141
aS'dobj=Korea'
p142
aS'dobj=Nigeria'
p143
aS'dobj=Nimba'
p144
aS'dobj=Somalia'
p145
aS'dobj=Temple'
p146
aS'dobj=Venezuela'
p147
aS'dobj=accomplishment'
p148
aS'dobj=action'
p149
aS'dobj=affiliation'
p150
aS'dobj=atrocity'
p151
aS'dobj=award'
p152
aS'dobj=billionaire'
p153
aS'dobj=breach'
p154
aS'dobj=company'
p155
aS'dobj=concern'
p156
aS'dobj=conflict'
p157
aS'dobj=contribution'
p158
aS'dobj=each'
p159
aS'dobj=governor'
p160
aS'dobj=hazard'
p161
aS'dobj=issue'
p162
aS'dobj=kind'
p163
aS'dobj=level'
p164
aS'dobj=number'
p165
aS'dobj=offens'
p166
aS'dobj=point'
p167
aS'dobj=priority'
p168
aS'dobj=publication'
p169
aS'dobj=religion'
p170
aS'dobj=requirement'
p171
aS'dobj=risk'
p172
aS'dobj=series'
p173
aS'dobj=some'
p174
aS'dobj=son'
p175
aS'dobj=support'
p176
aS'dobj=surfing'
p177
aS'dobj=which'
p178
aS'infmod=get'
p179
aS'infmod=raise'
p180
aS'mark=after'
p181
aS'mark=if'
p182
aS'neg=not'
p183
aS'nn=Department'
p184
aS'nn=Forbes'
p185
aS'nn=National'
p186
aS'nn=Party'
p187
aS'nn=Red'
p188
aS'nn=Thenew'
p189
aS'nn=Times'
p190
aS'nn=U.N.'
p191
aS'nn=U.S.'
p192
aS'nn=Watch'
p193
aS'nn=accommodation'
p194
aS'nn=album'
p195
aS'nn=ban'
p196
aS'nn=cabinet'
p197
aS'nn=capture'
p198
aS'nn=cast'
p199
aS'nn=check'
p200
aS'nn=client'
p201
aS'nn=contact'
p202
aS'nn=corruption'
p203
aS'nn=declaration'
p204
aS'nn=distribution'
p205
aS'nn=election'
p206
aS'nn=equality'
p207
aS'nn=government'
p208
aS'nn=guest'
p209
aS'nn=journalist'
p210
aS'nn=laundry'
p211
aS'nn=major'
p212
aS'nn=material'
p213
aS'nn=occupation'
p214
aS'nn=participant'
p215
aS'nn=party'
p216
aS'nn=passenger'
p217
aS'nn=police'
p218
aS'nn=priority'
p219
aS'nn=referral'
p220
aS'nn=registration'
p221
aS'nn=sanction'
p222
aS'nn=set'
p223
aS'nn=species'
p224
aS'nn=sponsor'
p225
aS'nn=submission'
p226
aS'nn=terror'
p227
aS'nn=terrorism'
p228
aS'nn=to-do'
p229
aS'nn=voter'
p230
aS'nn=voting'
p231
aS'nn=warning'
p232
aS'nn=watch'
p233
aS'nn=wish'
p234
aS'nsubj=#PRP#'
p235
aS'nsubj=Department'
p236
aS'nsubj=Farache'
p237
aS'nsubj=Forbes'
p238
aS'nsubj=Organization'
p239
aS'nsubj=Petraeus'
p240
aS'nsubj=States'
p241
aS'nsubj=Tsvangirai'
p242
aS'nsubj=UNESCO'
p243
aS'nsubj=Vietnam'
p244
aS'nsubj=analyst'
p245
aS'nsubj=both'
p246
aS'nsubj=champion'
p247
aS'nsubj=following'
p248
aS'nsubj=government'
p249
aS'nsubj=group'
p250
aS'nsubj=leader'
p251
aS'nsubj=lotion'
p252
aS'nsubj=oddsmaker'
p253
aS'nsubj=option'
p254
aS'nsubj=registrar'
p255
aS'nsubj=report'
p256
aS'nsubj=state'
p257
aS'nsubj=top'
p258
aS'nsubj=which'
p259
aS'nsubjpass=#PRP#'
p260
aS'nsubjpass=Al-Shabab'
p261
aS'nsubjpass=Damascus'
p262
aS'nsubjpass=Havel'
p263
aS'nsubjpass=Hezbollah'
p264
aS'nsubjpass=Korea'
p265
aS'nsubjpass=Natron'
p266
aS'nsubjpass=Nigeria'
p267
aS'nsubjpass=PKK'
p268
aS'nsubjpass=Religion'
p269
aS'nsubjpass=Shenhua'
p270
aS'nsubjpass=Wade'
p271
aS'nsubjpass=age'
p272
aS'nsubjpass=burma'
p273
aS'nsubjpass=child'
p274
aS'nsubjpass=company'
p275
aS'nsubjpass=country'
p276
aS'nsubjpass=government'
p277
aS'nsubjpass=hesay'
p278
aS'nsubjpass=name'
p279
aS'nsubjpass=number'
p280
aS'nsubjpass=office'
p281
aS'nsubjpass=other'
p282
aS'nsubjpass=that'
p283
aS'nsubjpass=which'
p284
aS'nsubjpass=who'
p285
aS'num=#NUMBER#'
p286
aS'partmod=add'
p287
aS'partmod=address'
p288
aS'partmod=anticipate'
p289
aS'partmod=arrest'
p290
aS'partmod=compile'
p291
aS'partmod=issue'
p292
aS'partmod=mean'
p293
aS'partmod=prepare'
p294
aS'poss=#PRP#'
p295
aS'poss=Bank'
p296
aS'poss=Billboard'
p297
aS'poss=Carla'
p298
aS'poss=Council'
p299
aS'poss=Department'
p300
aS'poss=EMILY'
p301
aS'poss=FBI'
p302
aS'poss=Fallon'
p303
aS'poss=International'
p304
aS'poss=Iran'
p305
aS'poss=Korea'
p306
aS'poss=Lifesharers'
p307
aS'poss=Merwin'
p308
aS'poss=Petraeus'
p309
aS'poss=Pyongyang'
p310
aS'poss=Roadcap'
p311
aS'poss=Russia'
p312
aS'poss=Union'
p313
aS'poss=organization'
p314
aS'poss=party'
p315
aS'poss=voter'
p316
aS'poss=world'
p317
aS"possessive='s"
p318
aS'predet=such'
p319
aS'prep=accord'
p320
aS'prep=among'
p321
aS'prep=as'
p322
aS'prep=at'
p323
aS'prep=by'
p324
aS'prep=for'
p325
aS'prep=from'
p326
aS'prep=in'
p327
aS'prep=include'
p328
aS'prep=of'
p329
aS'prep=on'
p330
aS'prep=than'
p331
aS'prep=to'
p332
aS'prep=under'
p333
aS'prep=while'
p334
aS'prep=with'
p335
aS'prep=without'
p336
aS'prt=off'
p337
aS'rcmod=be'
p338
aS'rcmod=enable'
p339
aS'rcmod=expect'
p340
aS'rcmod=find'
p341
aS'rcmod=forbid'
p342
aS'rcmod=have'
p343
aS'rcmod=include'
p344
aS'rcmod=interview'
p345
aS'rcmod=leave'
p346
aS'rcmod=mean'
p347
aS'rcmod=post'
p348
aS'rcmod=provide'
p349
aS'rcmod=report'
p350
aS'rcmod=restoration'
p351
aS'rcmod=say'
p352
aS'rcmod=think'
p353
aS'rcmod=use'
p354
aS'rel=which'
p355
aS'tmod=year'
p356
aS"w+1='"
p357
aS"w+1=''"
p358
aS"w+1='s"
p359
aS'w+1=,'
p360
aS'w+1=-'
p361
aS'w+1=-lrb-'
p362
aS'w+1=.'
p363
aS'w+1=16'
p364
aS'w+1=25'
p365
aS'w+1=54'
p366
aS'w+1=:'
p367
aS'w+1=Afghanistan'
p368
aS'w+1=California'
p369
aS'w+1=Eritrea'
p370
aS'w+1=I'
p371
aS'w+1=Mount'
p372
aS'w+1=Nigeria'
p373
aS'w+1=North'
p374
aS'w+1=Somalia'
p375
aS'w+1=Tehran'
p376
aS'w+1=Venezuela'
p377
aS'w+1=a'
p378
aS'w+1=accomplishment'
p379
aS'w+1=add'
p380
aS'w+1=after'
p381
aS'w+1=alphabetically'
p382
aS'w+1=also'
p383
aS'w+1=among'
p384
aS'w+1=amount'
p385
aS'w+1=and'
p386
aS'w+1=armed'
p387
aS'w+1=as'
p388
aS'w+1=at'
p389
aS'w+1=available'
p390
aS'w+1=be'
p391
aS'w+1=because'
p392
aS'w+1=beganafter'
p393
aS'w+1=better'
p394
aS'w+1=both'
p395
aS'w+1=but'
p396
aS'w+1=by'
p397
aS'w+1=come'
p398
aS'w+1=compile'
p399
aS'w+1=current'
p400
aS'w+1=date'
p401
aS'w+1=do'
p402
aS'w+1=each'
p403
aS'w+1=eight'
p404
aS'w+1=essential'
p405
aS'w+1=for'
p406
aS'w+1=four'
p407
aS'w+1=from'
p408
aS'w+1=give'
p409
aS'w+1=go'
p410
aS'w+1=grow'
p411
aS'w+1=have'
p412
aS'w+1=he'
p413
aS'w+1=if'
p414
aS'w+1=in'
p415
aS'w+1=include'
p416
aS'w+1=information'
p417
aS'w+1=itself'
p418
aS'w+1=last'
p419
aS'w+1=many'
p420
aS'w+1=more'
p421
aS'w+1=name'
p422
aS'w+1=numerous'
p423
aS'w+1=of'
p424
aS'w+1=ofleast'
p425
aS'w+1=on'
p426
aS'w+1=or'
p427
aS'w+1=point'
p428
aS'w+1=pose'
p429
aS'w+1=post'
p430
aS'w+1=potential'
p431
aS'w+1=prepare'
p432
aS'w+1=program'
p433
aS'w+1=religious'
p434
aS'w+1=site'
p435
aS'w+1=some'
p436
aS'w+1=specific'
p437
aS'w+1=success'
p438
aS'w+1=surfing'
p439
aS'w+1=than'
p440
aS'w+1=that'
p441
aS'w+1=the'
p442
aS'w+1=they'
p443
aS'w+1=three'
p444
aS'w+1=to'
p445
aS'w+1=under'
p446
aS'w+1=until'
p447
aS'w+1=what'
p448
aS'w+1=when'
p449
aS'w+1=while'
p450
aS'w+1=will'
p451
aS'w+1=with'
p452
aS'w+1=would'
p453
aS"w+2=''"
p454
aS"w+2='s"
p455
aS'w+2=,'
p456
aS'w+2=.'
p457
aS'w+2=10'
p458
aS'w+2=12'
p459
aS'w+2=15'
p460
aS'w+2=16,306'
p461
aS'w+2=1996'
p462
aS'w+2=20'
p463
aS'w+2=200'
p464
aS'w+2=2002'
p465
aS'w+2=21'
p466
aS'w+2=250'
p467
aS'w+2=39'
p468
aS'w+2=49'
p469
aS'w+2=80'
p470
aS'w+2=:'
p471
aS'w+2=;'
p472
aS'w+2=Afghan'
p473
aS'w+2=Caroline'
p474
aS'w+2=Iran'
p475
aS'w+2=Iyad'
p476
aS'w+2=Kim'
p477
aS'w+2=Korea'
p478
aS'w+2=May'
p479
aS'w+2=Nimba'
p480
aS'w+2=November'
p481
aS'w+2=Preah'
p482
aS'w+2=President'
p483
aS'w+2=Pyongyang'
p484
aS'w+2=Somalia'
p485
aS'w+2=Transparency'
p486
aS'w+2=Tutsis'
p487
aS'w+2=U.S.'
p488
aS'w+2=a'
p489
aS'w+2=accord'
p490
aS'w+2=account'
p491
aS'w+2=achievement'
p492
aS'w+2=action'
p493
aS'w+2=actually'
p494
aS'w+2=administration'
p495
aS'w+2=affiliation'
p496
aS'w+2=agreement'
p497
aS'w+2=airline'
p498
aS'w+2=airport'
p499
aS'w+2=all'
p500
aS'w+2=allegedly'
p501
aS'w+2=along'
p502
aS'w+2=also'
p503
aS'w+2=although'
p504
aS'w+2=among'
p505
aS'w+2=and'
p506
aS'w+2=appendix'
p507
aS'w+2=as'
p508
aS'w+2=aspiring'
p509
aS'w+2=at'
p510
aS'w+2=atrocity'
p511
aS'w+2=be'
p512
aS'w+2=because'
p513
aS'w+2=bestseller'
p514
aS'w+2=biggest'
p515
aS'w+2=billionaire'
p516
aS'w+2=board'
p517
aS'w+2=bosnian'
p518
aS'w+2=breach'
p519
aS'w+2=but'
p520
aS'w+2=by'
p521
aS'w+2=cabinet'
p522
aS'w+2=call'
p523
aS'w+2=can'
p524
aS'w+2=candidate'
p525
aS'w+2=company'
p526
aS'w+2=compile'
p527
aS'w+2=complete'
p528
aS'w+2=composer'
p529
aS'w+2=compromise'
p530
aS'w+2=concrete'
p531
aS'w+2=conflict'
p532
aS'w+2=contribution'
p533
aS'w+2=convert'
p534
aS'w+2=country'
p535
aS'w+2=current'
p536
aS'w+2=cut'
p537
aS'w+2=debate'
p538
aS'w+2=decade'
p539
aS'w+2=demand'
p540
aS'w+2=develop'
p541
aS'w+2=economic'
p542
aS'w+2=egyptian'
p543
aS'w+2=eight'
p544
aS'w+2=elector'
p545
aS'w+2=eligible'
p546
aS'w+2=embarrassing'
p547
aS'w+2=enable'
p548
aS'w+2=endanger'
p549
aS'w+2=enemy'
p550
aS'w+2=everbefore'
p551
aS'w+2=extinct'
p552
aS'w+2=extremist'
p553
aS'w+2=facility'
p554
aS'w+2=failure'
p555
aS'w+2=fairly'
p556
aS'w+2=fan'
p557
aS'w+2=flaw'
p558
aS'w+2=for'
p559
aS'w+2=forbid'
p560
aS'w+2=foreign'
p561
aS'w+2=forest'
p562
aS'w+2=former'
p563
aS'w+2=founder'
p564
aS'w+2=from'
p565
aS'w+2=funder'
p566
aS'w+2=get'
p567
aS'w+2=good'
p568
aS'w+2=government'
p569
aS'w+2=guest'
p570
aS'w+2=guideline'
p571
aS'w+2=have'
p572
aS'w+2=he'
p573
aS'w+2=health'
p574
aS'w+2=hear'
p575
aS'w+2=historic'
p576
aS'w+2=however'
p577
aS'w+2=human-rights'
p578
aS'w+2=idea'
p579
aS'w+2=identify'
p580
aS'w+2=identity'
p581
aS'w+2=immigrant'
p582
aS'w+2=improve'
p583
aS'w+2=include'
p584
aS'w+2=independent'
p585
aS'w+2=individual'
p586
aS'w+2=investment'
p587
aS'w+2=issue'
p588
aS'w+2=it'
p589
aS'w+2=its'
p590
aS'w+2=journalist'
p591
aS'w+2=just'
p592
aS'w+2=kidney'
p593
aS'w+2=kind'
p594
aS'w+2=large'
p595
aS'w+2=late'
p596
aS'w+2=lesser-developed'
p597
aS'w+2=long'
p598
aS'w+2=main'
p599
aS'w+2=major'
p600
aS'w+2=make'
p601
aS'w+2=measure'
p602
aS'w+2=minister'
p603
aS'w+2=miss'
p604
aS'w+2=month'
p605
aS'w+2=multiple'
p606
aS'w+2=name'
p607
aS'w+2=nation'
p608
aS'w+2=need'
p609
aS'w+2=new'
p610
aS'w+2=nigerian'
p611
aS'w+2=nominee'
p612
aS'w+2=not'
p613
aS'w+2=note'
p614
aS'w+2=nuclear'
p615
aS'w+2=number'
p616
aS'w+2=of'
p617
aS'w+2=on'
p618
aS'w+2=one'
p619
aS'w+2=opposition'
p620
aS'w+2=organization'
p621
aS'w+2=outside'
p622
aS'w+2=parliamentary'
p623
aS'w+2=part'
p624
aS'w+2=party-approved'
p625
aS'w+2=pass'
p626
aS'w+2=people'
p627
aS'w+2=person'
p628
aS'w+2=political'
p629
aS'w+2=politician'
p630
aS'w+2=possible'
p631
aS'w+2=potential'
p632
aS'w+2=preparation'
p633
aS'w+2=prepare'
p634
aS'w+2=priority'
p635
aS'w+2=proliferator'
p636
aS'w+2=provide'
p637
aS'w+2=raise'
p638
aS'w+2=reason'
p639
aS'w+2=recently'
p640
aS'w+2=recommendation'
p641
aS'w+2=register'
p642
aS'w+2=reliable'
p643
aS'w+2=religion'
p644
aS'w+2=remain'
p645
aS'w+2=remainder'
p646
aS'w+2=reporter'
p647
aS'w+2=requirement'
p648
aS'w+2=rights'
p649
aS'w+2=risk'
p650
aS'w+2=schedule'
p651
aS'w+2=science'
p652
aS'w+2=series'
p653
aS'w+2=seven-to-two'
p654
aS'w+2=she'
p655
aS'w+2=site'
p656
aS'w+2=six'
p657
aS'w+2=so'
p658
aS'w+2=some'
p659
aS'w+2=something'
p660
aS'w+2=song'
p661
aS'w+2=species'
p662
aS'w+2=specific'
p663
aS'w+2=sponsor'
p664
aS'w+2=start'
p665
aS'w+2=state'
p666
aS'w+2=statement'
p667
aS'w+2=step'
p668
aS'w+2=student'
p669
aS'w+2=substance'
p670
aS'w+2=such'
p671
aS'w+2=sufficient'
p672
aS'w+2=suggest'
p673
aS'w+2=summit'
p674
aS'w+2=suspect'
p675
aS'w+2=target'
p676
aS'w+2=task'
p677
aS'w+2=televise'
p678
aS'w+2=term'
p679
aS'w+2=terror'
p680
aS'w+2=terrorism'
p681
aS'w+2=terrorism-related'
p682
aS'w+2=terrorist'
p683
aS'w+2=than'
p684
aS'w+2=the'
p685
aS'w+2=they'
p686
aS'w+2=think'
p687
aS'w+2=those'
p688
aS'w+2=threat'
p689
aS'w+2=timely'
p690
aS'w+2=to'
p691
aS'w+2=top'
p692
aS'w+2=very'
p693
aS'w+2=vote'
p694
aS'w+2=voter'
p695
aS'w+2=wanted'
p696
aS'w+2=well'
p697
aS'w+2=well-known'
p698
aS'w+2=what'
p699
aS'w+2=which'
p700
aS'w+2=while'
p701
aS'w+2=who'
p702
aS'w+2=will'
p703
aS'w+2=with'
p704
aS'w+2=wonder'
p705
aS'w+2=yesterday'
p706
aS"w-1='"
p707
aS"w-1=''"
p708
aS"w-1='s"
p709
aS'w-1=,'
p710
aS'w-1=10'
p711
aS'w-1=Department'
p712
aS'w-1=Ethiopia'
p713
aS'w-1=Farache'
p714
aS'w-1=Forbes'
p715
aS'w-1=Kasparov'
p716
aS'w-1=National'
p717
aS'w-1=Organization'
p718
aS'w-1=Party'
p719
aS'w-1=Red'
p720
aS'w-1=States'
p721
aS'w-1=Thenew'
p722
aS'w-1=Times'
p723
aS'w-1=Tsvangirai'
p724
aS'w-1=U.N.'
p725
aS'w-1=U.S.'
p726
aS'w-1=Watch'
p727
aS'w-1=a'
p728
aS'w-1=acceptable'
p729
aS'w-1=accommodation'
p730
aS'w-1=agency'
p731
aS'w-1=album'
p732
aS'w-1=already'
p733
aS'w-1=also'
p734
aS'w-1=and'
p735
aS'w-1=anyone'
p736
aS'w-1=ban'
p737
aS'w-1=be'
p738
aS'w-1=both'
p739
aS'w-1=bring'
p740
aS'w-1=broad'
p741
aS'w-1=but'
p742
aS'w-1=cabinet'
p743
aS'w-1=candidate'
p744
aS'w-1=capture'
p745
aS'w-1=cast'
p746
aS'w-1=check'
p747
aS'w-1=cleric'
p748
aS'w-1=client'
p749
aS'w-1=commission'
p750
aS'w-1=company'
p751
aS'w-1=complete'
p752
aS'w-1=comprehensive'
p753
aS'w-1=computer-generated'
p754
aS'w-1=concrete'
p755
aS'w-1=consider'
p756
aS'w-1=contact'
p757
aS'w-1=correct'
p758
aS'w-1=corruption'
p759
aS'w-1=cream'
p760
aS'w-1=declaration'
p761
aS'w-1=detailed'
p762
aS'w-1=distribution'
p763
aS'w-1=double'
p764
aS'w-1=earlier'
p765
aS'w-1=election'
p766
aS'w-1=electoral'
p767
aS'w-1=endanger'
p768
aS'w-1=equality'
p769
aS'w-1=eventually'
p770
aS'w-1=extensive'
p771
aS'w-1=form'
p772
aS'w-1=from'
p773
aS'w-1=full'
p774
aS'w-1=government'
p775
aS'w-1=group'
p776
aS'w-1=grow'
p777
aS'w-1=guest'
p778
aS'w-1=have'
p779
aS'w-1=he'
p780
aS'w-1=huge'
p781
aS'w-1=inaccurate'
p782
aS'w-1=indian'
p783
aS'w-1=informal'
p784
aS'w-1=initial'
p785
aS'w-1=internet-accessible'
p786
aS'w-1=it'
p787
aS'w-1=its'
p788
aS'w-1=journalist'
p789
aS'w-1=laundry'
p790
aS'w-1=lengthy'
p791
aS'w-1=like'
p792
aS'w-1=long'
p793
aS'w-1=major'
p794
aS'w-1=material'
p795
aS'w-1=most-wanted'
p796
aS'w-1=name'
p797
aS'w-1=national'
p798
aS'w-1=new'
p799
aS'w-1=no-fly'
p800
aS'w-1=not'
p801
aS'w-1=now'
p802
aS'w-1=occupation'
p803
aS'w-1=oddsmaker'
p804
aS'w-1=official'
p805
aS'w-1=officially'
p806
aS'w-1=often'
p807
aS'w-1=once'
p808
aS'w-1=original'
p809
aS'w-1=participant'
p810
aS'w-1=party'
p811
aS'w-1=passenger'
p812
aS'w-1=people'
p813
aS'w-1=police'
p814
aS'w-1=priority'
p815
aS'w-1=proposal'
p816
aS'w-1=really'
p817
aS'w-1=recently'
p818
aS'w-1=referral'
p819
aS'w-1=registrar'
p820
aS'w-1=registration'
p821
aS'w-1=report'
p822
aS'w-1=robust'
p823
aS'w-1=sanction'
p824
aS'w-1=set'
p825
aS'w-1=share'
p826
aS'w-1=she'
p827
aS'w-1=similarly'
p828
aS'w-1=site'
p829
aS'w-1=species'
p830
aS'w-1=sponsor'
p831
aS'w-1=star'
p832
aS'w-1=still'
p833
aS'w-1=submission'
p834
aS'w-1=submit'
p835
aS'w-1=such'
p836
aS'w-1=ten'
p837
aS'w-1=terror'
p838
aS'w-1=terrorism'
p839
aS'w-1=terrorist'
p840
aS'w-1=than'
p841
aS'w-1=that'
p842
aS'w-1=the'
p843
aS'w-1=they'
p844
aS'w-1=this'
p845
aS'w-1=three'
p846
aS'w-1=to'
p847
aS'w-1=u.s'
p848
aS'w-1=voter'
p849
aS'w-1=voting'
p850
aS'w-1=wait'
p851
aS'w-1=wanted'
p852
aS'w-1=warning'
p853
aS'w-1=watch'
p854
aS'w-1=we'
p855
aS'w-1=which'
p856
aS'w-1=will'
p857
aS'w-1=win'
p858
aS'w-1=wish'
p859
aS'w-1=yourself'
p860
aS"w-2=''"
p861
aS"w-2='s"
p862
aS'w-2=,'
p863
aS'w-2=.'
p864
aS'w-2=106'
p865
aS'w-2=11'
p866
aS'w-2=2006'
p867
aS'w-2=2007'
p868
aS'w-2=2008'
p869
aS'w-2=35'
p870
aS'w-2=Bank'
p871
aS'w-2=Carla'
p872
aS'w-2=Commission'
p873
aS'w-2=Council'
p874
aS'w-2=Crimes'
p875
aS'w-2=Department'
p876
aS'w-2=EMILY'
p877
aS'w-2=EU'
p878
aS'w-2=EUtravel'
p879
aS'w-2=FARC'
p880
aS'w-2=Fallon'
p881
aS'w-2=Gary'
p882
aS'w-2=Havel'
p883
aS'w-2=Health'
p884
aS'w-2=Hezbollah'
p885
aS'w-2=Iran'
p886
aS'w-2=Lifesharers'
p887
aS'w-2=Nation'
p888
aS'w-2=Natron'
p889
aS'w-2=Organization'
p890
aS'w-2=Petraeus'
p891
aS'w-2=Pyongyang'
p892
aS'w-2=Religion'
p893
aS'w-2=Representatives'
p894
aS'w-2=Russia'
p895
aS'w-2=State'
p896
aS'w-2=States'
p897
aS'w-2=Tier'
p898
aS'w-2=U.N.'
p899
aS'w-2=U.S.'
p900
aS'w-2=United'
p901
aS'w-2=Voter'
p902
aS'w-2=York'
p903
aS'w-2=a'
p904
aS'w-2=address'
p905
aS'w-2=administration'
p906
aS'w-2=adopt'
p907
aS'w-2=after'
p908
aS'w-2=age'
p909
aS'w-2=all'
p910
aS'w-2=also'
p911
aS'w-2=and'
p912
aS'w-2=announce'
p913
aS'w-2=approve'
p914
aS'w-2=as'
p915
aS'w-2=at'
p916
aS'w-2=be'
p917
aS'w-2=because'
p918
aS'w-2=boxer'
p919
aS'w-2=burma'
p920
aS'w-2=but'
p921
aS'w-2=by'
p922
aS'w-2=career'
p923
aS'w-2=cite'
p924
aS'w-2=company'
p925
aS'w-2=compile'
p926
aS'w-2=contain'
p927
aS'w-2=correct'
p928
aS'w-2=country'
p929
aS'w-2=create'
p930
aS'w-2=credible'
p931
aS'w-2=critically'
p932
aS'w-2=destroy'
p933
aS'w-2=digital'
p934
aS'w-2=do'
p935
aS'w-2=down'
p936
aS'w-2=electronic'
p937
aS'w-2=endanger'
p938
aS'w-2=endangered'
p939
aS'w-2=energy'
p940
aS'w-2=expand'
p941
aS'w-2=finalize'
p942
aS'w-2=for'
p943
aS'w-2=from'
p944
aS'w-2=gather'
p945
aS'w-2=gender'
p946
aS'w-2=get'
p947
aS'w-2=global'
p948
aS'w-2=group'
p949
aS'w-2=have'
p950
aS'w-2=he'
p951
aS'w-2=head'
p952
aS'w-2=highly'
p953
aS'w-2=if'
p954
aS'w-2=in'
p955
aS'w-2=incomplete'
p956
aS'w-2=into'
p957
aS'w-2=iraqi'
p958
aS'w-2=islamic'
p959
aS'w-2=issue'
p960
aS'w-2=it'
p961
aS'w-2=its'
p962
aS'w-2=join'
p963
aS'w-2=lead'
p964
aS'w-2=long'
p965
aS'w-2=low'
p966
aS'w-2=make'
p967
aS'w-2=many'
p968
aS'w-2=meet'
p969
aS'w-2=monitoring'
p970
aS'w-2=month'
p971
aS'w-2=most'
p972
aS'w-2=name'
p973
aS'w-2=new'
p974
aS'w-2=newspaper'
p975
aS'w-2=no'
p976
aS'w-2=nuclear'
p977
aS'w-2=number'
p978
aS'w-2=obsolete'
p979
aS'w-2=of'
p980
aS'w-2=off'
p981
aS'w-2=on'
p982
aS'w-2=or'
p983
aS'w-2=organization'
p984
aS'w-2=organize'
p985
aS'w-2=other'
p986
aS'w-2=out'
p987
aS'w-2=outweigh'
p988
aS'w-2=over'
p989
aS'w-2=party'
p990
aS'w-2=people'
p991
aS'w-2=plan'
p992
aS'w-2=police'
p993
aS'w-2=prepare'
p994
aS'w-2=present'
p995
aS'w-2=problem'
p996
aS'w-2=propose'
p997
aS'w-2=protect'
p998
aS'w-2=provide'
p999
aS'w-2=publish'
p1000
aS'w-2=quarterly'
p1001
aS'w-2=rather'
p1002
aS'w-2=read'
p1003
aS'w-2=release'
p1004
aS'w-2=revise'
p1005
aS'w-2=rights'
p1006
aS'w-2=say'
p1007
aS'w-2=scrutinize'
p1008
aS'w-2=she'
p1009
aS'w-2=shortage'
p1010
aS'w-2=site'
p1011
aS'w-2=so-called'
p1012
aS'w-2=state'
p1013
aS'w-2=submit'
p1014
aS'w-2=such'
p1015
aS'w-2=terrorism'
p1016
aS'w-2=terrorist'
p1017
aS'w-2=that'
p1018
aS'w-2=the'
p1019
aS'w-2=there'
p1020
aS'w-2=they'
p1021
aS'w-2=thing'
p1022
aS'w-2=those'
p1023
aS'w-2=to'
p1024
aS'w-2=to-do'
p1025
aS'w-2=top'
p1026
aS'w-2=trade'
p1027
aS'w-2=traditional'
p1028
aS'w-2=travel'
p1029
aS'w-2=two'
p1030
aS'w-2=unveil'
p1031
aS'w-2=up'
p1032
aS'w-2=use'
p1033
aS'w-2=voter'
p1034
aS'w-2=we'
p1035
aS'w-2=web'
p1036
aS'w-2=which'
p1037
aS'w-2=who'
p1038
aS'w-2=with'
p1039
aS'w-2=within'
p1040
aS'w-2=would'
p1041
aS'w-2=year-end'
p1042
aS'xcomp=include'
p1043
aS'xcomp=to'
p1044
asS'dtype'
p1045
cnumpy
float64
p1046
sS'vocabulary_'
p1047
(dp1048
g315
I306
sg430
I421
sg461
I452
sg794
I785
sg529
I520
sg837
I828
sg380
I371
sg113
I104
sg270
I261
sg652
I643
sg429
I420
sg1035
I1026
sg474
I465
sg906
I897
sg991
I982
sg815
I806
sg186
I177
sg756
I747
sg834
I825
sg206
I197
sg574
I565
sg872
I863
sg616
I607
sg979
I970
sg283
I274
sg520
I511
sg693
I684
sg149
I140
sg737
I728
sg713
I704
sg676
I667
sg946
I937
sg974
I965
sg293
I284
sg353
I344
sg447
I438
sg166
I157
sg366
I357
sg959
I950
sg744
I735
sg45
I36
sg1011
I1002
sg752
I743
sg1022
I1013
sg210
I201
sg646
I637
sg143
I134
sg269
I260
sg519
I510
sg1021
I1012
sg331
I322
sg792
I783
sg985
I976
sg114
I105
sg264
I255
sg214
I205
sg919
I910
sg710
I701
sg929
I920
sg606
I597
sg767
I758
sg441
I432
sg613
I604
sg425
I416
sg106
I97
sg161
I152
sg249
I240
sg806
I797
sg188
I179
sg938
I929
sg562
I553
sg956
I947
sg217
I208
sg423
I414
sg715
I706
sg246
I237
sg185
I176
sg117
I108
sg629
I620
sg849
I840
sg409
I400
sg785
I776
sg944
I935
sg697
I688
sg514
I505
sg504
I495
sg227
I218
sg966
I957
sg857
I848
sg789
I780
sg71
I62
sg146
I137
sg628
I619
sg86
I77
sg197
I188
sg738
I729
sg505
I496
sg238
I229
sg433
I424
sg49
I40
sg1019
I1010
sg874
I865
sg243
I234
sg111
I102
sg275
I266
sg157
I148
sg585
I576
sg282
I273
sg251
I242
sg305
I296
sg640
I631
sg832
I823
sg314
I305
sg189
I180
sg545
I536
sg999
I990
sg535
I526
sg971
I962
sg52
I43
sg424
I415
sg615
I606
sg341
I332
sg868
I859
sg867
I858
sg691
I682
sg426
I417
sg968
I959
sg831
I822
sg349
I340
sg427
I418
sg127
I118
sg788
I779
sg779
I770
sg760
I751
sg914
I905
sg215
I206
sg392
I383
sg482
I473
sg544
I535
sg25
I16
sg781
I772
sg549
I540
sg699
I690
sg589
I580
sg464
I455
sg910
I901
sg702
I693
sg860
I851
sg280
I271
sg724
I715
sg439
I430
sg734
I725
sg856
I847
sg740
I731
sg817
I808
sg888
I879
sg132
I123
sg219
I210
sg130
I121
sg694
I685
sg703
I694
sg123
I114
sg748
I739
sg332
I323
sg483
I474
sg928
I919
sg135
I126
sg268
I259
sg1018
I1009
sg68
I59
sg509
I500
sg598
I589
sg265
I256
sg943
I934
sg512
I503
sg207
I198
sg443
I434
sg949
I940
sg133
I124
sg725
I716
sg385
I376
sg852
I843
sg566
I557
sg825
I816
sg55
I46
sg260
I251
sg484
I475
sg569
I560
sg978
I969
sg718
I709
sg327
I318
sg91
I82
sg406
I397
sg816
I807
sg195
I186
sg288
I279
sg883
I874
sg1026
I1017
sg342
I333
sg786
I777
sg411
I402
sg899
I890
sg773
I764
sg812
I803
sg578
I569
sg499
I490
sg621
I612
sg1034
I1025
sg431
I422
sg54
I45
sg15
I6
sg116
I107
sg833
I824
sg386
I377
sg671
I662
sg848
I839
sg129
I120
sg169
I160
sg993
I984
sg405
I396
sg125
I116
sg795
I786
sg108
I99
sg626
I617
sg559
I550
sg745
I736
sg107
I98
sg432
I423
sg631
I622
sg787
I778
sg550
I541
sg401
I392
sg204
I195
sg823
I814
sg604
I595
sg518
I509
sg138
I129
sg178
I169
sg905
I896
sg963
I954
sg930
I921
sg662
I653
sg672
I663
sg301
I292
sg250
I241
sg896
I887
sg1042
I1033
sg843
I834
sg473
I464
sg399
I390
sg588
I579
sg851
I842
sg182
I173
sg653
I644
sg382
I373
sg634
I625
sg62
I53
sg1013
I1004
sg556
I547
sg526
I517
sg390
I381
sg384
I375
sg719
I710
sg253
I244
sg563
I554
sg612
I603
sg338
I329
sg523
I514
sg866
I857
sg400
I391
sg543
I534
sg97
I88
sg722
I713
sg412
I403
sg47
I38
sg232
I223
sg137
I128
sg805
I796
sg635
I626
sg892
I883
sg656
I647
sg324
I315
sg1033
I1024
sg328
I319
sg468
I459
sg692
I683
sg909
I900
sg531
I522
sg372
I363
sg176
I167
sg983
I974
sg623
I614
sg395
I386
sg608
I599
sg78
I69
sg570
I561
sg308
I299
sg903
I894
sg162
I153
sg940
I931
sg982
I973
sg847
I838
sg826
I817
sg973
I964
sg530
I521
sg651
I642
sg755
I746
sg56
I47
sg485
I476
sg675
I666
sg139
I130
sg96
I87
sg935
I926
sg444
I435
sg244
I235
sg437
I428
sg696
I687
sg994
I985
sg1043
I1034
sg673
I664
sg70
I61
sg256
I247
sg808
I799
sg212
I203
sg183
I174
sg571
I562
sg119
I110
sg525
I516
sg605
I596
sg1012
I1003
sg184
I175
sg836
I827
sg51
I42
sg552
I543
sg524
I515
sg701
I692
sg318
I309
sg388
I379
sg158
I149
sg389
I380
sg494
I485
sg711
I702
sg538
I529
sg350
I341
sg413
I404
sg1030
I1021
sg500
I491
sg65
I56
sg597
I588
sg658
I649
sg356
I347
sg602
I593
sg144
I135
sg596
I587
sg739
I730
sg291
I282
sg281
I272
sg581
I572
sg975
I966
sg895
I886
sg625
I616
sg777
I768
sg41
I32
sg733
I724
sg775
I766
sg510
I501
sg591
I582
sg513
I504
sg59
I50
sg368
I359
sg22
I13
sg319
I310
sg997
I988
sg1001
I992
sg1006
I997
sg38
I29
sg98
I89
sg877
I868
sg440
I431
sg239
I230
sg82
I73
sg325
I316
sg64
I55
sg121
I112
sg804
I795
sg479
I470
sg873
I864
sg690
I681
sg790
I781
sg12
I3
sg660
I651
sg175
I166
sg480
I471
sg632
I623
sg346
I337
sg508
I499
sg667
I658
sg799
I790
sg584
I575
sg477
I468
sg453
I444
sg666
I657
sg793
I784
sg920
I911
sg159
I150
sg170
I161
sg92
I83
sg374
I365
sg681
I672
sg750
I741
sg709
I700
sg495
I486
sg224
I215
sg21
I12
sg33
I24
sg75
I66
sg927
I918
sg533
I524
sg683
I674
sg942
I933
sg155
I146
sg16
I7
sg347
I338
sg568
I559
sg414
I405
sg30
I21
sg23
I14
sg312
I303
sg302
I293
sg706
I697
sg190
I181
sg746
I737
sg407
I398
sg171
I162
sg898
I889
sg677
I668
sg248
I239
sg771
I762
sg784
I775
sg539
I530
sg977
I968
sg122
I113
sg365
I356
sg901
I892
sg687
I678
sg35
I26
sg610
I601
sg446
I437
sg72
I63
sg394
I385
sg553
I544
sg273
I264
sg704
I695
sg889
I880
sg830
I821
sg708
I699
sg1004
I995
sg547
I538
sg1032
I1023
sg1023
I1014
sg272
I263
sg10
I1
sg882
I873
sg880
I871
sg1031
I1022
sg599
I590
sg876
I867
sg813
I804
sg972
I963
sg884
I875
sg981
I972
sg846
I837
sg1014
I1005
sg732
I723
sg643
I634
sg296
I287
sg925
I916
sg66
I57
sg241
I232
sg617
I608
sg639
I630
sg522
I513
sg622
I613
sg908
I899
sg618
I609
sg445
I436
sg893
I884
sg136
I127
sg881
I872
sg213
I204
sg313
I304
sg534
I525
sg573
I564
sg601
I592
sg151
I142
sg233
I224
sg19
I10
sg115
I106
sg998
I989
sg502
I493
sg417
I408
sg516
I507
sg515
I506
sg900
I891
sg624
I615
sg109
I100
sg266
I257
sg1020
I1011
sg416
I407
sg172
I163
sg336
I327
sg263
I254
sg345
I336
sg112
I103
sg230
I221
sg822
I813
sg637
I628
sg611
I602
sg586
I577
sg747
I738
sg192
I183
sg862
I853
sg126
I117
sg827
I818
sg53
I44
sg187
I178
sg343
I334
sg565
I556
sg387
I378
sg142
I133
sg853
I844
sg104
I95
sg37
I28
sg948
I939
sg231
I222
sg26
I17
sg211
I202
sg1009
I1000
sg965
I956
sg527
I518
sg154
I145
sg393
I384
sg727
I718
sg1016
I1007
sg257
I248
sg1017
I1008
sg576
I567
sg1041
I1032
sg957
I948
sg299
I290
sg688
I679
sg886
I877
sg627
I618
sg306
I297
sg42
I33
sg542
I533
sg962
I953
sg156
I147
sg647
I638
sg1029
I1020
sg351
I342
sg1037
I1028
sg80
I71
sg267
I258
sg307
I298
sg655
I646
sg923
I914
sg466
I457
sg463
I454
sg486
I477
sg334
I325
sg865
I856
sg858
I849
sg664
I655
sg61
I52
sg996
I987
sg1039
I1030
sg603
I594
sg887
I878
sg911
I902
sg90
I81
sg695
I686
sg560
I551
sg60
I51
sg17
I8
sg245
I236
sg778
I769
sg743
I734
sg462
I453
sg50
I41
sg335
I326
sg376
I367
sg29
I20
sg226
I217
sg352
I343
sg590
I581
sg1000
I991
sg803
I794
sg992
I983
sg958
I949
sg680
I671
sg954
I945
sg810
I801
sg840
I831
sg194
I185
sg955
I946
sg818
I809
sg961
I952
sg941
I932
sg118
I109
sg821
I812
sg496
I487
sg340
I331
sg839
I830
sg819
I810
sg721
I712
sg731
I722
sg668
I659
sg497
I488
sg277
I268
sg147
I138
sg894
I885
sg782
I773
sg234
I225
sg907
I898
sg201
I192
sg320
I311
sg286
I277
sg31
I22
sg43
I34
sg491
I482
sg969
I960
sg454
I445
sg984
I975
sg490
I481
sg418
I409
sg218
I209
sg845
I836
sg824
I815
sg34
I25
sg481
I472
sg18
I9
sg791
I782
sg220
I211
sg593
I584
sg798
I789
sg548
I539
sg276
I267
sg850
I841
sg689
I680
sg897
I888
sg1038
I1029
sg517
I508
sg657
I648
sg503
I494
sg636
I627
sg285
I276
sg950
I941
sg93
I84
sg173
I164
sg741
I732
sg333
I324
sg1025
I1016
sg383
I374
sg854
I845
sg536
I527
sg729
I720
sg397
I388
sg451
I442
sg391
I382
sg541
I532
sg669
I660
sg797
I788
sg742
I733
sg455
I446
sg150
I141
sg645
I636
sg1044
I1035
sg298
I289
sg478
I469
sg716
I707
sg783
I774
sg120
I111
sg659
I650
sg890
I881
sg379
I370
sg1008
I999
sg438
I429
sg415
I406
sg362
I353
sg13
I4
sg649
I640
sg869
I860
sg235
I226
sg1027
I1018
sg600
I591
sg160
I151
sg81
I72
sg358
I349
sg290
I281
sg94
I85
sg73
I64
sg532
I523
sg567
I558
sg128
I119
sg295
I286
sg769
I760
sg465
I456
sg990
I981
sg705
I696
sg300
I291
sg751
I742
sg476
I467
sg255
I246
sg76
I67
sg537
I528
sg179
I170
sg198
I189
sg196
I187
sg304
I295
sg762
I753
sg759
I750
sg316
I307
sg594
I585
sg36
I27
sg398
I389
sg14
I5
sg472
I463
sg761
I752
sg936
I927
sg661
I652
sg69
I60
sg46
I37
sg829
I820
sg835
I826
sg153
I144
sg700
I691
sg359
I350
sg776
I767
sg870
I861
sg467
I458
sg917
I908
sg63
I54
sg278
I269
sg329
I320
sg310
I301
sg110
I101
sg1010
I1001
sg980
I971
sg330
I321
sg753
I744
sg181
I172
sg934
I925
sg303
I294
sg922
I913
sg79
I70
sg410
I401
sg259
I250
sg861
I852
sg9
I0
sg555
I546
sg344
I335
sg361
I352
sg939
I930
sg180
I171
sg564
I555
sg258
I249
sg754
I745
sg953
I944
sg28
I19
sg507
I498
sg770
I761
sg989
I980
sg498
I489
sg274
I265
sg988
I979
sg684
I675
sg583
I574
sg511
I502
sg193
I184
sg57
I48
sg932
I923
sg436
I427
sg580
I571
sg506
I497
sg77
I68
sg947
I938
sg83
I74
sg355
I346
sg551
I542
sg820
I811
sg177
I168
sg1015
I1006
sg630
I621
sg261
I252
sg202
I193
sg964
I955
sg730
I721
sg838
I829
sg105
I96
sg682
I673
sg404
I395
sg435
I426
sg1024
I1015
sg764
I755
sg912
I903
sg271
I262
sg885
I876
sg1040
I1031
sg450
I441
sg84
I75
sg614
I605
sg800
I791
sg933
I924
sg768
I759
sg937
I928
sg1036
I1027
sg124
I115
sg420
I411
sg422
I413
sg951
I942
sg557
I548
sg164
I155
sg428
I419
sg493
I484
sg638
I629
sg39
I30
sg452
I443
sg216
I207
sg317
I308
sg1007
I998
sg587
I578
sg140
I131
sg44
I35
sg685
I676
sg323
I314
sg364
I355
sg322
I313
sg262
I253
sg863
I854
sg670
I661
sg864
I855
sg577
I568
sg735
I726
sg448
I439
sg165
I156
sg87
I78
sg921
I912
sg707
I698
sg475
I466
sg913
I904
sg402
I393
sg321
I312
sg460
I451
sg758
I749
sg458
I449
sg554
I545
sg459
I450
sg205
I196
sg931
I922
sg289
I280
sg309
I300
sg40
I31
sg916
I907
sg579
I570
sg915
I906
sg809
I800
sg208
I199
sg561
I552
sg1028
I1019
sg103
I94
sg595
I586
sg619
I610
sg370
I361
sg986
I977
sg223
I214
sg88
I79
sg891
I882
sg152
I143
sg987
I978
sg191
I182
sg871
I862
sg904
I895
sg648
I639
sg844
I835
sg879
I870
sg145
I136
sg995
I986
sg134
I125
sg297
I288
sg728
I719
sg723
I714
sg945
I936
sg163
I154
sg148
I139
sg284
I275
sg247
I238
sg859
I850
sg501
I492
sg650
I641
sg967
I958
sg780
I771
sg403
I394
sg749
I740
sg470
I461
sg757
I748
sg678
I669
sg575
I566
sg354
I345
sg811
I802
sg408
I399
sg1005
I996
sg228
I219
sg492
I483
sg67
I58
sg592
I583
sg369
I360
sg375
I366
sg236
I227
sg101
I92
sg686
I677
sg960
I951
sg141
I132
sg763
I754
sg736
I727
sg421
I412
sg712
I703
sg878
I869
sg814
I805
sg203
I194
sg970
I961
sg924
I915
sg229
I220
sg641
I632
sg572
I563
sg240
I231
sg663
I654
sg99
I90
sg287
I278
sg419
I410
sg926
I917
sg609
I600
sg95
I86
sg200
I191
sg377
I368
sg32
I23
sg796
I787
sg24
I15
sg1002
I993
sg294
I285
sg396
I387
sg209
I200
sg168
I159
sg252
I243
sg654
I645
sg237
I228
sg488
I479
sg902
I893
sg199
I190
sg167
I158
sg952
I943
sg665
I656
sg714
I705
sg48
I39
sg674
I665
sg326
I317
sg644
I635
sg642
I633
sg679
I670
sg717
I708
sg373
I364
sg381
I372
sg449
I440
sg337
I328
sg102
I93
sg339
I330
sg855
I846
sg89
I80
sg918
I909
sg58
I49
sg11
I2
sg766
I757
sg607
I598
sg292
I283
sg620
I611
sg471
I462
sg774
I765
sg558
I549
sg772
I763
sg174
I165
sg357
I348
sg279
I270
sg875
I866
sg765
I756
sg225
I216
sg20
I11
sg360
I351
sg363
I354
sg521
I512
sg457
I448
sg456
I447
sg807
I798
sg367
I358
sg442
I433
sg726
I717
sg487
I478
sg348
I339
sg222
I213
sg371
I362
sg434
I425
sg27
I18
sg720
I711
sg546
I537
sg633
I624
sg74
I65
sg528
I519
sg698
I689
sg378
I369
sg802
I793
sg801
I792
sg1003
I994
sg540
I531
sg242
I233
sg254
I245
sg841
I832
sg100
I91
sg976
I967
sg842
I833
sg85
I76
sg221
I212
sg131
I122
sg311
I302
sg489
I480
sg582
I573
sg469
I460
sg828
I819
ssS'separator'
p1049
S'='
sS'sparse'
p1050
I01
sb.