ccopy_reg
_reconstructor
p1
(csklearn.feature_extraction.dict_vectorizer
DictVectorizer
p2
c__builtin__
object
p3
NtRp4
(dp5
S'sort'
p6
I01
sS'feature_names_'
p7
(lp8
S'advcl=believe'
p9
aS'advcl=come'
p10
aS'advcl=confer'
p11
aS'advcl=favorable'
p12
aS'advcl=hear'
p13
aS'advcl=stand'
p14
aS'advmod=along'
p15
aS'advmod=already'
p16
aS'advmod=clearly'
p17
aS'advmod=down'
p18
aS'advmod=how'
p19
aS'advmod=the'
p20
aS'advmod=very'
p21
aS'advmod=worldwide'
p22
aS'amod=blue'
p23
aS'amod=other'
p24
aS'amod=technical'
p25
aS'amod=whole'
p26
aS'appos=percent'
p27
aS'attr=ipo'
p28
aS'aux=Mladic'
p29
aS'aux=be'
p30
aS'aux=could'
p31
aS'aux=have'
p32
aS'aux=should'
p33
aS'aux=to'
p34
aS'aux=will'
p35
aS'aux=would'
p36
aS'auxpass=be'
p37
aS'cc=and'
p38
aS'cc=but'
p39
aS'ccomp=Potter'
p40
aS'ccomp=approve'
p41
aS'ccomp=chart'
p42
aS'ccomp=fare'
p43
aS'ccomp=kill'
p44
aS'ccomp=last'
p45
aS'ccomp=say'
p46
aS'complm=that'
p47
aS'conj=Swift'
p48
aS'conj=trousers'
p49
aS'conj=visible'
p50
aS'cop=be'
p51
aS"dep='s"
p52
aS'dep=Republicans'
p53
aS'dep=item'
p54
aS'dep=percent'
p55
aS'dep=year'
p56
aS'det=a'
p57
aS'det=all'
p58
aS'det=the'
p59
aS'dobj=#NUMBER#'
p60
aS'dobj=#PRP#'
p61
aS'dobj=$'
p62
aS'dobj=Africa'
p63
aS'dobj=Ghana'
p64
aS'dobj=Rangers'
p65
aS'dobj=agenda'
p66
aS'dobj=chart'
p67
aS'dobj=concern'
p68
aS'dobj=country'
p69
aS'dobj=crop'
p70
aS'dobj=dollar'
p71
aS'dobj=figure'
p72
aS'dobj=kilometer'
p73
aS'dobj=list'
p74
aS'dobj=offering'
p75
aS'dobj=office'
p76
aS'dobj=party'
p77
aS'dobj=percent'
p78
aS'dobj=rhythm'
p79
aS'dobj=rivalry'
p80
aS'mark=while'
p81
aS'nn=Pace'
p82
aS'nn=bikini'
p83
aS'nn=honor'
p84
aS'nn=lap'
p85
aS'nn=market'
p86
aS'nn=roof'
p87
aS'nn=table'
p88
aS'npadvmod=$'
p89
aS'nsubj=#PRP#'
p90
aS'nsubj=Afghanistan'
p91
aS'nsubj=Australia'
p92
aS'nsubj=Everest'
p93
aS'nsubj=Iran'
p94
aS'nsubj=Mauritius'
p95
aS'nsubj=Petersburg'
p96
aS'nsubj=Projects'
p97
aS'nsubj=Rwanda'
p98
aS'nsubj=Singapore'
p99
aS'nsubj=States'
p100
aS'nsubj=bid'
p101
aS'nsubj=book'
p102
aS'nsubj=change'
p103
aS'nsubj=concern'
p104
aS'nsubj=cost'
p105
aS'nsubj=defense'
p106
aS'nsubj=fence'
p107
aS'nsubj=film'
p108
aS'nsubj=harvest'
p109
aS'nsubj=inflation'
p110
aS'nsubj=issue'
p111
aS'nsubj=leader'
p112
aS'nsubj=name'
p113
aS'nsubj=nothing'
p114
aS'nsubj=party'
p115
aS'nsubj=raid'
p116
aS'nsubj=rate'
p117
aS'nsubj=reconciliation'
p118
aS'nsubj=recovery'
p119
aS'nsubj=reform'
p120
aS'nsubj=situation'
p121
aS'nsubj=soundtrack'
p122
aS'nsubj=speed'
p123
aS'nsubj=terrorism'
p124
aS'nsubj=that'
p125
aS'nsubj=toll'
p126
aS'nsubj=vnindex'
p127
aS'nsubj=warming'
p128
aS'nsubj=which'
p129
aS'num=#NUMBER#'
p130
aS'parataxis=woman'
p131
aS'partmod=debate'
p132
aS'partmod=rate'
p133
aS'partmod=stand'
p134
aS'poss=#PRP#'
p135
aS'prep=amid'
p136
aS'prep=as'
p137
aS'prep=by'
p138
aS'prep=for'
p139
aS'prep=in'
p140
aS'prep=of'
p141
aS'prep=to'
p142
aS'prep=with'
p143
aS'prep=within'
p144
aS'prt=off'
p145
aS'prt=out'
p146
aS'prt=up'
p147
aS'quantmod=all'
p148
aS'rcmod=#NUMBER#'
p149
aS'rcmod=affect'
p150
aS'rcmod=be'
p151
aS'rcmod=become'
p152
aS'rcmod=interpret'
p153
aS'tmod=#DATE#'
p154
aS'tmod=#NUMBER#'
p155
aS'tmod=week'
p156
aS'tmod=year'
p157
aS'w+1=$'
p158
aS"w+1=''"
p159
aS'w+1=,'
p160
aS'w+1=-rrb-'
p161
aS'w+1=.'
p162
aS'w+1=10'
p163
aS'w+1=100'
p164
aS'w+1=12'
p165
aS'w+1=134,000'
p166
aS'w+1=145'
p167
aS'w+1=160'
p168
aS'w+1=20'
p169
aS'w+1=200'
p170
aS'w+1=25'
p171
aS'w+1=30'
p172
aS'w+1=40'
p173
aS'w+1=5'
p174
aS'w+1=500'
p175
aS'w+1=66,000'
p176
aS'w+1=70'
p177
aS'w+1=800'
p178
aS'w+1=Abu'
p179
aS'w+1=Africa'
p180
aS'w+1=Americans'
p181
aS'w+1=Arab'
p182
aS'w+1=Bollywood'
p183
aS'w+1=Bush'
p184
aS'w+1=Christian'
p185
aS'w+1=Clinton'
p186
aS'w+1=Democrat'
p187
aS'w+1=Democratic'
p188
aS'w+1=Democrats'
p189
aS'w+1=EU'
p190
aS'w+1=English'
p191
aS'w+1=FARC'
p192
aS'w+1=Food'
p193
aS'w+1=Ghana'
p194
aS'w+1=Hezbollah'
p195
aS'w+1=Homos'
p196
aS'w+1=House'
p197
aS'w+1=IAEA'
p198
aS'w+1=Islamists'
p199
aS'w+1=Jemaah'
p200
aS'w+1=Justice'
p201
aS'w+1=MBA'
p202
aS'w+1=Major'
p203
aS'w+1=Merwin'
p204
aS'w+1=Mexico'
p205
aS'w+1=Middle'
p206
aS'w+1=NATO'
p207
aS'w+1=New'
p208
aS'w+1=Obama'
p209
aS'w+1=Pakistani'
p210
aS'w+1=Pentagon'
p211
aS'w+1=Rangers'
p212
aS'w+1=Republican'
p213
aS'w+1=Senate'
p214
aS'w+1=Somali'
p215
aS'w+1=South'
p216
aS'w+1=Sri'
p217
aS'w+1=State'
p218
aS'w+1=Sunni'
p219
aS'w+1=Taleban'
p220
aS'w+1=Taliban'
p221
aS'w+1=U.N.'
p222
aS'w+1=U.S'
p223
aS'w+1=U.S.'
p224
aS'w+1=United'
p225
aS'w+1=West'
p226
aS'w+1=White'
p227
aS'w+1=a'
p228
aS'w+1=act'
p229
aS'w+1=ad'
p230
aS'w+1=administration'
p231
aS'w+1=administrative'
p232
aS'w+1=adviser'
p233
aS'w+1=advisor'
p234
aS'w+1=agenda'
p235
aS'w+1=aid'
p236
aS'w+1=aide'
p237
aS'w+1=al'
p238
aS'w+1=al-qaida'
p239
aS'w+1=all'
p240
aS'w+1=ally'
p241
aS'w+1=amateur'
p242
aS'w+1=american'
p243
aS'w+1=anchor'
p244
aS'w+1=and'
p245
aS'w+1=anti-terrorism'
p246
aS'w+1=appointment'
p247
aS'w+1=army'
p248
aS'w+1=athlete'
p249
aS'w+1=authority'
p250
aS'w+1=award'
p251
aS'w+1=basketball'
p252
aS'w+1=be'
p253
aS'w+1=billing'
p254
aS'w+1=boss'
p255
aS'w+1=business'
p256
aS'w+1=businessman'
p257
aS'w+1=by'
p258
aS'w+1=cabinet'
p259
aS'w+1=campaign'
p260
aS'w+1=can'
p261
aS'w+1=canadian'
p262
aS'w+1=car'
p263
aS'w+1=career'
p264
aS'w+1=chart'
p265
aS'w+1=chef'
p266
aS'w+1=chinese'
p267
aS'w+1=choice'
p268
aS'w+1=civilian'
p269
aS'w+1=cleric'
p270
aS'w+1=coalition'
p271
aS'w+1=cocoa'
p272
aS'w+1=college'
p273
aS'w+1=colombian'
p274
aS'w+1=commander'
p275
aS'w+1=commissioner'
p276
aS'w+1=communication'
p277
aS'w+1=company'
p278
aS'w+1=composer'
p279
aS'w+1=concern'
p280
aS'w+1=confederate'
p281
aS'w+1=congressional'
p282
aS'w+1=contemporary'
p283
aS'w+1=contender'
p284
aS'w+1=corporate'
p285
aS'w+1=cotton'
p286
aS'w+1=country'
p287
aS'w+1=court'
p288
aS'w+1=crew'
p289
aS'w+1=crop'
p290
aS'w+1=cuban'
p291
aS'w+1=current'
p292
aS'w+1=customer'
p293
aS'w+1=dead'
p294
aS'w+1=debate'
p295
aS'w+1=democratic'
p296
aS'w+1=deputy'
p297
aS'w+1=desert'
p298
aS'w+1=destination'
p299
aS'w+1=development'
p300
aS'w+1=diplomat'
p301
aS'w+1=diplomatic'
p302
aS'w+1=domestic'
p303
aS'w+1=donor'
p304
aS'w+1=down'
p305
aS'w+1=drama'
p306
aS'w+1=echelon'
p307
aS'w+1=economic'
p308
aS'w+1=economist'
p309
aS'w+1=economy'
p310
aS'w+1=education'
p311
aS'w+1=egyptian'
p312
aS'w+1=elect'
p313
aS'w+1=election'
p314
aS'w+1=emitter'
p315
aS'w+1=employer'
p316
aS'w+1=enemy'
p317
aS'w+1=environmental'
p318
aS'w+1=envoy'
p319
aS'w+1=estonian'
p320
aS'w+1=european'
p321
aS'w+1=executive'
p322
aS'w+1=expert'
p323
aS'w+1=exporter'
p324
aS'w+1=extremist'
p325
aS'w+1=federal'
p326
aS'w+1=figure'
p327
aS'w+1=film'
p328
aS'w+1=financial'
p329
aS'w+1=finisher'
p330
aS'w+1=five'
p331
aS'w+1=floor'
p332
aS'w+1=for'
p333
aS'w+1=foreign'
p334
aS'w+1=form'
p335
aS'w+1=former'
p336
aS'w+1=four'
p337
aS'w+1=french'
p338
aS'w+1=from'
p339
aS'w+1=fugitive'
p340
aS'w+1=fundraiser'
p341
aS'w+1=general'
p342
aS'w+1=global'
p343
aS'w+1=golfer'
p344
aS'w+1=government'
p345
aS'w+1=gross'
p346
aS'w+1=group'
p347
aS'w+1=group-a'
p348
aS'w+1=half'
p349
aS'w+1=hardline'
p350
aS'w+1=hawk'
p351
aS'w+1=honor'
p352
aS'w+1=human'
p353
aS'w+1=humanitarian'
p354
aS'w+1=idealist'
p355
aS'w+1=important'
p356
aS'w+1=in'
p357
aS'w+1=indian'
p358
aS'w+1=inner'
p359
aS'w+1=instead'
p360
aS'w+1=insurgent'
p361
aS'w+1=intellectual'
p362
aS'w+1=intelligence'
p363
aS'w+1=international'
p364
aS'w+1=iranian'
p365
aS'w+1=iraqi'
p366
aS'w+1=islamic'
p367
aS'w+1=islamist'
p368
aS'w+1=issue'
p369
aS'w+1=it'
p370
aS'w+1=item'
p371
aS'w+1=jazz'
p372
aS'w+1=job'
p373
aS'w+1=judge'
p374
aS'w+1=justice'
p375
aS'w+1=kenyan'
p376
aS'w+1=labor'
p377
aS'w+1=last'
p378
aS'w+1=law'
p379
aS'w+1=lawmaker'
p380
aS'w+1=lawyer'
p381
aS'w+1=layer'
p382
aS'w+1=leader'
p383
aS'w+1=leadership'
p384
aS'w+1=league'
p385
aS'w+1=lebanese'
p386
aS'w+1=leftist'
p387
aS'w+1=legal'
p388
aS'w+1=legislative'
p389
aS'w+1=level'
p390
aS'w+1=limit'
p391
aS'w+1=man'
p392
aS'w+1=manager'
p393
aS'w+1=maoist'
p394
aS'w+1=mark'
p395
aS'w+1=mdc'
p396
aS'w+1=member'
p397
aS'w+1=militant'
p398
aS'w+1=military'
p399
aS'w+1=mineral'
p400
aS'w+1=mining'
p401
aS'w+1=ministry'
p402
aS'w+1=money'
p403
aS'w+1=music'
p404
aS'w+1=name'
p405
aS'w+1=national'
p406
aS'w+1=negotiator'
p407
aS'w+1=news'
p408
aS'w+1=nuclear'
p409
aS'w+1=of'
p410
aS'w+1=off'
p411
aS'w+1=office'
p412
aS'w+1=officer'
p413
aS'w+1=official'
p414
aS'w+1=oil'
p415
aS'w+1=opponent'
p416
aS'w+1=opposition'
p417
aS'w+1=or'
p418
aS'w+1=organizer'
p419
aS'w+1=out'
p420
aS'w+1=pakistani'
p421
aS'w+1=part'
p422
aS'w+1=party'
p423
aS'w+1=peace'
p424
aS'w+1=people'
p425
aS'w+1=percentile'
p426
aS'w+1=place'
p427
aS'w+1=player'
p428
aS'w+1=police'
p429
aS'w+1=policy'
p430
aS'w+1=policymaker'
p431
aS'w+1=political'
p432
aS'w+1=politician'
p433
aS'w+1=polluter'
p434
aS'w+1=position'
p435
aS'w+1=post'
p436
aS'w+1=power'
p437
aS'w+1=predator'
p438
aS'w+1=presidential'
p439
aS'w+1=priority'
p440
aS'w+1=private'
p441
aS'w+1=prize'
p442
aS'w+1=producer'
p443
aS'w+1=professional'
p444
aS'w+1=professor'
p445
aS'w+1=prosecutor'
p446
aS'w+1=quality'
p447
aS'w+1=question'
p448
aS'w+1=range'
p449
aS'w+1=rank'
p450
aS'w+1=ranking'
p451
aS'w+1=rate'
p452
aS'w+1=rating'
p453
aS'w+1=reading'
p454
aS'w+1=reform'
p455
aS'w+1=reformer'
p456
aS'w+1=religious'
p457
aS'w+1=removal'
p458
aS'w+1=reporter'
p459
aS'w+1=republican'
p460
aS'w+1=restaurant'
p461
aS'w+1=rice'
p462
aS'w+1=risk'
p463
aS'w+1=rival'
p464
aS'w+1=river'
p465
aS'w+1=role'
p466
aS'w+1=ruling'
p467
aS'w+1=russian'
p468
aS'w+1=saudi'
p469
aS'w+1=say'
p470
aS'w+1=scholar'
p471
aS'w+1=scientist'
p472
aS'w+1=scorer'
p473
aS'w+1=secret'
p474
aS'w+1=secular'
p475
aS'w+1=security'
p476
aS'w+1=seed'
p477
aS'w+1=seller'
p478
aS'w+1=selling'
p479
aS'w+1=she'
p480
aS"w+1=shi'ite"
p481
aS'w+1=six'
p482
aS'w+1=slot'
p483
aS'w+1=soldier'
p484
aS'w+1=source'
p485
aS'w+1=spokesman'
p486
aS'w+1=sport'
p487
aS'w+1=spot'
p488
aS'w+1=spy'
p489
aS'w+1=staff'
p490
aS'w+1=star'
p491
aS'w+1=strategist'
p492
aS'w+1=student'
p493
aS'w+1=sudanese'
p494
aS'w+1=suspect'
p495
aS'w+1=syrian'
p496
aS'w+1=talent'
p497
aS'w+1=team'
p498
aS'w+1=television'
p499
aS'w+1=temperature'
p500
aS'w+1=ten'
p501
aS'w+1=terror'
p502
aS'w+1=that'
p503
aS'w+1=the'
p504
aS'w+1=thoroughbred'
p505
aS'w+1=three'
p506
aS'w+1=tier'
p507
aS'w+1=to'
p508
aS'w+1=tooth'
p509
aS'w+1=tourist'
p510
aS'w+1=trade'
p511
aS'w+1=trading'
p512
aS'w+1=troop'
p513
aS'w+1=two'
p514
aS'w+1=udj'
p515
aS'w+1=ugandan'
p516
aS'w+1=uniformed'
p517
aS'w+1=university'
p518
aS'w+1=vote'
p519
aS'w+1=vote-getter'
p520
aS'w+1=voter'
p521
aS'w+1=we'
p522
aS'w+1=wheat'
p523
aS'w+1=white'
p524
aS'w+1=with'
p525
aS'w+1=within'
p526
aS'w+1=world'
p527
aS'w+1=worry'
p528
aS'w+1=writer'
p529
aS'w+1=year-end'
p530
aS'w+1=zimbabwean'
p531
aS'w+2=$'
p532
aS"w+2='"
p533
aS"w+2=''"
p534
aS"w+2='s"
p535
aS'w+2=,'
p536
aS'w+2=-'
p537
aS'w+2=-lrb-'
p538
aS'w+2=-rrb-'
p539
aS'w+2=.'
p540
aS'w+2=130'
p541
aS'w+2=138'
p542
aS'w+2=20'
p543
aS'w+2=3,300'
p544
aS'w+2=300'
p545
aS'w+2=46'
p546
aS'w+2=50'
p547
aS'w+2=800'
p548
aS'w+2=820'
p549
aS'w+2=87'
p550
aS'w+2=;'
p551
aS'w+2=?'
p552
aS'w+2=Abdurrahman'
p553
aS'w+2=Africa'
p554
aS'w+2=Army'
p555
aS'w+2=Bank'
p556
aS'w+2=Billboard'
p557
aS'w+2=Bush'
p558
aS'w+2=Czar'
p559
aS'w+2=Democrats'
p560
aS'w+2=Department'
p561
aS'w+2=East'
p562
aS'w+2=Egypt'
p563
aS'w+2=Forces'
p564
aS'w+2=General'
p565
aS'w+2=Harry'
p566
aS'w+2=House'
p567
aS'w+2=I'
p568
aS'w+2=Iowa'
p569
aS'w+2=Iran'
p570
aS'w+2=Islamiyah'
p571
aS'w+2=Justine'
p572
aS'w+2=Khaled'
p573
aS'w+2=Lankan'
p574
aS'w+2=League'
p575
aS'w+2=Male'
p576
aS'w+2=Monday'
p577
aS'w+2=Nations'
p578
aS'w+2=Nigeria'
p579
aS'w+2=North'
p580
aS'w+2=Party'
p581
aS'w+2=Qaida'
p582
aS'w+2=Republican'
p583
aS'w+2=Republicans'
p584
aS'w+2=Saeb'
p585
aS'w+2=Sayyaf'
p586
aS'w+2=Senator'
p587
aS'w+2=States'
p588
aS'w+2=Table'
p589
aS'w+2=Taliban'
p590
aS'w+2=U.S.'
p591
aS'w+2=United'
p592
aS'w+2=White'
p593
aS'w+2=World'
p594
aS'w+2=a'
p595
aS'w+2=accord'
p596
aS'w+2=accuse'
p597
aS'w+2=administration'
p598
aS'w+2=adviser'
p599
aS'w+2=advisor'
p600
aS'w+2=agency'
p601
aS'w+2=agenda'
p602
aS'w+2=aide'
p603
aS'w+2=al-qaida'
p604
aS'w+2=album'
p605
aS'w+2=ally'
p606
aS'w+2=also'
p607
aS'w+2=although'
p608
aS'w+2=american'
p609
aS'w+2=among'
p610
aS'w+2=and'
p611
aS'w+2=armored'
p612
aS'w+2=army'
p613
aS'w+2=around'
p614
aS'w+2=arrest'
p615
aS'w+2=as'
p616
aS'w+2=at'
p617
aS'w+2=award'
p618
aS'w+2=barb'
p619
aS'w+2=be'
p620
aS'w+2=because'
p621
aS'w+2=become'
p622
aS'w+2=before'
p623
aS'w+2=billion'
p624
aS'w+2=blues'
p625
aS'w+2=body'
p626
aS'w+2=bottom'
p627
aS'w+2=box'
p628
aS'w+2=broker'
p629
aS'w+2=business'
p630
aS'w+2=business-friendly'
p631
aS'w+2=but'
p632
aS'w+2=by'
p633
aS'w+2=campaign'
p634
aS'w+2=can'
p635
aS'w+2=candidate'
p636
aS'w+2=car'
p637
aS'w+2=center'
p638
aS'w+2=chief'
p639
aS'w+2=cleric'
p640
aS'w+2=climate'
p641
aS'w+2=club'
p642
aS'w+2=cocoa'
p643
aS'w+2=code'
p644
aS'w+2=college'
p645
aS'w+2=commander'
p646
aS'w+2=company'
p647
aS'w+2=concern'
p648
aS'w+2=confront'
p649
aS'w+2=contender'
p650
aS'w+2=contribute'
p651
aS'w+2=convict'
p652
aS'w+2=could'
p653
aS'w+2=council'
p654
aS'w+2=country'
p655
aS'w+2=court'
p656
aS'w+2=criminal'
p657
aS'w+2=defense'
p658
aS'w+2=democratic'
p659
aS'w+2=depose'
p660
aS'w+2=destination'
p661
aS'w+2=detainee'
p662
aS'w+2=development'
p663
aS'w+2=diplomat'
p664
aS'w+2=director'
p665
aS'w+2=do'
p666
aS'w+2=each'
p667
aS'w+2=earn'
p668
aS'w+2=economic'
p669
aS'w+2=economy'
p670
aS'w+2=enforcement'
p671
aS'w+2=enjoy'
p672
aS'w+2=entry'
p673
aS'w+2=envoy'
p674
aS'w+2=event'
p675
aS'w+2=everything'
p676
aS'w+2=executive'
p677
aS'w+2=experiment'
p678
aS'w+2=expert'
p679
aS'w+2=export'
p680
aS'w+2=exporter'
p681
aS'w+2=factor'
p682
aS'w+2=figure'
p683
aS'w+2=film'
p684
aS'w+2=finisher'
p685
aS'w+2=for'
p686
aS'w+2=foreign'
p687
aS'w+2=franchise'
p688
aS'w+2=from'
p689
aS'w+2=fugitive'
p690
aS'w+2=fundraiser'
p691
aS'w+2=game'
p692
aS'w+2=general'
p693
aS'w+2=get'
p694
aS'w+2=getter'
p695
aS'w+2=golfer'
p696
aS'w+2=group-b'
p697
aS'w+2=gypsum'
p698
aS'w+2=have'
p699
aS'w+2=he'
p700
aS'w+2=health'
p701
aS'w+2=himself'
p702
aS'w+2=hit'
p703
aS'w+2=honor'
p704
aS'w+2=hope'
p705
aS'w+2=humanitarian'
p706
aS'w+2=implicate'
p707
aS'w+2=importer'
p708
aS'w+2=in'
p709
aS'w+2=include'
p710
aS'w+2=indian'
p711
aS'w+2=intelligence'
p712
aS'w+2=intelligent'
p713
aS'w+2=into'
p714
aS'w+2=investigator'
p715
aS'w+2=iranian'
p716
aS'w+2=islamist'
p717
aS'w+2=issue'
p718
aS'w+2=it'
p719
aS'w+2=item'
p720
aS'w+2=job'
p721
aS'w+2=kill'
p722
aS'w+2=kilometer'
p723
aS'w+2=language'
p724
aS'w+2=last'
p725
aS'w+2=lawyer'
p726
aS'w+2=lead'
p727
aS'w+2=leader'
p728
aS'w+2=legal'
p729
aS'w+2=list'
p730
aS'w+2=maker'
p731
aS'w+2=manager'
p732
aS'w+2=match'
p733
aS'w+2=meet'
p734
aS'w+2=meeting'
p735
aS'w+2=member'
p736
aS'w+2=military'
p737
aS'w+2=minus'
p738
aS'w+2=moslem'
p739
aS'w+2=most'
p740
aS'w+2=most-wanted'
p741
aS'w+2=movie'
p742
aS'w+2=mt'
p743
aS'w+2=negotiator'
p744
aS'w+2=new'
p745
aS'w+2=news'
p746
aS'w+2=next'
p747
aS'w+2=nomination'
p748
aS'w+2=not'
p749
aS'w+2=of'
p750
aS'w+2=off'
p751
aS'w+2=office'
p752
aS'w+2=officer'
p753
aS'w+2=official'
p754
aS'w+2=on'
p755
aS'w+2=one'
p756
aS'w+2=operational'
p757
aS'w+2=operative'
p758
aS'w+2=opposition'
p759
aS'w+2=oral'
p760
aS'w+2=other'
p761
aS'w+2=panel'
p762
aS'w+2=partner'
p763
aS'w+2=percent'
p764
aS'w+2=player'
p765
aS'w+2=police'
p766
aS'w+2=policy'
p767
aS'w+2=political'
p768
aS'w+2=politician'
p769
aS'w+2=portion'
p770
aS'w+2=position'
p771
aS'w+2=post'
p772
aS'w+2=power'
p773
aS'w+2=prepare'
p774
aS'w+2=present'
p775
aS'w+2=priority'
p776
aS'w+2=prisoner'
p777
aS'w+2=prize'
p778
aS'w+2=produce'
p779
aS'w+2=producer'
p780
aS'w+2=professor'
p781
aS'w+2=prognosticator'
p782
aS'w+2=program'
p783
aS'w+2=public'
p784
aS'w+2=public-opinion'
p785
aS'w+2=put'
p786
aS'w+2=question'
p787
aS'w+2=quit'
p788
aS'w+2=rank'
p789
aS'w+2=recently'
p790
aS'w+2=religious'
p791
aS'w+2=remain'
p792
aS'w+2=representative'
p793
aS'w+2=review'
p794
aS'w+2=rhythm'
p795
aS'w+2=rich'
p796
aS'w+2=rights'
p797
aS'w+2=rivalry'
p798
aS'w+2=runner'
p799
aS'w+2=save'
p800
aS'w+2=say'
p801
aS'w+2=school'
p802
aS'w+2=security'
p803
aS'w+2=share'
p804
aS'w+2=should'
p805
aS'w+2=singles'
p806
aS'w+2=something'
p807
aS'w+2=song'
p808
aS'w+2=source'
p809
aS'w+2=specifically'
p810
aS'w+2=spokesman'
p811
aS'w+2=spot'
p812
aS'w+2=spy'
p813
aS'w+2=staff'
p814
aS'w+2=star'
p815
aS'w+2=strategist'
p816
aS'w+2=such'
p817
aS'w+2=sudanese'
p818
aS'w+2=sufi'
p819
aS'w+2=summit'
p820
aS'w+2=supporter'
p821
aS'w+2=suspect'
p822
aS'w+2=take'
p823
aS'w+2=team'
p824
aS'w+2=television'
p825
aS'w+2=tell'
p826
aS'w+2=terrorist'
p827
aS'w+2=that'
p828
aS'w+2=the'
p829
aS'w+2=then'
p830
aS'w+2=there'
p831
aS'w+2=they'
p832
aS'w+2=thing'
p833
aS'w+2=this'
p834
aS'w+2=thrower'
p835
aS'w+2=to'
p836
aS'w+2=tour'
p837
aS'w+2=training'
p838
aS'w+2=trousers'
p839
aS'w+2=up'
p840
aS'w+2=upon'
p841
aS'w+2=via'
p842
aS'w+2=vie'
p843
aS'w+2=visible'
p844
aS'w+2=vote'
p845
aS'w+2=voter'
p846
aS'w+2=warn'
p847
aS'w+2=we'
p848
aS'w+2=weakest'
p849
aS'w+2=week'
p850
aS'w+2=while'
p851
aS'w+2=who'
p852
aS'w+2=will'
p853
aS'w+2=winner'
p854
aS'w+2=with'
p855
aS'w+2=world'
p856
aS'w+2=worldwide'
p857
aS'w+2=would'
p858
aS'w+2=year'
p859
aS"w-1='"
p860
aS"w-1=''"
p861
aS"w-1='s"
p862
aS'w-1=,'
p863
aS'w-1=-'
p864
aS'w-1=-lrb-'
p865
aS'w-1=.'
p866
aS'w-1=10'
p867
aS'w-1=160'
p868
aS'w-1=30'
p869
aS'w-1=330,000'
p870
aS'w-1=40'
p871
aS'w-1=500'
p872
aS'w-1=Afghanistan'
p873
aS'w-1=Australia'
p874
aS'w-1=Japan'
p875
aS'w-1=Leone'
p876
aS'w-1=Mauritius'
p877
aS'w-1=Pace'
p878
aS'w-1=Russia'
p879
aS'w-1=Rwanda'
p880
aS'w-1=Singapore'
p881
aS'w-1=States'
p882
aS'w-1=The'
p883
aS'w-1=Turkey'
p884
aS'w-1=U.N.'
p885
aS'w-1=Union'
p886
aS'w-1=a'
p887
aS'w-1=accuse'
p888
aS'w-1=advise'
p889
aS'w-1=after'
p890
aS'w-1=all'
p891
aS'w-1=all-time'
p892
aS'w-1=already'
p893
aS'w-1=among'
p894
aS'w-1=and'
p895
aS'w-1=another'
p896
aS'w-1=as'
p897
aS'w-1=at'
p898
aS'w-1=attract'
p899
aS'w-1=be'
p900
aS'w-1=believe'
p901
aS'w-1=between'
p902
aS'w-1=bikini'
p903
aS'w-1=blue'
p904
aS'w-1=book'
p905
aS'w-1=both'
p906
aS'w-1=bring'
p907
aS'w-1=but'
p908
aS'w-1=by'
p909
aS'w-1=care'
p910
aS'w-1=cast'
p911
aS'w-1=change'
p912
aS'w-1=choose'
p913
aS'w-1=cite'
p914
aS'w-1=clearly'
p915
aS'w-1=consider'
p916
aS'w-1=convince'
p917
aS'w-1=could'
p918
aS'w-1=crisis'
p919
aS'w-1=decorate'
p920
aS'w-1=demand'
p921
aS'w-1=earn'
p922
aS'w-1=expel'
p923
aS'w-1=face'
p924
aS'w-1=feature'
p925
aS'w-1=fence'
p926
aS'w-1=few'
p927
aS'w-1=fill'
p928
aS'w-1=film'
p929
aS'w-1=fire'
p930
aS'w-1=five'
p931
aS'w-1=for'
p932
aS'w-1=former'
p933
aS'w-1=four'
p934
aS'w-1=from'
p935
aS'w-1=give'
p936
aS'w-1=have'
p937
aS'w-1=he'
p938
aS'w-1=hire'
p939
aS'w-1=hold'
p940
aS'w-1=honor'
p941
aS'w-1=if'
p942
aS'w-1=in'
p943
aS'w-1=include'
p944
aS'w-1=into'
p945
aS'w-1=involve'
p946
aS'w-1=issue'
p947
aS'w-1=its'
p948
aS'w-1=jail'
p949
aS'w-1=job'
p950
aS'w-1=join'
p951
aS'w-1=kill'
p952
aS'w-1=lap'
p953
aS'w-1=many'
p954
aS'w-1=map'
p955
aS'w-1=market'
p956
aS'w-1=meet'
p957
aS'w-1=meeting'
p958
aS'w-1=mountain'
p959
aS'w-1=name'
p960
aS'w-1=new'
p961
aS'w-1=ninth'
p962
aS'w-1=nothing'
p963
aS'w-1=of'
p964
aS'w-1=off'
p965
aS'w-1=on'
p966
aS'w-1=once'
p967
aS'w-1=one'
p968
aS'w-1=only'
p969
aS'w-1=or'
p970
aS'w-1=order'
p971
aS'w-1=other'
p972
aS'w-1=over'
p973
aS'w-1=place'
p974
aS'w-1=prioritize'
p975
aS'w-1=process'
p976
aS'w-1=quote'
p977
aS'w-1=raid'
p978
aS'w-1=rate'
p979
aS'w-1=recover'
p980
aS'w-1=remain'
p981
aS'w-1=report'
p982
aS'w-1=restore'
p983
aS'w-1=roof'
p984
aS'w-1=sack'
p985
aS'w-1=say'
p986
aS'w-1=second'
p987
aS'w-1=send'
p988
aS'w-1=seven'
p989
aS'w-1=several'
p990
aS'w-1=should'
p991
aS'w-1=showcase'
p992
aS'w-1=slam'
p993
aS'w-1=some'
p994
aS'w-1=soundtrack'
p995
aS'w-1=speed'
p996
aS'w-1=stick'
p997
aS'w-1=summon'
p998
aS'w-1=table'
p999
aS'w-1=take'
p1000
aS'w-1=ten'
p1001
aS'w-1=terrorism'
p1002
aS'w-1=that'
p1003
aS'w-1=the'
p1004
aS'w-1=these'
p1005
aS'w-1=they'
p1006
aS'w-1=three'
p1007
aS'w-1=to'
p1008
aS'w-1=top'
p1009
aS'w-1=track'
p1010
aS'w-1=two'
p1011
aS'w-1=unchallenged'
p1012
aS'w-1=urge'
p1013
aS'w-1=use'
p1014
aS'w-1=very'
p1015
aS'w-1=vnindex'
p1016
aS'w-1=warming'
p1017
aS'w-1=we'
p1018
aS'w-1=where'
p1019
aS'w-1=whether'
p1020
aS'w-1=which'
p1021
aS'w-1=while'
p1022
aS'w-1=whole'
p1023
aS'w-1=whose'
p1024
aS'w-1=will'
p1025
aS'w-1=win'
p1026
aS'w-1=with'
p1027
aS'w-1=would'
p1028
aS'w-2=$'
p1029
aS"w-2=''"
p1030
aS"w-2='s"
p1031
aS'w-2=,'
p1032
aS'w-2=-'
p1033
aS'w-2=--'
p1034
aS'w-2=-lrb-'
p1035
aS'w-2=.'
p1036
aS'w-2=12'
p1037
aS'w-2=19th'
p1038
aS'w-2=Aden'
p1039
aS'w-2=Afghanistan'
p1040
aS'w-2=Africa'
p1041
aS'w-2=America'
p1042
aS'w-2=B.'
p1043
aS'w-2=Baghdad'
p1044
aS'w-2=Ban'
p1045
aS'w-2=Bhutan'
p1046
aS'w-2=Billboard'
p1047
aS'w-2=Blair'
p1048
aS'w-2=Britain'
p1049
aS'w-2=Bush'
p1050
aS'w-2=Canada'
p1051
aS'w-2=Capote'
p1052
aS'w-2=Challenge'
p1053
aS'w-2=Clinton'
p1054
aS'w-2=Colombia'
p1055
aS'w-2=Council'
p1056
aS'w-2=Crocker'
p1057
aS'w-2=Damascus'
p1058
aS'w-2=Danos'
p1059
aS'w-2=Department'
p1060
aS'w-2=Dreamgirls'
p1061
aS'w-2=Ethiopia'
p1062
aS'w-2=Gates'
p1063
aS'w-2=Gemayel'
p1064
aS'w-2=General'
p1065
aS'w-2=Generale'
p1066
aS'w-2=Giuliani'
p1067
aS'w-2=Hai'
p1068
aS'w-2=Hamas'
p1069
aS'w-2=India'
p1070
aS'w-2=Indonesia'
p1071
aS'w-2=Iran'
p1072
aS'w-2=Iraq'
p1073
aS'w-2=Islamists'
p1074
aS'w-2=Israel'
p1075
aS'w-2=Japan'
p1076
aS'w-2=Jarreau'
p1077
aS'w-2=Jolie'
p1078
aS'w-2=Karadzic'
p1079
aS'w-2=Korea'
p1080
aS'w-2=Lebanon'
p1081
aS'w-2=Lee'
p1082
aS'w-2=MDC'
p1083
aS'w-2=Magazine'
p1084
aS'w-2=Mazursky'
p1085
aS'w-2=McCain'
p1086
aS'w-2=Mediterranean'
p1087
aS'w-2=Minister'
p1088
aS'w-2=Ministry'
p1089
aS'w-2=Mosque'
p1090
aS'w-2=Mugabe'
p1091
aS'w-2=Mutola'
p1092
aS'w-2=NATO'
p1093
aS'w-2=Nations'
p1094
aS'w-2=North'
p1095
aS'w-2=Obama'
p1096
aS'w-2=PPP'
p1097
aS'w-2=Pakistan'
p1098
aS'w-2=Palestinian'
p1099
aS'w-2=Rock'
p1100
aS'w-2=Russia'
p1101
aS'w-2=Sarkozy'
p1102
aS'w-2=Schwab'
p1103
aS'w-2=Senate'
p1104
aS'w-2=Serbia'
p1105
aS'w-2=Sierra'
p1106
aS'w-2=Sopranos'
p1107
aS'w-2=Spain'
p1108
aS'w-2=Specter'
p1109
aS'w-2=States'
p1110
aS'w-2=Sudan'
p1111
aS'w-2=Sunday'
p1112
aS'w-2=Sweden'
p1113
aS'w-2=Syria'
p1114
aS'w-2=Tehran'
p1115
aS'w-2=Thursday'
p1116
aS'w-2=Tuesday'
p1117
aS'w-2=Turkey'
p1118
aS'w-2=U.N.'
p1119
aS'w-2=UN'
p1120
aS'w-2=Uganda'
p1121
aS'w-2=Union'
p1122
aS'w-2=United'
p1123
aS'w-2=Venezuela'
p1124
aS'w-2=Washington'
p1125
aS'w-2=Zimbabwe'
p1126
aS'w-2=a'
p1127
aS'w-2=account'
p1128
aS'w-2=accuse'
p1129
aS'w-2=addiction'
p1130
aS'w-2=address'
p1131
aS'w-2=administration'
p1132
aS'w-2=after'
p1133
aS'w-2=against'
p1134
aS'w-2=ago'
p1135
aS'w-2=agree'
p1136
aS'w-2=agreement'
p1137
aS'w-2=air'
p1138
aS'w-2=al-Qaida'
p1139
aS'w-2=all'
p1140
aS'w-2=allegation'
p1141
aS'w-2=allow'
p1142
aS'w-2=also'
p1143
aS'w-2=always'
p1144
aS'w-2=among'
p1145
aS'w-2=and'
p1146
aS'w-2=animal'
p1147
aS'w-2=approval'
p1148
aS'w-2=area'
p1149
aS'w-2=army'
p1150
aS'w-2=around'
p1151
aS'w-2=as'
p1152
aS'w-2=assassination'
p1153
aS'w-2=assume'
p1154
aS'w-2=assurance'
p1155
aS'w-2=at'
p1156
aS'w-2=atrocity'
p1157
aS'w-2=back'
p1158
aS'w-2=ban'
p1159
aS'w-2=basketball'
p1160
aS'w-2=be'
p1161
aS'w-2=beat'
p1162
aS'w-2=become'
p1163
aS'w-2=before'
p1164
aS'w-2=begin'
p1165
aS'w-2=believe'
p1166
aS'w-2=between'
p1167
aS'w-2=blow'
p1168
aS'w-2=body'
p1169
aS'w-2=both'
p1170
aS'w-2=briefing'
p1171
aS'w-2=build'
p1172
aS'w-2=burma'
p1173
aS'w-2=bury'
p1174
aS'w-2=business'
p1175
aS'w-2=but'
p1176
aS'w-2=by'
p1177
aS'w-2=campaign'
p1178
aS'w-2=can'
p1179
aS'w-2=case'
p1180
aS'w-2=celebrity'
p1181
aS'w-2=centigrade'
p1182
aS'w-2=challenge'
p1183
aS'w-2=chance'
p1184
aS'w-2=city'
p1185
aS'w-2=clear'
p1186
aS'w-2=climate'
p1187
aS'w-2=combination'
p1188
aS'w-2=come'
p1189
aS'w-2=command'
p1190
aS'w-2=confirm'
p1191
aS'w-2=consider'
p1192
aS'w-2=continent'
p1193
aS'w-2=copy'
p1194
aS'w-2=cost'
p1195
aS'w-2=count'
p1196
aS'w-2=country'
p1197
aS'w-2=crack'
p1198
aS'w-2=crash'
p1199
aS'w-2=crisis'
p1200
aS'w-2=crowd'
p1201
aS'w-2=currently'
p1202
aS'w-2=date'
p1203
aS'w-2=day'
p1204
aS'w-2=defense'
p1205
aS'w-2=deny'
p1206
aS'w-2=detonator'
p1207
aS'w-2=diplomat'
p1208
aS'w-2=dismiss'
p1209
aS'w-2=dismissal'
p1210
aS'w-2=dispatch'
p1211
aS'w-2=document'
p1212
aS'w-2=doping'
p1213
aS'w-2=economy'
p1214
aS'w-2=elsewhere'
p1215
aS'w-2=environment'
p1216
aS'w-2=even'
p1217
aS'w-2=ever'
p1218
aS'w-2=examination'
p1219
aS'w-2=expect'
p1220
aS'w-2=expel'
p1221
aS'w-2=fact'
p1222
aS'w-2=feature'
p1223
aS'w-2=feel'
p1224
aS'w-2=financial'
p1225
aS'w-2=find'
p1226
aS'w-2=firing'
p1227
aS'w-2=flexibility'
p1228
aS'w-2=follow'
p1229
aS'w-2=for'
p1230
aS'w-2=force'
p1231
aS'w-2=four'
p1232
aS'w-2=from'
p1233
aS'w-2=frontrunner'
p1234
aS'w-2=game'
p1235
aS'w-2=gathering'
p1236
aS'w-2=get'
p1237
aS'w-2=global'
p1238
aS'w-2=government'
p1239
aS'w-2=group'
p1240
aS'w-2=guard'
p1241
aS'w-2=half'
p1242
aS'w-2=handful'
p1243
aS'w-2=harvest'
p1244
aS'w-2=have'
p1245
aS'w-2=haven'
p1246
aS'w-2=he'
p1247
aS'w-2=health'
p1248
aS'w-2=here'
p1249
aS'w-2=hold'
p1250
aS'w-2=how'
p1251
aS'w-2=however'
p1252
aS'w-2=identify'
p1253
aS'w-2=ideology'
p1254
aS'w-2=idp'
p1255
aS'w-2=if'
p1256
aS'w-2=impose'
p1257
aS'w-2=in'
p1258
aS'w-2=include'
p1259
aS'w-2=increase'
p1260
aS'w-2=indicate'
p1261
aS'w-2=inflation'
p1262
aS'w-2=interest'
p1263
aS'w-2=intermediary'
p1264
aS'w-2=interrogation'
p1265
aS'w-2=into'
p1266
aS'w-2=irritate'
p1267
aS'w-2=island'
p1268
aS'w-2=it'
p1269
aS'w-2=jet'
p1270
aS'w-2=job'
p1271
aS'w-2=join'
p1272
aS'w-2=judge'
p1273
aS'w-2=keep'
p1274
aS'w-2=kill'
p1275
aS'w-2=kingdom'
p1276
aS'w-2=label'
p1277
aS'w-2=leader'
p1278
aS'w-2=least'
p1279
aS'w-2=leave'
p1280
aS'w-2=lie'
p1281
aS'w-2=list'
p1282
aS'w-2=look'
p1283
aS'w-2=lose'
p1284
aS'w-2=luncheon'
p1285
aS'w-2=magazine'
p1286
aS'w-2=make'
p1287
aS'w-2=man'
p1288
aS'w-2=matter'
p1289
aS'w-2=meanwhile'
p1290
aS'w-2=media'
p1291
aS'w-2=meet'
p1292
aS'w-2=meeting'
p1293
aS'w-2=military'
p1294
aS'w-2=minister'
p1295
aS'w-2=missing'
p1296
aS'w-2=move'
p1297
aS'w-2=movie'
p1298
aS'w-2=nation'
p1299
aS'w-2=near'
p1300
aS'w-2=nearly'
p1301
aS'w-2=new'
p1302
aS'w-2=night'
p1303
aS'w-2=no'
p1304
aS'w-2=nominee'
p1305
aS'w-2=not'
p1306
aS'w-2=now'
p1307
aS'w-2=number'
p1308
aS'w-2=of'
p1309
aS'w-2=off'
p1310
aS'w-2=office'
p1311
aS'w-2=official'
p1312
aS'w-2=on'
p1313
aS'w-2=one'
p1314
aS'w-2=opportunity'
p1315
aS'w-2=or'
p1316
aS'w-2=order'
p1317
aS'w-2=organization'
p1318
aS'w-2=other'
p1319
aS'w-2=oust'
p1320
aS'w-2=out'
p1321
aS'w-2=over'
p1322
aS'w-2=own'
p1323
aS'w-2=panel'
p1324
aS'w-2=peace'
p1325
aS'w-2=people'
p1326
aS'w-2=perch'
p1327
aS'w-2=play'
p1328
aS'w-2=power'
p1329
aS'w-2=prefect'
p1330
aS'w-2=president'
p1331
aS'w-2=price'
p1332
aS'w-2=problem'
p1333
aS'w-2=produce'
p1334
aS'w-2=program'
p1335
aS'w-2=project'
p1336
aS'w-2=protect'
p1337
aS'w-2=protection'
p1338
aS'w-2=put'
p1339
aS'w-2=quote'
p1340
aS'w-2=rate'
p1341
aS'w-2=reach'
p1342
aS'w-2=rebel'
p1343
aS'w-2=reconciliation'
p1344
aS'w-2=recovery'
p1345
aS'w-2=reform'
p1346
aS'w-2=regain'
p1347
aS'w-2=reinstate'
p1348
aS'w-2=relationship'
p1349
aS'w-2=release'
p1350
aS'w-2=remain'
p1351
aS'w-2=remove'
p1352
aS'w-2=replace'
p1353
aS'w-2=report'
p1354
aS'w-2=represent'
p1355
aS'w-2=require'
p1356
aS'w-2=satellite'
p1357
aS'w-2=say'
p1358
aS'w-2=scene'
p1359
aS'w-2=security'
p1360
aS'w-2=seminar'
p1361
aS'w-2=sensitive'
p1362
aS'w-2=session'
p1363
aS'w-2=several'
p1364
aS'w-2=shakeup'
p1365
aS'w-2=share'
p1366
aS'w-2=she'
p1367
aS'w-2=shear'
p1368
aS'w-2=show'
p1369
aS'w-2=sit'
p1370
aS'w-2=so'
p1371
aS'w-2=society'
p1372
aS'w-2=soon'
p1373
aS'w-2=state'
p1374
aS'w-2=statehood'
p1375
aS'w-2=station'
p1376
aS'w-2=stay'
p1377
aS'w-2=still'
p1378
aS'w-2=stranger'
p1379
aS'w-2=string'
p1380
aS'w-2=take'
p1381
aS'w-2=talk'
p1382
aS'w-2=technical'
p1383
aS'w-2=than'
p1384
aS'w-2=that'
p1385
aS'w-2=the'
p1386
aS'w-2=then'
p1387
aS'w-2=there'
p1388
aS'w-2=they'
p1389
aS'w-2=though'
p1390
aS'w-2=three'
p1391
aS'w-2=tie'
p1392
aS'w-2=time'
p1393
aS'w-2=title'
p1394
aS'w-2=to'
p1395
aS'w-2=today'
p1396
aS'w-2=traditionally'
p1397
aS'w-2=trafficker'
p1398
aS'w-2=trail'
p1399
aS'w-2=two'
p1400
aS'w-2=until'
p1401
aS'w-2=usually'
p1402
aS'w-2=violence'
p1403
aS'w-2=visit'
p1404
aS'w-2=warm'
p1405
aS'w-2=wear'
p1406
aS'w-2=week'
p1407
aS'w-2=what'
p1408
aS'w-2=when'
p1409
aS'w-2=which'
p1410
aS'w-2=while'
p1411
aS'w-2=will'
p1412
aS'w-2=win'
p1413
aS'w-2=winner'
p1414
aS'w-2=with'
p1415
aS'w-2=within'
p1416
aS'w-2=work'
p1417
aS'w-2=world'
p1418
aS'w-2=would'
p1419
aS'w-2=year'
p1420
aS'w-2=you'
p1421
aS'xcomp=make'
p1422
aS'xcomp=win'
p1423
asS'dtype'
p1424
cnumpy
float64
p1425
sS'vocabulary_'
p1426
(dp1427
g1303
I1294
sg594
I585
sg78
I69
sg743
I734
sg701
I692
sg422
I413
sg646
I637
sg632
I623
sg445
I436
sg356
I347
sg1302
I1293
sg1092
I1083
sg774
I765
sg953
I944
sg1091
I1082
sg183
I174
sg673
I664
sg961
I952
sg497
I488
sg1025
I1016
sg1138
I1129
sg236
I227
sg1145
I1136
sg480
I471
sg734
I725
sg1113
I1104
sg1164
I1155
sg1074
I1065
sg310
I301
sg90
I81
sg460
I451
sg290
I281
sg1207
I1198
sg410
I401
sg1373
I1364
sg726
I717
sg725
I716
sg802
I793
sg418
I409
sg994
I985
sg789
I780
sg1041
I1032
sg46
I37
sg84
I75
sg350
I341
sg1140
I1131
sg918
I909
sg825
I816
sg116
I107
sg284
I275
sg680
I671
sg99
I90
sg1354
I1345
sg1385
I1376
sg504
I495
sg539
I530
sg1384
I1375
sg1244
I1235
sg1083
I1074
sg893
I884
sg782
I773
sg391
I382
sg1308
I1299
sg198
I189
sg71
I62
sg1278
I1269
sg180
I171
sg366
I357
sg249
I240
sg526
I517
sg660
I651
sg28
I19
sg1317
I1308
sg185
I176
sg134
I125
sg991
I982
sg48
I39
sg190
I181
sg1131
I1122
sg1272
I1263
sg177
I168
sg990
I981
sg773
I764
sg679
I670
sg170
I161
sg1136
I1127
sg79
I70
sg282
I273
sg1327
I1318
sg72
I63
sg776
I767
sg722
I713
sg307
I298
sg186
I177
sg204
I195
sg1008
I999
sg355
I346
sg1296
I1287
sg1011
I1002
sg61
I52
sg1383
I1374
sg107
I98
sg1117
I1108
sg1413
I1404
sg674
I665
sg1400
I1391
sg1059
I1050
sg956
I947
sg1101
I1092
sg544
I535
sg640
I631
sg1359
I1350
sg849
I840
sg502
I493
sg416
I407
sg1079
I1070
sg86
I77
sg764
I755
sg807
I798
sg509
I500
sg913
I904
sg827
I818
sg451
I442
sg796
I787
sg1067
I1058
sg421
I412
sg1301
I1292
sg553
I544
sg784
I775
sg604
I595
sg625
I616
sg588
I579
sg1052
I1043
sg242
I233
sg43
I34
sg478
I469
sg1191
I1182
sg359
I350
sg661
I652
sg1203
I1194
sg763
I754
sg301
I292
sg564
I555
sg432
I423
sg1174
I1165
sg923
I914
sg255
I246
sg1362
I1353
sg435
I426
sg524
I515
sg315
I306
sg167
I158
sg1419
I1410
sg20
I11
sg511
I502
sg834
I825
sg645
I636
sg972
I963
sg543
I534
sg1220
I1211
sg81
I72
sg989
I980
sg1154
I1145
sg1338
I1329
sg1415
I1406
sg1211
I1202
sg1143
I1134
sg268
I259
sg745
I736
sg80
I71
sg1391
I1382
sg1285
I1276
sg1149
I1140
sg55
I46
sg63
I54
sg737
I728
sg874
I865
sg1378
I1369
sg642
I633
sg1393
I1384
sg1209
I1200
sg1256
I1247
sg85
I76
sg1258
I1249
sg1243
I1234
sg1269
I1260
sg9
I0
sg882
I873
sg490
I481
sg239
I230
sg200
I191
sg936
I927
sg18
I9
sg1055
I1046
sg664
I655
sg423
I414
sg1292
I1283
sg96
I87
sg1208
I1199
sg1137
I1128
sg927
I918
sg984
I975
sg1212
I1203
sg213
I204
sg1340
I1331
sg262
I253
sg1245
I1236
sg888
I879
sg531
I522
sg457
I448
sg590
I581
sg1107
I1098
sg958
I949
sg960
I951
sg922
I913
sg323
I314
sg792
I783
sg1198
I1189
sg354
I345
sg357
I348
sg317
I308
sg370
I361
sg1353
I1344
sg1106
I1097
sg575
I566
sg208
I199
sg1015
I1006
sg1398
I1389
sg358
I349
sg694
I685
sg742
I733
sg135
I126
sg60
I51
sg300
I291
sg786
I777
sg428
I419
sg868
I859
sg1260
I1251
sg619
I610
sg973
I964
sg124
I115
sg804
I795
sg1088
I1079
sg283
I274
sg872
I863
sg150
I141
sg75
I66
sg401
I392
sg971
I962
sg659
I650
sg272
I263
sg225
I216
sg869
I860
sg24
I15
sg73
I64
sg580
I571
sg1408
I1399
sg844
I835
sg788
I779
sg667
I658
sg755
I746
sg601
I592
sg795
I786
sg1082
I1073
sg1395
I1386
sg1146
I1137
sg163
I154
sg165
I156
sg1349
I1340
sg904
I895
sg291
I282
sg1314
I1305
sg1077
I1068
sg1247
I1238
sg256
I247
sg461
I452
sg858
I849
sg1124
I1115
sg700
I691
sg344
I335
sg417
I408
sg1246
I1237
sg768
I759
sg687
I678
sg1319
I1310
sg33
I24
sg109
I100
sg305
I296
sg1283
I1274
sg1006
I997
sg1392
I1383
sg1345
I1336
sg372
I363
sg865
I856
sg1361
I1352
sg486
I477
sg456
I447
sg614
I605
sg1255
I1246
sg962
I953
sg928
I919
sg381
I372
sg257
I248
sg1139
I1130
sg891
I882
sg815
I806
sg761
I752
sg562
I553
sg1257
I1248
sg1421
I1412
sg1042
I1033
sg420
I411
sg77
I68
sg1179
I1170
sg1019
I1010
sg634
I625
sg1122
I1113
sg997
I988
sg319
I310
sg638
I629
sg711
I702
sg1311
I1302
sg630
I621
sg437
I428
sg440
I431
sg1125
I1116
sg1111
I1102
sg810
I801
sg602
I593
sg335
I326
sg434
I425
sg361
I352
sg914
I905
sg876
I867
sg1268
I1259
sg747
I738
sg529
I520
sg985
I976
sg58
I49
sg419
I410
sg215
I206
sg144
I135
sg503
I494
sg1192
I1183
sg986
I977
sg696
I687
sg910
I901
sg171
I162
sg169
I160
sg608
I599
sg400
I391
sg806
I797
sg346
I337
sg780
I771
sg221
I212
sg1195
I1186
sg1386
I1377
sg824
I815
sg1181
I1172
sg373
I364
sg112
I103
sg10
I1
sg1115
I1106
sg507
I498
sg349
I340
sg589
I580
sg487
I478
sg937
I928
sg1104
I1095
sg1215
I1206
sg386
I377
sg538
I529
sg709
I700
sg1407
I1398
sg136
I127
sg719
I710
sg472
I463
sg901
I892
sg933
I924
sg558
I549
sg987
I978
sg113
I104
sg50
I41
sg1075
I1066
sg1065
I1056
sg681
I672
sg345
I336
sg1044
I1035
sg771
I762
sg823
I814
sg779
I770
sg1144
I1135
sg1199
I1190
sg443
I434
sg963
I954
sg1321
I1312
sg397
I388
sg333
I324
sg1236
I1227
sg643
I634
sg142
I133
sg404
I395
sg912
I903
sg326
I317
sg530
I521
sg612
I603
sg1336
I1327
sg686
I677
sg819
I810
sg1196
I1187
sg983
I974
sg658
I649
sg848
I839
sg1364
I1355
sg757
I748
sg821
I812
sg67
I58
sg411
I402
sg1037
I1028
sg292
I283
sg977
I968
sg800
I791
sg59
I50
sg1175
I1166
sg1409
I1400
sg481
I472
sg626
I617
sg683
I674
sg993
I984
sg791
I782
sg188
I179
sg1320
I1311
sg518
I509
sg289
I280
sg644
I635
sg892
I883
sg934
I925
sg998
I989
sg125
I116
sg797
I788
sg1381
I1372
sg1343
I1334
sg867
I858
sg600
I591
sg360
I351
sg1001
I992
sg919
I910
sg1063
I1054
sg889
I880
sg1027
I1018
sg172
I163
sg220
I211
sg340
I331
sg1248
I1239
sg250
I241
sg234
I225
sg1235
I1226
sg1367
I1358
sg15
I6
sg980
I971
sg286
I277
sg597
I588
sg133
I124
sg187
I178
sg988
I979
sg851
I842
sg574
I565
sg106
I97
sg946
I937
sg1356
I1347
sg826
I817
sg968
I959
sg1057
I1048
sg178
I169
sg1123
I1114
sg1322
I1313
sg231
I222
sg842
I833
sg801
I792
sg407
I398
sg911
I902
sg843
I834
sg243
I234
sg812
I803
sg929
I920
sg814
I805
sg787
I778
sg152
I143
sg682
I673
sg1060
I1051
sg859
I850
sg1007
I998
sg1142
I1133
sg1219
I1210
sg1133
I1124
sg1300
I1291
sg508
I499
sg479
I470
sg1274
I1265
sg672
I663
sg895
I886
sg691
I682
sg1039
I1030
sg120
I111
sg499
I490
sg1339
I1330
sg949
I940
sg1263
I1254
sg433
I424
sg715
I706
sg837
I828
sg408
I399
sg488
I479
sg758
I749
sg1096
I1087
sg572
I563
sg1238
I1229
sg216
I207
sg749
I740
sg470
I461
sg1172
I1163
sg22
I13
sg155
I146
sg338
I329
sg669
I660
sg555
I546
sg424
I415
sg881
I872
sg1158
I1149
sg413
I404
sg1026
I1017
sg100
I91
sg342
I333
sg483
I474
sg1370
I1361
sg76
I67
sg1328
I1319
sg760
I751
sg26
I17
sg1265
I1256
sg751
I742
sg1204
I1195
sg1402
I1393
sg415
I406
sg450
I441
sg264
I255
sg368
I359
sg1216
I1207
sg1189
I1180
sg668
I659
sg446
I437
sg1141
I1132
sg596
I587
sg128
I119
sg1228
I1219
sg1128
I1119
sg392
I383
sg1206
I1197
sg164
I155
sg559
I550
sg493
I484
sg287
I278
sg1071
I1062
sg1109
I1100
sg731
I722
sg1355
I1346
sg813
I804
sg1325
I1316
sg40
I31
sg1078
I1069
sg330
I321
sg438
I429
sg677
I668
sg362
I353
sg693
I684
sg39
I30
sg727
I718
sg684
I675
sg1422
I1413
sg1224
I1215
sg1165
I1156
sg348
I339
sg1200
I1191
sg402
I393
sg194
I185
sg939
I930
sg241
I232
sg448
I439
sg778
I769
sg129
I120
sg556
I547
sg52
I43
sg703
I694
sg1348
I1339
sg393
I384
sg1100
I1091
sg685
I676
sg785
I776
sg1250
I1241
sg1069
I1060
sg840
I831
sg1167
I1158
sg1160
I1151
sg149
I140
sg875
I866
sg441
I432
sg453
I444
sg557
I548
sg1379
I1370
sg527
I518
sg566
I557
sg1418
I1409
sg1032
I1023
sg1033
I1024
sg1036
I1027
sg1053
I1044
sg1029
I1020
sg32
I23
sg570
I561
sg775
I766
sg1232
I1223
sg44
I35
sg1066
I1057
sg399
I390
sg1251
I1242
sg1229
I1220
sg395
I386
sg702
I693
sg767
I758
sg495
I486
sg713
I704
sg1127
I1118
sg976
I967
sg1271
I1262
sg548
I539
sg1290
I1281
sg766
I757
sg695
I686
sg783
I774
sg1287
I1278
sg469
I460
sg1277
I1268
sg45
I36
sg1372
I1363
sg339
I330
sg1282
I1273
sg1185
I1176
sg64
I55
sg950
I941
sg1040
I1031
sg247
I238
sg732
I723
sg744
I735
sg905
I896
sg462
I453
sg591
I582
sg121
I112
sg707
I698
sg270
I261
sg458
I449
sg145
I136
sg65
I56
sg1360
I1351
sg723
I714
sg759
I750
sg110
I101
sg158
I149
sg1045
I1036
sg156
I147
sg160
I151
sg162
I153
sg1186
I1177
sg716
I707
sg974
I965
sg295
I286
sg883
I874
sg1116
I1107
sg692
I683
sg793
I784
sg228
I219
sg224
I215
sg712
I703
sg944
I935
sg88
I79
sg1003
I994
sg1284
I1275
sg1194
I1185
sg606
I597
sg436
I427
sg1132
I1123
sg1326
I1317
sg610
I601
sg294
I285
sg390
I381
sg311
I302
sg1028
I1019
sg211
I202
sg816
I807
sg466
I457
sg517
I508
sg1233
I1224
sg1332
I1323
sg1377
I1368
sg1056
I1047
sg1329
I1320
sg29
I20
sg1084
I1075
sg916
I907
sg931
I922
sg1254
I1245
sg655
I646
sg1396
I1387
sg836
I827
sg252
I243
sg650
I641
sg621
I612
sg948
I939
sg103
I94
sg403
I394
sg276
I267
sg847
I838
sg371
I362
sg852
I843
sg657
I648
sg199
I190
sg47
I38
sg907
I898
sg729
I720
sg288
I279
sg845
I836
sg856
I847
sg1090
I1081
sg622
I613
sg853
I844
sg331
I322
sg871
I862
sg561
I552
sg1230
I1221
sg140
I131
sg293
I284
sg316
I307
sg389
I380
sg126
I117
sg941
I932
sg1118
I1109
sg615
I606
sg1293
I1284
sg605
I596
sg1404
I1395
sg690
I681
sg781
I772
sg1239
I1230
sg1159
I1150
sg1315
I1306
sg166
I157
sg942
I933
sg854
I845
sg943
I934
sg510
I501
sg926
I917
sg1004
I995
sg613
I604
sg718
I709
sg1417
I1408
sg1374
I1365
sg119
I110
sg647
I638
sg1406
I1397
sg367
I358
sg151
I142
sg582
I573
sg954
I945
sg516
I507
sg1166
I1157
sg1163
I1154
sg721
I712
sg111
I102
sg223
I214
sg1316
I1307
sg263
I254
sg733
I724
sg1309
I1300
sg1171
I1162
sg261
I252
sg1313
I1304
sg14
I5
sg1323
I1314
sg93
I84
sg115
I106
sg822
I813
sg429
I420
sg430
I421
sg131
I122
sg303
I294
sg628
I619
sg586
I577
sg238
I229
sg473
I464
sg226
I217
sg637
I628
sg230
I221
sg1347
I1338
sg193
I184
sg1337
I1328
sg83
I74
sg635
I626
sg363
I354
sg952
I943
sg1150
I1141
sg1312
I1303
sg489
I480
sg1334
I1325
sg89
I80
sg1273
I1264
sg1148
I1139
sg1184
I1175
sg1253
I1244
sg306
I297
sg229
I220
sg1218
I1209
sg921
I912
sg577
I568
sg522
I513
sg1217
I1208
sg227
I218
sg1193
I1184
sg108
I99
sg1173
I1164
sg37
I28
sg862
I853
sg598
I589
sg528
I519
sg214
I205
sg463
I454
sg92
I83
sg549
I540
sg833
I824
sg1114
I1105
sg505
I496
sg299
I290
sg496
I487
sg1225
I1216
sg447
I438
sg861
I852
sg1108
I1099
sg981
I972
sg181
I172
sg1310
I1301
sg1098
I1089
sg808
I799
sg122
I113
sg811
I802
sg581
I572
sg337
I328
sg1147
I1138
sg21
I12
sg398
I389
sg1388
I1379
sg1289
I1280
sg609
I600
sg1178
I1169
sg426
I417
sg1031
I1022
sg1048
I1039
sg671
I662
sg1291
I1282
sg665
I656
sg246
I237
sg1304
I1295
sg494
I485
sg235
I226
sg364
I355
sg629
I620
sg654
I645
sg197
I188
sg218
I209
sg68
I59
sg82
I73
sg542
I533
sg412
I403
sg1410
I1401
sg219
I210
sg1341
I1332
sg251
I242
sg212
I203
sg603
I594
sg1380
I1371
sg377
I368
sg35
I26
sg1155
I1146
sg1375
I1366
sg87
I78
sg1264
I1255
sg143
I134
sg978
I969
sg1363
I1354
sg902
I893
sg327
I318
sg1070
I1061
sg631
I622
sg1331
I1322
sg336
I327
sg56
I47
sg951
I942
sg666
I657
sg465
I456
sg584
I575
sg102
I93
sg53
I44
sg254
I245
sg890
I881
sg1043
I1034
sg217
I208
sg343
I334
sg380
I371
sg523
I514
sg266
I257
sg1005
I996
sg38
I29
sg258
I249
sg202
I193
sg253
I244
sg748
I739
sg196
I187
sg329
I320
sg670
I661
sg157
I148
sg1103
I1094
sg1352
I1343
sg491
I482
sg641
I632
sg1062
I1053
sg521
I512
sg97
I88
sg31
I22
sg1226
I1217
sg161
I152
sg1262
I1253
sg379
I370
sg427
I418
sg485
I476
sg917
I908
sg648
I639
sg74
I65
sg567
I558
sg141
I132
sg899
I890
sg297
I288
sg1365
I1356
sg1030
I1021
sg385
I376
sg347
I338
sg277
I268
sg210
I201
sg799
I790
sg1382
I1373
sg279
I270
sg341
I332
sg828
I819
sg607
I598
sg1237
I1228
sg970
I961
sg717
I708
sg1227
I1218
sg13
I4
sg332
I323
sg798
I789
sg964
I955
sg966
I957
sg474
I465
sg1416
I1407
sg179
I170
sg550
I541
sg714
I705
sg1213
I1204
sg1412
I1403
sg920
I911
sg728
I719
sg663
I654
sg593
I584
sg184
I175
sg322
I313
sg1306
I1297
sg1307
I1298
sg1411
I1402
sg1156
I1147
sg1399
I1390
sg1152
I1143
sg1288
I1279
sg1280
I1271
sg312
I303
sg175
I166
sg328
I319
sg296
I287
sg1401
I1392
sg57
I48
sg841
I832
sg1050
I1041
sg1259
I1250
sg831
I822
sg352
I343
sg940
I931
sg1295
I1286
sg259
I250
sg699
I690
sg515
I506
sg525
I516
sg924
I915
sg11
I2
sg1058
I1049
sg765
I756
sg34
I25
sg886
I877
sg414
I405
sg376
I367
sg1012
I1003
sg579
I570
sg383
I374
sg1064
I1055
sg838
I829
sg932
I923
sg633
I624
sg740
I731
sg353
I344
sg877
I868
sg138
I129
sg1242
I1233
sg735
I726
sg1344
I1335
sg1013
I1004
sg583
I574
sg965
I956
sg519
I510
sg1231
I1222
sg30
I21
sg388
I379
sg599
I590
sg1087
I1078
sg1009
I1000
sg394
I385
sg302
I293
sg1168
I1159
sg1387
I1378
sg560
I551
sg925
I916
sg1389
I1380
sg69
I60
sg1197
I1188
sg351
I342
sg273
I264
sg104
I95
sg1286
I1277
sg1126
I1117
sg662
I653
sg1095
I1086
sg1276
I1267
sg879
I870
sg203
I194
sg1350
I1341
sg105
I96
sg592
I583
sg374
I365
sg903
I894
sg909
I900
sg900
I891
sg698
I689
sg1222
I1213
sg49
I40
sg724
I715
sg790
I781
sg321
I312
sg207
I198
sg738
I729
sg382
I373
sg513
I504
sg274
I265
sg1051
I1042
sg777
I768
sg396
I387
sg1202
I1193
sg1188
I1179
sg1081
I1072
sg455
I446
sg676
I667
sg578
I569
sg475
I466
sg1021
I1012
sg425
I416
sg409
I400
sg1049
I1040
sg753
I744
sg1024
I1015
sg935
I926
sg969
I960
sg675
I666
sg1068
I1059
sg406
I397
sg587
I578
sg573
I564
sg620
I611
sg275
I266
sg1240
I1231
sg885
I876
sg201
I192
sg627
I618
sg36
I27
sg1119
I1110
sg1121
I1112
sg237
I228
sg1080
I1071
sg585
I576
sg1394
I1385
sg245
I236
sg431
I422
sg930
I921
sg454
I445
sg1016
I1007
sg1054
I1045
sg870
I861
sg369
I360
sg1102
I1093
sg147
I138
sg66
I57
sg1153
I1144
sg191
I182
sg884
I875
sg1014
I1005
sg189
I180
sg459
I450
sg805
I796
sg54
I45
sg1157
I1148
sg1085
I1076
sg915
I906
sg468
I459
sg541
I532
sg280
I271
sg571
I562
sg1135
I1126
sg501
I492
sg1234
I1225
sg704
I695
sg1369
I1360
sg313
I304
sg938
I929
sg569
I560
sg498
I489
sg1105
I1096
sg471
I462
sg996
I987
sg957
I948
sg636
I627
sg1298
I1289
sg947
I938
sg442
I433
sg285
I276
sg318
I309
sg1010
I1001
sg182
I173
sg12
I3
sg146
I137
sg1294
I1285
sg906
I897
sg739
I730
sg1020
I1011
sg1183
I1174
sg1097
I1088
sg1397
I1388
sg233
I224
sg384
I375
sg514
I505
sg467
I458
sg139
I130
sg365
I356
sg617
I608
sg616
I607
sg710
I701
sg967
I958
sg205
I196
sg563
I554
sg173
I164
sg818
I809
sg653
I644
sg281
I272
sg114
I105
sg1182
I1173
sg1346
I1337
sg1210
I1201
sg176
I167
sg688
I679
sg706
I697
sg1305
I1296
sg95
I86
sg855
I846
sg1169
I1160
sg439
I430
sg500
I491
sg1130
I1121
sg320
I311
sg1403
I1394
sg545
I536
sg754
I745
sg1201
I1192
sg750
I741
sg1038
I1029
sg1035
I1026
sg624
I615
sg639
I630
sg1120
I1111
sg244
I235
sg1022
I1013
sg1275
I1266
sg153
I144
sg1112
I1103
sg982
I973
sg1089
I1080
sg25
I16
sg127
I118
sg689
I680
sg1076
I1067
sg101
I92
sg992
I983
sg1023
I1014
sg794
I785
sg1351
I1342
sg1266
I1257
sg1330
I1321
sg1072
I1063
sg839
I830
sg1249
I1240
sg835
I826
sg1270
I1261
sg1073
I1064
sg656
I647
sg565
I556
sg1047
I1038
sg1281
I1272
sg1324
I1315
sg1333
I1324
sg746
I737
sg206
I197
sg1279
I1270
sg846
I837
sg16
I7
sg23
I14
sg576
I567
sg1376
I1367
sg1241
I1232
sg1099
I1090
sg995
I986
sg1342
I1333
sg123
I114
sg118
I109
sg477
I468
sg1034
I1025
sg1390
I1381
sg1299
I1290
sg730
I721
sg209
I200
sg1002
I993
sg334
I325
sg520
I511
sg1366
I1357
sg850
I841
sg269
I260
sg130
I121
sg534
I525
sg1318
I1309
sg752
I743
sg260
I251
sg1129
I1120
sg1187
I1178
sg484
I475
sg1335
I1326
sg1046
I1037
sg278
I269
sg547
I538
sg1223
I1214
sg809
I800
sg652
I643
sg908
I899
sg535
I526
sg708
I699
sg70
I61
sg705
I696
sg1252
I1243
sg762
I753
sg375
I366
sg1267
I1258
sg1061
I1052
sg159
I150
sg894
I885
sg27
I18
sg1000
I991
sg192
I183
sg975
I966
sg623
I614
sg651
I642
sg512
I503
sg1151
I1142
sg1086
I1077
sg98
I89
sg464
I455
sg132
I123
sg649
I640
sg720
I711
sg195
I186
sg1162
I1153
sg945
I936
sg1161
I1152
sg148
I139
sg506
I497
sg873
I864
sg741
I732
sg1177
I1168
sg17
I8
sg62
I53
sg1423
I1414
sg452
I443
sg482
I473
sg240
I231
sg324
I315
sg1214
I1205
sg1134
I1125
sg174
I165
sg772
I763
sg304
I295
sg265
I256
sg959
I950
sg1261
I1252
sg1094
I1085
sg678
I669
sg611
I602
sg154
I145
sg769
I760
sg736
I727
sg298
I289
sg51
I42
sg405
I396
sg387
I378
sg1405
I1396
sg1358
I1349
sg309
I300
sg829
I820
sg449
I440
sg137
I128
sg248
I239
sg880
I871
sg91
I82
sg1176
I1167
sg860
I851
sg866
I857
sg864
I855
sg863
I854
sg1205
I1196
sg1093
I1084
sg267
I258
sg979
I970
sg42
I33
sg756
I747
sg476
I467
sg1180
I1171
sg817
I808
sg887
I878
sg1414
I1405
sg1371
I1362
sg117
I108
sg803
I794
sg770
I761
sg308
I299
sg832
I823
sg1357
I1348
sg1110
I1101
sg1368
I1359
sg830
I821
sg1420
I1411
sg168
I159
sg1297
I1288
sg378
I369
sg1170
I1161
sg271
I262
sg1221
I1212
sg41
I32
sg19
I10
sg222
I213
sg878
I869
sg820
I811
sg857
I848
sg492
I483
sg325
I316
sg1190
I1181
sg1018
I1009
sg444
I435
sg1017
I1008
sg999
I990
sg554
I545
sg551
I542
sg552
I543
sg94
I85
sg540
I531
sg314
I305
sg536
I527
sg537
I528
sg533
I524
sg532
I523
sg896
I887
sg618
I609
sg568
I559
sg697
I688
sg955
I946
sg232
I223
sg898
I889
sg897
I888
sg546
I537
sg595
I586
ssS'separator'
p1428
S'='
sS'sparse'
p1429
I01
sb.