ccopy_reg
_reconstructor
p1
(csklearn.feature_extraction.dict_vectorizer
DictVectorizer
p2
c__builtin__
object
p3
NtRp4
(dp5
S'vocabulary_'
p6
(dp7
S'w-2=elsewhere'
p8
I213
sS'w+1=occasionally'
p9
I111
sS'advcl=begin'
p10
I0
sS'w+2=if'
p11
I137
sS'w+2=lot'
p12
I141
sS'w-2=Obama'
p13
I201
sS'w+1=Zhirinovsky'
p14
I91
sS'dobj=crowd'
p15
I40
sS'w+1=out'
p16
I112
sS'advmod=often'
p17
I9
sS'w-1=ly'
p18
I179
sS'dep=turn'
p19
I33
sS'w-2=town'
p20
I237
sS'xcomp=prompt'
p21
I241
sS'nsubj=Militants'
p22
I59
sS'prep=out'
p23
I84
sS'w-2=spark'
p24
I231
sS'xcomp=condemn'
p25
I240
sS'conj=repeat'
p26
I27
sS"w+2=''"
p27
I121
sS'w-2=cheer'
p28
I210
sS'w+1=anti-corruption'
p29
I97
sS'w-2=live'
p30
I224
sS'dobj=support'
p31
I52
sS'w+1=match'
p32
I109
sS'nsubj=who'
p33
I73
sS'w+2=each'
p34
I136
sS'w-2=unison'
p35
I238
sS'nsubj=priest'
p36
I68
sS'w-1=he'
p37
I176
sS'w-2=of'
p38
I227
sS'w-2=base'
p39
I206
sS'w-1=month'
p40
I182
sS'w+2=cheer'
p41
I132
sS'w-1=to'
p42
I191
sS'w+2=out'
p43
I145
sS'w+1=anti-bush'
p44
I96
sS'xcomp=wave'
p45
I243
sS'w+2=viva'
p46
I157
sS'dobj=President'
p47
I36
sS'w-1=supporter'
p48
I189
sS'w+1=that'
p49
I117
sS'w-2=flag'
p50
I215
sS'dobj=denunciation'
p51
I41
sS'w-2=some'
p52
I230
sS'dobj=#PRP#'
p53
I34
sS'nsubj=some'
p54
I71
sS'w-1=always'
p55
I168
sS'prep=throughout'
p56
I85
sS'advmod=occasionally'
p57
I8
sS'w-2=Bay'
p58
I199
sS'w-2=begin'
p59
I208
sS'w-2=but'
p60
I209
sS'w-2=he'
p61
I219
sS'w+2=Allah'
p62
I124
sS'w-2=with'
p63
I239
sS'advmod=there'
p64
I10
sS'dep=law'
p65
I31
sS'w+1=encouraging'
p66
I104
sS'dobj=God'
p67
I35
sS'ccomp=get'
p68
I18
sS'w-2=attack'
p69
I204
sS'w-2=from'
p70
I217
sS'w+2=with'
p71
I160
sS'w-2=Seoul'
p72
I202
sS'w+2=the'
p73
I155
sS'prep=at'
p74
I80
sS'w+2=loudest'
p75
I142
sS'prep=as'
p76
I79
sS'w+1=prayer'
p77
I114
sS'w+2=wade'
p78
I158
sS'w-2=.'
p79
I197
sS'conj=cheer'
p80
I26
sS'dep=silver'
p81
I32
sS'w+2=support'
p82
I154
sS'w+1=he'
p83
I106
sS'aux=may'
p84
I12
sS'w-1=by'
p85
I172
sS'mark=for'
p86
I55
sS'w-1=be'
p87
I170
sS'w-2=hatred'
p88
I218
sS'w+2=repeat'
p89
I150
sS'w-1=.'
p90
I163
sS'w-1=,'
p91
I162
sS'w+1=it'
p92
I108
sS'ccomp=demand'
p93
I17
sS'w-2=in'
p94
I220
sS'w-2=bakery'
p95
I205
sS'w+1=anti-american'
p96
I95
sS'w-2=into'
p97
I222
sS'w+1=middleman'
p98
I110
sS'w-2=as'
p99
I203
sS'w-2=Gibson'
p100
I200
sS'dep=Zhirinovsky'
p101
I29
sS'dobj=barrage'
p102
I37
sS'w-1=woman'
p103
I194
sS'dobj=knee-deep'
p104
I44
sS'w+2=say'
p105
I151
sS'w+2=down'
p106
I135
sS'nsubj=Obama'
p107
I60
sS'dobj=prayer'
p108
I50
sS'w+2=Nicolas'
p109
I126
sS'w-1=they'
p110
I190
sS'prep=for'
p111
I82
sS'w-1=politician'
p112
I184
sS'w-1=a'
p113
I166
sS'w+2=barrage'
p114
I131
sS'w+2=sing'
p115
I152
sS'w-1=hear'
p116
I177
sS'w+1=denunciation'
p117
I101
sS'w-2=instrument'
p118
I221
sS'partmod=cause'
p119
I75
sS'w-2=metropolis'
p120
I226
sS'w-1=allegedly'
p121
I167
sS'dobj=practice'
p122
I49
sS'w-1=lawmaker'
p123
I178
sS'w-2=meet'
p124
I225
sS'w+2=at'
p125
I130
sS'nsubj=dictator'
p126
I63
sS'mark=as'
p127
I54
sS'ccomp=go'
p128
I19
sS'w+2=what'
p129
I159
sS'w+2=condemn'
p130
I133
sS'nsubj=politician'
p131
I67
sS'w-2=those'
p132
I236
sS'w+2=God'
p133
I125
sS'dep=car'
p134
I30
sS'prep=Allah'
p135
I76
sS'nsubj=demonstrator'
p136
I62
sS'w+1=again'
p137
I93
sS'auxpass=be'
p138
I14
sS'complm=that'
p139
I23
sS'dobj=iron'
p140
I43
sS'w+1=distance'
p141
I102
sS'w+2=crowd'
p142
I134
sS'w-1=who'
p143
I192
sS'advmod=always'
p144
I5
sS'nsubj=crowd'
p145
I61
sS'w-2=last'
p146
I223
sS'prep=and'
p147
I78
sS'prep=to'
p148
I86
sS'ccomp=outlaw'
p149
I20
sS'cc=and'
p150
I15
sS'w-1=demonstrator'
p151
I174
sS'w-1=prison'
p152
I186
sS'w-2=executioner'
p153
I214
sS'w+1=the'
p154
I118
sS'prep=against'
p155
I77
sS'w-2=there'
p156
I235
sS'advmod=allegedly'
p157
I4
sS'prt=down'
p158
I87
sS'cc=but'
p159
I16
sS'w+1=they'
p160
I120
sS'w-2=former'
p161
I216
sS'w+1=anti-french'
p162
I98
sS'w-1=Lee'
p163
I164
sS'nsubjpass=#PRP#'
p164
I74
sS'w-1=within'
p165
I193
sS'prep=in'
p166
I83
sS'w+1=back'
p167
I100
sS'w+1=for'
p168
I105
sS'w+1=in'
p169
I107
sS'w+1=down'
p170
I103
sS'w-2=say'
p171
I228
sS'advcl=see'
p172
I2
sS'nsubj=#PRP#'
p173
I56
sS'w-1=protester'
p174
I187
sS'advcl=march'
p175
I1
sS"w-1=''"
p176
I161
sS'w-2=start'
p177
I232
sS'w-2=see'
p178
I229
sS'dobj=slogan'
p179
I51
sS"w+1=''"
p180
I88
sS'w-1=priest'
p181
I185
sS'nsubj=prison'
p182
I69
sS'advmod=last'
p183
I7
sS'aux=to'
p184
I13
sS'dobj=out'
p185
I48
sS'w-1=people'
p186
I183
sS'w+2=intense'
p187
I139
sS'w+2=instrument'
p188
I138
sS'dobj=man'
p189
I46
sS'nsubj=Lee'
p190
I58
sS'w+2=name'
p191
I143
sS'w+2=parliament'
p192
I147
sS'w-2=darkness'
p193
I212
sS'w+1=and'
p194
I94
sS'w-1=crowd'
p195
I173
sS'w-2=BJP'
p196
I198
sS'ccomp=tolerate'
p197
I22
sS'w-2=crisis'
p198
I211
sS'w+2=phrase'
p199
I148
sS'w-1=dictator'
p200
I175
sS"w-2=''"
p201
I195
sS'w+1=-'
p202
I90
sS'w+1=,'
p203
I89
sS'w+1=at'
p204
I99
sS'w+2=of'
p205
I144
sS'nsubj=lawmaker'
p206
I65
sS'nsubj=protester'
p207
I70
sS'conj=sing'
p208
I28
sS'w+2=.'
p209
I123
sS'w+2=,'
p210
I122
sS'w+2=prompt'
p211
I149
sS'dobj=taunt'
p212
I53
sS'w+2=iron'
p213
I140
sS'w+2=to'
p214
I156
sS'advmod=again'
p215
I3
sS'w+2=outlaw'
p216
I146
sS'dobj=loudest'
p217
I45
sS'w-2=,'
p218
I196
sS'prep=during'
p219
I81
sS'ccomp=resign'
p220
I21
sS'advmod=back'
p221
I6
sS'w-1=some'
p222
I188
sS'w-1=and'
p223
I169
sS'w-2=stone'
p224
I233
sS'dobj=name'
p225
I47
sS'nsubj=supporter'
p226
I72
sS'w-1=Militants'
p227
I165
sS'dobj=distance'
p228
I42
sS'w+1=slogan'
p229
I115
sS'dobj=bomb'
p230
I39
sS'conj=carry'
p231
I24
sS'w-2=the'
p232
I234
sS'xcomp=say'
p233
I242
sS'w+2=against'
p234
I129
sS'w+1=a'
p235
I92
sS'nsubj=Gibson'
p236
I57
sS'w-2=be'
p237
I207
sS'nsubj=group'
p238
I64
sS'w-1=begin'
p239
I171
sS'conj=chant'
p240
I25
sS'w+2=Vietnam'
p241
I127
sS'w-1=may'
p242
I181
sS'w-1=man'
p243
I180
sS'w+2=slogan'
p244
I153
sS'aux=be'
p245
I11
sS'w+1=there'
p246
I119
sS'w+1=political'
p247
I113
sS'w+1=taunt'
p248
I116
sS'nsubj=man'
p249
I66
sS'w+2=a'
p250
I128
sS'dobj=bit'
p251
I38
ssS'dtype'
p252
cnumpy
float64
p253
sS'feature_names_'
p254
(lp255
g10
ag175
ag172
ag215
ag157
ag144
ag221
ag183
ag57
ag17
ag64
ag245
ag84
ag184
ag138
ag150
ag159
ag93
ag68
ag128
ag149
ag220
ag197
ag139
ag231
ag240
ag80
ag26
ag208
ag101
ag134
ag65
ag81
ag19
ag53
ag67
ag47
ag102
ag251
ag230
ag15
ag51
ag228
ag140
ag104
ag217
ag189
ag225
ag185
ag122
ag108
ag179
ag31
ag212
ag127
ag86
ag173
ag236
ag190
ag22
ag107
ag145
ag136
ag126
ag238
ag206
ag249
ag131
ag36
ag182
ag207
ag54
ag226
ag33
ag164
ag119
ag135
ag155
ag147
ag76
ag74
ag219
ag111
ag166
ag23
ag56
ag148
ag158
ag180
ag203
ag202
ag14
ag235
ag137
ag194
ag96
ag44
ag29
ag162
ag204
ag167
ag117
ag141
ag170
ag66
ag168
ag83
ag169
ag92
ag32
ag98
ag9
ag16
ag247
ag77
ag229
ag248
ag49
ag154
ag246
ag160
ag27
ag210
ag209
ag62
ag133
ag109
ag241
ag250
ag234
ag125
ag114
ag41
ag130
ag142
ag106
ag34
ag11
ag188
ag187
ag213
ag12
ag75
ag191
ag205
ag43
ag216
ag192
ag199
ag211
ag89
ag105
ag115
ag244
ag82
ag73
ag214
ag46
ag78
ag129
ag71
ag176
ag91
ag90
ag163
ag227
ag113
ag121
ag55
ag223
ag87
ag239
ag85
ag195
ag151
ag200
ag37
ag116
ag123
ag18
ag243
ag242
ag40
ag186
ag112
ag181
ag152
ag174
ag222
ag48
ag110
ag42
ag143
ag165
ag103
ag201
ag218
ag79
ag196
ag58
ag100
ag13
ag72
ag99
ag69
ag95
ag39
ag237
ag59
ag60
ag28
ag198
ag193
ag8
ag153
ag50
ag161
ag70
ag88
ag61
ag94
ag118
ag97
ag146
ag30
ag124
ag120
ag38
ag171
ag178
ag52
ag24
ag177
ag224
ag232
ag156
ag132
ag20
ag35
ag63
ag25
ag21
ag233
ag45
asS'separator'
p256
S'='
sS'sparse'
p257
I01
sb.