ccopy_reg
_reconstructor
p1
(csklearn.feature_extraction.dict_vectorizer
DictVectorizer
p2
c__builtin__
object
p3
NtRp4
(dp5
S'vocabulary_'
p6
(dp7
S'w+2=Tom'
p8
I133
sS'nn=band'
p9
I39
sS'w-1=C-Span'
p10
I171
sS'nsubj=Falwell'
p11
I42
sS'w+1=Julian'
p12
I86
sS'w-1=of'
p13
I188
sS'poss=group'
p14
I67
sS'w-2=1940'
p15
I203
sS'nsubj=McGlynn'
p16
I48
sS'w+2=Woods'
p17
I135
sS'w+2=director'
p18
I142
sS'w+2=former'
p19
I145
sS'w-1=Youth'
p20
I178
sS'w+2=Katz'
p21
I123
sS'w+1=Ted'
p22
I92
sS'w-1=Foundation'
p23
I173
sS'amod=#NUMBER#'
p24
I3
sS'w+2=Lamb'
p25
I125
sS"w-1='"
p26
I163
sS'appos=Tsvangirai'
p27
I14
sS'amod=elusive'
p28
I5
sS'conj=Institute'
p29
I18
sS'conj=leader'
p30
I22
sS'w+1=who'
p31
I102
sS'w-1=77-year-old'
p32
I168
sS'det=the'
p33
I34
sS'w-2=Bose'
p34
I207
sS'w+1=say'
p35
I101
sS'w+2=Degania'
p36
I114
sS'w-2=Kuhn'
p37
I219
sS"w+2=''"
p38
I103
sS'w-2=what'
p39
I258
sS'conj=chairman'
p40
I20
sS'w-2=folk'
p41
I244
sS'w+1=hope'
p42
I98
sS'w-2=director'
p43
I242
sS'w+2=those'
p44
I158
sS'w+2=together'
p45
I161
sS'w-1=America'
p46
I170
sS'w-2=Charlotte'
p47
I209
sS'w-2=grant'
p48
I245
sS'w-2=feature'
p49
I243
sS'w-2=of'
p50
I250
sS'poss=Kronos'
p51
I61
sS'w+2=philanthropist'
p52
I150
sS'w+1=Gardner'
p53
I84
sS'w-1=.'
p54
I167
sS"w-2=''"
p55
I200
sS'w-2=country'
p56
I241
sS'w-2=on'
p57
I251
sS'w-1=WikiLeaks'
p58
I177
sS'w+2=fight'
p59
I143
sS'w-2=to'
p60
I257
sS'w+2=Gates'
p61
I116
sS'w+1=continue'
p62
I95
sS'dep=Nur'
p63
I30
sS'conj=Facebook'
p64
I17
sS'w-1=two'
p65
I196
sS'amod=good'
p66
I7
sS'w-1=SLA'
p67
I175
sS'w-1=program'
p68
I190
sS'poss=Facebook'
p69
I60
sS'w-2=Hope'
p70
I215
sS'w-2=Sheldon'
p71
I228
sS'w-2=Miller-Muro'
p72
I221
sS'w+1=Noah'
p73
I87
sS'w-1=say'
p74
I191
sS'w-2=Taser'
p75
I229
sS'cop=be'
p76
I26
sS'w-2=the'
p77
I256
sS'w-2=back'
p78
I236
sS'abbrev=upc'
p79
I0
sS'w+2=chairman'
p80
I140
sS'nn=SLA'
p81
I37
sS'w-1=Festival'
p82
I172
sS'w-2=also'
p83
I234
sS'w-1=ensemble'
p84
I186
sS'w-2=Art'
p85
I204
sS'poss=Samsung'
p86
I62
sS'w+1=Sylvia'
p87
I91
sS'conj=director'
p88
I21
sS'w+2=ce'
p89
I139
sS'w-1=and'
p90
I181
sS'poss=Taser'
p91
I63
sS'w+2=Ginbot'
p92
I117
sS'w-2=,'
p93
I201
sS'conj=Mason'
p94
I19
sS'w-2=.'
p95
I202
sS'poss=growingbolder'
p96
I68
sS'w+2=leader'
p97
I146
sS'poss=BBK'
p98
I59
sS'dep=i-tec'
p99
I32
sS'w-2=!'
p100
I199
sS'w+2=Kennedy'
p101
I124
sS'nsubj=Saint'
p102
I51
sS'w-1=be'
p103
I184
sS'w+2=root'
p104
I152
sS'conj=philanthropist'
p105
I23
sS'w+1=reject'
p106
I100
sS'w-2=India'
p107
I216
sS'w-2=consider'
p108
I240
sS'rcmod=say'
p109
I72
sS'w+1=Brian'
p110
I82
sS'w-2=Elshami'
p111
I211
sS'w-2=president'
p112
I253
sS'w+2=Mirza'
p113
I126
sS'appos=participant'
p114
I15
sS'w-2=as'
p115
I235
sS'appos=Smith'
p116
I13
sS'nsubj=Kozlov'
p117
I46
sS'w-2=Friedlander'
p118
I213
sS'w+2=Assange'
p119
I108
sS'nsubj=Hendricks'
p120
I44
sS'w+2=one'
p121
I149
sS'w+2=modern'
p122
I147
sS'poss=Turkey'
p123
I65
sS'w-2=growingbolder'
p124
I247
sS'w+1=of'
p125
I99
sS'amod=fourplay'
p126
I6
sS'w+1=have'
p127
I97
sS'w+2=to'
p128
I160
sS'w+2=Operation'
p129
I130
sS'conj=speaker'
p130
I25
sS'w+2=Green'
p131
I119
sS'w-2=a'
p132
I232
sS'w+2=first'
p133
I144
sS'dep=Derailers'
p134
I27
sS'w-1=site'
p135
I192
sS'det=a'
p136
I33
sS'w-2=tap'
p137
I255
sS'w-1=a'
p138
I179
sS'w+2=Civic'
p139
I113
sS'w+1=Donna'
p140
I83
sS'nsubj=Ayro'
p141
I41
sS'w-2=L.A.'
p142
I220
sS'num=#NUMBER#'
p143
I56
sS'w+2=Facebook'
p144
I115
sS'w-2=its'
p145
I248
sS'dep=James'
p146
I29
sS'w-2=Nega'
p147
I222
sS'w+2=Wahid'
p148
I134
sS'w-2=Tostan'
p149
I230
sS'nn=Microsoft'
p150
I36
sS'advmod=#PRP#'
p151
I1
sS'w-1=,'
p152
I166
sS'w+1=Bob'
p153
I81
sS'advmod=also'
p154
I2
sS'nsubj=Undis'
p155
I54
sS'appos=Ishaq'
p156
I11
sS'w+2=belief'
p157
I138
sS'w+2=Survivors'
p158
I132
sS'w-2=New'
p159
I223
sS'w+2=Arab'
p160
I107
sS'w-1=which'
p161
I198
sS'w-2=Kronos'
p162
I218
sS'dep=Gates'
p163
I28
sS"w-1='s"
p164
I165
sS'w+2=they'
p165
I157
sS'w+2=that'
p166
I155
sS'amod=alleged'
p167
I4
sS'w+2=will'
p168
I162
sS'w+2=search'
p169
I153
sS'w-1=elusive'
p170
I185
sS'w-2=Kilgore'
p171
I217
sS'cc=and'
p172
I16
sS'rcmod=seek'
p173
I73
sS'poss=country'
p174
I66
sS'w-2=Parker'
p175
I225
sS'w+2=thousand'
p176
I159
sS'w+2=contradict'
p177
I141
sS'w+2=Bamn'
p178
I109
sS'w+2=take'
p179
I154
sS'w-2=be'
p180
I237
sS'poss=Tostan'
p181
I64
sS'appos=Ahmad'
p182
I9
sS'nsubj=Tsvangirai'
p183
I53
sS'w+2=Racey'
p184
I131
sS'w-1=80-year-old'
p185
I169
sS'w-2=Nur'
p186
I224
sS'w-2=group'
p187
I246
sS'w-2=list'
p188
I249
sS'w-1=they'
p189
I194
sS'w+2=president'
p190
I151
sS'amod=pro-secular'
p191
I8
sS'partmod=bring'
p192
I57
sS'w+2=Goldman'
p193
I118
sS'conj=president'
p194
I24
sS'w+2=agree'
p195
I137
sS'w+1=Bill'
p196
I80
sS'nsubj=Al-Hibri'
p197
I40
sS"w-1=''"
p198
I164
sS'nsubj=McRae'
p199
I49
sS'w+2=Mustafa'
p200
I128
sS'w-1=the'
p201
I193
sS'w+2=Aceh'
p202
I105
sS'w-1=we'
p203
I197
sS'w+1=explain'
p204
I96
sS'w+2=Kader'
p205
I122
sS'w-2=billionaire'
p206
I238
sS'w-2=Turkey'
p207
I231
sS'w+1=Richard'
p208
I88
sS'nsubj=parent'
p209
I55
sS'w-2=parent'
p210
I252
sS'poss=#PRP#'
p211
I58
sS'w-1=Microsoft'
p212
I174
sS'w+2=Celtel'
p213
I112
sS'w+1=and'
p214
I93
sS'nsubj=Pols'
p215
I50
sS'w-1=band'
p216
I183
sS'w-2=accord'
p217
I233
sS'w+2=Myrow'
p218
I129
sS'w-2=Shami'
p219
I227
sS'w+2=Bryant'
p220
I111
sS'w+1=-'
p221
I76
sS'w+1=,'
p222
I75
sS'w+1=.'
p223
I77
sS'w-2=writer'
p224
I259
sS'w+1=Abdul'
p225
I78
sS'nn=SWAPO'
p226
I38
sS'w+2=James'
p227
I121
sS'w+2=Molly'
p228
I127
sS'w-1=alleged'
p229
I180
sS'w-1=pro-secular'
p230
I189
sS'w-1=to'
p231
I195
sS"possessive='s"
p232
I69
sS'w+1=Adam'
p233
I79
sS'w+2=Berkeley'
p234
I110
sS'nsubj=Friedlander'
p235
I43
sS'w-2=Bergeron'
p236
I206
sS'w+2=musical'
p237
I148
sS'appos=Melching'
p238
I12
sS'nsubj=Kilgore'
p239
I45
sS'w+1=John'
p240
I85
sS'w-2=since'
p241
I254
sS'nn=Foundation'
p242
I35
sS'dep=Society'
p243
I31
sS"w+1='s"
p244
I74
sS'w-2=Hofeldt'
p245
I214
sS'w-2=BBK'
p246
I205
sS'appos=Ayro'
p247
I10
sS'w-2=Bryant'
p248
I208
sS'w+1=Rod'
p249
I90
sS'prep=of'
p250
I70
sS'w+1=bring'
p251
I94
sS'w+2=the'
p252
I156
sS'nsubj=Loh'
p253
I47
sS'w-2=Facebook'
p254
I212
sS'w-1=as'
p255
I182
sS'nsubj=Sheldon'
p256
I52
sS'w-2=D.C.'
p257
I210
sS'rcmod=fight'
p258
I71
sS'w-2=Samsung'
p259
I226
sS'w-1=SWAPO'
p260
I176
sS'w+1=Rita'
p261
I89
sS'w+2=Adan'
p262
I106
sS'w-1=fourplay'
p263
I187
sS'w+2=22-year-old'
p264
I104
sS'w+2=a'
p265
I136
sS'w+2=Halstead'
p266
I120
sS'w-2=by'
p267
I239
ssS'dtype'
p268
cnumpy
float64
p269
sS'feature_names_'
p270
(lp271
g79
ag151
ag154
ag24
ag167
ag28
ag126
ag66
ag191
ag182
ag247
ag156
ag238
ag116
ag27
ag114
ag172
ag64
ag29
ag94
ag40
ag88
ag30
ag105
ag194
ag130
ag76
ag134
ag163
ag146
ag63
ag243
ag99
ag136
ag33
ag242
ag150
ag81
ag226
ag9
ag197
ag141
ag11
ag235
ag120
ag239
ag117
ag253
ag16
ag199
ag215
ag102
ag256
ag183
ag155
ag209
ag143
ag192
ag211
ag98
ag69
ag51
ag86
ag91
ag181
ag123
ag174
ag14
ag96
ag232
ag250
ag258
ag109
ag173
ag244
ag222
ag221
ag223
ag225
ag233
ag196
ag153
ag110
ag140
ag53
ag240
ag12
ag73
ag208
ag261
ag249
ag87
ag22
ag214
ag251
ag62
ag204
ag127
ag42
ag125
ag106
ag35
ag31
ag38
ag264
ag202
ag262
ag160
ag119
ag178
ag234
ag220
ag213
ag139
ag36
ag144
ag61
ag92
ag193
ag131
ag266
ag227
ag205
ag21
ag101
ag25
ag113
ag228
ag200
ag218
ag129
ag184
ag158
ag8
ag148
ag17
ag265
ag195
ag157
ag89
ag80
ag177
ag18
ag59
ag133
ag19
ag97
ag122
ag237
ag121
ag52
ag190
ag104
ag169
ag179
ag166
ag252
ag165
ag44
ag176
ag128
ag45
ag168
ag26
ag198
ag164
ag152
ag54
ag32
ag185
ag46
ag10
ag82
ag23
ag212
ag67
ag260
ag58
ag20
ag138
ag229
ag90
ag255
ag216
ag103
ag170
ag84
ag263
ag13
ag230
ag68
ag74
ag135
ag201
ag189
ag231
ag65
ag203
ag161
ag100
ag55
ag93
ag95
ag15
ag85
ag246
ag236
ag34
ag248
ag47
ag257
ag111
ag254
ag118
ag245
ag70
ag107
ag171
ag162
ag37
ag142
ag72
ag147
ag159
ag186
ag175
ag259
ag219
ag71
ag75
ag149
ag207
ag132
ag217
ag83
ag115
ag78
ag180
ag206
ag267
ag108
ag56
ag43
ag49
ag41
ag48
ag187
ag124
ag145
ag188
ag50
ag57
ag210
ag112
ag241
ag137
ag77
ag60
ag39
ag224
asS'separator'
p272
S'='
sS'sparse'
p273
I01
sb.