ccopy_reg
_reconstructor
p1
(csklearn.feature_extraction.dict_vectorizer
DictVectorizer
p2
c__builtin__
object
p3
NtRp4
(dp5
S'vocabulary_'
p6
(dp7
S'nsubj=Musharraf'
p8
I14
sS'w+2=from'
p9
I29
sS'w+2=two'
p10
I31
sS'advmod=where'
p11
I1
sS'w+1=with'
p12
I26
sS'aux=to'
p13
I5
sS'w+1=among'
p14
I22
sS'w-2=say'
p15
I46
sS'w+2=Iraqis'
p16
I27
sS'w+2=the'
p17
I30
sS'conj=destroy'
p18
I8
sS'prep=as'
p19
I17
sS'dobj=#NUMBER#'
p20
I10
sS'w-1=help'
p21
I35
sS'conj=seek'
p22
I9
sS'prep=with'
p23
I21
sS'aux=can'
p24
I2
sS'complm=whether'
p25
I7
sS'aux=have'
p26
I4
sS'w-2=hard'
p27
I42
sS'nsubj=turkish'
p28
I16
sS'w-2=can'
p29
I40
sS'w-1=repeatedly'
p30
I37
sS'neg=not'
p31
I12
sS'dobj=friend'
p32
I11
sS'cc=and'
p33
I6
sS'nsubj=terrorist'
p34
I15
sS'w+1=the'
p35
I25
sS'w-1=not'
p36
I36
sS'w-2=where'
p37
I47
sS'w-2=it'
p38
I44
sS'w+1=friend'
p39
I24
sS'w-1=to'
p40
I39
sS'w-1=I'
p41
I33
sS'w+1=between'
p42
I23
sS'w-2=not'
p43
I45
sS'prep=between'
p44
I18
sS'advmod=repeatedly'
p45
I0
sS'prep=in'
p46
I20
sS'w-2=do'
p47
I41
sS'w-2=have'
p48
I43
sS'w-1=that'
p49
I38
sS'w+2=ugandan'
p50
I32
sS'w+2=fighter'
p51
I28
sS'nsubj=#PRP#'
p52
I13
sS'prep=from'
p53
I19
sS'w-1=can'
p54
I34
sS'aux=do'
p55
I3
ssS'dtype'
p56
cnumpy
float64
p57
sS'feature_names_'
p58
(lp59
g45
ag11
ag24
ag55
ag26
ag13
ag33
ag25
ag18
ag22
ag20
ag32
ag31
ag52
ag8
ag34
ag28
ag19
ag44
ag53
ag46
ag23
ag14
ag42
ag39
ag35
ag12
ag16
ag51
ag9
ag17
ag10
ag50
ag41
ag54
ag21
ag36
ag30
ag49
ag40
ag29
ag47
ag27
ag48
ag38
ag43
ag15
ag37
asS'separator'
p60
S'='
sS'sparse'
p61
I01
sb.