ccopy_reg
_reconstructor
p1
(csklearn.feature_extraction.dict_vectorizer
DictVectorizer
p2
c__builtin__
object
p3
NtRp4
(dp5
S'vocabulary_'
p6
(dp7
S'w-2=culture'
p8
I6
sS'dobj=word'
p9
I1
sS'aux=to'
p10
I0
sS'nsubj=lot'
p11
I2
sS'w-1=to'
p12
I5
sS'w+1=word'
p13
I3
sS'w+2=and'
p14
I4
ssS'dtype'
p15
cnumpy
float64
p16
sS'feature_names_'
p17
(lp18
g10
ag9
ag11
ag13
ag14
ag12
ag8
asS'separator'
p19
S'='
sS'sparse'
p20
I01
sb.