ccopy_reg
_reconstructor
p1
(csklearn.feature_extraction.dict_vectorizer
DictVectorizer
p2
c__builtin__
object
p3
NtRp4
(dp5
S'sort'
p6
I01
sS'feature_names_'
p7
(lp8
S'advcl=be'
p9
aS'advcl=demonstrate'
p10
aS'advcl=end'
p11
aS'advcl=have'
p12
aS'advcl=hold'
p13
aS'advcl=publish'
p14
aS'advcl=ready'
p15
aS'advcl=suspend'
p16
aS'advcl=take'
p17
aS'advcl=threaten'
p18
aS'advmod=abroad'
p19
aS'advmod=allegedly'
p20
aS'advmod=already'
p21
aS'advmod=also'
p22
aS'advmod=away'
p23
aS'advmod=back'
p24
aS'advmod=certainly'
p25
aS'advmod=constantly'
p26
aS'advmod=far'
p27
aS'advmod=how'
p28
aS'advmod=inland'
p29
aS'advmod=later'
p30
aS'advmod=meanwhile'
p31
aS'advmod=more'
p32
aS'advmod=now'
p33
aS'advmod=often'
p34
aS'advmod=only'
p35
aS'advmod=out'
p36
aS'advmod=outside'
p37
aS'advmod=overseas'
p38
aS'advmod=probably'
p39
aS'advmod=recently'
p40
aS'advmod=relatively'
p41
aS'advmod=reportedly'
p42
aS'advmod=since'
p43
aS'advmod=soon'
p44
aS'advmod=then'
p45
aS'advmod=there'
p46
aS'advmod=unfortunately'
p47
aS'advmod=when'
p48
aS'advmod=where'
p49
aS'amod=actual'
p50
aS'amod=automate'
p51
aS'amod=civilian-to-civilian'
p52
aS'amod=controversial'
p53
aS'amod=democratic'
p54
aS'amod=final'
p55
aS'amod=financial'
p56
aS'amod=first'
p57
aS'amod=formal'
p58
aS'amod=full'
p59
aS'amod=high'
p60
aS'amod=local'
p61
aS'amod=massive'
p62
aS'amod=normal'
p63
aS'amod=nuclear'
p64
aS'amod=open'
p65
aS'amod=peaceful'
p66
aS'amod=possible'
p67
aS'amod=recent'
p68
aS'amod=safe'
p69
aS'amod=smooth'
p70
aS'amod=such'
p71
aS'amod=target'
p72
aS'amod=temporary'
p73
aS'amod=unconstitutional'
p74
aS'amod=uncritical'
p75
aS'amod=unilateral'
p76
aS'amod=voluntary'
p77
aS'aux=be'
p78
aS'aux=can'
p79
aS'aux=could'
p80
aS'aux=do'
p81
aS'aux=have'
p82
aS'aux=may'
p83
aS'aux=should'
p84
aS'aux=to'
p85
aS'aux=will'
p86
aS'aux=would'
p87
aS'auxpass=be'
p88
aS'cc=and'
p89
aS'cc=but'
p90
aS'cc=or'
p91
aS'ccomp=own'
p92
aS'complm=that'
p93
aS'complm=whether'
p94
aS'conj=U.K.'
p95
aS'conj=accidentally'
p96
aS'conj=aid'
p97
aS'conj=call'
p98
aS'conj=clear'
p99
aS'conj=deprive'
p100
aS'conj=for'
p101
aS'conj=operate'
p102
aS'conj=possibility'
p103
aS'conj=release'
p104
aS'conj=resume'
p105
aS'conj=send'
p106
aS'conj=spend'
p107
aS'conj=transfer'
p108
aS'cop=be'
p109
aS'dep=after'
p110
aS'dep=either'
p111
aS'det=a'
p112
aS'det=the'
p113
aS'det=these'
p114
aS'det=this'
p115
aS'dobj=#NUMBER#'
p116
aS'dobj=#PRP#'
p117
aS'dobj=$'
p118
aS"dobj='s"
p119
aS'dobj=Diallo'
p120
aS'dobj=Katanga'
p121
aS'dobj=Kurds'
p122
aS'dobj=any'
p123
aS'dobj=anyone'
p124
aS'dobj=area'
p125
aS'dobj=arrival'
p126
aS'dobj=assistance'
p127
aS'dobj=authority'
p128
aS'dobj=burden'
p129
aS'dobj=card'
p130
aS'dobj=case'
p131
aS'dobj=cash'
p132
aS'dobj=control'
p133
aS'dobj=datum'
p134
aS'dobj=detail'
p135
aS'dobj=detainee'
p136
aS'dobj=district'
p137
aS'dobj=dollar'
p138
aS'dobj=fund'
p139
aS'dobj=husband'
p140
aS'dobj=knowledge'
p141
aS'dobj=many'
p142
aS'dobj=money'
p143
aS'dobj=nation'
p144
aS'dobj=nurse'
p145
aS'dobj=panel'
p146
aS'dobj=patient'
p147
aS'dobj=pollutant'
p148
aS'dobj=popularity'
p149
aS'dobj=population'
p150
aS'dobj=power'
p151
aS'dobj=problem'
p152
aS'dobj=process'
p153
aS'dobj=project'
p154
aS'dobj=responsibility'
p155
aS'dobj=sash'
p156
aS'dobj=share'
p157
aS'dobj=some'
p158
aS'dobj=success'
p159
aS'dobj=technology'
p160
aS'dobj=theirallegiance'
p161
aS'dobj=those'
p162
aS'dobj=uranium'
p163
aS'dobj=weapon'
p164
aS'dobj=zookeeper'
p165
aS'infmod=expand'
p166
aS'mark=about'
p167
aS'mark=after'
p168
aS'mark=as'
p169
aS'mark=because'
p170
aS'mark=once'
p171
aS'mark=until'
p172
aS'neg=not'
p173
aS'nn=bank'
p174
aS'nn=cash'
p175
aS'nn=fund'
p176
aS'nn=investment'
p177
aS'nn=land'
p178
aS'nn=money'
p179
aS'nn=overa'
p180
aS'nn=technology'
p181
aS'nn=theland'
p182
aS'nn=trade'
p183
aS'nn=weapon'
p184
aS'nn=wire'
p185
aS'nsubj=#PRP#'
p186
aS'nsubj=Department'
p187
aS'nsubj=Israel'
p188
aS'nsubj=Kremlin'
p189
aS'nsubj=Navy'
p190
aS'nsubj=Serbia'
p191
aS'nsubj=Sweden'
p192
aS'nsubj=agency'
p193
aS'nsubj=commander'
p194
aS'nsubj=dump'
p195
aS'nsubj=father'
p196
aS'nsubj=force'
p197
aS'nsubj=general'
p198
aS'nsubj=official'
p199
aS'nsubj=people'
p200
aS'nsubj=plan'
p201
aS'nsubj=police'
p202
aS'nsubj=power'
p203
aS'nsubj=rendition'
p204
aS'nsubj=that'
p205
aS'nsubj=which'
p206
aS'nsubj=who'
p207
aS'nsubjpass=#PRP#'
p208
aS'nsubjpass=$'
p209
aS'nsubjpass=Mann'
p210
aS'nsubjpass=element'
p211
aS'nsubjpass=embryo'
p212
aS'nsubjpass=founder'
p213
aS'nsubjpass=fugitive'
p214
aS'nsubjpass=fund'
p215
aS'nsubjpass=half'
p216
aS'nsubjpass=inmate'
p217
aS'nsubjpass=man'
p218
aS'nsubjpass=money'
p219
aS'nsubjpass=most'
p220
aS'nsubjpass=much'
p221
aS'nsubjpass=other'
p222
aS'nsubjpass=percentage'
p223
aS'nsubjpass=pilot'
p224
aS'nsubjpass=prisoner'
p225
aS'nsubjpass=province'
p226
aS'nsubjpass=sailor'
p227
aS'nsubjpass=school'
p228
aS'nsubjpass=situation'
p229
aS'nsubjpass=step'
p230
aS'nsubjpass=suspect'
p231
aS'nsubjpass=technology'
p232
aS'nsubjpass=that'
p233
aS'nsubjpass=those'
p234
aS'nsubjpass=who'
p235
aS'partmod=enable'
p236
aS'partmod=revoke'
p237
aS'poss=#PRP#'
p238
aS'poss=Nigeria'
p239
aS'poss=country'
p240
aS'poss=group'
p241
aS'poss=island'
p242
aS'poss=journalist'
p243
aS'predet=all'
p244
aS'prep=about'
p245
aS'prep=across'
p246
aS'prep=after'
p247
aS'prep=amid'
p248
aS'prep=as'
p249
aS'prep=at'
p250
aS'prep=because'
p251
aS'prep=before'
p252
aS'prep=by'
p253
aS'prep=during'
p254
aS'prep=for'
p255
aS'prep=from'
p256
aS'prep=in'
p257
aS'prep=into'
p258
aS'prep=of'
p259
aS'prep=off'
p260
aS'prep=on'
p261
aS'prep=onto'
p262
aS'prep=to'
p263
aS'prep=until'
p264
aS'prep=with'
p265
aS'prep=without'
p266
aS'prt=out'
p267
aS'prt=up'
p268
aS'rcmod=be'
p269
aS'rcmod=crucial'
p270
aS'rcmod=receive'
p271
aS'rcmod=stir'
p272
aS'rcmod=transfer'
p273
aS'tmod=#DATE#'
p274
aS'tmod=week'
p275
aS'tmod=year'
p276
aS'w+1=$'
p277
aS'w+1=,'
p278
aS'w+1=.'
p279
aS'w+1=20'
p280
aS'w+1=500'
p281
aS'w+1=Germain'
p282
aS'w+1=Guantanamo'
p283
aS'w+1=Israel'
p284
aS'w+1=Manzo'
p285
aS'w+1=Vehicle'
p286
aS'w+1=a'
p287
aS'w+1=about'
p288
aS'w+1=advanced'
p289
aS'w+1=and'
p290
aS'w+1=any'
p291
aS'w+1=anyone'
p292
aS'w+1=as'
p293
aS'w+1=at'
p294
aS'w+1=authority'
p295
aS'w+1=away'
p296
aS'w+1=be'
p297
aS'w+1=billion'
p298
aS'w+1=by'
p299
aS'w+1=cash'
p300
aS'w+1=clear'
p301
aS'w+1=control'
p302
aS'w+1=datum'
p303
aS'w+1=defuse'
p304
aS'w+1=delay'
p305
aS'w+1=detainee'
p306
aS'w+1=district'
p307
aS'w+1=executive'
p308
aS'w+1=fight'
p309
aS'w+1=for'
p310
aS'w+1=from'
p311
aS'w+1=have'
p312
aS'w+1=he'
p313
aS'w+1=himout'
p314
aS'w+1=humanitarian'
p315
aS'w+1=in'
p316
aS'w+1=into'
p317
aS'w+1=involve'
p318
aS'w+1=its'
p319
aS'w+1=itself'
p320
aS'w+1=knowledge'
p321
aS'w+1=many'
p322
aS'w+1=money'
p323
aS'w+1=more'
p324
aS'w+1=most'
p325
aS'w+1=nine'
p326
aS'w+1=north'
p327
aS'w+1=of'
p328
aS'w+1=or'
p329
aS'w+1=out'
p330
aS'w+1=outside'
p331
aS'w+1=overseas'
p332
aS'w+1=ownership'
p333
aS'w+1=patient'
p334
aS'w+1=pollutant'
p335
aS'w+1=power'
p336
aS'w+1=process'
p337
aS'w+1=project'
p338
aS'w+1=responsibility'
p339
aS'w+1=revoke'
p340
aS'w+1=say'
p341
aS'w+1=security'
p342
aS'w+1=several'
p343
aS'w+1=share'
p344
aS'w+1=she'
p345
aS'w+1=significant'
p346
aS'w+1=some'
p347
aS'w+1=technology'
p348
aS'w+1=that'
p349
aS'w+1=the'
p350
aS'w+1=theirallegiance'
p351
aS'w+1=there'
p352
aS'w+1=they'
p353
aS'w+1=those'
p354
aS'w+1=to'
p355
aS'w+1=until'
p356
aS'w+1=up'
p357
aS'w+1=weapon'
p358
aS'w+1=will'
p359
aS'w+1=you'
p360
aS'w+1=zookeeper'
p361
aS'w+2=$'
p362
aS"w+2=''"
p363
aS"w+2='s"
p364
aS'w+2=,'
p365
aS'w+2=.'
p366
aS'w+2=1.6'
p367
aS'w+2=100'
p368
aS'w+2=120'
p369
aS'w+2=2,000'
p370
aS'w+2=25'
p371
aS'w+2=40'
p372
aS'w+2=400,000'
p373
aS'w+2=48'
p374
aS'w+2=7'
p375
aS'w+2=Benjamin'
p376
aS'w+2=Chad'
p377
aS'w+2=Christmas'
p378
aS'w+2=Diallo'
p379
aS'w+2=France'
p380
aS'w+2=Guantanamo'
p381
aS'w+2=I'
p382
aS'w+2=India'
p383
aS'w+2=Indiahas'
p384
aS'w+2=Iraq'
p385
aS'w+2=Katanga'
p386
aS'w+2=Mutumba'
p387
aS'w+2=New'
p388
aS'w+2=North'
p389
aS'w+2=Rwanda'
p390
aS'w+2=Somali'
p391
aS'w+2=Tehran'
p392
aS'w+2=U.S.'
p393
aS'w+2=Zimbabwe'
p394
aS'w+2=a'
p395
aS'w+2=about'
p396
aS'w+2=and'
p397
aS'w+2=another'
p398
aS'w+2=area'
p399
aS'w+2=as'
p400
aS'w+2=assistance'
p401
aS'w+2=avian'
p402
aS'w+2=be'
p403
aS'w+2=billion'
p404
aS'w+2=brigade'
p405
aS'w+2=burden'
p406
aS'w+2=by'
p407
aS'w+2=camp'
p408
aS'w+2=cargo'
p409
aS'w+2=case'
p410
aS'w+2=cash'
p411
aS'w+2=civilian'
p412
aS'w+2=clean'
p413
aS'w+2=commercial'
p414
aS'w+2=complete'
p415
aS'w+2=continue'
p416
aS'w+2=control'
p417
aS'w+2=conventional'
p418
aS'w+2=detainee'
p419
aS'w+2=developed'
p420
aS'w+2=development'
p421
aS'w+2=diminish'
p422
aS'w+2=district'
p423
aS'w+2=do'
p424
aS'w+2=enriched'
p425
aS'w+2=entire'
p426
aS'w+2=exist'
p427
aS'w+2=fear'
p428
aS'w+2=food'
p429
aS'w+2=for'
p430
aS'w+2=forestland'
p431
aS'w+2=from'
p432
aS'w+2=frozen'
p433
aS'w+2=fund'
p434
aS'w+2=government'
p435
aS'w+2=he'
p436
aS'w+2=how'
p437
aS'w+2=husband'
p438
aS'w+2=if'
p439
aS'w+2=in'
p440
aS'w+2=into'
p441
aS'w+2=iranian'
p442
aS'w+2=iraqi'
p443
aS'w+2=it'
p444
aS'w+2=its'
p445
aS'w+2=korean'
p446
aS'w+2=land'
p447
aS'w+2=larger'
p448
aS'w+2=last'
p449
aS'w+2=least'
p450
aS'w+2=local'
p451
aS'w+2=member'
p452
aS'w+2=money'
p453
aS'w+2=nation'
p454
aS'w+2=national'
p455
aS'w+2=new'
p456
aS'w+2=not'
p457
aS'w+2=nuclear'
p458
aS'w+2=nurse'
p459
aS'w+2=of'
p460
aS'w+2=operate'
p461
aS'w+2=other'
p462
aS'w+2=palestinian'
p463
aS'w+2=panel'
p464
aS'w+2=peaceful'
p465
aS'w+2=police'
p466
aS'w+2=popularity'
p467
aS'w+2=power'
p468
aS'w+2=presidential'
p469
aS'w+2=prison'
p470
aS'w+2=problem'
p471
aS'w+2=regular'
p472
aS'w+2=release'
p473
aS'w+2=remain'
p474
aS'w+2=responsibility'
p475
aS'w+2=security'
p476
aS'w+2=share'
p477
aS'w+2=she'
p478
aS'w+2=skill'
p479
aS'w+2=soon'
p480
aS'w+2=south'
p481
aS'w+2=stall'
p482
aS'w+2=stockpiling'
p483
aS'w+2=success'
p484
aS'w+2=such'
p485
aS'w+2=suspect'
p486
aS'w+2=tax'
p487
aS'w+2=technology'
p488
aS'w+2=terrorism'
p489
aS'w+2=that'
p490
aS'w+2=the'
p491
aS'w+2=to'
p492
aS'w+2=trade'
p493
aS'w+2=transfer'
p494
aS'w+2=try'
p495
aS'w+2=under'
p496
aS'w+2=unilateral'
p497
aS'w+2=use'
p498
aS'w+2=value'
p499
aS'w+2=war'
p500
aS'w+2=we'
p501
aS'w+2=which'
p502
aS"w-1='s"
p503
aS'w-1=,'
p504
aS'w-1=-'
p505
aS'w-1=Guard'
p506
aS'w-1=Israel'
p507
aS'w-1=Kirchner'
p508
aS'w-1=Kremlin'
p509
aS'w-1=Navy'
p510
aS'w-1=a'
p511
aS'w-1=actual'
p512
aS'w-1=advocate'
p513
aS'w-1=agency'
p514
aS'w-1=allegedly'
p515
aS'w-1=already'
p516
aS'w-1=also'
p517
aS'w-1=and'
p518
aS'w-1=as'
p519
aS'w-1=asset'
p520
aS'w-1=automate'
p521
aS'w-1=await'
p522
aS'w-1=bank'
p523
aS'w-1=be'
p524
aS'w-1=begin'
p525
aS'w-1=can'
p526
aS'w-1=cash'
p527
aS'w-1=ceremony'
p528
aS'w-1=civilian-to-civilian'
p529
aS'w-1=constantly'
p530
aS'w-1=controversial'
p531
aS'w-1=democratic'
p532
aS'w-1=ever'
p533
aS'w-1=final'
p534
aS'w-1=financial'
p535
aS'w-1=first'
p536
aS'w-1=for'
p537
aS'w-1=force'
p538
aS'w-1=formal'
p539
aS'w-1=full'
p540
aS'w-1=fund'
p541
aS'w-1=have'
p542
aS'w-1=he'
p543
aS'w-1=help'
p544
aS'w-1=in'
p545
aS'w-1=investment'
p546
aS'w-1=it'
p547
aS'w-1=job'
p548
aS'w-1=land'
p549
aS'w-1=later'
p550
aS'w-1=legislation'
p551
aS'w-1=local'
p552
aS'w-1=make'
p553
aS'w-1=man'
p554
aS'w-1=massive'
p555
aS'w-1=may'
p556
aS'w-1=money'
p557
aS'w-1=normal'
p558
aS'w-1=not'
p559
aS'w-1=nuclear'
p560
aS'w-1=of'
p561
aS'w-1=official'
p562
aS'w-1=often'
p563
aS'w-1=on'
p564
aS'w-1=only'
p565
aS'w-1=open'
p566
aS'w-1=or'
p567
aS'w-1=orderly'
p568
aS'w-1=peaceful'
p569
aS'w-1=people'
p570
aS'w-1=possible'
p571
aS'w-1=probably'
p572
aS'w-1=receive'
p573
aS'w-1=recent'
p574
aS'w-1=resource'
p575
aS'w-1=say'
p576
aS'w-1=she'
p577
aS'w-1=slow'
p578
aS'w-1=speedy'
p579
aS'w-1=such'
p580
aS'w-1=technology'
p581
aS'w-1=temporary'
p582
aS'w-1=that'
p583
aS'w-1=the'
p584
aS'w-1=theland'
p585
aS'w-1=these'
p586
aS'w-1=they'
p587
aS'w-1=this'
p588
aS'w-1=to'
p589
aS'w-1=unconstitutional'
p590
aS'w-1=uncritical'
p591
aS'w-1=unilateral'
p592
aS'w-1=voluntary'
p593
aS'w-1=weapon'
p594
aS'w-1=who'
p595
aS'w-1=will'
p596
aS'w-1=wire'
p597
aS'w-1=would'
p598
aS'w-1=you'
p599
aS"w-2=''"
p600
aS"w-2='s"
p601
aS'w-2=,'
p602
aS'w-2=-'
p603
aS'w-2=--'
p604
aS'w-2=.'
p605
aS'w-2=Coast'
p606
aS'w-2=Department'
p607
aS'w-2=Hutus'
p608
aS'w-2=I'
p609
aS'w-2=Israel'
p610
aS'w-2=Parhat'
p611
aS'w-2=President'
p612
aS'w-2=Securitate'
p613
aS'w-2=Serbia'
p614
aS'w-2=States'
p615
aS'w-2=Sweden'
p616
aS'w-2=U.S.'
p617
aS'w-2=a'
p618
aS'w-2=accept'
p619
aS'w-2=adopt'
p620
aS'w-2=after'
p621
aS'w-2=agree'
p622
aS'w-2=all'
p623
aS'w-2=allege'
p624
aS'w-2=allow'
p625
aS'w-2=also'
p626
aS'w-2=and'
p627
aS'w-2=approve'
p628
aS'w-2=argue'
p629
aS'w-2=arrival'
p630
aS'w-2=as'
p631
aS'w-2=assistance'
p632
aS'w-2=authority'
p633
aS'w-2=ban'
p634
aS'w-2=bank'
p635
aS'w-2=bar'
p636
aS'w-2=be'
p637
aS'w-2=because'
p638
aS'w-2=before'
p639
aS'w-2=begin'
p640
aS'w-2=bid'
p641
aS'w-2=billion'
p642
aS'w-2=blame'
p643
aS'w-2=but'
p644
aS'w-2=can'
p645
aS'w-2=celebrate'
p646
aS'w-2=certainly'
p647
aS'w-2=commander'
p648
aS'w-2=complete'
p649
aS'w-2=complicate'
p650
aS'w-2=confirm'
p651
aS'w-2=controversial'
p652
aS'w-2=could'
p653
aS'w-2=counterproductive'
p654
aS'w-2=datum'
p655
aS'w-2=deal'
p656
aS'w-2=decide'
p657
aS'w-2=decision'
p658
aS'w-2=delay'
p659
aS'w-2=discuss'
p660
aS'w-2=do'
p661
aS'w-2=element'
p662
aS'w-2=first'
p663
aS'w-2=for'
p664
aS'w-2=fund'
p665
aS'w-2=general'
p666
aS'w-2=get'
p667
aS'w-2=goal'
p668
aS'w-2=group'
p669
aS'w-2=hacker'
p670
aS'w-2=hague'
p671
aS'w-2=handle'
p672
aS'w-2=have'
p673
aS'w-2=he'
p674
aS'w-2=hear'
p675
aS'w-2=high'
p676
aS'w-2=hope'
p677
aS'w-2=how'
p678
aS'w-2=identify'
p679
aS'w-2=if'
p680
aS'w-2=in'
p681
aS'w-2=include'
p682
aS'w-2=involve'
p683
aS'w-2=island'
p684
aS'w-2=issue'
p685
aS'w-2=it'
p686
aS'w-2=its'
p687
aS'w-2=journalist'
p688
aS'w-2=like'
p689
aS'w-2=likely'
p690
aS'w-2=man'
p691
aS'w-2=manufacture'
p692
aS'w-2=military'
p693
aS'w-2=money'
p694
aS'w-2=most'
p695
aS'w-2=nation'
p696
aS'w-2=not'
p697
aS'w-2=of'
p698
aS'w-2=on'
p699
aS'w-2=once'
p700
aS'w-2=or'
p701
aS'w-2=order'
p702
aS'w-2=other'
p703
aS'w-2=over'
p704
aS'w-2=overa'
p705
aS'w-2=oversee'
p706
aS'w-2=plan'
p707
aS'w-2=police'
p708
aS'w-2=power'
p709
aS'w-2=problem'
p710
aS'w-2=procedure'
p711
aS'w-2=process'
p712
aS'w-2=production'
p713
aS'w-2=program'
p714
aS'w-2=prohibit'
p715
aS'w-2=project'
p716
aS'w-2=ready'
p717
aS'w-2=recently'
p718
aS'w-2=relatively'
p719
aS'w-2=release'
p720
aS'w-2=report'
p721
aS'w-2=reportedly'
p722
aS'w-2=represent'
p723
aS'w-2=rescind'
p724
aS'w-2=role'
p725
aS'w-2=say'
p726
aS'w-2=sector'
p727
aS'w-2=security'
p728
aS'w-2=selling'
p729
aS'w-2=she'
p730
aS'w-2=should'
p731
aS'w-2=simpleenough'
p732
aS'w-2=since'
p733
aS'w-2=stage'
p734
aS'w-2=stop'
p735
aS'w-2=such'
p736
aS'w-2=surrender'
p737
aS'w-2=target'
p738
aS'w-2=technique'
p739
aS'w-2=that'
p740
aS'w-2=the'
p741
aS'w-2=then'
p742
aS'w-2=they'
p743
aS'w-2=timetable'
p744
aS'w-2=to'
p745
aS'w-2=transfer'
p746
aS'w-2=try'
p747
aS'w-2=until'
p748
aS'w-2=up'
p749
aS'w-2=use'
p750
aS'w-2=volunteer'
p751
aS'w-2=want'
p752
aS'w-2=way'
p753
aS'w-2=we'
p754
aS'w-2=welcome'
p755
aS'w-2=which'
p756
aS'w-2=who'
p757
aS'w-2=will'
p758
aS'w-2=willing'
p759
aS'w-2=wish'
p760
aS'w-2=wound'
p761
aS'xcomp=comply'
p762
aS'xcomp=enable'
p763
aS'xcomp=face'
p764
aS'xcomp=fight'
p765
aS'xcomp=have'
p766
aS'xcomp=help'
p767
aS'xcomp=make'
p768
aS'xcomp=stand'
p769
aS'xcomp=study'
p770
aS'xcomp=suspect'
p771
aS'xcomp=use'
p772
asS'dtype'
p773
cnumpy
float64
p774
sS'vocabulary_'
p775
(dp776
g45
I36
sg252
I243
sg642
I633
sg32
I23
sg171
I162
sg734
I725
sg577
I568
sg25
I16
sg471
I462
sg331
I322
sg16
I7
sg15
I6
sg304
I295
sg737
I728
sg192
I183
sg177
I168
sg210
I201
sg571
I562
sg204
I195
sg412
I403
sg432
I423
sg770
I761
sg475
I466
sg53
I44
sg69
I60
sg498
I489
sg708
I699
sg272
I263
sg408
I399
sg465
I456
sg657
I648
sg141
I132
sg234
I225
sg481
I472
sg733
I724
sg373
I364
sg693
I684
sg253
I244
sg448
I439
sg308
I299
sg562
I553
sg349
I340
sg98
I89
sg339
I330
sg70
I61
sg569
I560
sg742
I733
sg598
I589
sg551
I542
sg576
I567
sg224
I215
sg50
I41
sg419
I410
sg751
I742
sg223
I214
sg138
I129
sg280
I271
sg720
I711
sg579
I570
sg754
I745
sg428
I419
sg596
I587
sg609
I600
sg83
I74
sg524
I515
sg289
I280
sg59
I50
sg741
I732
sg345
I336
sg709
I700
sg92
I83
sg616
I607
sg222
I213
sg639
I630
sg300
I291
sg61
I52
sg744
I735
sg483
I474
sg110
I101
sg217
I208
sg74
I65
sg17
I8
sg757
I748
sg328
I319
sg458
I449
sg479
I470
sg200
I191
sg492
I483
sg449
I440
sg420
I411
sg654
I645
sg534
I525
sg329
I320
sg712
I703
sg477
I468
sg542
I533
sg276
I267
sg506
I497
sg628
I619
sg439
I430
sg323
I314
sg440
I431
sg444
I435
sg677
I668
sg194
I185
sg303
I294
sg392
I383
sg623
I614
sg703
I694
sg307
I298
sg517
I508
sg79
I70
sg93
I84
sg443
I434
sg610
I601
sg103
I94
sg213
I204
sg643
I634
sg459
I450
sg130
I121
sg599
I590
sg706
I697
sg765
I756
sg467
I458
sg376
I367
sg565
I556
sg721
I712
sg407
I398
sg350
I341
sg228
I219
sg357
I348
sg370
I361
sg20
I11
sg271
I262
sg35
I26
sg403
I394
sg243
I234
sg353
I344
sg188
I179
sg669
I660
sg735
I726
sg354
I345
sg249
I240
sg516
I507
sg470
I461
sg208
I199
sg257
I248
sg167
I158
sg87
I78
sg314
I305
sg29
I20
sg310
I301
sg12
I3
sg555
I546
sg447
I438
sg688
I679
sg248
I239
sg285
I276
sg263
I254
sg772
I763
sg729
I720
sg377
I368
sg523
I514
sg178
I169
sg166
I157
sg161
I152
sg356
I347
sg290
I281
sg485
I476
sg107
I98
sg716
I707
sg333
I324
sg211
I202
sg39
I30
sg768
I759
sg380
I371
sg96
I87
sg719
I710
sg430
I421
sg291
I282
sg108
I99
sg702
I693
sg205
I196
sg580
I571
sg759
I750
sg493
I484
sg634
I625
sg268
I259
sg115
I106
sg636
I627
sg482
I473
sg545
I536
sg501
I492
sg309
I300
sg361
I352
sg338
I329
sg409
I400
sg80
I71
sg584
I575
sg38
I29
sg651
I642
sg164
I155
sg468
I459
sg282
I273
sg57
I48
sg457
I448
sg539
I530
sg262
I253
sg241
I232
sg727
I718
sg622
I613
sg437
I428
sg41
I32
sg743
I734
sg269
I260
sg764
I755
sg343
I334
sg312
I303
sg455
I446
sg113
I104
sg137
I128
sg114
I105
sg750
I741
sg99
I90
sg273
I264
sg151
I142
sg701
I692
sg207
I198
sg375
I366
sg129
I120
sg31
I22
sg454
I445
sg77
I68
sg683
I674
sg101
I92
sg698
I689
sg72
I63
sg574
I565
sg699
I690
sg589
I580
sg334
I325
sg536
I527
sg614
I605
sg473
I464
sg486
I477
sg117
I108
sg661
I652
sg148
I139
sg62
I53
sg221
I212
sg140
I131
sg360
I351
sg146
I137
sg237
I228
sg659
I650
sg60
I51
sg547
I538
sg293
I284
sg442
I433
sg294
I285
sg507
I498
sg313
I304
sg337
I328
sg284
I275
sg156
I147
sg267
I258
sg496
I487
sg233
I224
sg766
I757
sg594
I585
sg535
I526
sg416
I407
sg526
I517
sg142
I133
sg411
I402
sg410
I401
sg351
I342
sg203
I194
sg679
I670
sg655
I646
sg487
I478
sg48
I39
sg358
I349
sg295
I286
sg717
I708
sg147
I138
sg718
I709
sg730
I721
sg255
I246
sg128
I119
sg372
I363
sg197
I188
sg738
I729
sg515
I506
sg746
I737
sg687
I678
sg538
I529
sg400
I391
sg617
I608
sg710
I701
sg573
I564
sg124
I115
sg236
I227
sg18
I9
sg88
I79
sg572
I563
sg489
I480
sg503
I494
sg19
I10
sg484
I475
sg286
I277
sg383
I374
sg635
I626
sg521
I512
sg704
I695
sg527
I518
sg352
I343
sg378
I369
sg183
I174
sg346
I337
sg478
I469
sg292
I283
sg495
I486
sg319
I310
sg656
I647
sg388
I379
sg629
I620
sg405
I396
sg321
I312
sg771
I762
sg749
I740
sg387
I378
sg648
I639
sg480
I471
sg260
I251
sg607
I598
sg570
I561
sg695
I686
sg413
I404
sg532
I523
sg149
I140
sg625
I616
sg220
I211
sg600
I591
sg460
I451
sg229
I220
sg64
I55
sg621
I612
sg355
I346
sg552
I543
sg58
I49
sg281
I272
sg429
I420
sg518
I509
sg106
I97
sg258
I249
sg190
I181
sg404
I395
sg180
I171
sg450
I441
sg541
I532
sg641
I632
sg508
I499
sg748
I739
sg755
I746
sg91
I82
sg189
I180
sg374
I365
sg396
I387
sg266
I257
sg381
I372
sg131
I122
sg27
I18
sg578
I569
sg132
I123
sg601
I592
sg670
I661
sg95
I86
sg522
I513
sg663
I654
sg134
I125
sg767
I758
sg162
I153
sg453
I444
sg215
I206
sg193
I184
sg191
I182
sg34
I25
sg244
I235
sg611
I602
sg426
I417
sg14
I5
sg672
I663
sg185
I176
sg341
I332
sg402
I393
sg557
I548
sg301
I292
sg391
I382
sg49
I40
sg566
I557
sg182
I173
sg73
I64
sg531
I522
sg646
I637
sg472
I463
sg560
I551
sg756
I747
sg54
I45
sg198
I189
sg264
I255
sg722
I713
sg46
I37
sg165
I156
sg488
I479
sg371
I362
sg769
I760
sg239
I230
sg592
I583
sg81
I72
sg145
I136
sg451
I442
sg26
I17
sg414
I405
sg626
I617
sg86
I77
sg119
I110
sg649
I640
sg21
I12
sg456
I447
sg179
I170
sg219
I210
sg63
I54
sg393
I384
sg692
I683
sg150
I141
sg398
I389
sg739
I730
sg265
I256
sg174
I165
sg386
I377
sg136
I127
sg326
I317
sg582
I573
sg40
I31
sg422
I413
sg348
I339
sg445
I436
sg707
I698
sg369
I360
sg680
I671
sg575
I566
sg604
I595
sg681
I672
sg696
I687
sg686
I677
sg43
I34
sg424
I415
sg152
I143
sg251
I242
sg23
I14
sg514
I505
sg433
I424
sg497
I488
sg513
I504
sg390
I381
sg652
I643
sg225
I216
sg379
I370
sg431
I422
sg163
I154
sg340
I331
sg619
I610
sg363
I354
sg588
I579
sg606
I597
sg406
I397
sg22
I13
sg499
I490
sg270
I261
sg528
I519
sg135
I126
sg170
I161
sg546
I537
sg714
I705
sg367
I358
sg615
I606
sg102
I93
sg586
I577
sg235
I226
sg673
I664
sg89
I80
sg123
I114
sg296
I287
sg299
I290
sg359
I350
sg297
I288
sg423
I414
sg55
I46
sg723
I714
sg593
I584
sg364
I355
sg474
I465
sg590
I581
sg199
I190
sg315
I306
sg662
I653
sg316
I307
sg464
I455
sg172
I163
sg186
I177
sg288
I279
sg665
I656
sg650
I641
sg317
I308
sg90
I81
sg725
I716
sg318
I309
sg159
I150
sg238
I229
sg116
I107
sg544
I535
sg10
I1
sg51
I42
sg230
I221
sg275
I266
sg612
I603
sg632
I623
sg65
I56
sg500
I491
sg640
I631
sg694
I685
sg332
I323
sg24
I15
sg689
I680
sg540
I531
sg121
I112
sg553
I544
sg502
I493
sg633
I624
sg277
I268
sg637
I628
sg520
I511
sg259
I250
sg209
I200
sg71
I62
sg11
I2
sg75
I66
sg261
I252
sg168
I159
sg620
I611
sg585
I576
sg206
I197
sg218
I209
sg242
I233
sg30
I21
sg510
I501
sg653
I644
sg469
I460
sg568
I559
sg118
I109
sg126
I117
sg330
I321
sg530
I521
sg434
I425
sg418
I409
sg732
I723
sg490
I481
sg389
I380
sg366
I357
sg564
I555
sg595
I586
sg667
I658
sg671
I662
sg752
I743
sg567
I558
sg736
I727
sg227
I218
sg122
I113
sg666
I657
sg549
I540
sg561
I552
sg202
I193
sg111
I102
sg745
I736
sg397
I388
sg274
I265
sg627
I618
sg452
I443
sg624
I615
sg226
I217
sg246
I237
sg761
I752
sg747
I738
sg176
I167
sg306
I297
sg109
I100
sg529
I520
sg760
I751
sg674
I665
sg591
I582
sg127
I118
sg324
I315
sg344
I335
sg668
I659
sg33
I24
sg726
I717
sg37
I28
sg441
I432
sg491
I482
sg250
I241
sg758
I749
sg724
I715
sg608
I599
sg602
I593
sg630
I621
sg605
I596
sg509
I500
sg56
I47
sg436
I427
sg47
I38
sg153
I144
sg385
I376
sg421
I412
sg82
I73
sg644
I635
sg298
I289
sg684
I675
sg705
I696
sg581
I572
sg505
I496
sg504
I495
sg697
I688
sg762
I753
sg157
I148
sg100
I91
sg713
I704
sg160
I151
sg120
I111
sg631
I622
sg691
I682
sg44
I35
sg658
I649
sg715
I706
sg245
I236
sg678
I669
sg139
I130
sg342
I333
sg417
I408
sg68
I59
sg84
I75
sg67
I58
sg384
I375
sg435
I426
sg618
I609
sg587
I578
sg97
I88
sg112
I103
sg511
I502
sg327
I318
sg283
I274
sg613
I604
sg763
I754
sg466
I457
sg181
I172
sg494
I485
sg212
I203
sg512
I503
sg232
I223
sg169
I160
sg543
I534
sg476
I467
sg322
I313
sg682
I673
sg446
I437
sg125
I116
sg143
I134
sg311
I302
sg216
I207
sg201
I192
sg195
I186
sg187
I178
sg94
I85
sg685
I676
sg548
I539
sg247
I238
sg399
I390
sg711
I702
sg66
I57
sg463
I454
sg240
I231
sg438
I429
sg700
I691
sg52
I43
sg401
I392
sg335
I326
sg525
I516
sg155
I146
sg13
I4
sg690
I681
sg675
I666
sg104
I95
sg305
I296
sg28
I19
sg533
I524
sg175
I166
sg256
I247
sg36
I27
sg462
I453
sg196
I187
sg42
I33
sg105
I96
sg85
I76
sg731
I722
sg728
I719
sg76
I67
sg368
I359
sg184
I175
sg9
I0
sg645
I636
sg320
I311
sg660
I651
sg158
I149
sg425
I416
sg302
I293
sg214
I205
sg537
I528
sg278
I269
sg279
I270
sg740
I731
sg753
I744
sg347
I338
sg365
I356
sg563
I554
sg173
I164
sg362
I353
sg254
I245
sg603
I594
sg676
I667
sg461
I452
sg597
I588
sg382
I373
sg394
I385
sg415
I406
sg144
I135
sg133
I124
sg287
I278
sg558
I549
sg559
I550
sg231
I222
sg550
I541
sg325
I316
sg556
I547
sg427
I418
sg519
I510
sg638
I629
sg583
I574
sg78
I69
sg664
I655
sg336
I327
sg647
I638
sg395
I386
sg554
I545
sg154
I145
ssS'separator'
p777
S'='
sS'sparse'
p778
I01
sb.