ccopy_reg
_reconstructor
p1
(csklearn.feature_extraction.dict_vectorizer
DictVectorizer
p2
c__builtin__
object
p3
NtRp4
(dp5
S'vocabulary_'
p6
(dp7
S'w+1=Nepal'
p8
I101
sS'w+2=now'
p9
I138
sS'dobj=Democrats'
p10
I33
sS'w-1=Lowenkron'
p11
I160
sS'w+2=two'
p12
I147
sS'dobj=those'
p13
I57
sS'w+2=democratic'
p14
I131
sS'w-1=Obama'
p15
I162
sS'w-2=we'
p16
I211
sS'w+2=winner'
p17
I150
sS'w+2=prime'
p18
I144
sS'dobj=citizen'
p19
I46
sS'w+1=all'
p20
I104
sS'nsubj=Rice'
p21
I74
sS'nsubj=England'
p22
I69
sS'w-2=Mehsud'
p23
I190
sS'dobj=Bosnians'
p24
I30
sS'w-1=be'
p25
I168
sS'w-1=Romney'
p26
I164
sS'dobj=people'
p27
I54
sS'w+2=Kibaki'
p28
I122
sS'nsubj=Compaore'
p29
I68
sS'w+1=Kosovar'
p30
I97
sS'w+2=those'
p31
I146
sS'dobj=president'
p32
I55
sS'w+1=Clinton'
p33
I94
sS'w-2=Secretary'
p34
I194
sS'w-2=Affairs'
p35
I183
sS'dobj=ncpg'
p36
I53
sS'w-1=Morford'
p37
I161
sS'w-1=he'
p38
I173
sS'nsubj=Mehsud'
p39
I72
sS'conj=speak'
p40
I23
sS'w-1=to'
p41
I177
sS'prep=by'
p42
I84
sS'w+2=and'
p43
I127
sS'tmod=#DATE#'
p44
I90
sS'w-2=and'
p45
I199
sS'w-2=Hank'
p46
I188
sS'dobj=#PRP#'
p47
I29
sS'w+1=anyone'
p48
I105
sS'w-1=England'
p49
I158
sS'w-2=international'
p50
I205
sS'w-2=.'
p51
I182
sS'w+2=Bosnians'
p52
I119
sS'w+1=you'
p53
I115
sS'w+1=McCain'
p54
I99
sS'nsubj=farmer'
p55
I81
sS'w-2=he'
p56
I204
sS'dobj=winner'
p57
I59
sS'dobj=Obama'
p58
I38
sS'nsubj=Shoon'
p59
I76
sS'w-1=Burns'
p60
I155
sS'w-2=minister'
p61
I206
sS'aux=will'
p62
I10
sS'w+2=voter'
p63
I148
sS'advmod=so'
p64
I5
sS'w+2=new'
p65
I137
sS'advmod=just'
p66
I4
sS'w-1=Compaore'
p67
I157
sS'nsubj=U.S.'
p68
I79
sS'nsubj=States'
p69
I77
sS'w-1=will'
p70
I179
sS'w-2=I'
p71
I189
sS'w-2=,'
p72
I181
sS'cc=but'
p73
I13
sS'w+2=leader'
p74
I134
sS'w+2=Tadic'
p75
I126
sS'dobj=Kosovo'
p76
I35
sS'w+1=he'
p77
I110
sS'w+2=military'
p78
I135
sS'nsubj=community'
p79
I80
sS'dobj=Kibaki'
p80
I34
sS'aux=have'
p81
I7
sS'w-2=Yee'
p82
I198
sS'advcl=suspend'
p83
I2
sS'w+2=work'
p84
I151
sS'conj=remind'
p85
I20
sS'w-1=they'
p86
I176
sS'w+2=people'
p87
I141
sS'dobj=force'
p88
I48
sS'w-1=,'
p89
I152
sS'partmod=say'
p90
I83
sS'dobj=Tadic'
p91
I42
sS'w-1=can'
p92
I169
sS'w+1=every'
p93
I108
sS'w+1=she'
p94
I112
sS'w-1=Shoon'
p95
I165
sS'w-2=so'
p96
I209
sS'dobj=military'
p97
I51
sS'w-1=Bush'
p98
I156
sS'w-2=result'
p99
I207
sS'nsubj=Hughes'
p100
I70
sS'w+2=KamauCorporal'
p101
I121
sS'dobj=side'
p102
I56
sS'w-1=I'
p103
I159
sS'aux=should'
p104
I8
sS'nsubj=Romney'
p105
I75
sS'w-1=Rice'
p106
I163
sS'nsubj=Obama'
p107
I73
sS'nsubj=Svilanovic'
p108
I78
sS'nsubj=Lowenkron'
p109
I71
sS'dobj=majority'
p110
I50
sS'prep=for'
p111
I86
sS'w-2=Brown'
p112
I185
sS'w+2=bring'
p113
I128
sS'w-1=have'
p114
I172
sS'ccomp=win'
p115
I17
sS'w-1=community'
p116
I170
sS'advcl=frontrunner'
p117
I0
sS'conj=run'
p118
I22
sS'nsubj=Bush'
p119
I67
sS'mark=as'
p120
I61
sS'dobj=leader'
p121
I49
sS'w+2=Brown'
p122
I120
sS'w+2=ncpg'
p123
I136
sS'w+2=Obama'
p124
I123
sS'w-2=Mr.'
p125
I191
sS'dobj=Minister'
p126
I37
sS'w-1=once'
p127
I175
sS'dobj=bond'
p128
I45
sS'dobj=folk'
p129
I47
sS'w+2=who'
p130
I149
sS'dobj=anyone'
p131
I44
sS'w+1=Senegal'
p132
I103
sS'advmod=initially'
p133
I3
sS'dobj=Saleh'
p134
I39
sS'ccomp=have'
p135
I16
sS'conj=try'
p136
I24
sS'auxpass=be'
p137
I11
sS'aux=can'
p138
I6
sS'complm=that'
p139
I18
sS'w-1=farmer'
p140
I171
sS'w+1=Barack'
p141
I93
sS'w+1=President'
p142
I102
sS'csubj=let'
p143
I26
sS'w-2=States'
p144
I196
sS'w-2=call'
p145
I201
sS'cc=and'
p146
I12
sS'w+2=good'
p147
I133
sS'w+2=by'
p148
I129
sS'conj=rescind'
p149
I21
sS'w+1=the'
p150
I113
sS'w-1=Sunday'
p151
I166
sS'w-2=Boehner'
p152
I184
sS'w+2=citizen'
p153
I130
sS'dobj=Clinton'
p154
I32
sS'dobj=McCain'
p155
I36
sS'w+1=they'
p156
I114
sS'ccomp=abandon'
p157
I15
sS"w+2='s"
p158
I116
sS'w+2=president'
p159
I143
sS'dobj=Senate'
p160
I40
sS'nsubjpass=#PRP#'
p161
I82
sS'prep=in'
p162
I87
sS'w-1=initially'
p163
I174
sS'w+1=for'
p164
I109
sS'tmod=year'
p165
I91
sS'w-2=Nicholas'
p166
I192
sS'dobj=minister'
p167
I52
sS'nsubj=#PRP#'
p168
I63
sS'w+1=kenyan'
p169
I111
sS'dep=today'
p170
I28
sS'nsubj=Blair'
p171
I65
sS'nsubj=Aaron'
p172
I64
sS'w-2=for'
p173
I203
sS'w+2=Saleh'
p174
I124
sS'w+1=bond'
p175
I106
sS'prep=to'
p176
I89
sS'w-1=we'
p177
I178
sS'aux=to'
p178
I9
sS'w-2=Department'
p179
I187
sS'w-2=should'
p180
I208
sS'csubj=act'
p181
I25
sS'advcl=important'
p182
I1
sS'dobj=Brown'
p183
I31
sS'conj=pledge'
p184
I19
sS'dobj=voter'
p185
I58
sS'w+1=corporal'
p186
I107
sS'dobj=work'
p187
I60
sS'w+2=philippine'
p188
I142
sS"w-2=''"
p189
I180
sS'w-2=President'
p190
I193
sS'w+1=Gordon'
p191
I96
sS'w+2=of'
p192
I139
sS'w-2=that'
p193
I210
sS'w-1=Blair'
p194
I154
sS'w+2=.'
p195
I118
sS'nsubj=Boehner'
p196
I66
sS'w+2=,'
p197
I117
sS'w+2=on'
p198
I140
sS'w+2=for'
p199
I132
sS'w-2=around'
p200
I200
sS'w+1=Australia'
p201
I92
sS'dep=in'
p202
I27
sS'w-2=fellow'
p203
I202
sS'prep=during'
p204
I85
sS'w-2=Senator'
p205
I195
sS'w-1=and'
p206
I167
sS'nsubj=#DATE#'
p207
I62
sS'w+1=Mr.'
p208
I100
sS'w+1=Kosovo'
p209
I98
sS'w-1=Aaron'
p210
I153
sS'dobj=all'
p211
I43
sS'w+2=serbian'
p212
I145
sS'w-2=Craig'
p213
I186
sS'dobj=Senegal'
p214
I41
sS'prep=on'
p215
I88
sS'ccomp=U.S.'
p216
I14
sS'w+1=Democrats'
p217
I95
sS'w-2=Sunday'
p218
I197
sS'w+2=Senate'
p219
I125
ssS'dtype'
p220
cnumpy
float64
p221
sS'feature_names_'
p222
(lp223
g117
ag182
ag83
ag133
ag66
ag64
ag138
ag81
ag104
ag178
ag62
ag137
ag146
ag73
ag216
ag157
ag135
ag115
ag139
ag184
ag85
ag149
ag118
ag40
ag136
ag181
ag143
ag202
ag170
ag47
ag24
ag183
ag154
ag10
ag80
ag76
ag155
ag126
ag58
ag134
ag160
ag214
ag91
ag211
ag131
ag128
ag19
ag129
ag88
ag121
ag110
ag97
ag167
ag36
ag27
ag32
ag102
ag13
ag185
ag57
ag187
ag120
ag207
ag168
ag172
ag171
ag196
ag119
ag29
ag22
ag100
ag109
ag39
ag107
ag21
ag105
ag59
ag69
ag108
ag68
ag79
ag55
ag161
ag90
ag42
ag204
ag111
ag162
ag215
ag176
ag44
ag165
ag201
ag141
ag33
ag217
ag191
ag30
ag209
ag54
ag208
ag8
ag142
ag132
ag20
ag48
ag175
ag186
ag93
ag164
ag77
ag169
ag94
ag150
ag156
ag53
ag158
ag197
ag195
ag52
ag122
ag101
ag28
ag124
ag174
ag219
ag75
ag43
ag113
ag148
ag153
ag14
ag199
ag147
ag74
ag78
ag123
ag65
ag9
ag192
ag198
ag87
ag188
ag159
ag18
ag212
ag31
ag12
ag63
ag130
ag17
ag84
ag89
ag210
ag194
ag60
ag98
ag67
ag49
ag103
ag11
ag37
ag15
ag106
ag26
ag95
ag151
ag206
ag25
ag92
ag116
ag140
ag114
ag38
ag163
ag127
ag86
ag41
ag177
ag70
ag189
ag72
ag51
ag35
ag152
ag112
ag213
ag179
ag46
ag71
ag23
ag125
ag166
ag190
ag34
ag205
ag144
ag218
ag82
ag45
ag200
ag145
ag203
ag173
ag56
ag50
ag61
ag99
ag180
ag96
ag193
ag16
asS'separator'
p224
S'='
sS'sparse'
p225
I01
sb.