ccopy_reg
_reconstructor
p1
(csklearn.feature_extraction.dict_vectorizer
DictVectorizer
p2
c__builtin__
object
p3
NtRp4
(dp5
S'vocabulary_'
p6
(dp7
S'w-1=correctly'
p8
I158
sS'nsubj=which'
p9
I58
sS'w-1=oath'
p10
I164
sS'dobj=border'
p11
I33
sS'w-1=federally'
p12
I159
sS'advcl=drive'
p13
I1
sS'prep=onto'
p14
I77
sS'w-2=Pervez'
p15
I181
sS'w-2=John'
p16
I179
sS'w+2=polio'
p17
I133
sS'dobj=antibiotic'
p18
I31
sS'w+2=vaccination'
p19
I147
sS'advmod=often'
p20
I9
sS'dobj=variety'
p21
I47
sS'w-1=president'
p22
I167
sS'dobj=Kashmir'
p23
I27
sS'w+2=variety'
p24
I148
sS'w+2=site'
p25
I139
sS'w+2=but'
p26
I120
sS'advmod=worldwide'
p27
I13
sS'dobj=vaccine'
p28
I46
sS'w-2=Hamas'
p29
I177
sS'w+1=Kashmir'
p30
I87
sS'w+1=tribal'
p31
I103
sS'w+1=East'
p32
I86
sS'w-2=Initiative'
p33
I178
sS'w-1=often'
p34
I166
sS'w-2=-lrb-'
p35
I174
sS'w-2=of'
p36
I196
sS'advcl=intervene'
p37
I5
sS'conj=dispute'
p38
I26
sS'w+2=Abdul'
p39
I110
sS'w-1=Nations'
p40
I152
sS'w-2=they'
p41
I206
sS'w-1=to'
p42
I171
sS'prep=by'
p43
I73
sS'w+2=and'
p44
I116
sS'w+1=under'
p45
I105
sS'w-1=province'
p46
I168
sS'w+2=Agencies'
p47
I111
sS'nsubjpass=drug'
p48
I64
sS'nsubjpass=province'
p49
I66
sS'w-2=managing'
p50
I193
sS'w-2=not'
p51
I195
sS'w-2=shrine'
p52
I202
sS'nsubj=Nations'
p53
I52
sS'ccomp=take'
p54
I23
sS'w-2=one'
p55
I197
sS'dobj=drug'
p56
I36
sS'w-2=must'
p57
I194
sS'w-2=worker'
p58
I212
sS'w+2=child'
p59
I122
sS'prep=to'
p60
I79
sS'w+1=effectively'
p61
I94
sS'prep=since'
p62
I78
sS'nsubj=Musharraf'
p63
I51
sS'aux=will'
p64
I19
sS'w+1=with'
p65
I106
sS'ccomp=violate'
p66
I24
sS'advmod=really'
p67
I10
sS'nsubjpass=#NUMBER#'
p68
I60
sS'dobj=territory'
p69
I44
sS'advcl=allow'
p70
I0
sS'prep=at'
p71
I72
sS'nsubjpass=dose'
p72
I63
sS'dobj=Timor'
p73
I30
sS'w-2=,'
p74
I173
sS'w+1=Tribal'
p75
I90
sS'prep=with'
p76
I81
sS'dobj=Kosovo'
p77
I28
sS'nsubj=authority'
p78
I55
sS'aux=have'
p79
I15
sS'w-1=be'
p80
I157
sS'w+1=emergency'
p81
I95
sS'advmod=correctly'
p82
I6
sS'w-1=,'
p83
I149
sS'w+2=province'
p84
I135
sS'w-2=to'
p85
I207
sS'w-2=the'
p86
I204
sS'w+2=ceremonial'
p87
I121
sS'w-1=inindian'
p88
I163
sS'w-2=in'
p89
I191
sS'w-2=injection'
p90
I192
sS'w-2=Fatah'
p91
I175
sS'w-2=damage'
p92
I188
sS'w-2=these'
p93
I205
sS'w+1=two'
p94
I104
sS'aux=should'
p95
I17
sS'advmod=when'
p96
I12
sS'w+2=to'
p97
I145
sS'w+1=on'
p98
I97
sS'w-1=of'
p99
I165
sS'dobj=site'
p100
I42
sS'dobj=Puntland'
p101
I29
sS'advmod=federally'
p102
I8
sS'w-1=Indian'
p103
I150
sS'nsubjpass=vaccination'
p104
I68
sS'advcl=independent'
p105
I4
sS'w-1=have'
p106
I160
sS'nsubjpass=which'
p107
I70
sS'w+2=program'
p108
I134
sS'w-1=after'
p109
I155
sS'dobj=drop'
p110
I35
sS'w+1=without'
p111
I107
sS'w-1=Roberts'
p112
I153
sS'w+2=death'
p113
I123
sS'w+2=in'
p114
I127
sS'mark=as'
p115
I48
sS'w-2=Nations'
p116
I180
sS'w+2=iv'
p117
I128
sS'w-2=program'
p118
I198
sS'w+2=Muslims'
p119
I112
sS'w+2=stronger'
p120
I140
sS'w+2=.'
p121
I109
sS'w-2=Serbian'
p122
I182
sS'w+2=territory'
p123
I142
sS'auxpass=be'
p124
I20
sS'w-1=which'
p125
I172
sS'complm=that'
p126
I25
sS'dobj=dose'
p127
I34
sS'nsubj=Roberts'
p128
I53
sS'w-1=really'
p129
I169
sS'w+2=they'
p130
I144
sS'dobj=area'
p131
I32
sS'prep=after'
p132
I71
sS'w+2=after'
p133
I115
sS'w-2=United'
p134
I184
sS'advmod=effectively'
p135
I7
sS'w+1=a'
p136
I91
sS'w+1=polio'
p137
I98
sS'prep=under'
p138
I80
sS'w-2=that'
p139
I203
sS'dobj=province'
p140
I40
sS'w+1=the'
p141
I100
sS'w+2=take'
p142
I141
sS'dobj=oath'
p143
I38
sS'w+2=say'
p144
I137
sS'nsubjpass=Kosovo'
p145
I62
sS'w+2=be'
p146
I118
sS'cc=but'
p147
I21
sS'w-2=role'
p148
I200
sS'nsubjpass=#PRP#'
p149
I61
sS'prep=in'
p150
I75
sS'w-2=right'
p151
I199
sS'w+1=in'
p152
I96
sS'w-2=have'
p153
I190
sS'dobj=relief'
p154
I41
sS'dobj=that'
p155
I45
sS'prep=from'
p156
I74
sS'w+2=Timor'
p157
I113
sS'w+1=antibiotic'
p158
I92
sS'nsubjpass=vaccine'
p159
I69
sS'w+2=relief'
p160
I136
sS'ccomp=drop'
p161
I22
sS'w-1=USDA'
p162
I154
sS'dobj=program'
p163
I39
sS'aux=to'
p164
I18
sS'w+2=last'
p165
I130
sS'w-2=should'
p166
I201
sS'w-1=indian'
p167
I162
sS'w+2=the'
p168
I143
sS'advcl=expect'
p169
I3
sS'nsubjpass=sentence'
p170
I67
sS'w-2=authority'
p171
I185
sS'w-2=will'
p172
I211
sS'nsubj=president'
p173
I56
sS'tmod=week'
p174
I83
sS'w+1=,'
p175
I84
sS'w+1=.'
p176
I85
sS'w-2=way'
p177
I209
sS'w+1=southern'
p178
I99
sS'w+2=,'
p179
I108
sS'w+2=border'
p180
I119
sS'w+2=on'
p181
I132
sS'w+1=to'
p182
I101
sS'nsubjpass=program'
p183
I65
sS'w+1=Puntland'
p184
I89
sS'neg=not'
p185
I50
sS'dobj=swearing-in'
p186
I43
sS'aux=must'
p187
I16
sS'w-1=and'
p188
I156
sS'w-2=government'
p189
I189
sS'w+2=drop'
p190
I124
sS'w-2=consist'
p191
I187
sS'w+2=untrained'
p192
I146
sS'w+1=by'
p193
I93
sS'nsubj=that'
p194
I57
sS'w-1=Musharraf'
p195
I151
sS'w-2=Fed'
p196
I176
sS'w+1=Kosovo'
p197
I88
sS'w-1=in'
p198
I161
sS'w+2=just'
p199
I129
sS'w-2=which'
p200
I210
sS'w-2=vaccination'
p201
I208
sS'w+2=area'
p202
I117
sS'nsubj=worker'
p203
I59
sS'nsubj=USDA'
p204
I54
sS'w-2=be'
p205
I186
sS'advmod=together'
p206
I11
sS'w+2=since'
p207
I138
sS'w+2=drug'
p208
I125
sS'prep=without'
p209
I82
sS'advcl=end'
p210
I2
sS'prep=on'
p211
I76
sS'w-1=that'
p212
I170
sS'aux=be'
p213
I14
sS'dobj=grant'
p214
I37
sS'w+1=together'
p215
I102
sS'mark=if'
p216
I49
sS'w+2=grant'
p217
I126
sS'w+2=a'
p218
I114
sS'w-2=Trust'
p219
I183
sS'w+2=oath'
p220
I131
ssS'dtype'
p221
cnumpy
float64
p222
sS'feature_names_'
p223
(lp224
g70
ag13
ag210
ag169
ag105
ag37
ag82
ag135
ag102
ag20
ag67
ag206
ag96
ag27
ag213
ag79
ag187
ag95
ag164
ag64
ag124
ag147
ag161
ag54
ag66
ag126
ag38
ag23
ag77
ag101
ag73
ag18
ag131
ag11
ag127
ag110
ag56
ag214
ag143
ag163
ag140
ag154
ag100
ag186
ag69
ag155
ag28
ag21
ag115
ag216
ag185
ag63
ag53
ag128
ag204
ag78
ag173
ag194
ag9
ag203
ag68
ag149
ag145
ag72
ag48
ag183
ag49
ag170
ag104
ag159
ag107
ag132
ag71
ag43
ag156
ag150
ag211
ag14
ag62
ag60
ag138
ag76
ag209
ag174
ag175
ag176
ag32
ag30
ag197
ag184
ag75
ag136
ag158
ag193
ag61
ag81
ag152
ag98
ag137
ag178
ag141
ag182
ag215
ag31
ag94
ag45
ag65
ag111
ag179
ag121
ag39
ag47
ag119
ag157
ag218
ag133
ag44
ag202
ag146
ag180
ag26
ag87
ag59
ag113
ag190
ag208
ag217
ag114
ag117
ag199
ag165
ag220
ag181
ag17
ag108
ag84
ag160
ag144
ag207
ag25
ag120
ag142
ag123
ag168
ag130
ag97
ag192
ag19
ag24
ag83
ag103
ag195
ag40
ag112
ag162
ag109
ag188
ag80
ag8
ag12
ag106
ag198
ag167
ag88
ag10
ag99
ag34
ag22
ag46
ag129
ag212
ag42
ag125
ag74
ag35
ag91
ag196
ag29
ag33
ag16
ag116
ag15
ag122
ag219
ag134
ag171
ag205
ag191
ag92
ag189
ag153
ag89
ag90
ag50
ag57
ag51
ag36
ag55
ag118
ag151
ag148
ag166
ag52
ag139
ag86
ag93
ag41
ag85
ag201
ag177
ag200
ag172
ag58
asS'separator'
p225
S'='
sS'sparse'
p226
I01
sb.