ccopy_reg
_reconstructor
p1
(csklearn.feature_extraction.dict_vectorizer
DictVectorizer
p2
c__builtin__
object
p3
NtRp4
(dp5
S'sort'
p6
I01
sS'feature_names_'
p7
(lp8
S'advcl=make'
p9
aS'advcl=sense'
p10
aS'advcl=use'
p11
aS'advmod=already'
p12
aS'advmod=also'
p13
aS'advmod=how'
p14
aS'advmod=off'
p15
aS'advmod=often'
p16
aS'advmod=well'
p17
aS'aux=be'
p18
aS'aux=have'
p19
aS'aux=should'
p20
aS'aux=to'
p21
aS'aux=will'
p22
aS'aux=would'
p23
aS'auxpass=be'
p24
aS'ccomp=envision'
p25
aS'complm=that'
p26
aS'dep=support'
p27
aS'dep=test'
p28
aS'dobj=States'
p29
aS'dobj=agreement'
p30
aS'dobj=bioscience'
p31
aS'dobj=center'
p32
aS'dobj=community'
p33
aS'dobj=control'
p34
aS'dobj=country'
p35
aS'dobj=dance'
p36
aS'dobj=dignitary'
p37
aS'dobj=element'
p38
aS'dobj=facility'
p39
aS'dobj=fighter'
p40
aS'dobj=force'
p41
aS'dobj=many'
p42
aS'dobj=music'
p43
aS'dobj=party'
p44
aS'dobj=plan'
p45
aS'dobj=practice'
p46
aS'dobj=principle'
p47
aS'dobj=result'
p48
aS'dobj=story'
p49
aS'dobj=structure'
p50
aS'dobj=style'
p51
aS'dobj=technology'
p52
aS'dobj=those'
p53
aS'dobj=treaty'
p54
aS'dobj=voice'
p55
aS'dobj=which'
p56
aS'nsubj=#NUMBER#'
p57
aS'nsubj=#PRP#'
p58
aS'nsubj=Chad'
p59
aS'nsubj=Jennifer'
p60
aS'nsubj=Johnson'
p61
aS'nsubj=Ritenour'
p62
aS'nsubj=Singapore'
p63
aS'nsubj=facility'
p64
aS'nsubj=government'
p65
aS'nsubj=leader'
p66
aS'nsubj=regime'
p67
aS'nsubj=show'
p68
aS'nsubj=structure'
p69
aS'nsubj=study'
p70
aS'nsubj=system'
p71
aS'nsubj=which'
p72
aS'nsubj=while-you-wait'
p73
aS'nsubjpass=chip'
p74
aS'nsubjpass=piece'
p75
aS'nsubjpass=principle'
p76
aS'nsubjpass=some'
p77
aS'parataxis=part'
p78
aS'parataxis=say'
p79
aS'partmod=know'
p80
aS'prep=after'
p81
aS'prep=among'
p82
aS'prep=from'
p83
aS'prep=in'
p84
aS'prep=into'
p85
aS'prep=like'
p86
aS'prep=on'
p87
aS'prep=under'
p88
aS'prep=with'
p89
aS'prep=within'
p90
aS'prep=without'
p91
aS'tmod=today'
p92
aS'w+1=.'
p93
aS'w+1=:'
p94
aS'w+1=NAFTA'
p95
aS'w+1=a'
p96
aS'w+1=african'
p97
aS'w+1=and'
p98
aS'w+1=develop'
p99
aS'w+1=dignitary'
p100
aS'w+1=dim'
p101
aS'w+1=diverse'
p102
aS'w+1=ecologically'
p103
aS'w+1=element'
p104
aS'w+1=every'
p105
aS'w+1=foreign'
p106
aS'w+1=he'
p107
aS'w+1=in'
p108
aS'w+1=into'
p109
aS'w+1=islamic'
p110
aS'w+1=it'
p111
aS'w+1=many'
p112
aS'w+1=modern'
p113
aS'w+1=remain'
p114
aS'w+1=rock'
p115
aS'w+1=the'
p116
aS'w+1=those'
p117
aS'w+1=today'
p118
aS'w+1=traditional'
p119
aS'w+1=traffic'
p120
aS'w+1=with'
p121
aS'w+1=within'
p122
aS"w+2=''"
p123
aS'w+2=,'
p124
aS'w+2=10-year-old'
p125
aS'w+2=United'
p126
aS'w+2=a'
p127
aS'w+2=and'
p128
aS'w+2=bioscience'
p129
aS'w+2=clearly'
p130
aS'w+2=community'
p131
aS'w+2=control'
p132
aS'w+2=country'
p133
aS'w+2=dna'
p134
aS'w+2=evacuation'
p135
aS'w+2=force'
p136
aS'w+2=friendly'
p137
aS'w+2=from'
p138
aS'w+2=gold'
p139
aS'w+2=gule'
p140
aS'w+2=how'
p141
aS'w+2=into'
p142
aS'w+2=it'
p143
aS'w+2=latest'
p144
aS'w+2=long'
p145
aS'w+2=lose'
p146
aS'w+2=make'
p147
aS'w+2=muslim'
p148
aS'w+2=of'
p149
aS'w+2=plan'
p150
aS'w+2=policy'
p151
aS'w+2=pricing'
p152
aS'w+2=product'
p153
aS'w+2=radar'
p154
aS'w+2=result'
p155
aS'w+2=senegal'
p156
aS'w+2=side'
p157
aS'w+2=single'
p158
aS'w+2=story'
p159
aS'w+2=structure'
p160
aS'w+2=the'
p161
aS'w+2=voice'
p162
aS'w-1=,'
p163
aS'w-1=Johnson'
p164
aS'w-1=Kristian'
p165
aS'w-1=Rockville'
p166
aS'w-1=already'
p167
aS'w-1=also'
p168
aS'w-1=and'
p169
aS'w-1=at'
p170
aS'w-1=be'
p171
aS'w-1=by'
p172
aS'w-1=further'
p173
aS'w-1=have'
p174
aS'w-1=he'
p175
aS'w-1=language'
p176
aS'w-1=nautilus'
p177
aS'w-1=off'
p178
aS'w-1=often'
p179
aS'w-1=on'
p180
aS'w-1=outfit'
p181
aS'w-1=say'
p182
aS'w-1=should'
p183
aS'w-1=suggest'
p184
aS'w-1=test'
p185
aS'w-1=to'
p186
aS'w-1=which'
p187
aS'w-1=will'
p188
aS'w-1=without'
p189
aS"w-2=''"
p190
aS'w-2=.'
p191
aS'w-2=Gonthi'
p192
aS'w-2=Ocean'
p193
aS'w-2=Ritenour'
p194
aS'w-2=Togo'
p195
aS'w-2=agree'
p196
aS'w-2=and'
p197
aS'w-2=arm'
p198
aS'w-2=begin'
p199
aS'w-2=chip'
p200
aS'w-2=crisis'
p201
aS'w-2=government'
p202
aS'w-2=have'
p203
aS'w-2=he'
p204
aS'w-2=hope'
p205
aS'w-2=how'
p206
aS'w-2=in'
p207
aS'w-2=integration'
p208
aS'w-2=know'
p209
aS'w-2=landscape'
p210
aS'w-2=later'
p211
aS'w-2=leader'
p212
aS'w-2=millennium'
p213
aS'w-2=respect'
p214
aS'w-2=say'
p215
aS'w-2=she'
p216
aS'w-2=show'
p217
aS'w-2=state'
p218
aS'w-2=strategy'
p219
aS'w-2=suggest'
p220
aS'w-2=system'
p221
aS'w-2=text'
p222
aS'w-2=the'
p223
aS'w-2=to'
p224
aS'w-2=try'
p225
aS'w-2=want'
p226
aS'w-2=way'
p227
aS'w-2=well'
p228
aS'w-2=will'
p229
aS'w-2=would'
p230
aS'xcomp=more'
p231
aS'xcomp=similar'
p232
asS'dtype'
p233
cnumpy
float64
p234
sS'vocabulary_'
p235
(dp236
g72
I63
sg74
I65
sg62
I53
sg208
I199
sg95
I86
sg38
I29
sg138
I129
sg53
I44
sg211
I202
sg110
I101
sg68
I59
sg115
I106
sg196
I187
sg146
I137
sg214
I205
sg192
I183
sg165
I156
sg16
I7
sg218
I209
sg36
I27
sg17
I8
sg183
I174
sg134
I125
sg59
I50
sg226
I217
sg157
I148
sg124
I115
sg167
I158
sg217
I208
sg73
I64
sg99
I90
sg221
I212
sg103
I94
sg166
I157
sg186
I177
sg140
I131
sg224
I215
sg128
I119
sg90
I81
sg197
I188
sg76
I67
sg205
I196
sg75
I66
sg176
I167
sg65
I56
sg189
I180
sg225
I216
sg182
I173
sg64
I55
sg97
I88
sg39
I30
sg204
I195
sg160
I151
sg102
I93
sg158
I149
sg51
I42
sg22
I13
sg121
I112
sg30
I21
sg12
I3
sg154
I145
sg215
I206
sg70
I61
sg142
I133
sg161
I152
sg209
I200
sg227
I218
sg188
I179
sg119
I110
sg191
I182
sg89
I80
sg169
I160
sg107
I98
sg137
I128
sg19
I10
sg67
I58
sg172
I163
sg114
I105
sg171
I162
sg198
I189
sg144
I135
sg41
I32
sg82
I73
sg163
I154
sg50
I41
sg223
I214
sg42
I33
sg27
I18
sg105
I96
sg52
I43
sg126
I117
sg207
I198
sg66
I57
sg92
I83
sg35
I26
sg168
I159
sg206
I197
sg43
I34
sg222
I213
sg132
I123
sg133
I124
sg106
I97
sg20
I11
sg151
I142
sg9
I0
sg28
I19
sg213
I204
sg10
I1
sg193
I184
sg216
I207
sg200
I191
sg31
I22
sg174
I165
sg46
I37
sg100
I91
sg123
I114
sg175
I166
sg143
I134
sg112
I103
sg79
I70
sg13
I4
sg220
I211
sg24
I15
sg187
I178
sg26
I17
sg210
I201
sg139
I130
sg78
I69
sg81
I72
sg219
I210
sg33
I24
sg63
I54
sg40
I31
sg203
I194
sg71
I62
sg153
I144
sg104
I95
sg88
I79
sg194
I185
sg116
I107
sg145
I136
sg178
I169
sg15
I6
sg131
I122
sg61
I52
sg57
I48
sg150
I141
sg55
I46
sg230
I221
sg84
I75
sg69
I60
sg14
I5
sg23
I14
sg232
I223
sg108
I99
sg212
I203
sg80
I71
sg111
I102
sg231
I222
sg58
I49
sg152
I143
sg83
I74
sg181
I172
sg60
I51
sg170
I161
sg47
I38
sg29
I20
sg109
I100
sg122
I113
sg21
I12
sg164
I155
sg117
I108
sg177
I168
sg129
I120
sg37
I28
sg25
I16
sg125
I116
sg98
I89
sg156
I147
sg229
I220
sg45
I36
sg54
I45
sg86
I77
sg190
I181
sg141
I132
sg93
I84
sg149
I140
sg44
I35
sg32
I23
sg130
I121
sg179
I170
sg94
I85
sg135
I126
sg199
I190
sg201
I192
sg147
I138
sg202
I193
sg195
I186
sg85
I76
sg118
I109
sg120
I111
sg56
I47
sg49
I40
sg48
I39
sg180
I171
sg159
I150
sg185
I176
sg34
I25
sg96
I87
sg11
I2
sg127
I118
sg173
I164
sg155
I146
sg91
I82
sg136
I127
sg87
I78
sg148
I139
sg101
I92
sg18
I9
sg184
I175
sg77
I68
sg228
I219
sg162
I153
sg113
I104
ssS'separator'
p237
S'='
sS'sparse'
p238
I01
sb.