ccopy_reg
_reconstructor
p1
(csklearn.feature_extraction.dict_vectorizer
DictVectorizer
p2
c__builtin__
object
p3
NtRp4
(dp5
S'vocabulary_'
p6
(dp7
S'advmod=then'
p8
I33
sS'dobj=right'
p9
I134
sS'prep=before'
p10
I210
sS'w+1=spinach'
p11
I314
sS'w+2=drink'
p12
I381
sS'advmod=more'
p13
I25
sS'w+2=so'
p14
I438
sS'w+2=milk'
p15
I413
sS'w-1=she'
p16
I512
sS'nsubj=locust'
p17
I174
sS'w-2=we'
p18
I647
sS'w-2=people'
p19
I610
sS'w-2=rush'
p20
I619
sS'w-2=vineyard'
p21
I643
sS'dep=less'
p22
I85
sS'w+2=during'
p23
I382
sS'nsubj=child'
p24
I166
sS'mark=like'
p25
I153
sS'advmod=well'
p26
I34
sS'conj=produce'
p27
I72
sS'w-2=just'
p28
I589
sS'conj=drink'
p29
I62
sS'w+2=animal'
p30
I352
sS'w-1=locust'
p31
I492
sS'nsubj=animal'
p32
I163
sS'w-2=little'
p33
I595
sS'dobj=meal'
p34
I124
sS'prep=than'
p35
I222
sS'w-1=like'
p36
I491
sS'w-2=stressed'
p37
I632
sS'prep=by'
p38
I211
sS'w-2=generation'
p39
I579
sS'dobj=healthier'
p40
I118
sS'nsubj=wife'
p41
I193
sS'dep=get'
p42
I83
sS'w-1=study'
p43
I515
sS'w-2=not'
p44
I604
sS'w-1=get'
p45
I483
sS'w+1=healthier'
p46
I273
sS'w-1=would'
p47
I522
sS'w-2=food'
p48
I577
sS'w-1=say'
p49
I511
sS'dobj=better'
p50
I94
sS'w+1=fish'
p51
I264
sS'acomp=impossible'
p52
I2
sS'dobj=grape'
p53
I116
sS'dobj=breakfast'
p54
I96
sS'w+2=piece'
p55
I422
sS'w-1=chocolate'
p56
I479
sS'w-2=let'
p57
I592
sS'w+1=these'
p58
I319
sS'conj=tasty'
p59
I76
sS'w+1=too'
p60
I325
sS'w-2=class'
p61
I557
sS'w+2=home'
p62
I398
sS'advmod=better'
p63
I17
sS'w-1=meal'
p64
I494
sS'conj=boil'
p65
I56
sS'nsubjpass=rice'
p66
I199
sS'w+2=begin'
p67
I359
sS'nsubj=sailor'
p68
I186
sS'w-1=by'
p69
I476
sS'w+2=never'
p70
I417
sS'w-1=be'
p71
I475
sS'conj=exercise'
p72
I64
sS'w-2=family'
p73
I572
sS'w-2=the'
p74
I635
sS'w+2=fiber'
p75
I386
sS'nsubj=class'
p76
I167
sS'w+1=tainted'
p77
I317
sS'w-2=anything'
p78
I542
sS'w+1=beautifully'
p79
I245
sS'w+2=sell'
p80
I435
sS'w-2=before'
p81
I545
sS'dobj=cookie'
p82
I101
sS'nsubj=table'
p83
I188
sS'w+1=crop'
p84
I257
sS'nsubjpass=rot'
p85
I200
sS'w-2=seventh'
p86
I623
sS'mark=because'
p87
I151
sS'aux=might'
p88
I40
sS'w-2=who'
p89
I650
sS'nsubj=bird'
p90
I164
sS'dobj=anything'
p91
I92
sS'w-2=decide'
p92
I561
sS'w+2=first'
p93
I388
sS'w+2=anything'
p94
I353
sS'w+1=or'
p95
I298
sS'w+2=so-called'
p96
I439
sS'w-1=recruit'
p97
I508
sS'neg=less'
p98
I156
sS'nsubj=pest'
p99
I180
sS'w-2=something'
p100
I629
sS'conj=burn'
p101
I57
sS'w+2=if'
p102
I400
sS'w+1=money'
p103
I289
sS'w+1=nasty'
p104
I292
sS'w+2=why'
p105
I456
sS'w+2=what'
p106
I451
sS'w-2=afford'
p107
I538
sS'w+2=God'
p108
I346
sS'w+2=who'
p109
I455
sS'ccomp=have'
p110
I52
sS'w+2=bread'
p111
I361
sS'advmod=once'
p112
I28
sS'w-1=also'
p113
I473
sS'aux=can'
p114
I38
sS'complm=that'
p115
I53
sS'mark=so'
p116
I154
sS'nsubj=yeast'
p117
I195
sS'w+1=food'
p118
I266
sS'w-2=strategy'
p119
I631
sS'w+1=lot'
p120
I283
sS'w-1=you'
p121
I524
sS'nsubj=Indians'
p122
I159
sS'w+1=five'
p123
I265
sS'w+2=poisonous'
p124
I424
sS'advcl=be'
p125
I5
sS'w+2=by'
p126
I363
sS'w+1=the'
p127
I318
sS'w+2=sugar'
p128
I440
sS'w+2=produce'
p129
I425
sS'w-2=toxic'
p130
I640
sS'advmod=only'
p131
I29
sS'dobj=bread'
p132
I95
sS'w+1=they'
p133
I320
sS'w-2=group'
p134
I582
sS'w-2=Harry'
p135
I532
sS'w+1=good'
p136
I269
sS'dep=augment'
p137
I77
sS'w-1=already'
p138
I472
sS'nsubjpass=#PRP#'
p139
I196
sS'prep=in'
p140
I216
sS'aux=would'
p141
I44
sS'w+1=for'
p142
I267
sS'w-1=about'
p143
I467
sS'dobj=alga'
p144
I91
sS'w+2=seed'
p145
I434
sS'w+1=unleavened'
p146
I328
sS'dobj=thing'
p147
I146
sS'w+1=something'
p148
I312
sS'advmod=yet'
p149
I36
sS'w+1=plenty'
p150
I301
sS'dep=prepared'
p151
I87
sS'prep=to'
p152
I224
sS'w+1=healthy'
p153
I274
sS'w-2=forward'
p154
I578
sS'w+1=properly'
p155
I303
sS'conj=consume'
p156
I58
sS'w-2=lawmaker'
p157
I591
sS'w+1=and'
p158
I241
sS'w+2=hot'
p159
I399
sS'nsubj=lawmaker'
p160
I173
sS'w-2=bird'
p161
I546
sS'w+2=water'
p162
I449
sS'w-1=mother'
p163
I497
sS'dobj=more'
p164
I127
sS'w+2=for'
p165
I392
sS'w+1=other'
p166
I299
sS'w-2=about'
p167
I537
sS'nsubj=that'
p168
I189
sS'w-1=it'
p169
I489
sS'prt=up'
p170
I228
sS'advmod=here'
p171
I22
sS'w+2=this'
p172
I448
sS'w+2=these'
p173
I446
sS'dep=clone'
p174
I79
sS'w+1=like'
p175
I280
sS'w+2=the'
p176
I445
sS'nsubj=day'
p177
I168
sS'dobj=dog'
p178
I107
sS'w-2=need'
p179
I602
sS'w-2=find'
p180
I575
sS'dobj=quantity'
p181
I132
sS'w+2=almost'
p182
I349
sS'dep=much'
p183
I86
sS'advmod=directly'
p184
I19
sS'w+2=day'
p185
I373
sS'w-1=half'
p186
I485
sS'w+1=strawberry'
p187
I315
sS'w+2=low'
p188
I410
sS'w+2=junk'
p189
I404
sS'dobj=calorie'
p190
I98
sS'w-2=cancer'
p191
I552
sS'nsubj=pirate'
p192
I181
sS'w+2=when'
p193
I452
sS'w+2=restaurant'
p194
I428
sS'dep=diet'
p195
I80
sS'prep=include'
p196
I217
sS'dobj=chocolate'
p197
I100
sS'w+2=see'
p198
I433
sS'w-2=or'
p199
I607
sS'nsubj=who'
p200
I192
sS'conj=stay'
p201
I74
sS'w+2=extremely'
p202
I384
sS'w-2=of'
p203
I606
sS'w-1=alone'
p204
I471
sS'advmod=beautifully'
p205
I16
sS'w-1=to'
p206
I518
sS'w+2=feeling'
p207
I385
sS'dobj=chicken'
p208
I99
sS'w-2=hungry'
p209
I584
sS'w+1=alga'
p210
I238
sS'w+2=more'
p211
I414
sS'dobj=#PRP#'
p212
I90
sS'parataxis=say'
p213
I204
sS'acomp=better'
p214
I1
sS'w-2=sun'
p215
I633
sS'w+1=you'
p216
I339
sS'nsubjpass=salary'
p217
I201
sS'acomp=much'
p218
I4
sS'w+1=western'
p219
I334
sS'dobj=this'
p220
I147
sS'nsubj=dieter'
p221
I169
sS'w-2=want'
p222
I645
sS'prep=over'
p223
I221
sS'w+2=whenever'
p224
I453
sS'advmod=overall'
p225
I30
sS'w+2=like'
p226
I407
sS'w+1=at'
p227
I242
sS'w+1=pork'
p228
I302
sS'w-2=like'
p229
I593
sS'conj=limit'
p230
I68
sS'w+1=he'
p231
I272
sS'w+1=nearly'
p232
I293
sS'nsubjpass=that'
p233
I202
sS'dobj=plenty'
p234
I131
sS'w+1=taint'
p235
I316
sS'w-1=can'
p236
I477
sS'w-2=challenge'
p237
I555
sS'w+2=calorie'
p238
I365
sS'w-2=able'
p239
I536
sS'w-2=dieter'
p240
I563
sS'dobj=piglet'
p241
I130
sS'w+1=two'
p242
I326
sS'advmod=when'
p243
I35
sS'w+2=dark'
p244
I372
sS'w+1=nutritionally'
p245
I294
sS'w-2=ready'
p246
I614
sS'w-2=visit'
p247
I644
sS'prep=for'
p248
I214
sS'advmod=along'
p249
I12
sS'w-1=pest'
p250
I505
sS'w+2=dead'
p251
I374
sS'w-2=breathing'
p252
I548
sS'w-1=Jews'
p253
I463
sS'w+2=talk'
p254
I442
sS'w+2=at'
p255
I356
sS'dobj=dish'
p256
I106
sS'dobj=junk'
p257
I119
sS'w+2=as'
p258
I355
sS'prep=despite'
p259
I212
sS'w+2=which'
p260
I454
sS'conj=live'
p261
I69
sS'w+2=live'
p262
I408
sS'auxpass=be'
p263
I45
sS'advcl=lucky'
p264
I8
sS'w-2=difficult'
p265
I564
sS'w-1=longer'
p266
I493
sS'conj=develop'
p267
I59
sS'nsubj=each'
p268
I170
sS'w-2=some'
p269
I628
sS'advmod=much'
p270
I26
sS'w-2=must'
p271
I601
sS'ccomp=cook'
p272
I51
sS'w+2=rice'
p273
I429
sS'partmod=pumpkin'
p274
I206
sS'w+1=american'
p275
I240
sS'w+1=fewer'
p276
I263
sS'w+1=only'
p277
I297
sS'dobj=something'
p278
I141
sS'dobj=fiber'
p279
I110
sS'w+2=cucumber'
p280
I371
sS'dobj=what'
p281
I149
sS'nsubj=Rylee'
p282
I161
sS"w-1=''"
p283
I459
sS'w-2=those'
p284
I638
sS'dobj=lot'
p285
I120
sS'dobj=dinner'
p286
I105
sS'advcl=crash'
p287
I6
sS'w-1=people'
p288
I504
sS'w+1=right'
p289
I306
sS'w+1=those'
p290
I322
sS'w+2=crazy'
p291
I369
sS'w-2=plenty'
p292
I612
sS'w+1=junk'
p293
I278
sS'conj=do'
p294
I61
sS'conj=#PRP#'
p295
I54
sS'w+2=or'
p296
I421
sS'w+2=sandwich'
p297
I431
sS'w+2=sleep'
p298
I437
sS'w+2=of'
p299
I419
sS'dobj=fruit'
p300
I115
sS'w+1=to'
p301
I324
sS'w-2=!'
p302
I525
sS'w+2=enjoy'
p303
I383
sS'w+2=food'
p304
I391
sS'w+2=he'
p305
I396
sS'acomp=local'
p306
I3
sS'w+1=so'
p307
I310
sS'conj=have'
p308
I66
sS'w+2=dish'
p309
I378
sS'w+2=along'
p310
I350
sS'w-1=agree'
p311
I470
sS'nsubjpass=increase'
p312
I198
sS'w+1=chicken'
p313
I252
sS'w+2=dinner'
p314
I376
sS'w-2=pup'
p315
I613
sS'w-2=kilogram'
p316
I590
sS'w-1=report'
p317
I509
sS'dobj=cucumber'
p318
I103
sS'w-1=Rylee'
p319
I464
sS'w+2=five'
p320
I390
sS'w+1=underneath'
p321
I327
sS'w-1=Swartz'
p322
I465
sS'w+2=frog'
p323
I393
sS'w+1=yet'
p324
I338
sS'advcl=have'
p325
I7
sS'w+2=from'
p326
I394
sS'w-2=shower'
p327
I625
sS'w+2=lace'
p328
I405
sS'w-2=would'
p329
I653
sS'w-2=instead'
p330
I588
sS'w+1=snow'
p331
I309
sS'w+1=dinner'
p332
I258
sS'w+1=local'
p333
I281
sS'w-2=shopping'
p334
I624
sS'dobj=mango'
p335
I123
sS'w-2=go'
p336
I581
sS'dobj=sugar'
p337
I144
sS'conj=play'
p338
I71
sS'w+2=not'
p339
I418
sS'dobj=spinach'
p340
I142
sS'w+2=quantity'
p341
I426
sS'w+2=piglet'
p342
I423
sS'advmod=eventually'
p343
I21
sS'nsubj=participant'
p344
I178
sS'w+2=much'
p345
I415
sS'w-2=temptation'
p346
I634
sS'tmod=day'
p347
I229
sS'auxpass=get'
p348
I46
sS'w-2=safe'
p349
I620
sS'nsubj=challenge'
p350
I165
sS'nsubj=half'
p351
I172
sS'w+1=fattening'
p352
I262
sS'w+1=considerably'
p353
I255
sS'nsubj=recruit'
p354
I185
sS'ccomp=Fried'
p355
I50
sS'advmod=even'
p356
I20
sS'w+2=lot'
p357
I409
sS'w-1=other'
p358
I503
sS'advmod=nutritionally'
p359
I27
sS'w+1=breakfast'
p360
I248
sS'dobj=enough'
p361
I108
sS'mark=while'
p362
I155
sS'w+2=diet'
p363
I375
sS'dobj=strawberry'
p364
I143
sS'w+1=lunch'
p365
I284
sS'w-2=also'
p366
I540
sS'aux=will'
p367
I43
sS'w-2=25'
p368
I528
sS'advmod=already'
p369
I13
sS'w+1=cheese'
p370
I251
sS'w+1=seed'
p371
I307
sS'w-2=patient'
p372
I609
sS'w+1=less'
p373
I279
sS'dobj=piece'
p374
I129
sS'dobj=serving'
p375
I138
sS'w-2=place'
p376
I611
sS'nsubj=people'
p377
I179
sS'prep=with'
p378
I226
sS'cc=or'
p379
I49
sS'w-2=sit'
p380
I627
sS'w-1=imagine'
p381
I488
sS'w+1=clone'
p382
I253
sS'w+1=well'
p383
I333
sS'nsubj=user'
p384
I191
sS'w+1=mango'
p385
I286
sS'dobj=diet'
p386
I104
sS'w+1=waste-infested'
p387
I332
sS'w+2=with'
p388
I457
sS'nsubj=family'
p389
I171
sS'w-2=in'
p390
I586
sS'w-2=day'
p391
I560
sS'w+2=cake'
p392
I364
sS'w+2=clothes'
p393
I366
sS'w+2=salad'
p394
I430
sS'w+2=do'
p395
I379
sS'advcl=old'
p396
I10
sS'w+2=bolster'
p397
I360
sS'w+1=various'
p398
I330
sS'w-2=rice'
p399
I618
sS'w+1=one'
p400
I296
sS'w+2=than'
p401
I443
sS'w-2=already'
p402
I539
sS'w-1=member'
p403
I495
sS'w-1=woman'
p404
I521
sS'w-1=after'
p405
I469
sS'parataxis=sit'
p406
I205
sS"w+2=''"
p407
I341
sS'advmod=also'
p408
I14
sS'w+1=habit'
p409
I271
sS'w-2=disease'
p410
I565
sS'w-1=pirate'
p411
I506
sS'conj=die'
p412
I60
sS'dobj=seed'
p413
I137
sS'w-2=they'
p414
I636
sS'dobj=cake'
p415
I97
sS'advmod=away'
p416
I15
sS'w-2=have'
p417
I583
sS'cc=and'
p418
I47
sS'nsubj=student'
p419
I187
sS'w-1=actually'
p420
I468
sS'w+1=locally'
p421
I282
sS'w+1=mexican'
p422
I288
sS'w-2=drink'
p423
I568
sS'w+1=away'
p424
I243
sS'w+1=by'
p425
I249
sS'w-1=just'
p426
I490
sS'w+1=be'
p427
I244
sS'w-2=british'
p428
I549
sS'nsubj=money'
p429
I175
sS'w-2=you'
p430
I654
sS'w+1=here'
p431
I275
sS'w-2=when'
p432
I649
sS'dobj=snow'
p433
I140
sS'dobj=crop'
p434
I102
sS'dep=try'
p435
I88
sS'w-2=Organization'
p436
I534
sS'dobj=fifth'
p437
I111
sS'w+1=in'
p438
I276
sS'w+1=-lrb-'
p439
I232
sS'w+1=it'
p440
I277
sS'dobj=maiden'
p441
I122
sS'nsubj=#PRP#'
p442
I158
sS'dobj=fat'
p443
I109
sS'dobj=meat'
p444
I125
sS'w-1=from'
p445
I482
sS'w+1=calorie-laden'
p446
I250
sS'dobj=frog'
p447
I114
sS'w+1=better'
p448
I247
sS'cc=but'
p449
I48
sS'nsubj=moose'
p450
I176
sS'w-2=inclined'
p451
I587
sS'w-2=champagne'
p452
I556
sS'w-1=who'
p453
I520
sS'dobj=#NUMBER#'
p454
I89
sS'prep=like'
p455
I218
sS'dobj=fish'
p456
I112
sS'nsubj=question'
p457
I184
sS'w+1=should'
p458
I308
sS'w-2=feel'
p459
I574
sS'w+2=way'
p460
I450
sS'w+1=mud'
p461
I291
sS'w-2=feed'
p462
I573
sS'mark=before'
p463
I152
sS'w-2=money'
p464
I598
sS'aux=must'
p465
I41
sS'conj=migrate'
p466
I70
sS'w-2=down'
p467
I566
sS'w+2=crop'
p468
I370
sS'w+2=really'
p469
I427
sS'w-1=might'
p470
I496
sS'parataxis=find'
p471
I203
sS'w-2=be'
p472
I544
sS'w-2=what'
p473
I648
sS'prep=of'
p474
I219
sS'w+2=appear'
p475
I354
sS'w-2=Flamingo'
p476
I531
sS'w+1=three'
p477
I323
sS'prep=on'
p478
I220
sS'w-2=wife'
p479
I651
sS'dep=enough'
p480
I82
sS'w+2=burn'
p481
I362
sS'w-2=critter'
p482
I558
sS'w-1=yeast'
p483
I523
sS'w-2=Angeles'
p484
I530
sS'w-2=bite'
p485
I547
sS'w+1=grape'
p486
I270
sS'w-1=grader'
p487
I484
sS'conj=enjoy'
p488
I63
sS'advmod=right'
p489
I32
sS'nsubj=Jews'
p490
I160
sS'w+2=cook'
p491
I368
sS'w-2=school'
p492
I621
sS'w-1=commonly'
p493
I480
sS'w-2=dark'
p494
I559
sS'w+1=special'
p495
I313
sS'w+1=once'
p496
I295
sS'nsubj=woman'
p497
I194
sS'w+1=without'
p498
I337
sS'w+2=less'
p499
I406
sS'w+2=fifth'
p500
I387
sS'w+2=that'
p501
I444
sS'w-2=to'
p502
I639
sS'nsubj=and'
p503
I162
sS'w+2=.'
p504
I344
sS'w+2=and'
p505
I351
sS'w+2=in'
p506
I402
sS'w-2=get'
p507
I580
sS'w-1=child'
p508
I478
sS'w-1=or'
p509
I502
sS'w+1=coarse'
p510
I254
sS'w-1=stop'
p511
I514
sS'w+1=corn'
p512
I256
sS'advmod=less'
p513
I23
sS'w-1=of'
p514
I500
sS'xcomp=guilty'
p515
I656
sS'conj=go'
p516
I65
sS'dobj=beef'
p517
I93
sS'w-2=and'
p518
I541
sS'w+1=up'
p519
I329
sS'w-1=start'
p520
I513
sS'w-2=chain'
p521
I553
sS'neg=not'
p522
I157
sS'w-2=try'
p523
I642
sS'w+1=this'
p524
I321
sS'w-2=chair'
p525
I554
sS'w-2=enough'
p526
I570
sS'advmod=commonly'
p527
I18
sS'xcomp=bolster'
p528
I655
sS'w-2=scientist'
p529
I622
sS'w+1=more'
p530
I290
sS'w-2=dream'
p531
I567
sS'w+1=with'
p532
I336
sS'advcl=occur'
p533
I9
sS'w-1=human'
p534
I487
sS'w-2=result'
p535
I617
sS'conj=alcohol'
p536
I55
sS'w+2=beef'
p537
I358
sS'w-2=much'
p538
I600
sS'nsubj=those'
p539
I190
sS'dobj=lunch'
p540
I121
sS'w-2=will'
p541
I652
sS'prep=as'
p542
I208
sS'dobj=skin'
p543
I139
sS'w-2=,'
p544
I526
sS'conj=include'
p545
I67
sS'w-2=.'
p546
I527
sS'w-1=and'
p547
I474
sS'dobj=taco'
p548
I145
sS'w-2=die'
p549
I562
sS'aux=have'
p550
I39
sS"w-1='"
p551
I458
sS'w-2=think'
p552
I637
sS'w-2=:'
p553
I529
sS'w-2=enjoy'
p554
I569
sS'w-1=-'
p555
I461
sS'w-1=,'
p556
I460
sS'w+1=680'
p557
I234
sS'w-2=now'
p558
I605
sS'w+2=fish'
p559
I389
sS'dobj=food'
p560
I113
sS'w+1=whale'
p561
I335
sS'w-2=I'
p562
I533
sS'w-2=as'
p563
I543
sS'w-2=train'
p564
I641
sS'nsubjpass=Flamingo'
p565
I197
sS'w-2=hunting'
p566
I585
sS'prep=through'
p567
I223
sS'w+2=one'
p568
I420
sS'w-2=may'
p569
I597
sS'w-2=other'
p570
I608
sS'w+2=directly'
p571
I377
sS'w+2=dog'
p572
I380
sS'w-1=I'
p573
I462
sS'w+1=during'
p574
I259
sS'dobj=habit'
p575
I117
sS'w+1=maiden'
p576
I285
sS'w+2=impossible'
p577
I401
sS'prep=underneath'
p578
I225
sS'w-2=a'
p579
I535
sS'w-2=moose'
p580
I599
sS'w-1=they'
p581
I517
sS'w-2=lot'
p582
I596
sS'w-1=`'
p583
I466
sS'w+2=serving'
p584
I436
sS'w+1=vendor'
p585
I331
sS'dobj=salad'
p586
I135
sS'w+2=contaminate'
p587
I367
sS'w+2=fruit'
p588
I395
sS'mark=as'
p589
I150
sS'w+1=meat'
p590
I287
sS'w+1=each'
p591
I260
sS'w+1=rather'
p592
I304
sS'dobj=sandwich'
p593
I136
sS'dobj=money'
p594
I126
sS'w+1=from'
p595
I268
sS'w-2=remains'
p596
I616
sS'dep=encourage'
p597
I81
sS'w+2=they'
p598
I447
sS'dep=avoid'
p599
I78
sS'nsubj=other'
p600
I177
sS'prep=after'
p601
I207
sS'w-2=fish'
p602
I576
sS'w+1=enough'
p603
I261
sS'acomp=alive'
p604
I0
sS'w-2=spread'
p605
I630
sS'dep=go'
p606
I84
sS'w+1=peanut'
p607
I300
sS'w-1=protester'
p608
I507
sS'advcl=writhe'
p609
I11
sS'w+2=need'
p610
I416
sS'w+2=healthy'
p611
I397
sS'w-1=sailor'
p612
I510
sS'w-2=likely'
p613
I594
sS'w+1=rice'
p614
I305
sS'advmod=locally'
p615
I24
sS'w+2=taco'
p616
I441
sS'w-1=even'
p617
I481
sS'prep=from'
p618
I215
sS'prep=without'
p619
I227
sS'conj=sell'
p620
I73
sS'w-1=we'
p621
I519
sS'w+2=actual'
p622
I348
sS'aux=to'
p623
I42
sS'w+1=before'
p624
I246
sS'w+2=saturated'
p625
I432
sS'w-1=only'
p626
I501
sS'prep=at'
p627
I209
sS'w-2=can'
p628
I551
sS'w+2=?'
p629
I345
sS'w+1=-'
p630
I231
sS'w+1=,'
p631
I230
sS'w+1=alive'
p632
I239
sS'w+1=.'
p633
I233
sS'nsubj=protester'
p634
I183
sS'w+1=some'
p635
I311
sS'w+2=,'
p636
I342
sS'w+2=-'
p637
I343
sS"w+2='"
p638
I340
sS'dobj=peanut'
p639
I128
sS'w-2=sick'
p640
I626
sS'prep=during'
p641
I213
sS'dobj=way'
p642
I148
sS'w+2=meal'
p643
I411
sS'w-2=buy'
p644
I550
sS'w-2=reluctant'
p645
I615
sS'w+2=meat'
p646
I412
sS'w-1=have'
p647
I486
sS'dobj=rice'
p648
I133
sS'w+1=a'
p649
I237
sS'w-1=now'
p650
I499
sS'w-1=not'
p651
I498
sS'w-2=water'
p652
I646
sS'w+2=instead'
p653
I403
sS'w-2=exercise'
p654
I571
sS'nsubj=planet'
p655
I182
sS'w+1=U.S.'
p656
I236
sS'w-2=no'
p657
I603
sS'w-1=that'
p658
I516
sS'aux=be'
p659
I37
sS'w+1=Kosher'
p660
I235
sS'w+2=be'
p661
I357
sS'w+2=a'
p662
I347
sS'conj=talk'
p663
I75
sS'advmod=properly'
p664
I31
ssS'dtype'
p665
cnumpy
float64
p666
sS'feature_names_'
p667
(lp668
g604
ag214
ag52
ag306
ag218
ag125
ag287
ag325
ag264
ag533
ag396
ag609
ag249
ag369
ag408
ag416
ag205
ag63
ag527
ag184
ag356
ag343
ag171
ag513
ag615
ag13
ag270
ag359
ag112
ag131
ag225
ag664
ag489
ag8
ag26
ag243
ag149
ag659
ag114
ag550
ag88
ag465
ag623
ag367
ag141
ag263
ag348
ag418
ag449
ag379
ag355
ag272
ag110
ag115
ag295
ag536
ag65
ag101
ag156
ag267
ag412
ag294
ag29
ag488
ag72
ag516
ag308
ag545
ag230
ag261
ag466
ag338
ag27
ag620
ag201
ag663
ag59
ag137
ag599
ag174
ag195
ag597
ag480
ag42
ag606
ag22
ag183
ag151
ag435
ag454
ag212
ag144
ag91
ag517
ag50
ag132
ag54
ag415
ag190
ag208
ag197
ag82
ag434
ag318
ag386
ag286
ag256
ag178
ag361
ag443
ag279
ag437
ag456
ag560
ag447
ag300
ag53
ag575
ag40
ag257
ag285
ag540
ag441
ag335
ag34
ag444
ag594
ag164
ag639
ag374
ag241
ag234
ag181
ag648
ag9
ag586
ag593
ag413
ag375
ag543
ag433
ag278
ag340
ag364
ag337
ag548
ag147
ag220
ag642
ag281
ag589
ag87
ag463
ag25
ag116
ag362
ag98
ag522
ag442
ag122
ag490
ag282
ag503
ag32
ag90
ag350
ag24
ag76
ag177
ag221
ag268
ag389
ag351
ag160
ag17
ag429
ag450
ag600
ag344
ag377
ag99
ag192
ag655
ag634
ag457
ag354
ag68
ag419
ag83
ag168
ag539
ag384
ag200
ag41
ag497
ag117
ag139
ag565
ag312
ag66
ag85
ag217
ag233
ag471
ag213
ag406
ag274
ag601
ag542
ag627
ag10
ag38
ag259
ag641
ag248
ag618
ag140
ag196
ag455
ag474
ag478
ag223
ag35
ag567
ag152
ag578
ag378
ag619
ag170
ag347
ag631
ag630
ag439
ag633
ag557
ag660
ag656
ag649
ag210
ag632
ag275
ag158
ag227
ag424
ag427
ag79
ag624
ag448
ag360
ag425
ag446
ag370
ag313
ag382
ag510
ag353
ag512
ag84
ag332
ag574
ag591
ag603
ag352
ag276
ag51
ag123
ag118
ag142
ag595
ag136
ag486
ag409
ag231
ag46
ag153
ag431
ag438
ag440
ag293
ag373
ag175
ag333
ag421
ag120
ag365
ag576
ag385
ag590
ag422
ag103
ag530
ag461
ag104
ag232
ag245
ag496
ag400
ag277
ag95
ag166
ag607
ag150
ag228
ag155
ag592
ag614
ag289
ag371
ag458
ag331
ag307
ag635
ag148
ag495
ag11
ag187
ag235
ag77
ag127
ag58
ag133
ag524
ag290
ag477
ag301
ag60
ag242
ag321
ag146
ag519
ag398
ag585
ag387
ag383
ag219
ag561
ag532
ag498
ag324
ag216
ag638
ag407
ag636
ag637
ag504
ag629
ag108
ag662
ag622
ag182
ag310
ag505
ag30
ag94
ag475
ag258
ag255
ag661
ag537
ag67
ag397
ag111
ag481
ag126
ag392
ag238
ag393
ag587
ag491
ag291
ag468
ag280
ag244
ag185
ag251
ag363
ag314
ag571
ag309
ag395
ag572
ag12
ag23
ag303
ag202
ag207
ag75
ag500
ag93
ag559
ag320
ag304
ag165
ag323
ag326
ag588
ag305
ag611
ag62
ag159
ag102
ag577
ag506
ag653
ag189
ag328
ag499
ag226
ag262
ag357
ag188
ag643
ag646
ag15
ag211
ag345
ag610
ag70
ag339
ag299
ag568
ag296
ag55
ag342
ag124
ag129
ag341
ag469
ag194
ag273
ag394
ag297
ag625
ag198
ag145
ag80
ag584
ag298
ag14
ag96
ag128
ag616
ag254
ag401
ag501
ag176
ag173
ag598
ag172
ag162
ag460
ag106
ag193
ag224
ag260
ag109
ag105
ag388
ag551
ag283
ag556
ag555
ag573
ag253
ag319
ag322
ag583
ag143
ag420
ag405
ag311
ag204
ag138
ag113
ag547
ag71
ag69
ag236
ag508
ag56
ag493
ag617
ag445
ag45
ag487
ag186
ag647
ag534
ag381
ag169
ag426
ag36
ag31
ag266
ag64
ag403
ag470
ag163
ag651
ag650
ag514
ag626
ag509
ag358
ag288
ag250
ag411
ag608
ag97
ag317
ag612
ag49
ag16
ag520
ag511
ag43
ag658
ag581
ag206
ag621
ag453
ag404
ag47
ag483
ag121
ag302
ag544
ag546
ag368
ag553
ag484
ag476
ag135
ag562
ag436
ag579
ag239
ag167
ag107
ag402
ag366
ag518
ag78
ag563
ag472
ag81
ag161
ag485
ag252
ag428
ag644
ag628
ag191
ag521
ag525
ag237
ag452
ag61
ag482
ag494
ag391
ag92
ag549
ag240
ag265
ag410
ag467
ag531
ag423
ag554
ag526
ag654
ag73
ag462
ag459
ag180
ag602
ag48
ag154
ag39
ag507
ag336
ag134
ag417
ag209
ag566
ag390
ag451
ag330
ag28
ag316
ag157
ag57
ag229
ag613
ag33
ag582
ag569
ag464
ag580
ag538
ag271
ag179
ag657
ag44
ag558
ag203
ag199
ag570
ag372
ag19
ag376
ag292
ag315
ag246
ag645
ag596
ag535
ag399
ag20
ag349
ag492
ag529
ag86
ag334
ag327
ag640
ag380
ag269
ag100
ag605
ag119
ag37
ag215
ag346
ag74
ag414
ag552
ag284
ag502
ag130
ag564
ag523
ag21
ag247
ag222
ag652
ag18
ag473
ag432
ag89
ag479
ag541
ag329
ag430
ag528
ag515
asS'separator'
p669
S'='
sS'sparse'
p670
I01
sb.