ccopy_reg
_reconstructor
p1
(csklearn.feature_extraction.dict_vectorizer
DictVectorizer
p2
c__builtin__
object
p3
NtRp4
(dp5
S'vocabulary_'
p6
(dp7
S'advmod=then'
p8
I13
sS'prep=before'
p9
I133
sS'nsubjpass=many'
p10
I122
sS'w-1=motorist'
p11
I301
sS'w-2=we'
p12
I415
sS'w-2=people'
p13
I390
sS'nsubjpass=people'
p14
I123
sS'nsubj=Mugabe'
p15
I94
sS'w+2=my'
p16
I240
sS'w-1=command'
p17
I287
sS'w+1=strategy'
p18
I186
sS'w-1=country'
p19
I289
sS'mark=like'
p20
I82
sS'advmod=well'
p21
I17
sS'w-2=ceremonial'
p22
I351
sS'w+2=very'
p23
I269
sS'nn=country'
p24
I86
sS'w+1=around'
p25
I163
sS'w-2=police'
p26
I391
sS'w-1=driver'
p27
I291
sS'w-2=they'
p28
I409
sS'w-1=like'
p29
I300
sS'prep=by'
p30
I134
sS'w-2=generation'
p31
I357
sS'w-1=Pyongyang'
p32
I276
sS'nsubj=rebel'
p33
I111
sS'w-2=kind'
p34
I366
sS'w+1=that'
p35
I187
sS'w-2=Mugabe'
p36
I334
sS'w-1=would'
p37
I327
sS'w-1=find'
p38
I292
sS'w+1=top'
p39
I194
sS'advmod=really'
p40
I11
sS'dobj=center'
p41
I70
sS'w+1=in'
p42
I173
sS'w-1=will'
p43
I324
sS'conj=carrot'
p44
I45
sS'w-1=by'
p45
I283
sS'w-1=be'
p46
I280
sS'w-2=ahead'
p47
I341
sS'w-2=the'
p48
I407
sS'cc=rather'
p49
I36
sS'nsubjpass=talk'
p50
I125
sS'w+2=dynamite'
p51
I218
sS'aux=might'
p52
I24
sS'w-2=who'
p53
I417
sS'w+1=of'
p54
I179
sS'w-1=donor'
p55
I290
sS'w+2=to'
p56
I266
sS'w+1=on'
p57
I180
sS'w+2=last'
p58
I235
sS'w+2=anything'
p59
I211
sS'w+1=or'
p60
I181
sS'w+2=muddy'
p61
I239
sS'w-1=have'
p62
I297
sS'ccomp=say'
p63
I39
sS'w+2=fail'
p64
I220
sS'w+2=in'
p65
I229
sS'w-2=gondola'
p66
I358
sS'w+2=what'
p67
I272
sS'dobj=position'
p68
I79
sS'nsubjpass=gondola'
p69
I120
sS'w-2=only'
p70
I381
sS'w+2=test'
p71
I257
sS'aux=can'
p72
I22
sS'complm=that'
p73
I41
sS'w-1=really'
p74
I309
sS'conj=keep'
p75
I53
sS'w-1=you'
p76
I328
sS'w+2=will'
p77
I273
sS'w-2=farmer'
p78
I355
sS'w-1=from'
p79
I295
sS'w+2=primary'
p80
I250
sS'conj=avoid'
p81
I44
sS'w-2=sure'
p82
I403
sS'w+2=position'
p83
I248
sS'w+1=the'
p84
I188
sS'w-2=for'
p85
I356
sS'w+2=be'
p86
I213
sS'w+1=they'
p87
I190
sS'nsubjpass=#PRP#'
p88
I114
sS'w-2=number'
p89
I379
sS'prep=in'
p90
I138
sS'aux=would'
p91
I30
sS'w+1=for'
p92
I169
sS'conj=hose'
p93
I52
sS'w-1=community'
p94
I288
sS'w-2=million'
p95
I375
sS'prep=to'
p96
I148
sS'w-2=Korea'
p97
I333
sS'w-1=still'
p98
I314
sS'w+1=and'
p99
I162
sS'w-2=parliamentarian'
p100
I386
sS'w-2=patience'
p101
I389
sS'dobj=more'
p102
I74
sS'w+2=for'
p103
I221
sS'w-1=should'
p104
I312
sS'nsubj=that'
p105
I112
sS'w-1=it'
p106
I299
sS'w+1=inside'
p107
I174
sS'w+2=accept'
p108
I208
sS'w+2=carrot'
p109
I214
sS'w+2=this'
p110
I263
sS'w-2=then'
p111
I408
sS'w+2=these'
p112
I261
sS'w-1=in'
p113
I298
sS'w+2=we'
p114
I270
sS'advmod=together'
p115
I15
sS'w+2=since'
p116
I255
sS'amod=white'
p117
I19
sS'nn=command'
p118
I85
sS'w-1=the'
p119
I316
sS'conj=gun'
p120
I50
sS'w-1=use'
p121
I320
sS'prt=around'
p122
I151
sS'w+2=issue'
p123
I232
sS'mark=if'
p124
I81
sS'w-2=work'
p125
I421
sS'w-2=state'
p126
I401
sS'w-2=agree'
p127
I340
sS'dobj=heat'
p128
I73
sS'det=the'
p129
I67
sS'w+2=someone'
p130
I256
sS'prep=include'
p131
I139
sS'dobj=head'
p132
I72
sS'w+1=absolutely'
p133
I161
sS'w-2=straw'
p134
I402
sS'w-2=River'
p135
I337
sS'w+1=house'
p136
I172
sS'nsubj=who'
p137
I113
sS'w+2=left-over'
p138
I236
sS'w-2=of'
p139
I380
sS'rcmod=give'
p140
I153
sS'w-1=to'
p141
I319
sS'w+1=needle'
p142
I178
sS'w+2=balance'
p143
I212
sS'w-2=term'
p144
I405
sS'dobj=#PRP#'
p145
I69
sS'nsubj=firefighter'
p146
I102
sS'w+2=gun'
p147
I224
sS'w-2=mustach'
p148
I376
sS'w-2=rebel'
p149
I394
sS'prep=over'
p150
I145
sS'nsubj=Russia'
p151
I98
sS'w+1=at'
p152
I164
sS'conj=seek'
p153
I58
sS'w+1=he'
p154
I170
sS'conj=give'
p155
I49
sS'nsubjpass=that'
p156
I126
sS'w-2=international'
p157
I365
sS'w-1=can'
p158
I284
sS'w-2=Russia'
p159
I338
sS'advmod=here'
p160
I7
sS'w+2=reassuring'
p161
I252
sS'amod=ceremonial'
p162
I18
sS'w-1=with'
p163
I325
sS'w-2=small'
p164
I398
sS'w-1=those'
p165
I318
sS'det=those'
p166
I68
sS'nsubj=Republicans'
p167
I97
sS'w+2=rubber'
p168
I253
sS'ccomp=make'
p169
I38
sS'conj=lick'
p170
I54
sS'dep=#PRP#'
p171
I63
sS'dobj=needle'
p172
I75
sS'prep=for'
p173
I137
sS'w+2=dead'
p174
I217
sS'w+2=they'
p175
I262
sS'w-1=much'
p176
I302
sS'parataxis=have'
p177
I129
sS'w-2=Andie'
p178
I331
sS'auxpass=be'
p179
I31
sS'advcl=miss'
p180
I3
sS'w+2=Tanzania'
p181
I205
sS'advmod=still'
p182
I12
sS'advmod=much'
p183
I8
sS'w-2=ought'
p184
I384
sS'nsubj=Korea'
p185
I91
sS'w+1=there'
p186
I189
sS'w-2=spending'
p187
I400
sS'w+2=Gul'
p188
I201
sS'nsubj=#NUMBER#'
p189
I87
sS'w+2=plan'
p190
I246
sS'w-2=virtue'
p191
I414
sS'w+2=she'
p192
I254
sS'w+1=its'
p193
I176
sS'nsubjpass=Trucks'
p194
I117
sS'w+2=three-quarter'
p195
I265
sS'w+2=gene'
p196
I223
sS'nsubjpass=Uighurs'
p197
I118
sS'conj=miss'
p198
I55
sS'nsubj=India'
p199
I90
sS'w+2=intimidation'
p200
I230
sS'w-1=remain'
p201
I311
sS'w-1=people'
p202
I307
sS'xcomp=block'
p203
I423
sS'conj=do'
p204
I47
sS'nsubj=president'
p205
I109
sS'nsubjpass=man'
p206
I121
sS'w+2=of'
p207
I241
sS'w+2=on'
p208
I242
sS'w+1=to'
p209
I192
sS'w-1=and'
p210
I278
sS'w+1=shelter'
p211
I185
sS'w+2=paint-ball'
p212
I244
sS'prep=into'
p213
I141
sS'w+2=head'
p214
I227
sS'conj=have'
p215
I51
sS'w-1=firefighter'
p216
I293
sS'w+2=extreme'
p217
I219
sS'w+2=heat'
p218
I228
sS'w-1=baton'
p219
I279
sS'prep=without'
p220
I150
sS'w+2=Guantanamo'
p221
I200
sS'prep=inside'
p222
I140
sS'w-2=battery'
p223
I345
sS'advcl=have'
p224
I2
sS'w-2=mean'
p225
I372
sS'w+2=from'
p226
I222
sS'w+2=poverty'
p227
I249
sS'w+2=half'
p228
I225
sS'advcl=collapse'
p229
I0
sS'w-2=example'
p230
I353
sS'advmod=often'
p231
I10
sS'conj=weapon'
p232
I61
sS'w-1=president'
p233
I308
sS'w-2=long'
p234
I369
sS'w+1=because'
p235
I166
sS'w-2=Putin'
p236
I335
sS'advcl=target'
p237
I4
sS'w+2=South'
p238
I204
sS'w+1=over'
p239
I182
sS'conj=quit'
p240
I56
sS'w+2=those'
p241
I264
sS'w+2=its'
p242
I234
sS'auxpass=get'
p243
I32
sS'w+2=agreement'
p244
I209
sS'amod=wooden'
p245
I20
sS'dobj=plaster'
p246
I77
sS'advmod=there'
p247
I14
sS'w-2=Republicans'
p248
I336
sS'advmod=traditionally'
p249
I16
sS'mark=while'
p250
I83
sS'dep=so'
p251
I65
sS'w-2=axis'
p252
I343
sS'w+2=local'
p253
I237
sS'w-2=with'
p254
I420
sS'w-2=bank'
p255
I344
sS'aux=will'
p256
I29
sS'tmod=year'
p257
I155
sS'nsubj=people'
p258
I108
sS'prep=with'
p259
I149
sS'cc=or'
p260
I35
sS'nsubj=community'
p261
I100
sS'nsubj=driver'
p262
I101
sS'nsubjpass=worker'
p263
I128
sS'w+1=figure'
p264
I168
sS'nsubj=Pyongyang'
p265
I96
sS'w-2=reach'
p266
I393
sS'w-2=if'
p267
I362
sS'w-2=India'
p268
I332
sS'w-2=in'
p269
I363
sS'w-2=learn'
p270
I367
sS'advmod=absolutely'
p271
I5
sS'w-2=willingness'
p272
I419
sS'nsubjpass=Somalia'
p273
I116
sS'dobj=gene'
p274
I71
sS"w+2=''"
p275
I197
sS'w-2=organization'
p276
I382
sS'w-2=cell'
p277
I350
sS'conj=change'
p278
I46
sS'conj=try'
p279
I60
sS'nsubjpass=country'
p280
I119
sS'w-1=carry'
p281
I285
sS'w-1=white'
p282
I322
sS'w-1=stay'
p283
I313
sS'w-2=particle'
p284
I387
sS'w-2=someone'
p285
I399
sS'nsubjpass=who'
p286
I127
sS'w-2=have'
p287
I359
sS'w-1=wooden'
p288
I326
sS'cc=and'
p289
I33
sS'nsubj=Medvedev'
p290
I92
sS'w+1=by'
p291
I167
sS'w+1=be'
p292
I165
sS'w-2=pretty'
p293
I392
sS'w-1=but'
p294
I282
sS'w+1=here'
p295
I171
sS'w-1=Europeans'
p296
I275
sS'w-2=intention'
p297
I364
sS'w+2=weapon'
p298
I271
sS'partmod=court'
p299
I130
sS'w+1=it'
p300
I175
sS'nsubj=#PRP#'
p301
I88
sS'w+1=about'
p302
I160
sS'w-2=see'
p303
I396
sS'w-2=butt'
p304
I348
sS'w-2=truck'
p305
I412
sS'cc=but'
p306
I34
sS'w+2=traffic'
p307
I267
sS'w+2=conflict'
p308
I215
sS'w-2=party'
p309
I388
sS'prep=like'
p310
I142
sS'dep=if'
p311
I64
sS'w-1=regular'
p312
I310
sS'aux=must'
p313
I25
sS'conj=get'
p314
I48
sS'w-2=down'
p315
I352
sS'w-2=iPhone'
p316
I361
sS'nsubj=program'
p317
I110
sS'w-2=be'
p318
I346
sS'prep=of'
p319
I143
sS'w+2=try'
p320
I268
sS'prep=on'
p321
I144
sS'mark=after'
p322
I80
sS'w-2=might'
p323
I374
sS'rcmod=balance'
p324
I152
sS'w-2=failure'
p325
I354
sS'aux=stay'
p326
I27
sS'w+2=that'
p327
I258
sS'w-2=to'
p328
I410
sS'nsubj=most'
p329
I104
sS'w-1=who'
p330
I323
sS'w-1=child'
p331
I286
sS'w-2=and'
p332
I342
sS'w-1=of'
p333
I305
sS'w+2=out'
p334
I243
sS'w-2=shield'
p335
I397
sS'tmod=#DATE#'
p336
I154
sS'w+2=it'
p337
I233
sS'advmod=actually'
p338
I6
sS'conj=show'
p339
I59
sS'w-2=try'
p340
I413
sS'ccomp=take'
p341
I40
sS'w+1=this'
p342
I191
sS'w-2=he'
p343
I360
sS'prep=since'
p344
I146
sS'w+1=more'
p345
I177
sS'w+1=with'
p346
I196
sS'conj=able'
p347
I43
sS'advmod=now'
p348
I9
sS'nsubj=Movement'
p349
I93
sS'w-2=say'
p350
I395
sS'w+2=into'
p351
I231
sS'nsubj=cell'
p352
I99
sS'prep=at'
p353
I132
sS'w-2=will'
p354
I418
sS'prep=as'
p355
I131
sS'w-2=,'
p356
I329
sS'w-2=.'
p357
I330
sS'w+2=he'
p358
I226
sS'w+2=Iraq'
p359
I203
sS'aux=have'
p360
I23
sS'w-2=but'
p361
I347
sS'nsubj=ngo'
p362
I105
sS'w+2=announce'
p363
I210
sS'w-1=,'
p364
I274
sS'w-2=not'
p365
I378
sS'w+2=maintain'
p366
I238
sS'w-2=while'
p367
I416
sS'nsubj=Europeans'
p368
I89
sS'csubj=run'
p369
I62
sS'w-2=train'
p370
I411
sS'prep=through'
p371
I147
sS'nsubj=Palestinians'
p372
I95
sS'w-2=other'
p373
I383
sS'w-1=become'
p374
I281
sS'aux=should'
p375
I26
sS'ccomp=accept'
p376
I37
sS'w-2=out'
p377
I385
sS'dobj=note'
p378
I76
sS'nsubj=parliamentarian'
p379
I107
sS'w-2=a'
p380
I339
sS'w-1=they'
p381
I317
sS'w+1=plaster'
p382
I183
sS'det=a'
p383
I66
sS'w-1=a'
p384
I277
sS'w+2=police'
p385
I247
sS'w+1=together'
p386
I193
sS'w-2=make'
p387
I370
sS'conj=receive'
p388
I57
sS'w+2=there'
p389
I260
sS'w-2=member'
p390
I373
sS'w-2=nervous'
p391
I377
sS'w-2=tend'
p392
I404
sS'complm=whether'
p393
I42
sS'w+1=point'
p394
I184
sS'nsubj=other'
p395
I106
sS'w-2=maker'
p396
I371
sS'w-1=must'
p397
I303
sS'w+2=people'
p398
I245
sS'w-2=carrot'
p399
I349
sS'w-2=likely'
p400
I368
sS'w+2=court'
p401
I216
sS'w+2=U.S.'
p402
I206
sS'dobj=point'
p403
I78
sS'w+1=when'
p404
I195
sS'prep=down'
p405
I135
sS'w-1=we'
p406
I321
sS'aux=to'
p407
I28
sS'w-2=you'
p408
I422
sS'nsubjpass=Andie'
p409
I115
sS'advcl=go'
p410
I1
sS'w+2=the'
p411
I259
sS'w-1=get'
p412
I296
sS'w-1=for'
p413
I294
sS'w+1=,'
p414
I156
sS'w+1=.'
p415
I157
sS'w-2=that'
p416
I406
sS'nsubjpass=someone'
p417
I124
sS'w+2=.'
p418
I199
sS'w+2=,'
p419
I198
sS'w-1=often'
p420
I306
sS'w+1=:'
p421
I158
sS'neg=not'
p422
I84
sS'nsubj=member'
p423
I103
sS'prep=during'
p424
I136
sS'w+2=probe'
p425
I251
sS'w+2=I'
p426
I202
sS'w+1=a'
p427
I159
sS'w-1=now'
p428
I304
sS'w-1=that'
p429
I315
sS'aux=be'
p430
I21
sS'w+2=a'
p431
I207
ssS'dtype'
p432
cnumpy
float64
p433
sS'feature_names_'
p434
(lp435
g229
ag410
ag224
ag180
ag237
ag271
ag338
ag160
ag183
ag348
ag231
ag40
ag182
ag8
ag247
ag115
ag249
ag21
ag162
ag117
ag245
ag430
ag72
ag360
ag52
ag313
ag375
ag326
ag407
ag256
ag91
ag179
ag243
ag289
ag306
ag260
ag49
ag376
ag169
ag63
ag341
ag73
ag393
ag347
ag81
ag44
ag278
ag204
ag314
ag155
ag120
ag215
ag93
ag75
ag170
ag198
ag240
ag388
ag153
ag339
ag279
ag232
ag369
ag171
ag311
ag251
ag383
ag129
ag166
ag145
ag41
ag274
ag132
ag128
ag102
ag172
ag378
ag246
ag403
ag68
ag322
ag124
ag20
ag250
ag422
ag118
ag24
ag189
ag301
ag368
ag199
ag185
ag290
ag349
ag15
ag372
ag265
ag167
ag151
ag352
ag261
ag262
ag146
ag423
ag329
ag362
ag395
ag379
ag258
ag205
ag317
ag33
ag105
ag137
ag88
ag409
ag273
ag194
ag197
ag280
ag69
ag206
ag10
ag14
ag417
ag50
ag156
ag286
ag263
ag177
ag299
ag355
ag353
ag9
ag30
ag405
ag424
ag173
ag90
ag131
ag222
ag213
ag310
ag319
ag321
ag150
ag344
ag371
ag96
ag259
ag220
ag122
ag324
ag140
ag336
ag257
ag414
ag415
ag421
ag427
ag302
ag133
ag99
ag25
ag152
ag292
ag235
ag291
ag264
ag92
ag154
ag295
ag136
ag42
ag107
ag300
ag193
ag345
ag142
ag54
ag57
ag60
ag239
ag382
ag394
ag211
ag18
ag35
ag84
ag186
ag87
ag342
ag209
ag386
ag39
ag404
ag346
ag275
ag419
ag418
ag221
ag188
ag426
ag359
ag238
ag181
ag402
ag431
ag108
ag244
ag363
ag59
ag143
ag86
ag109
ag308
ag401
ag174
ag51
ag217
ag64
ag103
ag226
ag196
ag147
ag228
ag358
ag214
ag218
ag65
ag200
ag351
ag123
ag337
ag242
ag58
ag138
ag253
ag366
ag61
ag16
ag207
ag208
ag334
ag212
ag398
ag190
ag385
ag83
ag227
ag80
ag425
ag161
ag168
ag192
ag116
ag130
ag71
ag327
ag411
ag389
ag112
ag175
ag110
ag241
ag195
ag56
ag307
ag320
ag23
ag114
ag298
ag67
ag77
ag364
ag296
ag32
ag384
ag210
ag219
ag46
ag374
ag294
ag45
ag158
ag281
ag331
ag17
ag94
ag19
ag55
ag27
ag38
ag216
ag413
ag79
ag412
ag62
ag113
ag106
ag29
ag11
ag176
ag397
ag428
ag333
ag420
ag202
ag233
ag74
ag312
ag201
ag104
ag283
ag98
ag429
ag119
ag381
ag165
ag141
ag121
ag406
ag282
ag330
ag43
ag163
ag288
ag37
ag76
ag356
ag357
ag178
ag268
ag97
ag36
ag236
ag248
ag135
ag159
ag380
ag127
ag47
ag332
ag252
ag255
ag223
ag318
ag361
ag304
ag399
ag277
ag22
ag315
ag230
ag325
ag78
ag85
ag31
ag66
ag287
ag343
ag316
ag267
ag269
ag297
ag157
ag34
ag270
ag400
ag234
ag387
ag396
ag225
ag390
ag323
ag95
ag148
ag391
ag365
ag89
ag139
ag70
ag276
ag373
ag184
ag377
ag100
ag284
ag309
ag101
ag13
ag26
ag293
ag266
ag149
ag350
ag303
ag335
ag164
ag285
ag187
ag126
ag134
ag82
ag392
ag144
ag416
ag48
ag111
ag28
ag328
ag370
ag305
ag340
ag191
ag12
ag367
ag53
ag354
ag272
ag254
ag125
ag408
ag203
asS'separator'
p436
S'='
sS'sparse'
p437
I01
sb.