ccopy_reg
_reconstructor
p1
(csklearn.feature_extraction.dict_vectorizer
DictVectorizer
p2
c__builtin__
object
p3
NtRp4
(dp5
S'sort'
p6
I01
sS'feature_names_'
p7
(lp8
S'advmod=when'
p9
aS'amod=moroccan'
p10
aS'det=the'
p11
aS'dobj=#PRP#'
p12
aS'dobj=energy'
p13
aS'iobj=motion'
p14
aS'nsubj=#PRP#'
p15
aS'nsubj=wire'
p16
aS'prep=into'
p17
aS'prep=on'
p18
aS'prt=off'
p19
aS'w+1=.'
p20
aS'w+1=be'
p21
aS'w+1=it'
p22
aS'w+1=off'
p23
aS'w+1=together'
p24
aS"w+2=''"
p25
aS'w+2=into'
p26
aS'w+2=on'
p27
aS'w+2=that'
p28
aS'w+2=with'
p29
aS'w-1=,'
p30
aS'w-1=it'
p31
aS'w-1=moroccan'
p32
aS'w-1=the'
p33
aS'w-1=wire'
p34
aS'w-2=,'
p35
aS'w-2=believe'
p36
aS'w-2=mixture'
p37
aS'w-2=the'
p38
asS'dtype'
p39
cnumpy
float64
p40
sS'vocabulary_'
p41
(dp42
g19
I10
sg12
I3
sg37
I28
sg10
I1
sg23
I14
sg26
I17
sg35
I26
sg16
I7
sg36
I27
sg11
I2
sg20
I11
sg28
I19
sg25
I16
sg27
I18
sg30
I21
sg38
I29
sg31
I22
sg34
I25
sg17
I8
sg21
I12
sg13
I4
sg32
I23
sg9
I0
sg22
I13
sg33
I24
sg18
I9
sg14
I5
sg29
I20
sg15
I6
sg24
I15
ssS'separator'
p43
S'='
sS'sparse'
p44
I01
sb.