ccopy_reg
_reconstructor
p1
(csklearn.feature_extraction.dict_vectorizer
DictVectorizer
p2
c__builtin__
object
p3
NtRp4
(dp5
S'vocabulary_'
p6
(dp7
S'advmod=then'
p8
I18
sS'w-1=antiquated'
p9
I403
sS'nsubjpass=box'
p10
I144
sS'nsubj=crew'
p11
I131
sS'w+1=ammunition'
p12
I187
sS'dobj=migrant'
p13
I94
sS'det=no'
p14
I70
sS'w+1=polling'
p15
I249
sS'partmod=culminate'
p16
I155
sS'w-2=cargo'
p17
I510
sS'w-2=people'
p18
I567
sS'nsubjpass=people'
p19
I147
sS'w+2=goods'
p20
I331
sS'w+2=health'
p21
I334
sS'nsubjpass=tally'
p22
I148
sS'w+2=number'
p23
I353
sS'dobj=water'
p24
I110
sS'w-2=suspect'
p25
I587
sS'w+2=victim'
p26
I385
sS'amod=safe'
p27
I30
sS'w+1=cost'
p28
I199
sS'w-2=supplies'
p29
I585
sS'nn=water'
p30
I123
sS'w-2=shipment'
p31
I579
sS'w+2=hard'
p32
I332
sS'w-2=they'
p33
I591
sS'prep=by'
p34
I161
sS'prep=within'
p35
I173
sS'w-1=african'
p36
I397
sS'w+1=worker'
p37
I279
sS'w+1=that'
p38
I263
sS'conj=vehicle'
p39
I60
sS'w-1=heavy'
p40
I421
sS'w-1=would'
p41
I469
sS'w-2=food'
p42
I533
sS'w-2=store'
p43
I583
sS'w-1=amphibious'
p44
I401
sS'w+1=initiative'
p45
I222
sS'w+2=base'
p46
I299
sS'w-2=London'
p47
I480
sS'w+2=across'
p48
I290
sS'w-2=mine'
p49
I554
sS'w+1=these'
p50
I265
sS'w+2=often'
p51
I357
sS'w-2=South'
p52
I482
sS'advmod=annually'
p53
I5
sS'nn=waterway'
p54
I124
sS'w+2=fear'
p55
I322
sS'nsubj=Tuareg'
p56
I129
sS'w-1=usually'
p57
I462
sS'w-1=be'
p58
I407
sS'dobj=Discovery'
p59
I73
sS'nsubjpass=audience'
p60
I143
sS'ccomp=beat'
p61
I42
sS'w+2=communication'
p62
I311
sS'w-2=cost'
p63
I520
sS'w-2=family'
p64
I530
sS'advcl=see'
p65
I4
sS'w+1=illegal'
p66
I218
sS'w+1=she'
p67
I255
sS'w+2=internationally'
p68
I341
sS'w-2=before'
p69
I504
sS'nsubj=then'
p70
I137
sS'w+2=polling'
p71
I364
sS'dobj=narcotic'
p72
I97
sS'w-2=while'
p73
I599
sS'dobj=everything'
p74
I85
sS'w+1=natural'
p75
I237
sS'w-2=who'
p76
I600
sS'w-1=free'
p77
I416
sS'w+1=of'
p78
I239
sS'dobj=material'
p79
I93
sS'w-2=without'
p80
I604
sS'w+2=to'
p81
I383
sS'w+1=thing'
p82
I267
sS'w+2=accommodation'
p83
I289
sS'w-1=some'
p84
I448
sS'w-2=continue'
p85
I518
sS'w-2=currently'
p86
I521
sS'w-2=Africa'
p87
I476
sS'w+1=ballot'
p88
I191
sS'conj=track'
p89
I59
sS'w+1=money'
p90
I234
sS'w+2=in'
p91
I339
sS'w-2=week'
p92
I598
sS'w-2=mid-sized'
p93
I552
sS'w-1=former'
p94
I415
sS'aux=can'
p95
I33
sS'complm=that'
p96
I45
sS'w+1=people'
p97
I246
sS'w-1=space'
p98
I449
sS'w+1=food'
p99
I206
sS'w-1=public'
p100
I440
sS'w-2=box'
p101
I505
sS'advmod=as'
p102
I7
sS'w+2=will'
p103
I386
sS'w-2=to'
p104
I592
sS'w-1=from'
p105
I417
sS'w+1=allow'
p106
I186
sS'dobj=missile'
p107
I95
sS'w+1=the'
p108
I264
sS'w-1=safe'
p109
I444
sS'w+1=vehicle'
p110
I273
sS'w+1=most'
p111
I236
sS'w-2=for'
p112
I534
sS'w+2=be'
p113
I300
sS'w+1=they'
p114
I266
sS'w+2=combat'
p115
I309
sS'nsubjpass=#PRP#'
p116
I141
sS'w-2=out'
p117
I564
sS'prep=in'
p118
I164
sS'aux=would'
p119
I38
sS'dobj=thing'
p120
I105
sS'w+2=land'
p121
I344
sS'w-1=improve'
p122
I422
sS'w+2=of'
p123
I354
sS'w-2=U.N.'
p124
I485
sS'prep=to'
p125
I170
sS'w-2=Incline'
p126
I478
sS'w+1=properly'
p127
I250
sS'w+1=option'
p128
I243
sS'w+2=come'
p129
I310
sS'w+1=safety'
p130
I253
sS'w+1=and'
p131
I188
sS'w-1=they'
p132
I454
sS'w-2=combat'
p133
I514
sS'ccomp=seize'
p134
I44
sS'w-2=project'
p135
I572
sS'dobj=breadfruit'
p136
I80
sS'ccomp=continue'
p137
I43
sS'w+2=for'
p138
I326
sS'conj=hospital'
p139
I55
sS'w+1=any'
p140
I190
sS'w-1=livestock'
p141
I426
sS'nsubj=that'
p142
I136
sS'w+1=uranium'
p143
I272
sS'w-2=Sarkozy'
p144
I481
sS'w-2=encourage'
p145
I525
sS'conj=communication'
p146
I48
sS'w-1=driver'
p147
I411
sS'w-1=in'
p148
I423
sS'nn=troop'
p149
I122
sS'w+2=overcrowded'
p150
I360
sS'amod=antiquated'
p151
I22
sS'w-2=supporter'
p152
I586
sS'nsubj=day'
p153
I132
sS'w-1=the'
p154
I452
sS'w-1=use'
p155
I461
sS'dobj=weapon'
p156
I111
sS'w+2=finally'
p157
I323
sS'w-1=personal'
p158
I439
sS'w+2=almost'
p159
I292
sS'w-1=military'
p160
I431
sS'advmod=directly'
p161
I9
sS'w-2=cause'
p162
I511
sS'w-2=aircraft'
p163
I494
sS'w-2=least'
p164
I548
sS'w-2=network'
p165
I559
sS'dobj=ammunition'
p166
I75
sS'w+1=should'
p167
I256
sS'w-2=virus'
p168
I596
sS'w+1=russian'
p169
I252
sS'w-2=hire'
p170
I542
sS'det=the'
p171
I71
sS'w+2=at'
p172
I296
sS'w+2=body'
p173
I302
sS'dobj=people'
p174
I101
sS'w+2=through'
p175
I382
sS'w+2=kill'
p176
I343
sS'nsubjpass=virus'
p177
I150
sS'w-1=afford'
p178
I396
sS'amod=african'
p179
I21
sS'amod=larger'
p180
I23
sS'w+1=strike'
p181
I260
sS'w-1=egyptian'
p182
I412
sS'w-2=of'
p183
I562
sS'w+1=can'
p184
I196
sS'w-2=cleaning'
p185
I513
sS'w-2=on'
p186
I563
sS'w-1=to'
p187
I455
sS'nsubj=Incline'
p188
I127
sS'w-2=Chad'
p189
I477
sS'dobj=fuel'
p190
I88
sS'w+1=unit'
p191
I271
sS'w-1=two'
p192
I458
sS'dobj=#PRP#'
p193
I72
sS'w-2=possible'
p194
I570
sS'w-1=rapid'
p195
I441
sS'acomp=cost'
p196
I0
sS'nsubj=wind'
p197
I140
sS'w+2=box'
p198
I303
sS'w+1=you'
p199
I280
sS'w-1=iraqi'
p200
I424
sS'w-2=ability'
p201
I488
sS'advmod=there'
p202
I19
sS'nsubj=fee'
p203
I133
sS'w+1=mission'
p204
I232
sS'w-2=corridor'
p205
I519
sS'amod=rapid'
p206
I29
sS'w-2=take'
p207
I588
sS'prep=over'
p208
I168
sS'w-1=slash'
p209
I447
sS'conj=construction'
p210
I50
sS'w+1=he'
p211
I214
sS'w+2=Gaza'
p212
I285
sS'w+2=easily'
p213
I319
sS'w+2=so'
p214
I371
sS'conj=system'
p215
I57
sS'w+2=remote'
p216
I367
sS'w-2=cheaper'
p217
I512
sS'w-2=-rrb-'
p218
I473
sS'w-2=expect'
p219
I528
sS'w-1=water'
p220
I463
sS'w+1=everything'
p221
I205
sS'dobj=box'
p222
I79
sS'w+2=heavy'
p223
I335
sS'w+1=improvise'
p224
I219
sS'w+2=because'
p225
I301
sS'w+1=Taleban'
p226
I181
sS'nsubj=pipeline'
p227
I135
sS'advmod=most'
p228
I15
sS'w+1=two'
p229
I270
sS'advmod=easily'
p230
I10
sS'advmod=when'
p231
I20
sS'w+1=weapon'
p232
I278
sS'w-2=health'
p233
I539
sS'xcomp=due'
p234
I606
sS'w+2=child'
p235
I307
sS'prep=for'
p236
I162
sS'w-1=until'
p237
I459
sS'w+1=we'
p238
I277
sS'conj=logistics'
p239
I56
sS'w-2=even'
p240
I527
sS'w+2=oil'
p241
I358
sS'amod=personal'
p242
I27
sS'w+1=civil'
p243
I197
sS'nn=river'
p244
I120
sS'w-2=minimal'
p245
I555
sS'w-2=U.S.'
p246
I486
sS'w+2=include'
p247
I340
sS'w-1=Korea'
p248
I391
sS'w-2=storage'
p249
I582
sS'w+2=seal'
p250
I369
sS'auxpass=be'
p251
I39
sS'w-1=one'
p252
I436
sS"w-1='s"
p253
I387
sS'w-2=with'
p254
I603
sS'w+2=standardization'
p255
I372
sS'nsubjpass=african'
p256
I142
sS'nsubj=Korea'
p257
I128
sS'w-2=be'
p258
I502
sS'w+2=say'
p259
I368
sS'dobj=liter'
p260
I92
sS'w+1=plane'
p261
I248
sS'w+2=humanitarian'
p262
I337
sS'w+2=congestion'
p263
I312
sS'w+1=its'
p264
I225
sS'dobj=device'
p265
I82
sS'w-2=from'
p266
I535
sS'w+2=play'
p267
I362
sS'dobj=everyone'
p268
I84
sS'w-1=apparently'
p269
I405
sS'w+2=back'
p270
I297
sS'w-1=road'
p271
I443
sS'w-1=people'
p272
I438
sS'w-1=marine'
p273
I429
sS'w+2=public'
p274
I366
sS'w+1=system'
p275
I262
sS'w-2=african'
p276
I492
sS'dobj=body'
p277
I77
sS'dobj=personnel'
p278
I102
sS'w-1=no'
p279
I432
sS'partmod=allow'
p280
I154
sS'w-2=allow'
p281
I495
sS'w+1=across'
p282
I184
sS'conj=building'
p283
I47
sS"w-2=''"
p284
I470
sS'w+1=four'
p285
I207
sS'w-2=after'
p286
I493
sS'w+2=on'
p287
I359
sS'w+1=to'
p288
I268
sS'dep=hold'
p289
I65
sS'w+2=food'
p290
I325
sS'w-1=and'
p291
I402
sS'w-2=route'
p292
I574
sS'dobj=troops'
p293
I106
sS'prep=into'
p294
I165
sS'w+2=methane'
p295
I349
sS'dobj=bomb'
p296
I78
sS'w+2=power'
p297
I365
sS'w+2=just'
p298
I342
sS'w+2=camel'
p299
I306
sS'w-2=capable'
p300
I508
sS'advmod=finally'
p301
I12
sS'w+2=barrier'
p302
I298
sS'w+2=supplies'
p303
I373
sS'w-1=goods'
p304
I419
sS'w-2=monopolize'
p305
I556
sS'w-1=urge'
p306
I460
sS'nn=U.S.'
p307
I117
sS"w-2='s"
p308
I471
sS'dep=plus'
p309
I67
sS'w+2=from'
p310
I327
sS'w-2=capture'
p311
I509
sS'nsubjpass=individual'
p312
I145
sS'w+2=claim'
p313
I308
sS'w-1=wind'
p314
I467
sS'w-1=target'
p315
I450
sS'w-2=progressively'
p316
I571
sS'dep=to'
p317
I68
sS'w+1=hazardous'
p318
I213
sS'dep=cigarette'
p319
I64
sS'w+2=off-shore'
p320
I356
sS'w-2=enforcement'
p321
I526
sS'dobj=amount'
p322
I76
sS'w+2=people'
p323
I361
sS'w+2=supply'
p324
I374
sS'w-1=without'
p325
I468
sS'w-1=agency'
p326
I398
sS'xcomp=fuel'
p327
I607
sS'advmod=even'
p328
I11
sS'w+1=directly'
p329
I200
sS'amod=marine'
p330
I24
sS'w-2=audience'
p331
I501
sS'w+2=logistics'
p332
I346
sS'w+1=gas'
p333
I210
sS'w-1=disrupt'
p334
I410
sS'w-2=search'
p335
I577
sS'w+1=passenger'
p336
I245
sS'w-2=million'
p337
I553
sS'nsubjpass=unit'
p338
I149
sS'dobj=drug'
p339
I83
sS'mark=while'
p340
I114
sS'w-2=the'
p341
I590
sS'w+1=medical'
p342
I229
sS'aux=do'
p343
I34
sS'w+2=illegally'
p344
I338
sS'w-2=fuel'
p345
I536
sS'w+2=surface-to-air'
p346
I375
sS'w-2=India'
p347
I479
sS'w-2=uranium'
p348
I594
sS'aux=will'
p349
I37
sS'w-2=weapon'
p350
I597
sS'w+2=hospital'
p351
I336
sS'w-2=know'
p352
I547
sS'nsubj=people'
p353
I134
sS'prep=with'
p354
I172
sS'w+2=building'
p355
I304
sS'w-2=deal'
p356
I523
sS'w-2=six'
p357
I580
sS'w-1=even'
p358
I413
sS'nsubj=agency'
p359
I130
sS'w+2=gas'
p360
I329
sS'w+1=link'
p361
I227
sS'w+2=gene'
p362
I330
sS'w-2=plan'
p363
I568
sS'dobj=north'
p364
I98
sS'w+2=off'
p365
I355
sS'conj=evacuate'
p366
I53
sS'w-2=in'
p367
I543
sS'w-2=day'
p368
I522
sS'amod=public'
p369
I28
sS'w+1=sector'
p370
I254
sS'w-2=willing'
p371
I602
sS'w-2=it'
p372
I546
sS'w+1=oil'
p373
I241
sS'w-2=such'
p374
I584
sS'w+2=fuel'
p375
I328
sS'parataxis=deliver'
p376
I152
sS'prep=because'
p377
I160
sS'w+2=crash'
p378
I314
sS'w-1=Motor'
p379
I393
sS'conj=drown'
p380
I51
sS'w+2=than'
p381
I376
sS'w-2=scene'
p382
I576
sS'w-2=come'
p383
I515
sS'dobj=gene'
p384
I90
sS'dobj=uranium'
p385
I107
sS"w+2=''"
p386
I282
sS'w-1=safest'
p387
I445
sS'w+2=double'
p388
I317
sS'w-2=atmospheric'
p389
I499
sS'dobj=victim'
p390
I108
sS'advcl=arrest'
p391
I1
sS'w-2=retrovirus'
p392
I573
sS'w+1=drug'
p393
I201
sS'w+1=even'
p394
I203
sS'w+2=that'
p395
I377
sS'w-2=participate'
p396
I565
sS'rcmod=bring'
p397
I174
sS'w+1=may'
p398
I228
sS'w-2=States'
p399
I483
sS'w+1=breadfruit'
p400
I194
sS'w+2=need'
p401
I352
sS'w-2=have'
p402
I538
sS'cc=and'
p403
I40
sS'prep=under'
p404
I171
sS'w-2=use'
p405
I595
sS'dobj=oil'
p406
I99
sS'w+1=by'
p407
I195
sS'w+2=deliver'
p408
I316
sS'w+1=be'
p409
I192
sS'w+1=blockade'
p410
I193
sS'xcomp=to'
p411
I608
sS'w-2=guideline'
p412
I537
sS'w+1=humanitarian'
p413
I217
sS'w-2=easy'
p414
I524
sS'w+1=in'
p415
I220
sS'w+1=-lrb-'
p416
I176
sS'w-1=Public'
p417
I394
sS'w+1=it'
p418
I224
sS'w+1=on'
p419
I242
sS'nsubj=#PRP#'
p420
I125
sS'w+1=about'
p421
I183
sS'w-2=truck'
p422
I593
sS'w+1=stay'
p423
I258
sS'dep=carry'
p424
I63
sS'w+1=into'
p425
I223
sS'w-2=set'
p426
I578
sS'w+1=voter'
p427
I275
sS'w+2=aid'
p428
I291
sS'nn=livestock'
p429
I119
sS'nn=Public'
p430
I116
sS'w-2=communication'
p431
I516
sS'w-1=company'
p432
I409
sS'w-2=find'
p433
I532
sS'dobj=fish'
p434
I86
sS'w+1=-rrb-'
p435
I177
sS'nsubj=who'
p436
I139
sS'w+1=troops'
p437
I269
sS'w+1=still'
p438
I259
sS'advmod=back'
p439
I8
sS'w-1=make'
p440
I428
sS'w+2=service'
p441
I370
sS'w-1=air'
p442
I399
sS'dobj=passenger'
p443
I100
sS'w+1=mode'
p444
I233
sS'prep=of'
p445
I166
sS'w-1=have'
p446
I420
sS'prep=on'
p447
I167
sS'dobj=Taleban'
p448
I74
sS'mark=after'
p449
I112
sS'w+2=anywhere'
p450
I295
sS'amod=military'
p451
I26
sS'w+2=burn'
p452
I305
sS'w-2=by'
p453
I506
sS'nsubj=which'
p454
I138
sS'w-2=company'
p455
I517
sS'w+1=helicopter'
p456
I215
sS'dobj=goods'
p457
I91
sS'w-2=action'
p458
I491
sS'w+1=group'
p459
I212
sS'advmod=apparently'
p460
I6
sS'w+1=out'
p461
I244
sS'w-2=pay'
p462
I566
sS'nsubj=ICRC'
p463
I126
sS'w+1=special'
p464
I257
sS'w+1=migrant'
p465
I230
sS'w+1=water'
p466
I276
sS'advmod=manually'
p467
I14
sS'w+2=also'
p468
I293
sS'w+1=network'
p469
I238
sS'w+1=hub'
p470
I216
sS'w-1=Hercules'
p471
I390
sS'conj=emergency'
p472
I52
sS'w+1=consultant'
p473
I198
sS'amod=mid-sized'
p474
I25
sS'w-1=on'
p475
I435
sS'advcl=bring'
p476
I3
sS'nn=action'
p477
I118
sS'w-1=or'
p478
I437
sS'w+1=minister'
p479
I231
sS'w+1=large'
p480
I226
sS'w+1=annually'
p481
I189
sS'w-1=of'
p482
I434
sS'w-2=more'
p483
I557
sS'w-2=helicopter'
p484
I540
sS'conj=go'
p485
I54
sS'w+2=and'
p486
I294
sS'w-1=ship'
p487
I446
sS'w-2=and'
p488
I497
sS'w+2=manually'
p489
I347
sS'w+2=more'
p490
I350
sS'prep=across'
p491
I158
sS'w-2=pollution'
p492
I569
sS'cop=be'
p493
I61
sS'w-1=week-long'
p494
I465
sS'w+1=more'
p495
I235
sS'w-2=make'
p496
I551
sS'advmod=now'
p497
I16
sS'w-2=say'
p498
I575
sS'w+2=thing'
p499
I381
sS'w+2=the'
p500
I378
sS'nsubjpass=weapon'
p501
I151
sS'w-2=will'
p502
I601
sS'prep=as'
p503
I159
sS'w-2=,'
p504
I472
sS'w-2=.'
p505
I474
sS'w-2=logistics'
p506
I550
sS'w+1=route'
p507
I251
sS'aux=have'
p508
I35
sS'w-2=2010'
p509
I475
sS'w+2=Liberia'
p510
I286
sS'det=any'
p511
I69
sS'w-1=.'
p512
I389
sS'w-1=,'
p513
I388
sS'w-2=not'
p514
I561
sS'w+2=material'
p515
I348
sS'w+2=fish'
p516
I324
sS'dobj=food'
p517
I87
sS'w+1=goods'
p518
I211
sS'w-2=fact'
p519
I529
sS'w-2=as'
p520
I498
sS'w+1=equipment'
p521
I202
sS'w+1=industry'
p522
I221
sS'prep=through'
p523
I169
sS'w+2=large'
p524
I345
sS'w-1=which'
p525
I466
sS'w-2=fee'
p526
I531
sS'w-2=ambulance'
p527
I496
sS'w-1=then'
p528
I453
sS'w+1=supplies'
p529
I261
sS'xcomp=carry'
p530
I605
sS'w-2=a'
p531
I487
sS'w+1=fuel'
p532
I209
sS'amod=target'
p533
I31
sS'w-1=a'
p534
I395
sS'w+2=construction'
p535
I313
sS'w+2=police'
p536
I363
sS'w-1=larger'
p537
I425
sS'nsubjpass=item'
p538
I146
sS'w+2=track'
p539
I384
sS'w+1=Discovery'
p540
I180
sS'w+2=death'
p541
I315
sS'w+1=personnel'
p542
I247
sS'partmod=design'
p543
I156
sS'mark=as'
p544
I113
sS'w-2=involve'
p545
I545
sS'parataxis=provide'
p546
I153
sS'w+2=narcotic'
p547
I351
sS'w+2=there'
p548
I379
sS'dobj=supplies'
p549
I104
sS'dobj=money'
p550
I96
sS'w+2=drug'
p551
I318
sS'w+1=from'
p552
I208
sS'w-2=Tuareg'
p553
I484
sS'w-1=any'
p554
I404
sS'w+2=they'
p555
I380
sS'w-1=London'
p556
I392
sS'w+1=ability'
p557
I182
sS'w+2=explosive'
p558
I321
sS'w+2=have'
p559
I333
sS'poss=country'
p560
I157
sS'w+1=everyone'
p561
I204
sS'nn=road'
p562
I121
sS'w-1=main'
p563
I427
sS'w-1=troop'
p564
I457
sS'w-1=train'
p565
I456
sS'cc=well'
p566
I41
sS'w+1=vessel'
p567
I274
sS'w-2=attack'
p568
I500
sS'advmod=how'
p569
I13
sS'conj=accommodation'
p570
I46
sS'w-2=industry'
p571
I544
sS'w-2=nexus'
p572
I560
sS'dep=illegally'
p573
I66
sS'w-1=all'
p574
I400
sS'prep=from'
p575
I163
sS'advmod=out'
p576
I17
sS'w+2=Tuesday'
p577
I287
sS'w-1=member'
p578
I430
sS'w-2=accident'
p579
I490
sS'w-2=help'
p580
I541
sS'aux=to'
p581
I36
sS'w-2=literally'
p582
I549
sS'w+1=official'
p583
I240
sS'w+1=Congress'
p584
I179
sS'w-1=get'
p585
I418
sS'dobj=voter'
p586
I109
sS'w-2=can'
p587
I507
sS'w-2=spacecraft'
p588
I581
sS'conj=to'
p589
I58
sS'w-1=for'
p590
I414
sS'w+1=,'
p591
I175
sS'w+1=.'
p592
I178
sS'w-2=that'
p593
I589
sS'dep=after'
p594
I62
sS'w+2=.'
p595
I284
sS'w+2=,'
p596
I283
sS'w+1=aircraft'
p597
I185
sS'neg=not'
p598
I115
sS'w+2=$'
p599
I281
sS'advcl=attempt'
p600
I2
sS'w-2=access'
p601
I489
sS'dobj=child'
p602
I81
sS'w-1=river'
p603
I442
sS'w-1=now'
p604
I433
sS'w-2=necessity'
p605
I558
sS'w-1=begin'
p606
I408
sS'conj=congestion'
p607
I49
sS'dobj=sophisticated'
p608
I103
sS'w-1=as'
p609
I406
sS'w-2=because'
p610
I503
sS'w+2=education'
p611
I320
sS'w-1=that'
p612
I451
sS'aux=be'
p613
I32
sS'dobj=gas'
p614
I89
sS'w-1=waterway'
p615
I464
sS'w+2=a'
p616
I288
ssS'dtype'
p617
cnumpy
float64
p618
sS'feature_names_'
p619
(lp620
g196
ag391
ag600
ag476
ag65
ag53
ag460
ag102
ag439
ag161
ag230
ag328
ag301
ag569
ag467
ag228
ag497
ag576
ag8
ag202
ag231
ag179
ag151
ag180
ag330
ag474
ag451
ag242
ag369
ag206
ag27
ag533
ag613
ag95
ag343
ag508
ag581
ag349
ag119
ag251
ag403
ag566
ag61
ag137
ag134
ag96
ag570
ag283
ag146
ag607
ag210
ag380
ag472
ag366
ag485
ag139
ag239
ag215
ag589
ag89
ag39
ag493
ag594
ag424
ag319
ag289
ag573
ag309
ag317
ag511
ag14
ag171
ag193
ag59
ag448
ag166
ag322
ag277
ag296
ag222
ag136
ag602
ag265
ag339
ag268
ag74
ag434
ag517
ag190
ag614
ag384
ag457
ag260
ag79
ag13
ag107
ag550
ag72
ag364
ag406
ag443
ag174
ag278
ag608
ag549
ag120
ag293
ag385
ag390
ag586
ag24
ag156
ag449
ag544
ag340
ag598
ag430
ag307
ag477
ag429
ag244
ag562
ag149
ag30
ag54
ag420
ag463
ag188
ag257
ag56
ag359
ag11
ag153
ag203
ag353
ag227
ag142
ag70
ag454
ag436
ag197
ag116
ag256
ag60
ag10
ag312
ag538
ag19
ag22
ag338
ag177
ag501
ag376
ag546
ag280
ag16
ag543
ag560
ag491
ag503
ag377
ag34
ag236
ag575
ag118
ag294
ag445
ag447
ag208
ag523
ag125
ag404
ag354
ag35
ag397
ag591
ag416
ag435
ag592
ag584
ag540
ag226
ag557
ag421
ag282
ag597
ag106
ag12
ag131
ag481
ag140
ag88
ag409
ag410
ag400
ag407
ag184
ag243
ag473
ag28
ag329
ag393
ag521
ag394
ag561
ag221
ag99
ag285
ag552
ag532
ag333
ag518
ag459
ag318
ag211
ag456
ag470
ag413
ag66
ag224
ag415
ag522
ag45
ag425
ag418
ag264
ag480
ag361
ag398
ag342
ag465
ag479
ag204
ag444
ag90
ag495
ag111
ag75
ag469
ag78
ag583
ag373
ag419
ag128
ag461
ag336
ag97
ag542
ag261
ag15
ag127
ag507
ag169
ag130
ag370
ag67
ag167
ag464
ag423
ag438
ag181
ag529
ag275
ag38
ag108
ag50
ag114
ag82
ag288
ag437
ag229
ag191
ag143
ag110
ag567
ag427
ag466
ag238
ag232
ag37
ag199
ag599
ag386
ag596
ag595
ag212
ag510
ag577
ag616
ag83
ag48
ag428
ag159
ag468
ag486
ag450
ag172
ag270
ag302
ag46
ag113
ag225
ag173
ag198
ag355
ag452
ag299
ag235
ag313
ag115
ag129
ag62
ag263
ag535
ag378
ag541
ag408
ag388
ag551
ag213
ag611
ag558
ag55
ag157
ag516
ag290
ag138
ag310
ag375
ag360
ag362
ag20
ag32
ag559
ag21
ag223
ag351
ag262
ag344
ag91
ag247
ag68
ag298
ag176
ag121
ag524
ag332
ag489
ag515
ag295
ag490
ag547
ag401
ag23
ag123
ag365
ag320
ag51
ag241
ag287
ag150
ag323
ag267
ag536
ag71
ag297
ag274
ag216
ag259
ag250
ag441
ag214
ag255
ag303
ag324
ag346
ag381
ag395
ag500
ag548
ag555
ag499
ag175
ag81
ag539
ag26
ag103
ag253
ag513
ag512
ag471
ag248
ag556
ag379
ag417
ag534
ag178
ag36
ag326
ag442
ag574
ag44
ag291
ag9
ag554
ag269
ag609
ag58
ag606
ag432
ag334
ag147
ag182
ag358
ag590
ag94
ag77
ag105
ag585
ag304
ag446
ag40
ag122
ag148
ag200
ag537
ag141
ag563
ag440
ag273
ag578
ag160
ag279
ag604
ag482
ag475
ag252
ag478
ag272
ag158
ag100
ag195
ag603
ag271
ag109
ag387
ag487
ag209
ag84
ag98
ag315
ag612
ag154
ag528
ag132
ag187
ag565
ag564
ag192
ag237
ag306
ag155
ag57
ag220
ag615
ag494
ag525
ag314
ag325
ag41
ag284
ag308
ag504
ag218
ag505
ag509
ag87
ag189
ag126
ag347
ag47
ag144
ag52
ag399
ag553
ag124
ag246
ag531
ag201
ag601
ag579
ag458
ag276
ag286
ag163
ag281
ag527
ag488
ag520
ag389
ag568
ag331
ag258
ag610
ag69
ag101
ag453
ag587
ag300
ag311
ag17
ag162
ag217
ag185
ag133
ag383
ag431
ag455
ag85
ag205
ag63
ag86
ag368
ag356
ag414
ag145
ag321
ag240
ag219
ag519
ag64
ag526
ag433
ag42
ag112
ag266
ag345
ag412
ag402
ag233
ag484
ag580
ag170
ag367
ag571
ag545
ag372
ag352
ag164
ag582
ag506
ag496
ag93
ag337
ag49
ag245
ag305
ag483
ag605
ag165
ag572
ag514
ag183
ag186
ag117
ag396
ag462
ag18
ag363
ag492
ag194
ag316
ag135
ag392
ag292
ag498
ag382
ag335
ag426
ag31
ag357
ag588
ag249
ag43
ag374
ag29
ag152
ag25
ag207
ag593
ag341
ag33
ag104
ag422
ag348
ag405
ag168
ag350
ag92
ag73
ag76
ag502
ag371
ag254
ag80
ag530
ag234
ag327
ag411
asS'separator'
p621
S'='
sS'sparse'
p622
I01
sb.