ccopy_reg
_reconstructor
p1
(csklearn.feature_extraction.dict_vectorizer
DictVectorizer
p2
c__builtin__
object
p3
NtRp4
(dp5
S'sort'
p6
I01
sS'feature_names_'
p7
(lp8
S'advcl=violate'
p9
aS'advmod=actually'
p10
aS'advmod=again'
p11
aS'advmod=already'
p12
aS'advmod=also'
p13
aS'advmod=at'
p14
aS'advmod=how'
p15
aS'advmod=only'
p16
aS'advmod=out'
p17
aS'advmod=particularly'
p18
aS'advmod=personally'
p19
aS'advmod=physically'
p20
aS'advmod=possibly'
p21
aS'advmod=seriously'
p22
aS'amod=actual'
p23
aS'amod=different'
p24
aS'amod=further'
p25
aS'amod=grave'
p26
aS'amod=great'
p27
aS'amod=greater'
p28
aS'amod=incalculable'
p29
aS'amod=irremediable'
p30
aS'amod=long-term'
p31
aS'amod=more'
p32
aS'amod=much'
p33
aS'amod=physical'
p34
aS'amod=possible'
p35
aS'amod=real'
p36
aS'amod=severe'
p37
aS'amod=tangible'
p38
aS'amod=unacceptable'
p39
aS'amod=unforeseen'
p40
aS'amod=unpredictable'
p41
aS'appos=disruption'
p42
aS'aux=be'
p43
aS'aux=can'
p44
aS'aux=could'
p45
aS'aux=do'
p46
aS'aux=have'
p47
aS'aux=may'
p48
aS'aux=might'
p49
aS'aux=to'
p50
aS'aux=will'
p51
aS'aux=would'
p52
aS'auxpass=be'
p53
aS'cc=and'
p54
aS'cc=but'
p55
aS'cc=or'
p56
aS'ccomp=deteriorate'
p57
aS'ccomp=do'
p58
aS'complm=that'
p59
aS'conj=about'
p60
aS'conj=arm'
p61
aS'conj=damage'
p62
aS'conj=destroy'
p63
aS'conj=do'
p64
aS'conj=kill'
p65
aS'conj=little'
p66
aS'conj=not'
p67
aS'conj=priority'
p68
aS'conj=prospects'
p69
aS'conj=require'
p70
aS'conj=result'
p71
aS'conj=stop'
p72
aS'conj=suffering'
p73
aS'cop=seem'
p74
aS'csubj=oppose'
p75
aS'dep=allow'
p76
aS'dep=broaden'
p77
aS'dep=community'
p78
aS'dep=if'
p79
aS'dep=relation'
p80
aS'dep=that'
p81
aS'dep=think'
p82
aS'det=a'
p83
aS'det=any'
p84
aS'det=no'
p85
aS'det=the'
p86
aS'dobj=#PRP#'
p87
aS'dobj=America'
p88
aS'dobj=Americans'
p89
aS'dobj=Islam'
p90
aS'dobj=Kenyans'
p91
aS'dobj=Kurds'
p92
aS'dobj=Uganda'
p93
aS'dobj=Venezuela'
p94
aS'dobj=Woods'
p95
aS'dobj=agriculture'
p96
aS'dobj=all'
p97
aS'dobj=any'
p98
aS'dobj=anyone'
p99
aS'dobj=area'
p100
aS'dobj=career'
p101
aS'dobj=cause'
p102
aS'dobj=chance'
p103
aS'dobj=citizen'
p104
aS'dobj=city'
p105
aS'dobj=civilian'
p106
aS'dobj=community'
p107
aS'dobj=competitiveness'
p108
aS'dobj=country'
p109
aS'dobj=credibility'
p110
aS'dobj=deterrence'
p111
aS'dobj=economy'
p112
aS'dobj=effort'
p113
aS'dobj=embryo'
p114
aS'dobj=environment'
p115
aS'dobj=export'
p116
aS'dobj=farmer'
p117
aS'dobj=freedom'
p118
aS'dobj=gentleman'
p119
aS'dobj=growth'
p120
aS'dobj=image'
p121
aS'dobj=industry'
p122
aS'dobj=interest'
p123
aS'dobj=legislation'
p124
aS'dobj=mission'
p125
aS'dobj=ocean'
p126
aS'dobj=people'
p127
aS'dobj=process'
p128
aS'dobj=prosperity'
p129
aS'dobj=protester'
p130
aS'dobj=quo'
p131
aS'dobj=relation'
p132
aS'dobj=relic'
p133
aS'dobj=rights'
p134
aS'dobj=seal'
p135
aS'dobj=security'
p136
aS'dobj=situation'
p137
aS'dobj=standing'
p138
aS'dobj=struggle'
p139
aS'dobj=talk'
p140
aS'dobj=thing'
p141
aS'dobj=troops'
p142
aS'dobj=turtle'
p143
aS'dobj=war'
p144
aS'dobj=worker'
p145
aS'infmod=wait'
p146
aS'mark=as'
p147
aS'mark=if'
p148
aS'neg=not'
p149
aS'nn=case'
p150
aS'nn=country'
p151
aS'nsubj=#PRP#'
p152
aS'nsubj=Indonesia'
p153
aS'nsubj=Israel'
p154
aS'nsubj=States'
p155
aS'nsubj=adoption'
p156
aS'nsubj=agreement'
p157
aS'nsubj=application'
p158
aS'nsubj=attack'
p159
aS'nsubj=briefing'
p160
aS'nsubj=campaign'
p161
aS'nsubj=chaos'
p162
aS'nsubj=clash'
p163
aS'nsubj=collapse'
p164
aS'nsubj=construction'
p165
aS'nsubj=deal'
p166
aS'nsubj=deforestation'
p167
aS'nsubj=digging'
p168
aS'nsubj=effect'
p169
aS'nsubj=export'
p170
aS'nsubj=failure'
p171
aS'nsubj=faith'
p172
aS'nsubj=harassment'
p173
aS'nsubj=incursion'
p174
aS'nsubj=initiative'
p175
aS'nsubj=man'
p176
aS'nsubj=meeting'
p177
aS'nsubj=method'
p178
aS'nsubj=move'
p179
aS'nsubj=pact'
p180
aS'nsubj=politics'
p181
aS'nsubj=pollution'
p182
aS'nsubj=presence'
p183
aS'nsubj=problem'
p184
aS'nsubj=production'
p185
aS'nsubj=reform'
p186
aS'nsubj=researcher'
p187
aS'nsubj=sanction'
p188
aS'nsubj=statement'
p189
aS'nsubj=step'
p190
aS'nsubj=tension'
p191
aS'nsubj=that'
p192
aS'nsubj=this'
p193
aS'nsubj=which'
p194
aS'nsubj=who'
p195
aS'nsubj=willingness'
p196
aS'nsubjpass=#PRP#'
p197
aS'nsubjpass=Haniyeh'
p198
aS'nsubjpass=civilian'
p199
aS'nsubjpass=crew'
p200
aS'nsubjpass=hostage'
p201
aS'nsubjpass=leader'
p202
aS'nsubjpass=neither'
p203
aS'nsubjpass=which'
p204
aS'partmod=cause'
p205
aS'poss=#PRP#'
p206
aS"possessive='s"
p207
aS'prep=by'
p208
aS'prep=for'
p209
aS'prep=from'
p210
aS'prep=in'
p211
aS'prep=of'
p212
aS'prep=on'
p213
aS'prep=to'
p214
aS'prep=with'
p215
aS'rcmod=cause'
p216
aS'rcmod=come'
p217
aS"w+1=''"
p218
aS"w+1='s"
p219
aS'w+1=,'
p220
aS'w+1=.'
p221
aS'w+1=Afghanistan'
p222
aS'w+1=Africa'
p223
aS'w+1=America'
p224
aS'w+1=Americans'
p225
aS'w+1=Australia'
p226
aS'w+1=Egypt'
p227
aS'w+1=Tiger'
p228
aS'w+1=U.S.'
p229
aS'w+1=Uganda'
p230
aS'w+1=Venezuela'
p231
aS'w+1=Vietnam'
p232
aS'w+1=a'
p233
aS'w+1=all'
p234
aS'w+1=american'
p235
aS'w+1=and'
p236
aS'w+1=any'
p237
aS'w+1=anyone'
p238
aS'w+1=attempt'
p239
aS'w+1=be'
p240
aS'w+1=bilateral'
p241
aS'w+1=both'
p242
aS'w+1=by'
p243
aS'w+1=cause'
p244
aS'w+1=civilian'
p245
aS'w+1=democratic'
p246
aS'w+1=economic'
p247
aS'w+1=effort'
p248
aS'w+1=export'
p249
aS'w+1=farmer'
p250
aS'w+1=future'
p251
aS'w+1=he'
p252
aS'w+1=human'
p253
aS'w+1=if'
p254
aS'w+1=in'
p255
aS'w+1=industry'
p256
aS'w+1=innocent'
p257
aS'w+1=iraqi'
p258
aS'w+1=israeli'
p259
aS'w+1=it'
p260
aS'w+1=legislation'
p261
aS'w+1=new'
p262
aS'w+1=not'
p263
aS'w+1=on'
p264
aS'w+1=or'
p265
aS'w+1=other'
p266
aS'w+1=peace'
p267
aS'w+1=people'
p268
aS'w+1=physically'
p269
aS'w+1=press'
p270
aS'w+1=reduction'
p271
aS'w+1=relation'
p272
aS'w+1=relic'
p273
aS'w+1=security'
p274
aS'w+1=than'
p275
aS'w+1=that'
p276
aS'w+1=the'
p277
aS'w+1=they'
p278
aS'w+1=this'
p279
aS'w+1=those'
p280
aS'w+1=to'
p281
aS'w+1=troops'
p282
aS'w+1=turtle'
p283
aS'w+1=two'
p284
aS'w+1=unshielded'
p285
aS'w+1=way'
p286
aS'w+1=we'
p287
aS'w+1=with'
p288
aS'w+1=you'
p289
aS'w+1=yourself'
p290
aS"w+2='"
p291
aS"w+2=''"
p292
aS"w+2='s"
p293
aS'w+2=,'
p294
aS'w+2=.'
p295
aS'w+2=Australia'
p296
aS'w+2=Islam'
p297
aS'w+2=Kurds'
p298
aS'w+2=Republican'
p299
aS'w+2=U.S.'
p300
aS'w+2=Woods'
p301
aS'w+2=already'
p302
aS'w+2=american'
p303
aS'w+2=and'
p304
aS'w+2=area'
p305
aS'w+2=astronaut'
p306
aS'w+2=be'
p307
aS'w+2=because'
p308
aS'w+2=between'
p309
aS'w+2=bilateral'
p310
aS'w+2=but'
p311
aS'w+2=by'
p312
aS'w+2=career'
p313
aS'w+2=ceasefire'
p314
aS'w+2=chance'
p315
aS'w+2=city'
p316
aS'w+2=civilian'
p317
aS'w+2=community'
p318
aS'w+2=competitiveness'
p319
aS'w+2=could'
p320
aS'w+2=country'
p321
aS'w+2=credibility'
p322
aS'w+2=deterrence'
p323
aS'w+2=dialogue'
p324
aS'w+2=dispute'
p325
aS'w+2=do'
p326
aS'w+2=drier'
p327
aS'w+2=eastern'
p328
aS'w+2=economy'
p329
aS'w+2=effort'
p330
aS'w+2=embryo'
p331
aS'w+2=environment'
p332
aS'w+2=even'
p333
aS'w+2=fellow'
p334
aS'w+2=for'
p335
aS'w+2=freedom'
p336
aS'w+2=from'
p337
aS'w+2=gentleman'
p338
aS'w+2=global'
p339
aS'w+2=good'
p340
aS'w+2=growth'
p341
aS'w+2=have'
p342
aS'w+2=he'
p343
aS'w+2=health'
p344
aS'w+2=in'
p345
aS'w+2=interest'
p346
aS'w+2=it'
p347
aS'w+2=its'
p348
aS'w+2=kill'
p349
aS'w+2=lead'
p350
aS'w+2=mining'
p351
aS'w+2=missile-defense'
p352
aS'w+2=mission'
p353
aS'w+2=movement'
p354
aS'w+2=national'
p355
aS'w+2=ocean'
p356
aS'w+2=of'
p357
aS'w+2=only'
p358
aS'w+2=other'
p359
aS'w+2=palestinian'
p360
aS'w+2=peace'
p361
aS'w+2=people'
p362
aS'w+2=protester'
p363
aS'w+2=region'
p364
aS'w+2=relation'
p365
aS'w+2=rights'
p366
aS'w+2=seal'
p367
aS'w+2=security'
p368
aS'w+2=someone'
p369
aS'w+2=specialist'
p370
aS'w+2=standing'
p371
aS'w+2=status'
p372
aS'w+2=struggle'
p373
aS'w+2=subsidy'
p374
aS'w+2=talk'
p375
aS'w+2=that'
p376
aS'w+2=the'
p377
aS'w+2=there'
p378
aS'w+2=they'
p379
aS'w+2=thing'
p380
aS'w+2=to'
p381
aS'w+2=troops'
p382
aS'w+2=wait'
p383
aS'w+2=way'
p384
aS'w+2=we'
p385
aS'w+2=woman'
p386
aS'w+2=worker'
p387
aS'w-1=,'
p388
aS'w-1=Ankara'
p389
aS'w-1=Meshaal'
p390
aS'w-1=States'
p391
aS'w-1=a'
p392
aS'w-1=actual'
p393
aS'w-1=actually'
p394
aS'w-1=already'
p395
aS'w-1=also'
p396
aS'w-1=and'
p397
aS'w-1=any'
p398
aS'w-1=at'
p399
aS'w-1=avoid'
p400
aS'w-1=be'
p401
aS'w-1=bring'
p402
aS'w-1=can'
p403
aS'w-1=case'
p404
aS'w-1=cause'
p405
aS'w-1=construction'
p406
aS'w-1=could'
p407
aS'w-1=different'
p408
aS'w-1=do'
p409
aS'w-1=fact'
p410
aS'w-1=from'
p411
aS'w-1=further'
p412
aS'w-1=grave'
p413
aS'w-1=great'
p414
aS'w-1=greater'
p415
aS'w-1=have'
p416
aS'w-1=in'
p417
aS'w-1=incalculable'
p418
aS'w-1=incursion'
p419
aS'w-1=inflict'
p420
aS'w-1=into'
p421
aS'w-1=irremediable'
p422
aS'w-1=it'
p423
aS'w-1=long-term'
p424
aS'w-1=may'
p425
aS'w-1=might'
p426
aS'w-1=more'
p427
aS'w-1=much'
p428
aS'w-1=no'
p429
aS'w-1=not'
p430
aS'w-1=of'
p431
aS'w-1=only'
p432
aS'w-1=or'
p433
aS'w-1=party'
p434
aS'w-1=personally'
p435
aS'w-1=physical'
p436
aS'w-1=possible'
p437
aS'w-1=real'
p438
aS'w-1=seriously'
p439
aS'w-1=severe'
p440
aS'w-1=tangible'
p441
aS'w-1=that'
p442
aS'w-1=the'
p443
aS'w-1=this'
p444
aS'w-1=to'
p445
aS'w-1=unacceptable'
p446
aS'w-1=unforeseen'
p447
aS'w-1=unpredictable'
p448
aS'w-1=we'
p449
aS'w-1=will'
p450
aS'w-1=with'
p451
aS'w-1=without'
p452
aS'w-1=worker'
p453
aS'w-1=would'
p454
aS'w-2=,'
p455
aS'w-2=Americans'
p456
aS'w-2=Beijing'
p457
aS'w-2=Earth'
p458
aS'w-2=Iraq'
p459
aS'w-2=Israel'
p460
aS'w-2=Khaled'
p461
aS'w-2=Mugabe'
p462
aS'w-2=Muslims'
p463
aS'w-2=NAFTA'
p464
aS'w-2=United'
p465
aS'w-2=Washington'
p466
aS'w-2=a'
p467
aS'w-2=accuse'
p468
aS'w-2=action'
p469
aS'w-2=aid'
p470
aS'w-2=aim'
p471
aS'w-2=also'
p472
aS'w-2=and'
p473
aS'w-2=any'
p474
aS'w-2=arrest'
p475
aS'w-2=as'
p476
aS'w-2=attack'
p477
aS'w-2=be'
p478
aS'w-2=bill'
p479
aS'w-2=briefing'
p480
aS'w-2=bring'
p481
aS'w-2=by'
p482
aS'w-2=cause'
p483
aS'w-2=change'
p484
aS'w-2=channel'
p485
aS'w-2=charge'
p486
aS'w-2=citizen'
p487
aS'w-2=civilian'
p488
aS'w-2=collapse'
p489
aS'w-2=continue'
p490
aS'w-2=corruption'
p491
aS'w-2=could'
p492
aS'w-2=country'
p493
aS'w-2=deal'
p494
aS'w-2=deforestation'
p495
aS'w-2=determination'
p496
aS'w-2=do'
p497
aS'w-2=effort'
p498
aS'w-2=enter'
p499
aS'w-2=export'
p500
aS'w-2=failure'
p501
aS'w-2=faith'
p502
aS'w-2=far'
p503
aS'w-2=flow'
p504
aS'w-2=force'
p505
aS'w-2=from'
p506
aS'w-2=go'
p507
aS'w-2=guilty'
p508
aS'w-2=have'
p509
aS'w-2=help'
p510
aS'w-2=home'
p511
aS'w-2=hostage'
p512
aS'w-2=important'
p513
aS'w-2=in'
p514
aS'w-2=inflict'
p515
aS'w-2=initiative'
p516
aS'w-2=intend'
p517
aS'w-2=it'
p518
aS'w-2=lead'
p519
aS'w-2=level'
p520
aS'w-2=man'
p521
aS'w-2=minimize'
p522
aS'w-2=move'
p523
aS'w-2=nation'
p524
aS'w-2=not'
p525
aS'w-2=of'
p526
aS'w-2=one'
p527
aS'w-2=or'
p528
aS'w-2=out'
p529
aS'w-2=people'
p530
aS'w-2=political'
p531
aS'w-2=politics'
p532
aS'w-2=pollution'
p533
aS'w-2=prevent'
p534
aS'w-2=resolution'
p535
aS'w-2=safe'
p536
aS'w-2=say'
p537
aS'w-2=see'
p538
aS'w-2=seem'
p539
aS'w-2=serve'
p540
aS'w-2=settlement'
p541
aS'w-2=so'
p542
aS'w-2=soldier'
p543
aS'w-2=solidarity'
p544
aS'w-2=somehow'
p545
aS'w-2=step'
p546
aS'w-2=student'
p547
aS'w-2=substance'
p548
aS'w-2=that'
p549
aS'w-2=the'
p550
aS'w-2=themselves'
p551
aS'w-2=they'
p552
aS'w-2=this'
p553
aS'w-2=those'
p554
aS'w-2=to'
p555
aS'w-2=troop'
p556
aS'w-2=troops'
p557
aS'w-2=try'
p558
aS'w-2=understand'
p559
aS'w-2=undo'
p560
aS'w-2=victim'
p561
aS'w-2=warning'
p562
aS'w-2=we'
p563
aS'w-2=who'
p564
aS'w-2=will'
p565
aS'w-2=wish'
p566
aS'w-2=woman'
p567
aS'w-2=would'
p568
aS'w-2=year'
p569
aS'xcomp=conduct'
p570
aS'xcomp=fight'
p571
aS'xcomp=reach'
p572
aS'xcomp=rebuild'
p573
aS'xcomp=revive'
p574
asS'dtype'
p575
cnumpy
float64
p576
sS'vocabulary_'
p577
(dp578
g21
I12
sg85
I76
sg479
I470
sg563
I554
sg530
I521
sg463
I454
sg344
I335
sg106
I97
sg437
I428
sg70
I61
sg520
I511
sg311
I302
sg317
I308
sg224
I215
sg283
I274
sg151
I142
sg475
I466
sg159
I150
sg387
I378
sg356
I347
sg552
I543
sg336
I327
sg208
I199
sg493
I484
sg276
I267
sg462
I453
sg495
I486
sg454
I445
sg275
I266
sg52
I43
sg354
I345
sg506
I497
sg361
I352
sg447
I438
sg517
I508
sg515
I506
sg450
I441
sg113
I104
sg310
I301
sg167
I158
sg48
I39
sg72
I63
sg401
I392
sg181
I172
sg541
I532
sg550
I541
sg400
I391
sg140
I131
sg66
I57
sg22
I13
sg570
I561
sg163
I154
sg49
I40
sg321
I312
sg288
I279
sg381
I372
sg264
I255
sg513
I504
sg265
I256
sg511
I502
sg308
I299
sg416
I407
sg205
I196
sg58
I49
sg102
I93
sg370
I361
sg345
I336
sg347
I338
sg111
I102
sg440
I431
sg222
I213
sg422
I413
sg407
I398
sg309
I300
sg396
I387
sg90
I81
sg59
I50
sg402
I393
sg460
I451
sg100
I91
sg168
I159
sg14
I5
sg101
I92
sg271
I262
sg571
I562
sg214
I205
sg263
I254
sg444
I435
sg498
I489
sg432
I423
sg89
I80
sg312
I303
sg277
I268
sg16
I7
sg307
I298
sg278
I269
sg154
I145
sg280
I271
sg395
I386
sg197
I188
sg134
I125
sg211
I202
sg516
I507
sg487
I478
sg419
I410
sg223
I214
sg351
I342
sg372
I363
sg141
I132
sg133
I124
sg178
I169
sg258
I249
sg246
I237
sg411
I402
sg145
I136
sg522
I513
sg382
I373
sg57
I48
sg236
I227
sg333
I324
sg216
I207
sg302
I293
sg230
I221
sg27
I18
sg65
I56
sg266
I257
sg237
I228
sg192
I183
sg423
I414
sg456
I447
sg417
I408
sg385
I376
sg38
I29
sg36
I27
sg443
I434
sg319
I310
sg82
I73
sg148
I139
sg446
I437
sg484
I475
sg179
I170
sg261
I252
sg508
I499
sg175
I166
sg120
I111
sg31
I22
sg483
I474
sg257
I248
sg96
I87
sg390
I381
sg105
I96
sg40
I31
sg162
I153
sg464
I455
sg355
I346
sg80
I71
sg86
I77
sg500
I491
sg369
I360
sg109
I100
sg127
I118
sg338
I329
sg125
I116
sg349
I340
sg528
I519
sg195
I186
sg242
I233
sg453
I444
sg526
I517
sg480
I471
sg335
I326
sg171
I162
sg445
I436
sg322
I313
sg200
I191
sg41
I32
sg415
I406
sg87
I78
sg497
I488
sg282
I273
sg341
I332
sg540
I531
sg19
I10
sg477
I468
sg366
I357
sg330
I321
sg394
I385
sg572
I563
sg548
I539
sg252
I243
sg325
I316
sg30
I21
sg403
I394
sg406
I397
sg130
I121
sg470
I461
sg451
I442
sg490
I481
sg471
I462
sg284
I275
sg363
I354
sg427
I418
sg332
I323
sg23
I14
sg458
I449
sg389
I380
sg209
I200
sg81
I72
sg287
I278
sg173
I164
sg543
I534
sg503
I494
sg375
I366
sg428
I419
sg122
I113
sg99
I90
sg9
I0
sg367
I358
sg53
I44
sg69
I60
sg219
I210
sg320
I311
sg97
I88
sg434
I425
sg107
I98
sg465
I456
sg353
I344
sg404
I395
sg26
I17
sg248
I239
sg235
I226
sg190
I181
sg187
I178
sg380
I371
sg238
I229
sg157
I148
sg123
I114
sg494
I485
sg156
I147
sg410
I401
sg554
I545
sg331
I322
sg160
I151
sg340
I331
sg225
I216
sg64
I55
sg429
I420
sg413
I404
sg63
I54
sg193
I184
sg357
I348
sg78
I69
sg281
I272
sg226
I217
sg544
I535
sg397
I388
sg461
I452
sg84
I75
sg116
I107
sg481
I472
sg186
I177
sg398
I389
sg305
I296
sg164
I155
sg534
I525
sg297
I288
sg229
I220
sg303
I294
sg488
I479
sg88
I79
sg239
I230
sg67
I58
sg337
I328
sg536
I527
sg564
I555
sg532
I523
sg507
I498
sg298
I289
sg135
I126
sg73
I64
sg568
I559
sg360
I351
sg136
I127
sg348
I339
sg232
I223
sg405
I396
sg551
I542
sg306
I297
sg244
I235
sg228
I219
sg267
I258
sg459
I450
sg18
I9
sg25
I16
sg174
I165
sg553
I544
sg196
I187
sg327
I318
sg574
I565
sg46
I37
sg573
I564
sg472
I463
sg51
I42
sg296
I287
sg12
I3
sg433
I424
sg24
I15
sg155
I146
sg215
I206
sg169
I160
sg56
I47
sg33
I24
sg132
I123
sg557
I548
sg362
I353
sg42
I33
sg514
I505
sg37
I28
sg524
I515
sg561
I552
sg518
I509
sg326
I317
sg435
I426
sg118
I109
sg251
I242
sg139
I130
sg20
I11
sg182
I173
sg17
I8
sg166
I157
sg273
I264
sg94
I85
sg290
I281
sg108
I99
sg245
I236
sg114
I105
sg115
I106
sg292
I283
sg117
I108
sg161
I152
sg13
I4
sg408
I399
sg383
I374
sg547
I538
sg468
I459
sg567
I558
sg438
I429
sg54
I45
sg391
I382
sg436
I427
sg509
I500
sg95
I86
sg98
I89
sg62
I53
sg243
I234
sg486
I477
sg227
I218
sg240
I231
sg158
I149
sg318
I309
sg374
I365
sg293
I284
sg269
I260
sg562
I553
sg254
I245
sg329
I320
sg255
I246
sg439
I430
sg285
I276
sg260
I251
sg152
I143
sg189
I180
sg512
I503
sg538
I529
sg119
I110
sg218
I209
sg131
I122
sg103
I94
sg55
I46
sg313
I304
sg172
I163
sg350
I341
sg560
I551
sg206
I197
sg183
I174
sg129
I120
sg138
I129
sg259
I250
sg314
I305
sg45
I36
sg492
I483
sg121
I112
sg384
I375
sg79
I70
sg373
I364
sg452
I443
sg11
I2
sg250
I241
sg207
I198
sg212
I203
sg203
I194
sg426
I417
sg71
I62
sg485
I476
sg421
I412
sg478
I469
sg559
I550
sg339
I330
sg412
I403
sg489
I480
sg137
I128
sg213
I204
sg496
I487
sg420
I411
sg176
I167
sg482
I473
sg194
I185
sg334
I325
sg110
I101
sg409
I400
sg191
I182
sg170
I161
sg469
I460
sg301
I292
sg491
I482
sg448
I439
sg104
I95
sg74
I65
sg234
I225
sg501
I492
sg371
I362
sg323
I314
sg376
I367
sg32
I23
sg128
I119
sg91
I82
sg294
I285
sg418
I409
sg28
I19
sg198
I189
sg519
I510
sg75
I66
sg68
I59
sg431
I422
sg328
I319
sg217
I208
sg555
I546
sg304
I295
sg473
I464
sg10
I1
sg184
I175
sg291
I282
sg201
I192
sg558
I549
sg533
I524
sg358
I349
sg527
I518
sg279
I270
sg77
I68
sg474
I465
sg566
I557
sg126
I117
sg537
I528
sg286
I277
sg112
I103
sg377
I368
sg565
I556
sg455
I446
sg539
I530
sg343
I334
sg441
I432
sg47
I38
sg388
I379
sg525
I516
sg202
I193
sg424
I415
sg499
I490
sg476
I467
sg521
I512
sg256
I247
sg44
I35
sg274
I265
sg504
I495
sg289
I280
sg35
I26
sg529
I520
sg346
I337
sg545
I536
sg268
I259
sg467
I458
sg180
I171
sg83
I74
sg392
I383
sg457
I448
sg556
I547
sg204
I195
sg270
I261
sg542
I533
sg147
I138
sg368
I359
sg247
I238
sg378
I369
sg272
I263
sg34
I25
sg379
I370
sg143
I134
sg185
I176
sg502
I493
sg569
I560
sg342
I333
sg531
I522
sg365
I356
sg352
I343
sg142
I133
sg430
I421
sg523
I514
sg146
I137
sg76
I67
sg231
I222
sg150
I141
sg535
I526
sg15
I6
sg300
I291
sg124
I115
sg210
I201
sg249
I240
sg425
I416
sg315
I306
sg359
I350
sg60
I51
sg510
I501
sg399
I390
sg449
I440
sg50
I41
sg61
I52
sg316
I307
sg199
I190
sg153
I144
sg39
I30
sg262
I253
sg442
I433
sg220
I211
sg221
I212
sg549
I540
sg295
I286
sg253
I244
sg92
I83
sg546
I537
sg149
I140
sg144
I135
sg364
I355
sg29
I20
sg393
I384
sg241
I232
sg233
I224
sg165
I156
sg188
I179
sg414
I405
sg299
I290
sg177
I168
sg386
I377
sg505
I496
sg43
I34
sg324
I315
sg93
I84
sg466
I457
ssS'separator'
p579
S'='
sS'sparse'
p580
I01
sb.