ccopy_reg
_reconstructor
p1
(csklearn.feature_extraction.dict_vectorizer
DictVectorizer
p2
c__builtin__
object
p3
NtRp4
(dp5
S'vocabulary_'
p6
(dp7
S'w-1=punjabi'
p8
I200
sS'w-2=civilian'
p9
I223
sS'w-2=familiar'
p10
I228
sS'w-2=off'
p11
I237
sS'advmod=more'
p12
I4
sS'w-2=behavior'
p13
I219
sS'nn=velvet'
p14
I61
sS'w-2=have'
p15
I230
sS'w+1=glove'
p16
I104
sS'dep=Hampshire'
p17
I40
sS'w-1=pinstriped'
p18
I199
sS'advmod=quite'
p19
I8
sS'w-2=red'
p20
I244
sS'w+1=all'
p21
I95
sS'w-2=dark'
p22
I225
sS'w+2=skirt'
p23
I164
sS'amod=class-action'
p24
I14
sS'amod=federal'
p25
I17
sS'det=the'
p26
I46
sS'w-1=class-action'
p27
I184
sS'w+2=Africa'
p28
I124
sS'w+2=Hampshire'
p29
I127
sS'w+2=near'
p30
I155
sS'advmod=well'
p31
I10
sS'w+2=dismiss'
p32
I141
sS'w-2=would'
p33
I254
sS'w-1=who'
p34
I209
sS'w+2=international'
p35
I152
sS'w+2=hat'
p36
I148
sS'ccomp=there'
p37
I32
sS'w+2=side'
p38
I161
sS'w+2=use'
p39
I172
sS'w+2=glue'
p40
I146
sS'w+2=Bob'
p41
I126
sS'amod=white'
p42
I22
sS'dobj=situation'
p43
I54
sS'w+2=politically'
p44
I158
sS'w+2=democratic'
p45
I140
sS'xcomp=guide'
p46
I257
sS'xcomp=bring'
p47
I256
sS'prep=than'
p48
I84
sS'w-1=to'
p49
I205
sS'advmod=particularly'
p50
I5
sS'prep=by'
p51
I80
sS'w+2=and'
p52
I133
sS'w-2=and'
p53
I217
sS'w-2=term'
p54
I247
sS'dobj=era'
p55
I49
sS'dobj=#PRP#'
p56
I47
sS'w+2=settle'
p57
I160
sS'w-2=do'
p58
I226
sS'w-2=contend'
p59
I224
sS'w-2=Republicans'
p60
I213
sS'nsubjpass=team'
p61
I73
sS'w-1=would'
p62
I210
sS'w-2=one'
p63
I238
sS'w+1=jacket'
p64
I108
sS'w+2=behalf'
p65
I137
sS'w+1=than'
p66
I113
sS'aux=do'
p67
I24
sS'w-2=also'
p68
I216
sS'nsubjpass=technique'
p69
I74
sS'w+1=with'
p70
I119
sS'nsubj=thing'
p71
I66
sS'advmod=personally'
p72
I7
sS'advmod=so'
p73
I9
sS'w-1=dark'
p74
I185
sS'w+1=for'
p75
I102
sS'advmod=just'
p76
I3
sS'w+2=peach'
p77
I156
sS'w+1=as'
p78
I97
sS'w-2=will'
p79
I253
sS'dep=skirt'
p80
I43
sS'advmod=better'
p81
I2
sS'w-2=.'
p82
I211
sS'w+2=against'
p83
I132
sS'w+1=he'
p84
I105
sS'aux=may'
p85
I25
sS'w+1=what'
p86
I116
sS'amod=civilian'
p87
I13
sS'w-1=well'
p88
I207
sS'w+2=18'
p89
I123
sS'w+2=its'
p90
I153
sS'w+2=leave'
p91
I154
sS'nsubjpass=plan'
p92
I71
sS'w-1=federal'
p93
I187
sS'w-1=,'
p94
I176
sS'w-1=the'
p95
I204
sS'w+1=quite'
p96
I112
sS'w+2=Blackwater'
p97
I125
sS'nsubjpass=teacher'
p98
I72
sS'w-2=in'
p99
I231
sS'w+2=play'
p100
I157
sS'ccomp=be'
p101
I30
sS'w+2=silk'
p102
I162
sS'w-2=man'
p103
I234
sS'w-2=Bob'
p104
I212
sS'nn=bathing'
p105
I58
sS'nsubjpass=mechanism'
p106
I70
sS'auxpass=be'
p107
I28
sS'w+2=because'
p108
I136
sS'w+1=accuse'
p109
I92
sS'w+2=tie'
p110
I170
sS'dobj=side'
p111
I53
sS'w-2=largest'
p112
I233
sS'w+2=you'
p113
I174
sS'w-1=more'
p114
I193
sS'nn=skirt'
p115
I60
sS'w+1=who'
p116
I118
sS'w+2=interest'
p117
I151
sS'w+2=to'
p118
I171
sS'w+1=on'
p119
I111
sS'w-2=usually'
p120
I252
sS'w-2=a'
p121
I215
sS'w+1=file'
p122
I101
sS'w-1=orange'
p123
I196
sS'w+2=three'
p124
I169
sS'prep=for'
p125
I81
sS'det=a'
p126
I44
sS'nsubj=better'
p127
I63
sS'w-1=a'
p128
I177
sS'w-1=best'
p129
I180
sS'w+1=challenge'
p130
I100
sS'w+2=appear'
p131
I134
sS'det=another'
p132
I45
sS'w-2=Senate'
p133
I214
sS'w-2=uphold'
p134
I251
sS'w-1=bathing'
p135
I179
sS'w+2=individual'
p136
I150
sS'amod=black'
p137
I11
sS'w-2=nice'
p138
I235
sS"w+2=''"
p139
I120
sS'w-2=organization'
p140
I239
sS'w-1=he'
p141
I191
sS'w+2=corn'
p142
I139
sS'conj=tie'
p143
I39
sS'w-1=velvet'
p144
I206
sS'w-1=in'
p145
I192
sS'amod=bright'
p146
I12
sS'advmod=perfectly'
p147
I6
sS'w-2=be'
p148
I218
sS'w-1=skirt'
p149
I201
sS'w+2=dress'
p150
I142
sS'amod=dark'
p151
I15
sS'nsubjpass=material'
p152
I69
sS'complm=that'
p153
I33
sS'w+2=Pfizer'
p154
I129
sS'dobj=Mirrors'
p155
I48
sS"w-1='s"
p156
I175
sS'w+2=they'
p157
I167
sS'w-1=white'
p158
I208
sS'w-1=space'
p159
I202
sS'amod=nice'
p160
I18
sS'w-1=file'
p161
I188
sS'w+2=vote'
p162
I173
sS'w+2=guide'
p163
I147
sS'w+2=fan'
p164
I144
sS'conj=dress'
p165
I35
sS'dep=condemnation'
p166
I41
sS'w-2=to'
p167
I250
sS'prep=to'
p168
I85
sS'w-2=file'
p169
I229
sS'cc=and'
p170
I29
sS'w-1=not'
p171
I194
sS'w+2=situation'
p172
I163
sS'w-1=now'
p173
I195
sS'w-2=that'
p174
I248
sS'w+1=the'
p175
I114
sS'prep=against'
p176
I79
sS'w+1=by'
p177
I99
sS'dep=go'
p178
I42
sS'nsubjpass=war'
p179
I75
sS'w-2=plan'
p180
I241
sS'w+2=be'
p181
I135
sS'prep=involve'
p182
I83
sS'w+2=this'
p183
I168
sS'w+1=here'
p184
I106
sS'w-1=follow'
p185
I189
sS'conj=hold'
p186
I37
sS'dobj=fan'
p187
I50
sS'w-1=perfectly'
p188
I198
sS'prep=in'
p189
I82
sS'aux=would'
p190
I27
sS'w-2=information'
p191
I232
sS'nsubjpass=kind'
p192
I68
sS'dobj=interest'
p193
I52
sS'amod=pinstriped'
p194
I19
sS'w-1=black'
p195
I182
sS'w+2=dry'
p196
I143
sS'nsubj=#PRP#'
p197
I62
sS'xcomp=address'
p198
I255
sS'dobj=what'
p199
I55
sS'amod=punjabi'
p200
I20
sS'w+1=New'
p201
I90
sS'w+1=after'
p202
I93
sS'w+1=when'
p203
I117
sS'w+2=address'
p204
I131
sS'poss=Bob'
p205
I78
sS'amod=red'
p206
I21
sS'nn=orange'
p207
I59
sS'aux=to'
p208
I26
sS'ccomp=play'
p209
I31
sS'w+1=involve'
p210
I107
sS'w-1=double-breasted'
p211
I186
sS'w-2=quickly'
p212
I242
sS'w+2=the'
p213
I166
sS'w-2=bright'
p214
I220
sS'dobj=individual'
p215
I51
sS'w+1=gather'
p216
I103
sS'poss=#PRP#'
p217
I77
sS'conj=hat'
p218
I36
sS'w+1=and'
p219
I96
sS'w-2=she'
p220
I246
sS'w-2=really'
p221
I243
sS'w-1=civilian'
p222
I183
sS'appos=dip'
p223
I23
sS'nsubj=philosophy'
p224
I64
sS'w+1=-'
p225
I87
sS'w+1=,'
p226
I86
sS'w+1=.'
p227
I88
sS'amod=double-breasted'
p228
I16
sS'w+2=.'
p229
I122
sS'w+1=against'
p230
I94
sS'w+2=,'
p231
I121
sS'w+1=to'
p232
I115
sS'neg=not'
p233
I57
sS'nsubj=that'
p234
I65
sS'conj=shirt'
p235
I38
sS'w+2=real-world'
p236
I159
sS'w+2=he'
p237
I149
sS'w-1=another'
p238
I178
sS'w-2=buy'
p239
I221
sS'advmod=best'
p240
I1
sS'w+2=I'
p241
I128
sS'dobj=which'
p242
I56
sS'w-1=better'
p243
I181
sS'w+1=miraculously'
p244
I110
sS'partmod=file'
p245
I76
sS'w+1=...'
p246
I89
sS'w-2=the'
p247
I249
sS'w+2=bring'
p248
I138
sS'nsubjpass=Jonathan'
p249
I67
sS'w+1=a'
p250
I91
sS'advcl=endemic'
p251
I0
sS'conj=case'
p252
I34
sS'w+1=like'
p253
I109
sS'w+1=be'
p254
I98
sS'w-1=game'
p255
I190
sS'w-2=seem'
p256
I245
sS'w-1=particularly'
p257
I197
sS'w+2=soon'
p258
I165
sS'w-2=of'
p259
I236
sS'w-2=dress'
p260
I227
sS'w-1=that'
p261
I203
sS'w+2=flank'
p262
I145
sS'w-2=change'
p263
I222
sS'w+2=a'
p264
I130
sS'w-2=philosophy'
p265
I240
ssS'dtype'
p266
cnumpy
float64
p267
sS'feature_names_'
p268
(lp269
g251
ag240
ag81
ag76
ag12
ag50
ag147
ag72
ag19
ag73
ag31
ag137
ag146
ag87
ag24
ag151
ag228
ag25
ag160
ag194
ag200
ag206
ag42
ag223
ag67
ag85
ag208
ag190
ag107
ag170
ag101
ag209
ag37
ag153
ag252
ag165
ag218
ag186
ag235
ag143
ag17
ag166
ag178
ag80
ag126
ag132
ag26
ag56
ag155
ag55
ag187
ag215
ag193
ag111
ag43
ag199
ag242
ag233
ag105
ag207
ag115
ag14
ag197
ag127
ag224
ag234
ag71
ag249
ag192
ag152
ag106
ag92
ag98
ag61
ag69
ag179
ag245
ag217
ag205
ag176
ag51
ag125
ag189
ag182
ag48
ag168
ag226
ag225
ag227
ag246
ag201
ag250
ag109
ag202
ag230
ag21
ag219
ag78
ag254
ag177
ag130
ag122
ag75
ag216
ag16
ag84
ag184
ag210
ag64
ag253
ag244
ag119
ag96
ag66
ag175
ag232
ag86
ag203
ag116
ag70
ag139
ag231
ag229
ag89
ag28
ag97
ag41
ag29
ag241
ag154
ag264
ag204
ag83
ag52
ag131
ag181
ag108
ag65
ag248
ag142
ag45
ag32
ag150
ag196
ag164
ag262
ag40
ag163
ag36
ag237
ag136
ag117
ag35
ag90
ag91
ag30
ag77
ag100
ag44
ag236
ag57
ag38
ag102
ag172
ag23
ag258
ag213
ag157
ag183
ag124
ag110
ag118
ag39
ag162
ag113
ag156
ag94
ag128
ag238
ag135
ag129
ag243
ag195
ag222
ag27
ag74
ag211
ag93
ag161
ag185
ag255
ag141
ag145
ag114
ag171
ag173
ag123
ag257
ag188
ag18
ag8
ag149
ag159
ag261
ag95
ag49
ag144
ag88
ag158
ag34
ag62
ag82
ag104
ag60
ag133
ag121
ag68
ag53
ag148
ag13
ag214
ag239
ag263
ag9
ag59
ag22
ag58
ag260
ag10
ag169
ag15
ag99
ag191
ag112
ag103
ag138
ag259
ag11
ag63
ag140
ag265
ag180
ag212
ag221
ag20
ag256
ag220
ag54
ag174
ag247
ag167
ag134
ag120
ag79
ag33
ag198
ag47
ag46
asS'separator'
p270
S'='
sS'sparse'
p271
I01
sb.