ccopy_reg
_reconstructor
p1
(csklearn.feature_extraction.dict_vectorizer
DictVectorizer
p2
c__builtin__
object
p3
NtRp4
(dp5
S'vocabulary_'
p6
(dp7
S'w+2=armed'
p8
I315
sS'nsubjpass=many'
p9
I182
sS'w-2=ratio'
p10
I568
sS'conj=propagate'
p11
I57
sS'nsubj=a'
p12
I141
sS'advmod=more'
p13
I15
sS'dep=not'
p14
I67
sS'xcomp=travel'
p15
I620
sS'nsubjpass=Muslims'
p16
I173
sS'dep=do'
p17
I64
sS'advmod=increasingly'
p18
I11
sS'nsubjpass=people'
p19
I186
sS'dobj=soldier'
p20
I113
sS'w-1=locally'
p21
I446
sS'w+1=strategy'
p22
I280
sS'w+2=number'
p23
I379
sS'w+2=but'
p24
I325
sS'xcomp=help'
p25
I609
sS'nsubj=ltte'
p26
I153
sS'conj=accelerate'
p27
I46
sS'dobj=breed'
p28
I83
sS'w+2=use'
p29
I405
sS'w-2=police'
p30
I564
sS'w-2=use'
p31
I590
sS'w-2=supplies'
p32
I580
sS'nsubjpass=#PRP#'
p33
I170
sS'w+2=worker'
p34
I408
sS'nsubj=al-Qaida'
p35
I142
sS'w-2=they'
p36
I584
sS'w-1=athlete'
p37
I423
sS'w-2=attend'
p38
I510
sS'prep=by'
p39
I202
sS'dobj=terrorist'
p40
I115
sS'w+1=worker'
p41
I296
sS'dobj=group'
p42
I96
sS'w-2=some'
p43
I577
sS'ccomp=complete'
p44
I40
sS'w+2=order'
p45
I380
sS'prep=in'
p46
I206
sS'w+2=constantly'
p47
I336
sS'w-1=say'
p48
I461
sS'w-2=increasingly'
p49
I539
sS'w+2=child'
p50
I332
sS'w+2=militia'
p51
I375
sS'w-2=volunteer'
p52
I593
sS'w-1=new'
p53
I449
sS'w-2=on'
p54
I558
sS'w-2=young'
p55
I602
sS'nsubj=Shabbab'
p56
I139
sS'w+1=these'
p57
I284
sS'advmod=really'
p58
I18
sS'w-2=commander'
p59
I518
sS'nsubjpass=#NUMBER#'
p60
I169
sS'w-2=bomber'
p61
I513
sS'nsubj=center'
p62
I147
sS'dobj=Indians'
p63
I75
sS'w+1=passenger'
p64
I270
sS'dobj=mercenary'
p65
I100
sS'xcomp=join'
p66
I611
sS'w+1=brazilian'
p67
I233
sS'w+2=partner'
p68
I383
sS'w-1=be'
p69
I425
sS'w-2=the'
p70
I582
sS'w-1=avoid'
p71
I424
sS'w+2=through'
p72
I400
sS'nsubjpass=other'
p73
I185
sS'w-2=before'
p74
I512
sS'w-1=militia'
p75
I447
sS'nsubj=what'
p76
I166
sS'w-2=Theo'
p77
I494
sS'w+2=individual'
p78
I358
sS'dobj=trainee'
p79
I117
sS'w-2=who'
p80
I597
sS'w+1=of'
p81
I265
sS'w+2=to'
p82
I401
sS'w+1=on'
p83
I266
sS'w-2=many'
p84
I545
sS'amod=younger'
p85
I30
sS'w+2=intense'
p86
I360
sS'w+2=first'
p87
I347
sS'w+1=or'
p88
I268
sS'w-1=some'
p89
I465
sS'dobj=astronaut'
p90
I80
sS'amod=fresh'
p91
I25
sS'w-1=have'
p92
I439
sS'w+2=in'
p93
I357
sS'w-2=hope'
p94
I537
sS'w+1=follower'
p95
I244
sS'nsubj=scripture'
p96
I160
sS'w+2=find'
p97
I346
sS'w-1=chess'
p98
I429
sS'w+2=who'
p99
I407
sS'w-2=be'
p100
I511
sS'w-2=gain'
p101
I530
sS'w-2=agency'
p102
I501
sS'prep=about'
p103
I197
sS'w-1=which'
p104
I477
sS'complm=that'
p105
I44
sS'w+1=people'
p106
I271
sS'nsubj=scientist'
p107
I158
sS'w-1=really'
p108
I458
sS'w+1=suicide'
p109
I282
sS'w-1=impaired'
p110
I442
sS'w+2=become'
p111
I321
sS'xcomp=fight'
p112
I608
sS'dep=order'
p113
I68
sS'w-2=model'
p114
I548
sS'w+2=training'
p115
I404
sS'w+2=by'
p116
I326
sS'w+2=-rrb-'
p117
I301
sS'nsubj=organization'
p118
I155
sS'advmod=allegedly'
p119
I6
sS'dobj=follower'
p120
I93
sS'nsubjpass=Theo'
p121
I174
sS'w-1=Shabbab'
p122
I414
sS'w+1=they'
p123
I285
sS'w-2=group'
p124
I532
sS'nsubj=scorpion'
p125
I159
sS'w+1=terrorist'
p126
I283
sS'w-2=number'
p127
I555
sS'w+2=today'
p128
I402
sS'nsubj=Qaeda'
p129
I138
sS'aux=would'
p130
I35
sS'w+1=for'
p131
I245
sS'w+1=eat'
p132
I242
sS'dobj=officer'
p133
I106
sS'amod=blind'
p134
I23
sS'w-1=deny'
p135
I430
sS'w-2=new'
p136
I553
sS'w-2=village'
p137
I591
sS'nsubj=volunteer'
p138
I165
sS'prep=to'
p139
I211
sS'w-1=younger'
p140
I480
sS'w+1=potential'
p141
I272
sS'nsubj=fund'
p142
I150
sS'dobj=worker'
p143
I120
sS'dobj=individual'
p144
I97
sS'w-2=watch'
p145
I594
sS'w+1=and'
p146
I225
sS'w-2=she'
p147
I575
sS'xcomp=keep'
p148
I612
sS'w+1=child'
p149
I236
sS'conj=deploy'
p150
I51
sS'conj=coerce'
p151
I50
sS'dobj=more'
p152
I103
sS'w+2=for'
p153
I349
sS'xcomp=improve'
p154
I610
sS'conj=acquire'
p155
I47
sS'w-2=order'
p156
I561
sS'nsubj=that'
p157
I163
sS'w+1=woman'
p158
I295
sS'advmod=on'
p159
I17
sS'w-2=succumb'
p160
I578
sS'w+2=keep'
p161
I367
sS'w+2=encourage'
p162
I340
sS'xcomp=act'
p163
I603
sS'nsubj=group'
p164
I151
sS'w+1=receive'
p165
I275
sS'w+2=Middle'
p166
I307
sS'w+1=concertgoer'
p167
I239
sS'w+2=army'
p168
I316
sS'w-2=seek'
p169
I574
sS'w+1=start'
p170
I279
sS'w+1=Janjaweed'
p171
I220
sS'w-2=need'
p172
I551
sS'mark=if'
p173
I125
sS'w+2=fighter'
p174
I345
sS'mark=in'
p175
I126
sS'w-2=guilty'
p176
I533
sS'w-2=soldier'
p177
I576
sS'w+2=pakistani'
p178
I381
sS'advmod=directly'
p179
I9
sS'w+2=company'
p180
I334
sS'w+2=personnel'
p181
I386
sS'w-2=network'
p182
I552
sS'w+1=outstanding'
p183
I269
sS'w+2=call'
p184
I327
sS'nsubjpass=expert'
p185
I178
sS'nsubj=Jahangir'
p186
I135
sS'det=the'
p187
I72
sS'det=these'
p188
I73
sS'dobj=people'
p189
I111
sS'amod=force'
p190
I24
sS'dobj=youth'
p191
I121
sS'ccomp=continue'
p192
I41
sS'w-2=or'
p193
I560
sS'prep=along'
p194
I200
sS'nsubj=who'
p195
I168
sS'w+2=islamic'
p196
I363
sS'w-2=camp'
p197
I514
sS'w-1=fighter'
p198
I433
sS'nsubjpass=Gurkhas'
p199
I172
sS'w+2=rival'
p200
I388
sS'nsubjpass=child'
p201
I177
sS'xcomp=expand'
p202
I607
sS'nsubj=party'
p203
I156
sS'dobj=#PRP#'
p204
I74
sS'w+1=volunteer'
p205
I291
sS'advcl=meet'
p206
I2
sS'w+2=candidate'
p207
I328
sS'nsubj=soldier'
p208
I161
sS'w+1=black'
p209
I231
sS'w+1=as'
p210
I228
sS'w+1=at'
p211
I229
sS'w+1=young'
p212
I298
sS'w+1=he'
p213
I251
sS'w-2=army'
p214
I506
sS'w+2=all'
p215
I312
sS'advmod=actively'
p216
I5
sS'xcomp=search'
p217
I616
sS'mark=for'
p218
I124
sS'infmod=fight'
p219
I123
sS'xcomp=star'
p220
I617
sS'det=some'
p221
I71
sS'w-2=continue'
p222
I519
sS'w-2=aim'
p223
I502
sS'w+2=search'
p224
I389
sS'w+1=concert-goer'
p225
I238
sS'advmod=when'
p226
I22
sS'dobj=militia'
p227
I102
sS'ccomp=round'
p228
I43
sS'w+1=artist'
p229
I227
sS'dobj=category'
p230
I85
sS'w+1=operative'
p231
I267
sS'purpcl=try'
p232
I212
sS'prep=for'
p233
I204
sS'dep=that'
p234
I70
sS'w+2=bring'
p235
I324
sS'w-2=internet'
p236
I541
sS'w-1=allegedly'
p237
I417
sS'w+2=they'
p238
I398
sS'w-1=organization'
p239
I454
sS'w-1=force'
p240
I435
sS'w+1=graduation'
p241
I250
sS'w-1=each'
p242
I432
sS'prep=start'
p243
I210
sS'w-1=in'
p244
I443
sS'conj=divide'
p245
I52
sS'ccomp=inspector'
p246
I42
sS'auxpass=be'
p247
I36
sS'advcl=wage'
p248
I4
sS'w-1=anyone'
p249
I420
sS'dobj=army'
p250
I78
sS'w-1=more'
p251
I448
sS'advmod=always'
p252
I8
sS'dobj=company'
p253
I89
sS'w+2=million'
p254
I376
sS'conj=sanctuary'
p255
I58
sS'nsubj=each'
p256
I149
sS'w+1=use'
p257
I290
sS'dobj=generation'
p258
I94
sS'w-1=systematically'
p259
I466
sS'nsubjpass=soldier'
p260
I190
sS'w+1=effort'
p261
I243
sS'advcl=strike'
p262
I3
sS'w+2=intensive'
p263
I361
sS'w-1=police'
p264
I456
sS'w-2=fight'
p265
I525
sS'nn=chess'
p266
I129
sS'w-1=directly'
p267
I431
sS'w+2=terrorist'
p268
I395
sS'w-2=information'
p269
I540
sS'w+1=its'
p270
I256
sS'w+2=extremist'
p271
I342
sS'w+2=divide'
p272
I338
sS'w-2=local'
p273
I543
sS'w-2=year'
p274
I600
sS'w+2=basic'
p275
I319
sS'dobj=partner'
p276
I109
sS'w-1=the'
p277
I469
sS'w+2=improve'
p278
I356
sS'w-1=people'
p279
I455
sS'w-2=most'
p280
I550
sS'w-2=every'
p281
I523
sS'w-2=that'
p282
I581
sS'dobj=personnel'
p283
I112
sS'conj=equip'
p284
I53
sS'nn=army'
p285
I128
sS'w+2=al-qaida'
p286
I311
sS'w-2=month'
p287
I549
sS'nsubjpass=fighter'
p288
I179
sS'nsubj=Bryant'
p289
I134
sS'nsubjpass=police'
p290
I188
sS'nsubjpass=man'
p291
I181
sS'nsubj=this'
p292
I164
sS'dobj=graduate'
p293
I95
sS'w+1=to'
p294
I286
sS'w+2=he'
p295
I355
sS'dobj=name'
p296
I104
sS'prep=into'
p297
I207
sS'w+2=along'
p298
I313
sS'w+2=train'
p299
I403
sS'conj=carry'
p300
I49
sS'w+1=abroad'
p301
I222
sS'w-2=non-profit'
p302
I554
sS'advmod=systematically'
p303
I21
sS'w+1=Gurkha'
p304
I217
sS'w-2=Florida'
p305
I488
sS'w-2=refrain'
p306
I569
sS'w+2=star'
p307
I393
sS'w-2=attempt'
p308
I509
sS"w-2='s"
p309
I482
sS'w-2=civilian'
p310
I517
sS'w+2=groom'
p311
I352
sS'w+2=from'
p312
I350
sS'w+2=man'
p313
I371
sS'w-2=after'
p314
I499
sS'w-2=easy'
p315
I522
sS'w-1=Bryant'
p316
I411
sS'partmod=undergo'
p317
I195
sS'w+1=unskilled'
p318
I289
sS'w-2=resident'
p319
I572
sS'acomp=bore'
p320
I0
sS'w-1=by'
p321
I428
sS'w+1=local'
p322
I257
sS'amod=potential'
p323
I28
sS'w-2=responsible'
p324
I573
sS'w+2=not'
p325
I378
sS'w-2=Nkunda'
p326
I492
sS'w+2=every'
p327
I341
sS'w+1=say'
p328
I276
sS'w-2=would'
p329
I599
sS'conj=plan'
p330
I56
sS'w-2=Liberia'
p331
I491
sS'w+2=people'
p332
I385
sS'w-2=potential'
p333
I565
sS'w+2=send'
p334
I390
sS'w+2=this'
p335
I399
sS'w-1=actively'
p336
I416
sS'nsubj=artist'
p337
I144
sS'w+2=astronaut'
p338
I317
sS'w-2=which'
p339
I596
sS'w+2=ceremony'
p340
I331
sS'w+2=college'
p341
I333
sS'w-2=reportedly'
p342
I571
sS'nsubj=some'
p343
I162
sS'w-1=always'
p344
I418
sS'conj=camera'
p345
I48
sS'w-2=exploit'
p346
I524
sS'nsubj=Mungiki'
p347
I136
sS'w-2=advise'
p348
I498
sS'dobj=bomber'
p349
I82
sS'amod=new'
p350
I27
sS'w-2=Agency'
p351
I486
sS'w+2=local'
p352
I369
sS'w-2=also'
p353
I504
sS'aux=will'
p354
I34
sS'w+2=19,000'
p355
I303
sS'w+2=carry'
p356
I329
sS'w+2=many'
p357
I372
sS'w+2=new'
p358
I377
sS'w+1=Hollywood'
p359
I218
sS'cc=or'
p360
I39
sS'w-2=mobilize'
p361
I547
sS'w+2=bank'
p362
I318
sS'w+2=its'
p363
I364
sS'w-1=recently'
p364
I459
sS'w+2=suicide'
p365
I394
sS'w-1=terrorist'
p366
I467
sS'w-2=in'
p367
I538
sS'w+1=seem'
p368
I277
sS'w-2=capability'
p369
I515
sS'w-1=reportedly'
p370
I460
sS'dobj=member'
p371
I99
sS'w-2=fitness'
p372
I527
sS'w-2=minor'
p373
I546
sS'prep=from'
p374
I205
sS'w+2=Eastleigh'
p375
I305
sS'conj=use'
p376
I60
sS'w+2=lunch'
p377
I370
sS'w+2=Madheshis'
p378
I306
sS'num=#NUMBER#'
p379
I194
sS'xcomp=raise'
p380
I615
sS"w+2=''"
p381
I299
sS'w-2=organization'
p382
I562
sS'w-2=help'
p383
I536
sS'w-1=this'
p384
I472
sS'w-1=boy'
p385
I427
sS'advmod=also'
p386
I7
sS'w+2=graduate'
p387
I351
sS'w-2=underway'
p388
I589
sS'w+1=campaign'
p389
I235
sS'w-2=accuse'
p390
I497
sS'w-2=program'
p391
I566
sS'w-1=Qaeda'
p392
I413
sS'w-2=States'
p393
I493
sS'w-1=forcibly'
p394
I436
sS'w-1=these'
p395
I470
sS'nsubjpass=who'
p396
I193
sS'w-2=have'
p397
I534
sS'cc=and'
p398
I37
sS'w+1=individual'
p399
I254
sS'w+1=by'
p400
I234
sS'w-2=visually'
p401
I592
sS'w+1=be'
p402
I230
sS'w+1=train'
p403
I287
sS'w+1=get'
p404
I248
sS'dep=receive'
p405
I69
sS'w+2=category'
p406
I330
sS'xcomp=target'
p407
I618
sS'dep=get'
p408
I65
sS'w+1=in'
p409
I253
sS'dobj=concert-goer'
p410
I90
sS'w-2=fund'
p411
I529
sS'nsubj=#PRP#'
p412
I132
sS'w+1=health'
p413
I252
sS'w-1=from'
p414
I438
sS'w+2=family'
p415
I343
sS'w+1=into'
p416
I255
sS'cc=but'
p417
I38
sS'w+1=voter'
p418
I292
sS'w-1=young'
p419
I479
sS'nsubjpass=personnel'
p420
I187
sS'poss=#PRP#'
p421
I196
sS'w-1=who'
p422
I478
sS'w+2=pass'
p423
I384
sS'w-1=help'
p424
I441
sS'w-2=find'
p425
I526
sS'dobj=Jobim'
p426
I76
sS'w-1=army'
p427
I421
sS'w-2=Jaquard'
p428
I490
sS'w+1=citizen'
p429
I237
sS'w+2=actress'
p430
I310
sS'w-1=share'
p431
I464
sS'w-2=these'
p432
I583
sS'w+2=war'
p433
I406
sS'w-2=down'
p434
I521
sS'w+2=displacement'
p435
I337
sS'w-2=train'
p436
I586
sS'dobj=passenger'
p437
I110
sS'prep=of'
p438
I208
sS'xcomp=listen'
p439
I613
sS'w-2=of'
p440
I556
sS'prep=on'
p441
I209
sS'nsubjpass=Europeans'
p442
I171
sS'w+2=militant'
p443
I374
sS'advmod=minute'
p444
I14
sS'nsubjpass=some'
p445
I191
sS'nsubjpass=bomber'
p446
I175
sS'dobj=Madheshis'
p447
I77
sS'w+2=bomber'
p448
I323
sS'w+1=go'
p449
I249
sS'nsubj=which'
p450
I167
sS"w-2=''"
p451
I481
sS'advcl=begin'
p452
I1
sS'advmod=nationwide'
p453
I16
sS'w-1=Navy'
p454
I412
sS'w-1=order'
p455
I453
sS'nsubjpass=boy'
p456
I176
sS'w-1=scorpion'
p457
I463
sS'w-1=fresh'
p458
I437
sS'advmod=recently'
p459
I19
sS'dobj=citizen'
p460
I88
sS'w-1=to'
p461
I473
sS'w+1=force'
p462
I246
sS'w+1=migrant'
p463
I260
sS'xcomp=wage'
p464
I621
sS'dobj=militant'
p465
I101
sS'w+2=that'
p466
I396
sS'w-2=Facely'
p467
I487
sS'amod=more'
p468
I26
sS'w-2=against'
p469
I500
sS'w+1=some'
p470
I278
sS'nn=territory'
p471
I131
sS'w-2=get'
p472
I531
sS'w+1=would-be'
p473
I297
sS'w-1=or'
p474
I452
sS'w+2=,'
p475
I300
sS'nsubj=Agency'
p476
I133
sS'w-1=of'
p477
I451
sS'nsubj=police'
p478
I157
sS'w+2=foot'
p479
I348
sS'w+2=fight'
p480
I344
sS'w-2=to'
p481
I585
sS'w+2=and'
p482
I314
sS'w-2=and'
p483
I505
sS'amod=young'
p484
I29
sS'w+2=member'
p485
I373
sS'w+1=15'
p486
I216
sS'prep=across'
p487
I198
sS'w-2=try'
p488
I587
sS'w-2=one'
p489
I559
sS'w-2=web'
p490
I595
sS'cop=be'
p491
I61
sS'w+1=substantial'
p492
I281
sS'w+2=Somalia'
p493
I308
sS'w-2=he'
p494
I535
sS'nsubjpass=resident'
p495
I189
sS'nsubjpass=volunteer'
p496
I192
sS'nsubj=case'
p497
I146
sS'conj=able'
p498
I45
sS'w+1=private'
p499
I273
sS'w+2=into'
p500
I362
sS'w+2=the'
p501
I397
sS'w-2=will'
p502
I598
sS'prep=as'
p503
I201
sS'w-2=,'
p504
I483
sS'w-2=.'
p505
I484
sS'dobj=volunteer'
p506
I118
sS'w-1=and'
p507
I419
sS'w-1=intensive'
p508
I445
sS'dobj=number'
p509
I105
sS'aux=have'
p510
I32
sS'dobj=strategy'
p511
I114
sS'dobj=bank'
p512
I81
sS'w-1=,'
p513
I410
sS'w+1=bore'
p514
I232
sS'nsubj=Worldfocus'
p515
I140
sS'w-2=at'
p516
I508
sS'w-2=as'
p517
I507
sS'w-2=man'
p518
I544
sS'dep=at'
p519
I63
sS'w-2=decision'
p520
I520
sS'w-2=al'
p521
I503
sS'w+2=large'
p522
I368
sS'xcomp=teach'
p523
I619
sS'w-2=other'
p524
I563
sS'w+1=undergo'
p525
I288
sS'w+1=another'
p526
I226
sS'dobj=candidate'
p527
I84
sS'w+1=during'
p528
I241
sS'w+2=guerilla'
p529
I353
sS'xcomp=carry'
p530
I605
sS'w-2=a'
p531
I496
sS'w-1=they'
p532
I471
sS'dobj=ceremony'
p533
I86
sS'w-1=volunteer'
p534
I474
sS'w-1=a'
p535
I415
sS'nsubj=Navy'
p536
I137
sS'dobj=train'
p537
I116
sS'nsubj=mathematics'
p538
I154
sS'w+2=infiltrate'
p539
I359
sS'w-2=officer'
p540
I557
sS'w-1=he'
p541
I440
sS'w+2=singer-songwriter'
p542
I391
sS'w+1=additional'
p543
I223
sS'w+2=drug'
p544
I339
sS'w+1=from'
p545
I247
sS'dobj=operative'
p546
I107
sS'w-2=such'
p547
I579
sS'w-2=ceremony'
p548
I516
sS'w+2=soldier'
p549
I392
sS'w-2=Worldfocus'
p550
I495
sS'nsubjpass=nurse'
p551
I184
sS'w+1=more'
p552
I261
sS'xcomp=anchor'
p553
I604
sS'prep=after'
p554
I199
sS'w+1=must'
p555
I263
sS'w-1=scientist'
p556
I462
sS'nsubj=civilian'
p557
I148
sS'dobj=fighter'
p558
I92
sS'w-2=learn'
p559
I542
sS'w-1=what'
p560
I476
sS'nsubj=camp'
p561
I145
sS'w+2=have'
p562
I354
sS'w+2=refugee'
p563
I387
sS'nsubjpass=minor'
p564
I183
sS'w+2=join'
p565
I366
sS'dep=go'
p566
I66
sS'w+1=Indians'
p567
I219
sS'w+2=youth'
p568
I409
sS'conj=train'
p569
I59
sS'dobj=participant'
p570
I108
sS'w+1=medical'
p571
I258
sS'advmod=locally'
p572
I12
sS'xcomp=commit'
p573
I606
sS'nsubj=army'
p574
I143
sS'w+1=muslim'
p575
I262
sS'w+1=who'
p576
I294
sS'nn=police'
p577
I130
sS'w+1=after'
p578
I224
sS'w+1=when'
p579
I293
sS'w+2=jihadist'
p580
I365
sS'advmod=forcibly'
p581
I10
sS'w-1=we'
p582
I475
sS'aux=to'
p583
I33
sS'w-2=you'
p584
I601
sS'w-2=undernourishment'
p585
I588
sS'w+1=professional'
p586
I274
sS'xcomp=overthrow'
p587
I614
sS'w-2=Jahangir'
p588
I489
sS'dobj=man'
p589
I98
sS'nsubjpass=islander'
p590
I180
sS'w+2=Africa'
p591
I304
sS'w+2=participant'
p592
I382
sS'dobj=voter'
p593
I119
sS'w+1=new'
p594
I264
sS'w-1=increasingly'
p595
I444
sS"w+1='"
p596
I213
sS'w-2=report'
p597
I570
sS'w-1=for'
p598
I434
sS'w+1=,'
p599
I214
sS'w+1=.'
p600
I215
sS'w+1=mercenary'
p601
I259
sS'dep=after'
p602
I62
sS'w+2=.'
p603
I302
sS'dobj=artist'
p604
I79
sS'neg=not'
p605
I127
sS'prep=during'
p606
I203
sS'conj=figure'
p607
I54
sS'w+1=do'
p608
I240
sS'w-2=prominent'
p609
I567
sS'advmod=many'
p610
I13
sS'nsubj=internet'
p611
I152
sS'w+2=complete'
p612
I335
sS'conj=justify'
p613
I55
sS'dobj=child'
p614
I87
sS'w+1=a'
p615
I221
sS'w-1=potential'
p616
I457
sS'w-1=not'
p617
I450
sS'w-1=begin'
p618
I426
sS'infmod=carry'
p619
I122
sS'advmod=reportedly'
p620
I20
sS'w-1=as'
p621
I422
sS'w-1=that'
p622
I468
sS'aux=be'
p623
I31
sS'w-2=for'
p624
I528
sS'w+2=be'
p625
I320
sS'w+2=big'
p626
I322
sS'w+2=a'
p627
I309
sS'dobj=concertgoer'
p628
I91
sS'w-2=12-year-old'
p629
I485
ssS'dtype'
p630
cnumpy
float64
p631
sS'feature_names_'
p632
(lp633
g320
ag452
ag206
ag262
ag248
ag216
ag119
ag386
ag252
ag179
ag581
ag18
ag572
ag610
ag444
ag13
ag453
ag159
ag58
ag459
ag620
ag303
ag226
ag134
ag190
ag91
ag468
ag350
ag323
ag484
ag85
ag623
ag510
ag583
ag354
ag130
ag247
ag398
ag417
ag360
ag44
ag192
ag246
ag228
ag105
ag498
ag27
ag155
ag345
ag300
ag151
ag150
ag245
ag284
ag607
ag613
ag330
ag11
ag255
ag569
ag376
ag491
ag602
ag519
ag17
ag408
ag566
ag14
ag113
ag405
ag234
ag221
ag187
ag188
ag204
ag63
ag426
ag447
ag250
ag604
ag90
ag512
ag349
ag28
ag527
ag230
ag533
ag614
ag460
ag253
ag410
ag628
ag558
ag120
ag258
ag293
ag42
ag144
ag589
ag371
ag65
ag465
ag227
ag152
ag296
ag509
ag133
ag546
ag570
ag276
ag437
ag189
ag283
ag20
ag511
ag40
ag537
ag79
ag506
ag593
ag143
ag191
ag619
ag219
ag218
ag173
ag175
ag605
ag285
ag266
ag577
ag471
ag412
ag476
ag289
ag186
ag347
ag536
ag129
ag56
ag515
ag12
ag35
ag574
ag337
ag561
ag497
ag62
ag557
ag256
ag142
ag164
ag611
ag26
ag538
ag118
ag203
ag478
ag107
ag125
ag96
ag208
ag343
ag157
ag292
ag138
ag76
ag450
ag195
ag60
ag33
ag442
ag199
ag16
ag121
ag446
ag456
ag201
ag185
ag288
ag590
ag291
ag9
ag564
ag551
ag73
ag19
ag420
ag290
ag495
ag260
ag445
ag496
ag396
ag379
ag317
ag421
ag103
ag487
ag554
ag194
ag503
ag39
ag606
ag233
ag374
ag46
ag297
ag438
ag441
ag243
ag139
ag232
ag596
ag599
ag600
ag486
ag304
ag359
ag567
ag171
ag615
ag301
ag543
ag578
ag146
ag526
ag229
ag210
ag211
ag402
ag209
ag514
ag67
ag400
ag389
ag149
ag429
ag225
ag167
ag608
ag528
ag132
ag261
ag95
ag131
ag462
ag545
ag404
ag449
ag241
ag213
ag413
ag409
ag399
ag416
ag270
ag322
ag571
ag601
ag463
ag552
ag575
ag555
ag594
ag81
ag83
ag231
ag88
ag183
ag64
ag106
ag141
ag499
ag586
ag165
ag328
ag368
ag470
ag170
ag22
ag492
ag109
ag126
ag57
ag123
ag294
ag403
ag525
ag318
ag257
ag205
ag418
ag579
ag576
ag158
ag41
ag473
ag212
ag381
ag475
ag117
ag603
ag355
ag591
ag375
ag378
ag166
ag493
ag627
ag430
ag286
ag215
ag298
ag482
ag8
ag168
ag338
ag362
ag275
ag625
ag111
ag626
ag448
ag235
ag24
ag116
ag184
ag207
ag356
ag406
ag340
ag50
ag341
ag180
ag612
ag47
ag435
ag272
ag544
ag162
ag327
ag271
ag415
ag480
ag174
ag97
ag87
ag479
ag153
ag312
ag387
ag311
ag529
ag562
ag295
ag278
ag93
ag78
ag539
ag86
ag263
ag500
ag196
ag363
ag580
ag565
ag161
ag522
ag352
ag377
ag313
ag357
ag485
ag443
ag51
ag254
ag358
ag325
ag23
ag45
ag178
ag592
ag68
ag423
ag332
ag181
ag563
ag200
ag224
ag334
ag542
ag549
ag307
ag365
ag268
ag466
ag501
ag238
ag335
ag72
ag82
ag128
ag299
ag115
ag29
ag433
ag99
ag34
ag568
ag513
ag316
ag454
ag392
ag122
ag535
ag336
ag237
ag344
ag507
ag249
ag427
ag621
ag37
ag71
ag69
ag618
ag385
ag321
ag98
ag135
ag267
ag242
ag198
ag598
ag240
ag394
ag458
ag414
ag92
ag541
ag424
ag110
ag244
ag595
ag508
ag21
ag75
ag251
ag53
ag617
ag477
ag474
ag455
ag239
ag279
ag264
ag616
ag108
ag364
ag370
ag48
ag556
ag457
ag431
ag89
ag259
ag366
ag622
ag277
ag395
ag532
ag384
ag461
ag534
ag582
ag560
ag104
ag422
ag419
ag140
ag451
ag309
ag504
ag505
ag629
ag351
ag467
ag305
ag588
ag428
ag331
ag326
ag393
ag77
ag550
ag531
ag390
ag348
ag314
ag469
ag102
ag223
ag521
ag353
ag483
ag214
ag517
ag516
ag308
ag38
ag100
ag74
ag61
ag197
ag369
ag548
ag310
ag59
ag222
ag520
ag434
ag315
ag281
ag346
ag265
ag425
ag372
ag624
ag411
ag101
ag472
ag124
ag176
ag397
ag494
ag383
ag94
ag367
ag49
ag269
ag236
ag559
ag273
ag518
ag84
ag373
ag361
ag114
ag287
ag280
ag172
ag182
ag136
ag302
ag127
ag440
ag540
ag54
ag489
ag193
ag156
ag382
ag524
ag30
ag333
ag391
ag609
ag10
ag306
ag597
ag342
ag319
ag324
ag169
ag147
ag177
ag43
ag160
ag547
ag32
ag282
ag70
ag432
ag36
ag481
ag436
ag488
ag585
ag388
ag31
ag137
ag401
ag52
ag145
ag490
ag339
ag80
ag502
ag329
ag274
ag584
ag55
ag163
ag553
ag530
ag573
ag202
ag112
ag25
ag154
ag66
ag148
ag439
ag587
ag380
ag217
ag220
ag407
ag523
ag15
ag464
asS'separator'
p634
S'='
sS'sparse'
p635
I01
sb.