ccopy_reg
_reconstructor
p1
(csklearn.feature_extraction.dict_vectorizer
DictVectorizer
p2
c__builtin__
object
p3
NtRp4
(dp5
S'sort'
p6
I01
sS'feature_names_'
p7
(lp8
S'acomp=fluidly'
p9
aS'advcl=be'
p10
aS'advcl=have'
p11
aS'advcl=look'
p12
aS'advcl=say'
p13
aS'advmod=a'
p14
aS'advmod=almost'
p15
aS'advmod=also'
p16
aS'advmod=barely'
p17
aS'advmod=currently'
p18
aS'advmod=effectively'
p19
aS'advmod=efficiently'
p20
aS'advmod=forward'
p21
aS'advmod=fully'
p22
aS'advmod=here'
p23
aS'advmod=how'
p24
aS'advmod=independently'
p25
aS'advmod=just'
p26
aS'advmod=largely'
p27
aS'advmod=longer'
p28
aS'advmod=normally'
p29
aS'advmod=once'
p30
aS'advmod=only'
p31
aS'advmod=politically'
p32
aS'advmod=previously'
p33
aS'advmod=primarily'
p34
aS'advmod=properly'
p35
aS'advmod=really'
p36
aS'advmod=smoothly'
p37
aS'advmod=sometimes'
p38
aS'advmod=sporadically'
p39
aS'advmod=still'
p40
aS'advmod=well'
p41
aS'amod=certain'
p42
aS'amod=consultative'
p43
aS'amod=defensive'
p44
aS'amod=downstream'
p45
aS'amod=executive'
p46
aS'amod=foreign'
p47
aS'amod=important'
p48
aS'amod=lose'
p49
aS'amod=lost'
p50
aS'amod=main'
p51
aS'amod=more'
p52
aS'amod=new'
p53
aS'amod=normal'
p54
aS'amod=official'
p55
aS'amod=other'
p56
aS'amod=overall'
p57
aS'amod=religious'
p58
aS'amod=second'
p59
aS'amod=separate'
p60
aS'amod=social'
p61
aS'amod=temporary'
p62
aS'amod=various'
p63
aS'amod=vital'
p64
aS'aux=be'
p65
aS'aux=can'
p66
aS'aux=could'
p67
aS'aux=do'
p68
aS'aux=have'
p69
aS'aux=may'
p70
aS'aux=to'
p71
aS'aux=will'
p72
aS'aux=would'
p73
aS'cc=and'
p74
aS'ccomp=actually'
p75
aS'ccomp=found'
p76
aS'ccomp=need'
p77
aS'ccomp=say'
p78
aS'complm=that'
p79
aS'conj=deal'
p80
aS'conj=incapable'
p81
aS'conj=make'
p82
aS'cop=be'
p83
aS'cop=remain'
p84
aS'dep=be'
p85
aS'dep=because'
p86
aS'dep=do'
p87
aS'dep=if'
p88
aS'dep=that'
p89
aS'dep=unable'
p90
aS'det=a'
p91
aS'det=another'
p92
aS'det=any'
p93
aS'det=every'
p94
aS'det=some'
p95
aS'det=that'
p96
aS'det=the'
p97
aS'det=this'
p98
aS'det=those'
p99
aS'dobj=Union'
p100
aS'dobj=ability'
p101
aS'dobj=crossing'
p102
aS'dobj=democracy'
p103
aS'dobj=efficiency'
p104
aS'dobj=much'
p105
aS'dobj=posse'
p106
aS'dobj=state'
p107
aS'infmod=investigate'
p108
aS'mark=as'
p109
aS'mark=if'
p110
aS'mark=so'
p111
aS'mark=until'
p112
aS'mark=while'
p113
aS'neg=not'
p114
aS'nn=U.N.'
p115
aS'nn=affair'
p116
aS'nn=brain'
p117
aS'nn=compliance'
p118
aS'nn=core'
p119
aS'nn=gene'
p120
aS'nn=security'
p121
aS'nn=state'
p122
aS'nn=stem'
p123
aS'nn=system'
p124
aS'nsubj=#PRP#'
p125
aS'nsubj=Kosovo'
p126
aS'nsubj=Minister'
p127
aS'nsubj=Shabaab'
p128
aS'nsubj=Shabab'
p129
aS'nsubj=area'
p130
aS'nsubj=bus'
p131
aS'nsubj=coalition'
p132
aS'nsubj=control'
p133
aS'nsubj=corps'
p134
aS'nsubj=defense'
p135
aS'nsubj=department'
p136
aS'nsubj=evolution'
p137
aS'nsubj=force'
p138
aS'nsubj=gene'
p139
aS'nsubj=government'
p140
aS'nsubj=institution'
p141
aS'nsubj=loudspeaker'
p142
aS'nsubj=market'
p143
aS'nsubj=nobody'
p144
aS'nsubj=organization'
p145
aS'nsubj=pipeline'
p146
aS'nsubj=pit'
p147
aS'nsubj=rover'
p148
aS'nsubj=service'
p149
aS'nsubj=synagogue'
p150
aS'nsubj=system'
p151
aS'nsubj=that'
p152
aS'nsubj=which'
p153
aS'num=#NUMBER#'
p154
aS'partmod=designate'
p155
aS'partmod=need'
p156
aS'poss=#PRP#'
p157
aS'poss=Maverick'
p158
aS'poss=building'
p159
aS'poss=person'
p160
aS'poss=prosecutor'
p161
aS'predet=all'
p162
aS'prep=as'
p163
aS'prep=at'
p164
aS'prep=because'
p165
aS'prep=during'
p166
aS'prep=for'
p167
aS'prep=from'
p168
aS'prep=in'
p169
aS'prep=like'
p170
aS'prep=of'
p171
aS'prep=on'
p172
aS'prep=than'
p173
aS'prep=to'
p174
aS'prep=under'
p175
aS'prep=with'
p176
aS'prep=without'
p177
aS'rcmod=administer'
p178
aS'rcmod=express'
p179
aS'rcmod=lose'
p180
aS'rcmod=manage'
p181
aS'rcmod=perform'
p182
aS'rcmod=rights'
p183
aS'rel=at'
p184
aS'w+1=,'
p185
aS'w+1=.'
p186
aS'w+1=ability'
p187
aS'w+1=after'
p188
aS'w+1=almost'
p189
aS'w+1=and'
p190
aS'w+1=any'
p191
aS'w+1=as'
p192
aS'w+1=at'
p193
aS'w+1=be'
p194
aS'w+1=because'
p195
aS'w+1=can'
p196
aS'w+1=court'
p197
aS'w+1=defense'
p198
aS'w+1=democracy'
p199
aS'w+1=differently'
p200
aS'w+1=effectively'
p201
aS'w+1=efficiency'
p202
aS'w+1=efficiently'
p203
aS'w+1=embassy'
p204
aS'w+1=fountain'
p205
aS'w+1=government'
p206
aS'w+1=have'
p207
aS'w+1=here'
p208
aS'w+1=in'
p209
aS'w+1=include'
p210
aS'w+1=independent'
p211
aS'w+1=independently'
p212
aS'w+1=largely'
p213
aS'w+1=longer'
p214
aS'w+1=much'
p215
aS'w+1=need'
p216
aS'w+1=normally'
p217
aS'w+1=of'
p218
aS'w+1=on'
p219
aS'w+1=only'
p220
aS'w+1=place'
p221
aS'w+1=politically'
p222
aS'w+1=primarily'
p223
aS'w+1=properly'
p224
aS'w+1=rate'
p225
aS'w+1=relief'
p226
aS'w+1=set'
p227
aS'w+1=smoothly'
p228
aS'w+1=sporadically'
p229
aS'w+1=state'
p230
aS'w+1=that'
p231
aS'w+1=the'
p232
aS'w+1=then'
p233
aS'w+1=to'
p234
aS'w+1=under'
p235
aS'w+1=very'
p236
aS'w+1=well'
p237
aS'w+1=which'
p238
aS'w+1=with'
p239
aS'w+1=without'
p240
aS"w+2=''"
p241
aS'w+2=,'
p242
aS'w+2=-'
p243
aS'w+2=.'
p244
aS'w+2=OSS'
p245
aS'w+2=U.N.'
p246
aS'w+2=a'
p247
aS'w+2=almost'
p248
aS'w+2=and'
p249
aS'w+2=as'
p250
aS'w+2=be'
p251
aS'w+2=but'
p252
aS'w+2=by'
p253
aS'w+2=can'
p254
aS'w+2=cell'
p255
aS'w+2=create'
p256
aS'w+2=crossing'
p257
aS'w+2=deal'
p258
aS'w+2=do'
p259
aS'w+2=during'
p260
aS'w+2=efficient'
p261
aS'w+2=either'
p262
aS'w+2=financial'
p263
aS'w+2=fluidly'
p264
aS'w+2=for'
p265
aS'w+2=from'
p266
aS'w+2=gene'
p267
aS'w+2=government'
p268
aS'w+2=he'
p269
aS'w+2=healthy'
p270
aS'w+2=how'
p271
aS'w+2=improve'
p272
aS'w+2=in'
p273
aS'w+2=investigate'
p274
aS'w+2=its'
p275
aS'w+2=job'
p276
aS'w+2=lawmaking'
p277
aS'w+2=like'
p278
aS'w+2=longer'
p279
aS'w+2=more'
p280
aS'w+2=normally'
p281
aS'w+2=northern'
p282
aS'w+2=of'
p283
aS'w+2=on'
p284
aS'w+2=one'
p285
aS'w+2=or'
p286
aS'w+2=passport'
p287
aS'w+2=practice'
p288
aS'w+2=program'
p289
aS'w+2=prove'
p290
aS'w+2=really'
p291
aS'w+2=shape'
p292
aS'w+2=since'
p293
aS'w+2=sporadically'
p294
aS'w+2=state'
p295
aS'w+2=supply'
p296
aS'w+2=system'
p297
aS'w+2=team'
p298
aS'w+2=that'
p299
aS'w+2=the'
p300
aS'w+2=then'
p301
aS'w+2=therefore'
p302
aS'w+2=they'
p303
aS'w+2=this'
p304
aS'w+2=to'
p305
aS'w+2=today'
p306
aS'w+2=we'
p307
aS'w+2=what'
p308
aS'w+2=which'
p309
aS"w-1='s"
p310
aS'w-1=,'
p311
aS'w-1=-'
p312
aS'w-1=Shabaab'
p313
aS'w-1=U.N.'
p314
aS'w-1=a'
p315
aS'w-1=affair'
p316
aS'w-1=another'
p317
aS'w-1=barely'
p318
aS'w-1=be'
p319
aS'w-1=begin'
p320
aS'w-1=brain'
p321
aS'w-1=can'
p322
aS'w-1=certain'
p323
aS'w-1=compliance'
p324
aS'w-1=consultative'
p325
aS'w-1=continue'
p326
aS'w-1=core'
p327
aS'w-1=could'
p328
aS'w-1=court'
p329
aS'w-1=currently'
p330
aS'w-1=do'
p331
aS'w-1=every'
p332
aS'w-1=executive'
p333
aS'w-1=fully'
p334
aS'w-1=gene'
p335
aS'w-1=government'
p336
aS'w-1=have'
p337
aS'w-1=he'
p338
aS'w-1=high'
p339
aS'w-1=important'
p340
aS'w-1=intellectual'
p341
aS'w-1=its'
p342
aS'w-1=last'
p343
aS'w-1=long'
p344
aS'w-1=longer'
p345
aS'w-1=lose'
p346
aS'w-1=lost'
p347
aS'w-1=main'
p348
aS'w-1=motor'
p349
aS'w-1=my'
p350
aS'w-1=new'
p351
aS'w-1=no'
p352
aS'w-1=normal'
p353
aS'w-1=not'
p354
aS'w-1=now'
p355
aS'w-1=of'
p356
aS'w-1=official'
p357
aS'w-1=once'
p358
aS'w-1=or'
p359
aS'w-1=organization'
p360
aS'w-1=other'
p361
aS'w-1=over'
p362
aS'w-1=overall'
p363
aS'w-1=patient'
p364
aS'w-1=plant'
p365
aS'w-1=previously'
p366
aS'w-1=religious'
p367
aS'w-1=second'
p368
aS'w-1=security'
p369
aS'w-1=separate'
p370
aS'w-1=service'
p371
aS'w-1=smoothly'
p372
aS'w-1=social'
p373
aS'w-1=sometimes'
p374
aS'w-1=start'
p375
aS'w-1=state'
p376
aS'w-1=stem'
p377
aS'w-1=still'
p378
aS'w-1=system'
p379
aS'w-1=temporary'
p380
aS'w-1=that'
p381
aS'w-1=the'
p382
aS'w-1=they'
p383
aS'w-1=this'
p384
aS'w-1=those'
p385
aS'w-1=to'
p386
aS'w-1=two'
p387
aS'w-1=various'
p388
aS'w-1=vital'
p389
aS'w-1=we'
p390
aS'w-1=well'
p391
aS'w-1=which'
p392
aS'w-1=will'
p393
aS'w-1=would'
p394
aS"w-2=''"
p395
aS"w-2='s"
p396
aS'w-2=,'
p397
aS'w-2=.'
p398
aS'w-2=1998and'
p399
aS'w-2=Afghanistan'
p400
aS'w-2=Eastern'
p401
aS'w-2=Kosovo'
p402
aS'w-2=Maverick'
p403
aS'w-2=PEPFAR'
p404
aS'w-2=Shabab'
p405
aS'w-2=a'
p406
aS'w-2=ability'
p407
aS'w-2=able'
p408
aS'w-2=about'
p409
aS'w-2=absence'
p410
aS'w-2=actually'
p411
aS'w-2=all'
p412
aS'w-2=allow'
p413
aS'w-2=almost'
p414
aS'w-2=and'
p415
aS'w-2=any'
p416
aS'w-2=at'
p417
aS'w-2=be'
p418
aS'w-2=block'
p419
aS'w-2=brain'
p420
aS'w-2=building'
p421
aS'w-2=camp'
p422
aS'w-2=can'
p423
aS'w-2=capture'
p424
aS'w-2=coalition'
p425
aS'w-2=corps'
p426
aS'w-2=could'
p427
aS'w-2=create'
p428
aS'w-2=crucial'
p429
aS'w-2=defensive'
p430
aS'w-2=do'
p431
aS'w-2=downstream'
p432
aS'w-2=examine'
p433
aS'w-2=fail'
p434
aS'w-2=fine'
p435
aS'w-2=for'
p436
aS'w-2=force'
p437
aS'w-2=foreign'
p438
aS'w-2=form'
p439
aS'w-2=foxp2'
p440
aS'w-2=gain'
p441
aS'w-2=govern'
p442
aS'w-2=government'
p443
aS'w-2=have'
p444
aS'w-2=he'
p445
aS'w-2=important'
p446
aS'w-2=improve'
p447
aS'w-2=industrial'
p448
aS'w-2=infer'
p449
aS'w-2=it'
p450
aS'w-2=lack'
p451
aS'w-2=loan'
p452
aS'w-2=market'
p453
aS'w-2=may'
p454
aS'w-2=more'
p455
aS'w-2=most'
p456
aS'w-2=need'
p457
aS'w-2=no'
p458
aS'w-2=not'
p459
aS'w-2=of'
p460
aS'w-2=or'
p461
aS'w-2=organize'
p462
aS'w-2=party'
p463
aS'w-2=perform'
p464
aS'w-2=prosecutor'
p465
aS'w-2=really'
p466
aS'w-2=regain'
p467
aS'w-2=remnant'
p468
aS'w-2=secure'
p469
aS'w-2=serve'
p470
aS'w-2=some'
p471
aS'w-2=stable'
p472
aS'w-2=still'
p473
aS'w-2=study'
p474
aS'w-2=surgery'
p475
aS'w-2=synagogue'
p476
aS'w-2=take'
p477
aS'w-2=that'
p478
aS'w-2=the'
p479
aS'w-2=they'
p480
aS'w-2=to'
p481
aS'w-2=train'
p482
aS'w-2=unable'
p483
aS'w-2=up'
p484
aS'w-2=well'
p485
aS'w-2=which'
p486
aS'w-2=will'
p487
aS'w-2=with'
p488
aS'w-2=without'
p489
aS'w-2=would'
p490
aS'xcomp=try'
p491
asS'dtype'
p492
cnumpy
float64
p493
sS'vocabulary_'
p494
(dp495
g392
I383
sg87
I78
sg260
I251
sg180
I171
sg105
I96
sg41
I32
sg9
I0
sg346
I337
sg21
I12
sg457
I448
sg358
I349
sg347
I338
sg480
I471
sg37
I28
sg462
I453
sg184
I175
sg160
I151
sg394
I385
sg245
I236
sg351
I342
sg76
I67
sg220
I211
sg432
I423
sg465
I456
sg439
I430
sg393
I384
sg70
I61
sg68
I59
sg391
I382
sg319
I310
sg200
I191
sg479
I470
sg298
I289
sg117
I108
sg92
I83
sg58
I49
sg218
I209
sg376
I367
sg489
I480
sg48
I39
sg219
I210
sg446
I437
sg367
I358
sg453
I444
sg302
I293
sg342
I333
sg337
I328
sg78
I69
sg327
I318
sg144
I135
sg273
I264
sg308
I299
sg285
I276
sg412
I403
sg441
I432
sg368
I359
sg30
I21
sg66
I57
sg79
I70
sg77
I68
sg262
I253
sg336
I327
sg206
I197
sg233
I224
sg10
I1
sg253
I244
sg232
I223
sg229
I220
sg145
I136
sg348
I339
sg31
I22
sg251
I242
sg314
I305
sg476
I467
sg169
I160
sg101
I92
sg73
I64
sg27
I18
sg174
I165
sg474
I465
sg224
I215
sg345
I336
sg82
I73
sg378
I369
sg190
I181
sg271
I262
sg81
I72
sg84
I75
sg258
I249
sg265
I256
sg191
I182
sg409
I400
sg152
I143
sg339
I330
sg443
I434
sg23
I14
sg483
I474
sg189
I180
sg98
I89
sg428
I419
sg307
I298
sg116
I107
sg293
I284
sg382
I373
sg288
I279
sg110
I101
sg421
I412
sg170
I161
sg248
I239
sg173
I164
sg486
I477
sg207
I198
sg211
I202
sg118
I109
sg97
I88
sg236
I227
sg276
I267
sg252
I243
sg461
I452
sg460
I451
sg196
I187
sg124
I115
sg386
I377
sg159
I150
sg280
I271
sg387
I378
sg231
I222
sg431
I422
sg119
I110
sg289
I280
sg213
I204
sg470
I461
sg407
I398
sg442
I433
sg467
I458
sg147
I138
sg140
I131
sg477
I468
sg295
I286
sg411
I402
sg192
I183
sg86
I77
sg278
I269
sg193
I184
sg330
I321
sg399
I390
sg263
I254
sg322
I313
sg350
I341
sg25
I16
sg408
I399
sg95
I86
sg366
I357
sg106
I97
sg146
I137
sg385
I376
sg99
I90
sg36
I27
sg290
I281
sg167
I158
sg139
I130
sg89
I80
sg255
I246
sg138
I129
sg204
I195
sg29
I20
sg360
I351
sg250
I241
sg333
I324
sg205
I196
sg313
I304
sg309
I300
sg373
I364
sg344
I335
sg131
I122
sg135
I126
sg310
I301
sg227
I218
sg123
I114
sg148
I139
sg40
I31
sg256
I247
sg363
I354
sg334
I325
sg80
I71
sg60
I51
sg137
I128
sg438
I429
sg291
I282
sg422
I413
sg103
I94
sg469
I460
sg235
I226
sg158
I149
sg405
I396
sg215
I206
sg484
I475
sg26
I17
sg272
I263
sg120
I111
sg127
I118
sg181
I172
sg456
I447
sg352
I343
sg413
I404
sg286
I277
sg395
I386
sg13
I4
sg283
I274
sg401
I392
sg38
I29
sg284
I275
sg234
I225
sg96
I87
sg279
I270
sg305
I296
sg332
I323
sg269
I260
sg93
I84
sg485
I476
sg176
I167
sg17
I8
sg210
I201
sg122
I113
sg177
I168
sg45
I36
sg396
I387
sg11
I2
sg266
I257
sg424
I415
sg473
I464
sg429
I420
sg458
I449
sg257
I248
sg162
I153
sg434
I425
sg316
I307
sg195
I186
sg370
I361
sg490
I481
sg275
I266
sg296
I287
sg304
I295
sg62
I53
sg321
I312
sg468
I459
sg357
I348
sg223
I214
sg128
I119
sg361
I352
sg57
I48
sg216
I207
sg306
I297
sg113
I104
sg246
I237
sg53
I44
sg203
I194
sg130
I121
sg488
I479
sg141
I132
sg72
I63
sg277
I268
sg54
I45
sg178
I169
sg261
I252
sg237
I228
sg380
I371
sg287
I278
sg267
I258
sg20
I11
sg264
I255
sg318
I309
sg149
I140
sg450
I441
sg28
I19
sg343
I334
sg165
I156
sg222
I213
sg294
I285
sg168
I159
sg50
I41
sg64
I55
sg282
I273
sg49
I40
sg154
I145
sg226
I217
sg241
I232
sg415
I406
sg384
I375
sg259
I250
sg16
I7
sg388
I379
sg161
I152
sg14
I5
sg491
I482
sg212
I203
sg182
I173
sg404
I395
sg90
I81
sg444
I435
sg74
I65
sg175
I166
sg18
I9
sg472
I463
sg15
I6
sg194
I185
sg63
I54
sg183
I174
sg208
I199
sg426
I417
sg471
I462
sg230
I221
sg121
I112
sg209
I200
sg292
I283
sg112
I103
sg433
I424
sg125
I116
sg75
I66
sg94
I85
sg157
I148
sg463
I454
sg32
I23
sg67
I58
sg132
I123
sg435
I426
sg329
I320
sg371
I362
sg419
I410
sg88
I79
sg107
I98
sg221
I212
sg335
I326
sg362
I353
sg274
I265
sg466
I457
sg143
I134
sg418
I409
sg12
I3
sg171
I162
sg155
I146
sg172
I163
sg323
I314
sg133
I124
sg449
I440
sg199
I190
sg430
I421
sg297
I288
sg153
I144
sg440
I431
sg331
I322
sg225
I216
sg372
I363
sg56
I47
sg151
I142
sg240
I231
sg475
I466
sg299
I290
sg217
I208
sg52
I43
sg244
I235
sg19
I10
sg228
I219
sg156
I147
sg359
I350
sg198
I189
sg150
I141
sg414
I405
sg425
I416
sg325
I316
sg356
I347
sg455
I446
sg481
I472
sg249
I240
sg85
I76
sg375
I366
sg111
I102
sg83
I74
sg416
I407
sg445
I436
sg201
I192
sg365
I356
sg33
I24
sg238
I229
sg59
I50
sg239
I230
sg166
I157
sg22
I13
sg340
I331
sg129
I120
sg300
I291
sg164
I155
sg487
I478
sg163
I154
sg397
I388
sg398
I389
sg326
I317
sg134
I125
sg108
I99
sg69
I60
sg410
I401
sg324
I315
sg312
I303
sg311
I302
sg459
I450
sg328
I319
sg61
I52
sg417
I408
sg482
I473
sg104
I95
sg369
I360
sg454
I445
sg379
I370
sg268
I259
sg115
I106
sg46
I37
sg100
I91
sg406
I397
sg383
I374
sg464
I455
sg214
I205
sg91
I82
sg315
I306
sg281
I272
sg349
I340
sg109
I100
sg338
I329
sg389
I380
sg402
I393
sg452
I443
sg55
I46
sg303
I294
sg448
I439
sg400
I391
sg197
I188
sg301
I292
sg187
I178
sg355
I346
sg270
I261
sg403
I394
sg202
I193
sg51
I42
sg374
I365
sg47
I38
sg24
I15
sg39
I30
sg451
I442
sg142
I133
sg188
I179
sg254
I245
sg136
I127
sg390
I381
sg71
I62
sg44
I35
sg364
I355
sg420
I411
sg381
I372
sg185
I176
sg186
I177
sg478
I469
sg423
I414
sg242
I233
sg243
I234
sg102
I93
sg114
I105
sg126
I117
sg377
I368
sg317
I308
sg427
I418
sg447
I438
sg353
I344
sg354
I345
sg320
I311
sg179
I170
sg34
I25
sg437
I428
sg65
I56
sg436
I427
sg43
I34
sg42
I33
sg341
I332
sg247
I238
sg35
I26
ssS'separator'
p496
S'='
sS'sparse'
p497
I01
sb.