ccopy_reg
_reconstructor
p1
(csklearn.feature_extraction.dict_vectorizer
DictVectorizer
p2
c__builtin__
object
p3
NtRp4
(dp5
S'sort'
p6
I01
sS'feature_names_'
p7
(lp8
S'advmod=as'
p9
aS'advmod=long'
p10
aS'aux=can'
p11
aS'aux=to'
p12
aS'aux=will'
p13
aS'auxpass=be'
p14
aS'dobj=Koran'
p15
aS'dobj=Shahada'
p16
aS'dobj=part'
p17
aS'dobj=pledge'
p18
aS'dobj=reading'
p19
aS'dobj=text'
p20
aS'mark=as'
p21
aS'nsubj=#PRP#'
p22
aS'nsubj=child'
p23
aS'nsubj=person'
p24
aS'nsubjpass=that'
p25
aS'prep=by'
p26
aS'prep=for'
p27
aS'w+1=a'
p28
aS'w+1=by'
p29
aS'w+1=for'
p30
aS'w+1=large'
p31
aS'w+1=of'
p32
aS'w+1=religious'
p33
aS'w+1=the'
p34
aS'w+2=20'
p35
aS'w+2=Bible'
p36
aS'w+2=Koran'
p37
aS'w+2=learner'
p38
aS'w+2=muslim'
p39
aS'w+2=national'
p40
aS'w+2=part'
p41
aS'w+2=pledge'
p42
aS'w+2=text'
p43
aS'w+2=the'
p44
aS"w-1='s"
p45
aS'w-1=be'
p46
aS'w-1=can'
p47
aS'w-1=child'
p48
aS'w-1=include'
p49
aS'w-1=ritual'
p50
aS'w-1=to'
p51
aS'w-2=able'
p52
aS'w-2=also'
p53
aS'w-2=begin'
p54
aS'w-2=leader'
p55
aS'w-2=mantra'
p56
aS'w-2=say'
p57
aS'w-2=that'
p58
aS'w-2=the'
p59
aS'w-2=will'
p60
aS'w-2=you'
p61
aS'xcomp=promote'
p62
asS'dtype'
p63
cnumpy
float64
p64
sS'vocabulary_'
p65
(dp66
g43
I34
sg24
I15
sg62
I53
sg53
I44
sg21
I12
sg12
I3
sg61
I52
sg57
I48
sg44
I35
sg60
I51
sg18
I9
sg42
I33
sg17
I8
sg14
I5
sg11
I2
sg16
I7
sg45
I36
sg40
I31
sg38
I29
sg23
I14
sg31
I22
sg10
I1
sg41
I32
sg9
I0
sg20
I11
sg19
I10
sg50
I41
sg59
I50
sg36
I27
sg48
I39
sg13
I4
sg46
I37
sg58
I49
sg34
I25
sg52
I43
sg33
I24
sg29
I20
sg25
I16
sg56
I47
sg51
I42
sg26
I17
sg28
I19
sg32
I23
sg15
I6
sg54
I45
sg37
I28
sg49
I40
sg30
I21
sg39
I30
sg35
I26
sg55
I46
sg27
I18
sg22
I13
sg47
I38
ssS'separator'
p67
S'='
sS'sparse'
p68
I01
sb.