ccopy_reg
_reconstructor
p1
(csklearn.feature_extraction.dict_vectorizer
DictVectorizer
p2
c__builtin__
object
p3
NtRp4
(dp5
S'vocabulary_'
p6
(dp7
S'w+2=post-traumatic'
p8
I185
sS'w-1=correctly'
p9
I217
sS'advcl=begin'
p10
I1
sS'advcl=have'
p11
I4
sS'w-1=of'
p12
I228
sS'w-2=after'
p13
I251
sS'w-1=doctor'
p14
I219
sS'w-2=too'
p15
I289
sS'w-2=will'
p16
I292
sS'w+2=hiv'
p17
I176
sS'w-2=they'
p18
I286
sS'w+2=anemia'
p19
I157
sS'w-2=Indians'
p20
I244
sS'advmod=often'
p21
I16
sS'advcl=experience'
p22
I2
sS'w-1=commonly'
p23
I216
sS'w-1=to'
p24
I236
sS'w+2=advanced'
p25
I153
sS'nsubj=woman'
p26
I75
sS'dep=to'
p27
I43
sS'w-2=husband'
p28
I267
sS'nsubjpass=husband'
p29
I93
sS'nsubj=child'
p30
I68
sS'nsubjpass=malaria'
p31
I95
sS'w-1=country'
p32
I218
sS'w+1=almost'
p33
I118
sS'w-2=to'
p34
I288
sS'dobj=people'
p35
I52
sS'advmod=worldwide'
p36
I21
sS'w+2=.'
p37
I145
sS'w+1=withparkinson'
p38
I142
sS'w-2=,'
p39
I238
sS'conj=clear'
p40
I33
sS'dep=many'
p41
I42
sS'w+2=2003'
p42
I148
sS'w+1=until'
p43
I140
sS'w+2=macular'
p44
I182
sS'w-2=Abubakar'
p45
I241
sS'nsubj=note'
p46
I71
sS'w-2=mother'
p47
I273
sS'w-2=baby'
p48
I255
sS'auxpass=get'
p49
I28
sS'w+2=problem'
p50
I186
sS'w-1=teens'
p51
I233
sS'w-2=of'
p52
I275
sS'dobj=singer'
p53
I54
sS'w-2=have'
p54
I263
sS'w+2=15'
p55
I146
sS'w-2=cancer'
p56
I258
sS'prep=than'
p57
I109
sS'nsubjpass=child'
p58
I91
sS'dobj=syndrome'
p59
I55
sS'w+2=psoriatic'
p60
I188
sS'w+2=who'
p61
I202
sS'w+2=and'
p62
I156
sS'w-2=and'
p63
I253
sS'advmod=instead'
p64
I13
sS'w-1=,'
p65
I209
sS'prep=until'
p66
I110
sS"w-1=''"
p67
I208
sS'nsubj=doctor'
p68
I69
sS'nsubj=percent'
p69
I73
sS'w-2=John'
p70
I245
sS'w-2=refuse'
p71
I278
sS'w-2=child'
p72
I259
sS'w-2=Johnson'
p73
I246
sS'dobj=#PRP#'
p74
I45
sS'w-2=not'
p75
I274
sS'w-1=get'
p76
I222
sS'prep=in'
p77
I108
sS'w-1=normally'
p78
I227
sS'nsubjpass=Kennedy'
p79
I84
sS'w+2=breast'
p80
I164
sS'dobj=Humu'
p81
I46
sS'nsubj=cancer'
p82
I67
sS'w+1=this'
p83
I139
sS'mark=while'
p84
I64
sS'w-2=million'
p85
I271
sS'w-2=those'
p86
I287
sS'aux=do'
p87
I23
sS'advmod=commonly'
p88
I8
sS'w-2=he'
p89
I264
sS'cc=or'
p90
I30
sS'w+2=treat'
p91
I200
sS'w+1=at'
p92
I122
sS'aux=will'
p93
I26
sS'w+1=with'
p94
I141
sS'advmod=differently'
p95
I10
sS'advmod=already'
p96
I7
sS'w+2=15,000'
p97
I147
sS'nsubjpass=Dwonch'
p98
I80
sS'w-2=pressure'
p99
I277
sS'w+2=the'
p100
I198
sS'prep=at'
p101
I107
sS'w+1=in'
p102
I132
sS'prep=as'
p103
I106
sS'w+1=patient'
p104
I135
sS'w-2=.'
p105
I239
sS'prep=with'
p106
I111
sS'advmod=finally'
p107
I12
sS'w+1=both'
p108
I123
sS'w+1=he'
p109
I131
sS'w-1=.'
p110
I210
sS'aux=have'
p111
I24
sS'w-2=woman'
p112
I293
sS'tmod=December'
p113
I112
sS'nsubjpass=cancer'
p114
I89
sS'w-1=be'
p115
I213
sS'w+1=cancer'
p116
I124
sS'w+2=rapidly'
p117
I189
sS'advmod=correctly'
p118
I9
sS'w-2=Kennedy'
p119
I247
sS'nsubjpass=people'
p120
I99
sS'w+1=differently'
p121
I127
sS'w-2=the'
p122
I285
sS'w+1=case'
p123
I125
sS'w+2=disease'
p124
I174
sS'w+1=every'
p125
I130
sS'w-2=I'
p126
I243
sS'w+2=case'
p127
I167
sS'nsubjpass=other'
p128
I98
sS'w-1=already'
p129
I212
sS'w+2=diabetes'
p130
I173
sS'w-1=newly'
p131
I225
sS'w-2=it'
p132
I268
sS'w+2=because'
p133
I161
sS'w-1=woman'
p134
I237
sS'advcl=fall'
p135
I3
sS'nsubjpass=AMD'
p136
I78
sS'mark=because'
p137
I59
sS'dobj=problem'
p138
I53
sS'w-2=who'
p139
I291
sS'w+2=bone'
p140
I162
sS'advmod=when'
p141
I19
sS'w+2=colon'
p142
I171
sS'w-1=infant'
p143
I224
sS'w+2=tb'
p144
I196
sS'nsubjpass=Indians'
p145
I81
sS'conj=struggle'
p146
I37
sS'conj=implement'
p147
I36
sS'conj=undergo'
p148
I39
sS'w+2=renal'
p149
I190
sS'nsubjpass=tb'
p150
I102
sS'w-2=Dwonch'
p151
I242
sS'w+2=depression'
p152
I172
sS'w+1=or'
p153
I134
sS'mark=once'
p154
I62
sS'conj=treat'
p155
I38
sS'w+2=adhd'
p156
I152
sS'w-1=cancer'
p157
I214
sS'nsubjpass=baby'
p158
I88
sS'w-2=father'
p159
I261
sS'advmod=normally'
p160
I15
sS'ccomp=die'
p161
I31
sS'dobj=cause'
p162
I48
sS'nsubjpass=mother'
p163
I96
sS"w+2=''"
p164
I143
sS'w+2=in'
p165
I178
sS'w-2=malaria'
p166
I269
sS'w-2=426'
p167
I240
sS'w+1=each'
p168
I129
sS'w+2=it'
p169
I179
sS'w+2=lung'
p170
I181
sS'dobj=live'
p171
I51
sS'w+2=identify'
p172
I177
sS'nsubjpass=case'
p173
I90
sS'nsubjpass=one-fourth'
p174
I97
sS'w-1=no'
p175
I226
sS'dep=#NUMBER#'
p176
I40
sS'w-2=hard'
p177
I262
sS'nsubj=officer'
p178
I72
sS'auxpass=be'
p179
I27
sS'complm=that'
p180
I32
sS'w+1=people'
p181
I136
sS'w+2=anyway'
p182
I158
sS'nsubjpass=father'
p183
I92
sS'w+2=that'
p184
I197
sS'w-2=animal'
p185
I254
sS'w-2=test'
p186
I284
sS'w+2=alzheimer'
p187
I155
sS'advmod=newly'
p188
I14
sS'advmod=why'
p189
I20
sS'nsubjpass=who'
p190
I103
sS'w+2=skin'
p191
I195
sS'nsubjpass=animal'
p192
I87
sS'w+2=three'
p193
I199
sS'cc=and'
p194
I29
sS'w-2=a'
p195
I249
sS'w+2=Welsh'
p196
I149
sS'w-1=child'
p197
I215
sS'w+1=the'
p198
I138
sS'w+2=sad'
p199
I191
sS'w-2=be'
p200
I256
sS'w+2=aplastic'
p201
I159
sS'nsubj=infant'
p202
I70
sS'w+2=be'
p203
I160
sS'advcl=about'
p204
I0
sS'nsubjpass=Johnson'
p205
I83
sS'w+2=will'
p206
I204
sS'nsubjpass=quarter'
p207
I100
sS"w+2='s"
p208
I144
sS'w-2=when'
p209
I290
sS'advmod=quickly'
p210
I18
sS'w+2=many'
p211
I183
sS'nsubjpass=#PRP#'
p212
I77
sS'w-1=those'
p213
I234
sS'w+2=she'
p214
I193
sS'w-2=symptom'
p215
I282
sS'nsubjpass=seconds'
p216
I101
sS'mark=about'
p217
I57
sS'w+2=singer'
p218
I194
sS'w-2=most'
p219
I272
sS'tmod=year'
p220
I113
sS'w-1=Americans'
p221
I211
sS'nsubjpass=John'
p222
I82
sS'w-2=depression'
p223
I260
sS'w+2=with'
p224
I205
sS'mark=until'
p225
I63
sS'w+2=age'
p226
I154
sS'nsubj=#PRP#'
p227
I66
sS'w+1=about'
p228
I117
sS'advmod=early'
p229
I11
sS'dep=today'
p230
I44
sS'w-2=help'
p231
I265
sS'w+2=cause'
p232
I168
sS'w-2=accurate'
p233
I250
sS'partmod=mean'
p234
I105
sS'w+2=clinically'
p235
I170
sS'dobj=disease'
p236
I50
sS'nsubjpass=#NUMBER#'
p237
I76
sS'aux=to'
p238
I25
sS'advcl=reduce'
p239
I5
sS'w-1=people'
p240
I230
sS'w+2=cardiovascular'
p241
I166
sS'w+1=often'
p242
I133
sS'w+2=year'
p243
I206
sS'w-2=participant'
p244
I276
sS'nsubj=the'
p245
I74
sS'w-2=himself'
p246
I266
sS'advmod=ago'
p247
I6
sS'w+1=as'
p248
I121
sS'w-1=properly'
p249
I231
sS'nsubjpass=Americans'
p250
I79
sS'w-2=she'
p251
I279
sS'w-1=patient'
p252
I229
sS'w+2=severe'
p253
I192
sS'w-2=already'
p254
I252
sS'w+2=type'
p255
I201
sS'w+2=whose'
p256
I203
sS'w+1=Humu'
p257
I116
sS'w-1=for'
p258
I221
sS'w+1=,'
p259
I114
sS'w-1=timely'
p260
I235
sS'w+1=.'
p261
I115
sS'w-2=show'
p262
I280
sS'w+1=tb'
p263
I137
sS'w+2=late'
p264
I180
sS'nsubjpass=woman'
p265
I104
sS'nsubjpass=Pumla'
p266
I86
sS'w+2=pancreatic'
p267
I184
sS'w+1=alzheimer'
p268
I119
sS'neg=not'
p269
I65
sS'mark=before'
p270
I60
sS'nsubjpass=illness'
p271
I94
sS'w+1=and'
p272
I120
sS'w+2=cervical'
p273
I169
sS'w+2=cancer'
p274
I165
sS'w-2=somebody'
p275
I281
sS'w-1=quickly'
p276
I232
sS'w+2=brain'
p277
I163
sS'w+2=head'
p278
I175
sS'conj=have'
p279
I34
sS'w-2=Pumla'
p280
I248
sS'w+2=prostate'
p281
I187
sS'w+1=die'
p282
I126
sS'w-1=in'
p283
I223
sS'w-2=breast'
p284
I257
sS'dobj=child'
p285
I49
sS'w+1=disease'
p286
I128
sS'dobj=tb'
p287
I56
sS'conj=identify'
p288
I35
sS'w-2=world'
p289
I294
sS'nsubjpass=Lohberg'
p290
I85
sS'w-2=method'
p291
I270
sS'mark=after'
p292
I58
sS'dobj=case'
p293
I47
sS'aux=be'
p294
I22
sS'w-2=tb'
p295
I283
sS'w-1=finally'
p296
I220
sS'mark=if'
p297
I61
sS'w+2=yet'
p298
I207
sS'dep=both'
p299
I41
sS'w+2=`'
p300
I150
sS'w+2=a'
p301
I151
sS'advmod=properly'
p302
I17
ssS'dtype'
p303
cnumpy
float64
p304
sS'feature_names_'
p305
(lp306
g204
ag10
ag22
ag135
ag11
ag239
ag247
ag96
ag88
ag118
ag95
ag229
ag107
ag64
ag188
ag160
ag21
ag302
ag210
ag141
ag189
ag36
ag294
ag87
ag111
ag238
ag93
ag179
ag49
ag194
ag90
ag161
ag180
ag40
ag279
ag288
ag147
ag146
ag155
ag148
ag176
ag299
ag41
ag27
ag230
ag74
ag81
ag293
ag162
ag285
ag236
ag171
ag35
ag138
ag53
ag59
ag287
ag217
ag292
ag137
ag270
ag297
ag154
ag225
ag84
ag269
ag227
ag82
ag30
ag68
ag202
ag46
ag178
ag69
ag245
ag26
ag237
ag212
ag136
ag250
ag98
ag145
ag222
ag205
ag79
ag290
ag266
ag192
ag158
ag114
ag173
ag58
ag183
ag29
ag271
ag31
ag163
ag174
ag128
ag120
ag207
ag216
ag150
ag190
ag265
ag234
ag103
ag101
ag77
ag57
ag66
ag106
ag113
ag220
ag259
ag261
ag257
ag228
ag33
ag268
ag272
ag248
ag92
ag108
ag116
ag123
ag282
ag121
ag286
ag168
ag125
ag109
ag102
ag242
ag153
ag104
ag181
ag263
ag198
ag83
ag43
ag94
ag38
ag164
ag208
ag37
ag55
ag97
ag42
ag196
ag300
ag301
ag156
ag25
ag226
ag187
ag62
ag19
ag182
ag201
ag203
ag133
ag140
ag277
ag80
ag274
ag241
ag127
ag232
ag273
ag235
ag142
ag152
ag130
ag124
ag278
ag17
ag172
ag165
ag169
ag264
ag170
ag44
ag211
ag267
ag8
ag50
ag281
ag60
ag117
ag149
ag199
ag253
ag214
ag218
ag191
ag144
ag184
ag100
ag193
ag91
ag255
ag61
ag256
ag206
ag224
ag243
ag298
ag67
ag65
ag110
ag221
ag129
ag115
ag157
ag197
ag23
ag9
ag32
ag14
ag296
ag258
ag76
ag283
ag143
ag131
ag175
ag78
ag12
ag252
ag240
ag249
ag276
ag51
ag213
ag260
ag24
ag134
ag39
ag105
ag167
ag45
ag151
ag126
ag20
ag70
ag73
ag119
ag280
ag195
ag233
ag13
ag254
ag63
ag185
ag48
ag200
ag284
ag56
ag72
ag223
ag159
ag177
ag54
ag89
ag231
ag246
ag28
ag132
ag166
ag291
ag85
ag219
ag47
ag75
ag52
ag244
ag99
ag71
ag251
ag262
ag275
ag215
ag295
ag186
ag122
ag18
ag86
ag34
ag15
ag209
ag139
ag16
ag112
ag289
asS'separator'
p307
S'='
sS'sparse'
p308
I01
sb.