ccopy_reg
_reconstructor
p1
(csklearn.feature_extraction.dict_vectorizer
DictVectorizer
p2
c__builtin__
object
p3
NtRp4
(dp5
S'sort'
p6
I01
sS'feature_names_'
p7
(lp8
S'advmod=again'
p9
aS'advmod=currently'
p10
aS'aux=be'
p11
aS'ccomp=go'
p12
aS'nsubj=#PRP#'
p13
aS'nsubj=that'
p14
aS'prep=with'
p15
aS'w+1=,'
p16
aS'w+1=that'
p17
aS'w+1=with'
p18
aS'w+2=Hamas'
p19
aS'w+2=but'
p20
aS'w+2=disaster'
p21
aS'w+2=go'
p22
aS'w+2=nuclear'
p23
aS'w-1=and'
p24
aS'w-1=be'
p25
aS'w-1=currently'
p26
aS'w-1=of'
p27
aS'w-1=stop'
p28
aS'w-2=be'
p29
aS'w-2=here'
p30
aS'w-2=lot'
p31
aS'w-2=not'
p32
aS'w-2=we'
p33
asS'dtype'
p34
cnumpy
float64
p35
sS'vocabulary_'
p36
(dp37
g22
I13
sg18
I9
sg12
I3
sg33
I24
sg19
I10
sg15
I6
sg24
I15
sg26
I17
sg16
I7
sg21
I12
sg25
I16
sg20
I11
sg32
I23
sg9
I0
sg14
I5
sg28
I19
sg10
I1
sg29
I20
sg30
I21
sg27
I18
sg23
I14
sg17
I8
sg11
I2
sg31
I22
sg13
I4
ssS'separator'
p38
S'='
sS'sparse'
p39
I01
sb.