ccopy_reg
_reconstructor
p1
(csklearn.feature_extraction.dict_vectorizer
DictVectorizer
p2
c__builtin__
object
p3
NtRp4
(dp5
S'sort'
p6
I01
sS'feature_names_'
p7
(lp8
S'advcl=better'
p9
aS'advcl=cater'
p10
aS'advcl=continue'
p11
aS'advcl=develop'
p12
aS'advcl=think'
p13
aS'advmod=actually'
p14
aS'advmod=adversely'
p15
aS'advmod=almost'
p16
aS'advmod=already'
p17
aS'advmod=also'
p18
aS'advmod=especially'
p19
aS'advmod=further'
p20
aS'advmod=highly'
p21
aS'advmod=how'
p22
aS'advmod=however'
p23
aS'advmod=most'
p24
aS'advmod=negatively'
p25
aS'advmod=often'
p26
aS'advmod=only'
p27
aS'advmod=perhaps'
p28
aS'advmod=potentially'
p29
aS'advmod=really'
p30
aS'advmod=relatively'
p31
aS'advmod=significantly'
p32
aS'advmod=so'
p33
aS'advmod=very'
p34
aS'advmod=whatsoever'
p35
aS'amod=adverse'
p36
aS'amod=bad'
p37
aS'amod=beneficial'
p38
aS'amod=better'
p39
aS'amod=big'
p40
aS'amod=bigger'
p41
aS'amod=biggest'
p42
aS'amod=broader'
p43
aS'amod=budgetary'
p44
aS'amod=catastrophic'
p45
aS'amod=corrosive'
p46
aS'amod=cultural'
p47
aS'amod=decide'
p48
aS'amod=decisive'
p49
aS'amod=defensive'
p50
aS'amod=deleterious'
p51
aS'amod=detrimental'
p52
aS'amod=devastating'
p53
aS'amod=direct'
p54
aS'amod=disproportionate'
p55
aS'amod=dramatic'
p56
aS'amod=economic'
p57
aS'amod=emotional'
p58
aS'amod=enormous'
p59
aS'amod=environmental'
p60
aS'amod=expect'
p61
aS'amod=extraordinary'
p62
aS'amod=far-reaching'
p63
aS'amod=financial'
p64
aS'amod=global'
p65
aS'amod=grave'
p66
aS'amod=great'
p67
aS'amod=greater'
p68
aS'amod=greatest'
p69
aS'amod=grow'
p70
aS'amod=harlem-based'
p71
aS'amod=healthy'
p72
aS'amod=heavy'
p73
aS'amod=high'
p74
aS'amod=huge'
p75
aS'amod=human'
p76
aS'amod=humanitarian'
p77
aS'amod=immediate'
p78
aS'amod=important'
p79
aS'amod=inflationary'
p80
aS'amod=lasting'
p81
aS'amod=legal'
p82
aS'amod=less'
p83
aS'amod=limit'
p84
aS'amod=limited'
p85
aS'amod=little'
p86
aS'amod=long-term'
p87
aS'amod=longer'
p88
aS'amod=longer-range'
p89
aS'amod=longer-term'
p90
aS'amod=major'
p91
aS'amod=massive'
p92
aS'amod=military'
p93
aS'amod=moderate'
p94
aS'amod=more'
p95
aS'amod=most'
p96
aS'amod=much'
p97
aS'amod=multiple'
p98
aS'amod=musical'
p99
aS'amod=negative'
p100
aS'amod=off-field'
p101
aS'amod=overall'
p102
aS'amod=overwhelming'
p103
aS'amod=past'
p104
aS'amod=political'
p105
aS'amod=positive'
p106
aS'amod=possible'
p107
aS'amod=potential'
p108
aS'amod=practical'
p109
aS'amod=profound'
p110
aS'amod=psychological'
p111
aS'amod=real'
p112
aS'amod=regional'
p113
aS'amod=remarkable'
p114
aS'amod=resistant'
p115
aS'amod=serious'
p116
aS'amod=severe'
p117
aS'amod=significant'
p118
aS'amod=similar'
p119
aS'amod=social'
p120
aS'amod=special'
p121
aS'amod=sufficient'
p122
aS'amod=symbolic'
p123
aS'amod=tangible'
p124
aS'amod=terrible'
p125
aS'amod=terrific'
p126
aS'amod=total'
p127
aS'amod=transformative'
p128
aS'amod=tremendous'
p129
aS'amod=true'
p130
aS'amod=visual'
p131
aS'amod=widespread'
p132
aS'amod=worldwide'
p133
aS'amod=worst'
p134
aS'appos=everything'
p135
aS'aux=be'
p136
aS'aux=can'
p137
aS'aux=could'
p138
aS'aux=have'
p139
aS'aux=may'
p140
aS'aux=to'
p141
aS'aux=will'
p142
aS'aux=would'
p143
aS'auxpass=be'
p144
aS'cc=and'
p145
aS'cc=but'
p146
aS'cc=or'
p147
aS'ccomp=happen'
p148
aS'ccomp=have'
p149
aS'ccomp=place'
p150
aS'ccomp=reel'
p151
aS'ccomp=seem'
p152
aS'complm=that'
p153
aS'complm=whether'
p154
aS'conj=admit'
p155
aS'conj=attack'
p156
aS'conj=business'
p157
aS'conj=casualty'
p158
aS'conj=come'
p159
aS'conj=conflict'
p160
aS'conj=duty'
p161
aS'conj=gravity'
p162
aS'conj=head'
p163
aS'conj=heating'
p164
aS'conj=help'
p165
aS'conj=hit'
p166
aS'conj=loss'
p167
aS'conj=movement'
p168
aS'conj=service'
p169
aS'conj=some'
p170
aS'conj=standing'
p171
aS'conj=vulnerability'
p172
aS'cop=be'
p173
aS'csubj=harness'
p174
aS'dep=campaign'
p175
aS'dep=deal'
p176
aS'dep=do'
p177
aS'dep=export'
p178
aS'dep=have'
p179
aS'dep=interfere'
p180
aS'dep=make'
p181
aS'dep=neuro-chemistry'
p182
aS'dep=on'
p183
aS'dep=so'
p184
aS'dep=stage'
p185
aS'dep=that'
p186
aS'dep=very'
p187
aS'dep=what'
p188
aS'dep=whatever'
p189
aS'det=a'
p190
aS'det=any'
p191
aS'det=no'
p192
aS'det=some'
p193
aS'det=that'
p194
aS'det=the'
p195
aS'det=those'
p196
aS'det=what'
p197
aS'dobj=#NUMBER#'
p198
aS'dobj=#PRP#'
p199
aS'dobj=Americans'
p200
aS'dobj=Uzbeks'
p201
aS'dobj=all'
p202
aS'dobj=area'
p203
aS'dobj=behavior'
p204
aS'dobj=cholera'
p205
aS'dobj=country'
p206
aS'dobj=economy'
p207
aS'dobj=effectiveness'
p208
aS'dobj=effort'
p209
aS'dobj=functioning'
p210
aS'dobj=game'
p211
aS'dobj=life'
p212
aS'dobj=market'
p213
aS'dobj=mind'
p214
aS'dobj=obesity'
p215
aS'dobj=party'
p216
aS'dobj=plan'
p217
aS'dobj=policy'
p218
aS'dobj=production'
p219
aS'dobj=result'
p220
aS'dobj=role'
p221
aS'dobj=strategy'
p222
aS'dobj=the'
p223
aS'dobj=treatment'
p224
aS'expl=there'
p225
aS'mark=if'
p226
aS'neg=not'
p227
aS'nn=VHS'
p228
aS'nn=change'
p229
aS'nn=choir'
p230
aS'nn=course'
p231
aS'nn=growth'
p232
aS'nn=health'
p233
aS'nn=missile'
p234
aS'nn=security'
p235
aS'nn=spreading'
p236
aS'nn=term'
p237
aS'nn=virus'
p238
aS'nsubj=#PRP#'
p239
aS'nsubj=all'
p240
aS'nsubj=blasting'
p241
aS'nsubj=challenge'
p242
aS'nsubj=change'
p243
aS'nsubj=crunch'
p244
aS'nsubj=downturn'
p245
aS'nsubj=drought'
p246
aS'nsubj=economy'
p247
aS'nsubj=event'
p248
aS'nsubj=impasse'
p249
aS'nsubj=information'
p250
aS'nsubj=kind'
p251
aS'nsubj=price'
p252
aS'nsubj=recession'
p253
aS'nsubj=slowdown'
p254
aS'nsubj=somebody'
p255
aS'nsubj=surprise'
p256
aS'nsubj=that'
p257
aS'nsubj=this'
p258
aS'nsubj=violation'
p259
aS'nsubj=way'
p260
aS'nsubj=which'
p261
aS'nsubj=woe'
p262
aS'nsubj=worry'
p263
aS'nsubjpass=institution'
p264
aS'nsubjpass=locality'
p265
aS'nsubjpass=that'
p266
aS'nsubjpass=which'
p267
aS'nsubjpass=who'
p268
aS'num=#NUMBER#'
p269
aS'num=%'
p270
aS'parataxis=large'
p271
aS'partmod=affect'
p272
aS'partmod=call'
p273
aS'partmod=cause'
p274
aS'partmod=on'
p275
aS'poss=#PRP#'
p276
aS'poss=Blair'
p277
aS'poss=Cheney'
p278
aS'poss=Corps'
p279
aS'poss=Robinson'
p280
aS'poss=Trane'
p281
aS'poss=fair'
p282
aS'poss=foundation'
p283
aS'poss=program'
p284
aS'poss=sport'
p285
aS'poss=war'
p286
aS'poss=warming'
p287
aS'predet=such'
p288
aS'prep=around'
p289
aS'prep=as'
p290
aS'prep=by'
p291
aS'prep=for'
p292
aS'prep=from'
p293
aS'prep=in'
p294
aS'prep=include'
p295
aS'prep=inside'
p296
aS'prep=of'
p297
aS'prep=on'
p298
aS'prep=since'
p299
aS'prep=to'
p300
aS'prep=upon'
p301
aS'prep=with'
p302
aS'rcmod=be'
p303
aS'rcmod=do'
p304
aS'rcmod=fund'
p305
aS'rcmod=have'
p306
aS'rcmod=negatively'
p307
aS'rcmod=on'
p308
aS'rcmod=order'
p309
aS'rcmod=persist'
p310
aS'rcmod=pursue'
p311
aS'rcmod=rule'
p312
aS'rcmod=say'
p313
aS'rcmod=suggest'
p314
aS'rcmod=try'
p315
aS'tmod=season'
p316
aS'tmod=year'
p317
aS"w+1='"
p318
aS"w+1=''"
p319
aS'w+1=,'
p320
aS'w+1=-'
p321
aS'w+1=.'
p322
aS'w+1=...'
p323
aS'w+1=28'
p324
aS'w+1=I'
p325
aS'w+1=India'
p326
aS'w+1=Syria'
p327
aS'w+1=a'
p328
aS'w+1=accord'
p329
aS'w+1=all'
p330
aS'w+1=and'
p331
aS'w+1=area'
p332
aS'w+1=around'
p333
aS'w+1=be'
p334
aS'w+1=because'
p335
aS'w+1=become'
p336
aS'w+1=beyond'
p337
aS'w+1=but'
p338
aS'w+1=by'
p339
aS'w+1=can'
p340
aS'w+1=childhood'
p341
aS'w+1=cholera'
p342
aS'w+1=combat'
p343
aS'w+1=crater'
p344
aS'w+1=crop'
p345
aS'w+1=democratic'
p346
aS'w+1=develop'
p347
aS'w+1=each'
p348
aS'w+1=emerge'
p349
aS'w+1=ethnic'
p350
aS'w+1=everyplace'
p351
aS'w+1=explosive'
p352
aS'w+1=farmer'
p353
aS'w+1=for'
p354
aS'w+1=from'
p355
aS'w+1=fuel'
p356
aS'w+1=global'
p357
aS'w+1=have'
p358
aS'w+1=he'
p359
aS'w+1=high'
p360
aS'w+1=higher'
p361
aS'w+1=if'
p362
aS'w+1=in'
p363
aS'w+1=inaccurate'
p364
aS'w+1=inside'
p365
aS'w+1=it'
p366
aS'w+1=local'
p367
aS'w+1=my'
p368
aS'w+1=negatively'
p369
aS'w+1=neighboring'
p370
aS'w+1=of'
p371
aS'w+1=on'
p372
aS'w+1=onhi'
p373
aS'w+1=people'
p374
aS'w+1=plan'
p375
aS'w+1=policy'
p376
aS'w+1=prevention'
p377
aS'w+1=program'
p378
aS'w+1=resistant'
p379
aS'w+1=reverberate'
p380
aS'w+1=sale'
p381
aS'w+1=she'
p382
aS'w+1=should'
p383
aS'w+1=site'
p384
aS'w+1=statement'
p385
aS'w+1=stock'
p386
aS'w+1=than'
p387
aS'w+1=that'
p388
aS'w+1=the'
p389
aS'w+1=they'
p390
aS'w+1=this'
p391
aS'w+1=time'
p392
aS'w+1=to'
p393
aS'w+1=treatment'
p394
aS'w+1=upon'
p395
aS'w+1=very'
p396
aS'w+1=voter'
p397
aS'w+1=we'
p398
aS'w+1=well'
p399
aS'w+1=what'
p400
aS'w+1=whatsoever'
p401
aS'w+1=when'
p402
aS'w+1=will'
p403
aS'w+1=with'
p404
aS'w+1=you'
p405
aS"w+2=''"
p406
aS"w+2='s"
p407
aS'w+2=,'
p408
aS'w+2=.'
p409
aS'w+2=1967'
p410
aS'w+2=Abbey'
p411
aS'w+2=Africa'
p412
aS'w+2=Americans'
p413
aS'w+2=Asia'
p414
aS'w+2=Baghdad'
p415
aS'w+2=China'
p416
aS'w+2=Christianity'
p417
aS'w+2=Clinton'
p418
aS'w+2=Congress'
p419
aS'w+2=Egyptians'
p420
aS'w+2=Europe'
p421
aS'w+2=I'
p422
aS'w+2=Ike'
p423
aS'w+2=India'
p424
aS'w+2=Iowa'
p425
aS'w+2=Iran'
p426
aS'w+2=Iraq'
p427
aS'w+2=Kenya'
p428
aS'w+2=La'
p429
aS'w+2=May'
p430
aS'w+2=Michigan'
p431
aS'w+2=Mr.'
p432
aS'w+2=NICO'
p433
aS'w+2=North'
p434
aS'w+2=President'
p435
aS'w+2=Puntland'
p436
aS'w+2=Republican'
p437
aS'w+2=Skariah'
p438
aS'w+2=Sunday'
p439
aS'w+2=U.S.'
p440
aS'w+2=Uzbeks'
p441
aS'w+2=Venezuela'
p442
aS'w+2=White'
p443
aS'w+2=XYZ'
p444
aS'w+2=Zimbabwe'
p445
aS'w+2=a'
p446
aS'w+2=absenteeism'
p447
aS'w+2=accord'
p448
aS'w+2=adaptation'
p449
aS'w+2=al-qaida'
p450
aS'w+2=all'
p451
aS'w+2=already'
p452
aS'w+2=also'
p453
aS'w+2=although'
p454
aS'w+2=and'
p455
aS'w+2=any'
p456
aS'w+2=as'
p457
aS'w+2=attack'
p458
aS'w+2=average'
p459
aS'w+2=be'
p460
aS'w+2=because'
p461
aS'w+2=become'
p462
aS'w+2=before'
p463
aS'w+2=behavior'
p464
aS'w+2=bhutanese'
p465
aS'w+2=bilateral'
p466
aS'w+2=biofuel'
p467
aS'w+2=bird'
p468
aS'w+2=broader'
p469
aS'w+2=business'
p470
aS'w+2=but'
p471
aS'w+2=by'
p472
aS'w+2=cardiovascular'
p473
aS'w+2=casualty'
p474
aS'w+2=change'
p475
aS'w+2=child'
p476
aS'w+2=climate'
p477
aS'w+2=cluster'
p478
aS'w+2=colonialism'
p479
aS'w+2=commodity'
p480
aS'w+2=communicate'
p481
aS'w+2=conflict'
p482
aS'w+2=control'
p483
aS'w+2=corruption'
p484
aS'w+2=could'
p485
aS'w+2=country'
p486
aS'w+2=cuban'
p487
aS'w+2=cut'
p488
aS'w+2=daily'
p489
aS'w+2=decision'
p490
aS'w+2=deeper'
p491
aS'w+2=delivery'
p492
aS'w+2=democracy'
p493
aS'w+2=depend'
p494
aS'w+2=deployment'
p495
aS'w+2=design'
p496
aS'w+2=despite'
p497
aS'w+2=detainee'
p498
aS'w+2=development'
p499
aS'w+2=difficult'
p500
aS'w+2=disease'
p501
aS'w+2=divestment'
p502
aS'w+2=do'
p503
aS'w+2=domestic'
p504
aS'w+2=doubt'
p505
aS'w+2=downturn'
p506
aS'w+2=economic'
p507
aS'w+2=economy'
p508
aS'w+2=ecosystem'
p509
aS'w+2=effectiveness'
p510
aS'w+2=emotional'
p511
aS'w+2=epidemic'
p512
aS'w+2=equity'
p513
aS'w+2=especially'
p514
aS'w+2=ethiopian'
p515
aS'w+2=european'
p516
aS'w+2=european-u'
p517
aS'w+2=every'
p518
aS'w+2=everything'
p519
aS'w+2=exercise'
p520
aS'w+2=fall'
p521
aS'w+2=federal'
p522
aS'w+2=feel'
p523
aS'w+2=few'
p524
aS'w+2=final'
p525
aS'w+2=finally'
p526
aS'w+2=financial'
p527
aS'w+2=five'
p528
aS'w+2=food'
p529
aS'w+2=football'
p530
aS'w+2=for'
p531
aS'w+2=functioning'
p532
aS'w+2=future'
p533
aS'w+2=game'
p534
aS'w+2=global'
p535
aS'w+2=go'
p536
aS'w+2=government'
p537
aS'w+2=greenhouse'
p538
aS'w+2=happen'
p539
aS'w+2=have'
p540
aS'w+2=he'
p541
aS'w+2=head'
p542
aS'w+2=health'
p543
aS'w+2=hedge'
p544
aS'w+2=high'
p545
aS'w+2=higher'
p546
aS'w+2=highly'
p547
aS'w+2=hit'
p548
aS'w+2=hiv\\/aids'
p549
aS'w+2=homeowner'
p550
aS'w+2=hotter'
p551
aS'w+2=how'
p552
aS'w+2=however'
p553
aS'w+2=human'
p554
aS'w+2=if'
p555
aS'w+2=improve'
p556
aS'w+2=in'
p557
aS'w+2=individual'
p558
aS'w+2=infant'
p559
aS'w+2=influence'
p560
aS'w+2=interest'
p561
aS'w+2=into'
p562
aS'w+2=invasion'
p563
aS'w+2=invasive'
p564
aS'w+2=involvement'
p565
aS'w+2=issue'
p566
aS'w+2=it'
p567
aS'w+2=its'
p568
aS'w+2=job'
p569
aS'w+2=juror'
p570
aS'w+2=keep'
p571
aS'w+2=labor'
p572
aS'w+2=large'
p573
aS'w+2=level'
p574
aS'w+2=life'
p575
aS'w+2=livelihood'
p576
aS'w+2=local'
p577
aS'w+2=lose'
p578
aS'w+2=maize'
p579
aS'w+2=market'
p580
aS'w+2=mass'
p581
aS'w+2=may'
p582
aS'w+2=might'
p583
aS'w+2=militarization'
p584
aS'w+2=military'
p585
aS'w+2=mining'
p586
aS'w+2=more'
p587
aS'w+2=most'
p588
aS'w+2=music'
p589
aS'w+2=my'
p590
aS'w+2=natural'
p591
aS'w+2=neuro-chemistry'
p592
aS'w+2=new'
p593
aS'w+2=not'
p594
aS'w+2=obesity'
p595
aS'w+2=of'
p596
aS'w+2=oil'
p597
aS'w+2=on'
p598
aS'w+2=or'
p599
aS'w+2=other'
p600
aS'w+2=outbreak'
p601
aS'w+2=output'
p602
aS'w+2=packaging'
p603
aS'w+2=parent'
p604
aS'w+2=particularly'
p605
aS'w+2=party'
p606
aS'w+2=peace'
p607
aS'w+2=people'
p608
aS'w+2=perhaps'
p609
aS'w+2=personal'
p610
aS'w+2=polar'
p611
aS'w+2=political'
p612
aS'w+2=poor'
p613
aS'w+2=positively'
p614
aS'w+2=post-election'
p615
aS'w+2=president'
p616
aS'w+2=production'
p617
aS'w+2=productivity'
p618
aS'w+2=protest'
p619
aS'w+2=quite'
p620
aS'w+2=radical'
p621
aS'w+2=rain'
p622
aS'w+2=raise'
p623
aS'w+2=rating'
p624
aS'w+2=recession'
p625
aS'w+2=reduce'
p626
aS'w+2=relation'
p627
aS'w+2=rise'
p628
aS'w+2=role'
p629
aS'w+2=rural'
p630
aS'w+2=sanction'
p631
aS'w+2=save'
p632
aS'w+2=savings'
p633
aS'w+2=say'
p634
aS'w+2=scarce'
p635
aS'w+2=season'
p636
aS'w+2=security'
p637
aS'w+2=sex'
p638
aS'w+2=she'
p639
aS'w+2=simple'
p640
aS'w+2=slow'
p641
aS'w+2=so'
p642
aS'w+2=soar'
p643
aS'w+2=social'
p644
aS'w+2=society'
p645
aS'w+2=some'
p646
aS'w+2=space'
p647
aS'w+2=spiral'
p648
aS'w+2=still'
p649
aS'w+2=substantial'
p650
aS'w+2=such'
p651
aS'w+2=take'
p652
aS'w+2=tame'
p653
aS'w+2=technology'
p654
aS'w+2=teen'
p655
aS'w+2=term'
p656
aS'w+2=that'
p657
aS'w+2=the'
p658
aS'w+2=these'
p659
aS'w+2=they'
p660
aS'w+2=this'
p661
aS'w+2=those'
p662
aS'w+2=timetable'
p663
aS'w+2=to'
p664
aS'w+2=today'
p665
aS'w+2=too'
p666
aS'w+2=township'
p667
aS'w+2=training'
p668
aS'w+2=transnational'
p669
aS'w+2=troops'
p670
aS'w+2=two'
p671
aS'w+2=voter'
p672
aS'w+2=voting'
p673
aS'w+2=war'
p674
aS'w+2=we'
p675
aS'w+2=what'
p676
aS'w+2=where'
p677
aS'w+2=while'
p678
aS'w+2=who'
p679
aS'w+2=wildfire'
p680
aS'w+2=will'
p681
aS'w+2=with'
p682
aS'w+2=woman'
p683
aS'w+2=world'
p684
aS'w+2=would'
p685
aS'w+2=you'
p686
aS'w+2=young'
p687
aS"w-1='"
p688
aS"w-1=''"
p689
aS"w-1='s"
p690
aS'w-1=VHS'
p691
aS'w-1=`'
p692
aS'w-1=a'
p693
aS'w-1=add'
p694
aS'w-1=adverse'
p695
aS'w-1=adversely'
p696
aS'w-1=already'
p697
aS'w-1=also'
p698
aS'w-1=and'
p699
aS'w-1=any'
p700
aS'w-1=as'
p701
aS'w-1=bad'
p702
aS'w-1=banker'
p703
aS'w-1=be'
p704
aS'w-1=beneficial'
p705
aS'w-1=better'
p706
aS'w-1=big'
p707
aS'w-1=bigger'
p708
aS'w-1=biggest'
p709
aS'w-1=broader'
p710
aS'w-1=budgetary'
p711
aS'w-1=can'
p712
aS'w-1=catastrophic'
p713
aS'w-1=change'
p714
aS'w-1=choir'
p715
aS'w-1=corrosive'
p716
aS'w-1=could'
p717
aS'w-1=course'
p718
aS'w-1=cultural'
p719
aS'w-1=decide'
p720
aS'w-1=decisive'
p721
aS'w-1=defensive'
p722
aS'w-1=deleterious'
p723
aS'w-1=detrimental'
p724
aS'w-1=devastating'
p725
aS'w-1=direct'
p726
aS'w-1=disproportionate'
p727
aS'w-1=dramatic'
p728
aS'w-1=economic'
p729
aS'w-1=emotional'
p730
aS'w-1=enormous'
p731
aS'w-1=environmental'
p732
aS'w-1=expect'
p733
aS'w-1=extraordinary'
p734
aS'w-1=far-reaching'
p735
aS'w-1=financial'
p736
aS'w-1=global'
p737
aS'w-1=grave'
p738
aS'w-1=great'
p739
aS'w-1=greater'
p740
aS'w-1=greatest'
p741
aS'w-1=grow'
p742
aS'w-1=happening'
p743
aS'w-1=have'
p744
aS'w-1=he'
p745
aS'w-1=health'
p746
aS'w-1=heavy'
p747
aS'w-1=high'
p748
aS'w-1=highest'
p749
aS'w-1=highly'
p750
aS'w-1=huge'
p751
aS'w-1=human'
p752
aS'w-1=humanitarian'
p753
aS'w-1=immediate'
p754
aS'w-1=important'
p755
aS'w-1=in'
p756
aS'w-1=inflationary'
p757
aS'w-1=its'
p758
aS'w-1=itself'
p759
aS'w-1=just'
p760
aS'w-1=lasting'
p761
aS'w-1=legal'
p762
aS'w-1=less'
p763
aS'w-1=like'
p764
aS'w-1=limit'
p765
aS'w-1=limited'
p766
aS'w-1=little'
p767
aS'w-1=long-lasting'
p768
aS'w-1=long-term'
p769
aS'w-1=longer-range'
p770
aS'w-1=longer-term'
p771
aS'w-1=major'
p772
aS'w-1=massive'
p773
aS'w-1=military'
p774
aS'w-1=missile'
p775
aS'w-1=moderate'
p776
aS'w-1=more'
p777
aS'w-1=most'
p778
aS'w-1=much'
p779
aS'w-1=multiple'
p780
aS'w-1=musical'
p781
aS'w-1=negative'
p782
aS'w-1=negatively'
p783
aS'w-1=no'
p784
aS'w-1=not'
p785
aS'w-1=of'
p786
aS'w-1=off-field'
p787
aS'w-1=often'
p788
aS'w-1=only'
p789
aS'w-1=or'
p790
aS'w-1=overall'
p791
aS'w-1=overwhelming'
p792
aS'w-1=past'
p793
aS'w-1=pattern'
p794
aS'w-1=political'
p795
aS'w-1=positive'
p796
aS'w-1=possible'
p797
aS'w-1=potential'
p798
aS'w-1=potentially'
p799
aS'w-1=practical'
p800
aS'w-1=profound'
p801
aS'w-1=psychological'
p802
aS'w-1=quick'
p803
aS'w-1=real'
p804
aS'w-1=really'
p805
aS'w-1=regional'
p806
aS'w-1=relatively'
p807
aS'w-1=remarkable'
p808
aS'w-1=security'
p809
aS'w-1=see'
p810
aS'w-1=serious'
p811
aS'w-1=severe'
p812
aS'w-1=show'
p813
aS'w-1=significant'
p814
aS'w-1=significantly'
p815
aS'w-1=similar'
p816
aS'w-1=social'
p817
aS'w-1=some'
p818
aS'w-1=special'
p819
aS'w-1=spreading'
p820
aS'w-1=start'
p821
aS'w-1=sufficient'
p822
aS'w-1=symbolic'
p823
aS'w-1=tangible'
p824
aS'w-1=term'
p825
aS'w-1=terrible'
p826
aS'w-1=terrific'
p827
aS'w-1=that'
p828
aS'w-1=the'
p829
aS'w-1=they'
p830
aS'w-1=to'
p831
aS'w-1=total'
p832
aS'w-1=transformative'
p833
aS'w-1=tremendous'
p834
aS'w-1=true'
p835
aS'w-1=two'
p836
aS'w-1=upon'
p837
aS'w-1=violation'
p838
aS'w-1=visual'
p839
aS'w-1=what'
p840
aS'w-1=which'
p841
aS'w-1=widespread'
p842
aS'w-1=will'
p843
aS'w-1=with'
p844
aS'w-1=woe'
p845
aS'w-1=worldwide'
p846
aS'w-1=worst'
p847
aS'w-1=would'
p848
aS'w-2=%'
p849
aS"w-2=''"
p850
aS"w-2='s"
p851
aS'w-2=,'
p852
aS'w-2=-lrb-'
p853
aS'w-2=-rrb-'
p854
aS'w-2=.'
p855
aS'w-2=?'
p856
aS'w-2=Blair'
p857
aS'w-2=Cheney'
p858
aS'w-2=Corps'
p859
aS'w-2=Economic'
p860
aS'w-2=Robinson'
p861
aS'w-2=States'
p862
aS'w-2=Syria'
p863
aS'w-2=a'
p864
aS'w-2=ability'
p865
aS'w-2=about'
p866
aS'w-2=actual'
p867
aS'w-2=actually'
p868
aS'w-2=address'
p869
aS'w-2=all'
p870
aS'w-2=alleviate'
p871
aS'w-2=almost'
p872
aS'w-2=already'
p873
aS'w-2=also'
p874
aS'w-2=alter'
p875
aS'w-2=analyze'
p876
aS'w-2=and'
p877
aS'w-2=any'
p878
aS'w-2=assess'
p879
aS'w-2=at'
p880
aS'w-2=bad'
p881
aS'w-2=be'
p882
aS'w-2=because'
p883
aS'w-2=before'
p884
aS'w-2=begin'
p885
aS'w-2=believe'
p886
aS'w-2=broad'
p887
aS'w-2=but'
p888
aS'w-2=by'
p889
aS'w-2=calculate'
p890
aS'w-2=call'
p891
aS'w-2=can'
p892
aS'w-2=change'
p893
aS'w-2=climate'
p894
aS'w-2=commercial'
p895
aS'w-2=confirm'
p896
aS'w-2=consider'
p897
aS'w-2=control'
p898
aS'w-2=counter'
p899
aS'w-2=create'
p900
aS'w-2=cushion'
p901
aS'w-2=deal'
p902
aS'w-2=defray'
p903
aS'w-2=demonstrate'
p904
aS'w-2=describe'
p905
aS'w-2=despite'
p906
aS'w-2=detrimental'
p907
aS'w-2=discuss'
p908
aS'w-2=do'
p909
aS'w-2=document'
p910
aS'w-2=downplay'
p911
aS'w-2=ease'
p912
aS'w-2=economy'
p913
aS'w-2=enduring'
p914
aS'w-2=energy'
p915
aS'w-2=equally'
p916
aS'w-2=escalate'
p917
aS'w-2=especially'
p918
aS'w-2=even'
p919
aS'w-2=examine'
p920
aS'w-2=explore'
p921
aS'w-2=fair'
p922
aS'w-2=feel'
p923
aS'w-2=find'
p924
aS'w-2=follow'
p925
aS'w-2=for'
p926
aS'w-2=foundation'
p927
aS'w-2=from'
p928
aS'w-2=further'
p929
aS'w-2=go'
p930
aS'w-2=have'
p931
aS'w-2=home'
p932
aS'w-2=how'
p933
aS'w-2=huge'
p934
aS'w-2=illustrate'
p935
aS'w-2=imagine'
p936
aS'w-2=impasse'
p937
aS'w-2=improve'
p938
aS'w-2=in'
p939
aS'w-2=include'
p940
aS'w-2=into'
p941
aS'w-2=issue'
p942
aS'w-2=it'
p943
aS'w-2=its'
p944
aS'w-2=kind'
p945
aS'w-2=legislation'
p946
aS'w-2=lessen'
p947
aS'w-2=like'
p948
aS'w-2=limit'
p949
aS'w-2=little'
p950
aS'w-2=longer'
p951
aS'w-2=major'
p952
aS'w-2=make'
p953
aS'w-2=maximize'
p954
aS'w-2=may'
p955
aS'w-2=measure'
p956
aS'w-2=minimize'
p957
aS'w-2=miss'
p958
aS'w-2=mitigate'
p959
aS'w-2=more'
p960
aS'w-2=much'
p961
aS'w-2=narrow'
p962
aS'w-2=negative'
p963
aS'w-2=no'
p964
aS'w-2=not'
p965
aS'w-2=note'
p966
aS'w-2=now'
p967
aS'w-2=of'
p968
aS'w-2=often'
p969
aS'w-2=on'
p970
aS'w-2=overwhelmingly'
p971
aS'w-2=plan'
p972
aS'w-2=positive'
p973
aS'w-2=potential'
p974
aS'w-2=program'
p975
aS'w-2=real'
p976
aS'w-2=really'
p977
aS'w-2=reduce'
p978
aS'w-2=revenue'
p979
aS'w-2=risk'
p980
aS'w-2=ruling'
p981
aS'w-2=say'
p982
aS'w-2=see'
p983
aS'w-2=severe'
p984
aS'w-2=short-term'
p985
aS'w-2=significant'
p986
aS'w-2=size'
p987
aS'w-2=so'
p988
aS'w-2=somebody'
p989
aS'w-2=stem'
p990
aS'w-2=study'
p991
aS'w-2=such'
p992
aS'w-2=suffer'
p993
aS'w-2=tackle'
p994
aS'w-2=tell'
p995
aS'w-2=that'
p996
aS'w-2=the'
p997
aS'w-2=they'
p998
aS'w-2=think'
p999
aS'w-2=those'
p1000
aS'w-2=to'
p1001
aS'w-2=total'
p1002
aS'w-2=type'
p1003
aS'w-2=underestimate'
p1004
aS'w-2=understand'
p1005
aS'w-2=very'
p1006
aS'w-2=violation'
p1007
aS'w-2=virus'
p1008
aS'w-2=want'
p1009
aS'w-2=war'
p1010
aS'w-2=warming'
p1011
aS'w-2=way'
p1012
aS'w-2=weather'
p1013
aS'w-2=well'
p1014
aS'w-2=what'
p1015
aS'w-2=whatever'
p1016
aS'w-2=will'
p1017
aS'w-2=with'
p1018
aS'w-2=witness'
p1019
aS'w-2=would'
p1020
aS'w-2=yield'
p1021
aS'w-2=youth'
p1022
asS'dtype'
p1023
cnumpy
float64
p1024
sS'vocabulary_'
p1025
(dp1026
g336
I327
sg663
I654
sg772
I763
sg328
I319
sg735
I726
sg164
I155
sg922
I913
sg204
I195
sg1004
I995
sg192
I183
sg177
I168
sg524
I515
sg515
I506
sg753
I744
sg688
I679
sg189
I180
sg543
I534
sg180
I171
sg797
I788
sg702
I693
sg619
I610
sg527
I518
sg471
I462
sg589
I580
sg484
I475
sg671
I662
sg834
I825
sg333
I324
sg901
I892
sg58
I49
sg182
I173
sg305
I296
sg590
I581
sg729
I720
sg49
I40
sg172
I163
sg691
I682
sg998
I989
sg516
I507
sg764
I755
sg206
I197
sg945
I936
sg388
I379
sg591
I582
sg747
I738
sg316
I307
sg614
I605
sg848
I839
sg967
I958
sg476
I467
sg387
I378
sg498
I489
sg625
I616
sg914
I905
sg235
I226
sg103
I94
sg244
I235
sg574
I565
sg806
I797
sg751
I742
sg33
I24
sg30
I21
sg337
I328
sg607
I598
sg354
I345
sg927
I918
sg301
I292
sg317
I308
sg324
I315
sg1002
I993
sg843
I834
sg286
I277
sg935
I926
sg56
I47
sg1003
I994
sg937
I928
sg769
I760
sg466
I457
sg126
I117
sg814
I805
sg140
I131
sg10
I1
sg746
I737
sg905
I896
sg810
I801
sg994
I985
sg232
I223
sg400
I391
sg448
I439
sg444
I435
sg576
I567
sg378
I369
sg176
I167
sg997
I988
sg820
I811
sg382
I373
sg733
I724
sg380
I371
sg41
I32
sg178
I169
sg81
I72
sg833
I824
sg60
I51
sg35
I26
sg168
I159
sg558
I549
sg486
I477
sg539
I530
sg96
I87
sg371
I362
sg715
I706
sg876
I867
sg664
I655
sg372
I363
sg844
I835
sg787
I778
sg279
I270
sg571
I562
sg727
I718
sg1016
I1007
sg818
I809
sg421
I412
sg461
I452
sg641
I632
sg758
I749
sg744
I735
sg274
I265
sg128
I119
sg601
I592
sg555
I546
sg925
I916
sg667
I658
sg252
I243
sg557
I548
sg465
I456
sg676
I667
sg567
I558
sg326
I317
sg436
I427
sg458
I449
sg752
I743
sg741
I732
sg951
I942
sg149
I140
sg717
I708
sg698
I689
sg137
I128
sg153
I144
sg289
I280
sg374
I365
sg805
I796
sg703
I694
sg353
I344
sg122
I113
sg730
I721
sg495
I486
sg695
I686
sg462
I453
sg681
I672
sg1011
I1002
sg435
I426
sg349
I340
sg859
I850
sg789
I780
sg200
I191
sg996
I987
sg389
I380
sg652
I643
sg793
I784
sg916
I907
sg27
I18
sg460
I451
sg373
I364
sg390
I381
sg1019
I1010
sg229
I220
sg616
I607
sg697
I688
sg57
I48
sg26
I17
sg82
I73
sg565
I556
sg294
I285
sg226
I217
sg143
I134
sg40
I31
sg796
I787
sg649
I640
sg921
I912
sg63
I54
sg586
I577
sg773
I764
sg801
I792
sg223
I214
sg433
I424
sg533
I524
sg737
I728
sg110
I101
sg427
I418
sg523
I514
sg863
I854
sg799
I790
sg991
I982
sg518
I509
sg612
I603
sg549
I540
sg957
I948
sg714
I705
sg643
I634
sg132
I123
sg125
I116
sg331
I322
sg356
I347
sg217
I208
sg973
I964
sg452
I443
sg240
I231
sg441
I432
sg552
I543
sg750
I741
sg645
I636
sg264
I255
sg531
I522
sg329
I320
sg866
I857
sg411
I402
sg257
I248
sg881
I872
sg748
I739
sg816
I807
sg270
I261
sg417
I408
sg875
I866
sg94
I85
sg468
I459
sg954
I945
sg869
I860
sg659
I650
sg220
I211
sg241
I232
sg124
I115
sg803
I794
sg969
I960
sg12
I3
sg112
I103
sg854
I845
sg829
I820
sg386
I377
sg307
I298
sg896
I887
sg566
I557
sg267
I258
sg579
I570
sg84
I75
sg526
I517
sg532
I523
sg221
I212
sg594
I585
sg762
I753
sg87
I78
sg647
I638
sg31
I22
sg48
I39
sg303
I294
sg263
I254
sg666
I657
sg618
I609
sg358
I349
sg1008
I999
sg260
I251
sg886
I877
sg195
I186
sg396
I387
sg944
I935
sg823
I814
sg160
I151
sg295
I286
sg517
I508
sg500
I491
sg968
I959
sg340
I331
sg67
I58
sg80
I71
sg915
I906
sg553
I544
sg831
I822
sg783
I774
sg429
I420
sg19
I10
sg104
I95
sg38
I29
sg442
I433
sg587
I578
sg836
I827
sg946
I937
sg740
I731
sg199
I190
sg311
I302
sg909
I900
sg376
I367
sg721
I712
sg92
I83
sg395
I386
sg254
I245
sg281
I272
sg405
I396
sg25
I16
sg827
I818
sg867
I858
sg865
I856
sg129
I120
sg936
I927
sg265
I256
sg718
I709
sg765
I756
sg74
I65
sg70
I61
sg364
I355
sg23
I14
sg678
I669
sg868
I859
sg111
I102
sg907
I898
sg167
I158
sg247
I238
sg642
I633
sg234
I225
sg763
I754
sg475
I466
sg749
I740
sg732
I723
sg736
I727
sg712
I703
sg626
I617
sg934
I925
sg917
I908
sg970
I961
sg704
I695
sg534
I525
sg742
I733
sg469
I460
sg499
I490
sg193
I184
sg847
I838
sg144
I135
sg352
I343
sg899
I890
sg42
I33
sg24
I15
sg288
I279
sg414
I405
sg777
I768
sg196
I187
sg409
I400
sg69
I60
sg631
I622
sg478
I469
sg292
I283
sg214
I205
sg273
I264
sg186
I177
sg398
I389
sg430
I421
sg919
I910
sg597
I588
sg119
I110
sg615
I606
sg677
I668
sg457
I448
sg779
I770
sg181
I172
sg131
I122
sg756
I747
sg817
I808
sg726
I717
sg807
I798
sg197
I188
sg675
I666
sg690
I681
sg88
I79
sg485
I476
sg898
I889
sg835
I826
sg424
I415
sg781
I772
sg77
I68
sg20
I11
sg672
I663
sg791
I782
sg115
I106
sg890
I881
sg66
I57
sg634
I625
sg71
I62
sg47
I38
sg266
I257
sg903
I894
sg300
I291
sg474
I465
sg728
I719
sg846
I837
sg720
I711
sg43
I34
sg297
I288
sg639
I630
sg415
I406
sg481
I472
sg564
I555
sg593
I584
sg572
I563
sg928
I919
sg682
I673
sg127
I118
sg689
I680
sg15
I6
sg825
I816
sg1000
I991
sg368
I359
sg53
I44
sg11
I2
sg64
I55
sg629
I620
sg473
I464
sg73
I64
sg985
I976
sg984
I975
sg327
I318
sg570
I561
sg871
I862
sg61
I52
sg784
I775
sg450
I441
sg738
I729
sg106
I97
sg262
I253
sg599
I590
sg995
I986
sg850
I841
sg258
I249
sg596
I587
sg580
I571
sg598
I589
sg393
I384
sg62
I53
sg194
I185
sg708
I699
sg459
I450
sg91
I82
sg259
I250
sg633
I624
sg541
I532
sg512
I503
sg191
I182
sg315
I306
sg1014
I1005
sg65
I56
sg175
I166
sg542
I533
sg46
I37
sg52
I43
sg885
I876
sg893
I884
sg323
I314
sg700
I691
sg538
I529
sg209
I200
sg271
I262
sg530
I521
sg496
I487
sg494
I485
sg669
I660
sg525
I516
sg55
I46
sg210
I201
sg490
I481
sg36
I27
sg545
I536
sg296
I287
sg219
I210
sg528
I519
sg851
I842
sg839
I830
sg201
I192
sg489
I480
sg377
I368
sg306
I297
sg722
I713
sg32
I23
sg381
I372
sg947
I938
sg897
I888
sg605
I596
sg246
I237
sg423
I414
sg249
I240
sg582
I573
sg964
I955
sg578
I569
sg108
I99
sg930
I921
sg802
I793
sg812
I803
sg280
I271
sg335
I326
sg385
I376
sg680
I671
sg1013
I1004
sg860
I851
sg45
I36
sg202
I193
sg1020
I1011
sg941
I932
sg472
I463
sg662
I653
sg707
I698
sg608
I599
sg974
I965
sg613
I604
sg118
I109
sg507
I498
sg661
I652
sg479
I470
sg86
I77
sg420
I411
sg492
I483
sg242
I233
sg208
I199
sg932
I923
sg449
I440
sg504
I495
sg819
I810
sg102
I93
sg155
I146
sg169
I160
sg654
I645
sg621
I612
sg454
I445
sg856
I847
sg959
I950
sg184
I175
sg630
I621
sg577
I568
sg1018
I1009
sg370
I361
sg874
I865
sg142
I133
sg237
I228
sg858
I849
sg17
I8
sg583
I574
sg794
I785
sg123
I114
sg511
I502
sg225
I216
sg156
I147
sg439
I430
sg790
I781
sg248
I239
sg302
I293
sg147
I138
sg902
I893
sg585
I576
sg97
I88
sg231
I222
sg399
I390
sg559
I550
sg313
I304
sg778
I769
sg620
I611
sg568
I559
sg551
I542
sg711
I702
sg117
I108
sg972
I963
sg278
I269
sg13
I4
sg332
I323
sg152
I143
sg904
I895
sg9
I0
sg939
I930
sg884
I875
sg133
I124
sg151
I142
sg943
I934
sg950
I941
sg503
I494
sg493
I484
sg894
I885
sg520
I511
sg502
I493
sg522
I513
sg162
I153
sg632
I623
sg513
I504
sg768
I759
sg351
I342
sg980
I971
sg573
I564
sg873
I864
sg150
I141
sg39
I30
sg546
I537
sg617
I608
sg269
I260
sg109
I100
sg491
I482
sg345
I336
sg837
I828
sg971
I962
sg406
I397
sg59
I50
sg357
I348
sg18
I9
sg770
I761
sg979
I970
sg464
I455
sg222
I213
sg236
I227
sg212
I203
sg238
I229
sg1012
I1003
sg134
I125
sg911
I902
sg910
I901
sg657
I648
sg975
I966
sg434
I425
sg862
I853
sg891
I882
sg268
I259
sg931
I922
sg569
I560
sg145
I136
sg480
I471
sg394
I385
sg906
I897
sg418
I409
sg962
I953
sg822
I813
sg283
I274
sg339
I330
sg233
I224
sg743
I734
sg760
I751
sg334
I325
sg977
I968
sg963
I954
sg1015
I1006
sg369
I360
sg253
I244
sg407
I398
sg1010
I1001
sg362
I353
sg723
I714
sg646
I637
sg508
I499
sg230
I221
sg363
I354
sg79
I70
sg606
I597
sg361
I352
sg366
I357
sg920
I911
sg239
I230
sg285
I276
sg251
I242
sg536
I527
sg983
I974
sg130
I121
sg319
I310
sg146
I137
sg958
I949
sg477
I468
sg397
I388
sg650
I641
sg719
I710
sg276
I267
sg198
I189
sg463
I454
sg815
I806
sg501
I492
sg1022
I1013
sg138
I129
sg929
I920
sg924
I915
sg895
I886
sg792
I783
sg383
I374
sg488
I479
sg775
I766
sg981
I972
sg923
I914
sg581
I572
sg993
I984
sg674
I665
sg761
I752
sg731
I722
sg644
I635
sg416
I407
sg687
I678
sg948
I939
sg347
I338
sg277
I268
sg431
I422
sg841
I832
sg766
I757
sg648
I639
sg706
I697
sg309
I300
sg990
I981
sg99
I90
sg188
I179
sg228
I219
sg882
I873
sg1005
I996
sg716
I707
sg535
I526
sg776
I767
sg367
I358
sg298
I289
sg287
I278
sg759
I750
sg375
I366
sg93
I84
sg602
I593
sg889
I880
sg261
I252
sg203
I194
sg554
I545
sg780
I771
sg321
I312
sg75
I66
sg166
I157
sg159
I150
sg734
I725
sg808
I799
sg179
I170
sg548
I539
sg673
I664
sg272
I263
sg651
I642
sg85
I76
sg653
I644
sg487
I478
sg330
I321
sg16
I7
sg54
I45
sg611
I602
sg638
I629
sg428
I419
sg243
I234
sg174
I165
sg344
I335
sg913
I904
sg826
I817
sg453
I444
sg95
I86
sg622
I613
sg892
I883
sg100
I91
sg640
I631
sg1009
I1000
sg456
I447
sg438
I429
sg497
I488
sg992
I983
sg771
I762
sg68
I59
sg872
I863
sg506
I497
sg713
I704
sg853
I844
sg800
I791
sg314
I305
sg786
I777
sg960
I951
sg384
I375
sg1001
I992
sg455
I446
sg877
I868
sg170
I161
sg879
I870
sg857
I848
sg795
I786
sg821
I812
sg832
I823
sg505
I496
sg1007
I998
sg521
I512
sg842
I833
sg98
I89
sg391
I382
sg912
I903
sg173
I164
sg878
I869
sg14
I5
sg592
I583
sg949
I940
sg157
I148
sg37
I28
sg401
I392
sg774
I765
sg623
I614
sg870
I861
sg404
I395
sg544
I535
sg978
I969
sg679
I670
sg982
I973
sg755
I746
sg562
I553
sg207
I198
sg658
I649
sg709
I700
sg1017
I1008
sg290
I281
sg519
I510
sg529
I520
sg852
I843
sg855
I846
sg413
I404
sg887
I878
sg699
I690
sg849
I840
sg824
I815
sg72
I63
sg256
I247
sg139
I130
sg101
I92
sg888
I879
sg312
I303
sg443
I434
sg410
I401
sg989
I980
sg999
I990
sg426
I417
sg636
I627
sg148
I139
sg965
I956
sg343
I334
sg1021
I1012
sg637
I628
sg161
I152
sg966
I957
sg76
I67
sg120
I111
sg563
I554
sg880
I871
sg556
I547
sg29
I20
sg34
I25
sg121
I112
sg861
I852
sg609
I600
sg933
I924
sg757
I748
sg165
I156
sg809
I800
sg955
I946
sg284
I275
sg483
I474
sg547
I538
sg686
I677
sg845
I836
sg684
I675
sg107
I98
sg665
I656
sg116
I107
sg561
I552
sg670
I661
sg346
I337
sg482
I473
sg864
I855
sg830
I821
sg190
I181
sg693
I684
sg692
I683
sg696
I687
sg90
I81
sg392
I383
sg360
I351
sg425
I416
sg445
I436
sg628
I619
sg988
I979
sg710
I701
sg953
I944
sg745
I736
sg348
I339
sg767
I758
sg560
I551
sg940
I931
sg211
I202
sg158
I149
sg804
I795
sg215
I206
sg355
I346
sg1006
I997
sg187
I178
sg595
I586
sg21
I12
sg952
I943
sg299
I290
sg83
I74
sg282
I273
sg154
I145
sg660
I651
sg942
I933
sg537
I528
sg584
I575
sg419
I410
sg218
I209
sg540
I531
sg224
I215
sg51
I42
sg798
I789
sg627
I618
sg926
I917
sg782
I773
sg604
I595
sg44
I35
sg838
I829
sg183
I174
sg467
I458
sg725
I716
sg603
I594
sg135
I126
sg22
I13
sg440
I431
sg986
I977
sg245
I236
sg918
I909
sg293
I284
sg656
I647
sg600
I591
sg510
I501
sg900
I891
sg402
I393
sg205
I196
sg163
I154
sg683
I674
sg250
I241
sg754
I745
sg341
I332
sg141
I132
sg185
I176
sg961
I952
sg956
I947
sg50
I41
sg685
I676
sg813
I804
sg412
I403
sg447
I438
sg987
I978
sg624
I615
sg304
I295
sg908
I899
sg432
I423
sg318
I309
sg213
I204
sg668
I659
sg550
I541
sg320
I311
sg113
I104
sg322
I313
sg342
I333
sg216
I207
sg28
I19
sg588
I579
sg408
I399
sg788
I779
sg308
I299
sg227
I218
sg89
I80
sg365
I356
sg811
I802
sg325
I316
sg610
I601
sg291
I282
sg310
I301
sg575
I566
sg422
I413
sg938
I929
sg255
I246
sg114
I105
sg171
I162
sg350
I341
sg840
I831
sg403
I394
sg785
I776
sg275
I266
sg514
I505
sg78
I69
sg338
I329
sg739
I730
sg437
I428
sg359
I350
sg701
I692
sg105
I96
sg883
I874
sg470
I461
sg705
I696
sg828
I819
sg136
I127
sg976
I967
sg635
I626
sg509
I500
sg451
I442
sg379
I370
sg694
I685
sg446
I437
sg655
I646
sg724
I715
ssS'separator'
p1027
S'='
sS'sparse'
p1028
I01
sb.