ccopy_reg
_reconstructor
p1
(csklearn.feature_extraction.dict_vectorizer
DictVectorizer
p2
c__builtin__
object
p3
NtRp4
(dp5
S'vocabulary_'
p6
(dp7
S'advmod=possibly'
p8
I12
sS'det=no'
p9
I76
sS'w-2=bill'
p10
I470
sS'w-2=we'
p11
I554
sS'w-2=people'
p12
I521
sS'w-2=Muslims'
p13
I454
sS'w+2=health'
p14
I335
sS'dobj=civilian'
p15
I97
sS'w-1=possible'
p16
I428
sS'conj=require'
p17
I61
sS'w-2=level'
p18
I511
sS'w+2=but'
p19
I302
sS'w+2=civilian'
p20
I308
sS'w+1=physically'
p21
I260
sS'nn=country'
p22
I142
sS'w-2=arrest'
p23
I466
sS'nsubj=attack'
p24
I150
sS'w+2=worker'
p25
I378
sS'w+2=ocean'
p26
I347
sS'w-2=they'
p27
I543
sS'w+2=freedom'
p28
I327
sS'prep=by'
p29
I199
sS'w-2=country'
p30
I484
sS'w+1=that'
p31
I267
sS'w-2=Mugabe'
p32
I453
sS'w-2=not'
p33
I516
sS'amod=irremediable'
p34
I21
sS'w+1=than'
p35
I266
sS'dobj=industry'
p36
I113
sS'w+2=movement'
p37
I345
sS'w-2=from'
p38
I497
sS'w+2=peace'
p39
I352
sS'w-2=citizen'
p40
I478
sS'w-2=intend'
p41
I508
sS'conj=destroy'
p42
I54
sS'w-1=will'
p43
I441
sS'dobj=effort'
p44
I104
sS'w+2=bilateral'
p45
I301
sS'nsubj=deforestation'
p46
I158
sS'aux=may'
p47
I39
sS'conj=stop'
p48
I63
sS'w-1=be'
p49
I392
sS'nsubj=politics'
p50
I172
sS'nsubj=incursion'
p51
I165
sS'w-2=the'
p52
I541
sS'w-1=avoid'
p53
I391
sS'dobj=talk'
p54
I131
sS'conj=little'
p55
I57
sS'advmod=seriously'
p56
I13
sS'xcomp=conduct'
p57
I561
sS'nsubj=clash'
p58
I154
sS'aux=might'
p59
I40
sS'w+2=country'
p60
I312
sS'w+2=to'
p61
I372
sS'w+1=on'
p62
I255
sS'w-2=important'
p63
I504
sS'w-2=initiative'
p64
I507
sS'dobj=Kenyans'
p65
I82
sS'w-2=home'
p66
I502
sS'w-2=continue'
p67
I481
sS'w-1=have'
p68
I407
sS'partmod=cause'
p69
I196
sS'dobj=cause'
p70
I93
sS'w+2=specialist'
p71
I361
sS'w+2=in'
p72
I336
sS'w+2=it'
p73
I338
sS'dobj=deterrence'
p74
I102
sS'w-2=see'
p75
I529
sS'w-1=severe'
p76
I431
sS'w-2=aim'
p77
I462
sS'w-1=irremediable'
p78
I413
sS'w-1=could'
p79
I398
sS'w+2=between'
p80
I300
sS'w-1=also'
p81
I387
sS'dobj=Islam'
p82
I81
sS'complm=that'
p83
I50
sS'w+1=people'
p84
I259
sS'w-2=Israel'
p85
I451
sS'dobj=area'
p86
I91
sS'nsubj=digging'
p87
I159
sS'advmod=at'
p88
I5
sS'dobj=career'
p89
I92
sS'w+1=reduction'
p90
I262
sS'xcomp=fight'
p91
I562
sS'w-1=from'
p92
I402
sS'w+1=not'
p93
I254
sS'w-2=effort'
p94
I489
sS'w-1=only'
p95
I423
sS'dobj=Americans'
p96
I80
sS'w+2=by'
p97
I303
sS'w+1=the'
p98
I268
sS'advmod=only'
p99
I7
sS'w+2=be'
p100
I298
sS'w+1=they'
p101
I269
sS'nsubj=Israel'
p102
I145
sS'w+1=those'
p103
I271
sS'w-1=already'
p104
I386
sS'nsubjpass=#PRP#'
p105
I188
sS'w-2=out'
p106
I520
sS'prep=in'
p107
I202
sS'aux=would'
p108
I43
sS'w-1=unforeseen'
p109
I438
sS'w+1=Africa'
p110
I214
sS'w+2=mining'
p111
I342
sS'w+2=status'
p112
I363
sS'dobj=thing'
p113
I132
sS'dobj=relic'
p114
I124
sS'nsubj=method'
p115
I169
sS'w+1=iraqi'
p116
I249
sS'prep=to'
p117
I205
sS'w-1=at'
p118
I390
sS'dobj=worker'
p119
I136
sS'w-2=minimize'
p120
I513
sS'ccomp=deteriorate'
p121
I48
sS'w+1=and'
p122
I227
sS'w+2=even'
p123
I324
sS'rcmod=cause'
p124
I207
sS'w+2=already'
p125
I293
sS'w+2=for'
p126
I326
sS'conj=kill'
p127
I56
sS'w+1=other'
p128
I257
sS'w+1=any'
p129
I228
sS'nsubj=that'
p130
I183
sS'w-1=it'
p131
I414
sS'w-2=Americans'
p132
I447
sS'w-1=in'
p133
I408
sS'w+2=we'
p134
I376
sS'dobj=all'
p135
I88
sS'w-2=themselves'
p136
I542
sS'nsubj=adoption'
p137
I147
sS'w-1=the'
p138
I434
sS'w+2=competitiveness'
p139
I310
sS'dep=think'
p140
I73
sS'mark=if'
p141
I139
sS'w-1=unacceptable'
p142
I437
sS'w-2=change'
p143
I475
sS'nsubj=move'
p144
I170
sS'w+1=legislation'
p145
I252
sS'w-2=guilty'
p146
I499
sS'nsubj=initiative'
p147
I166
sS'dobj=growth'
p148
I111
sS'amod=long-term'
p149
I22
sS'w-2=cause'
p150
I474
sS'w-2=inflict'
p151
I506
sS'w+1=innocent'
p152
I248
sS'dobj=agriculture'
p153
I87
sS'w-1=Meshaal'
p154
I381
sS'dobj=city'
p155
I96
sS'amod=unforeseen'
p156
I31
sS'nsubj=chaos'
p157
I153
sS'w-2=NAFTA'
p158
I455
sS'w+2=national'
p159
I346
sS'dep=relation'
p160
I71
sS'det=the'
p161
I77
sS'w-2=export'
p162
I491
sS'w+2=someone'
p163
I360
sS'dobj=country'
p164
I100
sS'dobj=people'
p165
I118
sS'w+2=gentleman'
p166
I329
sS'dobj=mission'
p167
I116
sS'w+2=kill'
p168
I340
sS'w-2=or'
p169
I519
sS'nsubj=who'
p170
I186
sS'w+1=both'
p171
I233
sS'w-1=worker'
p172
I444
sS'w-2=of'
p173
I517
sS'w-2=briefing'
p174
I471
sS'amod=great'
p175
I18
sS'nsubj=failure'
p176
I162
sS'w-1=to'
p177
I436
sS'w+2=credibility'
p178
I313
sS'nsubjpass=crew'
p179
I191
sS'amod=unpredictable'
p180
I32
sS'w-1=greater'
p181
I406
sS'dobj=#PRP#'
p182
I78
sS'w-2=do'
p183
I488
sS'w-1=without'
p184
I443
sS'w+1=you'
p185
I280
sS'w+1=farmer'
p186
I241
sS'w-2=serve'
p187
I531
sS'advmod=personally'
p188
I10
sS'w-2=attack'
p189
I468
sS'w+2=rights'
p190
I357
sS'w+2=effort'
p191
I321
sS'w-1=actually'
p192
I385
sS'xcomp=reach'
p193
I563
sS'nsubj=sanction'
p194
I179
sS'w+1=he'
p195
I243
sS'w+2=dispute'
p196
I316
sS'w-1=would'
p197
I445
sS'w-1=can'
p198
I394
sS'w-1=construction'
p199
I397
sS'dobj=protester'
p200
I121
sS'w-2=aid'
p201
I461
sS'w-1=with'
p202
I442
sS'w+2=because'
p203
I299
sS'w+1=Afghanistan'
p204
I213
sS'w+1=two'
p205
I275
sS'w+2=protester'
p206
I354
sS'w-1=more'
p207
I418
sS'w+2=environment'
p208
I323
sS'amod=actual'
p209
I14
sS'conj=prospects'
p210
I60
sS'w-1=Ankara'
p211
I380
sS'prep=for'
p212
I200
sS'dep=that'
p213
I72
sS'w+1=we'
p214
I278
sS'nsubj=harassment'
p215
I164
sS'w-2=soldier'
p216
I534
sS'w+2=talk'
p217
I366
sS'w-1=much'
p218
I419
sS'dobj=anyone'
p219
I90
sS'advcl=violate'
p220
I0
sS'w+2=seal'
p221
I358
sS'auxpass=be'
p222
I44
sS'w+2=Australia'
p223
I287
sS'w-1=into'
p224
I412
sS'w+2=could'
p225
I311
sS'w-2=year'
p226
I560
sS'amod=tangible'
p227
I29
sS'w-1=party'
p228
I425
sS'dobj=community'
p229
I98
sS'w-2=United'
p230
I456
sS'w+2=mission'
p231
I344
sS'w+2=good'
p232
I331
sS'amod=grave'
p233
I17
sS'w+1=effort'
p234
I239
sS'rcmod=come'
p235
I208
sS'nsubj=step'
p236
I181
sS'nsubj=researcher'
p237
I178
sS'w+2=thing'
p238
I371
sS'w+1=anyone'
p239
I229
sS'nsubj=agreement'
p240
I148
sS'dobj=interest'
p241
I114
sS'w-2=deal'
p242
I485
sS'amod=real'
p243
I27
sS'w-1=cause'
p244
I396
sS'w+2=palestinian'
p245
I351
sS'w-2=those'
p246
I545
sS'w+2=embryo'
p247
I322
sS'nsubj=briefing'
p248
I151
sS'w-1=case'
p249
I395
sS'w+1=Americans'
p250
I216
sS'w-2=that'
p251
I540
sS'conj=do'
p252
I55
sS'w-1=no'
p253
I420
sS'w-1=grave'
p254
I404
sS'nsubj=this'
p255
I184
sS'w+2=of'
p256
I348
sS'dep=community'
p257
I69
sS'w+2=relation'
p258
I356
sS'w+1=to'
p259
I272
sS'w+1=Australia'
p260
I217
sS'w-2=solidarity'
p261
I535
sS'w+2=he'
p262
I334
sS'w-2=Khaled'
p263
I452
sS'det=any'
p264
I75
sS'w-2=bring'
p265
I472
sS'nsubj=reform'
p266
I177
sS'w-1=any'
p267
I389
sS'w+2=area'
p268
I296
sS'nsubj=collapse'
p269
I155
sS'w-2=prevent'
p270
I525
sS'w+2=Islam'
p271
I288
sS'w+2=american'
p272
I294
sS'w-2=civilian'
p273
I479
sS'w+1=attempt'
p274
I230
sS'conj=not'
p275
I58
sS'w+2=from'
p276
I328
sS'w-2=safe'
p277
I527
sS'w-2=somehow'
p278
I536
sS'w-2=who'
p279
I555
sS'w-2=politics'
p280
I523
sS'w-2=go'
p281
I498
sS'w+2=Kurds'
p282
I289
sS'dobj=seal'
p283
I126
sS'conj=suffering'
p284
I64
sS'w-2=would'
p285
I559
sS'w-1=do'
p286
I400
sS'w+2=people'
p287
I353
sS'w+1=Vietnam'
p288
I223
sS'w+1=american'
p289
I226
sS'w-2=student'
p290
I538
sS'nsubj=Indonesia'
p291
I144
sS'w+2=astronaut'
p292
I297
sS'w+1=cause'
p293
I235
sS'w+1=Tiger'
p294
I219
sS'w+1=peace'
p295
I258
sS'w-2=Iraq'
p296
I450
sS'advmod=particularly'
p297
I9
sS'w-2=settlement'
p298
I532
sS'w-2=this'
p299
I544
sS'nsubj=willingness'
p300
I187
sS'w+2=drier'
p301
I318
sS'xcomp=revive'
p302
I565
sS'aux=do'
p303
I37
sS'xcomp=rebuild'
p304
I564
sS'w-2=also'
p305
I463
sS'aux=will'
p306
I42
sS'advmod=already'
p307
I3
sS'w-1=this'
p308
I435
sS'amod=different'
p309
I15
sS'nsubj=States'
p310
I146
sS'prep=with'
p311
I206
sS'nsubj=effect'
p312
I160
sS'cc=or'
p313
I47
sS'amod=much'
p314
I24
sS'dobj=relation'
p315
I123
sS'w-2=troops'
p316
I548
sS'w+2=its'
p317
I339
sS'appos=disruption'
p318
I33
sS'w-2=in'
p319
I505
sS'amod=severe'
p320
I28
sS'w-2=nation'
p321
I515
sS'w-2=victim'
p322
I552
sS'w-2=it'
p323
I509
sS'w+2=do'
p324
I317
sS'w-1=personally'
p325
I426
sS'dobj=freedom'
p326
I109
sS'w+1=future'
p327
I242
sS'dobj=struggle'
p328
I130
sS'advmod=physically'
p329
I11
sS'nsubj=pollution'
p330
I173
sS'advmod=out'
p331
I8
sS'w+1=America'
p332
I215
sS'w+1=relic'
p333
I264
sS'dobj=Venezuela'
p334
I85
sS'w+1=yourself'
p335
I281
sS'dobj=competitiveness'
p336
I99
sS'w+1=civilian'
p337
I236
sS'dobj=embryo'
p338
I105
sS'dobj=environment'
p339
I106
sS"w+2=''"
p340
I283
sS'dobj=farmer'
p341
I108
sS'advmod=also'
p342
I4
sS'w-1=different'
p343
I399
sS'w+2=wait'
p344
I374
sS'nsubjpass=Haniyeh'
p345
I189
sS'w-2=accuse'
p346
I459
sS'w-2=woman'
p347
I558
sS'w-1=real'
p348
I429
sS'cc=and'
p349
I45
sS'w-1=States'
p350
I382
sS'w-1=physical'
p351
I427
sS'w-2=have'
p352
I500
sS'dobj=Woods'
p353
I86
sS'dobj=any'
p354
I89
sS'conj=damage'
p355
I53
sS'w+1=by'
p356
I234
sS'w-2=Earth'
p357
I449
sS'w+1=Egypt'
p358
I218
sS'w+1=be'
p359
I231
sS'nsubj=application'
p360
I149
sS'aux=to'
p361
I41
sS'w+2=subsidy'
p362
I365
sS"w+2='s"
p363
I284
sS'w+1=turtle'
p364
I274
sS'w-2=warning'
p365
I553
sS'w+1=if'
p366
I245
sS'w+2=economy'
p367
I320
sS'w+1=in'
p368
I246
sS'w-1=incursion'
p369
I410
sS'w+1=it'
p370
I251
sS'nsubj=#PRP#'
p371
I143
sS'nsubj=statement'
p372
I180
sS'w-2=hostage'
p373
I503
sS'nsubj=deal'
p374
I157
sS'dobj=gentleman'
p375
I110
sS"w+1=''"
p376
I209
sS'dobj=quo'
p377
I122
sS'dobj=chance'
p378
I94
sS'cc=but'
p379
I46
sS'w+2=career'
p380
I304
sS'nsubj=faith'
p381
I163
sS'w+2=lead'
p382
I341
sS'w-2=undo'
p383
I551
sS'poss=#PRP#'
p384
I197
sS'nsubj=presence'
p385
I174
sS'dobj=prosperity'
p386
I120
sS'dobj=standing'
p387
I129
sS'w+1=israeli'
p388
I250
sS'w+2=ceasefire'
p389
I305
sS'aux=could'
p390
I36
sS'w-2=could'
p391
I483
sS'dobj=image'
p392
I112
sS'w+2=way'
p393
I375
sS'dep=if'
p394
I70
sS'w+2=struggle'
p395
I364
sS'w+1=troops'
p396
I273
sS'advmod=again'
p397
I2
sS'w+1=or'
p398
I256
sS'w-2=any'
p399
I465
sS"possessive='s"
p400
I198
sS'prep=of'
p401
I203
sS'nsubjpass=neither'
p402
I194
sS'w-1=might'
p403
I417
sS'conj=result'
p404
I62
sS'w-2=channel'
p405
I476
sS"w+1='s"
p406
I210
sS'w-2=be'
p407
I469
sS'w-2=understand'
p408
I550
sS'w+2=global'
p409
I330
sS'w-1=further'
p410
I403
sS'w-2=collapse'
p411
I480
sS'dobj=situation'
p412
I128
sS'prep=on'
p413
I204
sS'w-2=determination'
p414
I487
sS'w-1=inflict'
p415
I411
sS'nsubj=man'
p416
I167
sS'w-2=by'
p417
I473
sS'nsubj=which'
p418
I185
sS'w+2=fellow'
p419
I325
sS'dobj=credibility'
p420
I101
sS'dobj=security'
p421
I127
sS'nsubj=tension'
p422
I182
sS'nsubj=export'
p423
I161
sS'w-2=action'
p424
I460
sS'w+2=Woods'
p425
I292
sS'w-2=corruption'
p426
I482
sS'w-1=unpredictable'
p427
I439
sS'dobj=citizen'
p428
I95
sS'cop=seem'
p429
I65
sS'w+1=all'
p430
I225
sS'w-2=failure'
p431
I492
sS'w-2=charge'
p432
I477
sS'w-2=far'
p433
I494
sS'w+2=deterrence'
p434
I314
sS'w+2=that'
p435
I367
sS'w-2=say'
p436
I528
sS'amod=more'
p437
I23
sS'dobj=process'
p438
I119
sS'w-1=or'
p439
I424
sS'w+2=,'
p440
I285
sS'w-1=incalculable'
p441
I409
sS'amod=greater'
p442
I19
sS'w-2=lead'
p443
I510
sS'csubj=oppose'
p444
I66
sS'conj=priority'
p445
I59
sS'w-1=of'
p446
I422
sS'w+2=eastern'
p447
I319
sS'w-2=to'
p448
I546
sS'w+2=and'
p449
I295
sS'w-2=and'
p450
I464
sS'advmod=actually'
p451
I1
sS'nsubj=problem'
p452
I175
sS'neg=not'
p453
I140
sS'nsubjpass=hostage'
p454
I192
sS'w-2=try'
p455
I549
sS'w-2=pollution'
p456
I524
sS'w+2=only'
p457
I349
sS'w-2=one'
p458
I518
sS'w+1=this'
p459
I270
sS'dep=broaden'
p460
I68
sS'dobj=America'
p461
I79
sS'w-2=wish'
p462
I557
sS'dobj=ocean'
p463
I117
sS'w+1=unshielded'
p464
I276
sS'w+1=way'
p465
I277
sS'w+2=city'
p466
I307
sS'w+2=the'
p467
I368
sS'w-2=will'
p468
I556
sS'w-2=,'
p469
I446
sS'w-2=seem'
p470
I530
sS'w-1=and'
p471
I388
sS'w-1=tangible'
p472
I432
sS'aux=have'
p473
I38
sS'w-1=,'
p474
I379
sS'w-2=deforestation'
p475
I486
sS'nsubjpass=leader'
p476
I193
sS'w+1=Uganda'
p477
I221
sS'w-2=enter'
p478
I490
sS'w-2=as'
p479
I467
sS'w-2=man'
p480
I512
sS'w+1=industry'
p481
I247
sS'aux=can'
p482
I35
sS'w+1=security'
p483
I265
sS'w-2=flow'
p484
I495
sS'w+2=growth'
p485
I332
sS'amod=possible'
p486
I26
sS'dobj=rights'
p487
I125
sS'w+2=interest'
p488
I337
sS'w+2=troops'
p489
I373
sS'w+1=democratic'
p490
I237
sS'w-2=a'
p491
I458
sS'nsubj=pact'
p492
I171
sS'det=a'
p493
I74
sS'w-1=a'
p494
I383
sS'w-2=Beijing'
p495
I448
sS'w-2=troop'
p496
I547
sS'nsubjpass=which'
p497
I195
sS'w+1=press'
p498
I261
sS'w-2=so'
p499
I533
sS'mark=as'
p500
I138
sS'w+2=security'
p501
I359
sS'w+1=economic'
p502
I238
sS'w+2=there'
p503
I369
sS'w+1=relation'
p504
I263
sS'w-1=bring'
p505
I393
sS'amod=physical'
p506
I25
sS'w+2=they'
p507
I370
sS'w-1=long-term'
p508
I415
sS'dobj=turtle'
p509
I134
sS'nsubj=production'
p510
I176
sS'w-2=faith'
p511
I493
sS'ccomp=do'
p512
I49
sS'w-1=not'
p513
I421
sS'w+2=have'
p514
I333
sS'w-2=political'
p515
I522
sS'w+1=with'
p516
I279
sS'w+2=missile-defense'
p517
I343
sS'dobj=troops'
p518
I133
sS'dobj=export'
p519
I107
sS'w-2=move'
p520
I514
sS'infmod=wait'
p521
I137
sS'dep=allow'
p522
I67
sS'w+1=Venezuela'
p523
I222
sS'nn=case'
p524
I141
sS'w-2=resolution'
p525
I526
sS'advmod=how'
p526
I6
sS'w+2=U.S.'
p527
I291
sS'w-1=may'
p528
I416
sS'dobj=legislation'
p529
I115
sS'prep=from'
p530
I201
sS'w+1=export'
p531
I240
sS'w+1=U.S.'
p532
I220
sS'w+2=chance'
p533
I306
sS'w+2=other'
p534
I350
sS'conj=about'
p535
I51
sS'w-2=help'
p536
I501
sS'nsubj=campaign'
p537
I152
sS'w-1=we'
p538
I440
sS'amod=further'
p539
I16
sS'conj=arm'
p540
I52
sS'dobj=economy'
p541
I103
sS'nsubjpass=civilian'
p542
I190
sS'amod=unacceptable'
p543
I30
sS'w+1=new'
p544
I253
sS'w-2=force'
p545
I496
sS'w+1=,'
p546
I211
sS'w+1=.'
p547
I212
sS'w+2=standing'
p548
I362
sS'w+2=.'
p549
I286
sS'w+1=human'
p550
I244
sS'dobj=Kurds'
p551
I83
sS'w-2=step'
p552
I537
sS"w+2='"
p553
I282
sS'dobj=war'
p554
I135
sS'w+2=region'
p555
I355
sS'amod=incalculable'
p556
I20
sS'w-1=actual'
p557
I384
sS'w+1=bilateral'
p558
I232
sS'w+1=a'
p559
I224
sS'nsubj=construction'
p560
I156
sS'w-2=substance'
p561
I539
sS'w-1=great'
p562
I405
sS'w+2=Republican'
p563
I290
sS'nsubj=meeting'
p564
I168
sS'w+2=woman'
p565
I377
sS'w-1=that'
p566
I433
sS'aux=be'
p567
I34
sS'w+2=dialogue'
p568
I315
sS'dobj=Uganda'
p569
I84
sS'w-2=Washington'
p570
I457
sS'w-1=seriously'
p571
I430
sS'w-1=fact'
p572
I401
sS'w+2=community'
p573
I309
ssS'dtype'
p574
cnumpy
float64
p575
sS'feature_names_'
p576
(lp577
g220
ag451
ag397
ag307
ag342
ag88
ag526
ag99
ag331
ag297
ag188
ag329
ag8
ag56
ag209
ag309
ag539
ag233
ag175
ag442
ag556
ag34
ag149
ag437
ag314
ag506
ag486
ag243
ag320
ag227
ag543
ag156
ag180
ag318
ag567
ag482
ag390
ag303
ag473
ag47
ag59
ag361
ag306
ag108
ag222
ag349
ag379
ag313
ag121
ag512
ag83
ag535
ag540
ag355
ag42
ag252
ag127
ag55
ag275
ag445
ag210
ag17
ag404
ag48
ag284
ag429
ag444
ag522
ag460
ag257
ag394
ag160
ag213
ag140
ag493
ag264
ag9
ag161
ag182
ag461
ag96
ag82
ag65
ag551
ag569
ag334
ag353
ag153
ag135
ag354
ag219
ag86
ag89
ag70
ag378
ag428
ag155
ag15
ag229
ag336
ag164
ag420
ag74
ag541
ag44
ag338
ag339
ag519
ag341
ag326
ag375
ag148
ag392
ag36
ag241
ag529
ag167
ag463
ag165
ag438
ag386
ag200
ag377
ag315
ag114
ag487
ag283
ag421
ag412
ag387
ag328
ag54
ag113
ag518
ag509
ag554
ag119
ag521
ag500
ag141
ag453
ag524
ag22
ag371
ag291
ag102
ag310
ag137
ag240
ag360
ag24
ag248
ag537
ag157
ag58
ag269
ag560
ag374
ag46
ag87
ag312
ag423
ag176
ag381
ag215
ag51
ag147
ag416
ag564
ag115
ag144
ag492
ag50
ag330
ag385
ag452
ag510
ag266
ag237
ag194
ag372
ag236
ag422
ag130
ag255
ag418
ag170
ag300
ag105
ag345
ag542
ag179
ag454
ag476
ag402
ag497
ag69
ag384
ag400
ag29
ag212
ag530
ag107
ag401
ag413
ag117
ag311
ag124
ag235
ag376
ag406
ag546
ag547
ag204
ag110
ag332
ag250
ag260
ag358
ag294
ag532
ag477
ag523
ag288
ag559
ag430
ag289
ag122
ag129
ag239
ag274
ag359
ag558
ag171
ag356
ag293
ag337
ag490
ag502
ag234
ag531
ag186
ag327
ag195
ag550
ag366
ag368
ag481
ag152
ag116
ag388
ag370
ag145
ag544
ag93
ag62
ag398
ag128
ag295
ag84
ag21
ag498
ag90
ag504
ag333
ag483
ag35
ag31
ag98
ag101
ag459
ag103
ag259
ag396
ag364
ag205
ag464
ag465
ag214
ag516
ag185
ag335
ag553
ag340
ag363
ag440
ag549
ag223
ag271
ag282
ag563
ag527
ag425
ag125
ag272
ag449
ag268
ag292
ag100
ag203
ag80
ag45
ag19
ag97
ag380
ag389
ag533
ag466
ag20
ag573
ag139
ag225
ag60
ag178
ag434
ag568
ag196
ag324
ag301
ag447
ag367
ag191
ag247
ag208
ag123
ag419
ag126
ag28
ag276
ag166
ag409
ag232
ag485
ag514
ag262
ag14
ag72
ag488
ag73
ag317
ag168
ag382
ag111
ag517
ag231
ag37
ag159
ag26
ag256
ag457
ag534
ag245
ag39
ag287
ag206
ag555
ag258
ag190
ag221
ag501
ag163
ag71
ag548
ag112
ag395
ag362
ag217
ag435
ag467
ag503
ag507
ag238
ag61
ag489
ag344
ag393
ag134
ag565
ag25
ag474
ag211
ag154
ag350
ag494
ag557
ag192
ag104
ag81
ag471
ag267
ag118
ag53
ag49
ag505
ag198
ag249
ag244
ag199
ag79
ag343
ag286
ag572
ag92
ag410
ag254
ag562
ag181
ag68
ag133
ag441
ag369
ag415
ag224
ag78
ag131
ag508
ag528
ag403
ag207
ag218
ag253
ag513
ag446
ag95
ag439
ag228
ag325
ag351
ag16
ag348
ag571
ag76
ag472
ag566
ag138
ag308
ag177
ag142
ag109
ag427
ag538
ag43
ag202
ag184
ag172
ag197
ag469
ag132
ag495
ag357
ag296
ag85
ag263
ag32
ag13
ag158
ag230
ag570
ag491
ag346
ag424
ag201
ag77
ag305
ag450
ag399
ag23
ag479
ag189
ag407
ag10
ag174
ag265
ag417
ag150
ag143
ag405
ag432
ag40
ag273
ag411
ag67
ag426
ag391
ag30
ag242
ag475
ag414
ag183
ag94
ag478
ag162
ag431
ag511
ag433
ag484
ag545
ag38
ag281
ag146
ag352
ag536
ag66
ag373
ag63
ag319
ag151
ag64
ag41
ag323
ag443
ag18
ag480
ag120
ag520
ag321
ag33
ag173
ag458
ag169
ag106
ag12
ag515
ag280
ag456
ag270
ag525
ag277
ag436
ag75
ag470
ag187
ag298
ag499
ag216
ag261
ag278
ag552
ag290
ag561
ag251
ag52
ag136
ag27
ag299
ag246
ag448
ag496
ag316
ag455
ag408
ag383
ag322
ag365
ag11
ag279
ag468
ag462
ag347
ag285
ag226
ag57
ag91
ag193
ag304
ag302
asS'separator'
p578
S'='
sS'sparse'
p579
I01
sb.