ccopy_reg
_reconstructor
p1
(csklearn.feature_extraction.dict_vectorizer
DictVectorizer
p2
c__builtin__
object
p3
NtRp4
(dp5
S'sort'
p6
I01
sS'feature_names_'
p7
(lp8
S'advmod=when'
p9
aS'amod=much'
p10
aS'cc=and'
p11
aS'conj=many'
p12
aS'conj=rumor'
p13
aS'conj=trade'
p14
aS'cop=be'
p15
aS'neg=not'
p16
aS'nsubj=#PRP#'
p17
aS'w+1=,'
p18
aS'w+1=and'
p19
aS'w+1=that'
p20
aS"w+2=''"
p21
aS'w+2=many'
p22
aS'w+2=rumor'
p23
aS'w+2=trade'
p24
aS'w+2=we'
p25
aS'w-1=,'
p26
aS'w-1=and'
p27
aS'w-1=as'
p28
aS'w-1=much'
p29
aS'w-1=not'
p30
aS'w-2=be'
p31
aS'w-2=of'
p32
aS'w-2=relax'
p33
aS'w-2=speculation'
p34
aS'w-2=testimony'
p35
asS'dtype'
p36
cnumpy
float64
p37
sS'vocabulary_'
p38
(dp39
g21
I12
sg22
I13
sg29
I20
sg34
I25
sg19
I10
sg23
I14
sg10
I1
sg18
I9
sg14
I5
sg26
I17
sg16
I7
sg11
I2
sg33
I24
sg27
I18
sg24
I15
sg30
I21
sg12
I3
sg32
I23
sg25
I16
sg13
I4
sg9
I0
sg31
I22
sg20
I11
sg28
I19
sg17
I8
sg15
I6
sg35
I26
ssS'separator'
p40
S'='
sS'sparse'
p41
I01
sb.