ccopy_reg
_reconstructor
p1
(csklearn.feature_extraction.dict_vectorizer
DictVectorizer
p2
c__builtin__
object
p3
NtRp4
(dp5
S'sort'
p6
I01
sS'feature_names_'
p7
(lp8
S'advcl=deliver'
p9
aS'advcl=impose'
p10
aS'advcl=incompetent'
p11
aS'advcl=move'
p12
aS'advcl=progress'
p13
aS'advcl=push'
p14
aS'advmod=ever'
p15
aS'advmod=long'
p16
aS'advmod=slowly'
p17
aS'advmod=somewhat'
p18
aS'advmod=soon'
p19
aS'advmod=when'
p20
aS'aux=be'
p21
aS'aux=can'
p22
aS'aux=could'
p23
aS'aux=have'
p24
aS'aux=might'
p25
aS'aux=to'
p26
aS'aux=will'
p27
aS'cc=and'
p28
aS'cc=but'
p29
aS'cc=or'
p30
aS'ccomp=God'
p31
aS'ccomp=priority'
p32
aS'ccomp=reach'
p33
aS'conj=begin'
p34
aS'conj=grow'
p35
aS'conj=prevent'
p36
aS'conj=re-take'
p37
aS'conj=rebuild'
p38
aS'conj=sustain'
p39
aS'conj=take'
p40
aS'conj=try'
p41
aS'dep=be'
p42
aS'dep=carry'
p43
aS'dep=drive'
p44
aS'dep=year'
p45
aS'dobj=ability'
p46
aS'dobj=altitude'
p47
aS'dobj=base'
p48
aS'dobj=command'
p49
aS'dobj=communication'
p50
aS'dobj=confidence'
p51
aS'dobj=consciousness'
p52
aS'dobj=control'
p53
aS'dobj=foothold'
p54
aS'dobj=footing'
p55
aS'dobj=form'
p56
aS'dobj=freedom'
p57
aS'dobj=function'
p58
aS'dobj=ground'
p59
aS'dobj=hand'
p60
aS'dobj=influence'
p61
aS'dobj=level'
p62
aS'dobj=livelihood'
p63
aS'dobj=measure'
p64
aS'dobj=mobility'
p65
aS'dobj=momentum'
p66
aS'dobj=much'
p67
aS'dobj=office'
p68
aS'dobj=order'
p69
aS'dobj=part'
p70
aS'dobj=place'
p71
aS'dobj=position'
p72
aS'dobj=power'
p73
aS'dobj=ranking'
p74
aS'dobj=revenue'
p75
aS'dobj=some'
p76
aS'dobj=spot'
p77
aS'dobj=status'
p78
aS'dobj=strength'
p79
aS'dobj=support'
p80
aS'dobj=title'
p81
aS'dobj=trust'
p82
aS'dobj=voice'
p83
aS'mark=as'
p84
aS'mark=so'
p85
aS'neg=not'
p86
aS'nsubj=#NUMBER#'
p87
aS'nsubj=#PRP#'
p88
aS'nsubj=Bhutto'
p89
aS'nsubj=Federer'
p90
aS'nsubj=Islamists'
p91
aS'nsubj=Obama'
p92
aS'nsubj=President'
p93
aS'nsubj=States'
p94
aS'nsubj=Taliban'
p95
aS'nsubj=al-Qaida'
p96
aS'nsubj=ally'
p97
aS'nsubj=authority'
p98
aS'nsubj=controller'
p99
aS'nsubj=court'
p100
aS'nsubj=dollar'
p101
aS'nsubj=fighter'
p102
aS'nsubj=force'
p103
aS'nsubj=majority'
p104
aS'nsubj=patient'
p105
aS'nsubj=run'
p106
aS'nsubj=storm'
p107
aS'nsubj=struggle'
p108
aS'nsubj=who'
p109
aS'prep=aboard'
p110
aS'prep=after'
p111
aS'prep=as'
p112
aS'prep=by'
p113
aS'prep=despite'
p114
aS'prep=for'
p115
aS'prep=from'
p116
aS'prep=in'
p117
aS'prep=over'
p118
aS'prep=since'
p119
aS'prep=with'
p120
aS'w+1=,'
p121
aS'w+1=.'
p122
aS'w+1=a'
p123
aS'w+1=altitude'
p124
aS'w+1=and'
p125
aS'w+1=command'
p126
aS'w+1=complete'
p127
aS'w+1=consciousness'
p128
aS'w+1=control'
p129
aS'w+1=even'
p130
aS'w+1=full'
p131
aS'w+1=ground'
p132
aS'w+1=he'
p133
aS'w+1=influence'
p134
aS'w+1=its'
p135
aS'w+1=lose'
p136
aS'w+1=lost'
p137
aS'w+1=momentum'
p138
aS'w+1=much'
p139
aS'w+1=part'
p140
aS'w+1=partial'
p141
aS'w+1=political'
p142
aS'w+1=power'
p143
aS'w+1=public'
p144
aS'w+1=she'
p145
aS'w+1=since'
p146
aS'w+1=some'
p147
aS'w+1=strength'
p148
aS'w+1=support'
p149
aS'w+1=the'
p150
aS'w+1=they'
p151
aS'w+1=wartime'
p152
aS'w+2=,'
p153
aS'w+2=.'
p154
aS'w+2=2000'
p155
aS'w+2=Golan'
p156
aS'w+2=ability'
p157
aS'w+2=after'
p158
aS'w+2=as'
p159
aS'w+2=athletic'
p160
aS'w+2=base'
p161
aS'w+2=by'
p162
aS'w+2=command'
p163
aS'w+2=communication'
p164
aS'w+2=confidence'
p165
aS'w+2=control'
p166
aS'w+2=diplomatic'
p167
aS'w+2=foothold'
p168
aS'w+2=for'
p169
aS'w+2=form'
p170
aS'w+2=freedom'
p171
aS'w+2=from'
p172
aS'w+2=function'
p173
aS'w+2=ground'
p174
aS'w+2=if'
p175
aS'w+2=in'
p176
aS'w+2=livelihood'
p177
aS'w+2=lose'
p178
aS'w+2=measure'
p179
aS'w+2=momentum'
p180
aS'w+2=number-one'
p181
aS'w+2=of'
p182
aS'w+2=old'
p183
aS'w+2=order'
p184
aS'w+2=political'
p185
aS'w+2=position'
p186
aS'w+2=power'
p187
aS'w+2=revenue'
p188
aS'w+2=rightful'
p189
aS'w+2=significant'
p190
aS'w+2=somewhat'
p191
aS'w+2=status'
p192
aS'w+2=sustain'
p193
aS'w+2=title'
p194
aS'w+2=top'
p195
aS'w+2=trust'
p196
aS'w+2=upper'
p197
aS'w+2=voice'
p198
aS'w-1=Africa'
p199
aS'w-1=Conte'
p200
aS'w-1=Federer'
p201
aS'w-1=Obama'
p202
aS'w-1=States'
p203
aS'w-1=ally'
p204
aS'w-1=and'
p205
aS'w-1=be'
p206
aS'w-1=can'
p207
aS'w-1=could'
p208
aS'w-1=enemy'
p209
aS'w-1=ever'
p210
aS'w-1=from'
p211
aS'w-1=hardliner'
p212
aS'w-1=have'
p213
aS'w-1=might'
p214
aS'w-1=not'
p215
aS'w-1=of'
p216
aS'w-1=say'
p217
aS'w-1=slowly'
p218
aS'w-1=soon'
p219
aS'w-1=that'
p220
aS'w-1=to'
p221
aS'w-1=who'
p222
aS'w-1=will'
p223
aS'w-2=,'
p224
aS'w-2=.'
p225
aS'w-2=Army'
p226
aS'w-2=Islamists'
p227
aS'w-2=Lansana'
p228
aS'w-2=Roger'
p229
aS'w-2=Senator'
p230
aS'w-2=Taliban'
p231
aS'w-2=United'
p232
aS'w-2=West'
p233
aS'w-2=able'
p234
aS'w-2=acknowledge'
p235
aS'w-2=al-Qaida'
p236
aS'w-2=appeal'
p237
aS'w-2=attempt'
p238
aS'w-2=authority'
p239
aS'w-2=chance'
p240
aS'w-2=child'
p241
aS'w-2=controller'
p242
aS'w-2=could'
p243
aS'w-2=coup'
p244
aS'w-2=design'
p245
aS'w-2=difficult'
p246
aS'w-2=dollar'
p247
aS'w-2=effort'
p248
aS'w-2=fight'
p249
aS'w-2=fighter'
p250
aS'w-2=foot'
p251
aS'w-2=force'
p252
aS'w-2=government'
p253
aS'w-2=group'
p254
aS'w-2=half-an-hour'
p255
aS'w-2=hard'
p256
aS'w-2=have'
p257
aS'w-2=he'
p258
aS'w-2=help'
p259
aS'w-2=hope'
p260
aS'w-2=key'
p261
aS'w-2=landing'
p262
aS'w-2=majority'
p263
aS'w-2=of'
p264
aS'w-2=offensive'
p265
aS'w-2=path'
p266
aS'w-2=patient'
p267
aS'w-2=peace'
p268
aS'w-2=primary'
p269
aS'w-2=regroup'
p270
aS'w-2=responsive'
p271
aS'w-2=run'
p272
aS'w-2=schedule'
p273
aS'w-2=seek'
p274
aS'w-2=separatist'
p275
aS'w-2=storm'
p276
aS'w-2=struggle'
p277
aS'w-2=support'
p278
aS'w-2=take'
p279
aS'w-2=the'
p280
aS'w-2=they'
p281
aS'w-2=time'
p282
aS'w-2=to'
p283
aS'w-2=try'
p284
aS'w-2=unable'
p285
aS'w-2=vain'
p286
aS'w-2=we'
p287
aS'w-2=will'
p288
aS'xcomp=chew'
p289
asS'dtype'
p290
cnumpy
float64
p291
sS'vocabulary_'
p292
(dp293
g204
I195
sg164
I155
sg231
I222
sg63
I54
sg226
I217
sg172
I163
sg183
I174
sg40
I31
sg244
I235
sg24
I15
sg184
I175
sg275
I266
sg156
I147
sg287
I278
sg115
I106
sg157
I148
sg178
I169
sg33
I24
sg82
I73
sg124
I115
sg146
I137
sg272
I263
sg261
I252
sg235
I226
sg256
I247
sg140
I131
sg87
I78
sg154
I145
sg222
I213
sg212
I203
sg162
I153
sg31
I22
sg245
I236
sg61
I52
sg73
I64
sg155
I146
sg98
I89
sg173
I164
sg90
I81
sg56
I47
sg264
I255
sg209
I200
sg241
I232
sg189
I180
sg216
I207
sg281
I272
sg171
I162
sg221
I212
sg177
I168
sg113
I104
sg42
I33
sg101
I92
sg93
I84
sg251
I242
sg50
I41
sg100
I91
sg38
I29
sg114
I105
sg85
I76
sg284
I275
sg179
I170
sg69
I60
sg59
I50
sg225
I216
sg217
I208
sg15
I6
sg96
I87
sg262
I253
sg46
I37
sg161
I152
sg255
I246
sg258
I249
sg191
I182
sg62
I53
sg119
I110
sg27
I18
sg55
I46
sg134
I125
sg138
I129
sg71
I62
sg267
I258
sg279
I270
sg118
I109
sg288
I279
sg112
I103
sg223
I214
sg66
I57
sg224
I215
sg200
I191
sg120
I111
sg228
I219
sg30
I21
sg133
I124
sg202
I193
sg242
I233
sg206
I197
sg29
I20
sg23
I14
sg54
I45
sg197
I188
sg163
I154
sg52
I43
sg283
I274
sg180
I171
sg230
I221
sg145
I136
sg282
I273
sg12
I3
sg234
I225
sg240
I231
sg45
I36
sg19
I10
sg160
I151
sg277
I268
sg192
I183
sg108
I99
sg166
I157
sg106
I97
sg25
I16
sg57
I48
sg170
I161
sg20
I11
sg139
I130
sg168
I159
sg78
I69
sg92
I83
sg81
I72
sg278
I269
sg47
I38
sg10
I1
sg121
I112
sg103
I94
sg213
I204
sg67
I58
sg102
I93
sg149
I140
sg175
I166
sg49
I40
sg237
I228
sg110
I101
sg199
I190
sg176
I167
sg84
I75
sg94
I85
sg159
I150
sg72
I63
sg260
I251
sg227
I218
sg249
I240
sg233
I224
sg64
I55
sg99
I90
sg208
I199
sg14
I5
sg37
I28
sg131
I122
sg22
I13
sg130
I121
sg141
I132
sg174
I165
sg95
I86
sg289
I280
sg201
I192
sg111
I102
sg16
I7
sg158
I149
sg203
I194
sg75
I66
sg232
I223
sg257
I248
sg181
I172
sg28
I19
sg250
I241
sg248
I239
sg265
I256
sg65
I56
sg219
I210
sg186
I177
sg150
I141
sg218
I209
sg136
I127
sg286
I277
sg271
I262
sg126
I117
sg270
I261
sg151
I142
sg254
I245
sg97
I88
sg236
I227
sg137
I128
sg193
I184
sg127
I118
sg263
I254
sg117
I108
sg268
I259
sg105
I96
sg135
I126
sg210
I201
sg195
I186
sg18
I9
sg194
I185
sg88
I79
sg68
I59
sg116
I107
sg276
I267
sg60
I51
sg229
I220
sg259
I250
sg77
I68
sg41
I32
sg152
I143
sg165
I156
sg43
I34
sg211
I202
sg26
I17
sg83
I74
sg89
I80
sg39
I30
sg185
I176
sg17
I8
sg51
I42
sg196
I187
sg74
I65
sg80
I71
sg125
I116
sg107
I98
sg70
I61
sg269
I260
sg76
I67
sg252
I243
sg129
I120
sg243
I234
sg91
I82
sg21
I12
sg122
I113
sg182
I173
sg109
I100
sg9
I0
sg147
I138
sg266
I257
sg153
I144
sg169
I160
sg86
I77
sg205
I196
sg36
I27
sg253
I244
sg58
I49
sg247
I238
sg285
I276
sg48
I39
sg128
I119
sg13
I4
sg32
I23
sg214
I205
sg35
I26
sg273
I264
sg239
I230
sg280
I271
sg44
I35
sg11
I2
sg53
I44
sg123
I114
sg215
I206
sg148
I139
sg190
I181
sg144
I135
sg188
I179
sg246
I237
sg132
I123
sg238
I229
sg274
I265
sg220
I211
sg79
I70
sg142
I133
sg143
I134
sg198
I189
sg187
I178
sg167
I158
sg104
I95
sg207
I198
sg34
I25
ssS'separator'
p294
S'='
sS'sparse'
p295
I01
sb.