ccopy_reg
_reconstructor
p1
(csklearn.feature_extraction.dict_vectorizer
DictVectorizer
p2
c__builtin__
object
p3
NtRp4
(dp5
S'vocabulary_'
p6
(dp7
S'nn=night'
p8
I3
sS"w-2=''"
p9
I26
sS'amod=black'
p10
I0
sS"w+1=''"
p11
I6
sS"w+2=''"
p12
I13
sS'w-1=we'
p13
I25
sS'w-1=he'
p14
I22
sS'w+1=equity'
p15
I11
sS'w-2=sell'
p16
I32
sS'w-2=make'
p17
I31
sS'poss=#PRP#'
p18
I5
sS'w+1=from'
p19
I12
sS'w+1=at'
p20
I9
sS'w-2=break'
p21
I28
sS'w+1=because'
p22
I10
sS'w+1=,'
p23
I7
sS'det=the'
p24
I2
sS'w+1=.'
p25
I8
sS'w+2=of'
p26
I17
sS'w-2=cold'
p27
I30
sS'w-2=wipe'
p28
I33
sS'w-2=call'
p29
I29
sS'w-1=,'
p30
I19
sS'w-1=a'
p31
I20
sS'w+2=he'
p32
I16
sS'w+2=be'
p33
I15
sS'w-1=night'
p34
I23
sS'w-2=and'
p35
I27
sS'w-1=the'
p36
I24
sS'det=a'
p37
I1
sS'w-1=black'
p38
I21
sS'nsubj=#PRP#'
p39
I4
sS'w+2=a'
p40
I14
sS"w-1=''"
p41
I18
ssS'dtype'
p42
cnumpy
float64
p43
sS'feature_names_'
p44
(lp45
g10
ag37
ag24
ag8
ag39
ag18
ag11
ag23
ag25
ag20
ag22
ag15
ag19
ag12
ag40
ag33
ag32
ag26
ag41
ag30
ag31
ag38
ag14
ag34
ag36
ag13
ag9
ag35
ag21
ag29
ag27
ag17
ag16
ag28
asS'separator'
p46
S'='
sS'sparse'
p47
I01
sb.