ccopy_reg
_reconstructor
p1
(csklearn.feature_extraction.dict_vectorizer
DictVectorizer
p2
c__builtin__
object
p3
NtRp4
(dp5
S'sort'
p6
I01
sS'feature_names_'
p7
(lp8
S'acomp=socially'
p9
aS'advcl=abandon'
p10
aS'advcl=be'
p11
aS'advcl=call'
p12
aS'advcl=carry'
p13
aS'advcl=find'
p14
aS'advcl=focus'
p15
aS'advcl=list'
p16
aS'advcl=say'
p17
aS'advcl=see'
p18
aS'advmod=also'
p19
aS'advmod=always'
p20
aS'advmod=away'
p21
aS'advmod=clearly'
p22
aS'advmod=generally'
p23
aS'advmod=however'
p24
aS'advmod=instead'
p25
aS'advmod=much'
p26
aS'advmod=obviously'
p27
aS'advmod=out'
p28
aS'advmod=personally'
p29
aS'advmod=primarily'
p30
aS'advmod=rather'
p31
aS'advmod=still'
p32
aS'advmod=then'
p33
aS'advmod=usually'
p34
aS'aux=do'
p35
aS'aux=have'
p36
aS'aux=to'
p37
aS'aux=will'
p38
aS'aux=would'
p39
aS'auxpass=be'
p40
aS'cc=and'
p41
aS'cc=but'
p42
aS'cc=or'
p43
aS'cc=rather'
p44
aS'ccomp=bring'
p45
aS'ccomp=conduct'
p46
aS'ccomp=continue'
p47
aS'ccomp=have'
p48
aS'ccomp=lead'
p49
aS'ccomp=most'
p50
aS'ccomp=people'
p51
aS'ccomp=switch'
p52
aS'ccomp=talk'
p53
aS'ccomp=think'
p54
aS'complm=that'
p55
aS'conj=#NUMBER#'
p56
aS'conj=be'
p57
aS'conj=get'
p58
aS'conj=have'
p59
aS'conj=move'
p60
aS'conj=no'
p61
aS'conj=say'
p62
aS'conj=take'
p63
aS'conj=taste'
p64
aS'conj=trap'
p65
aS'conj=want'
p66
aS'conj=work'
p67
aS'csubj=do'
p68
aS'dep=do'
p69
aS'dep=happen'
p70
aS'dep=have'
p71
aS'dep=make'
p72
aS'dep=say'
p73
aS'dep=so'
p74
aS'dobj=#PRP#'
p75
aS'dobj=Amy'
p76
aS'dobj=Anglophone'
p77
aS'dobj=Clinton'
p78
aS'dobj=U.N.'
p79
aS'dobj=U.S.'
p80
aS'dobj=approach'
p81
aS'dobj=asphalt'
p82
aS'dobj=change'
p83
aS'dobj=cigarette'
p84
aS'dobj=conservative'
p85
aS'dobj=constitution'
p86
aS'dobj=declaration'
p87
aS'dobj=discourse'
p88
aS'dobj=face'
p89
aS'dobj=island'
p90
aS'dobj=leader'
p91
aS'dobj=living'
p92
aS'dobj=meeting'
p93
aS'dobj=method'
p94
aS'dobj=mixture'
p95
aS'dobj=music'
p96
aS'dobj=none'
p97
aS'dobj=option'
p98
aS'dobj=plastic'
p99
aS'dobj=resolution'
p100
aS'dobj=seller'
p101
aS'dobj=silence'
p102
aS'dobj=soldier'
p103
aS'dobj=statement'
p104
aS'dobj=status'
p105
aS'dobj=talk'
p106
aS'dobj=tea'
p107
aS'dobj=that'
p108
aS'dobj=transaction'
p109
aS'dobj=visit'
p110
aS'mark=although'
p111
aS'mark=as'
p112
aS'mark=because'
p113
aS'mark=if'
p114
aS'mark=though'
p115
aS'mark=while'
p116
aS'neg=never'
p117
aS'neg=not'
p118
aS'nsubj=#NUMBER#'
p119
aS'nsubj=#PRP#'
p120
aS'nsubj=Americans'
p121
aS'nsubj=Clinton'
p122
aS'nsubj=Democrats'
p123
aS'nsubj=Egyptians'
p124
aS'nsubj=Gingrich'
p125
aS'nsubj=Iraqis'
p126
aS'nsubj=Israel'
p127
aS'nsubj=McCain'
p128
aS'nsubj=Muguwala'
p129
aS'nsubj=Muslims'
p130
aS'nsubj=Olmert'
p131
aS'nsubj=Paul'
p132
aS'nsubj=Pelosi'
p133
aS'nsubj=States'
p134
aS'nsubj=administration'
p135
aS'nsubj=adult'
p136
aS'nsubj=country'
p137
aS'nsubj=day'
p138
aS'nsubj=government'
p139
aS'nsubj=group'
p140
aS'nsubj=guerilla'
p141
aS'nsubj=investor'
p142
aS'nsubj=kingdom'
p143
aS'nsubj=lawmaker'
p144
aS'nsubj=many'
p145
aS'nsubj=other'
p146
aS'nsubj=people'
p147
aS'nsubj=refugee'
p148
aS'nsubj=sector'
p149
aS'nsubj=seller'
p150
aS'nsubj=shopkeeper'
p151
aS'nsubj=situation'
p152
aS'nsubj=smoker'
p153
aS'nsubj=some'
p154
aS'nsubj=that'
p155
aS'nsubj=those'
p156
aS'nsubj=voter'
p157
aS'nsubj=who'
p158
aS'nsubj=widow'
p159
aS'parataxis=say'
p160
aS'prep=as'
p161
aS'prep=at'
p162
aS'prep=during'
p163
aS'prep=for'
p164
aS'prep=from'
p165
aS'prep=give'
p166
aS'prep=in'
p167
aS'prep=like'
p168
aS'prep=over'
p169
aS'prep=to'
p170
aS'prep=with'
p171
aS'rel=in'
p172
aS'rel=which'
p173
aS'tmod=day'
p174
aS'w+1=,'
p175
aS'w+1=-lrb-'
p176
aS'w+1=.'
p177
aS'w+1=Amy'
p178
aS'w+1=Anglophone'
p179
aS'w+1=Clinton'
p180
aS'w+1=Hillary'
p181
aS'w+1=Prime'
p182
aS'w+1=Saddam'
p183
aS'w+1=U.N.'
p184
aS'w+1=a'
p185
aS'w+1=asphalt'
p186
aS'w+1=at'
p187
aS'w+1=be'
p188
aS'w+1=because'
p189
aS'w+1=cash'
p190
aS'w+1=change'
p191
aS'w+1=constructive'
p192
aS'w+1=darker'
p193
aS'w+1=foreign'
p194
aS'w+1=homeopathic'
p195
aS'w+1=instead'
p196
aS'w+1=instrument'
p197
aS'w+1=it'
p198
aS'w+1=living'
p199
aS'w+1=more'
p200
aS'w+1=multilateral'
p201
aS'w+1=never'
p202
aS'w+1=new'
p203
aS'w+1=not'
p204
aS'w+1=old'
p205
aS'w+1=or'
p206
aS'w+1=perform'
p207
aS'w+1=plastic'
p208
aS'w+1=pragmatic'
p209
aS'w+1=soldier'
p210
aS'w+1=take'
p211
aS'w+1=talk'
p212
aS'w+1=that'
p213
aS'w+1=the'
p214
aS'w+1=they'
p215
aS'w+1=those'
p216
aS'w+1=to'
p217
aS'w+1=western'
p218
aS'w+2=,'
p219
aS'w+2=.'
p220
aS'w+2=1997'
p221
aS'w+2=Clinton'
p222
aS'w+2=Democrat'
p223
aS'w+2=Minister'
p224
aS'w+2=U.S.'
p225
aS'w+2=any'
p226
aS'w+2=approach'
p227
aS'w+2=at'
p228
aS'w+2=avoid'
p229
aS'w+2=be'
p230
aS'w+2=beg'
p231
aS'w+2=bulb'
p232
aS'w+2=buy'
p233
aS'w+2=call'
p234
aS'w+2=cheaper'
p235
aS'w+2=conduct'
p236
aS'w+2=create'
p237
aS'w+2=delay'
p238
aS'w+2=die'
p239
aS'w+2=diplomatic'
p240
aS'w+2=discourse'
p241
aS'w+2=face'
p242
aS'w+2=first'
p243
aS'w+2=focus'
p244
aS'w+2=follow'
p245
aS'w+2=frequent'
p246
aS'w+2=give'
p247
aS'w+2=go'
p248
aS'w+2=gradual'
p249
aS'w+2=have'
p250
aS'w+2=if'
p251
aS'w+2=in'
p252
aS'w+2=island'
p253
aS'w+2=live'
p254
aS'w+2=logistical'
p255
aS'w+2=low-tech'
p256
aS'w+2=meeting'
p257
aS'w+2=method'
p258
aS'w+2=migrate'
p259
aS'w+2=mixture'
p260
aS'w+2=much'
p261
aS'w+2=multilateral'
p262
aS'w+2=music'
p263
aS'w+2=non-aligned'
p264
aS'w+2=not'
p265
aS'w+2=of'
p266
aS'w+2=official'
p267
aS'w+2=operate'
p268
aS'w+2=or'
p269
aS'w+2=over'
p270
aS'w+2=peaceful'
p271
aS'w+2=politician'
p272
aS'w+2=primarily'
p273
aS'w+2=put'
p274
aS'w+2=quieter'
p275
aS'w+2=quite'
p276
aS'w+2=reach'
p277
aS'w+2=relay'
p278
aS'w+2=remain'
p279
aS'w+2=return'
p280
aS'w+2=rhetorically'
p281
aS'w+2=sacrifice'
p282
aS'w+2=say'
p283
aS'w+2=see'
p284
aS'w+2=seller'
p285
aS'w+2=settle'
p286
aS'w+2=she'
p287
aS'w+2=silence'
p288
aS'w+2=single'
p289
aS'w+2=socially'
p290
aS'w+2=stay'
p291
aS'w+2=support'
p292
aS'w+2=talk'
p293
aS'w+2=term'
p294
aS'w+2=that'
p295
aS'w+2=the'
p296
aS'w+2=they'
p297
aS'w+2=this'
p298
aS'w+2=those'
p299
aS'w+2=to'
p300
aS'w+2=traditional'
p301
aS'w+2=transaction'
p302
aS'w+2=try'
p303
aS'w+2=use'
p304
aS'w+2=vague'
p305
aS'w+2=very'
p306
aS'w+2=voluntary'
p307
aS'w+2=walk'
p308
aS'w+2=want'
p309
aS'w+2=we'
p310
aS'w+2=with'
p311
aS'w+2=work'
p312
aS'w-1=,'
p313
aS'w-1=-'
p314
aS'w-1=Americans'
p315
aS'w-1=Democrats'
p316
aS'w-1=Egyptians'
p317
aS'w-1=Gingrich'
p318
aS'w-1=I'
p319
aS'w-1=Israel'
p320
aS'w-1=Korea'
p321
aS'w-1=Muguwala'
p322
aS'w-1=Muslims'
p323
aS'w-1=Olmert'
p324
aS'w-1=Paul'
p325
aS'w-1=Pelosi'
p326
aS'w-1=States'
p327
aS'w-1=administration'
p328
aS'w-1=also'
p329
aS'w-1=always'
p330
aS'w-1=and'
p331
aS'w-1=away'
p332
aS'w-1=be'
p333
aS'w-1=by'
p334
aS'w-1=customer'
p335
aS'w-1=day'
p336
aS'w-1=experience'
p337
aS'w-1=generally'
p338
aS'w-1=government'
p339
aS'w-1=group'
p340
aS'w-1=guerilla'
p341
aS'w-1=have'
p342
aS'w-1=he'
p343
aS'w-1=it'
p344
aS'w-1=much'
p345
aS'w-1=not'
p346
aS'w-1=obviously'
p347
aS'w-1=other'
p348
aS'w-1=people'
p349
aS'w-1=personally'
p350
aS'w-1=refugee'
p351
aS'w-1=seller'
p352
aS'w-1=she'
p353
aS'w-1=shopper'
p354
aS'w-1=smoker'
p355
aS'w-1=some'
p356
aS'w-1=still'
p357
aS'w-1=that'
p358
aS'w-1=the'
p359
aS'w-1=they'
p360
aS'w-1=to'
p361
aS'w-1=usually'
p362
aS'w-1=voter'
p363
aS'w-1=we'
p364
aS'w-1=who'
p365
aS'w-1=widow'
p366
aS'w-1=would'
p367
aS'w-1=you'
p368
aS"w-2=''"
p369
aS'w-2=,'
p370
aS'w-2=.'
p371
aS'w-2=Americans'
p372
aS'w-2=Australia'
p373
aS'w-2=Bush'
p374
aS'w-2=Cameroon'
p375
aS'w-2=Clinton'
p376
aS'w-2=Iraqis'
p377
aS'w-2=Marwan'
p378
aS'w-2=McCain'
p379
aS'w-2=Mr.'
p380
aS'w-2=Nancy'
p381
aS'w-2=South'
p382
aS'w-2=United'
p383
aS'w-2=a'
p384
aS'w-2=american'
p385
aS'w-2=and'
p386
aS'w-2=as'
p387
aS'w-2=because'
p388
aS'w-2=behavior'
p389
aS'w-2=both'
p390
aS'w-2=but'
p391
aS'w-2=clearly'
p392
aS'w-2=culture'
p393
aS'w-2=do'
p394
aS'w-2=he'
p395
aS'w-2=however'
p396
aS'w-2=if'
p397
aS'w-2=independence'
p398
aS'w-2=indicate'
p399
aS'w-2=international'
p400
aS'w-2=investor'
p401
aS'w-2=judge'
p402
aS'w-2=kingdom'
p403
aS'w-2=know'
p404
aS'w-2=lawmaker'
p405
aS'w-2=local'
p406
aS'w-2=many'
p407
aS'w-2=most'
p408
aS'w-2=now'
p409
aS'w-2=older'
p410
aS'w-2=other'
p411
aS'w-2=people'
p412
aS'w-2=publicly'
p413
aS'w-2=resettle'
p414
aS'w-2=run'
p415
aS'w-2=say'
p416
aS'w-2=seem'
p417
aS'w-2=seller'
p418
aS'w-2=she'
p419
aS'w-2=so'
p420
aS'w-2=tend'
p421
aS'w-2=that'
p422
aS'w-2=the'
p423
aS'w-2=these'
p424
aS'w-2=they'
p425
aS'w-2=time'
p426
aS'w-2=to'
p427
aS'w-2=tradition'
p428
aS'w-2=type'
p429
aS'w-2=upper-class'
p430
aS'w-2=very'
p431
aS'w-2=voter'
p432
aS'w-2=warning'
p433
aS'w-2=we'
p434
aS'w-2=which'
p435
aS'w-2=while'
p436
aS'w-2=who'
p437
aS'w-2=will'
p438
aS'w-2=woman'
p439
aS'w-2=would'
p440
aS'w-2=you'
p441
aS'xcomp=alive'
p442
aS'xcomp=avoid'
p443
aS'xcomp=be'
p444
aS'xcomp=beg'
p445
aS'xcomp=believe'
p446
aS'xcomp=buy'
p447
aS'xcomp=call'
p448
aS'xcomp=clothes'
p449
aS'xcomp=conduct'
p450
aS'xcomp=create'
p451
aS'xcomp=delay'
p452
aS'xcomp=die'
p453
aS'xcomp=discuss'
p454
aS'xcomp=dispassionate'
p455
aS'xcomp=encounter'
p456
aS'xcomp=focus'
p457
aS'xcomp=follow'
p458
aS'xcomp=give'
p459
aS'xcomp=go'
p460
aS'xcomp=have'
p461
aS'xcomp=help'
p462
aS'xcomp=home'
p463
aS'xcomp=impose'
p464
aS'xcomp=know'
p465
aS'xcomp=leave'
p466
aS'xcomp=live'
p467
aS'xcomp=migrate'
p468
aS'xcomp=operate'
p469
aS'xcomp=pay'
p470
aS'xcomp=perform'
p471
aS'xcomp=put'
p472
aS'xcomp=reach'
p473
aS'xcomp=relay'
p474
aS'xcomp=remain'
p475
aS'xcomp=return'
p476
aS'xcomp=sacrifice'
p477
aS'xcomp=say'
p478
aS'xcomp=see'
p479
aS'xcomp=settle'
p480
aS'xcomp=support'
p481
aS'xcomp=take'
p482
aS'xcomp=talk'
p483
aS'xcomp=target'
p484
aS'xcomp=to'
p485
aS'xcomp=try'
p486
aS'xcomp=unnamed'
p487
aS'xcomp=use'
p488
aS'xcomp=walk'
p489
aS'xcomp=wear'
p490
aS'xcomp=win'
p491
aS'xcomp=work'
p492
asS'dtype'
p493
cnumpy
float64
p494
sS'vocabulary_'
p495
(dp496
g33
I24
sg202
I193
sg264
I255
sg286
I277
sg148
I139
sg69
I60
sg412
I403
sg103
I94
sg23
I14
sg393
I384
sg465
I456
sg462
I453
sg233
I224
sg182
I173
sg488
I479
sg448
I439
sg304
I295
sg246
I237
sg335
I326
sg352
I343
sg271
I262
sg425
I416
sg326
I317
sg145
I136
sg355
I346
sg98
I89
sg213
I204
sg139
I130
sg65
I56
sg167
I158
sg367
I358
sg289
I280
sg186
I177
sg403
I394
sg363
I354
sg64
I55
sg130
I121
sg93
I84
sg434
I425
sg366
I357
sg429
I420
sg362
I353
sg442
I433
sg334
I325
sg333
I324
sg223
I214
sg336
I327
sg423
I414
sg44
I35
sg459
I450
sg426
I417
sg190
I181
sg106
I97
sg88
I79
sg450
I441
sg308
I299
sg143
I134
sg113
I104
sg437
I428
sg300
I291
sg407
I398
sg66
I57
sg243
I234
sg104
I95
sg356
I347
sg342
I333
sg101
I92
sg251
I242
sg124
I115
sg252
I243
sg53
I44
sg77
I68
sg150
I141
sg212
I203
sg48
I39
sg329
I320
sg55
I46
sg76
I67
sg368
I359
sg339
I330
sg204
I195
sg11
I2
sg422
I413
sg214
I205
sg458
I449
sg12
I3
sg230
I221
sg42
I33
sg215
I206
sg127
I118
sg398
I389
sg216
I207
sg467
I458
sg92
I83
sg39
I30
sg315
I306
sg471
I462
sg490
I481
sg170
I161
sg149
I140
sg384
I375
sg87
I78
sg432
I423
sg405
I396
sg357
I348
sg320
I311
sg445
I436
sg347
I338
sg392
I383
sg47
I38
sg376
I367
sg155
I146
sg206
I197
sg211
I202
sg401
I392
sg372
I363
sg310
I301
sg478
I469
sg140
I131
sg354
I345
sg57
I48
sg241
I232
sg138
I129
sg359
I350
sg323
I314
sg267
I258
sg114
I105
sg249
I240
sg265
I256
sg234
I225
sg263
I254
sg73
I64
sg144
I135
sg210
I201
sg49
I40
sg482
I473
sg255
I246
sg284
I275
sg180
I171
sg172
I163
sg158
I149
sg343
I334
sg244
I235
sg205
I196
sg361
I352
sg25
I16
sg410
I401
sg75
I66
sg72
I63
sg394
I385
sg240
I231
sg322
I313
sg280
I271
sg288
I279
sg218
I209
sg305
I296
sg472
I463
sg29
I20
sg344
I335
sg85
I76
sg169
I160
sg187
I178
sg487
I478
sg473
I464
sg292
I283
sg196
I187
sg451
I442
sg15
I6
sg141
I132
sg157
I148
sg400
I391
sg461
I452
sg402
I393
sg457
I448
sg131
I122
sg197
I188
sg419
I410
sg164
I155
sg61
I52
sg481
I472
sg489
I480
sg293
I284
sg228
I219
sg91
I82
sg345
I336
sg160
I151
sg380
I371
sg321
I312
sg129
I120
sg227
I218
sg254
I245
sg40
I31
sg338
I329
sg351
I342
sg324
I315
sg275
I266
sg20
I11
sg229
I220
sg383
I374
sg32
I23
sg107
I98
sg237
I228
sg476
I467
sg283
I274
sg78
I69
sg245
I236
sg119
I110
sg99
I90
sg430
I421
sg287
I278
sg235
I226
sg311
I302
sg417
I408
sg89
I80
sg406
I397
sg492
I483
sg377
I368
sg278
I269
sg349
I340
sg408
I399
sg260
I251
sg274
I265
sg253
I244
sg475
I466
sg269
I260
sg26
I17
sg281
I272
sg369
I360
sg466
I457
sg266
I257
sg10
I1
sg236
I227
sg217
I208
sg84
I75
sg95
I86
sg262
I253
sg331
I322
sg485
I476
sg59
I50
sg86
I77
sg474
I465
sg291
I282
sg13
I4
sg378
I369
sg463
I454
sg341
I332
sg201
I192
sg353
I344
sg446
I437
sg306
I297
sg453
I444
sg231
I222
sg428
I419
sg109
I100
sg126
I117
sg189
I180
sg413
I404
sg45
I36
sg440
I431
sg261
I252
sg299
I290
sg115
I106
sg174
I165
sg285
I276
sg298
I289
sg309
I300
sg435
I426
sg79
I70
sg348
I339
sg455
I446
sg154
I145
sg330
I321
sg56
I47
sg418
I409
sg116
I107
sg74
I65
sg389
I380
sg35
I26
sg270
I261
sg277
I268
sg38
I29
sg70
I61
sg404
I395
sg134
I125
sg221
I212
sg147
I138
sg171
I162
sg43
I34
sg276
I267
sg83
I74
sg68
I59
sg397
I388
sg82
I73
sg316
I307
sg350
I341
sg327
I318
sg21
I12
sg198
I189
sg239
I230
sg273
I264
sg328
I319
sg90
I81
sg137
I128
sg19
I10
sg208
I199
sg111
I102
sg439
I430
sg325
I316
sg486
I477
sg24
I15
sg456
I447
sg67
I58
sg194
I185
sg41
I32
sg122
I113
sg222
I213
sg123
I114
sg159
I150
sg480
I471
sg188
I179
sg16
I7
sg178
I169
sg279
I270
sg484
I475
sg433
I424
sg9
I0
sg62
I53
sg396
I387
sg176
I167
sg477
I468
sg18
I9
sg108
I99
sg120
I111
sg80
I71
sg14
I5
sg248
I239
sg125
I116
sg301
I292
sg443
I434
sg449
I440
sg168
I159
sg464
I455
sg379
I370
sg424
I415
sg96
I87
sg166
I157
sg58
I49
sg444
I435
sg469
I460
sg340
I331
sg303
I294
sg447
I438
sg153
I144
sg381
I372
sg256
I247
sg52
I43
sg375
I366
sg63
I54
sg22
I13
sg71
I62
sg491
I482
sg193
I184
sg94
I85
sg415
I406
sg332
I323
sg258
I249
sg295
I286
sg454
I445
sg207
I198
sg365
I356
sg173
I164
sg226
I217
sg238
I229
sg135
I126
sg272
I263
sg399
I390
sg17
I8
sg427
I418
sg121
I112
sg386
I377
sg468
I459
sg470
I461
sg195
I186
sg199
I190
sg395
I386
sg200
I191
sg416
I407
sg460
I451
sg156
I147
sg242
I233
sg438
I429
sg161
I152
sg370
I361
sg371
I362
sg81
I72
sg36
I27
sg307
I298
sg391
I382
sg314
I305
sg313
I304
sg409
I400
sg436
I427
sg382
I373
sg318
I309
sg110
I101
sg387
I378
sg259
I250
sg411
I402
sg319
I310
sg179
I170
sg191
I182
sg224
I215
sg290
I281
sg151
I142
sg360
I351
sg128
I119
sg27
I18
sg312
I303
sg420
I411
sg337
I328
sg317
I308
sg112
I103
sg374
I365
sg385
I376
sg54
I45
sg183
I174
sg414
I405
sg117
I108
sg431
I422
sg421
I412
sg297
I288
sg146
I137
sg247
I238
sg302
I293
sg133
I124
sg250
I241
sg282
I273
sg181
I172
sg209
I200
sg390
I381
sg60
I51
sg452
I443
sg483
I474
sg46
I37
sg184
I175
sg225
I216
sg50
I41
sg152
I143
sg192
I183
sg232
I223
sg165
I156
sg28
I19
sg294
I285
sg31
I22
sg97
I88
sg364
I355
sg37
I28
sg441
I432
sg296
I287
sg162
I153
sg203
I194
sg175
I166
sg177
I168
sg220
I211
sg219
I210
sg118
I109
sg163
I154
sg268
I259
sg373
I364
sg105
I96
sg257
I248
sg34
I25
sg136
I127
sg185
I176
sg102
I93
sg346
I337
sg479
I470
sg30
I21
sg388
I379
sg358
I349
sg100
I91
sg51
I42
sg132
I123
sg142
I133
ssS'separator'
p497
S'='
sS'sparse'
p498
I01
sb.