ccopy_reg
_reconstructor
p1
(csklearn.feature_extraction.dict_vectorizer
DictVectorizer
p2
c__builtin__
object
p3
NtRp4
(dp5
S'vocabulary_'
p6
(dp7
S'w+1=pressure'
p8
I334
sS'dobj=law'
p9
I124
sS'w+1=they'
p10
I356
sS'nsubj=outcry'
p11
I211
sS'conj=suffer'
p12
I77
sS'w-1=resolution'
p13
I558
sS'nsubj=relation'
p14
I216
sS'w-2=but'
p15
I614
sS'advmod=generally'
p16
I16
sS'w+2=during'
p17
I416
sS'nsubj=violence'
p18
I229
sS'w+1=shipping'
p19
I349
sS"w+2='s"
p20
I372
sS'w+2=between'
p21
I397
sS'nsubj=transparency'
p22
I227
sS'w-1=should'
p23
I561
sS'advcl=restrict'
p24
I7
sS'dobj=de-baathification'
p25
I105
sS'dobj=condition'
p26
I95
sS'w-2=police'
p27
I692
sS'conj=emerge'
p28
I65
sS'dobj=pressure'
p29
I132
sS'w-2=need'
p30
I682
sS'w-2=base'
p31
I607
sS'w+2=embargo'
p32
I419
sS'w+1=clan'
p33
I293
sS'w-2=policy'
p34
I693
sS'prep=by'
p35
I250
sS'prep=between'
p36
I249
sS'advcl=meet'
p37
I4
sS'dobj=pain'
p38
I129
sS'nsubj=government'
p39
I201
sS'w-1=would'
p40
I571
sS'ccomp=weapons-related'
p41
I55
sS'w-1=say'
p42
I560
sS'w+2=closure'
p43
I407
sS'nsubj=council'
p44
I193
sS'dobj=increase'
p45
I121
sS'w+2=racial'
p46
I464
sS'w+1=Russia'
p47
I276
sS'w-2=intent'
p48
I658
sS'dobj=impact'
p49
I120
sS'dobj=skepticism'
p50
I153
sS'dobj=immigrant'
p51
I119
sS'w+2=movement'
p52
I448
sS'w-1=Kraft'
p53
I512
sS'nsubj=cost'
p54
I192
sS'advmod=just'
p55
I20
sS'w+1=in'
p56
I315
sS'w-1=will'
p57
I569
sS'nsubj=crunch'
p58
I195
sS'dobj=grip'
p59
I116
sS'w-2=Congress'
p60
I578
sS'aux=may'
p61
I35
sS'conj=lead'
p62
I69
sS'nsubj=protest'
p63
I213
sS'w-1=staff'
p64
I562
sS'w+1=downward'
p65
I301
sS'dobj=fear'
p66
I111
sS'w-1=day'
p67
I529
sS'w+1=pain'
p68
I328
sS'dobj=sadness'
p69
I145
sS'advmod=greatly'
p70
I17
sS'w-2=the'
p71
I729
sS'w+2=credit'
p72
I412
sS'w-2=revenue'
p73
I710
sS'w+1=she'
p74
I348
sS'w-2=time'
p75
I731
sS'w-1=negotiator'
p76
I548
sS'w+2=bitterness'
p77
I399
sS'w+1=republican'
p78
I339
sS'w-2=man'
p79
I672
sS'w+1=just'
p80
I321
sS'w+1=sanction'
p81
I345
sS'partmod=make'
p82
I240
sS'aux=might'
p83
I36
sS'w+2=country'
p84
I411
sS'dobj=shipping'
p85
I149
sS'advcl=stop'
p86
I8
sS'mark=unless'
p87
I178
sS'w-2=without'
p88
I748
sS'w+2=July'
p89
I379
sS'w+2=to'
p90
I498
sS'w+2=cause'
p91
I406
sS'dobj=hardship'
p92
I117
sS'w-2=market'
p93
I673
sS'w-2=home'
p94
I651
sS'w-1=its'
p95
I542
sS'w-1=have'
p96
I538
sS'w+1=travel'
p97
I362
sS'w+2=-lrb-'
p98
I374
sS'w+2=in'
p99
I437
sS'ccomp=go'
p100
I50
sS'w+2=it'
p101
I441
sS'w-2=hope'
p102
I652
sS'w-2=proposal'
p103
I701
sS'dobj=sentence'
p104
I148
sS'w-2=all'
p105
I600
sS'w-2=only'
p106
I685
sS'dobj=movement'
p107
I127
sS'w-1=could'
p108
I527
sS'w+2=propose'
p109
I463
sS'prep=about'
p110
I243
sS'aux=can'
p111
I31
sS'complm=that'
p112
I56
sS'w-2=Israel'
p113
I585
sS'w+1=food'
p114
I306
sS'w+2=7.6'
p115
I376
sS'dep=order'
p116
I81
sS'w+1=government'
p117
I310
sS'conj=legalize'
p118
I70
sS'w-2=effort'
p119
I633
sS'w-2=evidence'
p120
I635
sS'w-2=report'
p121
I706
sS'w+2=by'
p122
I403
sS'w+1=the'
p123
I355
sS'w+2=grip'
p124
I427
sS'w+2=relation'
p125
I468
sS'dobj=atmosphere'
p126
I86
sS'w+2=be'
p127
I396
sS'nsubj=shortage'
p128
I221
sS'nsubj=Israel'
p129
I183
sS'w-2=harvest'
p130
I647
sS'nsubj=West'
p131
I189
sS'w+1=those'
p132
I358
sS'advmod=quickly'
p133
I25
sS'w+2=requirement'
p134
I469
sS'w-2=would'
p135
I750
sS'w+1=limit'
p136
I322
sS'prep=in'
p137
I254
sS'xcomp=say'
p138
I757
sS'aux=would'
p139
I41
sS'w-2=leader'
p140
I667
sS'nsubj=insurgency'
p141
I207
sS'advmod=somewhat'
p142
I26
sS'w+2=plight'
p143
I458
sS'w-2=growth'
p144
I646
sS'w-1=and'
p145
I518
sS'w+1=quickly'
p146
I336
sS'prep=to'
p147
I261
sS'w-2=socially'
p148
I722
sS'w+2=sense'
p149
I477
sS'w-2=forward'
p150
I642
sS'nsubj=Kraft'
p151
I184
sS'dobj=poverty'
p152
I131
sS'conj=make'
p153
I71
sS'w-1=still'
p154
I563
sS'w+2=use'
p155
I505
sS'w+1=and'
p156
I284
sS'w-2=sign'
p157
I721
sS'w+1=distribution'
p158
I300
sS'w+2=increase'
p159
I438
sS'w-2=barrel'
p160
I606
sS'w-2=settlement'
p161
I717
sS'w+2=severe'
p162
I479
sS'w-1=amendment'
p163
I517
sS'dobj=burden'
p164
I91
sS'dobj=strain'
p165
I161
sS'w+2=for'
p166
I424
sS'w+1=other'
p167
I327
sS'w+1=any'
p168
I285
sS'conj=boost'
p169
I58
sS'w-2=order'
p170
I686
sS'nsubj=that'
p171
I226
sS'w+1=visa'
p172
I365
sS'advmod=further'
p173
I15
sS'w-2=government'
p174
I644
sS'prt=up'
p175
I265
sS'w-2=key'
p176
I662
sS'w+2=hunger'
p177
I435
sS'w+2=sanction'
p178
I475
sS'w-1=in'
p179
I540
sS'nsubj=growth'
p180
I202
sS'w-1=airline'
p181
I515
sS'w+1=sectarian'
p182
I346
sS'advcl=use'
p183
I10
sS'w+2=restive'
p184
I470
sS'w-2=seem'
p185
I715
sS'advcl=force'
p186
I2
sS'w+2=soon'
p187
I484
sS'w-2=unlikely'
p188
I735
sS'w-2=seek'
p189
I714
sS'dobj=skiff'
p190
I154
sS'dobj=sense'
p191
I147
sS'mark=if'
p192
I176
sS'w-2=well'
p193
I742
sS'w-2=change'
p194
I618
sS'dobj=trauma'
p195
I168
sS'mark=in'
p196
I177
sS'w+2=african'
p197
I389
sS'w-2=work'
p198
I749
sS'w+2=not'
p199
I451
sS'w-2=design'
p200
I630
sS'advmod=considerably'
p201
I13
sS'w+1=harsh'
p202
I312
sS'w+2=sentence'
p203
I478
sS'nsubj=talk'
p204
I224
sS'w-2=agree'
p205
I598
sS'w+2=effect'
p206
I418
sS'w+1=congestion'
p207
I295
sS'dep=say'
p208
I82
sS'ccomp=want'
p209
I54
sS'nsubj=Reserve'
p210
I187
sS'det=the'
p211
I83
sS'w-2=business'
p212
I613
sS'w-2=community'
p213
I619
sS'w+2=crisis'
p214
I413
sS'w-2=use'
p215
I736
sS'prep=include'
p216
I255
sS'w-2=border'
p217
I612
sS'nsubjpass=downturn'
p218
I234
sS'w-2=crunch'
p219
I626
sS'w+2=way'
p220
I506
sS'w+2=tension'
p221
I494
sS'w-2=rate'
p222
I704
sS'w+1=both'
p223
I288
sS'w-2=progress'
p224
I698
sS'w+2=nation'
p225
I449
sS'ccomp=prevent'
p226
I52
sS'w-2=on'
p227
I684
sS'w+2=security'
p228
I476
sS'dobj=uncertainty'
p229
I170
sS'w+2=regulation'
p230
I466
sS'w+2=bureaucracy'
p231
I402
sS'w+2=anger'
p232
I392
sS'w-2=do'
p233
I631
sS'w+2=harvest'
p234
I429
sS'dobj=doubt'
p235
I108
sS'advmod=completely'
p236
I12
sS'nsubj=report'
p237
I217
sS'w-2=those'
p238
I730
sS'w-2=declaration'
p239
I629
sS'w+1=friction'
p240
I308
sS'w+1=western'
p241
I366
sS'w+1=West'
p242
I280
sS'w-2=self-touch'
p243
I716
sS'w-2=responsibility'
p244
I708
sS'w+2=access'
p245
I388
sS'advmod=however'
p246
I19
sS'w+2=liquidity'
p247
I443
sS'prep=over'
p248
I259
sS'w+1=as'
p249
I286
sS'w-2=census'
p250
I617
sS'partmod=praise'
p251
I241
sS'dobj=turmoil'
p252
I169
sS'w+2=concern'
p253
I408
sS'dep=lift'
p254
I80
sS'dobj=side-effect'
p255
I151
sS'w-2=military'
p256
I678
sS'dobj=stance'
p257
I158
sS'w+2=cash'
p258
I405
sS'w-1=be'
p259
I522
sS'dobj=misery'
p260
I126
sS'w-2=able'
p261
I592
sS'ccomp=be'
p262
I46
sS'w-1=with'
p263
I570
sS'w-2=major'
p264
I670
sS'w-2=continue'
p265
I623
sS'w+2=skepticism'
p266
I482
sS'w-2=aim'
p267
I599
sS'w+2=own'
p268
I456
sS'advmod=when'
p269
I28
sS'w+2=reintegration'
p270
I467
sS'dobj=reintegration'
p271
I138
sS'dobj=congestion'
p272
I98
sS'w-2=support'
p273
I725
sS'prep=for'
p274
I252
sS'conj=subject'
p275
I76
sS'w-1=fighting'
p276
I532
sS'w-2=decision'
p277
I628
sS'nsubj=force'
p278
I199
sS'w+2=at'
p279
I393
sS'w+2=influx'
p280
I439
sS'w-2=roadblock'
p281
I711
sS'w+2=return'
p282
I472
sS'dobj=strife'
p283
I162
sS'w+1=menopausal'
p284
I325
sS'w-2=Mr.'
p285
I588
sS'dobj=cost'
p286
I101
sS'w+2=.'
p287
I375
sS'auxpass=be'
p288
I42
sS'w-1=generally'
p289
I535
sS'conj=restore'
p290
I74
sS'dobj=blockade'
p291
I90
sS'w-1=one'
p292
I553
sS'w-2=with'
p293
I747
sS'conj=ease'
p294
I64
sS'w-2=balance'
p295
I604
sS'w+2=after'
p296
I390
sS'w+1=Wednesday'
p297
I279
sS'w+1=worry'
p298
I369
sS'w-2=he'
p299
I649
sS'w+2=potentially'
p300
I459
sS'w+1=chronic'
p301
I292
sS'conj=improve'
p302
I68
sS'w-2=canal'
p303
I616
sS'dobj=regulation'
p304
I137
sS'nsubjpass=that'
p305
I238
sS'ccomp=head'
p306
I51
sS'w+1=rise'
p307
I342
sS'nsubj=effort'
p308
I197
sS'nsubj=#NUMBER#'
p309
I180
sS'w+2=humanitarian'
p310
I434
sS'xcomp=govern'
p311
I754
sS'w+2=she'
p312
I480
sS'xcomp=boost'
p313
I753
sS'w+1=its'
p314
I320
sS'w+1=under'
p315
I363
sS'conj=share'
p316
I75
sS'w-1=tension'
p317
I565
sS'w+2=with'
p318
I507
sS'w+1=tension'
p319
I354
sS'w+1=somewhat'
p320
I351
sS'w-2=expect'
p321
I636
sS'w+2=burden'
p322
I401
sS'nsubj=summit'
p323
I223
sS'conj=designate'
p324
I62
sS'w-1=the'
p325
I566
sS'w-2=intend'
p326
I657
sS'w+2=unprecedented'
p327
I504
sS'tmod=night'
p328
I267
sS'nsubj=jirga'
p329
I208
sS'w+1=Moscow'
p330
I273
sS'dep=grow'
p331
I79
sS'w+2=year'
p332
I508
sS'nsubj=bombardment'
p333
I190
sS'w-2=Pakistan'
p334
I589
sS'partmod=allow'
p335
I239
sS'dobj=access'
p336
I84
sS'w+2=fear'
p337
I422
sS'w+2=or'
p338
I454
sS'w+2=symptom'
p339
I493
sS'w+2=misery'
p340
I446
sS'w+2=of'
p341
I452
sS'w+2=procurement'
p342
I462
sS'w-2=Europe'
p343
I581
sS'w-2=after'
p344
I595
sS'nsubj=fighting'
p345
I198
sS'w+2=on'
p346
I453
sS'w+1=to'
p347
I360
sS'nsubjpass=sanction'
p348
I237
sS'dobj=return'
p349
I142
sS'w+2=he'
p350
I430
sS'w+1=hunger'
p351
I313
sS'w+1=poverty'
p352
I333
sS'prep=into'
p353
I256
sS'w+2=head'
p354
I431
sS'conj=rehabilitate'
p355
I72
sS'w+1=traffic'
p356
I361
sS'w-2=percent'
p357
I688
sS'w-1=any'
p358
I519
sS'nsubj=wages'
p359
I230
sS'dobj=snarl'
p360
I155
sS'w+2=about'
p361
I387
sS'dobj=rise'
p362
I143
sS'w-2=attempt'
p363
I602
sS'dobj=tension'
p364
I165
sS'w+2=Putin'
p365
I383
sS'w-1=report'
p366
I557
sS'w+1=political'
p367
I332
sS'w-1=oppose'
p368
I554
sS'w+2=high'
p369
I433
sS'dobj=production'
p370
I135
sS'w-1=can'
p371
I525
sS'dobj=requirement'
p372
I140
sS'w+1=.'
p373
I271
sS'w-2=mean'
p374
I674
sS'w+2=from'
p375
I425
sS'w+2=two'
p376
I502
sS'w+2=poverty'
p377
I460
sS'w-2=politics'
p378
I694
sS'dobj=hunger'
p379
I118
sS'conj=dismantle'
p380
I63
sS'w+2=travel'
p381
I501
sS'w+2=uncertainty'
p382
I503
sS'w+1=South'
p383
I277
sS'w-2=constitutional'
p384
I622
sS'w-2=fail'
p385
I637
sS'dobj=occupation'
p386
I128
sS'w-2=widen'
p387
I745
sS'w+1=international'
p388
I317
sS'dobj=confidence'
p389
I96
sS'nsubjpass=restriction'
p390
I236
sS'w-2=resolve'
p391
I707
sS'w+2=South'
p392
I384
sS'w-2=jirga'
p393
I660
sS'w+2=happy'
p394
I428
sS'w+1=hardship'
p395
I311
sS'w+2=economic'
p396
I417
sS'dobj=concern'
p397
I94
sS'dobj=spacecraft'
p398
I157
sS'w-2=which'
p399
I744
sS'w-2=Iraq'
p400
I584
sS'w+1=between'
p401
I287
sS'nsubj=general'
p402
I200
sS'w+1=considerably'
p403
I296
sS'w-2=five'
p404
I640
sS'prep=until'
p405
I263
sS'w-2=pressure'
p406
I696
sS'advmod=downward'
p407
I14
sS'w-2=cost'
p408
I624
sS'w+2=isolation'
p409
I440
sS'w+2=restriction'
p410
I471
sS'w+2=impact'
p411
I436
sS'w-2=action'
p412
I593
sS'w-1=support'
p413
I564
sS'dobj=limit'
p414
I125
sS'w-2=means'
p415
I675
sS'w+2=U.N.'
p416
I385
sS'aux=do'
p417
I33
sS'w+2=over'
p418
I455
sS'w-2=Monday'
p419
I587
sS'w-2=bank'
p420
I605
sS'aux=will'
p421
I40
sS'w+2=suffering'
p422
I492
sS'w-1=or'
p423
I555
sS'w+2=stance'
p424
I486
sS'w-2=Dr.'
p425
I579
sS'expl=there'
p426
I173
sS'w+2=australian'
p427
I394
sS'nsubj=States'
p428
I188
sS'prep=with'
p429
I264
sS'cc=or'
p430
I45
sS'w+2=military'
p431
I445
sS'dobj=relation'
p432
I139
sS'w-2=property'
p433
I700
sS'w-2=family'
p434
I638
sS'advcl=complete'
p435
I1
sS'dobj=bureaucracy'
p436
I92
sS'w-2=plan'
p437
I689
sS'w-2=ploy'
p438
I691
sS'w-1=toward'
p439
I568
sS'w-2=secularism'
p440
I713
sS'w-2=day'
p441
I627
sS'w+1=suffering'
p442
I352
sS'w-2=it'
p443
I659
sS'w-2=little'
p444
I669
sS'w+1=market'
p445
I323
sS'w+2=do'
p446
I414
sS'w+2=fuel'
p447
I426
sS'dobj=freedom'
p448
I114
sS'w+2=sting'
p449
I489
sS'w-2=donor'
p450
I632
sS'dobj=credit'
p451
I102
sS'w+1=russian'
p452
I344
sS'w-2=poor'
p453
I695
sS'w-2=restriction'
p454
I709
sS'conj=design'
p455
I61
sS'nsubj=understanding'
p456
I228
sS'prep=accord'
p457
I244
sS"w+2=''"
p458
I371
sS'dobj=ban'
p459
I87
sS'w-2=Elgon'
p460
I580
sS'w+1=global'
p461
I309
sS'advmod=also'
p462
I11
sS'w-2=West'
p463
I591
sS'w+1=palestinian'
p464
I329
sS'w+2=trauma'
p465
I500
sS'amod=relative'
p466
I29
sS'w-2=way'
p467
I740
sS'w-2=primarily'
p468
I697
sS'advcl=pursue'
p469
I5
sS'w+1=increase'
p470
I316
sS'nsubj=director'
p471
I196
sS'w-2=States'
p472
I590
sS'nsubj=reformer'
p473
I215
sS'w-1=relative'
p474
I556
sS'w-2=have'
p475
I648
sS'w+2=spacecraft'
p476
I485
sS'cc=and'
p477
I43
sS'prep=under'
p478
I262
sS'dobj=price'
p479
I133
sS'w-1=Mbeki'
p480
I513
sS'w-1=include'
p481
I541
sS'nsubj=resumption'
p482
I220
sS'w+2=longer-range'
p483
I444
sS'dobj=influx'
p484
I122
sS'w+1=will'
p485
I367
sS'w+2=stand'
p486
I487
sS'w+1=regional'
p487
I337
sS'dobj=flow'
p488
I113
sS'w-2=when'
p489
I743
sS'w-1=law'
p490
I543
sS'nsubj=Nations'
p491
I186
sS'nsubj=pressure'
p492
I212
sS'tmod=year'
p493
I269
sS'dobj=suffering'
p494
I163
sS'nsubj=restriction'
p495
I219
sS'xcomp=halt'
p496
I755
sS'nsubj=#PRP#'
p497
I181
sS'w+1=corruption'
p498
I297
sS'w+2=family'
p499
I421
sS'nsubj=crisis'
p500
I194
sS'w-2=promise'
p501
I699
sS'w+1=tense'
p502
I353
sS'xcomp=allow'
p503
I752
sS'cc=but'
p504
I44
sS'w+2=traffic'
p505
I499
sS'w+2=conflict'
p506
I409
sS'nsubj=import'
p507
I205
sS'w-2=quickly'
p508
I703
sS'poss=#PRP#'
p509
I242
sS'w+2=start'
p510
I488
sS'w-1=help'
p511
I539
sS'w-2=party'
p512
I687
sS'w+1=israeli'
p513
I319
sS'aux=could'
p514
I32
sS'w+2=fighting'
p515
I423
sS'w+1=investor'
p516
I318
sS'nsubj=increase'
p517
I206
sS'w+1=checkpoint'
p518
I291
sS'w-2=begin'
p519
I609
sS'w+1=currency'
p520
I298
sS'w+1=fear'
p521
I305
sS'aux=must'
p522
I37
sS'w-2=like'
p523
I668
sS'dobj=crunch'
p524
I104
sS'w-2=Fretilin'
p525
I582
sS'w+1=media'
p526
I324
sS'w+2=time'
p527
I497
sS'w-1=might'
p528
I545
sS'w-2=import'
p529
I654
sS'xcomp=permit'
p530
I756
sS'w+2=Mr.'
p531
I381
sS'w-2=be'
p532
I608
sS'w-2=land'
p533
I663
sS'dobj=worry'
p534
I172
sS'prep=of'
p535
I257
sS'w-1=further'
p536
I534
sS'w-2=granary'
p537
I645
sS'w+2=ban'
p538
I395
sS'w-2=shortage'
p539
I719
sS'w-2=system'
p540
I726
sS'prep=on'
p541
I258
sS'mark=after'
p542
I174
sS'w+1=de-baathification'
p543
I299
sS'w-2=1970'
p544
I575
sS'nsubj=which'
p545
I231
sS'w+2=Bank'
p546
I378
sS'w-1=for'
p547
I533
sS'w-1=may'
p548
I544
sS'w-2=could'
p549
I625
sS'w-2=might'
p550
I677
sS'nsubj=tension'
p551
I225
sS'w+2=heart-related'
p552
I432
sS'w+2=nationwide'
p553
I450
sS'dobj=fighting'
p554
I112
sS'conj=crisis'
p555
I60
sS'w-1=greatly'
p556
I537
sS'w-2=best'
p557
I610
sS'w-1=to'
p558
I567
sS'dobj=conflict'
p559
I97
sS'ccomp=succeed'
p560
I53
sS'w-1=because'
p561
I523
sS'w+2=cardiac'
p562
I404
sS'w+2=that'
p563
I495
sS'w+2=North'
p564
I382
sS'dobj=bitterness'
p565
I89
sS'w-2=against'
p566
I596
sS'w+1=some'
p567
I350
sS'w+2=and'
p568
I391
sS'w-2=want'
p569
I739
sS'dobj=traffic'
p570
I167
sS'w-2=such'
p571
I724
sS'nsubj=impatience'
p572
I204
sS'w-2=general'
p573
I643
sS'nsubj=negotiator'
p574
I210
sS'w+1=access'
p575
I282
sS'w-2=lead'
p576
I666
sS'dobj=situation'
p577
I152
sS'w-1=of'
p578
I551
sS'w-2=law'
p579
I665
sS'w-2=more'
p580
I679
sS'w-2=to'
p581
I732
sS'dobj=default'
p582
I106
sS'tmod=#DATE#'
p583
I266
sS'w-2=and'
p584
I601
sS'w+1=up'
p585
I364
sS'dobj=restriction'
p586
I141
sS'dobj=plight'
p587
I130
sS"w+2='"
p588
I370
sS'w+2=doubt'
p589
I415
sS'w-2=autonomy'
p590
I603
sS'dobj=anger'
p591
I85
sS'dobj=embargo'
p592
I110
sS'w+1=this'
p593
I357
sS'w-2=aggressive'
p594
I597
sS'w-1=monetary'
p595
I546
sS'w-2=enough'
p596
I634
sS'w+1=roadblock'
p597
I343
sS'dobj=corruption'
p598
I100
sS'dobj=protest'
p599
I136
sS'advcl=announce'
p600
I0
sS'conj=relax'
p601
I73
sS'w+1=business'
p602
I289
sS'advmod=now'
p603
I21
sS'w-2=conduct'
p604
I620
sS'dobj=roadblock'
p605
I144
sS'dobj=shortage'
p606
I150
sS'w+2=law'
p607
I442
sS'w+2=the'
p608
I496
sS'prep=at'
p609
I248
sS'w-2=will'
p610
I746
sS'prep=as'
p611
I247
sS'w-2=,'
p612
I572
sS'w+1=policy'
p613
I331
sS'w-2=.'
p614
I574
sS'w-2=violence'
p615
I738
sS'w+1=immigration'
p616
I314
sS'dobj=sanction'
p617
I146
sS'w-2=try'
p618
I733
sS'w-2=unless'
p619
I734
sS'aux=have'
p620
I34
sS'w+2=recent'
p621
I465
sS'w+2=sadness'
p622
I474
sS'w-1=.'
p623
I510
sS'w+1=requirement'
p624
I340
sS'w-1=,'
p625
I509
sS'w-2=not'
p626
I683
sS'nsubj=resolution'
p627
I218
sS'dobj=isolation'
p628
I123
sS'w+2=strife'
p629
I491
sS'advmod=soon'
p630
I27
sS'w-2=Gaza'
p631
I583
sS'w-1=also'
p632
I516
sS'w-2=how'
p633
I653
sS'prep=through'
p634
I260
sS'conj=help'
p635
I67
sS'w-2=mostly'
p636
I680
sS'w+1=security'
p637
I347
sS'w+2=control'
p638
I410
sS'w+2=blockade'
p639
I400
sS'aux=should'
p640
I38
sS'w+1=during'
p641
I302
sS'nsubj=harvest'
p642
I203
sS'w-2=Bank'
p643
I576
sS'w-2=plant'
p644
I690
sS'dobj=time'
p645
I166
sS'w-1=Israel'
p646
I511
sS'conj=bring'
p647
I59
sS'w-2=job'
p648
I661
sS'dobj=crisis'
p649
I103
sS'w-1=either'
p650
I530
sS'w-1=Tuesday'
p651
I514
sS'ccomp=decline'
p652
I48
sS'dobj=effect'
p653
I109
sS'w+2=rise'
p654
I473
sS'w+1=concern'
p655
I294
sS'w-2=make'
p656
I671
sS'mark=as'
p657
I175
sS'conj=fast'
p658
I66
sS'w-2=sharing'
p659
I718
sS'advcl=put'
p660
I6
sS'w+2=strain'
p661
I490
sS'dobj=symptom'
p662
I164
sS'w-2=include'
p663
I655
sS'w+1=economic'
p664
I303
sS'w-1=before'
p665
I524
sS'nsubj=measure'
p666
I209
sS'w-2=very'
p667
I737
sS'w+2=pain'
p668
I457
sS'w-2=should'
p669
I720
sS'w-2=bid'
p670
I611
sS'w+1=restriction'
p671
I341
sS'complm=whether'
p672
I57
sS'w-2=Caterpillar'
p673
I577
sS'w-2=fighting'
p674
I639
sS'w+1=President'
p675
I275
sS'prep=after'
p676
I245
sS'dobj=distribution'
p677
I107
sS'w+2=situation'
p678
I481
sS'dobj=sting'
p679
I160
sS'w-2=year'
p680
I751
sS'w-2=insurgency'
p681
I656
sS'dobj=closure'
p682
I93
sS'w+1=with'
p683
I368
sS'prep=against'
p684
I246
sS'nsubjpass=matter'
p685
I235
sS'dobj=friction'
p686
I115
sS'w-2=move'
p687
I681
sS'dobj=stand'
p688
I159
sS'w+2=mortgage'
p689
I447
sS'w+1=Islamabad'
p690
I272
sS'nsubjpass=Controls'
p691
I232
sS'w-2=protest'
p692
I702
sS'conj=travel'
p693
I78
sS'advmod=how'
p694
I18
sS'w+1=of'
p695
I326
sS'nsubj=conflict'
p696
I191
sS'w+2=skiff'
p697
I483
sS'w-2=say'
p698
I712
sS'w-1=government'
p699
I536
sS'nsubj=situation'
p700
I222
sS'nsubj=Mbeki'
p701
I185
sS'prep=from'
p702
I253
sS'advmod=out'
p703
I22
sS'w+1=public'
p704
I335
sS'w-2=help'
p705
I650
sS'w+1=after'
p706
I283
sS'w-2=activity'
p707
I594
sS'w-2=take'
p708
I727
sS'w+1=freedom'
p709
I307
sS'w+1=Palestinians'
p710
I274
sS'aux=to'
p711
I39
sS'nsubj=recession'
p712
I214
sS'nsubj=Fretilin'
p713
I182
sS'w-1=completely'
p714
I526
sS'w-2=measure'
p715
I676
sS'ccomp=fear'
p716
I49
sS'w-2=latest'
p717
I664
sS'advcl=go'
p718
I3
sS'advcl=suppress'
p719
I9
sS'w+1=tight'
p720
I359
sS'w+2=Africa'
p721
I377
sS'w-2=can'
p722
I615
sS'w+1=regulation'
p723
I338
sS'w+2=energy'
p724
I420
sS'dobj=some'
p725
I156
sS'dobj=procurement'
p726
I134
sS'w+2=Kashmir'
p727
I380
sS'tmod=week'
p728
I268
sS'w+1=,'
p729
I270
sS'w-1=crisis'
p730
I528
sS'w+1=permit'
p731
I330
sS'w-2=that'
p732
I728
sS'advmod=perhaps'
p733
I23
sS'nsubjpass=checkpoint'
p734
I233
sS'w+1=election'
p735
I304
sS'w+2=,'
p736
I373
sS'w-2=step'
p737
I723
sS'neg=not'
p738
I179
sS'prep=during'
p739
I251
sS'w-2=-'
p740
I573
sS'dobj=way'
p741
I171
sS'w-2=reluctant'
p742
I705
sS'w+1=by'
p743
I290
sS'w-2=weekend'
p744
I741
sS'w-1=sacrifice'
p745
I559
sS'w-1=on'
p746
I552
sS'w-2=constitution'
p747
I621
sS'dobj=control'
p748
I99
sS'w+1=a'
p749
I281
sS'w-1=now'
p750
I550
sS'w-1=not'
p751
I549
sS'w+2=a'
p752
I386
sS'w-1=must'
p753
I547
sS'w+2=bit'
p754
I398
sS'w+1=U.S.'
p755
I278
sS'w-1=at'
p756
I521
sS'w-1=as'
p757
I520
sS'advmod=primarily'
p758
I24
sS'w-2=Jericho'
p759
I586
sS'w+2=pressure'
p760
I461
sS'aux=be'
p761
I30
sS'w-2=for'
p762
I641
sS'ccomp=break'
p763
I47
sS'dobj=bit'
p764
I88
sS'w-1=favor'
p765
I531
ssS'dtype'
p766
cnumpy
float64
p767
sS'feature_names_'
p768
(lp769
g600
ag435
ag186
ag718
ag37
ag469
ag660
ag24
ag86
ag719
ag183
ag462
ag236
ag201
ag407
ag173
ag16
ag70
ag694
ag246
ag55
ag603
ag703
ag733
ag758
ag133
ag142
ag630
ag269
ag466
ag761
ag111
ag514
ag417
ag620
ag61
ag83
ag522
ag640
ag711
ag421
ag139
ag288
ag477
ag504
ag430
ag262
ag763
ag652
ag716
ag100
ag306
ag226
ag560
ag209
ag41
ag112
ag672
ag169
ag647
ag555
ag455
ag324
ag380
ag294
ag28
ag658
ag635
ag302
ag62
ag118
ag153
ag355
ag601
ag290
ag316
ag275
ag12
ag693
ag331
ag254
ag116
ag208
ag211
ag336
ag591
ag126
ag459
ag764
ag565
ag291
ag164
ag436
ag682
ag397
ag26
ag389
ag559
ag272
ag748
ag598
ag286
ag451
ag649
ag524
ag25
ag582
ag677
ag235
ag653
ag592
ag66
ag554
ag488
ag448
ag686
ag59
ag92
ag379
ag51
ag49
ag45
ag484
ag628
ag9
ag414
ag260
ag107
ag386
ag38
ag587
ag152
ag29
ag479
ag726
ag370
ag599
ag304
ag271
ag432
ag372
ag586
ag349
ag362
ag605
ag69
ag617
ag191
ag104
ag85
ag606
ag255
ag577
ag50
ag190
ag360
ag725
ag398
ag257
ag688
ag679
ag165
ag283
ag494
ag662
ag364
ag645
ag570
ag195
ag252
ag229
ag741
ag534
ag426
ag542
ag657
ag192
ag196
ag87
ag738
ag309
ag497
ag713
ag129
ag151
ag701
ag491
ag210
ag428
ag131
ag333
ag696
ag54
ag44
ag500
ag58
ag471
ag308
ag345
ag278
ag402
ag39
ag180
ag642
ag572
ag507
ag517
ag141
ag329
ag666
ag574
ag11
ag492
ag63
ag712
ag473
ag14
ag237
ag627
ag495
ag482
ag128
ag700
ag323
ag204
ag551
ag171
ag22
ag456
ag18
ag359
ag545
ag691
ag734
ag218
ag685
ag390
ag348
ag305
ag335
ag82
ag251
ag509
ag110
ag457
ag676
ag684
ag611
ag609
ag36
ag35
ag739
ag274
ag702
ag137
ag216
ag353
ag535
ag541
ag248
ag634
ag147
ag478
ag405
ag429
ag175
ag583
ag328
ag728
ag493
ag729
ag373
ag690
ag330
ag710
ag675
ag47
ag383
ag755
ag297
ag242
ag749
ag575
ag706
ag156
ag168
ag249
ag401
ag223
ag602
ag743
ag518
ag301
ag33
ag655
ag207
ag403
ag498
ag520
ag543
ag158
ag65
ag641
ag664
ag735
ag521
ag114
ag709
ag240
ag461
ag117
ag395
ag202
ag351
ag616
ag56
ag470
ag388
ag516
ag513
ag314
ag80
ag136
ag445
ag526
ag284
ag695
ag167
ag68
ag464
ag731
ag613
ag367
ag352
ag8
ag704
ag146
ag487
ag723
ag78
ag624
ag671
ag307
ag597
ag452
ag81
ag182
ag637
ag74
ag19
ag567
ag320
ag442
ag502
ag319
ag123
ag10
ag593
ag132
ag720
ag347
ag356
ag97
ag315
ag585
ag172
ag241
ag485
ag683
ag298
ag588
ag458
ag20
ag736
ag98
ag287
ag115
ag721
ag546
ag89
ag727
ag531
ag564
ag365
ag392
ag416
ag752
ag361
ag245
ag197
ag296
ag568
ag232
ag279
ag427
ag538
ag127
ag21
ag754
ag77
ag639
ag322
ag231
ag122
ag562
ag258
ag91
ag43
ag253
ag506
ag638
ag84
ag72
ag214
ag446
ag589
ag17
ag396
ag206
ag32
ag724
ag499
ag337
ag515
ag166
ag375
ag447
ag124
ag394
ag234
ag350
ag354
ag552
ag369
ag310
ag177
ag411
ag99
ag159
ag280
ag409
ag101
ag607
ag247
ag483
ag431
ag340
ag689
ag52
ag225
ag553
ag199
ag341
ag346
ag338
ag418
ag268
ag668
ag143
ag300
ag377
ag760
ag342
ag109
ag46
ag621
ag230
ag270
ag125
ag134
ag184
ag410
ag282
ag654
ag622
ag178
ag228
ag149
ag203
ag162
ag312
ag678
ag266
ag697
ag187
ag476
ag424
ag486
ag510
ag449
ag661
ag629
ag422
ag339
ag221
ag563
ag608
ag527
ag90
ag505
ag465
ag381
ag376
ag382
ag327
ag155
ag220
ag318
ag332
ag625
ag623
ag646
ag53
ag480
ag651
ag181
ag632
ag163
ag145
ag358
ag757
ag756
ag259
ag561
ag665
ag371
ag714
ag108
ag730
ag67
ag650
ag765
ag276
ag547
ag536
ag289
ag699
ag556
ag96
ag511
ag179
ag481
ag95
ag490
ag548
ag528
ag595
ag753
ag76
ag751
ag750
ag578
ag746
ag292
ag368
ag423
ag474
ag366
ag13
ag745
ag42
ag23
ag64
ag154
ag413
ag317
ag325
ag558
ag439
ag57
ag263
ag40
ag612
ag740
ag614
ag544
ag643
ag673
ag60
ag425
ag460
ag343
ag525
ag631
ag400
ag113
ag759
ag419
ag285
ag334
ag472
ag463
ag261
ag412
ag707
ag344
ag566
ag594
ag205
ag267
ag105
ag584
ag363
ag590
ag295
ag420
ag160
ag31
ag532
ag519
ag557
ag670
ag217
ag212
ag15
ag722
ag303
ag250
ag194
ag213
ag604
ag747
ag384
ag265
ag408
ag549
ag219
ag441
ag277
ag239
ag200
ag233
ag450
ag119
ag596
ag120
ag321
ag385
ag434
ag674
ag404
ag762
ag150
ag573
ag174
ag537
ag144
ag130
ag475
ag299
ag705
ag94
ag102
ag633
ag529
ag663
ag681
ag326
ag48
ag443
ag393
ag648
ag176
ag533
ag717
ag579
ag576
ag140
ag523
ag444
ag264
ag656
ag79
ag93
ag374
ag415
ag715
ag550
ag256
ag580
ag636
ag687
ag30
ag626
ag227
ag106
ag170
ag512
ag357
ag437
ag644
ag438
ag27
ag34
ag378
ag453
ag406
ag468
ag224
ag501
ag433
ag103
ag692
ag508
ag222
ag742
ag121
ag391
ag244
ag454
ag73
ag281
ag698
ag440
ag189
ag185
ag243
ag161
ag659
ag539
ag669
ag157
ag148
ag737
ag571
ag273
ag540
ag708
ag732
ag71
ag238
ag75
ag581
ag618
ag619
ag188
ag215
ag667
ag615
ag569
ag467
ag744
ag193
ag489
ag399
ag387
ag610
ag293
ag88
ag198
ag135
ag680
ag503
ag313
ag311
ag496
ag530
ag138
asS'separator'
p770
S'='
sS'sparse'
p771
I01
sb.