ccopy_reg
_reconstructor
p1
(csklearn.feature_extraction.dict_vectorizer
DictVectorizer
p2
c__builtin__
object
p3
NtRp4
(dp5
S'vocabulary_'
p6
(dp7
S'advmod=briefly'
p8
I14
sS'w-2=opposition'
p9
I581
sS'w-2=artificial'
p10
I533
sS'w+2=operation'
p11
I413
sS'dobj=voting'
p12
I160
sS'nsubj=storm'
p13
I197
sS'w+2=industry'
p14
I397
sS'w-1=require'
p15
I499
sS'w-1=winter'
p16
I511
sS'w-2=we'
p17
I625
sS'w-2=people'
p18
I584
sS'nsubj=wave'
p19
I204
sS'nsubjpass=system'
p20
I226
sS'dobj=soldier'
p21
I147
sS'w+2=during'
p22
I376
sS'w+2=health'
p23
I391
sS"w+2='s"
p24
I332
sS'w+2=between'
p25
I355
sS'w+2=protest'
p26
I425
sS'w+2=financial'
p27
I382
sS'dobj=Summit'
p28
I72
sS'conj=close'
p29
I51
sS'w-2=unrest'
p30
I619
sS'prep=that'
p31
I242
sS'w+2=harmony'
p32
I390
sS'w+1=insurgent'
p33
I288
sS'w-2=police'
p34
I587
sS'nsubj=attack'
p35
I170
sS'w+2=peaceful'
p36
I417
sS'w+1=terrorist'
p37
I316
sS'nsubjpass=flight'
p38
I212
sS'w-2=fleet'
p39
I555
sS'w-2=they'
p40
I611
sS'prep=by'
p41
I235
sS'w+2=nation'
p42
I407
sS'dobj=group'
p43
I106
sS'w-2=some'
p44
I601
sS'advcl=meet'
p45
I8
sS'w-1=would'
p46
I514
sS'w-1=say'
p47
I502
sS'w-1=attack'
p48
I465
sS'nsubj=field'
p49
I181
sS'dobj=industry'
p50
I112
sS'w+1=transport'
p51
I325
sS'dobj=Games'
p52
I70
sS'w-2=better'
p53
I538
sS'w+2=recent'
p54
I426
sS'w-2=habitat'
p55
I561
sS'w+1=these'
p56
I319
sS'advmod=really'
p57
I23
sS'nsubj=influence'
p58
I185
sS'w-2=focus'
p59
I556
sS'tmod=year'
p60
I248
sS'w-1=will'
p61
I510
sS'dobj=harmony'
p62
I107
sS'dobj=effort'
p63
I96
sS'w+1=normal'
p64
I296
sS'conj=lead'
p65
I59
sS'nsubj=protest'
p66
I193
sS'w-1=by'
p67
I468
sS'w-1=be'
p68
I466
sS'dobj=grid'
p69
I105
sS'w+2=argument'
p70
I350
sS'w+2=delivery'
p71
I370
sS'dobj=order'
p72
I126
sS'advcl=see'
p73
I10
sS'w+1=car-bomber'
p74
I273
sS'w+1=she'
p75
I313
sS'nsubjpass=service'
p76
I223
sS'w-2=time'
p77
I614
sS'dobj=proceedings'
p78
I133
sS'dobj=wisdom'
p79
I161
sS'nsubj=unrest'
p80
I203
sS'w+2=polling'
p81
I421
sS'partmod=make'
p82
I230
sS'aux=might'
p83
I36
sS'w+2=country'
p84
I365
sS'nsubjpass=reading'
p85
I222
sS'w-2=highway'
p86
I565
sS'tmod=morning'
p87
I247
sS'w+2=to'
p88
I447
sS'w+1=on'
p89
I299
sS'dobj=poll'
p90
I132
sS'w-1=with'
p91
I512
sS'w-2=tire'
p92
I615
sS'w+1=or'
p93
I300
sS'w+2=day-to-day'
p94
I366
sS'w-1=have'
p95
I483
sS'nsubj=rocket'
p96
I195
sS'w+2=regime'
p97
I427
sS'nsubj=incident'
p98
I184
sS'advmod=this'
p99
I27
sS'w+2=in'
p100
I395
sS'dobj=plot'
p101
I131
sS'w-2=hope'
p102
I566
sS'w+2=attack'
p103
I352
sS'dobj=movement'
p104
I123
sS'w-1=could'
p105
I474
sS'w-1=also'
p106
I462
sS'aux=can'
p107
I32
sS'complm=that'
p108
I46
sS'prep=around'
p109
I232
sS'dep=chant'
p110
I64
sS'nsubj=bombing'
p111
I174
sS'advmod=at'
p112
I12
sS'w+2=export'
p113
I380
sS'dobj=care'
p114
I84
sS'nsubj=explosion'
p115
I179
sS'nsubjpass=percent'
p116
I220
sS'w-1=from'
p117
I481
sS'w+1=weather'
p118
I328
sS'w+2=event'
p119
I379
sS'w+2=by'
p120
I357
sS'w+1=the'
p121
I318
sS'w+2=hearing'
p122
I392
sS'w+2=relation'
p123
I429
sS'w+2=be'
p124
I353
sS'w+1=they'
p125
I320
sS'w+2=grid'
p126
I389
sS'w-2=role'
p127
I595
sS'w-2=road'
p128
I593
sS'w+1=those'
p129
I321
sS'nsubjpass=#PRP#'
p130
I207
sS'dobj=chemical'
p131
I87
sS'prep=in'
p132
I240
sS'aux=would'
p133
I39
sS'w+1=for'
p134
I281
sS'w-2=leader'
p135
I571
sS'nsubjpass=activity'
p136
I208
sS'conj=rattle'
p137
I62
sS'prep=amid'
p138
I231
sS'nsubjpass=hearing'
p139
I213
sS'prep=to'
p140
I244
sS'w+2=sense'
p141
I436
sS'advcl=fail'
p142
I5
sS'nsubj=the'
p143
I201
sS'nsubjpass=industry'
p144
I214
sS'conj=make'
p145
I60
sS'w-1=temporarily'
p146
I505
sS'w+1=and'
p147
I266
sS'w+1=distribution'
p148
I278
sS'dobj=plan'
p149
I130
sS'w-2=project'
p150
I590
sS'nsubj=lawmaker'
p151
I186
sS'nsubj=attempt'
p152
I171
sS'nsubj=member'
p153
I189
sS'nsubj=that'
p154
I200
sS'dobj=holiday'
p155
I110
sS'advmod=further'
p156
I19
sS'w-2=government'
p157
I560
sS'dobj=attack'
p158
I77
sS'dobj=work'
p159
I162
sS'nsubj=supporter'
p160
I198
sS'w+2=plot'
p161
I419
sS'w+2=link'
p162
I403
sS'w+1=breeding'
p163
I270
sS'w+2=festival'
p164
I381
sS'w-2=man'
p165
I573
sS'w-2=successful'
p166
I605
sS'dobj=election'
p167
I97
sS'conj=be'
p168
I48
sS'w-2=Felix'
p169
I520
sS'w-2=seek'
p170
I598
sS'w+2=distribution'
p171
I374
sS'nsubj=Felix'
p172
I168
sS'mark=if'
p173
I165
sS'nsubj=move'
p174
I190
sS'w-2=settler'
p175
I600
sS'w-2=work'
p176
I629
sS'w+2=diabetic'
p177
I372
sS'advcl=down'
p178
I4
sS'w-2=word'
p179
I628
sS'w-2=rule'
p180
I596
sS'dobj=event'
p181
I98
sS'w-2=network'
p182
I577
sS'w-2=incident'
p183
I568
sS'dobj=village'
p184
I157
sS'nsubjpass=supplies'
p185
I225
sS'w-1=continually'
p186
I473
sS'dep=damage'
p187
I65
sS'dobj=launch'
p188
I114
sS'w+2=shipping'
p189
I438
sS'dobj=supply'
p190
I150
sS'w+2=through'
p191
I446
sS'w+1=worldwide'
p192
I330
sS'w-2=border'
p193
I540
sS'w+2=progress'
p194
I424
sS'w-1=repeatedly'
p195
I498
sS'w+1=proceedings'
p196
I306
sS'conj=create'
p197
I53
sS'dobj=progress'
p198
I135
sS'w+1=both'
p199
I269
sS'advmod=meanwhile'
p200
I20
sS'dobj=activity'
p201
I73
sS'w-2=of'
p202
I580
sS'w+1=work'
p203
I329
sS'w+2=for'
p204
I384
sS'w-1=to'
p205
I507
sS'dobj=parliament'
p206
I127
sS'w-2=interdict'
p207
I569
sS'dobj=service'
p208
I144
sS'w-2=threaten'
p209
I612
sS'w+1=that'
p210
I317
sS'dobj=#PRP#'
p211
I68
sS'w-2=do'
p212
I549
sS'advmod=completely'
p213
I15
sS'nsubj=fence'
p214
I180
sS'w+2=middleman'
p215
I404
sS'dobj=gathering'
p216
I103
sS'dobj=game'
p217
I102
sS'dobj=Congress'
p218
I69
sS'w-1=crosser'
p219
I475
sS'w-2=funeral'
p220
I557
sS'w-2=attack'
p221
I534
sS'w+1=Parliament'
p222
I260
sS'dobj=sleep'
p223
I146
sS'w-1=completely'
p224
I471
sS'w-2=legislature'
p225
I572
sS'w+1=as'
p226
I267
sS'w+1=german'
p227
I282
sS'w+1=reconciliation'
p228
I309
sS'w+1=he'
p229
I284
sS'dobj=passing'
p230
I128
sS'nsubjpass=that'
p231
I227
sS'w-1=can'
p232
I469
sS'dobj=many'
p233
I118
sS'w-1=condition'
p234
I472
sS'xcomp=attendant'
p235
I631
sS'dobj=hearing'
p236
I109
sS'w+2=olive'
p237
I412
sS'w+1=life'
p238
I293
sS'w+2=delicate'
p239
I369
sS'w-1=lawmaker'
p240
I486
sS'advcl=halt'
p241
I7
sS'w-2=aim'
p242
I527
sS'w+2=Summit'
p243
I343
sS'w-1=risk'
p244
I500
sS'advmod=easily'
p245
I17
sS'advmod=when'
p246
I29
sS'advmod=repeatedly'
p247
I24
sS'conj=shut'
p248
I63
sS'w-2=hearing'
p249
I564
sS'prep=for'
p250
I237
sS'w+1=parliamentary'
p251
I302
sS'w+1=we'
p252
I327
sS'w+2=whole'
p253
I455
sS'w+2=oil'
p254
I411
sS'dobj=Parliament'
p255
I71
sS'w+1=tie'
p256
I322
sS'w-2=outage'
p257
I582
sS'w-1=much'
p258
I490
sS'parataxis=say'
p259
I229
sS'w-1=in'
p260
I485
sS'nsubj=but'
p261
I175
sS'w-2=appear'
p262
I531
sS'w+2=beginning'
p263
I354
sS'dobj=religion'
p264
I142
sS'auxpass=be'
p265
I40
sS'w+1=North'
p266
I257
sS'w-2=vow'
p267
I623
sS'dobj=dna'
p268
I93
sS'dobj=community'
p269
I88
sS'dobj=beginning'
p270
I79
sS'dobj=middleman'
p271
I120
sS'w-1=case'
p272
I470
sS'dobj=region'
p273
I140
sS'advmod=much'
p274
I21
sS'nsubj=blockade'
p275
I173
sS'w+2=say'
p276
I433
sS'dobj=ecosystem'
p277
I95
sS'w-2=supporter'
p278
I607
sS'w+2=decade'
p279
I367
sS'w+2=plan'
p280
I418
sS'dobj=conference'
p281
I89
sS'w+1=transportation'
p282
I326
sS'w+1=its'
p283
I292
sS'w+2=staff'
p284
I441
sS'nsubj=blanket'
p285
I172
sS"w-1=''"
p286
I458
sS'w+1=internet'
p287
I290
sS'dobj=breeding'
p288
I80
sS'w-1=rocket'
p289
I501
sS'w-2=charge'
p290
I544
sS'dobj=celebration'
p291
I85
sS'w+2=al-qaida'
p292
I347
sS'w-2=violence'
p293
I622
sS'w-2=allow'
p294
I528
sS"w-2=''"
p295
I516
sS'nsubjpass=stability'
p296
I224
sS'dobj=government'
p297
I104
sS'w-2=murderer'
p298
I575
sS'w+2=of'
p299
I410
sS'w-2=after'
p300
I526
sS'nsubj=fighting'
p301
I182
sS'dobj=return'
p302
I143
sS'w+2=network'
p303
I409
sS'w+2=electoral'
p304
I378
sS'conj=have'
p305
I58
sS'w+1=Georgia'
p306
I254
sS'w+1=traffic'
p307
I324
sS'w-1=fishing'
p308
I479
sS'w+2=part'
p309
I416
sS'w+1=communal'
p310
I275
sS'w-2=attempt'
p311
I535
sS'nsubjpass=printing'
p312
I221
sS'w+1=political'
p313
I304
sS'dobj=transportation'
p314
I155
sS'w+2=activity'
p315
I345
sS'w+2=April'
p316
I337
sS'w-2=ocean'
p317
I579
sS'advmod=continually'
p318
I16
sS'w+2=order'
p319
I414
sS'dobj=speech'
p320
I148
sS'advmod=needlessly'
p321
I22
sS'w+2=travel'
p322
I449
sS'w+1=South'
p323
I261
sS'w-2=responsible'
p324
I592
sS'w+1=international'
p325
I289
sS'w-2=state'
p326
I602
sS'w-2=terrorist'
p327
I608
sS'w+1=parliament'
p328
I301
sS'advmod=worldwide'
p329
I30
sS'w+2=launch'
p330
I399
sS'w+1=trade'
p331
I323
sS'w+1=delivery'
p332
I277
sS'dobj=race'
p333
I137
sS'w-2=potential'
p334
I589
sS'w+2=agreement'
p335
I346
sS'conj=defeat'
p336
I54
sS'w-2=protest'
p337
I591
sS'dobj=tie'
p338
I152
sS'w+2=speech'
p339
I440
sS'w-1=endocrine'
p340
I477
sS'w-2=which'
p341
I626
sS'w-2=Iraq'
p342
I521
sS'w+2=domestic'
p343
I375
sS'nsubj=fishing'
p344
I183
sS'w-2=audience'
p345
I536
sS'advmod=there'
p346
I26
sS'dobj=delivery'
p347
I91
sS'w-2=blockade'
p348
I539
sS'advmod=ever'
p349
I18
sS'w-2=the'
p350
I610
sS'aux=do'
p351
I34
sS'dobj=network'
p352
I124
sS'w+1=rail'
p353
I308
sS'w-2=also'
p354
I529
sS'aux=will'
p355
I38
sS'conj=cause'
p356
I50
sS'nsubj=States'
p357
I169
sS'w+2=proceedings'
p358
I422
sS'prep=with'
p359
I245
sS'cc=or'
p360
I43
sS'xcomp=deprive'
p361
I632
sS'dobj=relation'
p362
I141
sS'dobj=force'
p363
I101
sS'w-2=plan'
p364
I586
sS'w-1=toward'
p365
I508
sS'w+1=Middle'
p366
I256
sS'w+1=November'
p367
I258
sS'conj=attack'
p368
I47
sS'w+1=bird'
p369
I268
sS'w-2=in'
p370
I567
sS'w-2=day'
p371
I546
sS'conj=put'
p372
I61
sS'w+1=oil'
p373
I298
sS'w+1=market'
p374
I295
sS'w-2=event'
p375
I552
sS'w+2=fuel'
p376
I386
sS'w+1=river'
p377
I310
sS'prep=because'
p378
I234
sS'w-2=service'
p379
I599
sS'w+1=important'
p380
I286
sS'w-2=determine'
p381
I548
sS'w+1=chemical'
p382
I274
sS'w+1=service'
p383
I312
sS'w-1=on'
p384
I494
sS"w+2=''"
p385
I331
sS'w+2=holiday'
p386
I394
sS'w-2=fence'
p387
I553
sS'w+2=flow'
p388
I383
sS'advmod=also'
p389
I11
sS'w+2=lawmaker'
p390
I400
sS'w+1=Pakistan'
p391
I259
sS'mark=although'
p392
I164
sS'dobj=institution'
p393
I113
sS'dobj=life'
p394
I116
sS'nsubjpass=delivery'
p395
I211
sS'xcomp=try'
p396
I633
sS'w-2=economy'
p397
I551
sS'nsubjpass=cycle'
p398
I210
sS'w-2=States'
p399
I523
sS'w-1=easily'
p400
I476
sS'w-2=who'
p401
I627
sS'w-2=plain'
p402
I585
sS'ccomp=stop'
p403
I45
sS'w+2=poll'
p404
I420
sS'dobj=shipping'
p405
I145
sS'w-2=have'
p406
I562
sS'dobj=haven'
p407
I108
sS'cc=and'
p408
I41
sS'w+2=February'
p409
I339
sS'w+2=institution'
p410
I398
sS'nsubj=stoppage'
p411
I196
sS'w-2=use'
p412
I620
sS'w+1=by'
p413
I272
sS'dobj=cycle'
p414
I90
sS'w+2=community'
p415
I362
sS'dobj=flow'
p416
I100
sS'dobj=pattern'
p417
I129
sS'conj=cost'
p418
I52
sS'w+2=Korea'
p419
I341
sS'nsubjpass=network'
p420
I218
sS'w+2=natural'
p421
I408
sS'nsubjpass=traffic'
p422
I228
sS'w+2=some'
p423
I439
sS'w+1=in'
p424
I287
sS'dobj=travel'
p425
I156
sS'w+1=it'
p426
I291
sS'nsubj=#PRP#'
p427
I167
sS'advmod=both'
p428
I13
sS"w+1=''"
p429
I249
sS'cc=but'
p430
I42
sS'w+2=traffic'
p431
I448
sS'dobj=car-bomber'
p432
I83
sS'w+2=delay'
p433
I368
sS'w-1=ice'
p434
I484
sS'advmod=severely'
p435
I25
sS'nsubj=condition'
p436
I177
sS'dobj=#NUMBER#'
p437
I67
sS'nsubjpass=parliament'
p438
I219
sS'w-2=party'
p439
I583
sS'w+2=Siniora'
p440
I342
sS'w+1=G-20'
p441
I253
sS'aux=could'
p442
I33
sS'w-2=Basra'
p443
I519
sS'nsubj=who'
p444
I206
sS'nsubjpass=livelihood'
p445
I216
sS'dep=report'
p446
I66
sS'w+2=clash'
p447
I361
sS'advmod=violently'
p448
I28
sS'w-2=cable'
p449
I541
sS'w-1=without'
p450
I513
sS'prep=give'
p451
I239
sS'nsubj=terrorist'
p452
I199
sS'w+2=visit'
p453
I451
sS'w-2=rocket'
p454
I594
sS'w-1=might'
p455
I489
sS'w-1=severely'
p456
I503
sS'w+2=Games'
p457
I340
sS'w+2=service'
p458
I437
sS'w-2=be'
p459
I537
sS'w+2=dismantle'
p460
I373
sS'w-1=further'
p461
I482
sS'prep=on'
p462
I241
sS'mark=after'
p463
I163
sS'w+2=militant'
p464
I406
sS'w+1=plan'
p465
I303
sS'w-2=need'
p466
I576
sS'nsubj=man'
p467
I188
sS'w+2=hold'
p468
I393
sS'w-2=gear'
p469
I558
sS'w+2=system'
p470
I442
sS'nsubj=which'
p471
I205
sS'advcl=begin'
p472
I1
sS'w+2=migration'
p473
I405
sS'w-1=for'
p474
I480
sS'w+2=region'
p475
I428
sS'w+2=democratic'
p476
I371
sS'nsubj=response'
p477
I194
sS'w+1=group'
p478
I283
sS'w+2=voting'
p479
I453
sS'w+2=election'
p480
I377
sS'w-2=school'
p481
I597
sS'w+2=troop'
p482
I450
sS'dobj=system'
p483
I151
sS'w+1=daily'
p484
I276
sS'w+2=conventional'
p485
I364
sS'nsubj=change'
p486
I176
sS'w-2=tibetan'
p487
I613
sS'w+1=Hamas'
p488
I255
sS'dobj=militant'
p489
I122
sS'w+2=that'
p490
I443
sS'w+1=some'
p491
I315
sS'w+2=and'
p492
I348
sS'w+1=activity'
p493
I264
sS'w-2=want'
p494
I624
sS'w+2=any'
p495
I349
sS'dobj=traffic'
p496
I154
sS'w-2=such'
p497
I606
sS'w-1=ycl'
p498
I515
sS'dobj=campaign'
p499
I82
sS'advcl=say'
p500
I9
sS'w-1=of'
p501
I493
sS'w+1=broadcast'
p502
I271
sS'nsubj=police'
p503
I192
sS'w-2=to'
p504
I616
sS'dobj=process'
p505
I134
sS'w-2=and'
p506
I530
sS'conj=disrupt'
p507
I57
sS'advcl=display'
p508
I3
sS'w-2=traffic'
p509
I617
sS'w-2=try'
p510
I618
sS'conj=delay'
p511
I55
sS'w+2=safe'
p512
I432
sS'w-2=cut'
p513
I545
sS'w-2=he'
p514
I563
sS'dobj=protest'
p515
I136
sS'w-2=delivery'
p516
I547
sS'w-1=stoppage'
p517
I504
sS'w+1=dna'
p518
I279
sS'w-1=needlessly'
p519
I491
sS'dobj=agreement'
p520
I75
sS'w+2=process'
p521
I423
sS'dobj=reconciliation'
p522
I138
sS'w-2=possibility'
p523
I588
sS'dobj=economy'
p524
I94
sS'w+2=the'
p525
I444
sS'prep=as'
p526
I233
sS'w-2=,'
p527
I517
sS'w+2=Americans'
p528
I336
sS'w-1=and'
p529
I463
sS'w+2=campaign'
p530
I358
sS'aux=have'
p531
I35
sS'w-1=Greece'
p532
I461
sS'w-1=.'
p533
I460
sS'w-1=,'
p534
I459
sS'w+2=threaten'
p535
I445
sS'w-2=not'
p536
I578
sS'w+2=constitutional'
p537
I363
sS'conj=deprive'
p538
I56
sS'dobj=balance'
p539
I78
sS'dobj=visit'
p540
I158
sS'dobj=leadership'
p541
I115
sS'w-2=strive'
p542
I604
sS'dobj=regime'
p543
I139
sS'prep=through'
p544
I243
sS'dobj=advance'
p545
I74
sS'w+2=life'
p546
I401
sS'w-2=Nablus'
p547
I522
sS'w-1=lighting'
p548
I487
sS'w+2=world'
p549
I457
sS'advcl=gather'
p550
I6
sS'dobj=trade'
p551
I153
sS'w-2=a'
p552
I524
sS'dobj=ceremony'
p553
I86
sS'conj=bring'
p554
I49
sS'w-1=really'
p555
I497
sS'w+2=gathering'
p556
I388
sS'nsubj=lighting'
p557
I187
sS'dobj=link'
p558
I117
sS'w+2=work'
p559
I456
sS'advcl=bow'
p560
I2
sS'w-2=involve'
p561
I570
sS'w+1=many'
p562
I294
sS'w+2=independence'
p563
I396
sS'dobj=supplies'
p564
I149
sS'nsubjpass=life'
p565
I215
sS'w-2=very'
p566
I621
sS'dobj=migration'
p567
I121
sS'w+2=road'
p568
I431
sS'w+2=weather'
p569
I454
sS'w-1=violently'
p570
I509
sS'w-2=fighting'
p571
I554
sS'dobj=distribution'
p572
I92
sS'w+2=around'
p573
I351
sS'w+2=senior'
p574
I435
sS'w-2=Afghanistan'
p575
I518
sS'w+2=vote'
p576
I452
sS'dobj=vote'
p577
I159
sS'w+2=chain'
p578
I359
sS'w+2=lifecycle'
p579
I402
sS'w-2=earth'
p580
I550
sS'nsubj=crosser'
p581
I178
sS'nsubjpass=cell'
p582
I209
sS'dobj=export'
p583
I99
sS'w-2=move'
p584
I574
sS'w-2=goal'
p585
I559
sS'w-2=armed'
p586
I532
sS'w-1=protest'
p587
I496
sS'w+1=amid'
p588
I265
sS'nsubj=union'
p589
I202
sS'w+1=sleep'
p590
I314
sS'tmod=election'
p591
I246
sS'ccomp=response'
p592
I44
sS'dobj=broadcast'
p593
I81
sS'w+2=chemical'
p594
I360
sS'w-1=ever'
p595
I478
sS'prep=from'
p596
I238
sS'w+1=public'
p597
I307
sS'w+2=other'
p598
I415
sS'nsubj=outage'
p599
I191
sS'w-1=at'
p600
I464
sS'w-2=activity'
p601
I525
sS'w+2=East'
p602
I338
sS'w-2=storm'
p603
I603
sS'aux=to'
p604
I37
sS'w-2=you'
p605
I630
sS'dobj=al-qaida'
p606
I76
sS'w+1=Congress'
p607
I252
sS'w+2=Africa'
p608
I335
sS'w-2=can'
p609
I542
sS'dobj=market'
p610
I119
sS'w-2=car'
p611
I543
sS'w+1=flow'
p612
I280
sS'w+1=,'
p613
I250
sS'w+1=.'
p614
I251
sS'w-1=briefly'
p615
I467
sS'w-2=that'
p616
I609
sS'w+2=.'
p617
I334
sS'w+2=,'
p618
I333
sS'neg=not'
p619
I166
sS'dobj=operation'
p620
I125
sS'prep=during'
p621
I236
sS'w+2=religion'
p622
I430
sS'w+1=routine'
p623
I311
sS'w+2=game'
p624
I387
sS'nsubjpass=militia'
p625
I217
sS'dobj=hotel'
p626
I111
sS'w+2=sectarian'
p627
I434
sS'w+1=north-south'
p628
I297
sS'w+1=a'
p629
I263
sS'w-1=policeman'
p630
I495
sS'w-1=not'
p631
I492
sS'w+1=hundred'
p632
I285
sS'acomp=endocrine'
p633
I0
sS'w+1=U.S.'
p634
I262
sS'w+2=force'
p635
I385
sS'w-1=that'
p636
I506
sS'aux=be'
p637
I31
sS'w+1=power'
p638
I305
sS'w+2=big'
p639
I356
sS'w+2=a'
p640
I344
sS'w-1=man'
p641
I488
ssS'dtype'
p642
cnumpy
float64
p643
sS'feature_names_'
p644
(lp645
g633
ag472
ag560
ag508
ag178
ag142
ag550
ag241
ag45
ag500
ag73
ag389
ag112
ag428
ag8
ag213
ag318
ag245
ag349
ag156
ag200
ag274
ag321
ag57
ag247
ag435
ag346
ag99
ag448
ag246
ag329
ag637
ag107
ag442
ag351
ag531
ag83
ag604
ag355
ag133
ag265
ag408
ag430
ag360
ag592
ag403
ag108
ag368
ag168
ag554
ag356
ag29
ag418
ag197
ag336
ag511
ag538
ag507
ag305
ag65
ag145
ag372
ag137
ag248
ag110
ag187
ag446
ag437
ag211
ag218
ag52
ag255
ag28
ag201
ag545
ag520
ag606
ag158
ag539
ag270
ag288
ag593
ag499
ag432
ag114
ag291
ag553
ag131
ag269
ag281
ag414
ag347
ag572
ag268
ag524
ag277
ag63
ag167
ag181
ag583
ag416
ag363
ag217
ag216
ag297
ag69
ag43
ag62
ag407
ag236
ag155
ag626
ag50
ag393
ag188
ag541
ag394
ag558
ag233
ag610
ag271
ag567
ag489
ag104
ag352
ag620
ag72
ag206
ag230
ag417
ag149
ag101
ag90
ag78
ag505
ag198
ag515
ag333
ag522
ag543
ag273
ag362
ag264
ag302
ag208
ag405
ag223
ag21
ag320
ag564
ag190
ag483
ag338
ag551
ag496
ag314
ag425
ag184
ag540
ag577
ag12
ag79
ag159
ag463
ag392
ag173
ag619
ag427
ag172
ag357
ag35
ag152
ag285
ag275
ag111
ag261
ag486
ag436
ag581
ag115
ag214
ag49
ag301
ag344
ag98
ag58
ag151
ag557
ag467
ag153
ag174
ag599
ag503
ag66
ag477
ag96
ag411
ag13
ag160
ag452
ag154
ag143
ag589
ag80
ag19
ag471
ag444
ag130
ag136
ag582
ag398
ag395
ag38
ag139
ag144
ag565
ag445
ag625
ag420
ag438
ag116
ag312
ag85
ag76
ag296
ag185
ag20
ag231
ag422
ag259
ag82
ag138
ag109
ag526
ag378
ag41
ag621
ag250
ag596
ag451
ag132
ag462
ag31
ag544
ag140
ag359
ag591
ag87
ag60
ag429
ag613
ag614
ag607
ag441
ag306
ag488
ag366
ag266
ag367
ag391
ag222
ag323
ag634
ag629
ag493
ag588
ag147
ag226
ag369
ag199
ag163
ag502
ag413
ag74
ag382
ag310
ag484
ag332
ag148
ag518
ag612
ag134
ag227
ag478
ag229
ag632
ag380
ag424
ag33
ag325
ag287
ag426
ag283
ag238
ag562
ag374
ag64
ag628
ag373
ag89
ag93
ag328
ag251
ag465
ag313
ag638
ag196
ag597
ag353
ag228
ag377
ag623
ag383
ag75
ag590
ag491
ag37
ag210
ag121
ag56
ag125
ag129
ag256
ag331
ag307
ag51
ag282
ag252
ag118
ag203
ag192
ag385
ag24
ag618
ag617
ag608
ag528
ag316
ag602
ag409
ag457
ag419
ag440
ag243
ag640
ag315
ag335
ag292
ag492
ag495
ag70
ag573
ag103
ag124
ag263
ag25
ag639
ag120
ag530
ag578
ag594
ag447
ag415
ag537
ag485
ag84
ag94
ag279
ag433
ag239
ag71
ag476
ag177
ag460
ag171
ag343
ag22
ag480
ag304
ag119
ag113
ag164
ag27
ag388
ag204
ag635
ag376
ag624
ag556
ag126
ag32
ag23
ag122
ag468
ag386
ag100
ag563
ag14
ag410
ag330
ag390
ag546
ag579
ag162
ag215
ag473
ag464
ag42
ag421
ag303
ag299
ag254
ag237
ag11
ag319
ag598
ag309
ag36
ag280
ag161
ag404
ag81
ag358
ag521
ag194
ag26
ag54
ag97
ag475
ag123
ag622
ag568
ag512
ag276
ag627
ag574
ag141
ag458
ag189
ag423
ag339
ag284
ag470
ag490
ag525
ag535
ag191
ag88
ag431
ag322
ag482
ag453
ag576
ag479
ag569
ag253
ag559
ag549
ag286
ag534
ag533
ag532
ag106
ag529
ag600
ag48
ag68
ag615
ag67
ag232
ag272
ag224
ag234
ag186
ag105
ag219
ag400
ag340
ag595
ag308
ag474
ag117
ag461
ag95
ag434
ag260
ag240
ag548
ag641
ag455
ag258
ag519
ag631
ag501
ag384
ag630
ag587
ag555
ag195
ag15
ag244
ag289
ag47
ag456
ag517
ag146
ag636
ag205
ag365
ag570
ag61
ag16
ag91
ag450
ag46
ag498
ag295
ag527
ag575
ag443
ag169
ag342
ag547
ag399
ag552
ag601
ag300
ag242
ag294
ag354
ag506
ag262
ag586
ag10
ag221
ag311
ag345
ag459
ag53
ag348
ag193
ag449
ag609
ag611
ag290
ag513
ag371
ag516
ag381
ag212
ag580
ag397
ag375
ag387
ag571
ag39
ag59
ag220
ag469
ag585
ag157
ag55
ag406
ag514
ag249
ag86
ag102
ag370
ag183
ag207
ag561
ag135
ag225
ag165
ag584
ag298
ag466
ag182
ag536
ag317
ag202
ag9
ag257
ag439
ag18
ag402
ag364
ag34
ag523
ag334
ag150
ag337
ag324
ag128
ag454
ag127
ag180
ag481
ag170
ag379
ag175
ag44
ag326
ag603
ag542
ag166
ag497
ag278
ag327
ag616
ag350
ag40
ag209
ag487
ag77
ag92
ag504
ag509
ag510
ag30
ag412
ag566
ag293
ag267
ag494
ag17
ag341
ag401
ag179
ag176
ag605
ag235
ag361
ag396
asS'separator'
p646
S'='
sS'sparse'
p647
I01
sb.