ccopy_reg
_reconstructor
p1
(csklearn.feature_extraction.dict_vectorizer
DictVectorizer
p2
c__builtin__
object
p3
NtRp4
(dp5
S'sort'
p6
I01
sS'feature_names_'
p7
(lp8
S'advcl=give'
p9
aS'advcl=inherit'
p10
aS'advcl=meet'
p11
aS'advcl=successful'
p12
aS'advmod=ago'
p13
aS'advmod=dramatically'
p14
aS'advmod=here'
p15
aS'advmod=in'
p16
aS'advmod=just'
p17
aS'advmod=literally'
p18
aS'advmod=more'
p19
aS'advmod=since'
p20
aS'advmod=successfully'
p21
aS'advmod=thanks'
p22
aS'advmod=then'
p23
aS'advmod=when'
p24
aS'aux=be'
p25
aS'aux=can'
p26
aS'aux=have'
p27
aS'aux=shall'
p28
aS'aux=to'
p29
aS'aux=will'
p30
aS'auxpass=be'
p31
aS'cc=and'
p32
aS'cc=but'
p33
aS'ccomp=do'
p34
aS'complm=that'
p35
aS'conj=bring'
p36
aS'conj=consume'
p37
aS'conj=encompass'
p38
aS'conj=face'
p39
aS'conj=initiate'
p40
aS'conj=lift'
p41
aS'conj=raise'
p42
aS'conj=turn'
p43
aS'conj=with'
p44
aS'dep=call'
p45
aS'dep=identify'
p46
aS'dobj=#PRP#'
p47
aS'dobj=Bhutan'
p48
aS'dobj=Dubai'
p49
aS'dobj=East'
p50
aS'dobj=Ethiopia'
p51
aS'dobj=Kenya'
p52
aS'dobj=Medellin'
p53
aS'dobj=Parker'
p54
aS'dobj=Welsh'
p55
aS'dobj=agriculture'
p56
aS'dobj=cell'
p57
aS'dobj=citizen'
p58
aS'dobj=commerce'
p59
aS'dobj=company'
p60
aS'dobj=complex'
p61
aS'dobj=country'
p62
aS'dobj=diplomacy'
p63
aS'dobj=discourse'
p64
aS'dobj=economy'
p65
aS'dobj=element'
p66
aS'dobj=environment'
p67
aS'dobj=experience'
p68
aS'dobj=force'
p69
aS'dobj=hiv\\/aids'
p70
aS'dobj=housing'
p71
aS'dobj=image'
p72
aS'dobj=landscape'
p73
aS'dobj=life'
p74
aS'dobj=mdc'
p75
aS'dobj=ministry'
p76
aS'dobj=misconception'
p77
aS'dobj=mosque'
p78
aS'dobj=mother'
p79
aS'dobj=museum'
p80
aS'dobj=nation'
p81
aS'dobj=neighborhood'
p82
aS'dobj=ore'
p83
aS'dobj=output'
p84
aS'dobj=part'
p85
aS'dobj=policy'
p86
aS'dobj=program'
p87
aS'dobj=province'
p88
aS'dobj=race'
p89
aS'dobj=region'
p90
aS'dobj=relationship'
p91
aS'dobj=situation'
p92
aS'dobj=society'
p93
aS'dobj=structure'
p94
aS'dobj=sugar'
p95
aS'dobj=town'
p96
aS'dobj=trend'
p97
aS'dobj=which'
p98
aS'neg=not'
p99
aS'nsubj=#PRP#'
p100
aS'nsubj=Cheo'
p101
aS'nsubj=Georgia'
p102
aS'nsubj=Lukashenko'
p103
aS'nsubj=Palin'
p104
aS'nsubj=arena'
p105
aS'nsubj=arrival'
p106
aS'nsubj=bite'
p107
aS'nsubj=block'
p108
aS'nsubj=death'
p109
aS'nsubj=event'
p110
aS'nsubj=innovation'
p111
aS'nsubj=president'
p112
aS'nsubj=region'
p113
aS'nsubj=result'
p114
aS'nsubj=self-respect'
p115
aS'nsubj=step'
p116
aS'nsubj=that'
p117
aS'nsubj=which'
p118
aS'nsubj=whites'
p119
aS'nsubj=who'
p120
aS'nsubjpass=#PRP#'
p121
aS'nsubjpass=center'
p122
aS'nsubjpass=grounds'
p123
aS'nsubjpass=jump'
p124
aS'nsubjpass=lord'
p125
aS'nsubjpass=relation'
p126
aS'nsubjpass=situation'
p127
aS'nsubjpass=tragedy'
p128
aS'partmod=build'
p129
aS'prep=by'
p130
aS'prep=follow'
p131
aS'prep=for'
p132
aS'prep=from'
p133
aS'prep=in'
p134
aS'prep=into'
p135
aS'prep=than'
p136
aS'prep=to'
p137
aS'prep=with'
p138
aS'prep=without'
p139
aS'tmod=year'
p140
aS'w+1=,'
p141
aS'w+1=.'
p142
aS'w+1=Afghan'
p143
aS'w+1=Bhutan'
p144
aS'w+1=Dubai'
p145
aS'w+1=Ethiopia'
p146
aS'w+1=India'
p147
aS'w+1=Kenya'
p148
aS'w+1=Medellin'
p149
aS'w+1=Washington'
p150
aS'w+1=Welsh'
p151
aS'w+1=a'
p152
aS'w+1=american'
p153
aS'w+1=blood'
p154
aS'w+1=commerce'
p155
aS'w+1=derelict'
p156
aS'w+1=dramatically'
p157
aS'w+1=experience'
p158
aS'w+1=for'
p159
aS'w+1=from'
p160
aS'w+1=he'
p161
aS'w+1=himself'
p162
aS'w+1=hiv\\/aids'
p163
aS'w+1=industrial'
p164
aS'w+1=into'
p165
aS'w+1=its'
p166
aS'w+1=itself'
p167
aS'w+1=japanese'
p168
aS'w+1=life'
p169
aS'w+1=misconception'
p170
aS'w+1=one'
p171
aS'w+1=ordinary'
p172
aS'w+1=public'
p173
aS'w+1=skin'
p174
aS'w+1=society'
p175
aS'w+1=teenaged'
p176
aS'w+1=the'
p177
aS'w+1=they'
p178
aS'w+1=this'
p179
aS'w+1=those'
p180
aS'w+1=to'
p181
aS'w+1=urban'
p182
aS'w+1=we'
p183
aS'w+1=with'
p184
aS"w+2='s"
p185
aS'w+2=-lrb-'
p186
aS'w+2=.'
p187
aS'w+2=Middle'
p188
aS'w+2=Peter'
p189
aS'w+2=a'
p190
aS'w+2=agriculture'
p191
aS'w+2=and'
p192
aS'w+2=armed'
p193
aS'w+2=attitude'
p194
aS'w+2=cell'
p195
aS'w+2=child'
p196
aS'w+2=citizen'
p197
aS'w+2=company'
p198
aS'w+2=country'
p199
aS'w+2=dangling'
p200
aS'w+2=different'
p201
aS'w+2=diplomacy'
p202
aS'w+2=economic'
p203
aS'w+2=element'
p204
aS'w+2=emergency'
p205
aS'w+2=energy'
p206
aS'w+2=environment'
p207
aS'w+2=experience'
p208
aS'w+2=flower'
p209
aS'w+2=for'
p210
aS'w+2=from'
p211
aS'w+2=housing'
p212
aS'w+2=human'
p213
aS'w+2=impoverished'
p214
aS'w+2=in'
p215
aS'w+2=into'
p216
aS'w+2=iron'
p217
aS'w+2=landscape'
p218
aS'w+2=life'
p219
aS'w+2=ministry'
p220
aS'w+2=mosque'
p221
aS'w+2=museum'
p222
aS'w+2=nation'
p223
aS'w+2=negative'
p224
aS'w+2=neighborhood'
p225
aS'w+2=new'
p226
aS'w+2=north-south'
p227
aS'w+2=opposition'
p228
aS'w+2=output'
p229
aS'w+2=political'
p230
aS'w+2=province'
p231
aS'w+2=race'
p232
aS'w+2=region'
p233
aS'w+2=security'
p234
aS'w+2=situation'
p235
aS'w+2=society'
p236
aS'w+2=sugar'
p237
aS'w+2=the'
p238
aS'w+2=to'
p239
aS'w+2=town'
p240
aS'w+2=way'
p241
aS'w+2=whole'
p242
aS'w+2=young'
p243
aS'w-1=,'
p244
aS'w-1=--'
p245
aS'w-1=America'
p246
aS'w-1=Cheo'
p247
aS'w-1=a'
p248
aS'w-1=and'
p249
aS'w-1=arena'
p250
aS'w-1=at'
p251
aS'w-1=be'
p252
aS'w-1=by'
p253
aS'w-1=can'
p254
aS'w-1=city'
p255
aS'w-1=event'
p256
aS'w-1=from'
p257
aS'w-1=have'
p258
aS'w-1=he'
p259
aS'w-1=help'
p260
aS'w-1=in'
p261
aS'w-1=just'
p262
aS'w-1=literally'
p263
aS'w-1=of'
p264
aS'w-1=shall'
p265
aS'w-1=since'
p266
aS'w-1=spider'
p267
aS'w-1=successfully'
p268
aS'w-1=that'
p269
aS'w-1=then'
p270
aS'w-1=to'
p271
aS'w-1=we'
p272
aS'w-1=which'
p273
aS'w-1=who'
p274
aS'w-1=will'
p275
aS'w-1=year'
p276
aS"w-2=''"
p277
aS'w-2=,'
p278
aS'w-2=Georgia'
p279
aS'w-2=Lukashenko'
p280
aS'w-2=Maryland'
p281
aS'w-2=Mexico'
p282
aS'w-2=Palin'
p283
aS'w-2=World'
p284
aS'w-2=a'
p285
aS'w-2=ability'
p286
aS'w-2=able'
p287
aS'w-2=activist'
p288
aS'w-2=aim'
p289
aS'w-2=alchemy'
p290
aS'w-2=also'
p291
aS'w-2=and'
p292
aS'w-2=be'
p293
aS'w-2=chance'
p294
aS'w-2=continent'
p295
aS'w-2=continue'
p296
aS'w-2=death'
p297
aS'w-2=dialogue'
p298
aS'w-2=effort'
p299
aS'w-2=exchange'
p300
aS'w-2=exist'
p301
aS'w-2=few'
p302
aS'w-2=foreigner'
p303
aS'w-2=forward'
p304
aS'w-2=have'
p305
aS'w-2=hope'
p306
aS'w-2=indoor'
p307
aS'w-2=innovation'
p308
aS'w-2=intend'
p309
aS'w-2=irradiated'
p310
aS'w-2=it'
p311
aS'w-2=kilogram'
p312
aS'w-2=landmark'
p313
aS'w-2=medical'
p314
aS'w-2=minder'
p315
aS'w-2=not'
p316
aS'w-2=now'
p317
aS'w-2=of'
p318
aS'w-2=part'
p319
aS'w-2=plan'
p320
aS'w-2=planet'
p321
aS'w-2=potential'
p322
aS'w-2=providence'
p323
aS'w-2=region'
p324
aS'w-2=result'
p325
aS'w-2=should'
p326
aS'w-2=skill'
p327
aS'w-2=step'
p328
aS'w-2=succeed'
p329
aS'w-2=system'
p330
aS'w-2=task'
p331
aS'w-2=that'
p332
aS'w-2=then'
p333
aS'w-2=they'
p334
aS'w-2=violence'
p335
aS'w-2=want'
p336
aS'w-2=we'
p337
aS'w-2=when'
p338
aS'w-2=which'
p339
aS'w-2=will'
p340
aS'w-2=work'
p341
aS'w-2=year'
p342
aS'xcomp=able'
p343
aS'xcomp=politically'
p344
asS'dtype'
p345
cnumpy
float64
p346
sS'vocabulary_'
p347
(dp348
g23
I14
sg204
I195
sg297
I288
sg193
I184
sg224
I215
sg213
I204
sg125
I116
sg66
I57
sg211
I202
sg264
I255
sg19
I10
sg314
I305
sg243
I234
sg43
I34
sg14
I5
sg337
I328
sg91
I82
sg225
I216
sg48
I39
sg58
I49
sg265
I256
sg123
I114
sg95
I86
sg324
I315
sg84
I75
sg64
I55
sg42
I33
sg163
I154
sg174
I165
sg283
I274
sg318
I309
sg62
I53
sg158
I149
sg198
I189
sg187
I178
sg172
I163
sg102
I93
sg274
I265
sg93
I84
sg255
I246
sg336
I327
sg89
I80
sg246
I237
sg226
I217
sg292
I283
sg120
I111
sg203
I194
sg195
I186
sg288
I279
sg333
I324
sg298
I289
sg339
I330
sg107
I98
sg330
I321
sg212
I203
sg210
I201
sg334
I325
sg136
I127
sg271
I262
sg308
I299
sg154
I145
sg76
I67
sg192
I183
sg110
I101
sg218
I209
sg223
I214
sg290
I281
sg306
I297
sg79
I70
sg11
I2
sg82
I73
sg59
I50
sg122
I113
sg233
I224
sg208
I199
sg149
I140
sg162
I153
sg179
I170
sg156
I147
sg21
I12
sg196
I187
sg137
I128
sg194
I185
sg67
I58
sg155
I146
sg90
I81
sg286
I277
sg191
I182
sg81
I72
sg47
I38
sg291
I282
sg30
I21
sg184
I175
sg140
I131
sg131
I122
sg166
I157
sg325
I316
sg256
I247
sg17
I8
sg65
I56
sg238
I229
sg151
I142
sg167
I158
sg124
I115
sg71
I62
sg275
I266
sg157
I148
sg278
I269
sg127
I118
sg145
I136
sg56
I47
sg68
I59
sg129
I120
sg52
I43
sg27
I18
sg253
I244
sg300
I291
sg49
I40
sg252
I243
sg12
I3
sg69
I60
sg50
I41
sg320
I311
sg244
I235
sg150
I141
sg316
I307
sg317
I308
sg254
I245
sg284
I275
sg15
I6
sg227
I218
sg302
I293
sg327
I318
sg44
I35
sg287
I278
sg205
I196
sg329
I320
sg294
I285
sg181
I172
sg146
I137
sg169
I160
sg31
I22
sg22
I13
sg168
I159
sg303
I294
sg53
I44
sg78
I69
sg199
I190
sg51
I42
sg24
I15
sg281
I272
sg343
I334
sg270
I261
sg239
I230
sg188
I179
sg282
I273
sg285
I276
sg171
I162
sg328
I319
sg18
I9
sg132
I123
sg268
I259
sg144
I135
sg103
I94
sg296
I287
sg214
I205
sg247
I238
sg258
I249
sg201
I192
sg242
I233
sg34
I25
sg164
I155
sg20
I11
sg237
I228
sg186
I177
sg77
I68
sg55
I46
sg215
I206
sg80
I71
sg323
I314
sg259
I250
sg234
I225
sg295
I286
sg301
I292
sg341
I332
sg147
I138
sg289
I280
sg189
I180
sg197
I188
sg9
I0
sg160
I151
sg313
I304
sg206
I197
sg94
I85
sg74
I65
sg26
I17
sg35
I26
sg75
I66
sg266
I257
sg111
I102
sg39
I30
sg279
I270
sg113
I104
sg209
I200
sg60
I51
sg235
I226
sg101
I92
sg148
I139
sg309
I300
sg257
I248
sg105
I96
sg32
I23
sg86
I77
sg299
I290
sg73
I64
sg112
I103
sg332
I323
sg88
I79
sg177
I168
sg38
I29
sg28
I19
sg262
I253
sg16
I7
sg263
I254
sg33
I24
sg178
I169
sg307
I298
sg143
I134
sg185
I176
sg180
I171
sg338
I329
sg228
I219
sg153
I144
sg116
I107
sg45
I36
sg128
I119
sg134
I125
sg272
I263
sg121
I112
sg119
I110
sg159
I150
sg305
I296
sg331
I322
sg335
I326
sg54
I45
sg267
I258
sg100
I91
sg41
I32
sg183
I174
sg133
I124
sg173
I164
sg115
I106
sg222
I213
sg342
I333
sg182
I173
sg251
I242
sg70
I61
sg114
I105
sg165
I156
sg216
I207
sg87
I78
sg29
I20
sg326
I317
sg240
I231
sg109
I100
sg230
I221
sg118
I109
sg273
I264
sg37
I28
sg108
I99
sg13
I4
sg280
I271
sg260
I251
sg104
I95
sg85
I76
sg340
I331
sg322
I313
sg312
I303
sg175
I166
sg277
I268
sg46
I37
sg141
I132
sg250
I241
sg142
I133
sg126
I117
sg72
I63
sg344
I335
sg36
I27
sg176
I167
sg241
I232
sg236
I227
sg304
I295
sg217
I208
sg99
I90
sg57
I48
sg117
I108
sg83
I74
sg248
I239
sg249
I240
sg96
I87
sg310
I301
sg97
I88
sg63
I54
sg135
I126
sg219
I210
sg231
I222
sg170
I161
sg138
I129
sg207
I198
sg98
I89
sg245
I236
sg10
I1
sg202
I193
sg261
I252
sg311
I302
sg276
I267
sg232
I223
sg152
I143
sg293
I284
sg130
I121
sg321
I312
sg315
I306
sg139
I130
sg161
I152
sg221
I212
sg92
I83
sg106
I97
sg269
I260
sg25
I16
sg40
I31
sg61
I52
sg319
I310
sg200
I191
sg220
I211
sg190
I181
sg229
I220
ssS'separator'
p349
S'='
sS'sparse'
p350
I01
sb.