ccopy_reg
_reconstructor
p1
(csklearn.feature_extraction.dict_vectorizer
DictVectorizer
p2
c__builtin__
object
p3
NtRp4
(dp5
S'sort'
p6
I01
sS'feature_names_'
p7
(lp8
S'advcl=able'
p9
aS'advcl=refer'
p10
aS'advcl=solution'
p11
aS'advcl=strive'
p12
aS'advmod=also'
p13
aS'advmod=especially'
p14
aS'advmod=how'
p15
aS'advmod=that'
p16
aS'aux=be'
p17
aS'aux=can'
p18
aS'aux=could'
p19
aS'aux=have'
p20
aS'aux=should'
p21
aS'aux=to'
p22
aS'aux=will'
p23
aS'aux=would'
p24
aS'auxpass=be'
p25
aS'cc=and'
p26
aS'ccomp=remove'
p27
aS'ccomp=result'
p28
aS'complm=that'
p29
aS'conj=concern'
p30
aS'conj=criticize'
p31
aS'conj=enable'
p32
aS'conj=help'
p33
aS'conj=include'
p34
aS'conj=make'
p35
aS'dep=if'
p36
aS'dep=order'
p37
aS'dep=result'
p38
aS'dep=rule'
p39
aS'dep=work'
p40
aS'dobj=#PRP#'
p41
aS'dobj=Iraqis'
p42
aS'dobj=access'
p43
aS'dobj=activity'
p44
aS'dobj=agreement'
p45
aS'dobj=care'
p46
aS'dobj=communication'
p47
aS'dobj=decision'
p48
aS'dobj=deployment'
p49
aS'dobj=dialogue'
p50
aS'dobj=discussion'
p51
aS'dobj=effort'
p52
aS'dobj=flow'
p53
aS'dobj=gathering'
p54
aS'dobj=inquiry'
p55
aS'dobj=investigation'
p56
aS'dobj=investment'
p57
aS'dobj=kind'
p58
aS'dobj=laundering'
p59
aS'dobj=licens'
p60
aS'dobj=meeting'
p61
aS'dobj=month'
p62
aS'dobj=movement'
p63
aS'dobj=negotiation'
p64
aS'dobj=oil'
p65
aS'dobj=operation'
p66
aS'dobj=passage'
p67
aS'dobj=peace'
p68
aS'dobj=people'
p69
aS'dobj=process'
p70
aS'dobj=reconciliation'
p71
aS'dobj=recruitment'
p72
aS'dobj=reintegration'
p73
aS'dobj=release'
p74
aS'dobj=resettlement'
p75
aS'dobj=resource'
p76
aS'dobj=resumption'
p77
aS'dobj=return'
p78
aS'dobj=service'
p79
aS'dobj=smuggling'
p80
aS'dobj=solution'
p81
aS'dobj=start'
p82
aS'dobj=strike'
p83
aS'dobj=support'
p84
aS'dobj=surrender'
p85
aS'dobj=talk'
p86
aS'dobj=test'
p87
aS'dobj=trade'
p88
aS'dobj=transaction'
p89
aS'dobj=travel'
p90
aS'dobj=way'
p91
aS'dobj=withdrawal'
p92
aS'dobj=work'
p93
aS'mark=for'
p94
aS'mark=in'
p95
aS'nsubj=#PRP#'
p96
aS'nsubj=Commission'
p97
aS'nsubj=Gateway'
p98
aS'nsubj=IGAD'
p99
aS'nsubj=Mbeki'
p100
aS'nsubj=Movement'
p101
aS'nsubj=U.S.'
p102
aS'nsubj=airspace'
p103
aS'nsubj=bank'
p104
aS'nsubj=base'
p105
aS'nsubj=climate'
p106
aS'nsubj=coalition'
p107
aS'nsubj=community'
p108
aS'nsubj=effort'
p109
aS'nsubj=government'
p110
aS'nsubj=growth'
p111
aS'nsubj=handout'
p112
aS'nsubj=owner'
p113
aS'nsubj=that'
p114
aS'nsubj=union'
p115
aS'nsubj=way'
p116
aS'nsubj=which'
p117
aS'nsubj=who'
p118
aS'nsubjpass=reform'
p119
aS'nsubjpass=release'
p120
aS'nsubjpass=resurgence'
p121
aS'nsubjpass=talk'
p122
aS'nsubjpass=which'
p123
aS'prep=across'
p124
aS'prep=among'
p125
aS'prep=as'
p126
aS'prep=at'
p127
aS'prep=between'
p128
aS'prep=by'
p129
aS'prep=for'
p130
aS'prep=from'
p131
aS'prep=in'
p132
aS'prep=into'
p133
aS'prep=on'
p134
aS'prep=through'
p135
aS'prep=to'
p136
aS'purpcl=bring'
p137
aS'w+1=,'
p138
aS'w+1=Pyongyang'
p139
aS'w+1=a'
p140
aS'w+1=access'
p141
aS'w+1=activity'
p142
aS'w+1=also'
p143
aS'w+1=and'
p144
aS'w+1=as'
p145
aS'w+1=at'
p146
aS'w+1=by'
p147
aS'w+1=communication'
p148
aS'w+1=development'
p149
aS'w+1=dialogue'
p150
aS'w+1=discussion'
p151
aS'w+1=eight'
p152
aS'w+1=european'
p153
aS'w+1=for'
p154
aS'w+1=future'
p155
aS'w+1=he'
p156
aS'w+1=health'
p157
aS'w+1=humanitarian'
p158
aS'w+1=it'
p159
aS'w+1=joint'
p160
aS'w+1=licens'
p161
aS'w+1=meeting'
p162
aS'w+1=negotiation'
p163
aS'w+1=normal'
p164
aS'w+1=north'
p165
aS'w+1=only'
p166
aS'w+1=peace'
p167
aS'w+1=people'
p168
aS'w+1=political'
p169
aS'w+1=recount'
p170
aS'w+1=recruitment'
p171
aS'w+1=regional'
p172
aS'w+1=return'
p173
aS'w+1=some'
p174
aS'w+1=support'
p175
aS'w+1=talk'
p176
aS'w+1=that'
p177
aS'w+1=the'
p178
aS'w+1=these'
p179
aS'w+1=they'
p180
aS'w+1=through'
p181
aS'w+1=trade'
p182
aS'w+1=travel'
p183
aS"w+2='s"
p184
aS'w+2=,'
p185
aS'w+2=.'
p186
aS'w+2=South'
p187
aS'w+2=a'
p188
aS'w+2=actively'
p189
aS'w+2=another'
p190
aS'w+2=between'
p191
aS'w+2=care'
p192
aS'w+2=credit'
p193
aS'w+2=decision'
p194
aS'w+2=deployment'
p195
aS'w+2=dialogue'
p196
aS'w+2=discussion'
p197
aS'w+2=distribution'
p198
aS'w+2=effort'
p199
aS'w+2=enable'
p200
aS'w+2=flow'
p201
aS'w+2=for'
p202
aS'w+2=former'
p203
aS'w+2=full'
p204
aS'w+2=future'
p205
aS'w+2=gathering'
p206
aS'w+2=help'
p207
aS'w+2=hostage'
p208
aS'w+2=humanitarian'
p209
aS'w+2=in'
p210
aS'w+2=independent'
p211
aS'w+2=inquiry'
p212
aS'w+2=international'
p213
aS'w+2=investigation'
p214
aS'w+2=investment'
p215
aS'w+2=kind'
p216
aS'w+2=korean'
p217
aS'w+2=month'
p218
aS'w+2=move'
p219
aS'w+2=movement'
p220
aS'w+2=negotiation'
p221
aS'w+2=new'
p222
aS'w+2=of'
p223
aS'w+2=on'
p224
aS'w+2=ongoing'
p225
aS'w+2=operation'
p226
aS'w+2=other'
p227
aS'w+2=passage'
p228
aS'w+2=peace'
p229
aS'w+2=people'
p230
aS'w+2=political'
p231
aS'w+2=process'
p232
aS'w+2=recent'
p233
aS'w+2=reintegration'
p234
aS'w+2=resettlement'
p235
aS'w+2=resumption'
p236
aS'w+2=return'
p237
aS'w+2=smuggling'
p238
aS'w+2=solution'
p239
aS'w+2=somali'
p240
aS'w+2=south'
p241
aS'w+2=start'
p242
aS'w+2=strike'
p243
aS'w+2=surrender'
p244
aS'w+2=talk'
p245
aS'w+2=the'
p246
aS'w+2=they'
p247
aS'w+2=this'
p248
aS'w+2=through'
p249
aS'w+2=timely'
p250
aS'w+2=to'
p251
aS'w+2=trade'
p252
aS'w+2=travel'
p253
aS'w+2=underwater'
p254
aS'w+2=withdrawal'
p255
aS'w+2=work'
p256
aS'w+2=worker'
p257
aS'w-1=,'
p258
aS'w-1=African'
p259
aS'w-1=TIDES'
p260
aS'w-1=U.S.'
p261
aS'w-1=also'
p262
aS'w-1=and'
p263
aS'w-1=bank'
p264
aS'w-1=base'
p265
aS'w-1=be'
p266
aS'w-1=by'
p267
aS'w-1=can'
p268
aS'w-1=could'
p269
aS'w-1=from'
p270
aS'w-1=handout'
p271
aS'w-1=have'
p272
aS'w-1=help'
p273
aS'w-1=in'
p274
aS'w-1=it'
p275
aS'w-1=nor'
p276
aS'w-1=of'
p277
aS'w-1=owner'
p278
aS'w-1=process'
p279
aS'w-1=should'
p280
aS'w-1=they'
p281
aS'w-1=to'
p282
aS'w-1=which'
p283
aS'w-1=who'
p284
aS'w-1=will'
p285
aS'w-1=would'
p286
aS"w-2=''"
p287
aS'w-2=,'
p288
aS'w-2=-rrb-'
p289
aS'w-2=.'
p290
aS'w-2=:'
p291
aS'w-2=AGOA'
p292
aS'w-2=Africa'
p293
aS'w-2=Commission'
p294
aS'w-2=Djbouti'
p295
aS'w-2=IGAD'
p296
aS'w-2=Iraq'
p297
aS'w-2=Macau'
p298
aS'w-2=March'
p299
aS'w-2=Mbeki'
p300
aS'w-2=South'
p301
aS'w-2=a'
p302
aS'w-2=accept'
p303
aS'w-2=agreement'
p304
aS'w-2=also'
p305
aS'w-2=and'
p306
aS'w-2=arrangement'
p307
aS'w-2=as'
p308
aS'w-2=aside'
p309
aS'w-2=assist'
p310
aS'w-2=back'
p311
aS'w-2=be'
p312
aS'w-2=believe'
p313
aS'w-2=call'
p314
aS'w-2=can'
p315
aS'w-2=civilian'
p316
aS'w-2=continue'
p317
aS'w-2=cooperation'
p318
aS'w-2=could'
p319
aS'w-2=design'
p320
aS'w-2=dope'
p321
aS'w-2=effort'
p322
aS'w-2=enough'
p323
aS'w-2=for'
p324
aS'w-2=funding'
p325
aS'w-2=go'
p326
aS'w-2=government'
p327
aS'w-2=have'
p328
aS'w-2=he'
p329
aS'w-2=hostage'
p330
aS'w-2=initiative'
p331
aS'w-2=it'
p332
aS'w-2=korean'
p333
aS'w-2=mediterranean'
p334
aS'w-2=meeting'
p335
aS'w-2=month'
p336
aS'w-2=more'
p337
aS'w-2=negotiator'
p338
aS'w-2=official'
p339
aS'w-2=order'
p340
aS'w-2=place'
p341
aS'w-2=power'
p342
aS'w-2=process'
p343
aS'w-2=promise'
p344
aS'w-2=promote'
p345
aS'w-2=resurgence'
p346
aS'w-2=role'
p347
aS'w-2=routinely'
p348
aS'w-2=scene'
p349
aS'w-2=ship'
p350
aS'w-2=should'
p351
aS'w-2=state'
p352
aS'w-2=step'
p353
aS'w-2=strike'
p354
aS'w-2=system'
p355
aS'w-2=talk'
p356
aS'w-2=tension'
p357
aS'w-2=that'
p358
aS'w-2=they'
p359
aS'w-2=to'
p360
aS'w-2=try'
p361
aS'w-2=union'
p362
aS'w-2=want'
p363
aS'w-2=way'
p364
aS'w-2=we'
p365
aS'w-2=which'
p366
aS'w-2=would'
p367
aS'xcomp=bring'
p368
aS'xcomp=come'
p369
aS'xcomp=destabilize'
p370
aS'xcomp=discharge'
p371
aS'xcomp=do'
p372
aS'xcomp=end'
p373
aS'xcomp=improve'
p374
aS'xcomp=make'
p375
aS'xcomp=remove'
p376
asS'dtype'
p377
cnumpy
float64
p378
sS'vocabulary_'
p379
(dp380
g10
I1
sg204
I195
sg226
I217
sg265
I256
sg365
I356
sg239
I230
sg184
I175
sg191
I182
sg60
I51
sg213
I204
sg257
I248
sg368
I359
sg129
I120
sg197
I188
sg128
I119
sg58
I49
sg177
I168
sg68
I59
sg110
I101
sg286
I277
sg325
I316
sg220
I211
sg179
I170
sg166
I157
sg61
I52
sg229
I220
sg298
I289
sg285
I276
sg52
I43
sg164
I155
sg267
I258
sg266
I257
sg193
I184
sg137
I128
sg342
I333
sg211
I202
sg86
I77
sg122
I113
sg153
I144
sg251
I242
sg362
I353
sg98
I89
sg343
I334
sg293
I284
sg272
I263
sg135
I126
sg183
I174
sg210
I201
sg33
I24
sg74
I65
sg176
I167
sg269
I260
sg121
I112
sg262
I253
sg18
I9
sg29
I20
sg370
I361
sg62
I53
sg46
I37
sg37
I28
sg292
I283
sg322
I313
sg358
I349
sg178
I169
sg81
I72
sg372
I363
sg196
I187
sg180
I171
sg168
I159
sg132
I123
sg87
I78
sg24
I15
sg154
I145
sg77
I68
sg205
I196
sg243
I234
sg136
I127
sg318
I309
sg231
I222
sg264
I255
sg335
I326
sg35
I26
sg374
I365
sg340
I331
sg93
I84
sg92
I83
sg375
I366
sg139
I130
sg369
I360
sg202
I193
sg280
I271
sg144
I135
sg114
I105
sg275
I266
sg252
I243
sg307
I298
sg250
I241
sg274
I265
sg111
I102
sg105
I96
sg289
I280
sg198
I189
sg278
I269
sg95
I86
sg106
I97
sg352
I343
sg161
I152
sg320
I311
sg241
I232
sg203
I194
sg82
I73
sg366
I357
sg116
I107
sg313
I304
sg42
I33
sg12
I3
sg69
I60
sg249
I240
sg259
I250
sg84
I75
sg118
I109
sg44
I35
sg238
I229
sg104
I95
sg282
I273
sg14
I5
sg79
I70
sg41
I32
sg371
I362
sg31
I22
sg64
I55
sg218
I209
sg255
I246
sg271
I262
sg199
I190
sg145
I136
sg146
I137
sg156
I147
sg94
I85
sg310
I301
sg268
I259
sg339
I330
sg181
I172
sg349
I340
sg331
I322
sg234
I225
sg73
I64
sg130
I121
sg245
I236
sg56
I47
sg237
I228
sg186
I177
sg25
I16
sg38
I29
sg294
I285
sg317
I308
sg334
I325
sg192
I183
sg233
I224
sg109
I100
sg209
I200
sg338
I329
sg27
I18
sg219
I210
sg341
I332
sg348
I339
sg85
I76
sg43
I34
sg336
I327
sg113
I104
sg119
I110
sg223
I214
sg224
I215
sg235
I226
sg76
I67
sg263
I254
sg133
I124
sg32
I23
sg354
I345
sg169
I160
sg316
I307
sg51
I42
sg80
I71
sg253
I244
sg326
I317
sg89
I80
sg163
I154
sg187
I178
sg367
I358
sg182
I173
sg150
I141
sg248
I239
sg357
I348
sg309
I300
sg167
I158
sg297
I288
sg48
I39
sg311
I302
sg28
I19
sg15
I6
sg305
I296
sg23
I14
sg254
I245
sg222
I213
sg333
I324
sg190
I181
sg108
I99
sg103
I94
sg194
I185
sg151
I142
sg230
I221
sg345
I336
sg83
I74
sg332
I323
sg155
I146
sg207
I198
sg303
I294
sg75
I66
sg201
I192
sg304
I295
sg200
I191
sg214
I205
sg359
I350
sg314
I305
sg376
I367
sg328
I319
sg26
I17
sg236
I227
sg65
I56
sg147
I138
sg172
I163
sg97
I88
sg53
I44
sg373
I364
sg158
I149
sg364
I355
sg90
I81
sg159
I150
sg212
I203
sg96
I87
sg157
I148
sg330
I321
sg270
I261
sg72
I63
sg344
I335
sg347
I338
sg67
I58
sg242
I233
sg273
I264
sg149
I140
sg19
I10
sg107
I98
sg221
I212
sg321
I312
sg346
I337
sg36
I27
sg50
I41
sg216
I207
sg350
I341
sg11
I2
sg312
I303
sg134
I125
sg117
I108
sg287
I278
sg162
I153
sg319
I310
sg148
I139
sg55
I46
sg356
I347
sg57
I48
sg315
I306
sg284
I275
sg142
I133
sg363
I354
sg160
I151
sg170
I161
sg141
I132
sg355
I346
sg277
I268
sg337
I328
sg360
I351
sg70
I61
sg306
I297
sg47
I38
sg124
I115
sg361
I352
sg13
I4
sg323
I314
sg329
I320
sg217
I208
sg45
I36
sg232
I223
sg71
I62
sg101
I92
sg215
I206
sg246
I237
sg127
I118
sg102
I93
sg327
I318
sg126
I117
sg78
I69
sg288
I279
sg34
I25
sg290
I281
sg39
I30
sg20
I11
sg173
I164
sg63
I54
sg291
I282
sg125
I116
sg258
I249
sg301
I292
sg171
I162
sg308
I299
sg300
I291
sg299
I290
sg54
I45
sg283
I274
sg112
I103
sg21
I12
sg225
I216
sg88
I79
sg302
I293
sg279
I270
sg281
I272
sg49
I40
sg123
I114
sg228
I219
sg256
I247
sg206
I197
sg59
I50
sg40
I31
sg16
I7
sg247
I238
sg244
I235
sg260
I251
sg208
I199
sg165
I156
sg195
I186
sg9
I0
sg115
I106
sg99
I90
sg152
I143
sg100
I91
sg131
I122
sg30
I21
sg227
I218
sg22
I13
sg351
I342
sg175
I166
sg295
I286
sg240
I231
sg138
I129
sg174
I165
sg185
I176
sg143
I134
sg353
I344
sg261
I252
sg66
I57
sg91
I82
sg189
I180
sg120
I111
sg140
I131
sg276
I267
sg296
I287
sg17
I8
sg324
I315
sg188
I179
ssS'separator'
p381
S'='
sS'sparse'
p382
I01
sb.