ccopy_reg
_reconstructor
p1
(csklearn.feature_extraction.dict_vectorizer
DictVectorizer
p2
c__builtin__
object
p3
NtRp4
(dp5
S'vocabulary_'
p6
(dp7
S'nsubjpass=many'
p8
I223
sS'nsubj=France'
p9
I164
sS'w+1=delegate'
p10
I307
sS'nsubj=Ban'
p11
I155
sS'w+2=Sarkozy'
p12
I383
sS'w-2=we'
p13
I678
sS'w+1=outside'
p14
I329
sS'w+2=among'
p15
I397
sS'xcomp=free'
p16
I701
sS'w+2=but'
p17
I409
sS'w+2=high-level'
p18
I428
sS'w+2=Roh'
p19
I382
sS'w+2=target'
p20
I469
sS'w-2=gender'
p21
I636
sS'w+1=90'
p22
I271
sS'xcomp=use'
p23
I730
sS'advmod=proudly'
p24
I21
sS'conj=arrive'
p25
I48
sS'w-2=Knesset'
p26
I578
sS'w-2=they'
p27
I674
sS'prep=by'
p28
I241
sS'w-1=Pyongyang'
p29
I500
sS'w-2=Taleban'
p30
I599
sS'w-2=country'
p31
I622
sS'dobj=group'
p32
I114
sS'w-2=Mugabe'
p33
I585
sS'dobj=Syria'
p34
I89
sS'w+2=russian'
p35
I463
sS'xcomp=visit'
p36
I731
sS'nsubj=government'
p37
I186
sS'w-2=not'
p38
I653
sS'w-1=get'
p39
I518
sS'w+2=dozen'
p40
I415
sS'w-1=would'
p41
I559
sS'nsubjpass=Nkunda'
p42
I205
sS'w-2=Megan'
p43
I583
sS'w+2=child'
p44
I410
sS'dobj=IAEA'
p45
I81
sS'nsubj=station'
p46
I194
sS'w-2=North'
p47
I589
sS'w+2=across'
p48
I394
sS'w-2=sudanese'
p49
I670
sS'w-1=team'
p50
I550
sS'w-1=Russia'
p51
I502
sS'w+1=these'
p52
I344
sS'w-2=from'
p53
I635
sS'w+1=want'
p54
I351
sS'conj=deliver'
p55
I52
sS'advmod=just'
p56
I15
sS'w+1=every'
p57
I308
sS'cc=nor'
p58
I40
sS'nsubjpass=Mugabe'
p59
I204
sS'w-2=I'
p60
I575
sS'w+2=United'
p61
I391
sS'w+2=person'
p62
I456
sS'w+2=Sri'
p63
I387
sS'xcomp=join'
p64
I705
sS'w-1=by'
p65
I512
sS'w-1=be'
p66
I510
sS'advmod=upstairs'
p67
I27
sS'parataxis=help'
p68
I235
sS'w+2=speak'
p69
I465
sS'w+1=family'
p70
I309
sS'w+2=Islamists'
p71
I370
sS'w-1=station'
p72
I548
sS'w-2=able'
p73
I605
sS'w+1=she'
p74
I338
sS'xcomp=give'
p75
I702
sS'w+1=grandmother'
p76
I314
sS'nsubj=leader'
p77
I188
sS'xcomp=bid'
p78
I691
sS'nsubj=what'
p79
I197
sS'xcomp=explore'
p80
I699
sS'w-1=five'
p81
I516
sS'nsubj=Diouf'
p82
I159
sS'mark=because'
p83
I148
sS'w-2=who'
p84
I681
sS'dobj=Nations'
p85
I85
sS'w+2=nuclear'
p86
I446
sS'w-2=answer'
p87
I612
sS'mark=unless'
p88
I151
sS'w-2=without'
p89
I683
sS'w-2=decision'
p90
I626
sS'w+2=to'
p91
I474
sS'xcomp=member'
p92
I708
sS'w-2=decide'
p93
I625
sS'w+1=or'
p94
I328
sS'w-1=some'
p95
I547
sS'w-2=process'
p96
I660
sS'nsubj=practice'
p97
I192
sS'w-1=have'
p98
I522
sS'ccomp=say'
p99
I44
sS'w+1=United'
p100
I287
sS'w+2=-lrb-'
p101
I360
sS'dobj=Hansen'
p102
I80
sS'w+2=ambassador'
p103
I396
sS'nsubjpass=troops'
p104
I232
sS'dobj=team'
p105
I140
sS'w-1=again'
p106
I506
sS'w+2=perform'
p107
I455
sS'w-2=all'
p108
I608
sS'w+2=who'
p109
I479
sS'w+2=Nations'
p110
I378
sS'w-1=also'
p111
I507
sS'dobj=candidate'
p112
I99
sS'prep=around'
p113
I238
sS'w+1=people'
p114
I331
sS'tmod=month'
p115
I262
sS'dobj=area'
p116
I93
sS'w+2=jewish'
p117
I434
sS'rel=by'
p118
I259
sS'w+1=specialized'
p119
I341
sS'w+2=world'
p120
I481
sS'dobj=washingtonian'
p121
I146
sS'w-2=Stephen'
p122
I597
sS'w+2=force'
p123
I420
sS'w-1=Il'
p124
I494
sS'w-1=government'
p125
I520
sS'w+2=President'
p126
I381
sS'w+1=tragedy'
p127
I348
sS'w-2=that'
p128
I672
sS'w+1=the'
p129
I343
sS'w+2=take'
p130
I468
sS'xcomp=begin'
p131
I689
sS'w-2=for'
p132
I632
sS'w+2=be'
p133
I405
sS'w+1=they'
p134
I345
sS'w-2=group'
p135
I639
sS'w-2=ring'
p136
I664
sS'w+1=those'
p137
I346
sS'w-2=delegation'
p138
I627
sS'nsubjpass=#PRP#'
p139
I200
sS'w-2=investigator'
p140
I648
sS'nsubj=Chidoka'
p141
I157
sS'w-2=number'
p142
I654
sS'w+2=observer'
p143
I447
sS'prep=in'
p144
I248
sS'purpcl=prevent'
p145
I258
sS'dobj=pariah'
p146
I128
sS'aux=would'
p147
I35
sS'w+1=Croatia'
p148
I273
sS'w+1=for'
p149
I310
sS'w-2=leader'
p150
I650
sS'xcomp=wait'
p151
I732
sS'csubj=walk'
p152
I68
sS'xcomp=perform'
p153
I714
sS'prep=to'
p154
I255
sS'w-2=a'
p155
I604
sS'w-2=Korea'
p156
I579
sS'dobj=the'
p157
I142
sS'nsubj=Ethiopia'
p158
I162
sS'advmod=ago'
p159
I8
sS'w-1=still'
p160
I549
sS'w+1=and'
p161
I294
sS'conj=expect'
p162
I54
sS'w-1=Kampala'
p163
I495
sS'xcomp=come'
p164
I694
sS'nsubj=member'
p165
I190
sS'w+1=any'
p166
I295
sS'w-1=Sarkozy'
p167
I503
sS'dobj=athlete'
p168
I96
sS'w-2=party'
p169
I656
sS'nsubj=that'
p170
I196
sS'w+1=Defense'
p171
I275
sS'advmod=on'
p172
I17
sS'w-2=government'
p173
I638
sS'nsubj=Reid'
p174
I174
sS'advmod=here'
p175
I14
sS'w+2=this'
p176
I473
sS'w-2=Rudd'
p177
I593
sS'xcomp=say'
p178
I720
sS'xcomp=America'
p179
I685
sS'w-2=several'
p180
I666
sS'xcomp=relentless'
p181
I718
sS'conj=invite'
p182
I60
sS'w-2=Asian'
p183
I565
sS'xcomp=discuss'
p184
I695
sS'w+2=army'
p185
I400
sS'w+1=70'
p186
I270
sS'w+2=official'
p187
I449
sS'xcomp=celebrate'
p188
I693
sS'mark=if'
p189
I149
sS'w+2=fighter'
p190
I418
sS'w+1=Addow'
p191
I272
sS'w+2=compete'
p192
I413
sS'w-2=right'
p193
I663
sS'w+2=not'
p194
I445
sS'w+2=company'
p195
I412
sS'advmod=where'
p196
I28
sS'nsubjpass=several'
p197
I229
sS'w+1=plus'
p198
I333
sS'dobj=family'
p199
I108
sS'w+1=congressional'
p200
I305
sS'w-2=11'
p201
I564
sS'w-1=celebration'
p202
I513
sS'w-2=firmly'
p203
I630
sS'w-1=-lrb-'
p204
I483
sS'w-2=Pyongyang'
p205
I592
sS'nsubj=anybody'
p206
I181
sS'dobj=people'
p207
I130
sS'w+1=inspector'
p208
I318
sS'w+2=2005'
p209
I362
sS'xcomp=observe'
p210
I710
sS'nsubj=who'
p211
I198
sS'xcomp=play'
p212
I715
sS'nsubjpass=Putin'
p213
I208
sS'w-2=Bush'
p214
I567
sS'w+1=Maliki'
p215
I280
sS'w+2=guest'
p216
I426
sS'w-1=Hadley'
p217
I492
sS'w-2=have'
p218
I640
sS'w+2=for'
p219
I419
sS'xcomp=recognizable-face'
p220
I717
sS'nsubjpass=child'
p221
I215
sS'advcl=of'
p222
I3
sS'w-2=France'
p223
I574
sS'w+2=Somalia'
p224
I386
sS'dobj=#PRP#'
p225
I74
sS'w+1=Kang'
p226
I279
sS'w+1=you'
p227
I356
sS'dobj=world'
p228
I147
sS'w-2=friend'
p229
I634
sS'nsubjpass=Lafayette'
p230
I203
sS'w-2=agreement'
p231
I607
sS'nsubj=Musharraf'
p232
I171
sS'w+2=Carter'
p233
I368
sS'nsubj=Gadhafi'
p234
I165
sS'w-1=panel'
p235
I534
sS'w+1=as'
p236
I296
sS'w+2=iranian'
p237
I433
sS'nsubj=Russia'
p238
I175
sS'dobj=official'
p239
I125
sS'advcl=expel'
p240
I1
sS'nsubj=company'
p241
I184
sS'w+1=crowd'
p242
I306
sS'w+1=he'
p243
I316
sS'w+2=Yard'
p244
I392
sS'prt=out'
p245
I257
sS'w-1=country'
p246
I514
sS'w-2=Thai'
p247
I600
sS'w+1=whatever'
p248
I354
sS'w-1=Nations'
p249
I499
sS'xcomp=have'
p250
I703
sS'nsubj=liturgy'
p251
I189
sS'dobj=friend'
p252
I111
sS'w-2=Russia'
p253
I594
sS'w-1=Gadhafi'
p254
I490
sS'w-2=Chidoka'
p255
I568
sS'dobj=assault'
p256
I95
sS'nsubj=mother'
p257
I191
sS'xcomp=learn'
p258
I706
sS'w-1=previously'
p259
I540
sS'advmod=ever'
p260
I12
sS'w-2=Svitak'
p261
I598
sS'w+1=two'
p262
I349
sS'w-2=will'
p263
I682
sS'w+1=rebel'
p264
I334
sS'nsubjpass=student'
p265
I231
sS'nsubj=Esfandiari'
p266
I161
sS'nsubjpass=representative'
p267
I228
sS'dobj=Ahmadinejad'
p268
I76
sS'w-2=she'
p269
I667
sS'prep=for'
p270
I245
sS'advmod=along'
p271
I9
sS'dep=that'
p272
I71
sS'w+1=we'
p273
I353
sS'w+2=believe'
p274
I407
sS'w+1=iranian'
p275
I321
sS'nsubj=Bush'
p276
I156
sS'dobj=leader'
p277
I120
sS'rel=under'
p278
I260
sS'w+2=IAEA'
p279
I369
sS'conj=begin'
p280
I50
sS'w-2=U.S.'
p281
I601
sS'prep=despite'
p282
I243
sS'w-2=Mr.'
p283
I584
sS'w+2=return'
p284
I462
sS'auxpass=be'
p285
I36
sS'w-2=public'
p286
I661
sS'prep=plus'
p287
I254
sS'w+1=anarchy'
p288
I293
sS'dobj=army'
p289
I94
sS'w-1=party'
p290
I535
sS'dobj=company'
p291
I104
sS'w-2=sound'
p292
I669
sS'w-2=United'
p293
I603
sS'advmod=officially'
p294
I16
sS'dobj=republican'
p295
I135
sS'advmod=still'
p296
I25
sS'nsubj=president'
p297
I193
sS'nsubj=Korea'
p298
I167
sS'xcomp=return'
p299
I719
sS'w+2=say'
p300
I464
sS'w-1=Koreans'
p301
I497
sS'xcomp=speak'
p302
I724
sS'w+2=afflict'
p303
I395
sS'w+2=Ahmadinejad'
p304
I365
sS'w+1=american'
p305
I292
sS'w+2=watch'
p306
I476
sS'w-2=foreign'
p307
I633
sS'w+1=its'
p308
I322
sS'w+2=New'
p309
I379
sS'xcomp=show'
p310
I722
sS'w+1=syrian'
p311
I342
sS'w+2=play'
p312
I457
sS'w+1=cambodian'
p313
I301
sS'w-2=nearly'
p314
I652
sS'xcomp=monitor'
p315
I709
sS'w+2=witch'
p316
I480
sS'dobj=partner'
p317
I129
sS'conj=attend'
p318
I49
sS'w-2=intend'
p319
I644
sS'conj=refuse'
p320
I63
sS'prep=off'
p321
I250
sS'w-2=Department'
p322
I570
sS'nsubj=Minister'
p323
I169
sS'w-1=Diouf'
p324
I488
sS'advmod=secretly'
p325
I24
sS'w+1=Syria'
p326
I285
sS'conj=do'
p327
I53
sS'nsubjpass=Taleban'
p328
I213
sS'w-1=observer'
p329
I529
sS"w-2=''"
p330
I560
sS'nsubj=States'
p331
I179
sS'w+2=of'
p332
I448
sS'w+2=choir'
p333
I411
sS'conj=feel'
p334
I55
sS'w+1=to'
p335
I347
sS'nsubjpass=public'
p336
I227
sS'xcomp=engage'
p337
I696
sS'xcomp=Union'
p338
I686
sS'w+2=tourist'
p339
I475
sS'w+1=sexual'
p340
I337
sS'dobj=investor'
p341
I118
sS'w-1=and'
p342
I508
sS'w+2=Ban'
p343
I367
sS'prep=into'
p344
I249
sS'w-1=Kelley'
p345
I496
sS'conj=have'
p346
I59
sS'w-1=Enkhbayar'
p347
I489
sS'dobj=authority'
p348
I97
sS'w+2=president'
p349
I458
sS'dobj=Sen'
p350
I87
sS'nsubjpass=shopper'
p351
I230
sS'nsubjpass=Hamas'
p352
I201
sS'w-1=Moscow'
p353
I498
sS'w+2=area'
p354
I399
sS'w-1=propose'
p355
I542
sS'w+2=Sudanese'
p356
I389
sS'advmod=first'
p357
I13
sS'xcomp=brief'
p358
I692
sS'w-2=attempt'
p359
I613
sS'dobj=doctor'
p360
I107
sS'tmod=weekend'
p361
I265
sS'w-2=interest'
p362
I645
sS"w-2='s"
p363
I561
sS'xcomp=silent'
p364
I723
sS'w-1=up'
p365
I556
sS'nsubjpass=Sudan'
p366
I210
sS'w-1=politician'
p367
I536
sS'w-2=first'
p368
I631
sS'xcomp=believe'
p369
I690
sS'w+2=from'
p370
I422
sS'dobj=those'
p371
I143
sS'xcomp=meet'
p372
I707
sS'xcomp=stay'
p373
I725
sS'w+1=local'
p374
I325
sS'w-2=responsible'
p375
I662
sS'w-1=president'
p376
I538
sS'w+1=african-american'
p377
I290
sS'w+1=international'
p378
I319
sS'w-2=Liang'
p379
I581
sS'dobj=monitor'
p380
I121
sS'conj=plan'
p381
I61
sS'nsubj=Koreans'
p382
I168
sS'xcomp=take'
p383
I727
sS'w+2=submit'
p384
I467
sS'w+1=Ukraine'
p385
I286
sS'nsubjpass=Iran'
p386
I202
sS'auxpass=get'
p387
I37
sS'dobj=Mugabe'
p388
I84
sS'w-2=alliance'
p389
I609
sS'nsubj=Oast'
p390
I172
sS'w-2=which'
p391
I680
sS'w-1=pretty'
p392
I539
sS'ccomp=afraid'
p393
I42
sS'w-1=Ramadan'
p394
I501
sS'w-1=organization'
p395
I533
sS'xcomp=attend'
p396
I688
sS'w+2=22'
p397
I363
sS'w-2=international'
p398
I647
sS'w-1=proudly'
p399
I543
sS'conj=reject'
p400
I64
sS'w-2=pocket'
p401
I658
sS'dep=so'
p402
I70
sS'conj=Hamas'
p403
I47
sS'dobj=Kang'
p404
I83
sS'w+2=Mugabe'
p405
I377
sS'w-2=also'
p406
I610
sS'aux=will'
p407
I34
sS'dobj=place'
p408
I132
sS'w+2=many'
p409
I439
sS'w+2=new'
p410
I444
sS'w-2=burmese'
p411
I616
sS'prep=outside'
p412
I253
sS'w+1=guest'
p413
I315
sS'w+2=pariah'
p414
I454
sS'prep=with'
p415
I256
sS'cc=or'
p416
I41
sS'w-2=criticize'
p417
I623
sS'dobj=Gates'
p418
I79
sS'w-2=troops'
p419
I677
sS'w+2=meet'
p420
I441
sS'w+1=bid'
p421
I299
sS'w-1=most'
p422
I527
sS'dobj=force'
p423
I110
sS'nsubj=Pyongyang'
p424
I173
sS'nsubjpass=Syria'
p425
I212
sS'w-2=if'
p426
I642
sS'w-2=christian'
p427
I619
sS'nsubjpass=Olmert'
p428
I206
sS'w+1=Scotland'
p429
I284
sS'partmod=respond'
p430
I237
sS'dobj=grandmother'
p431
I113
sS'w-2=in'
p432
I643
sS'w-2=before'
p433
I615
sS'w-1=recently'
p434
I544
sS'w-2=Sirleaf'
p435
I595
sS'w+1=former'
p436
I312
sS'w-2=it'
p437
I649
sS'w+1=candidate'
p438
I302
sS'w-1=reportedly'
p439
I545
sS'nsubjpass=number'
p440
I225
sS'nsubj=Moscow'
p441
I170
sS'w+1=foreign'
p442
I311
sS'dobj=Assad'
p443
I77
sS'w+2=owner'
p444
I452
sS'dobj=inspector'
p445
I117
sS'w-1=for'
p446
I517
sS'w+2=athlete'
p447
I402
sS'nsubjpass=Open'
p448
I207
sS"w+2=''"
p449
I357
sS'nsubj=country'
p450
I185
sS'dobj=choir'
p451
I101
sS'w-2=and'
p452
I611
sS'nsubj=Enkhbayar'
p453
I160
sS'w+2=Obama'
p454
I380
sS'nsubj=Association'
p455
I154
sS'w-2=those'
p456
I675
sS'advmod=also'
p457
I10
sS'w+1=palestinian'
p458
I330
sS'xcomp=receive'
p459
I716
sS'w-2=end'
p460
I629
sS'dobj=icrc'
p461
I116
sS'w-2=Musharraf'
p462
I586
sS'advcl=unfold'
p463
I5
sS'nsubjpass=country'
p464
I216
sS'w-2=go'
p465
I637
sS'w-2=States'
p466
I596
sS'w-2=concert'
p467
I621
sS'nsubjpass=who'
p468
I234
sS'conj=unclear'
p469
I67
sS'dobj=parent'
p470
I127
sS'cc=and'
p471
I38
sS'nsubj=student'
p472
I195
sS'prep=onto'
p473
I252
sS'w+2=50'
p474
I364
sS'w+1=by'
p475
I300
sS'nsubjpass=Rudd'
p476
I209
sS'w-1=just'
p477
I524
sS'w+1=be'
p478
I298
sS'w+2=Moscow'
p479
I375
sS'w-2=summit'
p480
I671
sS'w-1=practice'
p481
I537
sS'nsubj=Sarkozy'
p482
I176
sS"w+2='s"
p483
I358
sS'w+2=remain'
p484
I459
sS'xcomp=to'
p485
I729
sS'w+1=Iraq'
p486
I278
sS'conj=say'
p487
I65
sS'w+1=in'
p488
I317
sS'w+2=wedding'
p489
I477
sS'dobj=that'
p490
I141
sS'nsubj=#PRP#'
p491
I153
sS'dobj=governor'
p492
I112
sS'w+1=into'
p493
I320
sS'cc=but'
p494
I39
sS'dobj=Sarkozy'
p495
I86
sS'w-2=Ethiopia'
p496
I572
sS'w+1=voter'
p497
I350
sS'dobj=#NUMBER#'
p498
I73
sS'w-1=properly'
p499
I541
sS'dobj=ambassador'
p500
I91
sS'w+1=school'
p501
I336
sS'w-2=President'
p502
I591
sS'w-2=the'
p503
I673
sS'w+1=-rrb-'
p504
I267
sS'w-1=secretly'
p505
I546
sS'w+1=citizen'
p506
I304
sS'w+2=icrc'
p507
I429
sS'w+1=place'
p508
I332
sS'advmod=again'
p509
I7
sS'prep=give'
p510
I247
sS'dobj=person'
p511
I131
sS'advmod=back'
p512
I11
sS'conj=get'
p513
I58
sS'w-2=like'
p514
I651
sS'advcl=do'
p515
I0
sS'nsubjpass=ally'
p516
I214
sS'xcomp=watch'
p517
I733
sS'w+2=Mr.'
p518
I376
sS'xcomp=oversee'
p519
I711
sS'w-2=be'
p520
I614
sS'w-2=Floyd'
p521
I573
sS'nsubj=boss'
p522
I182
sS'w-1=governmentand'
p523
I521
sS'w-2=of'
p524
I655
sS'prep=on'
p525
I251
sS'w-1=500'
p526
I486
sS'dobj=delegate'
p527
I105
sS'w-2=by'
p528
I618
sS'w-2=company'
p529
I620
sS'w-2=Nations'
p530
I588
sS'w+2=Annapolis'
p531
I366
sS'xcomp=welcome'
p532
I734
sS'nsubj=Il'
p533
I166
sS'dobj=Addow'
p534
I75
sS'dobj=command'
p535
I103
sS'nsubjpass=group'
p536
I218
sS'dep=have'
p537
I69
sS'conj=turn'
p538
I66
sS'dobj=anarchy'
p539
I92
sS'w+2=election'
p540
I416
sS'advmod=recently'
p541
I22
sS'attr=leader'
p542
I29
sS'prep=compare'
p543
I242
sS'dobj=citizen'
p544
I102
sS'w+1=all'
p545
I291
sS'w-1=to'
p546
I554
sS'dobj=stakeholder'
p547
I138
sS'w+2=than'
p548
I470
sS'xcomp=form'
p549
I700
sS'w+2=Medvedev'
p550
I374
sS'w+2=that'
p551
I471
sS'w+2=osce'
p552
I450
sS'w-2=to'
p553
I676
sS'w+2=girl'
p554
I423
sS'xcomp=examine'
p555
I697
sS'w+2=.'
p556
I361
sS'w-1=who'
p557
I558
sS'nsubj=church'
p558
I183
sS'w+1=Dr.'
p559
I276
sS'dobj=States'
p560
I88
sS'dobj=president'
p561
I133
sS'w+1=washingtonian'
p562
I352
sS'conj=gather'
p563
I57
sS'w-1=leader'
p564
I525
sS'dobj=retaliation'
p565
I136
sS'w+1=Zed'
p566
I288
sS'w+2=monitor'
p567
I443
sS'w-1=boss'
p568
I511
sS'w+2=discuss'
p569
I414
sS'w-1=of'
p570
I530
sS'nsubjpass=member'
p571
I224
sS'w+2=out'
p572
I451
sS'w+2=western'
p573
I478
sS'w-2=pledge'
p574
I657
sS'w+2=and'
p575
I398
sS'tmod=#DATE#'
p576
I261
sS'w-2=Otri'
p577
I590
sS'w+2=member'
p578
I442
sS'xcomp=pay'
p579
I713
sS'dobj=Jing'
p580
I82
sS'conj=delay'
p581
I51
sS'dobj=target'
p582
I139
sS'xcomp=submit'
p583
I726
sS'w+1=world'
p584
I355
sS'w+2=Maoists'
p585
I373
sS'tmod=time'
p586
I263
sS'nsubj=State'
p587
I178
sS'w-2=he'
p588
I641
sS'w+2=korean'
p589
I436
sS'advmod=previously'
p590
I19
sS'w+1=more'
p591
I326
sS'ccomp=receive'
p592
I43
sS'w+2=join'
p593
I435
sS'w-2=say'
p594
I665
sS'dobj=observer'
p595
I124
sS'w+2=the'
p596
I472
sS'prep=at'
p597
I240
sS'nsubj=U.S.'
p598
I180
sS'prep=as'
p599
I239
sS'w+1=retaliation'
p600
I335
sS'w-2=,'
p601
I562
sS'w-2=.'
p602
I563
sS'w+2=leader'
p603
I437
sS'dobj=number'
p604
I123
sS'aux=have'
p605
I31
sS'w-2=but'
p606
I617
sS'dobj=Thailand'
p607
I90
sS'nsubjpass=guest'
p608
I219
sS'w-1=.'
p609
I485
sS'w-1=,'
p610
I482
sS'w+2=assault'
p611
I401
sS'w-2=NATO'
p612
I587
sS'nsubj=Floyd'
p613
I163
sS'nsubjpass=leader'
p614
I221
sS'nsubj=whoever'
p615
I199
sS'nsubjpass=custodian'
p616
I217
sS'w+1=chinese'
p617
I303
sS'nsubj=governmentand'
p618
I187
sS'w+2=investor'
p619
I432
sS'w+1=kid'
p620
I323
sS'nsubjpass=party'
p621
I226
sS'w+2=foreign'
p622
I421
sS'w+2=believer'
p623
I408
sS'w+2=attend'
p624
I403
sS'w+1=SCO'
p625
I283
sS'w-2=Jacques'
p626
I576
sS'w-1=:'
p627
I487
sS'w-1=I'
p628
I493
sS'complm=that'
p629
I45
sS'aux=should'
p630
I32
sS'w+2=Stockholm'
p631
I388
sS'w-1=then'
p632
I552
sS'advcl=fake'
p633
I2
sS'dobj=tragedy'
p634
I144
sS'dobj=guest'
p635
I115
sS'w-1=they'
p636
I553
sS'xcomp=help'
p637
I704
sS'w-1=a'
p638
I505
sS'w-2=Columbia'
p639
I569
sS'w-1=girl'
p640
I519
sS'w-2=Jong'
p641
I577
sS'xcomp=work'
p642
I735
sS'dep=want'
p643
I72
sS'partmod=look'
p644
I236
sS'nsubjpass=manufacturer'
p645
I222
sS'conj=receive'
p646
I62
sS'w-1=he'
p647
I523
sS'w-1=twice'
p648
I555
sS'w+2=Secretary'
p649
I385
sS'w-1=-rrb-'
p650
I484
sS'w+1=from'
p651
I313
sS'xcomp=participate'
p652
I712
sS'w-2=whether'
p653
I679
sS'nsubj=Department'
p654
I158
sS'complm=whether'
p655
I46
sS'w-2=Lafayette'
p656
I580
sS'w+1=President'
p657
I282
sS'w+2=give'
p658
I424
sS'dobj=diplomat'
p659
I106
sS'w+2=immediate'
p660
I430
sS'xcomp=address'
p661
I687
sS'dobj=fighter'
p662
I109
sS'w-1=not'
p663
I528
sS'w+2=have'
p664
I427
sS'w+1=north'
p665
I327
sS'w-2=political'
p666
I659
sS'advcl=refuse'
p667
I4
sS'w-2=cultural'
p668
I624
sS'w+2=limited'
p669
I438
sS'w+2=parent'
p670
I453
sS'w+2=become'
p671
I406
sS'xcomp=explain'
p672
I698
sS'w-2=Egypt'
p673
I571
sS'mark=since'
p674
I150
sS'xcomp=talk'
p675
I728
sS'w-1=ever'
p676
I515
sS'w+2=U.S.'
p677
I390
sS'dobj=kid'
p678
I119
sS'w+2=Kremlin'
p679
I372
sS'w+2=Saudi'
p680
I384
sS'dobj=rebel'
p681
I134
sS'w+2=authority'
p682
I404
sS'prep=from'
p683
I246
sS'advmod=out'
p684
I18
sS'w-1=member'
p685
I526
sS'w-2=activity'
p686
I606
sS'advcl=wrap'
p687
I6
sS'w+2=republican'
p688
I461
sS'w+2=into'
p689
I431
sS'w-1=we'
p690
I557
sS'w-1=artist'
p691
I509
sS'aux=to'
p692
I33
sS'w+2=examine'
p693
I417
sS'w-2=should'
p694
I668
sS'nsubjpass=investigator'
p695
I220
sS'w+1=leader'
p696
I324
sS'w-2=youngest'
p697
I684
sS'dobj=voter'
p698
I145
sS'w+1=Damascus'
p699
I274
sS'w+1=390'
p700
I269
sS'dobj=some'
p701
I137
sS'advmod=twice'
p702
I26
sS'w+1=back'
p703
I297
sS'w-2=Ban'
p704
I566
sS'w-1=officially'
p705
I531
sS'dobj=owner'
p706
I126
sS'tmod=week'
p707
I264
sS'w+1=,'
p708
I266
sS'w+1=.'
p709
I268
sS'w-1=Guanglie'
p710
I491
sS'w+1=some'
p711
I340
sS'w+2=,'
p712
I359
sS'w+2=James'
p713
I371
sS'nsubjpass=vice'
p714
I233
sS'neg=not'
p715
I152
sS'w-2=door'
p716
I628
sS'w-2=Mali'
p717
I582
sS'prep=during'
p718
I244
sS'w-1=State'
p719
I504
sS'w-1=oppose'
p720
I532
sS'xcomp=set'
p721
I721
sS'w+1=I'
p722
I277
sS'w-2=Union'
p723
I602
sS'dobj=Damascus'
p724
I78
sS'w+2=maoist'
p725
I440
sS'w+1=Mr.'
p726
I281
sS'w+2=representative'
p727
I460
sS'dobj=child'
p728
I100
sS'dobj=nation'
p729
I122
sS'w+1=a'
p730
I289
sS'nsubj=Sirleaf'
p731
I177
sS'w+2=a'
p732
I393
sS'w-2=interim'
p733
I646
sS'advmod=reportedly'
p734
I23
sS'dobj=bid'
p735
I98
sS'w-1=that'
p736
I551
sS'aux=be'
p737
I30
sS'nsubjpass=Svitak'
p738
I211
sS'w+1=skeptical'
p739
I339
sS'conj=focus'
p740
I56
sS'w+2=stakeholder'
p741
I466
sS'advmod=properly'
p742
I20
sS'w+2=governor'
p743
I425
ssS'dtype'
p744
cnumpy
float64
p745
sS'feature_names_'
p746
(lp747
g515
ag240
ag633
ag222
ag667
ag463
ag687
ag509
ag159
ag271
ag457
ag512
ag260
ag357
ag175
ag56
ag294
ag172
ag684
ag590
ag742
ag24
ag541
ag734
ag325
ag296
ag702
ag67
ag196
ag542
ag737
ag605
ag630
ag692
ag407
ag147
ag285
ag387
ag471
ag494
ag58
ag416
ag393
ag592
ag99
ag629
ag655
ag403
ag25
ag318
ag280
ag581
ag55
ag327
ag162
ag334
ag740
ag563
ag513
ag346
ag182
ag381
ag646
ag320
ag400
ag487
ag538
ag469
ag152
ag537
ag402
ag272
ag643
ag498
ag225
ag534
ag268
ag443
ag724
ag418
ag102
ag45
ag580
ag404
ag388
ag85
ag495
ag350
ag560
ag34
ag607
ag500
ag539
ag116
ag289
ag256
ag168
ag348
ag735
ag112
ag728
ag451
ag544
ag535
ag291
ag527
ag659
ag360
ag199
ag662
ag423
ag252
ag492
ag431
ag32
ag635
ag461
ag445
ag341
ag678
ag277
ag380
ag729
ag604
ag595
ag239
ag706
ag470
ag146
ag317
ag207
ag511
ag408
ag561
ag681
ag295
ag565
ag701
ag547
ag582
ag105
ag490
ag157
ag371
ag634
ag698
ag121
ag228
ag83
ag189
ag674
ag88
ag715
ag491
ag455
ag11
ag276
ag141
ag654
ag82
ag453
ag266
ag158
ag613
ag9
ag234
ag533
ag298
ag382
ag323
ag441
ag232
ag390
ag424
ag174
ag238
ag482
ag731
ag587
ag331
ag598
ag206
ag522
ag558
ag241
ag450
ag37
ag618
ag77
ag251
ag165
ag257
ag97
ag297
ag46
ag472
ag170
ag79
ag211
ag615
ag139
ag352
ag386
ag230
ag59
ag42
ag428
ag448
ag213
ag476
ag366
ag738
ag425
ag328
ag516
ag221
ag464
ag616
ag536
ag608
ag695
ag614
ag645
ag8
ag571
ag440
ag621
ag336
ag267
ag197
ag351
ag265
ag104
ag714
ag468
ag68
ag644
ag430
ag113
ag599
ag597
ag28
ag543
ag282
ag718
ag270
ag683
ag510
ag144
ag344
ag321
ag525
ag473
ag412
ag287
ag154
ag415
ag245
ag145
ag118
ag278
ag576
ag115
ag586
ag707
ag361
ag708
ag504
ag709
ag700
ag186
ag22
ag191
ag148
ag699
ag171
ag559
ag722
ag486
ag226
ag215
ag726
ag657
ag625
ag429
ag326
ag385
ag100
ag566
ag730
ag377
ag545
ag305
ag288
ag161
ag166
ag236
ag703
ag478
ag421
ag475
ag313
ag438
ag617
ag506
ag200
ag242
ag10
ag57
ag70
ag149
ag442
ag436
ag651
ag76
ag413
ag243
ag488
ag208
ag378
ag493
ag275
ag308
ag620
ag696
ag374
ag591
ag665
ag94
ag14
ag458
ag114
ag508
ag198
ag264
ag600
ag501
ag340
ag74
ag739
ag711
ag119
ag311
ag129
ag52
ag134
ag137
ag335
ag127
ag262
ag497
ag54
ag562
ag273
ag248
ag584
ag227
ag449
ag483
ag712
ag101
ag556
ag209
ag397
ag474
ag304
ag531
ag343
ag233
ag279
ag71
ag713
ag679
ag585
ag550
ag479
ag518
ag405
ag110
ag309
ag454
ag126
ag19
ag12
ag680
ag649
ag224
ag63
ag631
ag356
ag677
ag61
ag244
ag732
ag48
ag303
ag103
ag15
ag575
ag354
ag185
ag611
ag447
ag624
ag682
ag133
ag671
ag274
ag623
ag17
ag44
ag333
ag195
ag192
ag569
ag40
ag540
ag693
ag190
ag219
ag123
ag622
ag370
ag554
ag658
ag743
ag216
ag664
ag18
ag507
ag660
ag689
ag619
ag237
ag117
ag593
ag589
ag603
ag669
ag409
ag725
ag420
ag578
ag567
ag410
ag194
ag86
ag143
ag332
ag187
ag552
ag572
ag444
ag670
ag414
ag107
ag62
ag312
ag349
ag484
ag727
ag688
ag284
ag35
ag300
ag69
ag741
ag384
ag130
ag20
ag548
ag551
ag596
ag176
ag91
ag339
ag306
ag489
ag573
ag109
ag316
ag120
ag610
ag204
ag650
ag609
ag526
ag627
ag324
ag347
ag254
ag710
ag217
ag628
ag124
ag163
ag345
ag301
ag353
ag249
ag29
ag394
ag51
ag167
ag719
ag638
ag106
ag111
ag342
ag691
ag66
ag568
ag65
ag202
ag246
ag676
ag81
ag446
ag39
ag640
ag125
ag523
ag98
ag647
ag477
ag564
ag685
ag422
ag663
ag329
ag570
ag705
ag720
ag395
ag235
ag290
ag367
ag481
ag376
ag392
ag259
ag499
ag355
ag399
ag434
ag439
ag505
ag95
ag72
ag160
ag50
ag736
ag632
ag636
ag546
ag648
ag365
ag690
ag557
ag41
ag330
ag363
ag601
ag602
ag201
ag183
ag704
ag214
ag255
ag639
ag322
ag673
ag496
ag521
ag223
ag60
ag626
ag641
ag26
ag156
ag656
ag379
ag717
ag43
ag283
ag33
ag462
ag612
ag530
ag47
ag577
ag502
ag205
ag177
ag253
ag435
ag466
ag122
ag261
ag30
ag247
ag281
ag723
ag293
ag155
ag73
ag686
ag231
ag108
ag389
ag406
ag452
ag87
ag359
ag520
ag433
ag411
ag606
ag528
ag427
ag529
ag467
ag31
ag417
ag668
ag93
ag90
ag138
ag716
ag460
ag203
ag368
ag132
ag307
ag229
ag53
ag21
ag465
ag173
ag135
ag218
ag588
ag426
ag432
ag319
ag362
ag733
ag398
ag140
ag437
ag150
ag514
ag314
ag38
ag142
ag524
ag169
ag574
ag401
ag666
ag96
ag286
ag375
ag193
ag136
ag594
ag180
ag269
ag694
ag292
ag49
ag480
ag128
ag503
ag27
ag456
ag553
ag419
ag13
ag653
ag391
ag84
ag263
ag89
ag697
ag179
ag338
ag661
ag396
ag131
ag369
ag78
ag358
ag188
ag164
ag184
ag337
ag555
ag672
ag80
ag549
ag16
ag75
ag250
ag637
ag64
ag258
ag372
ag92
ag315
ag210
ag519
ag652
ag579
ag153
ag212
ag459
ag220
ag181
ag299
ag178
ag721
ag310
ag364
ag302
ag373
ag583
ag383
ag675
ag485
ag23
ag36
ag151
ag517
ag532
ag642
asS'separator'
p748
S'='
sS'sparse'
p749
I01
sb.