ccopy_reg
_reconstructor
p1
(csklearn.feature_extraction.dict_vectorizer
DictVectorizer
p2
c__builtin__
object
p3
NtRp4
(dp5
S'vocabulary_'
p6
(dp7
S'advmod=then'
p8
I9
sS'w+1=become'
p9
I215
sS'nsubj=part'
p10
I147
sS'amod=perfect'
p11
I55
sS'det=no'
p12
I119
sS'w-2=we'
p13
I662
sS'w-2=people'
p14
I625
sS'w+2=my'
p15
I372
sS'w+2=optimism'
p16
I381
sS'rcmod=have'
p17
I188
sS'ccomp=incapable'
p18
I85
sS'w+2=frustration'
p19
I325
sS'w-1=tremendous'
p20
I539
sS'w-2=new'
p21
I615
sS'w+2=betrayal'
p22
I284
sS'dep=mixture'
p23
I109
sS'w+1=until'
p24
I249
sS'w-2=just'
p25
I606
sS'w+2=belong'
p26
I283
sS'w-2=then'
p27
I650
sS'w-1=economic'
p28
I477
sS'w+2=American'
p29
I259
sS'w-2=they'
p30
I651
sS'w+2=freedom'
p31
I322
sS'nn=Use'
p32
I141
sS'w+2=honesty'
p33
I338
sS'w+1=that'
p34
I244
sS'w+2=ReassuranceThe'
p35
I266
sS'w-1=deepen'
p36
I476
sS'w-1=deep'
p37
I475
sS'w-2=now'
p38
I619
sS'w-2=from'
p39
I593
sS'w+1=20'
p40
I205
sS'advmod=just'
p41
I6
sS'w+2=fear'
p42
I315
sS'w+2=disappointment'
p43
I305
sS'poss=Sill'
p44
I158
sS'w+2=proposal'
p45
I394
sS'w-2=no'
p46
I616
sS'w-1=grow'
p47
I490
sS'amod=emerge'
p48
I25
sS'w-1=be'
p49
I466
sS'w+2=environmental'
p50
I311
sS'w+1=maybe'
p51
I236
sS'w-2=the'
p52
I649
sS'w+2=self'
p53
I413
sS'w-2=reinforce'
p54
I633
sS'w+1=plasma'
p55
I242
sS'w+2=emergency'
p56
I307
sS'w+2=greatest'
p57
I330
sS'w+2=middle-income'
p58
I370
sS'advmod=lately'
p59
I7
sS'w-2=provide'
p60
I627
sS'rcmod=grip'
p61
I187
sS'w+1=of'
p62
I238
sS'w-2=without'
p63
I670
sS'w+2=to'
p64
I437
sS'w+1=on'
p65
I240
sS'w+2=loneliness'
p66
I364
sS'w+1=or'
p67
I241
sS'w-1=some'
p68
I529
sS'amod=better'
p69
I14
sS'w-2=income'
p70
I603
sS'dobj=satellite'
p71
I131
sS'w+2=if'
p72
I344
sS'appos=effort'
p73
I72
sS'amod=fantastic'
p74
I27
sS'w+2=in'
p75
I346
sS'w+2=partnership'
p76
I384
sS'w+2=why'
p77
I448
sS'w+2=what'
p78
I446
sS'w+2=it'
p79
I354
sS'w-1=good'
p80
I487
sS'w+2=identity'
p81
I343
sS'w-2=only'
p82
I622
sS'w-2=longer'
p83
I609
sS'ccomp=have'
p84
I84
sS'poss=public'
p85
I161
sS'aux=can'
p86
I75
sS'complm=that'
p87
I87
sS'amod=accurate'
p88
I11
sS'advmod=at'
p89
I4
sS"w+1=''"
p90
I200
sS'w-1=public'
p91
I521
sS'w-1=you'
p92
I543
sS'w+2=will'
p93
I449
sS'w+2=accomplishment'
p94
I270
sS'w+2=but'
p95
I287
sS'w+1=not'
p96
I237
sS'w-2=effort'
p97
I579
sS'advcl=be'
p98
I0
sS'w-2=that'
p99
I648
sS'amod=clear'
p100
I19
sS'w+1=the'
p101
I245
sS'w-1=wonderful'
p102
I542
sS'w-2=for'
p103
I591
sS'w+2=be'
p104
I281
sS'w+1=they'
p105
I247
sS'nsubj=observer'
p106
I146
sS'w-1=ironic'
p107
I496
sS'amod=economic'
p108
I24
sS'w+2=Pyongyang'
p109
I265
sS'prep=in'
p110
I168
sS'w+2=self-pride'
p111
I416
sS'w+1=for'
p112
I223
sS'w+2=responsibility'
p113
I405
sS'w-1=see'
p114
I527
sS'w+2=political'
p115
I385
sS'w-2=rebuild'
p116
I630
sS'w-1=chronological'
p117
I471
sS'w-1=strong'
p118
I531
sS'w+2=emotion'
p119
I308
sS'amod=judicial'
p120
I41
sS'w+2=anxiety'
p121
I279
sS'w+2=21st'
p122
I258
sS'rcmod=think'
p123
I195
sS'w+2=record'
p124
I397
sS'w+2=caution'
p125
I289
sS'w-1=fashion'
p126
I482
sS'w+1=and'
p127
I211
sS'nn=courage'
p128
I142
sS'w+2=last-gasp'
p129
I358
sS'amod=old'
p130
I53
sS'w-2=athlete'
p131
I562
sS'w-1=american'
p132
I463
sS'w+2=how'
p133
I341
sS'w-1=accurate'
p134
I461
sS'w-2=lot'
p135
I611
sS'amod=great'
p136
I32
sS'w+1=lately'
p137
I234
sS'amod=macabre'
p138
I46
sS'w+2=possible'
p139
I387
sS'nsubj=that'
p140
I151
sS'w-1=high'
p141
I493
sS'w-2=government'
p142
I597
sS'nsubj=Knight'
p143
I145
sS'w-2=encourage'
p144
I580
sS'w-1=aggressive'
p145
I462
sS'partmod=go'
p146
I154
sS'det=this'
p147
I123
sS'infmod=set'
p148
I138
sS'w+2=these'
p149
I433
sS'w-2=create'
p150
I571
sS'w+2=we'
p151
I445
sS'w+2=bring'
p152
I286
sS'w-1=traditional'
p153
I538
sS'amod=real'
p154
I60
sS'w+2=chaos'
p155
I290
sS'w-1=the'
p156
I534
sS'amod=positive'
p157
I57
sS'w-2=restore'
p158
I635
sS'w+2=gloom'
p159
I326
sS'w-2=well'
p160
I663
sS'w-1=clear'
p161
I472
sS'w+2=almost'
p162
I274
sS'conj=instinct'
p163
I91
sS'amod=first'
p164
I28
sS'w+2=itself'
p165
I355
sS'w+2=not'
p166
I377
sS'w+2=reference'
p167
I398
sS'dep=hold'
p168
I105
sS'amod=american'
p169
I13
sS'w+2=wave'
p170
I444
sS'conj=urgent'
p171
I94
sS'rcmod=erode'
p172
I181
sS'w+2=too'
p173
I438
sS'infmod=reduce'
p174
I136
sS'w+2=productivity'
p175
I392
sS'w+1=have'
p176
I226
sS'dep=learn'
p177
I108
sS'w+2=inclusion'
p178
I347
sS'w+2=national'
p179
I374
sS'det=the'
p180
I122
sS'dep=flat'
p181
I102
sS'w+2=crisis'
p182
I299
sS'w+2=word'
p183
I451
sS'w+2=progress'
p184
I393
sS'amod=strong'
p185
I65
sS'w-2=or'
p186
I623
sS'prep=along'
p187
I163
sS'w-2=show'
p188
I641
sS'amod=larger'
p189
I43
sS'w+2=nation'
p190
I373
sS'w+2=set'
p191
I417
sS'w-2=of'
p192
I621
sS'w-1=positive'
p193
I518
sS'w+1=can'
p194
I216
sS'w-2=energy'
p195
I582
sS'w+2=insist'
p196
I351
sS'w-1=fundamental'
p197
I485
sS'w-1=know'
p198
I499
sS'w-1=first'
p199
I484
sS'conj=disappointment'
p200
I89
sS'w-1=greater'
p201
I489
sS'w-1=same'
p202
I525
sS'w+2=liberty'
p203
I362
sS'w-2=do'
p204
I575
sS'w+2=privacy'
p205
I391
sS'w+2=on'
p206
I379
sS'w+2=here'
p207
I335
sS'w-1=general'
p208
I486
sS'w+1=conservative'
p209
I217
sS'amod=high'
p210
I37
sS'w+2=humor'
p211
I342
sS'amod=grow'
p212
I34
sS'w+1=as'
p213
I213
sS'w+2=openness'
p214
I380
sS'w+2=self-empowerment'
p215
I414
sS'w-2=Delhi'
p216
I550
sS'w-2=reflect'
p217
I632
sS'w+2=support'
p218
I426
sS'amod=political'
p219
I56
sS'amod=general'
p220
I30
sS'w-1=own'
p221
I514
sS'w-2=field'
p222
I590
sS'amod=narrow'
p223
I50
sS'w-1=can'
p224
I469
sS'amod=keen'
p225
I42
sS'w-1=my'
p226
I508
sS'infmod=say'
p227
I137
sS'ccomp=be'
p228
I82
sS'w+2=danger'
p229
I301
sS'dobj=cover'
p230
I125
sS'det=some'
p231
I120
sS'dobj=frustration'
p232
I130
sS'w+2=because'
p233
I282
sS'w+2=skepticism'
p234
I420
sS'predet=such'
p235
I162
sS'w+2=search'
p236
I410
sS'w-1=more'
p237
I506
sS'w-2=ever'
p238
I587
sS'w+2=environment'
p239
I310
sS'w-2=user'
p240
I658
sS'dep=#PRP#'
p241
I98
sS'w+2=foreboding'
p242
I319
sS'prep=for'
p243
I166
sS'amod=new'
p244
I51
sS'dep=that'
p245
I113
sS'w+1=we'
p246
I250
sS'amod=widespread'
p247
I70
sS'w+2=flexibility'
p248
I318
sS'w-2=even'
p249
I586
sS'w+2=forgiveness'
p250
I320
sS'w+2=look'
p251
I365
sS'w-1=macabre'
p252
I503
sS'w+2=talk'
p253
I427
sS'w+2=charity'
p254
I291
sS'rcmod=leave'
p255
I190
sS'nsubj=politician'
p256
I148
sS'w-2=Sill'
p257
I552
sS'w+1=would'
p258
I254
sS'w-2=Use'
p259
I554
sS'dep=lay'
p260
I107
sS'dobj=flavor'
p261
I129
sS'w+2=tell'
p262
I428
sS'w-2=public'
p263
I628
sS"w-1='s"
p264
I456
sS'w-2=visitor'
p265
I660
sS'w-1=inflated'
p266
I495
sS'w-2=observer'
p267
I620
sS'w+2=shared'
p268
I418
sS'amod=saudi'
p269
I63
sS'w+2=good'
p270
I328
sS'w-2=some'
p271
I643
sS'w-2=establish'
p272
I585
sS'w+2=maybe'
p273
I369
sS'w+2=friendship'
p274
I324
sS'w+2=say'
p275
I409
sS'w+1=there'
p276
I246
sS'w+2=somehow'
p277
I423
sS'w+2=reign'
p278
I400
sS'nsubj=sense'
p279
I150
sS'w+2=history'
p280
I336
sS'w-2=strong'
p281
I646
sS'rcmod=come'
p282
I177
sS'w+2=really'
p283
I396
sS'w+2=think'
p284
I435
sS'w+1=its'
p285
I233
sS'dobj=device'
p286
I126
sS'w-2=-rrb-'
p287
I548
sS"w-1=''"
p288
I455
sS'w+2=year'
p289
I453
sS'conj=sense'
p290
I92
sS'w-1=Knight'
p291
I459
sS'w+2=relocate'
p292
I403
sS'w-1=no'
p293
I510
sS'amod=aggressive'
p294
I12
sS'amod=easily'
p295
I23
sS"w-2=''"
p296
I544
sS'nsubj=this'
p297
I152
sS'w+2=of'
p298
I378
sS'w-1=perfect'
p299
I515
sS'w+2=insecurity'
p300
I350
sS'w+1=to'
p301
I248
sS'det=that'
p302
I121
sS'dep=nearly'
p303
I110
sS'poss=Obama'
p304
I157
sS'amod=same'
p305
I62
sS'w+1=device'
p306
I220
sS'w+2=everyone'
p307
I313
sS'rcmod=follow'
p308
I183
sS'w+2=he'
p309
I332
sS'amod=healthy'
p310
I35
sS'det=any'
p311
I117
sS'prep=into'
p312
I170
sS'w+2=gratitude'
p313
I329
sS'prep=with'
p314
I173
sS'w-1=larger'
p315
I500
sS'w+2=extreme'
p316
I314
sS'w+2=duty'
p317
I306
sS'w+2=just'
p318
I356
sS'w-1=much'
p319
I507
sS'w+2=Congress'
p320
I261
sS'amod=wonderful'
p321
I71
sS'w+2=injustice'
p322
I349
sS'w-2=non-binding'
p323
I617
sS'w-2=override'
p324
I624
sS'prep=inside'
p325
I169
sS'amod=technical'
p326
I66
sS'dep=worse'
p327
I115
sS'rcmod=understand'
p328
I197
sS"w-2='s"
p329
I545
sS'w-1=she'
p330
I528
sS'w-1=politician'
p331
I517
sS'w+2=smell'
p332
I421
sS'advmod=up'
p333
I10
sS'advmod=across'
p334
I2
sS'w+2=Kazakhstan'
p335
I263
sS'w-2=Obama'
p336
I551
sS'w+2=may'
p337
I368
sS'w+2=uncertainty'
p338
I440
sS'w+2=lose'
p339
I366
sS'poss=consumer'
p340
I159
sS'w-2=she'
p341
I640
sS'appos=sense'
p342
I73
sS'w+2=seek'
p343
I412
sS'w+2=mutual'
p344
I371
sS'w+2=anticipation'
p345
I278
sS'w-2=would'
p346
I671
sS'w-2=into'
p347
I604
sS'w-2=strengthen'
p348
I645
sS'poss=government'
p349
I160
sS'w+2=this'
p350
I436
sS'amod=little'
p351
I45
sS'w-2=celebrate'
p352
I569
sS'dobj=enthusiasm'
p353
I127
sS'w-2=which'
p354
I667
sS'w-1=remote'
p355
I523
sS'w+2=she'
p356
I419
sS'w+2=anger'
p357
I276
sS'amod=chronological'
p358
I18
sS'amod=fundamental'
p359
I29
sS'amod=good'
p360
I31
sS'w-2=this'
p361
I654
sS'w-1=renew'
p362
I524
sS'w+2=panic'
p363
I383
sS'amod=renew'
p364
I61
sS'w-2=heighten'
p365
I600
sS'aux=do'
p366
I76
sS'w+2=local'
p367
I363
sS'amod=heighten'
p368
I36
sS'w-1=infinite'
p369
I494
sS'w-2=with'
p370
I669
sS'w-2=undermine'
p371
I657
sS'w-2=also'
p372
I558
sS'rcmod=act'
p373
I174
sS'ccomp=get'
p374
I83
sS'w-1=this'
p375
I536
sS'w-1=emerge'
p376
I478
sS'expl=there'
p377
I133
sS'w+2=letdown'
p378
I361
sS'infmod=combat'
p379
I134
sS'rcmod=be'
p380
I175
sS'cc=or'
p381
I81
sS'w-2=deal'
p382
I572
sS'amod=much'
p383
I49
sS'w+2=ownership'
p384
I382
sS'w-2=beyond'
p385
I566
sS'w-2=recover'
p386
I631
sS'w+2=leave'
p387
I359
sS'w+2=add'
p388
I271
sS'w-2=promote'
p389
I626
sS'w+2=empowerment'
p390
I309
sS'amod=beyond'
p391
I15
sS'w-2=in'
p392
I602
sS'amod=public'
p393
I59
sS'w-2=where'
p394
I665
sS'w-2=it'
p395
I605
sS'w+2=instability'
p396
I352
sS'w+2=understand'
p397
I441
sS'w+2=self-preservation'
p398
I415
sS'w+1=far'
p399
I222
sS'w-2=disrupt'
p400
I574
sS'w+2=hope'
p401
I339
sS'w+2=relief'
p402
I401
sS'dep=prepare'
p403
I112
sS'ccomp=place'
p404
I86
sS'amod=traditional'
p405
I67
sS'w+2=firm'
p406
I316
sS'w+2=help'
p407
I333
sS'w+1=help'
p408
I228
sS'w+2=Cleopatra'
p409
I260
sS'amod=practical'
p410
I58
sS'dobj=environment'
p411
I128
sS"w+2=''"
p412
I255
sS'amod=ethnic'
p413
I26
sS'w+1=anymore'
p414
I212
sS'amod=legalistic'
p415
I44
sS'w-2=end'
p416
I581
sS'w+2=right'
p417
I407
sS'w+2=cross-party'
p418
I300
sS'w+2=urgency'
p419
I443
sS'w+2=priority'
p420
I390
sS'w-2=formulate'
p421
I592
sS'rcmod=translate'
p422
I196
sS'w-1=real'
p423
I522
sS'rcmod=bring'
p424
I176
sS'w-1=common'
p425
I473
sS'w+2=country'
p426
I298
sS'amod=deepen'
p427
I22
sS'amod=broad'
p428
I16
sS'w+2=capital'
p429
I288
sS'w-2=have'
p430
I598
sS'rcmod=run'
p431
I193
sS'cc=and'
p432
I80
sS'w-1=broad'
p433
I468
sS'advmod=almost'
p434
I3
sS'w+2=Latino'
p435
I264
sS'w+1=will'
p436
I253
sS'w+1=be'
p437
I214
sS'w+2=community'
p438
I293
sS'rcmod=feel'
p439
I182
sS'w-2=what'
p440
I664
sS'w-2=represent'
p441
I634
sS'w+2=solidarity'
p442
I422
sS'w+1=here'
p443
I229
sS'w+1=if'
p444
I230
sS'partmod=kind'
p445
I155
sS'w+1=in'
p446
I231
sS'amod=western'
p447
I69
sS'w+1=it'
p448
I232
sS'dobj=that'
p449
I132
sS'nsubj=#PRP#'
p450
I144
sS'w-2=geography'
p451
I594
sS'advmod=both'
p452
I5
sS'w+2=go'
p453
I327
sS'w-2=see'
p454
I638
sS'infmod=look'
p455
I135
sS'w+2=confidence'
p456
I296
sS'det=every'
p457
I118
sS'w+2=hopelessness'
p458
I340
sS'w+2=regional'
p459
I399
sS'w+2=forward'
p460
I321
sS'w+2=conflict'
p461
I297
sS'amod=own'
p462
I54
sS'w+1=often'
p463
I239
sS'poss=#PRP#'
p464
I156
sS'w+2=restraint'
p465
I406
sS'w+2=admiration'
p466
I272
sS'conj=urgency'
p467
I93
sS'rcmod=go'
p468
I186
sS'advmod=politically'
p469
I8
sS'w+2=wonder'
p470
I450
sS'w-1=least'
p471
I501
sS'w+2=irony'
p472
I353
sS'w+2=religious'
p473
I402
sS'w-1=heighten'
p474
I492
sS'w+1=-rrb-'
p475
I203
sS'w-2=echo'
p476
I577
sS'w-2=feel'
p477
I589
sS'rcmod=give'
p478
I185
sS'w+1=along'
p479
I210
sS'w+2=kind'
p480
I357
sS'w+2=impunity'
p481
I345
sS'amod=tremendous'
p482
I68
sS'w+2=concern'
p483
I295
sS'w-1=make'
p484
I504
sS'w-2=allow'
p485
I556
sS'w+2=unease'
p486
I442
sS'w-1=better'
p487
I467
sS'w+2=which'
p488
I447
sS'w-2=be'
p489
I564
sS'w+2=competition'
p490
I294
sS'prep=of'
p491
I171
sS'w+2=try'
p492
I439
sS'prep=on'
p493
I172
sS'w-1=certain'
p494
I470
sS'nsubj=remote'
p495
I149
sS'advcl=charge'
p496
I1
sS'amod=military'
p497
I47
sS'w+2=hold'
p498
I337
sS'rcmod=help'
p499
I189
sS'w-2=by'
p500
I568
sS'w+1=go'
p501
I225
sS'nsubj=which'
p502
I153
sS'conj=will'
p503
I95
sS'w-2=might'
p504
I613
sS'w+2=normalcy'
p505
I376
sS'dep=have'
p506
I104
sS'w-1=contractual'
p507
I474
sS'w-1=healthy'
p508
I491
sS'w-2=avoid'
p509
I563
sS'w-1=to'
p510
I537
sS'w+2=pride'
p511
I389
sS'w-1=old'
p512
I513
sS'rcmod=create'
p513
I178
sS'w+2=possibility'
p514
I386
sS'w+2=that'
p515
I430
sS'amod=more'
p516
I48
sS'nn=fashion'
p517
I143
sS'w-2=get'
p518
I595
sS'w-2=want'
p519
I661
sS'w-2=such'
p520
I647
sS'w-2=and'
p521
I559
sS'amod=greater'
p522
I33
sS'w-2=almost'
p523
I557
sS'w+1=develop'
p524
I219
sS'conj=diplomacy'
p525
I88
sS'w+1=legislate'
p526
I235
sS'w-1=practical'
p527
I519
sS'dobj=a'
p528
I124
sS'w-1=ethnic'
p529
I479
sS'w-1=of'
p530
I512
sS'w-2=more'
p531
I614
sS'w-2=benchmark'
p532
I565
sS'w-2=to'
p533
I655
sS'w+2=and'
p534
I275
sS'dep=be'
p535
I99
sS'w+1=convince'
p536
I218
sS'dep=worry'
p537
I114
sS'w-2=hope'
p538
I601
sS'w-1=political'
p539
I516
sS'w-2=screening'
p540
I637
sS'w-2=destroy'
p541
I573
sS'w-2=express'
p542
I588
sS'w-1=judicial'
p543
I497
sS'rcmod=make'
p544
I191
sS'w-1=western'
p545
I540
sS'w-2=ease'
p546
I576
sS'cop=be'
p547
I96
sS'w-2=any'
p548
I560
sS'w-2=enough'
p549
I584
sS'w-2=he'
p550
I599
sS'w+1=whatsoever'
p551
I252
sS'w-1=military'
p552
I505
sS'w+2=resolve'
p553
I404
sS'w+2=purpose'
p554
I395
sS'rcmod=economics'
p555
I180
sS'w-2=make'
p556
I612
sS'w-1=every'
p557
I480
sS'rcmod=signal'
p558
I194
sS'w-2=say'
p559
I636
sS'w+2=the'
p560
I431
sS'prep=at'
p561
I165
sS'rcmod=do'
p562
I179
sS'prep=as'
p563
I164
sS'w-2=,'
p564
I546
sS'w-2=-'
p565
I547
sS'w-2=.'
p566
I549
sS'w-1=and'
p567
I464
sS'w+1=what'
p568
I251
sS'aux=have'
p569
I77
sS'w-2=but'
p570
I567
sS'w-2=think'
p571
I653
sS'amod=deep'
p572
I21
sS'w-2=thing'
p573
I652
sS'w-1=widespread'
p574
I541
sS'w-1=,'
p575
I457
sS'w+2=desperation'
p576
I302
sS'w-2=not'
p577
I618
sS'w+2=maintain'
p578
I367
sS'csubj=take'
p579
I97
sS'w+2=security'
p580
I411
sS'w+2=anonymity'
p581
I277
sS'w+2=satisfaction'
p582
I408
sS'w-2=engender'
p583
I583
sS'w-2=at'
p584
I561
sS'w-2=song'
p585
I644
sS'w-1=narrow'
p586
I509
sS'w-1=feel'
p587
I483
sS'w-2=leave'
p588
I608
sS'w-2=so'
p589
I642
sS'amod=special'
p590
I64
sS'w-2=economic'
p591
I578
sS'w-2=traditional'
p592
I656
sS'w-1=saudi'
p593
I526
sS'w+2=french'
p594
I323
sS'w-1=technical'
p595
I532
sS'w+2=non-closure'
p596
I375
sS'aux=should'
p597
I78
sS'w-2=a'
p598
I555
sS'w-1=they'
p599
I535
sS'w-1=pressure'
p600
I520
sS'det=a'
p601
I116
sS'dep=find'
p602
I101
sS'w-1=a'
p603
I460
sS'amod=ironic'
p604
I40
sS'amod=inflated'
p605
I39
sS'w-1=-lrb-'
p606
I458
sS'w+1=enthusiasm'
p607
I221
sS'mark=as'
p608
I139
sS'w+2=prevail'
p609
I388
sS'w-1=little'
p610
I502
sS'w+2=there'
p611
I432
sS'w-1=special'
p612
I530
sS'w+1=from'
p613
I224
sS'w-2=very'
p614
I659
sS'w-2=whether'
p615
I666
sS'dep=encourage'
p616
I100
sS'w-1=any'
p617
I465
sS'w+2=they'
p618
I434
sS'w+2=dignity'
p619
I303
sS'amod=infinite'
p620
I38
sS'w+2=stability'
p621
I424
sS'w+2=fit'
p622
I317
sS'dep=need'
p623
I111
sS'w+2=have'
p624
I331
sS'rcmod=place'
p625
I192
sS'w-1=not'
p626
I511
sS'dep=go'
p627
I103
sS'amod=non-binding'
p628
I52
sS'w+2=helplessness'
p629
I334
sS'w+2=you'
p630
I454
sS'w+2=allow'
p631
I273
sS'w+2=style'
p632
I425
sS'w+2=U.S.'
p633
I267
sS'w-2=lack'
p634
I607
sS'prep=from'
p635
I167
sS'w+2=term'
p636
I429
sS'w-1=keen'
p637
I498
sS'w+2=let'
p638
I360
sS'aux=to'
p639
I79
sS'w-2=you'
p640
I672
sS'w-1=fantastic'
p641
I481
sS'w+2=would'
p642
I452
sS'w-2=sensical'
p643
I639
sS'rcmod=force'
p644
I184
sS'w-2=convey'
p645
I570
sS'w-2=will'
p646
I668
sS"w+1='"
p647
I199
sS'w+1=-'
p648
I202
sS'w+1=,'
p649
I201
sS'w+1=.'
p650
I204
sS'w-2=give'
p651
I596
sS'w+1=satellite'
p652
I243
sS'w+2=.'
p653
I257
sS'w+2=,'
p654
I256
sS'w+1=;'
p655
I207
sS'w+1=:'
p656
I206
sS'neg=not'
p657
I140
sS'w+1=I'
p658
I208
sS'w-2=Thursday'
p659
I553
sS'rcmod=widespread'
p660
I198
sS'w+2=I'
p661
I262
sS'conj=influence'
p662
I90
sS'amod=common'
p663
I20
sS'w+1=a'
p664
I209
sS'w+2=boogie-woogie'
p665
I285
sS'w+2=away'
p666
I280
sS'w+2=especially'
p667
I312
sS'w-1=great'
p668
I488
sS'w+2=inevitability'
p669
I348
sS'w+1=he'
p670
I227
sS'w+2=commitment'
p671
I292
sS'dep=humiliate'
p672
I106
sS'w-1=that'
p673
I533
sS'aux=be'
p674
I74
sS'w-2=real'
p675
I629
sS'w-2=lose'
p676
I610
sS'amod=certain'
p677
I17
sS'w+2=`'
p678
I268
sS'w+2=a'
p679
I269
sS'w+2=direction'
p680
I304
ssS'dtype'
p681
cnumpy
float64
p682
sS'feature_names_'
p683
(lp684
g98
ag496
ag334
ag434
ag89
ag452
ag41
ag59
ag469
ag8
ag333
ag88
ag294
ag169
ag69
ag391
ag428
ag677
ag358
ag100
ag663
ag572
ag427
ag295
ag108
ag48
ag413
ag74
ag164
ag359
ag220
ag360
ag136
ag522
ag212
ag310
ag368
ag210
ag620
ag605
ag604
ag120
ag225
ag189
ag415
ag351
ag138
ag497
ag516
ag383
ag223
ag244
ag628
ag130
ag462
ag11
ag219
ag157
ag410
ag393
ag154
ag364
ag305
ag269
ag590
ag185
ag326
ag405
ag482
ag447
ag247
ag321
ag73
ag342
ag674
ag86
ag366
ag569
ag597
ag639
ag432
ag381
ag228
ag374
ag84
ag18
ag404
ag87
ag525
ag200
ag662
ag163
ag290
ag467
ag171
ag503
ag547
ag579
ag241
ag535
ag616
ag602
ag181
ag627
ag506
ag168
ag672
ag260
ag177
ag23
ag303
ag623
ag403
ag245
ag537
ag327
ag601
ag311
ag457
ag12
ag231
ag302
ag180
ag147
ag528
ag230
ag286
ag353
ag411
ag261
ag232
ag71
ag449
ag377
ag379
ag455
ag174
ag227
ag148
ag608
ag657
ag32
ag128
ag517
ag450
ag143
ag106
ag10
ag256
ag495
ag279
ag140
ag297
ag502
ag146
ag445
ag464
ag304
ag44
ag340
ag349
ag85
ag235
ag187
ag563
ag561
ag243
ag635
ag110
ag325
ag312
ag491
ag493
ag314
ag373
ag380
ag424
ag282
ag513
ag562
ag555
ag172
ag439
ag308
ag644
ag478
ag468
ag61
ag17
ag499
ag255
ag544
ag625
ag431
ag558
ag123
ag422
ag328
ag660
ag647
ag90
ag649
ag648
ag475
ag650
ag40
ag656
ag655
ag658
ag664
ag479
ag127
ag414
ag213
ag437
ag9
ag194
ag209
ag536
ag524
ag306
ag607
ag399
ag112
ag613
ag501
ag176
ag670
ag408
ag443
ag444
ag446
ag448
ag285
ag137
ag526
ag51
ag96
ag62
ag463
ag65
ag67
ag55
ag652
ag34
ag101
ag276
ag105
ag301
ag24
ag246
ag568
ag551
ag436
ag258
ag412
ag654
ag653
ag122
ag29
ag409
ag320
ag661
ag335
ag435
ag109
ag35
ag633
ag678
ag679
ag94
ag388
ag466
ag631
ag162
ag534
ag357
ag581
ag345
ag121
ag666
ag104
ag233
ag26
ag22
ag665
ag152
ag95
ag429
ag125
ag155
ag254
ag671
ag438
ag490
ag483
ag456
ag461
ag426
ag182
ag418
ag229
ag576
ag619
ag680
ag43
ag317
ag56
ag119
ag390
ag239
ag50
ag667
ag307
ag316
ag42
ag406
ag622
ag248
ag242
ag250
ag460
ag31
ag594
ag274
ag19
ag159
ag453
ag270
ag313
ag57
ag624
ag309
ag407
ag629
ag207
ag280
ag498
ag33
ag401
ag458
ag133
ag211
ag81
ag72
ag481
ag75
ag178
ag669
ag322
ag300
ag196
ag396
ag472
ag79
ag165
ag318
ag480
ag129
ag387
ag638
ag378
ag203
ag367
ag66
ag251
ag339
ag578
ag337
ag273
ag58
ag344
ag15
ag190
ag179
ag596
ag505
ag166
ag298
ag206
ag214
ag16
ag384
ag363
ag76
ag115
ag514
ag139
ag609
ag511
ag420
ag205
ag175
ag184
ag45
ag554
ag283
ag124
ag167
ag459
ag278
ag402
ag473
ag292
ag553
ag113
ag465
ag417
ag582
ag275
ag236
ag580
ag343
ag53
ag215
ag398
ag111
ag191
ag268
ag356
ag234
ag332
ag442
ag277
ag621
ag632
ag218
ag253
ag262
ag636
ag515
ag560
ag611
ag149
ag618
ag284
ag350
ag64
ag173
ag492
ag338
ag397
ag486
ag419
ag170
ag151
ag78
ag488
ag77
ag93
ag470
ag183
ag642
ag289
ag630
ag288
ag264
ag575
ag606
ag291
ag603
ag134
ag145
ag132
ag567
ag617
ag49
ag487
ag433
ag224
ag494
ag117
ag161
ag425
ag507
ag37
ag36
ag28
ag376
ag529
ag557
ag641
ag126
ag587
ag199
ag197
ag208
ag80
ag668
ag201
ag47
ag508
ag474
ag141
ag369
ag266
ag107
ag543
ag637
ag198
ag315
ag471
ag610
ag252
ag484
ag552
ag237
ag319
ag226
ag586
ag293
ag626
ag530
ag512
ag221
ag299
ag539
ag331
ag193
ag527
ag600
ag91
ag423
ag355
ag362
ag202
ag593
ag114
ag330
ag68
ag612
ag118
ag595
ag673
ag156
ag599
ag375
ag510
ag153
ag20
ag545
ag574
ag102
ag92
ag296
ag329
ag564
ag565
ag287
ag566
ag216
ag336
ag257
ag659
ag259
ag598
ag485
ag523
ag372
ag521
ag548
ag584
ag131
ag509
ag489
ag532
ag385
ag570
ag500
ag352
ag645
ag150
ag382
ag541
ag400
ag204
ag546
ag476
ag591
ag97
ag144
ag416
ag195
ag583
ag549
ag272
ag249
ag238
ag542
ag477
ag222
ag103
ag421
ag39
ag451
ag518
ag651
ag142
ag430
ag550
ag365
ag538
ag392
ag70
ag347
ag395
ag25
ag634
ag588
ag83
ag676
ag135
ag556
ag504
ag531
ag21
ag46
ag323
ag577
ag38
ag267
ag192
ag82
ag186
ag324
ag14
ag389
ag60
ag263
ag675
ag116
ag386
ag217
ag54
ag441
ag158
ag559
ag540
ag454
ag643
ag341
ag188
ag589
ag271
ag585
ag348
ag281
ag520
ag99
ag52
ag27
ag30
ag573
ag571
ag361
ag533
ag592
ag371
ag240
ag614
ag265
ag519
ag13
ag160
ag440
ag394
ag615
ag354
ag646
ag370
ag63
ag346
ag640
asS'separator'
p685
S'='
sS'sparse'
p686
I01
sb.