ccopy_reg
_reconstructor
p1
(csklearn.feature_extraction.dict_vectorizer
DictVectorizer
p2
c__builtin__
object
p3
NtRp4
(dp5
S'sort'
p6
I01
sS'feature_names_'
p7
(lp8
S'acomp=fresh'
p9
aS'acomp=subject'
p10
aS'advcl=be'
p11
aS'advcl=beat'
p12
aS'advcl=buy'
p13
aS'advcl=come'
p14
aS'advcl=derive'
p15
aS'advcl=do'
p16
aS'advcl=fear'
p17
aS'advcl=follow'
p18
aS'advcl=gain'
p19
aS'advcl=have'
p20
aS'advcl=introduce'
p21
aS'advcl=learn'
p22
aS'advcl=level'
p23
aS'advcl=loom'
p24
aS'advcl=make'
p25
aS'advcl=near'
p26
aS'advcl=pay'
p27
aS'advcl=report'
p28
aS'advcl=rise'
p29
aS'advcl=say'
p30
aS'advcl=start'
p31
aS'advcl=unstable'
p32
aS'advmod=abroad'
p33
aS'advmod=accidentally'
p34
aS'advmod=almost'
p35
aS'advmod=along'
p36
aS'advmod=already'
p37
aS'advmod=also'
p38
aS'advmod=always'
p39
aS'advmod=apiece'
p40
aS'advmod=back'
p41
aS'advmod=basically'
p42
aS'advmod=blindly'
p43
aS'advmod=cheaply'
p44
aS'advmod=commercially'
p45
aS'advmod=daily'
p46
aS'advmod=directly'
p47
aS'advmod=down'
p48
aS'advmod=easily'
p49
aS'advmod=either'
p50
aS'advmod=elsewhere'
p51
aS'advmod=even'
p52
aS'advmod=far'
p53
aS'advmod=fast'
p54
aS'advmod=freely'
p55
aS'advmod=gladly'
p56
aS'advmod=here'
p57
aS'advmod=how'
p58
aS'advmod=individually'
p59
aS'advmod=internationally'
p60
aS'advmod=just'
p61
aS'advmod=later'
p62
aS'advmod=less'
p63
aS'advmod=locally'
p64
aS'advmod=mainly'
p65
aS'advmod=more'
p66
aS'advmod=much'
p67
aS'advmod=normally'
p68
aS'advmod=now'
p69
aS'advmod=nowadays'
p70
aS'advmod=on'
p71
aS'advmod=once'
p72
aS'advmod=only'
p73
aS'advmod=out'
p74
aS'advmod=overseas'
p75
aS'advmod=plus'
p76
aS'advmod=potentially'
p77
aS'advmod=principally'
p78
aS'advmod=really'
p79
aS'advmod=recently'
p80
aS'advmod=reportedly'
p81
aS'advmod=short'
p82
aS'advmod=so'
p83
aS'advmod=still'
p84
aS'advmod=then'
p85
aS'advmod=there'
p86
aS'advmod=together'
p87
aS'advmod=ultimately'
p88
aS'advmod=usually'
p89
aS'advmod=well'
p90
aS'advmod=when'
p91
aS'advmod=where'
p92
aS'advmod=worldwide'
p93
aS'amod=hard'
p94
aS'amod=massive'
p95
aS'amod=tough'
p96
aS'aux=be'
p97
aS'aux=can'
p98
aS'aux=could'
p99
aS'aux=do'
p100
aS'aux=have'
p101
aS'aux=should'
p102
aS'aux=to'
p103
aS'aux=will'
p104
aS'aux=would'
p105
aS'auxpass=be'
p106
aS'cc=and'
p107
aS'cc=but'
p108
aS'cc=or'
p109
aS'ccomp=arrest'
p110
aS'ccomp=at'
p111
aS'ccomp=book'
p112
aS'ccomp=buy'
p113
aS'ccomp=can'
p114
aS'ccomp=certify'
p115
aS'ccomp=decide'
p116
aS'ccomp=freeze'
p117
aS'ccomp=gain'
p118
aS'ccomp=give'
p119
aS'ccomp=go'
p120
aS'ccomp=have'
p121
aS'ccomp=leave'
p122
aS'ccomp=make'
p123
aS'ccomp=manufacture'
p124
aS'ccomp=part'
p125
aS'ccomp=round'
p126
aS'ccomp=salvage'
p127
aS'ccomp=say'
p128
aS'ccomp=work'
p129
aS'complm=that'
p130
aS'conj=admit'
p131
aS'conj=alongside'
p132
aS'conj=be'
p133
aS'conj=bring'
p134
aS'conj=buy'
p135
aS'conj=consume'
p136
aS'conj=continue'
p137
aS'conj=credible'
p138
aS'conj=demand'
p139
aS'conj=do'
p140
aS'conj=donate'
p141
aS'conj=end'
p142
aS'conj=establish'
p143
aS'conj=export'
p144
aS'conj=fruit'
p145
aS'conj=get'
p146
aS'conj=go'
p147
aS'conj=grow'
p148
aS'conj=have'
p149
aS'conj=learn'
p150
aS'conj=loot'
p151
aS'conj=make'
p152
aS'conj=manage'
p153
aS'conj=market'
p154
aS'conj=move'
p155
aS'conj=name'
p156
aS'conj=need'
p157
aS'conj=produce'
p158
aS'conj=promote'
p159
aS'conj=receive'
p160
aS'conj=run'
p161
aS'conj=sell'
p162
aS'conj=stimulate'
p163
aS'conj=unwilling'
p164
aS'conj=use'
p165
aS'conj=work'
p166
aS'cop=be'
p167
aS'csubj=promote'
p168
aS'dep=abandon'
p169
aS'dep=call'
p170
aS'dep=copy'
p171
aS'dep=difficult'
p172
aS'dep=due'
p173
aS'dep=in'
p174
aS'dep=many'
p175
aS'dep=need'
p176
aS'dep=occupy'
p177
aS'dep=out'
p178
aS'dep=painting'
p179
aS'dep=pirate'
p180
aS'dep=price'
p181
aS'dep=say'
p182
aS'dep=slash'
p183
aS'dep=that'
p184
aS'dep=use'
p185
aS'dep=whose'
p186
aS'dep=woman'
p187
aS'det=a'
p188
aS'det=the'
p189
aS'dobj=#NUMBER#'
p190
aS'dobj=#PRP#'
p191
aS'dobj=$'
p192
aS'dobj=Company'
p193
aS'dobj=aid'
p194
aS'dobj=aircraft'
p195
aS'dobj=alcohol'
p196
aS'dobj=animal'
p197
aS'dobj=anti-tank'
p198
aS'dobj=antique'
p199
aS'dobj=anything'
p200
aS'dobj=appliance'
p201
aS'dobj=argument'
p202
aS'dobj=arm'
p203
aS'dobj=artifact'
p204
aS'dobj=artwork'
p205
aS'dobj=asset'
p206
aS'dobj=auto'
p207
aS'dobj=automobile'
p208
aS'dobj=baby'
p209
aS'dobj=bag'
p210
aS'dobj=baht'
p211
aS'dobj=bean'
p212
aS'dobj=beef'
p213
aS'dobj=berry'
p214
aS'dobj=bialy'
p215
aS'dobj=blood'
p216
aS'dobj=body'
p217
aS'dobj=bond'
p218
aS'dobj=book'
p219
aS'dobj=brand'
p220
aS'dobj=breakfast'
p221
aS'dobj=bucket'
p222
aS'dobj=bulb'
p223
aS'dobj=car'
p224
aS'dobj=carbon'
p225
aS'dobj=card'
p226
aS'dobj=carving'
p227
aS'dobj=catch'
p228
aS'dobj=cause'
p229
aS'dobj=cd'
p230
aS'dobj=chamber'
p231
aS'dobj=charm'
p232
aS'dobj=chemical'
p233
aS'dobj=cigarette'
p234
aS'dobj=cleaner'
p235
aS'dobj=clothes'
p236
aS'dobj=clothing'
p237
aS'dobj=cocoa'
p238
aS'dobj=company'
p239
aS'dobj=concert'
p240
aS'dobj=concession'
p241
aS'dobj=consignment'
p242
aS'dobj=contract'
p243
aS'dobj=control'
p244
aS'dobj=copy'
p245
aS'dobj=cream'
p246
aS'dobj=credit'
p247
aS'dobj=crop'
p248
aS'dobj=deal'
p249
aS'dobj=diamond'
p250
aS'dobj=disc'
p251
aS'dobj=dollar'
p252
aS'dobj=drug'
p253
aS'dobj=equipment'
p254
aS'dobj=etceteras'
p255
aS'dobj=ethanol'
p256
aS'dobj=everything'
p257
aS'dobj=fish'
p258
aS'dobj=flour'
p259
aS'dobj=flower'
p260
aS'dobj=foal'
p261
aS'dobj=food'
p262
aS'dobj=freshener'
p263
aS'dobj=fruit'
p264
aS'dobj=fuel'
p265
aS'dobj=game'
p266
aS'dobj=garment'
p267
aS'dobj=gasoline'
p268
aS'dobj=gem'
p269
aS'dobj=ginseng'
p270
aS'dobj=gold'
p271
aS'dobj=goods'
p272
aS'dobj=gorilla'
p273
aS'dobj=group'
p274
aS'dobj=handbag'
p275
aS'dobj=hardware'
p276
aS'dobj=harvest'
p277
aS'dobj=home'
p278
aS'dobj=idea'
p279
aS'dobj=insurance'
p280
aS'dobj=investment'
p281
aS'dobj=item'
p282
aS'dobj=jeans'
p283
aS'dobj=jewelry'
p284
aS'dobj=journey'
p285
aS'dobj=juice'
p286
aS'dobj=kidney'
p287
aS'dobj=know-how'
p288
aS'dobj=land'
p289
aS'dobj=licens'
p290
aS'dobj=lingerie'
p291
aS'dobj=liter'
p292
aS'dobj=livestock'
p293
aS'dobj=llama'
p294
aS'dobj=loaf'
p295
aS'dobj=maize'
p296
aS'dobj=man'
p297
aS'dobj=mango'
p298
aS'dobj=market'
p299
aS'dobj=material'
p300
aS'dobj=meat'
p301
aS'dobj=medicine'
p302
aS'dobj=merchandise'
p303
aS'dobj=metal'
p304
aS'dobj=milk'
p305
aS'dobj=monkey'
p306
aS'dobj=month'
p307
aS'dobj=monument'
p308
aS'dobj=more'
p309
aS'dobj=music'
p310
aS'dobj=necklace'
p311
aS'dobj=newspaper'
p312
aS'dobj=oil'
p313
aS'dobj=opportunity'
p314
aS'dobj=orange'
p315
aS'dobj=organ'
p316
aS'dobj=painting'
p317
aS'dobj=paper'
p318
aS'dobj=park'
p319
aS'dobj=part'
p320
aS'dobj=percent'
p321
aS'dobj=perfume'
p322
aS'dobj=phone'
p323
aS'dobj=pig'
p324
aS'dobj=plane'
p325
aS'dobj=plant'
p326
aS'dobj=plate'
p327
aS'dobj=player'
p328
aS'dobj=practice'
p329
aS'dobj=produce'
p330
aS'dobj=product'
p331
aS'dobj=program'
p332
aS'dobj=property'
p333
aS'dobj=quantity'
p334
aS'dobj=ram'
p335
aS'dobj=remains'
p336
aS'dobj=replica'
p337
aS'dobj=ride'
p338
aS'dobj=right'
p339
aS'dobj=rights'
p340
aS'dobj=room'
p341
aS'dobj=run'
p342
aS'dobj=salt'
p343
aS'dobj=sandwich'
p344
aS'dobj=scrap'
p345
aS'dobj=screenplay'
p346
aS'dobj=seat'
p347
aS'dobj=second'
p348
aS'dobj=secret'
p349
aS'dobj=security'
p350
aS'dobj=seed'
p351
aS'dobj=share'
p352
aS'dobj=sheep'
p353
aS'dobj=shirt'
p354
aS'dobj=skin'
p355
aS'dobj=some'
p356
aS'dobj=something'
p357
aS'dobj=soul'
p358
aS'dobj=souvenir'
p359
aS'dobj=spice'
p360
aS'dobj=stadium'
p361
aS'dobj=stake'
p362
aS'dobj=staple'
p363
aS'dobj=stock'
p364
aS'dobj=strategy'
p365
aS'dobj=supplies'
p366
aS'dobj=surplus'
p367
aS'dobj=sweat'
p368
aS'dobj=t-shirt'
p369
aS'dobj=technology'
p370
aS'dobj=than'
p371
aS'dobj=the'
p372
aS'dobj=thing'
p373
aS'dobj=ticket'
p374
aS'dobj=time'
p375
aS'dobj=tissue'
p376
aS'dobj=tomato'
p377
aS'dobj=ton'
p378
aS'dobj=tricycle'
p379
aS'dobj=unit'
p380
aS'dobj=uranium'
p381
aS'dobj=variety'
p382
aS'dobj=vegetable'
p383
aS'dobj=version'
p384
aS'dobj=vessel'
p385
aS'dobj=vote'
p386
aS'dobj=voucher'
p387
aS'dobj=war'
p388
aS'dobj=wares'
p389
aS'dobj=water'
p390
aS'dobj=weapon'
p391
aS'dobj=weaponry'
p392
aS'dobj=what'
p393
aS'dobj=which'
p394
aS'dobj=work'
p395
aS'dobj=worth'
p396
aS'dobj=yen'
p397
aS'iobj=#PRP#'
p398
aS'iobj=peacetime'
p399
aS'mark=about'
p400
aS'mark=after'
p401
aS'mark=as'
p402
aS'mark=because'
p403
aS'mark=for'
p404
aS'mark=if'
p405
aS'mark=once'
p406
aS'mark=since'
p407
aS'mark=so'
p408
aS'mark=than'
p409
aS'mark=while'
p410
aS'neg=never'
p411
aS'neg=not'
p412
aS'nsubj=#NUMBER#'
p413
aS'nsubj=#PRP#'
p414
aS'nsubj=Apple'
p415
aS'nsubj=Apu'
p416
aS'nsubj=Australia'
p417
aS'nsubj=Ba'
p418
aS'nsubj=Bank'
p419
aS'nsubj=Boakai'
p420
aS'nsubj=Bureau'
p421
aS'nsubj=Carbide'
p422
aS'nsubj=China'
p423
aS'nsubj=Diaw'
p424
aS'nsubj=Hashim'
p425
aS'nsubj=Hernandez'
p426
aS'nsubj=Hitler'
p427
aS'nsubj=Hoobastank'
p428
aS'nsubj=Japan'
p429
aS'nsubj=Kheyre'
p430
aS'nsubj=King'
p431
aS'nsubj=Leye'
p432
aS'nsubj=Mani'
p433
aS'nsubj=Morcos'
p434
aS'nsubj=Niger'
p435
aS'nsubj=Pavlicek'
p436
aS'nsubj=Pentagon'
p437
aS'nsubj=Pritchard'
p438
aS'nsubj=Rams'
p439
aS'nsubj=Raza'
p440
aS'nsubj=Russia'
p441
aS'nsubj=Schnur'
p442
aS'nsubj=Sene'
p443
aS'nsubj=Shabane'
p444
aS'nsubj=Shell'
p445
aS'nsubj=Smart'
p446
aS'nsubj=Snyder'
p447
aS'nsubj=States'
p448
aS'nsubj=Suzuki'
p449
aS'nsubj=U.S.'
p450
aS'nsubj=Yang'
p451
aS'nsubj=administration'
p452
aS'nsubj=album'
p453
aS'nsubj=anything'
p454
aS'nsubj=archdiocese'
p455
aS'nsubj=art'
p456
aS'nsubj=auction'
p457
aS'nsubj=baker'
p458
aS'nsubj=bakery'
p459
aS'nsubj=bank'
p460
aS'nsubj=book'
p461
aS'nsubj=bout'
p462
aS'nsubj=business'
p463
aS'nsubj=car'
p464
aS'nsubj=chain'
p465
aS'nsubj=child'
p466
aS'nsubj=collection'
p467
aS'nsubj=color'
p468
aS'nsubj=company'
p469
aS'nsubj=confectioner'
p470
aS'nsubj=copy'
p471
aS'nsubj=customer'
p472
aS'nsubj=debut'
p473
aS'nsubj=demand'
p474
aS'nsubj=diamond'
p475
aS'nsubj=dozen'
p476
aS'nsubj=dream'
p477
aS'nsubj=everything'
p478
aS'nsubj=family'
p479
aS'nsubj=farmer'
p480
aS'nsubj=fisherman'
p481
aS'nsubj=flag'
p482
aS'nsubj=flower'
p483
aS'nsubj=fund'
p484
aS'nsubj=giant'
p485
aS'nsubj=government'
p486
aS'nsubj=group'
p487
aS'nsubj=hem-solar'
p488
aS'nsubj=hin'
p489
aS'nsubj=investor'
p490
aS'nsubj=jar'
p491
aS'nsubj=lasalin'
p492
aS'nsubj=magazine'
p493
aS'nsubj=mango'
p494
aS'nsubj=manufacturer'
p495
aS'nsubj=many'
p496
aS'nsubj=market'
p497
aS'nsubj=mbc'
p498
aS'nsubj=minister'
p499
aS'nsubj=oil'
p500
aS'nsubj=opposition'
p501
aS'nsubj=owner'
p502
aS'nsubj=parcel'
p503
aS'nsubj=part'
p504
aS'nsubj=people'
p505
aS'nsubj=petrol'
p506
aS'nsubj=plan'
p507
aS'nsubj=policy'
p508
aS'nsubj=poor'
p509
aS'nsubj=price'
p510
aS'nsubj=product'
p511
aS'nsubj=project'
p512
aS'nsubj=publisher'
p513
aS'nsubj=purchase'
p514
aS'nsubj=rat'
p515
aS'nsubj=recording'
p516
aS'nsubj=refugee'
p517
aS'nsubj=resident'
p518
aS'nsubj=restaurant'
p519
aS'nsubj=sale'
p520
aS'nsubj=series'
p521
aS'nsubj=shop'
p522
aS'nsubj=some'
p523
aS'nsubj=song'
p524
aS'nsubj=that'
p525
aS'nsubj=ticket'
p526
aS'nsubj=ton'
p527
aS'nsubj=trio'
p528
aS'nsubj=vendor'
p529
aS'nsubj=what'
p530
aS'nsubj=which'
p531
aS'nsubj=who'
p532
aS'nsubj=woman'
p533
aS'nsubj=work'
p534
aS'nsubj=youth'
p535
aS'nsubjpass=#NUMBER#'
p536
aS'nsubjpass=#PRP#'
p537
aS'nsubjpass=Coffee'
p538
aS'nsubjpass=Crafts'
p539
aS'nsubjpass=Mani'
p540
aS'nsubjpass=Tigers'
p541
aS'nsubjpass=Weapons'
p542
aS'nsubjpass=album'
p543
aS'nsubjpass=arm'
p544
aS'nsubjpass=asset'
p545
aS'nsubjpass=car'
p546
aS'nsubjpass=cd'
p547
aS'nsubjpass=charcoal'
p548
aS'nsubjpass=child'
p549
aS'nsubjpass=cocoa'
p550
aS'nsubjpass=commodity'
p551
aS'nsubjpass=division'
p552
aS'nsubjpass=drug'
p553
aS'nsubjpass=excess'
p554
aS'nsubjpass=fashion'
p555
aS'nsubjpass=food'
p556
aS'nsubjpass=grandmother'
p557
aS'nsubjpass=hunt'
p558
aS'nsubjpass=kidney'
p559
aS'nsubjpass=kind'
p560
aS'nsubjpass=meal'
p561
aS'nsubjpass=meat'
p562
aS'nsubjpass=much'
p563
aS'nsubjpass=official'
p564
aS'nsubjpass=people'
p565
aS'nsubjpass=produce'
p566
aS'nsubjpass=product'
p567
aS'nsubjpass=property'
p568
aS'nsubjpass=rule'
p569
aS'nsubjpass=skin'
p570
aS'nsubjpass=spectrum'
p571
aS'nsubjpass=stove'
p572
aS'nsubjpass=system'
p573
aS'nsubjpass=that'
p574
aS'nsubjpass=ticket'
p575
aS'nsubjpass=tractor'
p576
aS'nsubjpass=uranium'
p577
aS'nsubjpass=value'
p578
aS'nsubjpass=which'
p579
aS'nsubjpass=who'
p580
aS'nsubjpass=woman'
p581
aS'nsubjpass=yielding'
p582
aS'parataxis=Naira'
p583
aS'parataxis=go'
p584
aS'parataxis=say'
p585
aS'parataxis=work'
p586
aS'partmod=clear'
p587
aS'partmod=determine'
p588
aS'partmod=feature'
p589
aS'partmod=focus'
p590
aS'partmod=force'
p591
aS'partmod=go'
p592
aS'partmod=know'
p593
aS'partmod=make'
p594
aS'partmod=provide'
p595
aS'partmod=revive'
p596
aS'poss=week'
p597
aS'prep=about'
p598
aS'prep=accord'
p599
aS'prep=after'
p600
aS'prep=amid'
p601
aS'prep=among'
p602
aS'prep=around'
p603
aS'prep=as'
p604
aS'prep=at'
p605
aS'prep=because'
p606
aS'prep=before'
p607
aS'prep=behind'
p608
aS'prep=below'
p609
aS'prep=by'
p610
aS'prep=during'
p611
aS'prep=follow'
p612
aS'prep=for'
p613
aS'prep=from'
p614
aS'prep=if'
p615
aS'prep=in'
p616
aS'prep=include'
p617
aS'prep=into'
p618
aS'prep=like'
p619
aS'prep=of'
p620
aS'prep=off'
p621
aS'prep=on'
p622
aS'prep=online'
p623
aS'prep=over'
p624
aS'prep=primarily'
p625
aS'prep=since'
p626
aS'prep=than'
p627
aS'prep=through'
p628
aS'prep=throughout'
p629
aS'prep=to'
p630
aS'prep=under'
p631
aS'prep=until'
p632
aS'prep=with'
p633
aS'prep=without'
p634
aS'prt=off'
p635
aS'prt=out'
p636
aS'purpcl=halt'
p637
aS'rel=which'
p638
aS'tmod=#PRP#'
p639
aS'tmod=all'
p640
aS'tmod=company'
p641
aS'tmod=day'
p642
aS'tmod=month'
p643
aS'tmod=motorbike'
p644
aS'tmod=today'
p645
aS'tmod=week'
p646
aS'tmod=worldwide'
p647
aS'tmod=year'
p648
aS'w+1=$'
p649
aS'w+1=,'
p650
aS'w+1=-'
p651
aS'w+1=--'
p652
aS'w+1=-rrb-'
p653
aS'w+1=.'
p654
aS'w+1=100'
p655
aS'w+1=150,000'
p656
aS'w+1=3,000'
p657
aS'w+1=40'
p658
aS'w+1=400,000'
p659
aS'w+1=45,000'
p660
aS'w+1=500,000'
p661
aS'w+1=51'
p662
aS'w+1=53,000'
p663
aS'w+1=8.3'
p664
aS'w+1=Chrysler'
p665
aS'w+1=I'
p666
aS'w+1=India'
p667
aS'w+1=Les'
p668
aS'w+1=R'
p669
aS'w+1=Sudan'
p670
aS'w+1=Tabaski'
p671
aS'w+1=a'
p672
aS'w+1=abandon'
p673
aS'w+1=about'
p674
aS'w+1=accidentally'
p675
aS'w+1=advanced'
p676
aS'w+1=alcohol'
p677
aS'w+1=all'
p678
aS'w+1=american'
p679
aS'w+1=and'
p680
aS'w+1=andwork'
p681
aS'w+1=animal'
p682
aS'w+1=antique'
p683
aS'w+1=any'
p684
aS'w+1=anything'
p685
aS'w+1=arm'
p686
aS'w+1=around'
p687
aS'w+1=art'
p688
aS'w+1=artifact'
p689
aS'w+1=as'
p690
aS'w+1=at'
p691
aS'w+1=automobile'
p692
aS'w+1=baby'
p693
aS'w+1=bag'
p694
aS'w+1=ban'
p695
aS'w+1=be'
p696
aS'w+1=bean'
p697
aS'w+1=because'
p698
aS'w+1=beef'
p699
aS'w+1=billion'
p700
aS'w+1=blood'
p701
aS'w+1=book'
p702
aS'w+1=bracelet'
p703
aS'w+1=breakfast'
p704
aS'w+1=broadcasting'
p705
aS'w+1=by'
p706
aS'w+1=camouflage'
p707
aS'w+1=candy'
p708
aS'w+1=car'
p709
aS'w+1=cell'
p710
aS'w+1=charm'
p711
aS'w+1=chemical'
p712
aS'w+1=cigarette'
p713
aS'w+1=clothes'
p714
aS'w+1=coconut'
p715
aS'w+1=cold'
p716
aS'w+1=commercially'
p717
aS'w+1=compact'
p718
aS'w+1=control'
p719
aS'w+1=counterfeit'
p720
aS'w+1=crop'
p721
aS'w+1=diamond'
p722
aS'w+1=directly'
p723
aS'w+1=drug'
p724
aS'w+1=dry'
p725
aS'w+1=each'
p726
aS'w+1=electronic'
p727
aS'w+1=elsewhere'
p728
aS'w+1=enough'
p729
aS'w+1=ethanol'
p730
aS'w+1=everything'
p731
aS'w+1=exotic'
p732
aS'w+1=extremely'
p733
aS'w+1=fake'
p734
aS'w+1=farmer'
p735
aS'w+1=fish'
p736
aS'w+1=fishing'
p737
aS'w+1=flour'
p738
aS'w+1=flower'
p739
aS'w+1=food'
p740
aS'w+1=food-packaging'
p741
aS'w+1=for'
p742
aS'w+1=four'
p743
aS'w+1=fresh'
p744
aS'w+1=fruit'
p745
aS'w+1=future'
p746
aS'w+1=garment'
p747
aS'w+1=ginseng'
p748
aS'w+1=gold'
p749
aS'w+1=golden'
p750
aS'w+1=goods'
p751
aS'w+1=granite'
p752
aS'w+1=greek'
p753
aS'w+1=guard'
p754
aS'w+1=handbag'
p755
aS'w+1=hardware'
p756
aS'w+1=he'
p757
aS'w+1=healthy'
p758
aS'w+1=here'
p759
aS'w+1=himself'
p760
aS'w+1=homemade'
p761
aS'w+1=household'
p762
aS'w+1=human'
p763
aS'w+1=illegally'
p764
aS'w+1=immediately'
p765
aS'w+1=import'
p766
aS'w+1=in'
p767
aS'w+1=insurance'
p768
aS'w+1=it'
p769
aS'w+1=item'
p770
aS'w+1=its'
p771
aS'w+1=itself'
p772
aS'w+1=jewelry'
p773
aS'w+1=kidney'
p774
aS'w+1=large'
p775
aS'w+1=later'
p776
aS'w+1=less'
p777
aS'w+1=local'
p778
aS'w+1=locally'
p779
aS'w+1=mago'
p780
aS'w+1=maize'
p781
aS'w+1=major'
p782
aS'w+1=meat'
p783
aS'w+1=medicine'
p784
aS'w+1=merchandise'
p785
aS'w+1=milk'
p786
aS'w+1=million'
p787
aS'w+1=mini-air'
p788
aS'w+1=mobile'
p789
aS'w+1=more'
p790
aS'w+1=music'
p791
aS'w+1=my'
p792
aS'w+1=national'
p793
aS'w+1=nearly'
p794
aS'w+1=newspaper'
p795
aS'w+1=nine'
p796
aS'w+1=nothing'
p797
aS'w+1=nowadays'
p798
aS'w+1=nuclear'
p799
aS'w+1=off'
p800
aS'w+1=oil'
p801
aS'w+1=on'
p802
aS'w+1=one'
p803
aS'w+1=online'
p804
aS'w+1=only'
p805
aS'w+1=opportunity'
p806
aS'w+1=or'
p807
aS'w+1=orange'
p808
aS'w+1=organ'
p809
aS'w+1=out'
p810
aS'w+1=over'
p811
aS'w+1=overseas'
p812
aS'w+1=pancake'
p813
aS'w+1=parakeet'
p814
aS'w+1=part'
p815
aS'w+1=peanut'
p816
aS'w+1=perfume'
p817
aS'w+1=phone'
p818
aS'w+1=pirate'
p819
aS'w+1=plastic'
p820
aS'w+1=polycarbonate'
p821
aS'w+1=power'
p822
aS'w+1=primarily'
p823
aS'w+1=principally'
p824
aS'w+1=process'
p825
aS'w+1=produce'
p826
aS'w+1=product'
p827
aS'w+1=ram'
p828
aS'w+1=really'
p829
aS'w+1=replica'
p830
aS'w+1=rice'
p831
aS'w+1=round'
p832
aS'w+1=run'
p833
aS'w+1=salt'
p834
aS'w+1=sandwich'
p835
aS'w+1=scrap'
p836
aS'w+1=security'
p837
aS'w+1=sensitive'
p838
aS'w+1=sex'
p839
aS'w+1=share'
p840
aS'w+1=she'
p841
aS'w+1=sheep'
p842
aS'w+1=shirt'
p843
aS'w+1=since'
p844
aS'w+1=single'
p845
aS'w+1=slash'
p846
aS'w+1=so'
p847
aS'w+1=soft'
p848
aS'w+1=some'
p849
aS'w+1=something'
p850
aS'w+1=sorghum'
p851
aS'w+1=souvenir'
p852
aS'w+1=staple'
p853
aS'w+1=state'
p854
aS'w+1=stock'
p855
aS'w+1=subject'
p856
aS'w+1=subsidized'
p857
aS'w+1=surplus'
p858
aS'w+1=tax-free'
p859
aS'w+1=that'
p860
aS'w+1=the'
p861
aS'w+1=themselves'
p862
aS'w+1=these'
p863
aS'w+1=they'
p864
aS'w+1=thing'
p865
aS'w+1=this'
p866
aS'w+1=those'
p867
aS'w+1=three'
p868
aS'w+1=through'
p869
aS'w+1=tiger'
p870
aS'w+1=timber'
p871
aS'w+1=tiny'
p872
aS'w+1=tissue'
p873
aS'w+1=to'
p874
aS'w+1=tomato'
p875
aS'w+1=traditional'
p876
aS'w+1=tree'
p877
aS'w+1=twice'
p878
aS'w+1=two'
p879
aS'w+1=typical'
p880
aS'w+1=under'
p881
aS'w+1=until'
p882
aS'w+1=uranium'
p883
aS'w+1=use'
p884
aS'w+1=vegetable'
p885
aS'w+1=very'
p886
aS'w+1=voucher'
p887
aS'w+1=we'
p888
aS'w+1=weapon'
p889
aS'w+1=weaponry'
p890
aS'w+1=well'
p891
aS'w+1=what'
p892
aS'w+1=when'
p893
aS'w+1=with'
p894
aS'w+1=woman'
p895
aS'w+1=wood'
p896
aS'w+1=worldwide'
p897
aS'w+1=would'
p898
aS'w+1=yen'
p899
aS'w+1=you'
p900
aS'w+2=$'
p901
aS'w+2=&'
p902
aS"w+2='"
p903
aS"w+2=''"
p904
aS"w+2='s"
p905
aS'w+2=,'
p906
aS'w+2=-'
p907
aS'w+2=.'
p908
aS'w+2=1'
p909
aS'w+2=10,000'
p910
aS'w+2=100'
p911
aS'w+2=17'
p912
aS'w+2=180,000'
p913
aS'w+2=1997'
p914
aS'w+2=20'
p915
aS'w+2=2012'
p916
aS'w+2=25'
p917
aS'w+2=400,000'
p918
aS'w+2=50'
p919
aS'w+2=7.75'
p920
aS'w+2=70'
p921
aS'w+2=Brad'
p922
aS'w+2=Britain'
p923
aS'w+2=Cerberus'
p924
aS'w+2=China'
p925
aS'w+2=Eskom'
p926
aS'w+2=Europe'
p927
aS'w+2=February'
p928
aS'w+2=Grand'
p929
aS'w+2=Hmong'
p930
aS'w+2=India'
p931
aS'w+2=JP'
p932
aS'w+2=Kenya'
p933
aS'w+2=Legend'
p934
aS'w+2=Peru'
p935
aS'w+2=Russia'
p936
aS'w+2=Senate'
p937
aS'w+2=Shalatin'
p938
aS'w+2=Sierra'
p939
aS'w+2=Thai'
p940
aS'w+2=U.S.'
p941
aS'w+2=World'
p942
aS'w+2=``'
p943
aS'w+2=a'
p944
aS'w+2=about'
p945
aS'w+2=adoption'
p946
aS'w+2=adorn'
p947
aS'w+2=agree'
p948
aS'w+2=aid'
p949
aS'w+2=aircraft'
p950
aS'w+2=albino'
p951
aS'w+2=all'
p952
aS'w+2=american'
p953
aS'w+2=amphibious'
p954
aS'w+2=and'
p955
aS'w+2=animal'
p956
aS'w+2=anti-tank'
p957
aS'w+2=anybody'
p958
aS'w+2=appliance'
p959
aS'w+2=arena'
p960
aS'w+2=argument'
p961
aS'w+2=around'
p962
aS'w+2=artwork'
p963
aS'w+2=as'
p964
aS'w+2=asset'
p965
aS'w+2=at'
p966
aS'w+2=australian'
p967
aS'w+2=baht'
p968
aS'w+2=baked'
p969
aS'w+2=barrel'
p970
aS'w+2=be'
p971
aS'w+2=because'
p972
aS'w+2=beef'
p973
aS'w+2=below'
p974
aS'w+2=berry'
p975
aS'w+2=bialy'
p976
aS'w+2=blindly'
p977
aS'w+2=blood'
p978
aS'w+2=body'
p979
aS'w+2=bond'
p980
aS'w+2=book'
p981
aS'w+2=brand'
p982
aS'w+2=bucket'
p983
aS'w+2=but'
p984
aS'w+2=buy'
p985
aS'w+2=by'
p986
aS'w+2=call'
p987
aS'w+2=car'
p988
aS'w+2=carbon'
p989
aS'w+2=card'
p990
aS'w+2=carving'
p991
aS'w+2=cash'
p992
aS'w+2=catch'
p993
aS'w+2=cd'
p994
aS'w+2=chamber'
p995
aS'w+2=charcoal'
p996
aS'w+2=client'
p997
aS'w+2=clothes'
p998
aS'w+2=clothing'
p999
aS'w+2=cocoa'
p1000
aS'w+2=company'
p1001
aS'w+2=complete'
p1002
aS'w+2=concert'
p1003
aS'w+2=consignment'
p1004
aS'w+2=consume'
p1005
aS'w+2=consumption'
p1006
aS'w+2=contract'
p1007
aS'w+2=convention'
p1008
aS'w+2=copy'
p1009
aS'w+2=crop'
p1010
aS'w+2=dead'
p1011
aS'w+2=department'
p1012
aS'w+2=develop'
p1013
aS'w+2=diamond'
p1014
aS'w+2=disc'
p1015
aS'w+2=donate'
p1016
aS'w+2=down'
p1017
aS'w+2=drug'
p1018
aS'w+2=dvd'
p1019
aS'w+2=earn'
p1020
aS'w+2=especially'
p1021
aS'w+2=etceteras'
p1022
aS'w+2=everything'
p1023
aS'w+2=extra'
p1024
aS'w+2=family'
p1025
aS'w+2=farmer'
p1026
aS'w+2=fast'
p1027
aS'w+2=fill'
p1028
aS'w+2=financial'
p1029
aS'w+2=fish'
p1030
aS'w+2=flight'
p1031
aS'w+2=float'
p1032
aS'w+2=flower'
p1033
aS'w+2=foal'
p1034
aS'w+2=for'
p1035
aS'w+2=foreign'
p1036
aS'w+2=foreigner'
p1037
aS'w+2=four'
p1038
aS'w+2=freshener'
p1039
aS'w+2=from'
p1040
aS'w+2=fruit'
p1041
aS'w+2=frying'
p1042
aS'w+2=fuel'
p1043
aS'w+2=game'
p1044
aS'w+2=gasoline'
p1045
aS'w+2=gem'
p1046
aS'w+2=global'
p1047
aS'w+2=goods'
p1048
aS'w+2=gorilla'
p1049
aS'w+2=gourmet'
p1050
aS'w+2=guardian'
p1051
aS'w+2=handicraft'
p1052
aS'w+2=harvest'
p1053
aS'w+2=he'
p1054
aS'w+2=here'
p1055
aS'w+2=high'
p1056
aS'w+2=home'
p1057
aS'w+2=hotel'
p1058
aS'w+2=idea'
p1059
aS'w+2=if'
p1060
aS'w+2=in'
p1061
aS'w+2=income'
p1062
aS'w+2=individual'
p1063
aS'w+2=intermediary'
p1064
aS'w+2=international'
p1065
aS'w+2=into'
p1066
aS'w+2=investment'
p1067
aS'w+2=it'
p1068
aS'w+2=item'
p1069
aS'w+2=its'
p1070
aS'w+2=jeans'
p1071
aS'w+2=jubilee'
p1072
aS'w+2=juice'
p1073
aS'w+2=just'
p1074
aS'w+2=kidney'
p1075
aS'w+2=know-how'
p1076
aS'w+2=land'
p1077
aS'w+2=large'
p1078
aS'w+2=largest'
p1079
aS'w+2=latest'
p1080
aS'w+2=less-than-market-price'
p1081
aS'w+2=licens'
p1082
aS'w+2=like'
p1083
aS'w+2=liter'
p1084
aS'w+2=livestock'
p1085
aS'w+2=llama'
p1086
aS'w+2=loaf'
p1087
aS'w+2=local'
p1088
aS'w+2=locally'
p1089
aS'w+2=loot'
p1090
aS'w+2=mango'
p1091
aS'w+2=market'
p1092
aS'w+2=material'
p1093
aS'w+2=meat'
p1094
aS'w+2=media'
p1095
aS'w+2=medical'
p1096
aS'w+2=medicine'
p1097
aS'w+2=merchandise'
p1098
aS'w+2=metal'
p1099
aS'w+2=metric'
p1100
aS'w+2=military'
p1101
aS'w+2=milk'
p1102
aS'w+2=million'
p1103
aS'w+2=monument'
p1104
aS'w+2=more'
p1105
aS'w+2=most'
p1106
aS'w+2=motorbike'
p1107
aS'w+2=much'
p1108
aS'w+2=music'
p1109
aS'w+2=necklace'
p1110
aS'w+2=neighborhood'
p1111
aS'w+2=new'
p1112
aS'w+2=news'
p1113
aS'w+2=newsstand'
p1114
aS'w+2=normally'
p1115
aS'w+2=not'
p1116
aS'w+2=nuclear'
p1117
aS'w+2=of'
p1118
aS'w+2=off'
p1119
aS'w+2=oil'
p1120
aS'w+2=on'
p1121
aS'w+2=once'
p1122
aS'w+2=one'
p1123
aS'w+2=only'
p1124
aS'w+2=or'
p1125
aS'w+2=orange'
p1126
aS'w+2=organ'
p1127
aS'w+2=other'
p1128
aS'w+2=out'
p1129
aS'w+2=outside'
p1130
aS'w+2=overseas'
p1131
aS'w+2=painting'
p1132
aS'w+2=paper'
p1133
aS'w+2=park'
p1134
aS'w+2=part'
p1135
aS'w+2=passive'
p1136
aS'w+2=peacetime'
p1137
aS'w+2=people'
p1138
aS'w+2=percent'
p1139
aS'w+2=phone'
p1140
aS'w+2=plant'
p1141
aS'w+2=poacher'
p1142
aS'w+2=power-sharing'
p1143
aS'w+2=prepare'
p1144
aS'w+2=produce'
p1145
aS'w+2=product'
p1146
aS'w+2=promote'
p1147
aS'w+2=property'
p1148
aS'w+2=quantity'
p1149
aS'w+2=ram'
p1150
aS'w+2=rebel'
p1151
aS'w+2=retailer'
p1152
aS'w+2=rice'
p1153
aS'w+2=ride'
p1154
aS'w+2=right'
p1155
aS'w+2=rights'
p1156
aS'w+2=riskier'
p1157
aS'w+2=room'
p1158
aS'w+2=salvage'
p1159
aS'w+2=sandwich'
p1160
aS'w+2=say'
p1161
aS'w+2=school'
p1162
aS'w+2=scrap'
p1163
aS'w+2=screenplay'
p1164
aS'w+2=second'
p1165
aS'w+2=secret'
p1166
aS'w+2=senegalese'
p1167
aS'w+2=share'
p1168
aS'w+2=she'
p1169
aS'w+2=sheep'
p1170
aS'w+2=short'
p1171
aS'w+2=show'
p1172
aS'w+2=skin'
p1173
aS'w+2=slash'
p1174
aS'w+2=so'
p1175
aS'w+2=so-called'
p1176
aS'w+2=somali'
p1177
aS'w+2=soul'
p1178
aS'w+2=spice'
p1179
aS'w+2=stadium'
p1180
aS'w+2=steroid'
p1181
aS'w+2=such'
p1182
aS'w+2=supplies'
p1183
aS'w+2=surplus'
p1184
aS'w+2=sweat'
p1185
aS'w+2=sweet'
p1186
aS'w+2=t-shirt'
p1187
aS'w+2=take'
p1188
aS'w+2=technology'
p1189
aS'w+2=ten'
p1190
aS'w+2=territorial'
p1191
aS'w+2=than'
p1192
aS'w+2=that'
p1193
aS'w+2=the'
p1194
aS'w+2=then'
p1195
aS'w+2=these'
p1196
aS'w+2=they'
p1197
aS'w+2=thing'
p1198
aS'w+2=thousand'
p1199
aS'w+2=time'
p1200
aS'w+2=to'
p1201
aS'w+2=ton'
p1202
aS'w+2=too'
p1203
aS'w+2=tricycle'
p1204
aS'w+2=troubled'
p1205
aS'w+2=two'
p1206
aS'w+2=two-seat'
p1207
aS'w+2=under'
p1208
aS'w+2=up'
p1209
aS'w+2=use'
p1210
aS'w+2=vacuum'
p1211
aS'w+2=variety'
p1212
aS'w+2=very'
p1213
aS'w+2=war'
p1214
aS'w+2=wares'
p1215
aS'w+2=water'
p1216
aS'w+2=we'
p1217
aS'w+2=wedding'
p1218
aS'w+2=well'
p1219
aS'w+2=what'
p1220
aS'w+2=wheat'
p1221
aS'w+2=which'
p1222
aS'w+2=wholesale'
p1223
aS'w+2=without'
p1224
aS'w+2=work'
p1225
aS"w-1=''"
p1226
aS'w-1=,'
p1227
aS'w-1=-'
p1228
aS'w-1=--'
p1229
aS'w-1=-lrb-'
p1230
aS'w-1=-rrb-'
p1231
aS'w-1=.'
p1232
aS'w-1=2009'
p1233
aS'w-1=29-year-old'
p1234
aS'w-1=Apple'
p1235
aS'w-1=Asia'
p1236
aS'w-1=Carbide'
p1237
aS'w-1=Casino'
p1238
aS'w-1=Chart'
p1239
aS'w-1=Coliseum'
p1240
aS'w-1=Diaw'
p1241
aS'w-1=Enterprises'
p1242
aS'w-1=Hashim'
p1243
aS'w-1=Hernandez'
p1244
aS'w-1=Hitler'
p1245
aS'w-1=I'
p1246
aS'w-1=Japan'
p1247
aS'w-1=Kheyre'
p1248
aS'w-1=Kong'
p1249
aS'w-1=Leye'
p1250
aS'w-1=Niger'
p1251
aS'w-1=Pavlicek'
p1252
aS'w-1=Pentagon'
p1253
aS'w-1=Raza'
p1254
aS'w-1=Rowling'
p1255
aS'w-1=Store'
p1256
aS'w-1=U.S.'
p1257
aS'w-1=Yang'
p1258
aS'w-1=a'
p1259
aS'w-1=about'
p1260
aS'w-1=against'
p1261
aS'w-1=album'
p1262
aS'w-1=almost'
p1263
aS'w-1=already'
p1264
aS'w-1=also'
p1265
aS'w-1=and'
p1266
aS'w-1=art'
p1267
aS'w-1=as'
p1268
aS'w-1=be'
p1269
aS'w-1=begin'
p1270
aS'w-1=best'
p1271
aS'w-1=between'
p1272
aS'w-1=book'
p1273
aS'w-1=business'
p1274
aS'w-1=but'
p1275
aS'w-1=by'
p1276
aS'w-1=can'
p1277
aS'w-1=car'
p1278
aS'w-1=cd'
p1279
aS'w-1=chain'
p1280
aS'w-1=cheaply'
p1281
aS'w-1=chicken'
p1282
aS'w-1=child'
p1283
aS'w-1=clothes'
p1284
aS'w-1=collection'
p1285
aS'w-1=color'
p1286
aS'w-1=company'
p1287
aS'w-1=confectioner'
p1288
aS'w-1=contemplate'
p1289
aS'w-1=continue'
p1290
aS'w-1=copy'
p1291
aS'w-1=could'
p1292
aS'w-1=country'
p1293
aS'w-1=customer'
p1294
aS'w-1=day'
p1295
aS'w-1=doctor'
p1296
aS'w-1=drug'
p1297
aS'w-1=either'
p1298
aS'w-1=even'
p1299
aS'w-1=everything'
p1300
aS'w-1=exhibitor'
p1301
aS'w-1=family'
p1302
aS'w-1=farmer'
p1303
aS'w-1=flower'
p1304
aS'w-1=food'
p1305
aS'w-1=for'
p1306
aS'w-1=foreignretailer'
p1307
aS'w-1=freely'
p1308
aS'w-1=from'
p1309
aS'w-1=fuel'
p1310
aS'w-1=gas'
p1311
aS'w-1=gasoline'
p1312
aS'w-1=gladly'
p1313
aS'w-1=goods'
p1314
aS'w-1=government'
p1315
aS'w-1=hard'
p1316
aS'w-1=have'
p1317
aS'w-1=he'
p1318
aS'w-1=help'
p1319
aS'w-1=hem-solar'
p1320
aS'w-1=hin'
p1321
aS'w-1=home'
p1322
aS'w-1=in'
p1323
aS'w-1=instance'
p1324
aS'w-1=investor'
p1325
aS'w-1=it'
p1326
aS'w-1=just'
p1327
aS'w-1=language'
p1328
aS'w-1=lasalin'
p1329
aS'w-1=later'
p1330
aS'w-1=living'
p1331
aS'w-1=magazine'
p1332
aS'w-1=mainly'
p1333
aS'w-1=many'
p1334
aS'w-1=market'
p1335
aS'w-1=massive'
p1336
aS'w-1=minister'
p1337
aS'w-1=mother'
p1338
aS'w-1=never'
p1339
aS'w-1=nor'
p1340
aS'w-1=normally'
p1341
aS'w-1=not'
p1342
aS'w-1=now'
p1343
aS'w-1=of'
p1344
aS'w-1=on'
p1345
aS'w-1=once'
p1346
aS'w-1=only'
p1347
aS'w-1=or'
p1348
aS'w-1=organization'
p1349
aS'w-1=ornament'
p1350
aS'w-1=ostensibly'
p1351
aS'w-1=panic'
p1352
aS'w-1=part'
p1353
aS'w-1=peasant'
p1354
aS'w-1=people'
p1355
aS'w-1=percent'
p1356
aS'w-1=pet'
p1357
aS'w-1=piece'
p1358
aS'w-1=poor'
p1359
aS'w-1=potentially'
p1360
aS'w-1=previously'
p1361
aS'w-1=product'
p1362
aS'w-1=quickly'
p1363
aS'w-1=really'
p1364
aS'w-1=recently'
p1365
aS'w-1=record'
p1366
aS'w-1=remains'
p1367
aS'w-1=restaurant'
p1368
aS'w-1=run'
p1369
aS'w-1=seed'
p1370
aS'w-1=she'
p1371
aS'w-1=shop'
p1372
aS'w-1=shopkeeper'
p1373
aS'w-1=should'
p1374
aS'w-1=some'
p1375
aS'w-1=start'
p1376
aS'w-1=still'
p1377
aS'w-1=stop'
p1378
aS'w-1=store'
p1379
aS'w-1=street'
p1380
aS'w-1=that'
p1381
aS'w-1=then'
p1382
aS'w-1=they'
p1383
aS'w-1=ticket'
p1384
aS'w-1=to'
p1385
aS'w-1=tough'
p1386
aS'w-1=trader'
p1387
aS'w-1=trio'
p1388
aS'w-1=truck'
p1389
aS'w-1=try'
p1390
aS'w-1=ultimately'
p1391
aS'w-1=up'
p1392
aS'w-1=upon'
p1393
aS'w-1=vendor'
p1394
aS'w-1=we'
p1395
aS'w-1=wedding'
p1396
aS'w-1=which'
p1397
aS'w-1=who'
p1398
aS'w-1=whom'
p1399
aS'w-1=will'
p1400
aS'w-1=woman'
p1401
aS'w-1=would'
p1402
aS'w-1=you'
p1403
aS'w-1=youth'
p1404
aS"w-2=''"
p1405
aS"w-2='s"
p1406
aS'w-2=,'
p1407
aS'w-2=-'
p1408
aS'w-2=--'
p1409
aS'w-2=-lrb-'
p1410
aS'w-2=-rrb-'
p1411
aS'w-2=.'
p1412
aS'w-2=10'
p1413
aS'w-2=20'
p1414
aS'w-2=Abbas'
p1415
aS'w-2=Abdu'
p1416
aS'w-2=Albert'
p1417
aS'w-2=Albums'
p1418
aS'w-2=Apple'
p1419
aS'w-2=Asia'
p1420
aS'w-2=Baseco'
p1421
aS'w-2=Bay'
p1422
aS'w-2=Boakai'
p1423
aS'w-2=Busad'
p1424
aS'w-2=California'
p1425
aS'w-2=Caribbean'
p1426
aS'w-2=Carreras'
p1427
aS'w-2=China'
p1428
aS'w-2=Cisco'
p1429
aS'w-2=Closet'
p1430
aS'w-2=Dakar'
p1431
aS'w-2=Du'
p1432
aS'w-2=February'
p1433
aS'w-2=France'
p1434
aS'w-2=Harris'
p1435
aS'w-2=Hong'
p1436
aS'w-2=I'
p1437
aS'w-2=International'
p1438
aS'w-2=J.K.'
p1439
aS'w-2=Japan'
p1440
aS'w-2=Kareem'
p1441
aS'w-2=Mani'
p1442
aS'w-2=Memorial'
p1443
aS'w-2=Morcos'
p1444
aS'w-2=Niger'
p1445
aS'w-2=Onango'
p1446
aS'w-2=Pritchard'
p1447
aS'w-2=Public'
p1448
aS'w-2=Russia'
p1449
aS'w-2=Shell'
p1450
aS'w-2=Smart'
p1451
aS'w-2=Snyder'
p1452
aS'w-2=Somalia'
p1453
aS'w-2=Star'
p1454
aS'w-2=States'
p1455
aS'w-2=Sudan'
p1456
aS'w-2=Tigers'
p1457
aS'w-2=Times'
p1458
aS'w-2=Tour'
p1459
aS'w-2=U.S.'
p1460
aS'w-2=Union'
p1461
aS'w-2=Zardari'
p1462
aS'w-2=a'
p1463
aS'w-2=ability'
p1464
aS'w-2=able'
p1465
aS'w-2=abroad'
p1466
aS'w-2=accept'
p1467
aS'w-2=accuse'
p1468
aS'w-2=administration'
p1469
aS'w-2=afford'
p1470
aS'w-2=after'
p1471
aS'w-2=agree'
p1472
aS'w-2=aim'
p1473
aS'w-2=all'
p1474
aS'w-2=allow'
p1475
aS'w-2=also'
p1476
aS'w-2=among'
p1477
aS'w-2=and'
p1478
aS'w-2=andwork'
p1479
aS'w-2=animal'
p1480
aS'w-2=anybody'
p1481
aS'w-2=archdiocese'
p1482
aS'w-2=arm'
p1483
aS'w-2=arrangement'
p1484
aS'w-2=as'
p1485
aS'w-2=asset'
p1486
aS'w-2=attempt'
p1487
aS'w-2=award'
p1488
aS'w-2=back'
p1489
aS'w-2=baker'
p1490
aS'w-2=bakery'
p1491
aS'w-2=ban'
p1492
aS'w-2=be'
p1493
aS'w-2=beach'
p1494
aS'w-2=because'
p1495
aS'w-2=bill'
p1496
aS'w-2=body'
p1497
aS'w-2=bounty'
p1498
aS'w-2=business'
p1499
aS'w-2=buy'
p1500
aS'w-2=buying'
p1501
aS'w-2=by'
p1502
aS'w-2=can'
p1503
aS'w-2=capture'
p1504
aS'w-2=car'
p1505
aS'w-2=catch'
p1506
aS'w-2=cd'
p1507
aS'w-2=chance'
p1508
aS'w-2=channel'
p1509
aS'w-2=charge'
p1510
aS'w-2=city'
p1511
aS'w-2=clout'
p1512
aS'w-2=cocoa'
p1513
aS'w-2=colony'
p1514
aS'w-2=come'
p1515
aS'w-2=commercial'
p1516
aS'w-2=commodity'
p1517
aS'w-2=company'
p1518
aS'w-2=confess'
p1519
aS'w-2=continue'
p1520
aS'w-2=corn'
p1521
aS'w-2=corporation'
p1522
aS'w-2=could'
p1523
aS'w-2=count'
p1524
aS'w-2=country'
p1525
aS'w-2=cut'
p1526
aS'w-2=cypriot'
p1527
aS'w-2=day'
p1528
aS'w-2=deal'
p1529
aS'w-2=dealer'
p1530
aS'w-2=decide'
p1531
aS'w-2=decision'
p1532
aS'w-2=decline'
p1533
aS'w-2=desperate'
p1534
aS'w-2=diesel'
p1535
aS'w-2=difficult'
p1536
aS'w-2=dish'
p1537
aS'w-2=do'
p1538
aS'w-2=donor'
p1539
aS'w-2=dream'
p1540
aS'w-2=drive'
p1541
aS'w-2=drug'
p1542
aS'w-2=dry'
p1543
aS'w-2=easier'
p1544
aS'w-2=easy'
p1545
aS'w-2=eat'
p1546
aS'w-2=end'
p1547
aS'w-2=engineer'
p1548
aS'w-2=enough'
p1549
aS'w-2=enterprise'
p1550
aS'w-2=every'
p1551
aS'w-2=ex-mercenary'
p1552
aS'w-2=exotic'
p1553
aS'w-2=export'
p1554
aS'w-2=family'
p1555
aS'w-2=farm'
p1556
aS'w-2=farmer'
p1557
aS'w-2=fashion'
p1558
aS'w-2=fisherman'
p1559
aS'w-2=floor'
p1560
aS'w-2=food'
p1561
aS'w-2=for'
p1562
aS'w-2=force'
p1563
aS'w-2=foreigner'
p1564
aS'w-2=four'
p1565
aS'w-2=fresh'
p1566
aS'w-2=fund'
p1567
aS'w-2=game'
p1568
aS'w-2=garbage'
p1569
aS'w-2=gay'
p1570
aS'w-2=genre'
p1571
aS'w-2=go'
p1572
aS'w-2=goal'
p1573
aS'w-2=gold'
p1574
aS'w-2=goods'
p1575
aS'w-2=government'
p1576
aS'w-2=grandmother'
p1577
aS'w-2=grow'
p1578
aS'w-2=habit'
p1579
aS'w-2=happy'
p1580
aS'w-2=harvest'
p1581
aS'w-2=have'
p1582
aS'w-2=he'
p1583
aS'w-2=head'
p1584
aS'w-2=help'
p1585
aS'w-2=here'
p1586
aS'w-2=heroin'
p1587
aS'w-2=himself'
p1588
aS'w-2=home'
p1589
aS'w-2=homeowner'
p1590
aS'w-2=hope'
p1591
aS'w-2=hotel'
p1592
aS'w-2=how'
p1593
aS'w-2=hubris'
p1594
aS'w-2=hundred'
p1595
aS'w-2=iPhone'
p1596
aS'w-2=if'
p1597
aS'w-2=illegal'
p1598
aS'w-2=in'
p1599
aS'w-2=income'
p1600
aS'w-2=instead'
p1601
aS'w-2=intend'
p1602
aS'w-2=interested'
p1603
aS'w-2=investment'
p1604
aS'w-2=investor'
p1605
aS'w-2=it'
p1606
aS'w-2=item'
p1607
aS'w-2=jatropha'
p1608
aS'w-2=kidney'
p1609
aS'w-2=latest'
p1610
aS'w-2=laundering'
p1611
aS'w-2=least'
p1612
aS'w-2=leave'
p1613
aS'w-2=left'
p1614
aS'w-2=light'
p1615
aS'w-2=like'
p1616
aS'w-2=limit'
p1617
aS'w-2=little'
p1618
aS'w-2=llama'
p1619
aS'w-2=logo'
p1620
aS'w-2=look'
p1621
aS'w-2=machine'
p1622
aS'w-2=make'
p1623
aS'w-2=man'
p1624
aS'w-2=mango'
p1625
aS'w-2=manufacture'
p1626
aS'w-2=manufacturer'
p1627
aS'w-2=many'
p1628
aS'w-2=market'
p1629
aS'w-2=meager'
p1630
aS'w-2=meal'
p1631
aS'w-2=migrant'
p1632
aS'w-2=million'
p1633
aS'w-2=miserly'
p1634
aS'w-2=model'
p1635
aS'w-2=mostly'
p1636
aS'w-2=move'
p1637
aS'w-2=music'
p1638
aS'w-2=nationwide'
p1639
aS'w-2=network'
p1640
aS'w-2=new'
p1641
aS'w-2=non-governmental'
p1642
aS'w-2=not'
p1643
aS'w-2=now'
p1644
aS'w-2=of'
p1645
aS'w-2=offer'
p1646
aS'w-2=oil'
p1647
aS'w-2=only'
p1648
aS'w-2=or'
p1649
aS'w-2=other'
p1650
aS'w-2=out'
p1651
aS'w-2=owner'
p1652
aS'w-2=part'
p1653
aS'w-2=passenger'
p1654
aS'w-2=people'
p1655
aS'w-2=plan'
p1656
aS'w-2=pledge'
p1657
aS'w-2=poacher'
p1658
aS'w-2=poor'
p1659
aS'w-2=popsicle'
p1660
aS'w-2=power'
p1661
aS'w-2=practice'
p1662
aS'w-2=pressure'
p1663
aS'w-2=price'
p1664
aS'w-2=prime'
p1665
aS'w-2=prison'
p1666
aS'w-2=procure'
p1667
aS'w-2=produce'
p1668
aS'w-2=product'
p1669
aS'w-2=profit'
p1670
aS'w-2=project'
p1671
aS'w-2=promise'
p1672
aS'w-2=property'
p1673
aS'w-2=race'
p1674
aS'w-2=raise'
p1675
aS'w-2=ready'
p1676
aS'w-2=reason'
p1677
aS'w-2=receive'
p1678
aS'w-2=record'
p1679
aS'w-2=refuse'
p1680
aS'w-2=reluctance'
p1681
aS'w-2=remove'
p1682
aS'w-2=renovate'
p1683
aS'w-2=resort'
p1684
aS'w-2=responsible'
p1685
aS'w-2=retailer'
p1686
aS'w-2=revenue'
p1687
aS'w-2=rice'
p1688
aS'w-2=ride'
p1689
aS'w-2=ruble'
p1690
aS'w-2=say'
p1691
aS'w-2=sector'
p1692
aS'w-2=security'
p1693
aS'w-2=see'
p1694
aS'w-2=seed'
p1695
aS'w-2=series'
p1696
aS'w-2=service'
p1697
aS'w-2=she'
p1698
aS'w-2=sheep'
p1699
aS'w-2=shirt'
p1700
aS'w-2=shop'
p1701
aS'w-2=should'
p1702
aS'w-2=size'
p1703
aS'w-2=skin'
p1704
aS'w-2=small'
p1705
aS'w-2=so'
p1706
aS'w-2=some'
p1707
aS'w-2=something'
p1708
aS'w-2=song'
p1709
aS'w-2=spectrum'
p1710
aS'w-2=stall'
p1711
aS'w-2=start'
p1712
aS'w-2=store'
p1713
aS'w-2=strawberry'
p1714
aS'w-2=street'
p1715
aS'w-2=struggle'
p1716
aS'w-2=such'
p1717
aS'w-2=supermarket'
p1718
aS'w-2=switch'
p1719
aS'w-2=technology'
p1720
aS'w-2=than'
p1721
aS'w-2=that'
p1722
aS'w-2=the'
p1723
aS'w-2=there'
p1724
aS'w-2=these'
p1725
aS'w-2=they'
p1726
aS'w-2=those'
p1727
aS'w-2=ticket'
p1728
aS'w-2=time'
p1729
aS'w-2=to'
p1730
aS'w-2=today'
p1731
aS'w-2=top-10'
p1732
aS'w-2=tour'
p1733
aS'w-2=town'
p1734
aS'w-2=trade'
p1735
aS'w-2=trader'
p1736
aS'w-2=trash'
p1737
aS'w-2=try'
p1738
aS'w-2=up'
p1739
aS'w-2=use'
p1740
aS'w-2=vendor'
p1741
aS'w-2=version'
p1742
aS'w-2=vietnamese'
p1743
aS'w-2=want'
p1744
aS'w-2=we'
p1745
aS'w-2=what'
p1746
aS'w-2=when'
p1747
aS'w-2=where'
p1748
aS'w-2=which'
p1749
aS'w-2=whistle'
p1750
aS'w-2=who'
p1751
aS'w-2=will'
p1752
aS'w-2=woman'
p1753
aS'w-2=wood'
p1754
aS'w-2=world'
p1755
aS'w-2=worry'
p1756
aS'w-2=would'
p1757
aS'w-2=year'
p1758
aS'w-2=you'
p1759
aS'xcomp=Nairobi'
p1760
aS'xcomp=abide'
p1761
aS'xcomp=afford'
p1762
aS'xcomp=buy'
p1763
aS'xcomp=cement'
p1764
aS'xcomp=contain'
p1765
aS'xcomp=deal'
p1766
aS'xcomp=earn'
p1767
aS'xcomp=enter'
p1768
aS'xcomp=expensively'
p1769
aS'xcomp=feed'
p1770
aS'xcomp=generate'
p1771
aS'xcomp=get'
p1772
aS'xcomp=goods'
p1773
aS'xcomp=have'
p1774
aS'xcomp=help'
p1775
aS'xcomp=keep'
p1776
aS'xcomp=knife'
p1777
aS'xcomp=lock'
p1778
aS'xcomp=make'
p1779
aS'xcomp=rebel'
p1780
aS'xcomp=repay'
p1781
aS'xcomp=shore'
p1782
aS'xcomp=show'
p1783
aS'xcomp=stop'
p1784
aS'xcomp=try'
p1785
aS'xcomp=wholesale'
p1786
aS'xcomp=work'
p1787
asS'dtype'
p1788
cnumpy
float64
p1789
sS'vocabulary_'
p1790
(dp1791
g504
I495
sg1512
I1503
sg1236
I1227
sg66
I57
sg942
I933
sg321
I312
sg1184
I1175
sg1771
I1762
sg1419
I1410
sg1238
I1229
sg815
I806
sg984
I975
sg985
I976
sg1646
I1637
sg390
I381
sg1065
I1056
sg1641
I1632
sg1111
I1102
sg661
I652
sg1370
I1361
sg342
I333
sg1144
I1135
sg144
I135
sg463
I454
sg1388
I1379
sg1249
I1240
sg1578
I1569
sg1417
I1408
sg221
I212
sg336
I327
sg644
I635
sg1400
I1391
sg1001
I992
sg797
I788
sg185
I176
sg1477
I1468
sg1243
I1234
sg1571
I1562
sg1604
I1595
sg1288
I1279
sg1041
I1032
sg841
I832
sg1729
I1720
sg1748
I1739
sg1305
I1296
sg414
I405
sg978
I969
sg1659
I1650
sg1063
I1054
sg814
I805
sg1751
I1742
sg1760
I1751
sg529
I520
sg1117
I1108
sg802
I793
sg1162
I1153
sg807
I798
sg1375
I1366
sg1159
I1150
sg1168
I1159
sg128
I119
sg1786
I1777
sg503
I494
sg1598
I1589
sg513
I504
sg1474
I1465
sg1648
I1639
sg1782
I1773
sg121
I112
sg1292
I1283
sg772
I763
sg603
I594
sg740
I731
sg1682
I1673
sg1403
I1394
sg1557
I1548
sg475
I466
sg1559
I1550
sg211
I202
sg1635
I1626
sg11
I2
sg641
I632
sg1722
I1713
sg861
I852
sg1721
I1712
sg1581
I1572
sg1264
I1255
sg400
I391
sg1677
I1668
sg483
I474
sg850
I841
sg1679
I1670
sg989
I980
sg687
I678
sg135
I126
sg395
I386
sg1580
I1571
sg271
I262
sg186
I177
sg776
I767
sg1338
I1329
sg1424
I1415
sg1374
I1365
sg525
I516
sg1605
I1596
sg57
I48
sg592
I583
sg1666
I1657
sg148
I139
sg487
I478
sg1448
I1439
sg133
I124
sg1453
I1444
sg660
I651
sg92
I83
sg1472
I1463
sg283
I274
sg1640
I1631
sg431
I422
sg987
I978
sg1784
I1775
sg1034
I1025
sg56
I47
sg535
I526
sg1263
I1254
sg897
I888
sg326
I317
sg617
I608
sg527
I518
sg1385
I1376
sg798
I789
sg265
I256
sg384
I375
sg1460
I1451
sg50
I41
sg191
I182
sg1538
I1529
sg95
I86
sg1121
I1112
sg1718
I1709
sg900
I891
sg241
I232
sg480
I471
sg554
I545
sg1252
I1243
sg429
I420
sg1158
I1149
sg469
I460
sg757
I748
sg1709
I1700
sg952
I943
sg1296
I1287
sg1332
I1323
sg1415
I1406
sg1335
I1326
sg379
I370
sg1449
I1440
sg267
I258
sg1301
I1292
sg869
I860
sg1107
I1098
sg972
I963
sg926
I917
sg1615
I1606
sg126
I117
sg362
I353
sg123
I114
sg1003
I994
sg1435
I1426
sg26
I17
sg1354
I1345
sg1139
I1130
sg1357
I1348
sg68
I59
sg896
I887
sg1308
I1299
sg227
I218
sg749
I740
sg33
I24
sg239
I230
sg936
I927
sg839
I830
sg884
I875
sg363
I354
sg1237
I1228
sg436
I427
sg1153
I1144
sg292
I283
sg171
I162
sg263
I254
sg1032
I1023
sg995
I986
sg357
I348
sg376
I367
sg1783
I1774
sg1172
I1163
sg1552
I1543
sg1739
I1730
sg1727
I1718
sg217
I208
sg427
I418
sg1262
I1253
sg111
I102
sg826
I817
sg673
I664
sg1647
I1638
sg1234
I1225
sg637
I628
sg720
I711
sg208
I199
sg1577
I1568
sg671
I662
sg1015
I1006
sg780
I771
sg1487
I1478
sg457
I448
sg53
I44
sg1392
I1383
sg1339
I1330
sg738
I729
sg1639
I1630
sg385
I376
sg367
I358
sg1601
I1592
sg977
I968
sg568
I559
sg778
I769
sg178
I169
sg1572
I1563
sg858
I849
sg183
I174
sg969
I960
sg1757
I1748
sg132
I123
sg115
I106
sg1630
I1621
sg350
I341
sg1769
I1760
sg818
I809
sg468
I459
sg923
I914
sg261
I252
sg1169
I1160
sg131
I122
sg915
I906
sg704
I695
sg917
I908
sg809
I800
sg1064
I1055
sg410
I401
sg1291
I1282
sg282
I273
sg1476
I1467
sg571
I562
sg1112
I1103
sg1147
I1138
sg1137
I1128
sg1261
I1252
sg947
I938
sg418
I409
sg109
I100
sg1122
I1113
sg1101
I1092
sg1414
I1405
sg891
I882
sg1207
I1198
sg1482
I1473
sg1597
I1588
sg479
I470
sg1599
I1590
sg1462
I1453
sg1606
I1597
sg746
I737
sg48
I39
sg1192
I1183
sg692
I683
sg835
I826
sg721
I712
sg1756
I1747
sg38
I29
sg1687
I1678
sg820
I811
sg284
I275
sg663
I654
sg454
I445
sg236
I227
sg444
I435
sg1455
I1446
sg640
I631
sg1582
I1573
sg311
I302
sg300
I291
sg1327
I1318
sg1013
I1004
sg1707
I1698
sg169
I160
sg854
I845
sg371
I362
sg767
I758
sg539
I530
sg769
I760
sg1652
I1643
sg795
I786
sg674
I665
sg301
I292
sg383
I374
sg1046
I1037
sg596
I587
sg1498
I1489
sg707
I698
sg190
I181
sg452
I443
sg1205
I1196
sg1516
I1507
sg659
I650
sg647
I638
sg705
I696
sg1214
I1205
sg1616
I1607
sg16
I7
sg1733
I1724
sg959
I950
sg1150
I1141
sg1509
I1500
sg1596
I1587
sg1097
I1088
sg1763
I1754
sg401
I392
sg572
I563
sg1715
I1706
sg744
I735
sg697
I688
sg1024
I1015
sg114
I105
sg1244
I1235
sg420
I411
sg147
I138
sg1746
I1737
sg701
I692
sg576
I567
sg638
I629
sg1478
I1469
sg387
I378
sg312
I303
sg506
I497
sg264
I255
sg442
I433
sg1627
I1618
sg1129
I1120
sg1730
I1721
sg552
I543
sg1545
I1536
sg1049
I1040
sg195
I186
sg1686
I1677
sg358
I349
sg1110
I1101
sg1550
I1541
sg1583
I1574
sg626
I617
sg840
I831
sg853
I844
sg1179
I1170
sg715
I706
sg1609
I1600
sg1250
I1241
sg1054
I1045
sg892
I883
sg40
I31
sg555
I546
sg912
I903
sg1030
I1021
sg550
I541
sg515
I506
sg368
I359
sg1491
I1482
sg1059
I1050
sg1036
I1027
sg1300
I1291
sg1650
I1641
sg102
I93
sg1258
I1249
sg1382
I1373
sg1235
I1226
sg1621
I1612
sg1383
I1374
sg406
I397
sg1082
I1073
sg1271
I1262
sg1115
I1106
sg1245
I1236
sg1617
I1608
sg783
I774
sg726
I717
sg1534
I1525
sg1443
I1434
sg428
I419
sg600
I591
sg962
I953
sg509
I500
sg1404
I1395
sg19
I10
sg212
I203
sg732
I723
sg830
I821
sg875
I866
sg1584
I1575
sg1527
I1518
sg268
I259
sg1085
I1076
sg1066
I1057
sg1759
I1750
sg1702
I1693
sg1530
I1521
sg297
I288
sg817
I808
sg1157
I1148
sg1505
I1496
sg1177
I1168
sg810
I801
sg1503
I1494
sg270
I261
sg412
I403
sg159
I150
sg1461
I1452
sg306
I297
sg467
I458
sg1021
I1012
sg333
I324
sg822
I813
sg1456
I1447
sg339
I330
sg437
I428
sg1737
I1728
sg1496
I1487
sg1745
I1736
sg1719
I1710
sg1048
I1039
sg856
I847
sg1775
I1766
sg1206
I1197
sg717
I708
sg1131
I1122
sg882
I873
sg602
I593
sg1444
I1435
sg328
I319
sg496
I487
sg860
I851
sg243
I234
sg1390
I1381
sg1741
I1732
sg1311
I1302
sg252
I243
sg83
I74
sg61
I52
sg1421
I1412
sg954
I945
sg435
I426
sg423
I414
sg1678
I1669
sg1225
I1216
sg593
I584
sg569
I560
sg1164
I1155
sg1723
I1714
sg303
I294
sg14
I5
sg530
I521
sg1624
I1615
sg1501
I1492
sg482
I473
sg832
I823
sg1628
I1619
sg760
I751
sg1176
I1167
sg1317
I1308
sg1060
I1051
sg1632
I1623
sg229
I220
sg1061
I1052
sg1068
I1059
sg1591
I1582
sg667
I658
sg857
I848
sg1191
I1182
sg1265
I1256
sg98
I89
sg216
I207
sg1303
I1294
sg308
I299
sg226
I217
sg1315
I1306
sg1146
I1137
sg1255
I1246
sg1199
I1190
sg1188
I1179
sg1145
I1136
sg73
I64
sg1506
I1497
sg1012
I1003
sg956
I947
sg1223
I1214
sg742
I733
sg930
I921
sg948
I939
sg142
I133
sg1127
I1118
sg1000
I991
sg1633
I1624
sg630
I621
sg332
I323
sg1360
I1351
sg758
I749
sg484
I475
sg1642
I1633
sg152
I143
sg1377
I1368
sg943
I934
sg1221
I1212
sg378
I369
sg1671
I1662
sg1035
I1026
sg71
I62
sg516
I507
sg1524
I1515
sg1484
I1475
sg828
I819
sg394
I385
sg1229
I1220
sg1670
I1661
sg1151
I1142
sg1695
I1686
sg232
I223
sg1411
I1402
sg75
I66
sg1551
I1542
sg391
I382
sg1736
I1727
sg845
I836
sg369
I360
sg1732
I1723
sg398
I389
sg433
I424
sg800
I791
sg737
I728
sg1595
I1586
sg734
I725
sg996
I987
sg1413
I1404
sg1203
I1194
sg1202
I1193
sg1230
I1221
sg1242
I1233
sg189
I180
sg886
I877
sg1499
I1490
sg979
I970
sg255
I246
sg1770
I1761
sg1212
I1203
sg1734
I1725
sg1713
I1704
sg491
I482
sg563
I554
sg1055
I1046
sg470
I461
sg377
I368
sg1486
I1477
sg940
I931
sg1156
I1147
sg895
I886
sg624
I615
sg441
I432
sg256
I247
sg1622
I1613
sg1313
I1304
sg341
I332
sg574
I565
sg1483
I1474
sg843
I834
sg1774
I1765
sg1027
I1018
sg519
I510
sg1465
I1456
sg1684
I1675
sg1520
I1511
sg1361
I1352
sg22
I13
sg1337
I1328
sg1568
I1559
sg1698
I1689
sg1143
I1134
sg36
I27
sg1391
I1382
sg455
I446
sg1353
I1344
sg716
I707
sg317
I308
sg652
I643
sg585
I576
sg1454
I1445
sg330
I321
sg1778
I1769
sg657
I648
sg1095
I1086
sg1103
I1094
sg55
I46
sg1286
I1277
sg1161
I1152
sg848
I839
sg60
I51
sg1714
I1705
sg462
I453
sg37
I28
sg679
I670
sg1521
I1512
sg1663
I1654
sg1166
I1157
sg544
I535
sg881
I872
sg710
I701
sg1529
I1520
sg689
I680
sg1510
I1501
sg1636
I1627
sg1073
I1064
sg1475
I1466
sg1160
I1151
sg1471
I1462
sg581
I572
sg874
I865
sg583
I574
sg145
I136
sg851
I842
sg1266
I1257
sg829
I820
sg878
I869
sg1716
I1707
sg1183
I1174
sg322
I313
sg1513
I1504
sg304
I295
sg493
I484
sg547
I538
sg1213
I1204
sg291
I282
sg834
I825
sg675
I666
sg141
I132
sg1608
I1599
sg88
I79
sg1149
I1140
sg93
I84
sg1535
I1526
sg642
I633
sg578
I569
sg1186
I1177
sg538
I529
sg844
I835
sg1181
I1172
sg723
I714
sg1638
I1629
sg1489
I1480
sg86
I77
sg588
I579
sg1189
I1180
sg278
I269
sg595
I586
sg885
I876
sg224
I215
sg777
I768
sg202
I193
sg584
I575
sg448
I439
sg914
I905
sg1673
I1664
sg1070
I1061
sg1656
I1647
sg1109
I1100
sg1005
I996
sg1119
I1110
sg1428
I1419
sg1528
I1519
sg801
I792
sg1043
I1034
sg143
I134
sg374
I365
sg279
I270
sg606
I597
sg1017
I1008
sg1697
I1688
sg1539
I1530
sg808
I799
sg325
I316
sg165
I156
sg1515
I1506
sg1020
I1011
sg1128
I1119
sg329
I320
sg381
I372
sg1393
I1384
sg950
I941
sg824
I815
sg137
I128
sg665
I656
sg1554
I1545
sg546
I537
sg397
I388
sg364
I355
sg520
I511
sg938
I929
sg1140
I1131
sg1587
I1578
sg1785
I1776
sg447
I438
sg1294
I1285
sg1690
I1681
sg655
I646
sg580
I571
sg561
I552
sg1570
I1561
sg345
I336
sg1399
I1390
sg35
I26
sg586
I577
sg759
I750
sg1240
I1231
sg1171
I1162
sg788
I779
sg1204
I1195
sg343
I334
sg225
I216
sg1379
I1370
sg108
I99
sg1704
I1695
sg1028
I1019
sg1779
I1770
sg1319
I1310
sg223
I214
sg18
I9
sg656
I647
sg735
I726
sg812
I803
sg1683
I1674
sg1010
I1001
sg545
I536
sg597
I588
sg1222
I1213
sg245
I236
sg399
I390
sg65
I56
sg958
I949
sg1004
I995
sg1233
I1224
sg460
I451
sg518
I509
sg531
I522
sg1658
I1649
sg80
I71
sg1416
I1407
sg933
I924
sg34
I25
sg495
I486
sg1155
I1146
sg478
I469
sg1398
I1389
sg324
I315
sg1451
I1442
sg763
I754
sg1209
I1200
sg440
I431
sg1523
I1514
sg670
I661
sg1436
I1427
sg1247
I1238
sg180
I171
sg785
I776
sg945
I936
sg1362
I1353
sg1738
I1729
sg1058
I1049
sg499
I490
sg246
I237
sg790
I781
sg894
I885
sg1573
I1564
sg1446
I1437
sg355
I346
sg876
I867
sg1408
I1399
sg1412
I1403
sg890
I881
sg101
I92
sg782
I773
sg78
I69
sg836
I827
sg1565
I1556
sg1437
I1428
sg1396
I1387
sg1532
I1523
sg1593
I1584
sg562
I553
sg1543
I1534
sg340
I331
sg1154
I1145
sg94
I85
sg1463
I1454
sg1430
I1421
sg1623
I1614
sg277
I268
sg1318
I1309
sg344
I335
sg293
I284
sg1517
I1508
sg1742
I1733
sg411
I402
sg507
I498
sg1511
I1502
sg929
I920
sg473
I464
sg1033
I1024
sg1284
I1275
sg386
I377
sg729
I720
sg1696
I1687
sg77
I68
sg1541
I1532
sg476
I467
sg1777
I1768
sg1340
I1331
sg219
I210
sg873
I864
sg407
I398
sg831
I822
sg64
I55
sg941
I932
sg1522
I1513
sg1299
I1290
sg614
I605
sg353
I344
sg893
I884
sg635
I626
sg498
I489
sg1693
I1684
sg1084
I1075
sg356
I347
sg976
I967
sg589
I580
sg651
I642
sg650
I641
sg654
I645
sg1057
I1048
sg1717
I1708
sg1422
I1413
sg781
I772
sg1253
I1244
sg1142
I1133
sg1363
I1354
sg1044
I1035
sg739
I730
sg1002
I993
sg1661
I1652
sg244
I235
sg672
I663
sg1330
I1321
sg1735
I1726
sg741
I732
sg1611
I1602
sg204
I195
sg1495
I1486
sg1381
I1372
sg1310
I1301
sg846
I837
sg490
I481
sg85
I76
sg1384
I1375
sg1102
I1093
sg517
I508
sg1469
I1460
sg1655
I1646
sg565
I556
sg1208
I1199
sg453
I444
sg445
I436
sg573
I564
sg639
I630
sg466
I457
sg158
I149
sg1241
I1232
sg175
I166
sg1767
I1758
sg957
I948
sg242
I233
sg1438
I1429
sg1239
I1230
sg918
I909
sg274
I265
sg609
I600
sg1341
I1332
sg1402
I1393
sg415
I406
sg863
I854
sg805
I796
sg349
I340
sg1219
I1210
sg1602
I1593
sg934
I925
sg1218
I1209
sg859
I850
sg1664
I1655
sg354
I345
sg1056
I1047
sg731
I722
sg703
I694
sg1555
I1546
sg451
I442
sg1556
I1547
sg997
I988
sg543
I534
sg1457
I1448
sg257
I248
sg125
I116
sg1053
I1044
sg1731
I1722
sg842
I833
sg1352
I1343
sg1201
I1192
sg1531
I1522
sg194
I185
sg269
I260
sg1267
I1258
sg1629
I1620
sg1589
I1580
sg1600
I1591
sg1708
I1699
sg157
I148
sg510
I501
sg120
I111
sg770
I761
sg82
I73
sg218
I209
sg1099
I1090
sg514
I505
sg130
I121
sg1148
I1139
sg1364
I1355
sg643
I634
sg1126
I1117
sg488
I479
sg380
I371
sg1187
I1178
sg96
I87
sg1562
I1553
sg864
I855
sg867
I858
sg615
I606
sg46
I37
sg359
I350
sg616
I607
sg1260
I1251
sg1324
I1315
sg1356
I1347
sg681
I672
sg1077
I1068
sg1248
I1239
sg601
I592
sg1251
I1242
sg753
I744
sg1625
I1616
sg136
I127
sg32
I23
sg276
I267
sg1776
I1767
sg838
I829
sg1216
I1207
sg424
I415
sg138
I129
sg309
I300
sg625
I616
sg1326
I1317
sg1576
I1567
sg1492
I1483
sg702
I693
sg1566
I1557
sg524
I515
sg1323
I1314
sg1450
I1441
sg129
I120
sg446
I437
sg1170
I1161
sg1316
I1307
sg405
I396
sg714
I705
sg259
I250
sg1120
I1111
sg29
I20
sg1116
I1107
sg766
I757
sg1692
I1683
sg946
I937
sg1334
I1325
sg182
I173
sg1494
I1485
sg1320
I1311
sg1282
I1273
sg1649
I1640
sg532
I523
sg709
I700
sg1728
I1719
sg1645
I1636
sg477
I468
sg852
I843
sg1546
I1537
sg288
I279
sg553
I544
sg310
I301
sg1481
I1472
sg1464
I1455
sg988
I979
sg699
I690
sg690
I681
sg1083
I1074
sg691
I682
sg1307
I1298
sg1278
I1269
sg825
I816
sg1175
I1166
sg404
I395
sg1029
I1020
sg1277
I1268
sg21
I12
sg1668
I1659
sg992
I983
sg855
I846
sg752
I743
sg1508
I1499
sg1215
I1206
sg541
I532
sg1669
I1660
sg222
I213
sg1564
I1555
sg164
I155
sg49
I40
sg91
I82
sg889
I880
sg27
I18
sg1766
I1757
sg784
I775
sg888
I879
sg1011
I1002
sg887
I878
sg1452
I1443
sg1349
I1340
sg1211
I1202
sg1090
I1081
sg106
I97
sg1163
I1154
sg173
I164
sg249
I240
sg286
I277
sg84
I75
sg694
I685
sg1100
I1091
sg196
I187
sg417
I408
sg323
I314
sg728
I719
sg413
I404
sg13
I4
sg1198
I1189
sg999
I990
sg1558
I1549
sg771
I762
sg1091
I1082
sg1281
I1272
sg393
I384
sg1226
I1217
sg1787
I1778
sg1104
I1095
sg536
I527
sg750
I741
sg1588
I1579
sg140
I131
sg228
I219
sg877
I868
sg1518
I1509
sg743
I734
sg1490
I1481
sg1022
I1013
sg1190
I1181
sg1480
I1471
sg1613
I1604
sg149
I140
sg1372
I1363
sg421
I412
sg548
I539
sg1724
I1715
sg556
I547
sg1314
I1305
sg953
I944
sg151
I142
sg1406
I1397
sg733
I724
sg20
I11
sg1504
I1495
sg1620
I1611
sg1180
I1171
sg416
I407
sg899
I890
sg298
I289
sg1590
I1581
sg698
I689
sg347
I338
sg768
I759
sg1553
I1544
sg872
I863
sg1333
I1324
sg240
I231
sg425
I416
sg521
I512
sg1749
I1740
sg823
I814
sg9
I0
sg52
I43
sg361
I352
sg523
I514
sg629
I620
sg253
I244
sg318
I309
sg464
I455
sg1088
I1079
sg1603
I1594
sg192
I183
sg990
I981
sg1626
I1617
sg1254
I1245
sg633
I624
sg382
I373
sg534
I525
sg1427
I1418
sg883
I874
sg1272
I1263
sg150
I141
sg214
I205
sg1365
I1356
sg1380
I1371
sg1042
I1033
sg1618
I1609
sg461
I452
sg993
I984
sg1688
I1679
sg449
I440
sg118
I109
sg1079
I1070
sg730
I721
sg210
I201
sg1075
I1066
sg237
I228
sg724
I715
sg594
I585
sg1367
I1358
sg804
I795
sg107
I98
sg1185
I1176
sg928
I919
sg564
I555
sg313
I304
sg706
I697
sg696
I687
sg153
I144
sg315
I306
sg1322
I1313
sg1256
I1247
sg1280
I1271
sg648
I639
sg1008
I999
sg1567
I1558
sg1694
I1685
sg273
I264
sg1025
I1016
sg389
I380
sg1672
I1663
sg1173
I1164
sg233
I224
sg1674
I1665
sg1479
I1470
sg1765
I1756
sg99
I90
sg1287
I1278
sg346
I337
sg619
I610
sg258
I249
sg653
I644
sg727
I718
sg1725
I1716
sg174
I165
sg925
I916
sg708
I699
sg1519
I1510
sg827
I818
sg1200
I1191
sg960
I951
sg1533
I1524
sg24
I15
sg124
I115
sg620
I611
sg622
I613
sg557
I548
sg1405
I1396
sg1174
I1165
sg348
I339
sg1006
I997
sg338
I329
sg1358
I1349
sg1359
I1350
sg533
I524
sg281
I272
sg1193
I1184
sg1699
I1690
sg213
I204
sg1283
I1274
sg1348
I1339
sg508
I499
sg1378
I1369
sg481
I472
sg1441
I1432
sg1014
I1005
sg30
I21
sg1344
I1335
sg234
I225
sg1657
I1648
sg1345
I1336
sg1574
I1565
sg1152
I1143
sg1376
I1367
sg756
I747
sg866
I857
sg1549
I1540
sg474
I465
sg1114
I1105
sg1470
I1461
sg10
I1
sg69
I60
sg1067
I1058
sg994
I985
sg973
I964
sg911
I902
sg1752
I1743
sg1720
I1711
sg1689
I1680
sg700
I691
sg12
I3
sg1051
I1042
sg1643
I1634
sg1644
I1635
sg755
I746
sg262
I253
sg1485
I1476
sg575
I566
sg1167
I1158
sg1133
I1124
sg598
I589
sg1078
I1069
sg25
I16
sg1431
I1422
sg1651
I1642
sg375
I366
sg134
I125
sg188
I179
sg459
I450
sg500
I491
sg819
I810
sg1298
I1289
sg991
I982
sg177
I168
sg1018
I1009
sg1026
I1017
sg1433
I1424
sg1750
I1741
sg1459
I1450
sg1325
I1316
sg1098
I1089
sg1224
I1215
sg1755
I1746
sg59
I50
sg23
I14
sg1781
I1772
sg456
I447
sg305
I296
sg103
I94
sg209
I200
sg1660
I1651
sg443
I434
sg320
I311
sg787
I778
sg1062
I1053
sg299
I290
sg1306
I1297
sg168
I159
sg1071
I1062
sg1106
I1097
sg51
I42
sg319
I310
sg1257
I1248
sg1407
I1398
sg611
I602
sg285
I276
sg1165
I1156
sg1094
I1085
sg76
I67
sg1343
I1334
sg1342
I1333
sg1270
I1261
sg713
I704
sg1536
I1527
sg1563
I1554
sg97
I88
sg1418
I1409
sg360
I351
sg1761
I1752
sg607
I598
sg916
I907
sg1132
I1123
sg522
I513
sg45
I36
sg200
I191
sg927
I918
sg1762
I1753
sg90
I81
sg302
I293
sg290
I281
sg968
I959
sg1210
I1201
sg139
I130
sg1726
I1717
sg627
I618
sg559
I550
sg610
I601
sg1525
I1516
sg1680
I1671
sg486
I477
sg1700
I1691
sg1561
I1552
sg736
I727
sg163
I154
sg327
I318
sg179
I170
sg612
I603
sg79
I70
sg1429
I1420
sg154
I145
sg558
I549
sg1072
I1063
sg682
I673
sg1276
I1267
sg1269
I1260
sg676
I667
sg1295
I1286
sg961
I952
sg1289
I1280
sg608
I599
sg983
I974
sg921
I912
sg1052
I1043
sg813
I804
sg1389
I1380
sg403
I394
sg865
I856
sg982
I973
sg1136
I1127
sg1220
I1211
sg1023
I1014
sg72
I63
sg1397
I1388
sg871
I862
sg799
I790
sg307
I298
sg1309
I1300
sg1347
I1338
sg986
I977
sg791
I782
sg793
I784
sg1425
I1416
sg472
I463
sg971
I962
sg193
I184
sg880
I871
sg1754
I1745
sg1045
I1036
sg181
I172
sg537
I528
sg688
I679
sg439
I430
sg1081
I1072
sg105
I96
sg560
I551
sg1108
I1099
sg373
I364
sg1336
I1327
sg686
I677
sg765
I756
sg1675
I1666
sg747
I738
sg372
I363
sg54
I45
sg680
I671
sg250
I241
sg112
I103
sg1302
I1293
sg511
I502
sg117
I108
sg1007
I998
sg1331
I1322
sg1432
I1423
sg1196
I1187
sg87
I78
sg1086
I1077
sg1039
I1030
sg334
I325
sg432
I423
sg316
I307
sg47
I38
sg1612
I1603
sg922
I913
sg43
I34
sg409
I400
sg1488
I1479
sg1423
I1414
sg1740
I1731
sg1701
I1692
sg1442
I1433
sg1105
I1096
sg1434
I1425
sg684
I675
sg1579
I1570
sg396
I387
sg201
I192
sg266
I257
sg685
I676
sg1076
I1067
sg119
I110
sg1592
I1583
sg512
I503
sg862
I853
sg794
I785
sg636
I627
sg1445
I1436
sg1293
I1284
sg1366
I1357
sg1634
I1625
sg492
I483
sg116
I107
sg645
I636
sg695
I686
sg1526
I1517
sg1473
I1464
sg430
I421
sg879
I870
sg206
I197
sg764
I755
sg1050
I1041
sg718
I709
sg1676
I1667
sg745
I736
sg613
I604
sg184
I175
sg251
I242
sg235
I226
sg966
I957
sg287
I278
sg1031
I1022
sg964
I955
sg623
I614
sg1420
I1411
sg1447
I1438
sg1346
I1337
sg898
I889
sg1217
I1208
sg658
I649
sg438
I429
sg931
I922
sg39
I30
sg335
I326
sg31
I22
sg104
I95
sg67
I58
sg1373
I1364
sg1542
I1533
sg1507
I1498
sg170
I161
sg1764
I1755
sg426
I417
sg1279
I1270
sg1096
I1087
sg762
I753
sg1497
I1488
sg1758
I1749
sg792
I783
sg975
I966
sg779
I770
sg621
I612
sg1355
I1346
sg1607
I1598
sg220
I211
sg949
I940
sg502
I493
sg1125
I1116
sg1312
I1303
sg1654
I1645
sg1351
I1342
sg1569
I1560
sg1118
I1109
sg1092
I1083
sg1130
I1121
sg1410
I1401
sg1350
I1341
sg1134
I1125
sg847
I838
sg618
I609
sg1074
I1065
sg1135
I1126
sg1466
I1457
sg939
I930
sg920
I911
sg634
I625
sg1273
I1264
sg1662
I1653
sg1371
I1362
sg1304
I1295
sg1631
I1622
sg1537
I1528
sg1440
I1431
sg465
I456
sg1681
I1672
sg748
I739
sg1685
I1676
sg110
I101
sg587
I578
sg811
I802
sg722
I713
sg203
I194
sg1141
I1132
sg1711
I1702
sg1586
I1577
sg1514
I1505
sg70
I61
sg458
I449
sg924
I915
sg632
I623
sg1328
I1319
sg100
I91
sg489
I480
sg668
I659
sg1113
I1104
sg1773
I1764
sg1743
I1734
sg1619
I1610
sg963
I954
sg1009
I1000
sg331
I322
sg127
I118
sg505
I496
sg1087
I1078
sg1387
I1378
sg796
I787
sg1080
I1071
sg1138
I1129
sg1321
I1312
sg591
I582
sg1409
I1400
sg1178
I1169
sg998
I989
sg1401
I1392
sg1037
I1028
sg980
I971
sg774
I765
sg965
I956
sg434
I425
sg786
I777
sg803
I794
sg247
I238
sg1710
I1701
sg664
I655
sg528
I519
sg712
I703
sg599
I590
sg1467
I1458
sg904
I895
sg113
I104
sg254
I245
sg205
I196
sg1038
I1029
sg1547
I1538
sg365
I356
sg693
I684
sg1468
I1459
sg1753
I1744
sg754
I745
sg725
I716
sg351
I342
sg166
I157
sg392
I383
sg1772
I1763
sg631
I622
sg919
I910
sg1274
I1265
sg1560
I1551
sg1275
I1266
sg905
I896
sg1747
I1738
sg662
I653
sg248
I239
sg15
I6
sg526
I517
sg1426
I1417
sg238
I229
sg17
I8
sg485
I476
sg207
I198
sg1089
I1080
sg970
I961
sg275
I266
sg1667
I1658
sg1703
I1694
sg41
I32
sg146
I137
sg280
I271
sg1368
I1359
sg1069
I1060
sg1369
I1360
sg590
I581
sg497
I488
sg649
I640
sg1493
I1484
sg1047
I1038
sg868
I859
sg419
I410
sg806
I797
sg1653
I1644
sg1502
I1493
sg646
I637
sg1665
I1656
sg1780
I1771
sg272
I263
sg1614
I1605
sg1575
I1566
sg1458
I1449
sg1768
I1759
sg44
I35
sg678
I669
sg549
I540
sg294
I285
sg494
I485
sg908
I899
sg295
I286
sg1744
I1735
sg570
I561
sg775
I766
sg1705
I1696
sg711
I702
sg63
I54
sg974
I965
sg955
I946
sg1297
I1288
sg761
I752
sg1285
I1276
sg903
I894
sg260
I251
sg1124
I1115
sg1019
I1010
sg167
I158
sg172
I163
sg1540
I1531
sg910
I901
sg821
I812
sg1544
I1535
sg1691
I1682
sg981
I972
sg1194
I1185
sg605
I596
sg450
I441
sg604
I595
sg1500
I1491
sg1290
I1281
sg230
I221
sg666
I657
sg551
I542
sg540
I531
sg1232
I1223
sg1228
I1219
sg1227
I1218
sg1093
I1084
sg352
I343
sg751
I742
sg370
I361
sg199
I190
sg582
I573
sg577
I568
sg296
I287
sg187
I178
sg628
I619
sg1123
I1114
sg837
I828
sg314
I305
sg1246
I1237
sg932
I923
sg1182
I1173
sg669
I660
sg1259
I1250
sg579
I570
sg935
I926
sg161
I152
sg1706
I1697
sg160
I151
sg402
I393
sg289
I280
sg366
I357
sg1231
I1222
sg156
I147
sg677
I668
sg1594
I1585
sg1016
I1007
sg1197
I1188
sg122
I113
sg501
I492
sg951
I942
sg1195
I1186
sg176
I167
sg1637
I1628
sg816
I807
sg337
I328
sg155
I146
sg566
I557
sg58
I49
sg833
I824
sg967
I958
sg567
I558
sg870
I861
sg74
I65
sg162
I153
sg197
I188
sg1712
I1703
sg1585
I1576
sg81
I72
sg215
I206
sg1395
I1386
sg1610
I1601
sg542
I533
sg1386
I1377
sg1329
I1320
sg719
I710
sg28
I19
sg909
I900
sg62
I53
sg683
I674
sg849
I840
sg906
I897
sg907
I898
sg902
I893
sg408
I399
sg901
I892
sg388
I379
sg471
I462
sg231
I222
sg1548
I1539
sg198
I189
sg773
I764
sg89
I80
sg1439
I1430
sg1394
I1385
sg913
I904
sg1268
I1259
sg789
I780
sg1040
I1031
sg422
I413
sg944
I935
sg937
I928
sg42
I33
ssS'separator'
p1792
S'='
sS'sparse'
p1793
I01
sb.