ccopy_reg
_reconstructor
p1
(csklearn.feature_extraction.dict_vectorizer
DictVectorizer
p2
c__builtin__
object
p3
NtRp4
(dp5
S'vocabulary_'
p6
(dp7
S'conj=vacation'
p8
I445
sS'w+2=Hopkins'
p9
I2010
sS'w-2=Cross'
p10
I3095
sS'w-1=failure'
p11
I2817
sS'advmod=more'
p12
I195
sS'w-2=Musharraf'
p13
I3161
sS'dobj=Dobley'
p14
I565
sS'w-2=anymore'
p15
I3245
sS'w-1=quickly'
p16
I2931
sS'det=no'
p17
I531
sS'advmod=certainly'
p18
I157
sS'w-2=cargo'
p19
I3288
sS'w+2=few'
p20
I2221
sS'w-2=Muslims'
p21
I3162
sS'dobj=border'
p22
I684
sS'dobj=orphanage'
p23
I829
sS'dobj=cave'
p24
I695
sS'dobj=percent'
p25
I844
sS'w+1=Nouadhibou'
p26
I1661
sS'advcl=return'
p27
I112
sS'nsubj=Mugabe'
p28
I1067
sS'w-2=Friday'
p29
I3109
sS'w+2=my'
p30
I2358
sS'nsubj=violence'
p31
I1359
sS'w-2=russian'
p32
I3643
sS'w-2=W.'
p33
I3202
sS'nsubjpass=that'
p34
I1429
sS'w+1=Goma'
p35
I1616
sS'w+2=but'
p36
I2132
sS'w+2=civilian'
p37
I2152
sS'w+2=buy'
p38
I2133
sS'w-2=Gates'
p39
I3112
sS'nsubj=team'
p40
I1335
sS'dobj=water'
p41
I941
sS'w+2=international'
p42
I2291
sS"w-1='ll"
p43
I2612
sS'conj=let'
p44
I399
sS'w-2=.'
p45
I3036
sS'w-2=police'
p46
I3579
sS'w-1=diplomat'
p47
I2802
sS'w-2=insurgent'
p48
I3466
sS'advmod=while'
p49
I248
sS'nsubj=Biden'
p50
I996
sS'w-2=leader'
p51
I3485
sS'w+1=60,000'
p52
I1568
sS'conj=drink'
p53
I378
sS'w-2=need'
p54
I3530
sS'nsubj=Israelis'
p55
I1036
sS'w-2=just'
p56
I3479
sS'w+2=Perino'
p57
I2044
sS'w-1=Protocol'
p58
I2697
sS'w-1=like'
p59
I2869
sS'dobj=score'
p60
I889
sS'nsubj=rebel'
p61
I1295
sS'w+2=wealthy'
p62
I2583
sS'w-2=error'
p63
I3379
sS'advcl=remain'
p64
I107
sS'w-2=Mugabe'
p65
I3158
sS'w-2=israeli'
p66
I3474
sS'advcl=meet'
p67
I89
sS'xcomp=travel'
p68
I3933
sS'w+2=confuse'
p69
I2165
sS'w-2=telephone'
p70
I3713
sS'w-2=presidency'
p71
I3594
sS'w+2=beat'
p72
I2113
sS'dobj=Side'
p73
I633
sS'w-1=civilian'
p74
I2777
sS'xcomp=increase'
p75
I3870
sS'nsubj=Zimbabweans'
p76
I1110
sS'w-2=Sayyaf'
p77
I3180
sS'w-1=Annan'
p78
I2628
sS'advmod=behind'
p79
I152
sS'acomp=untreated'
p80
I23
sS'w-2=Vladimir'
p81
I3201
sS'nsubj=Abbas'
p82
I981
sS'ccomp=feel'
p83
I309
sS'prep=upon'
p84
I1508
sS'w+2=several'
p85
I2479
sS'w-2=Zdravko'
p86
I3208
sS'w-2=way'
p87
I3768
sS'advmod=better'
p88
I154
sS'w-1=will'
p89
I3016
sS'w-1=journalist'
p90
I2860
sS'w-1=Iraq'
p91
I2663
sS'w-2=outside'
p92
I3561
sS'w-2=Caracas'
p93
I3088
sS'w+1=Darfur'
p94
I1597
sS'w+2=its'
p95
I2296
sS'nsubj=number'
p96
I1259
sS'w-2=people'
p97
I3573
sS'conj=lead'
p98
I397
sS'w+2=pan'
p99
I2399
sS'nsubj=nature'
p100
I1254
sS'xcomp=reluctant'
p101
I3906
sS'w+1=unexplored'
p102
I1906
sS'nsubjpass=flyer'
p103
I1397
sS'nsubj=delegate'
p104
I1177
sS'nsubjpass=class'
p105
I1388
sS'w-1=Hitimana'
p106
I2656
sS'acomp=idle'
p107
I7
sS'w+2=run'
p108
I2459
sS'nsubj=Bhutto'
p109
I995
sS'w-2=thousand'
p110
I3730
sS'w-2=stand'
p111
I3684
sS'w+1=she'
p112
I1866
sS'w-2=time'
p113
I3733
sS'w-2=fire'
p114
I3405
sS'w-2=before'
p115
I3263
sS'advmod=mostly'
p116
I197
sS'w-2=poor'
p117
I3584
sS'nsubj=delegation'
p118
I1178
sS'w-2=who'
p119
I3778
sS'w+2=Italy'
p120
I2017
sS'w+1=of'
p121
I1821
sS'w-2=2003'
p122
I3047
sS'w-2=2002'
p123
I3046
sS'w-1=state'
p124
I2967
sS'w+1=dead'
p125
I1739
sS'w+1=Cambodia'
p126
I1589
sS'prt=open'
p127
I1516
sS'w+1=on'
p128
I1824
sS'w+2=Darfur'
p129
I1996
sS'w-2=infrastructure'
p130
I3461
sS'w+2=last'
p131
I2305
sS'w-2=hostage'
p132
I3447
sS'w+2=fester'
p133
I2220
sS'w-2=vacuum'
p134
I3756
sS'w+2=memory'
p135
I2341
sS'advcl=siding'
p136
I118
sS'w+1=or'
p137
I1830
sS'w-2=question'
p138
I3612
sS'w-1=pollution'
p139
I2923
sS'w-2=seat'
p140
I3651
sS'ccomp=say'
p141
I334
sS'w+1=October'
p142
I1663
sS'w-1=fossil'
p143
I2833
sS'dobj=girlfriend'
p144
I752
sS'w-2=active'
p145
I3217
sS'dobj=Britain'
p146
I548
sS'w-2=all'
p147
I3232
sS'w-2=only'
p148
I3552
sS'conj=relocate'
p149
I422
sS'w-1=could'
p150
I2787
sS'w-2=Mike'
p151
I3152
sS'xcomp=state'
p152
I3924
sS'w-1=counterattack'
p153
I2788
sS'w-2=on'
p154
I3548
sS'w+2=you'
p155
I2608
sS'prep=around'
p156
I1476
sS'w+2=13,000'
p157
I1947
sS'xcomp=unrepresented'
p158
I3940
sS'w-1=Saturday'
p159
I2707
sS'nsubj=ideology'
p160
I1218
sS'w+1=part'
p161
I1835
sS'w-1=Hersi'
p162
I2653
sS'w-1=you'
p163
I3027
sS'w-1=certainly'
p164
I2774
sS'xcomp=fight'
p165
I3851
sS'nsubjpass=percent'
p166
I1418
sS'nsubj=race'
p167
I1290
sS'advcl=be'
p168
I30
sS'w-1=hundred'
p169
I2848
sS'dobj=Americans'
p170
I540
sS'w-2=that'
p171
I3720
sS'w+1=the'
p172
I1885
sS'w+2=-rrb-'
p173
I1941
sS'w+1=Mosul'
p174
I1652
sS'w-2=Luos'
p175
I3142
sS'w+2=disappointed'
p176
I2187
sS'w-2=week'
p177
I3770
sS'w+1=struggle'
p178
I1880
sS'w+2=soldier'
p179
I2497
sS'w-2=anesthetic'
p180
I3240
sS'w+2=?'
p181
I1968
sS'w+1=private'
p182
I1845
sS'acomp=dead'
p183
I2
sS'w-1=vacation'
p184
I2996
sS'nsubj=week'
p185
I1364
sS'w-2=investigator'
p186
I3471
sS'w-1=get'
p187
I2837
sS'w+1=problem'
p188
I1846
sS'w-1=Putin'
p189
I2698
sS'w-2=citizen'
p190
I3294
sS'nsubj=flower'
p191
I1200
sS'nsubj=Roh'
p192
I1087
sS'w+1=Africa'
p193
I1575
sS'w-2=unrest'
p194
I3753
sS'nsubj=ratification'
p195
I1293
sS'w-2=ready'
p196
I3617
sS'nsubj=Ibrahim'
p197
I1032
sS'w+2=further'
p198
I2238
sS'w-2=disappear'
p199
I3355
sS'w-2=journalist'
p200
I3477
sS'xcomp=earn'
p201
I3842
sS'w+2=future'
p202
I2239
sS'nsubj=teacher'
p203
I1334
sS'w-2=petraus-crocker'
p204
I3575
sS'advmod=effectively'
p205
I164
sS'w+1=dangle'
p206
I1738
sS'nsubj=rainfall'
p207
I1292
sS'w-1=evidence'
p208
I2811
sS'xcomp=establish'
p209
I3848
sS'w+2=Lower'
p210
I2031
sS'w+2=palace'
p211
I2397
sS'nsubj=Democrat'
p212
I1012
sS'w+1=around'
p213
I1715
sS'w-2=order'
p214
I3556
sS'w-2=she'
p215
I3662
sS'dobj=work'
p216
I947
sS'conj=expect'
p217
I384
sS'w+2=already'
p218
I2087
sS'w-2=whatever'
p219
I3772
sS'w-1=man'
p220
I2874
sS'w-2=empower'
p221
I3372
sS'w-2=Mumbai'
p222
I3159
sS'xcomp=police'
p223
I3895
sS'conj=erode'
p224
I383
sS'w-1=mother'
p225
I2891
sS'w+2=picture'
p226
I2408
sS'nsubj=member'
p227
I1244
sS'ccomp=face'
p228
I306
sS'w-2=million'
p229
I3512
sS'w-1=should'
p230
I2954
sS'nsubj=that'
p231
I1341
sS'w-2=governor'
p232
I3428
sS'w+2=campaigning'
p233
I2140
sS'advmod=here'
p234
I177
sS'w+2=troubled'
p235
I2553
sS'purpcl=train'
p236
I1522
sS'dep=accompany'
p237
I467
sS'w+2=camp'
p238
I2138
sS'w-2=address'
p239
I3219
sS'w-2=prestige'
p240
I3597
sS'parataxis=be'
p241
I1444
sS'w-1=continent'
p242
I2785
sS'xcomp=guess'
p243
I3860
sS'w-2=Ethiopians'
p244
I3106
sS'nsubj=group'
p245
I1208
sS'w+1=hoof'
p246
I1782
sS'w+2=wonder'
p247
I2601
sS'conj=be'
p248
I363
sS'dobj=resident'
p249
I875
sS'nsubj=Gonzales'
p250
I1022
sS'dobj=Senegal'
p251
I631
sS'w-1=approve'
p252
I2748
sS'dobj=pancreas'
p253
I835
sS'nsubjpass=letter'
p254
I1408
sS'dep=home'
p255
I492
sS'nsubjpass=violence'
p256
I1434
sS'prep=like'
p257
I1493
sS'w-1=uranium'
p258
I2994
sS'w+1=200'
p259
I1556
sS'w-2=200,000'
p260
I3045
sS'w+2=likely'
p261
I2315
sS'dobj=livelihood'
p262
I794
sS'w-1=prosperity'
p263
I2930
sS'advmod=where'
p264
I247
sS'w-2=theopposition'
p265
I3723
sS'w+2=space'
p266
I2504
sS'nsubj=Army'
p267
I993
sS'w-2=agree'
p268
I3228
sS'mark=next'
p269
I966
sS'w+2=unless'
p270
I2560
sS'w+1=debris'
p271
I1740
sS'w+2=call'
p272
I2136
sS'w+1=10,000'
p273
I1543
sS'nsubj=war'
p274
I1362
sS'w-2=policy'
p275
I3580
sS'w-2=colonial'
p276
I3301
sS'w-2=protester'
p277
I3609
sS'w-1=outage'
p278
I2908
sS'prep=out'
p279
I1498
sS'w+2=traffic-jammed'
p280
I2549
sS'nsubj=youth'
p281
I1372
sS'nsubj=rating'
p282
I1294
sS'ccomp=become'
p283
I283
sS'w+2=30'
p284
I1962
sS'w-2=community'
p285
I3305
sS'dobj=detention'
p286
I725
sS'dobj=mission'
p287
I809
sS'w+2=apartment'
p288
I2094
sS'dobj=Mass'
p289
I602
sS'dobj=artery'
p290
I671
sS'nsubj=killing'
p291
I1230
sS'w+2=sea'
p292
I2470
sS'nsubj=ton'
p293
I1348
sS'w+1=both'
p294
I1725
sS'w+2=Sudan'
p295
I2060
sS'w+2=nation'
p296
I2360
sS'ccomp=prevent'
p297
I328
sS'w+2=impressive'
p298
I2284
sS'dobj=North'
p299
I611
sS'w-1=time'
p300
I2985
sS'w-1=to'
p301
I2986
sS'advmod=especially'
p302
I168
sS'w-1=first'
p303
I2829
sS'w-2=de'
p304
I3338
sS'w-2=crowd'
p305
I3333
sS'dobj=exhibit'
p306
I737
sS'w-2=often'
p307
I3545
sS'w-2=withdrawal'
p308
I3786
sS'w-1=visit'
p309
I3001
sS'dobj=#PRP#'
p310
I536
sS'w-1=pest'
p311
I2914
sS'w-2=do'
p312
I3362
sS'dobj=opposition'
p313
I826
sS'advmod=completely'
p314
I158
sS'xcomp=include'
p315
I3868
sS'w+2=war'
p316
I2578
sS'w-1=safely'
p317
I2943
sS'w-1=Williams'
p318
I2726
sS'nsubj=husband'
p319
I1215
sS'w+1=you'
p320
I1933
sS'nsubj=wife'
p321
I1367
sS'w-2=point'
p322
I3578
sS'dobj=shore'
p323
I897
sS'w+1=office'
p324
I1823
sS'w+2=religious'
p325
I2448
sS'nsubj=Musharraf'
p326
I1068
sS'advcl=handle'
p327
I65
sS'w-1=Tolimir'
p328
I2720
sS'parataxis=leave'
p329
I1447
sS'advmod=simply'
p330
I223
sS'w-2=Tuesday'
p331
I3194
sS'nsubj=singer'
p332
I1319
sS'w+1=Saturday'
p333
I1673
sS'w+2=while'
p334
I2593
sS'w+2=Herzegovina'
p335
I2009
sS'w-2=Peshawar'
p336
I3172
sS'w+2=room'
p337
I2457
sS'w-1=colleague'
p338
I2780
sS'w-2=profitable'
p339
I3606
sS'nsubj=canoe'
p340
I1142
sS'nsubj=company'
p341
I1153
sS'w+1=he'
p342
I1776
sS'w-2=two'
p343
I3749
sS'w-2=reconnaissance'
p344
I3622
sS'w-2=scavenging'
p345
I3648
sS'w+2=under'
p346
I2558
sS'xcomp=contend'
p347
I3821
sS'w-2=Abbas'
p348
I3066
sS'w-2=strife'
p349
I3692
sS'nsubj=Kislyak'
p350
I1046
sS'w-2=notice'
p351
I3539
sS'nsubj=Horchler'
p352
I1030
sS'w-1=sibling'
p353
I2956
sS'nsubj=pass'
p354
I1266
sS'dobj=hearing'
p355
I761
sS'w-2=hour'
p356
I3448
sS'w+2=cleric'
p357
I2154
sS'w-2=rights'
p358
I3638
sS'advcl=shoot'
p359
I117
sS'det=some'
p360
I532
sS'w-1=debris'
p361
I2795
sS'w+2=sometime'
p362
I2500
sS'xcomp=move'
p363
I3889
sS'w+2=because'
p364
I2114
sS'dep=wear'
p365
I523
sS'w-1=whites'
p366
I3013
sS'nsubj=homeless'
p367
I1212
sS'acomp=unable'
p368
I13
sS'w-2=religious'
p369
I3628
sS'w-1=more'
p370
I2889
sS'nsubjpass=judge'
p371
I1406
sS'nsubj=north'
p372
I1258
sS'partmod=return'
p373
I1463
sS'w-2=recently'
p374
I3619
sS'w-2=poorest'
p375
I3585
sS'w+2=percent'
p376
I2406
sS'w-1=canoe'
p377
I2772
sS'xcomp=say'
p378
I3913
sS'w-2=suppose'
p379
I3703
sS'w-2=target'
p380
I3709
sS'dobj=Cowboys'
p381
I557
sS'dep=shore'
p382
I511
sS'w+1=Friday'
p383
I1608
sS'w+2=Saturday'
p384
I2053
sS'xcomp=dance'
p385
I3824
sS'w-1=force'
p386
I2832
sS'dep=continue'
p387
I478
sS'xcomp=do'
p388
I3839
sS'w+2=could'
p389
I2168
sS'conj=begin'
p390
I365
sS'conj=pick'
p391
I412
sS'prep=despite'
p392
I1485
sS'w+2=troops'
p393
I2552
sS'advcl=give'
p394
I63
sS'dobj=staffer'
p395
I909
sS'conj=live'
p396
I400
sS'w-2=Yorkers'
p397
I3206
sS'advmod=large'
p398
I185
sS'w+2=territory'
p399
I2527
sS'w+2=profession'
p400
I2431
sS'w-2=Tony'
p401
I3192
sS'w+2=orbiter'
p402
I2387
sS'w+2=notice'
p403
I2373
sS'conj=lose'
p404
I401
sS'w+1=already'
p405
I1708
sS'advmod=abroad'
p406
I135
sS'ccomp=open'
p407
I326
sS'w-2=Jimmy'
p408
I3131
sS'w-1=christian'
p409
I2776
sS'dobj=community'
p410
I710
sS'w-1=Smith'
p411
I2713
sS'w-2=Rove'
p412
I3177
sS'w-2=manage'
p413
I3501
sS'w+1=hard'
p414
I1774
sS'w-2=intend'
p415
I3469
sS'partmod=face'
p416
I1456
sS'w+2=Sunnis'
p417
I2062
sS'nsubj=IMF'
p418
I1031
sS'dobj=region'
p419
I871
sS'w-2=fighting'
p420
I3402
sS'nsubj=president'
p421
I1284
sS'dobj=Huckabee'
p422
I583
sS'nsubj=Korea'
p423
I1047
sS'nsubj=Secretary'
p424
I1095
sS'amod=approve'
p425
I251
sS'w-1=voluntarily'
p426
I3002
sS'w-1=Thinh'
p427
I2718
sS'w-2=nkusus'
p428
I3533
sS'advcl=nine-years-old'
p429
I91
sS'w+2=,'
p430
I1936
sS'w-1=say'
p431
I2945
sS'w-2=ballot'
p432
I3256
sS'nsubj=Abubakar'
p433
I982
sS'w+1=these'
p434
I1889
sS'w+2=head'
p435
I2259
sS'w-2=camp'
p436
I3283
sS'w+2=million'
p437
I2344
sS'advmod=maybe'
p438
I193
sS'w+2=Bubo'
p439
I1985
sS'w-2=abdomen'
p440
I3213
sS'w+2=chamber'
p441
I2147
sS'w+2=running'
p442
I2460
sS'w+2=New'
p443
I2036
sS'xcomp=shop'
p444
I3920
sS'w+2=White'
p445
I2073
sS'w-2=incident'
p446
I3459
sS'w+2=assist'
p447
I2100
sS'w-1=Kraft'
p448
I2672
sS'w-1=senator'
p449
I2949
sS'w-2=up'
p450
I3754
sS'w-2=those'
p451
I3729
sS'dep=question'
p452
I508
sS'w-2=Iraqis'
p453
I3125
sS'w+2=Central'
p454
I1990
sS'advcl=#NUMBER#'
p455
I25
sS'w+2=Israel'
p456
I2016
sS'w+2=Karbala'
p457
I2025
sS'xcomp=bear'
p458
I3809
sS'w+2=public'
p459
I2438
sS'w-2=wife'
p460
I3780
sS'w+1=France'
p461
I1607
sS'advmod=secretly'
p462
I220
sS'dobj=body'
p463
I682
sS'w-2=Kumari'
p464
I3139
sS'w-1=surge'
p465
I2971
sS'w+1=Baghdad'
p466
I1582
sS'w+2=runway'
p467
I2461
sS'xcomp=leave'
p468
I3879
sS'w-2=tradition'
p469
I3739
sS'advcl=isolate'
p470
I75
sS'w-2=destruction'
p471
I3351
sS'conj=feel'
p472
I386
sS'dobj=Mauritania'
p473
I603
sS'nsubj=year'
p474
I1371
sS'partmod=reveal'
p475
I1464
sS'w-2=let'
p476
I3488
sS'w-2=debris'
p477
I3340
sS'advcl=operation'
p478
I95
sS'dep=as'
p479
I469
sS'conj=send'
p480
I429
sS'w+2=french'
p481
I2235
sS'dobj=Nepal'
p482
I609
sS'w+1=lie'
p483
I1803
sS'dobj=legacy'
p484
I790
sS'ccomp=brutal'
p485
I285
sS'w+2=alone'
p486
I2086
sS'w+2=least'
p487
I2310
sS'dobj=college'
p488
I708
sS'w+2=displace'
p489
I2189
sS'dobj=Gaza'
p490
I573
sS'dep=implement'
p491
I494
sS'w-2=raid'
p492
I3614
sS'w-2=prevent'
p493
I3598
sS'w-2=less'
p494
I3487
sS'w+2=slum'
p495
I2494
sS'w+1=Germany'
p496
I1614
sS'w-2=haste'
p497
I3437
sS'dobj=Riyadh'
p498
I626
sS'nsubj=military'
p499
I1246
sS'advmod=far'
p500
I172
sS'ccomp=spell'
p501
I336
sS'w-2=sooner'
p502
I3680
sS'dobj=stuff'
p503
I916
sS'w+1=Nepal'
p504
I1658
sS'w-2=you'
p505
I3794
sS'w-1=never'
p506
I2896
sS'w-2=cabinet'
p507
I3281
sS'w-2=solid'
p508
I3677
sS'w-2=Army'
p509
I3077
sS'w-2=islamic'
p510
I3473
sS'ccomp=disabled'
p511
I298
sS'w+2=money'
p512
I2348
sS'nsubj=work'
p513
I1369
sS'w-2=force'
p514
I3414
sS'w+2=order'
p515
I2388
sS'w-1=effectively'
p516
I2805
sS'nsubjpass=future'
p517
I1398
sS'xcomp=devastate'
p518
I3832
sS'conj=stable'
p519
I434
sS'w+2=person'
p520
I2407
sS'dep=out'
p521
I504
sS'w-1=president'
p522
I2925
sS'w-2=long'
p523
I3497
sS'w+1=show'
p524
I1869
sS'nsubj=Iraqis'
p525
I1035
sS'nsubj=Arbour'
p526
I990
sS'nsubj=John'
p527
I1041
sS'w+2=stuff'
p528
I2520
sS'nsubj=today'
p529
I1347
sS'advmod=usually'
p530
I241
sS'w-2=Karen'
p531
I3134
sS'nsubj=Seger'
p532
I1096
sS'w-2=bomb'
p533
I3269
sS'w-1=cable'
p534
I2768
sS'partmod=head'
p535
I1458
sS'dobj=week'
p536
I943
sS'dep=consider'
p537
I477
sS'xcomp=kill'
p538
I3877
sS'w+1=Ukraine'
p539
I1692
sS'advcl=wash'
p540
I128
sS'w-2=star'
p541
I3685
sS'w+1=thigh'
p542
I1891
sS'xcomp=emerge'
p543
I3843
sS'w-1=begin'
p544
I2755
sS'nsubj=Child'
p545
I1004
sS'nsubj=insurgent'
p546
I1225
sS'w+2=Afghan'
p547
I1970
sS'dobj=Strip'
p548
I637
sS'partmod=hear'
p549
I1459
sS'w+2=Ryan'
p550
I2052
sS'w-2=fighter'
p551
I3401
sS'w+2=college'
p552
I2156
sS'advcl=sour'
p553
I119
sS'w-1=cult'
p554
I2790
sS'dobj=challenge'
p555
I697
sS'ccomp=eager'
p556
I302
sS'w+1=hand'
p557
I1773
sS'w+2=20'
p558
I1955
sS'w-2=al-Sadr'
p559
I3230
sS'advmod=traditionally'
p560
I239
sS'w+2=24'
p561
I1959
sS'w-2=expect'
p562
I3388
sS'mark=while'
p563
I972
sS'w-2=return'
p564
I3636
sS'dep=so'
p565
I513
sS'dobj=daughter'
p566
I719
sS'w+1=ahead'
p567
I1704
sS'w-1=thousand'
p568
I2984
sS'w+2=illegally'
p569
I2281
sS'w+1=Sunday'
p570
I1683
sS'xcomp=meet'
p571
I3886
sS'w-2=with'
p572
I3784
sS'xcomp=some'
p573
I3922
sS'w+1=secretly'
p574
I1858
sS'w+2=Kosovo'
p575
I2027
sS'dobj=runway'
p576
I883
sS'dobj=Crocker'
p577
I558
sS'dobj=place'
p578
I846
sS'nsubj=subside'
p579
I1330
sS'w-2=Kilwa'
p580
I3135
sS'nsubj=agreement'
p581
I1116
sS'w-1=other'
p582
I2907
sS'w-2=area'
p583
I3247
sS'w+1=guess'
p584
I1771
sS'prep=outside'
p585
I1499
sS'w-1=Nargis'
p586
I2687
sS'w+1=scar'
p587
I1855
sS'dobj=Africa'
p588
I538
sS'w+2=once'
p589
I2381
sS'w+2=military'
p590
I2343
sS'w-2=power'
p591
I3589
sS'w-2=still'
p592
I3689
sS'w-2=why'
p593
I3779
sS'w+2=Alfred'
p594
I1972
sS'dobj=cloud'
p595
I705
sS'w-2=Jamous'
p596
I3127
sS'w+2=receive'
p597
I2445
sS'advmod=therefore'
p598
I238
sS'w+2=presidency'
p599
I2425
sS'nsubj=peacekeeper'
p600
I1267
sS'nsubj=body'
p601
I1135
sS'nsubj=family'
p602
I1192
sS'w-2=politician'
p603
I3581
sS'w-2=in'
p604
I3457
sS'w-1=Kislyak'
p605
I2670
sS'dobj=basis'
p606
I676
sS'w-2=124,000'
p607
I3039
sS'w+2=heap'
p608
I2261
sS'dobj=mess'
p609
I806
sS'w-2=it'
p610
I3476
sS'w-2=restless'
p611
I3635
sS'advmod=since'
p612
I224
sS'w+2=contingent'
p613
I2167
sS'w-1=Tommy'
p614
I2721
sS'dobj=homeless'
p615
I769
sS'w-2=al-qaida'
p616
I3231
sS'w-1=States'
p617
I2715
sS'w+1=far'
p618
I1758
sS'w+2=nearly'
p619
I2365
sS'w-2=macedonian'
p620
I3499
sS'w+2=hope'
p621
I2269
sS'advmod=down'
p622
I161
sS'w-2=parliament'
p623
I3566
sS'dobj=continent'
p624
I714
sS'w-2=expert'
p625
I3389
sS'nsubj=woman'
p626
I1368
sS'dobj=Aweys'
p627
I544
sS'nsubj=Truong'
p628
I1105
sS'w-1=administration'
p629
I2730
sS'w+1=legislator'
p630
I1801
sS'w-1=often'
p631
I2901
sS'w+1=party'
p632
I1836
sS'w+1=without'
p633
I1931
sS'dobj=island'
p634
I781
sS'dep=place'
p635
I505
sS'w-2=and'
p636
I3238
sS'w-1=Arafat'
p637
I2629
sS'w-2=diplomat'
p638
I3354
sS'w-2=Nawaz'
p639
I3164
sS'advmod=also'
p640
I142
sS'w-1=brother'
p641
I2765
sS'mark=although'
p642
I958
sS'dobj=icrc'
p643
I776
sS'w-1=room'
p644
I2942
sS'nsubj=son'
p645
I1323
sS'nsubj=home'
p646
I1211
sS'dobj=Iran'
p647
I585
sS'w-2=bandwidth'
p648
I3258
sS'conj=aromatic'
p649
I360
sS'nsubj=time'
p650
I1346
sS'conj=proceed'
p651
I416
sS'dobj=Sunnis'
p652
I639
sS'xcomp=money'
p653
I3888
sS'advmod=why'
p654
I249
sS'w-2=have'
p655
I3438
sS'nsubj=student'
p656
I1329
sS'nsubj=Rove'
p657
I1089
sS'dobj=headquarters'
p658
I760
sS'xcomp=vague'
p659
I3945
sS'ccomp=difficult'
p660
I297
sS'dobj=province'
p661
I865
sS'dobj=staff'
p662
I908
sS'w-1=just'
p663
I2861
sS'w-1=Ali'
p664
I2626
sS'w+2=stable'
p665
I2508
sS'w-1=caravan'
p666
I2773
sS'w-2=what'
p667
I3771
sS'nsubj=Lubanga'
p668
I1055
sS'w+2=student'
p669
I2518
sS'nsubj=place'
p670
I1275
sS'nsubj=law'
p671
I1234
sS'w+2=Spain'
p672
I2059
sS'dobj=Cuba'
p673
I559
sS'w+2=remain'
p674
I2449
sS'w+2=early'
p675
I2201
sS'acomp=vacant'
p676
I24
sS'nsubj=Oxfam'
p677
I1079
sS'nsubj=roadblock'
p678
I1308
sS'w+2=matter'
p679
I2335
sS'nsubj=structure'
p680
I1328
sS'w+1=senior'
p681
I1861
sS'w+1=humanitarian'
p682
I1785
sS'dobj=footprint'
p683
I746
sS'w+1=in'
p684
I1790
sS'w+2=to'
p685
I2540
sS'w+1=it'
p686
I1796
sS'dobj=that'
p687
I923
sS'w+2=identification'
p688
I2278
sS'nsubj=#PRP#'
p689
I980
sS'w+1=about'
p690
I1700
sS'w+2=major'
p691
I2328
sS'w+1=New'
p692
I1659
sS'w+2=little'
p693
I2318
sS'w+1=undecided'
p694
I1903
sS'w-1=child'
p695
I2775
sS'xcomp=disappointed'
p696
I3834
sS'w+1=Ms.'
p697
I1654
sS'xcomp=song'
p698
I3923
sS'xcomp=wait'
p699
I3949
sS'nsubj=outbreak'
p700
I1263
sS'advmod=ahead'
p701
I139
sS'w+2=critical'
p702
I2172
sS'advcl=cause'
p703
I37
sS'w-2=War'
p704
I3204
sS'poss=#PRP#'
p705
I1468
sS'dobj=#NUMBER#'
p706
I535
sS'w-2=go'
p707
I3425
sS'w-1=student'
p708
I2969
sS'w+1=school'
p709
I1856
sS'acomp=unpicked'
p710
I18
sS'w-1=boat'
p711
I2758
sS'w-2=increase'
p712
I3460
sS'w-2=ruling'
p713
I3642
sS'dobj=ward'
p714
I940
sS'w-2=McHenry'
p715
I3148
sS'w+1=memory'
p716
I1808
sS'w+2=icrc'
p717
I2277
sS'w+2=mass'
p718
I2334
sS'w-1=without'
p719
I3019
sS'csubjpass=ostracize'
p720
I460
sS'dobj=City'
p721
I552
sS'w+2=quite'
p722
I2440
sS'w+2=violate'
p723
I2571
sS'w-2=like'
p724
I3491
sS'advcl=do'
p725
I51
sS'w+2=musical'
p726
I2356
sS'dobj=zone'
p727
I949
sS'w-1=material'
p728
I2875
sS'nsubjpass=what'
p729
I1435
sS'dobj=Coast'
p730
I554
sS'w-1=group'
p731
I2840
sS'w+1=enchant'
p732
I1749
sS'w-2=foreign'
p733
I3415
sS'nsubj=Ray'
p734
I1085
sS'w-2=Manouchehr'
p735
I3145
sS'w-2=initial'
p736
I3462
sS'xcomp=buy'
p737
I3815
sS'advmod=illegally'
p738
I181
sS'mark=after'
p739
I957
sS'w+2=militant'
p740
I2342
sS'w+2=unable'
p741
I2557
sS'nsubj=Hitimana'
p742
I1028
sS'nsubjpass=#NUMBER#'
p743
I1373
sS'w+2=140,000'
p744
I1950
sS'advcl=say'
p745
I115
sS'w+1=Katsina'
p746
I1634
sS'w-2=forest'
p747
I3417
sS'nsubj=rivalry'
p748
I1307
sS'w-2=approve'
p749
I3246
sS'w+1=hospital'
p750
I1783
sS'conj=allow'
p751
I358
sS'w+2=democratic'
p752
I2183
sS'conj=come'
p753
I371
sS'w+1=Sderot'
p754
I1675
sS'xcomp=miss'
p755
I3887
sS'w-2=full'
p756
I3421
sS'ccomp=due'
p757
I301
sS'w+1=Yemen'
p758
I1697
sS'w-2=tribe'
p759
I3742
sS'w-2=school'
p760
I3650
sS'advcl=agree'
p761
I28
sS'w-1=eventually'
p762
I2809
sS'w-2=ban'
p763
I3257
sS'w-2=undecided'
p764
I3752
sS'xcomp=bankrupt'
p765
I3808
sS'dobj=Tanzania'
p766
I642
sS'w-2=incentive'
p767
I3458
sS'w-1=Israelites'
p768
I2664
sS'w+2=North'
p769
I2039
sS'nsubj=most'
p770
I1252
sS'w-1=testimony'
p771
I2976
sS'w+2=privileged'
p772
I2428
sS'w-2=shomalus'
p773
I3665
sS'w-2=help'
p774
I3441
sS'dobj=States'
p775
I636
sS'w+1=iranian'
p776
I1793
sS'w+2=side'
p777
I2488
sS'w-2=after'
p778
I3225
sS'w+1=18'
p779
I1554
sS'w+2=footprint'
p780
I2228
sS'xcomp=run'
p781
I3912
sS'nsubj=last'
p782
I1233
sS'w+2=concert'
p783
I2164
sS'w+2=agency'
p784
I2081
sS'dobj=Kellie'
p785
I594
sS'dobj=Madrid'
p786
I599
sS'w-1=flight'
p787
I2830
sS'w+2=out'
p788
I2392
sS'w-2=Egypt'
p789
I3102
sS'w-2=to'
p790
I3734
sS'dep=be'
p791
I471
sS'nsubj=expert'
p792
I1188
sS'w-1=conditional'
p793
I2783
sS'w+1=11'
p794
I1544
sS'w+2=disabled'
p795
I2186
sS'w+1=12'
p796
I1545
sS'w+1=17'
p797
I1552
sS'w-2=destroy'
p798
I3350
sS'advmod=else'
p799
I165
sS'w+2=walk'
p800
I2577
sS'cc=only'
p801
I274
sS'nsubj=score'
p802
I1311
sS'tmod=time'
p803
I1532
sS'w-2=any'
p804
I3243
sS'w+2=comoran'
p805
I2161
sS'dobj=Manila'
p806
I601
sS'w-2=he'
p807
I3439
sS'xcomp=doubtful'
p808
I3840
sS'prep=since'
p809
I1502
sS'w+1=dozen'
p810
I1746
sS'w-2=adultery'
p811
I3220
sS'dobj=bone'
p812
I683
sS'w-1=Soviets'
p813
I2714
sS'w-2=benefit'
p814
I3264
sS'advcl=withdraw'
p815
I130
sS'dobj=Israelis'
p816
I589
sS'w-2=possibility'
p817
I3587
sS'dobj=economy'
p818
I733
sS'w+2=would'
p819
I2605
sS'w-2=Venezuela'
p820
I3200
sS'csubj=extend'
p821
I453
sS'w+1=Dubai'
p822
I1602
sS'w-1=Parazynski'
p823
I2693
sS'w-1=hospital'
p824
I2847
sS'w-1=and'
p825
I2744
sS'w+1=what'
p826
I1924
sS'w+1=neighborhood'
p827
I1815
sS'w+2=Leone'
p828
I2029
sS'nsubj=cut'
p829
I1170
sS'w+2=Information'
p830
I2012
sS'w+1=strand'
p831
I1879
sS'dobj=Katsina'
p832
I593
sS'nsubj=mistake'
p833
I1249
sS'w-1=explosion'
p834
I2815
sS'w+2=10'
p835
I1945
sS'w-2=illness'
p836
I3456
sS'w-2=350'
p837
I3058
sS'nsubj=solution'
p838
I1321
sS'dobj=Opal'
p839
I616
sS'w+2=shock'
p840
I2483
sS'w-2=one'
p841
I3550
sS'conj=scatter'
p842
I427
sS'w-2=Besharin'
p843
I3081
sS'w+2=eating'
p844
I2203
sS'advmod=soon'
p845
I229
sS'w-2=teacher'
p846
I3710
sS'w+1=industry'
p847
I1791
sS'advcl=decide'
p848
I45
sS'w-2=March'
p849
I3146
sS'dobj=apartment'
p850
I666
sS'dobj=belongings'
p851
I679
sS'w-2=other'
p852
I3557
sS'w+2=blockade'
p853
I2123
sS'w-2=mood'
p854
I3520
sS'w-2=disarmament'
p855
I3356
sS'aux=should'
p856
I265
sS'nsubj=Montano'
p857
I1065
sS'w-1=departure'
p858
I2798
sS'conj=remain'
p859
I423
sS'w+2=property'
p860
I2436
sS'w+2=government'
p861
I2248
sS'w-1=then'
p862
I2979
sS'w+2=taxi'
p863
I2524
sS'ccomp=weaken'
p864
I351
sS'dobj=Lebanon'
p865
I596
sS'w-2=executive'
p866
I3387
sS'w-2=enough'
p867
I3374
sS'w-1=they'
p868
I2980
sS'w+1=Georgia'
p869
I1613
sS'xcomp=help'
p870
I3863
sS'w-1=Ibrahim'
p871
I2660
sS'mark=once'
p872
I967
sS'w-1=best'
p873
I2756
sS'w+2=officially'
p874
I2379
sS'w-1=savings'
p875
I2944
sS'dobj=trail'
p876
I930
sS'w-1=-lrb-'
p877
I2616
sS'w-2=yet'
p878
I3793
sS'dobj=stage'
p879
I910
sS'w+2=trace'
p880
I2547
sS'w-2=assassinate'
p881
I3251
sS'w-1=little'
p882
I2872
sS'dobj=symptom'
p883
I918
sS'w-2=desperate'
p884
I3349
sS'nsubj=Mottaki'
p885
I1066
sS'w+1=Monday'
p886
I1651
sS'w+2=homeland'
p887
I2267
sS'nsubj=Arabs'
p888
I988
sS'w-2=3,200'
p889
I3054
sS'advmod=entirely'
p890
I167
sS'w+1=Doc'
p891
I1601
sS'xcomp=shake'
p892
I3919
sS'dobj=politically'
p893
I851
sS'w-2=issue'
p894
I3475
sS'dobj=lifestyle'
p895
I793
sS'prep=after'
p896
I1472
sS'nsubj=Molli'
p897
I1064
sS'nsubj=civilian'
p898
I1148
sS'w+2=maritime'
p899
I2331
sS'w+2=strategically'
p900
I2516
sS'dobj=Chad'
p901
I551
sS'w-2=Judy'
p902
I3133
sS'nsubj=camp'
p903
I1141
sS'xcomp=fallow'
p904
I3850
sS'w+1=deep'
p905
I1741
sS'dep=mark'
p906
I501
sS'nsubj=death'
p907
I1174
sS'advcl=listen'
p908
I83
sS'prep=against'
p909
I1473
sS'nsubj=conference'
p910
I1155
sS'dobj=battlefield'
p911
I677
sS'purpcl=speak'
p912
I1521
sS'advcl=able'
p913
I26
sS'w+2=well-stocked'
p914
I2586
sS'w-1=shuttle'
p915
I2955
sS'w+1=prematurely'
p916
I1843
sS'w+2=process'
p917
I2429
sS'dobj=police'
p918
I849
sS'advmod=before'
p919
I151
sS'nsubj=fossil'
p920
I1202
sS'w+2=electrical'
p921
I2205
sS'w-1=Holbrooke'
p922
I2657
sS'nsubjpass=Malawi'
p923
I1377
sS'xcomp=talk'
p924
I3929
sS'advmod=but'
p925
I156
sS'w-1=line'
p926
I2871
sS'w-2=civil'
p927
I3297
sS'w-1=Moi'
p928
I2680
sS'w-2=Illinois'
p929
I3123
sS'w+1=public'
p930
I1847
sS'nsubjpass=home'
p931
I1401
sS'w+2=other'
p932
I2391
sS'nsubj=person'
p933
I1270
sS'w+2=circumstance'
p934
I2150
sS'w+2=Caribbean'
p935
I1989
sS'w+2=East'
p936
I1998
sS'conj=appear'
p937
I359
sS'w+2=get'
p938
I2244
sS'w+1=before'
p939
I1720
sS'w-2=should'
p940
I3668
sS'w+2=town'
p941
I2546
sS'ccomp=describe'
p942
I295
sS'w+2=staffer'
p943
I2510
sS'advcl=point'
p944
I100
sS'advcl=expect'
p945
I56
sS'w-1=election'
p946
I2807
sS'w+2=5,000'
p947
I1964
sS'dobj=palace'
p948
I834
sS'w-2=car'
p949
I3287
sS'w+2=somali'
p950
I2498
sS'w+1=Camp'
p951
I1590
sS'w+1=out'
p952
I1833
sS'w-2=far'
p953
I3394
sS'dobj=party'
p954
I839
sS'xcomp=dangle'
p955
I3825
sS'w-2=can'
p956
I3284
sS'nsubj=mint'
p957
I1248
sS'dobj=camp'
p958
I689
sS'neg=not'
p959
I975
sS'xcomp=articulate'
p960
I3805
sS'w+1=Obasanjo'
p961
I1662
sS'xcomp=nip'
p962
I3892
sS'nsubj=implementation'
p963
I1219
sS'w+2=campaign'
p964
I2139
sS'nsubjpass=youth'
p965
I1440
sS'w+1=idle'
p966
I1787
sS'w+1=Mr.'
p967
I1653
sS'w+2=Americans'
p968
I1974
sS'w-1=Blair'
p969
I2635
sS'dobj=child'
p970
I701
sS'w+2=race'
p971
I2441
sS'w+1=early'
p972
I1748
sS'w-2=Chirac'
p973
I3092
sS'conj=bode'
p974
I367
sS'w+1=hundred'
p975
I1786
sS'w+2=especially'
p976
I2210
sS'w-2=cut'
p977
I3335
sS'w-2=note'
p978
I3538
sS'dobj=property'
p979
I864
sS'w-2=than'
p980
I3719
sS'w+2=business'
p981
I2131
sS'dobj=gap'
p982
I751
sS'w-2=for'
p983
I3413
sS'conj=deny'
p984
I375
sS'w+1=power'
p985
I1842
sS'xcomp=wide-open'
p986
I3951
sS'dep=whether'
p987
I524
sS'dobj=Tehran'
p988
I643
sS'conj=focus'
p989
I388
sS'dobj=project'
p990
I863
sS'advmod=then'
p991
I235
sS'w+2=armed'
p992
I2097
sS'w-2=billion'
p993
I3265
sS'w+2=April'
p994
I1975
sS'w+1=Syria'
p995
I1685
sS'w-1=player'
p996
I2920
sS'w+1=rot'
p997
I1851
sS'w-1=ideology'
p998
I2850
sS"w-2='ll"
p999
I3031
sS'w-2=vote'
p1000
I3764
sS'w-2=we'
p1001
I3769
sS'w-1=Comey'
p1002
I2641
sS'w-1=migrant'
p1003
I2880
sS'dobj=organization'
p1004
I828
sS'w-2=spook'
p1005
I3682
sS'w-2=stop'
p1006
I3690
sS'w-2=recession'
p1007
I3620
sS'conj=on'
p1008
I410
sS'w+2=York'
p1009
I2074
sS'w+2=between'
p1010
I2118
sS'xcomp=know'
p1011
I3878
sS'w+2=next'
p1012
I2367
sS'w+2=from'
p1013
I2236
sS'nsubj=Hicks'
p1014
I1026
sS'advmod=amazingly'
p1015
I145
sS'dobj=David'
p1016
I561
sS'w-1=fight'
p1017
I2826
sS'w+1=blank'
p1018
I1723
sS'dobj=record'
p1019
I869
sS'w+1=until'
p1020
I1913
sS'w-2=surge'
p1021
I3704
sS'w+1=Liberia'
p1022
I1640
sS'w-2=supplies'
p1023
I3701
sS'w-2=engine'
p1024
I3373
sS'nsubj=Khartoum'
p1025
I1045
sS'nsubj=attack'
p1026
I1129
sS'prep=among'
p1027
I1475
sS'w-2=suitcase'
p1028
I3699
sS'dobj=Nigeria'
p1029
I610
sS'w+2=south'
p1030
I2502
sS'w-2=since'
p1031
I3672
sS'ccomp=return'
p1032
I332
sS'dep=child'
p1033
I475
sS'nsubj=many'
p1034
I1242
sS'w+2=mark'
p1035
I2332
sS'w+1=that'
p1036
I1884
sS'partmod=say'
p1037
I1465
sS'conj=trap'
p1038
I439
sS'xcomp=seek'
p1039
I3916
sS'dobj=post'
p1040
I855
sS'ccomp=know'
p1041
I317
sS'ccomp=throw'
p1042
I344
sS'w-2=while'
p1043
I3777
sS'w+2=specifics'
p1044
I2505
sS'w+2=base'
p1045
I2108
sS'w+2=declaration'
p1046
I2179
sS'dobj=study'
p1047
I915
sS'acomp=undecided'
p1048
I16
sS'w+1=Russia'
p1049
I1672
sS'w+2=vulnerable'
p1050
I2575
sS'w+2=level'
p1051
I2313
sS'w-2=young'
p1052
I3795
sS'w-2=reason'
p1053
I3618
sS'w-2=enriched'
p1054
I3375
sS'advmod=so'
p1055
I226
sS'w+1=27'
p1056
I1561
sS'w+2=peace'
p1057
I2403
sS'w+1=21'
p1058
I1557
sS'dep=free'
p1059
I487
sS'advmod=just'
p1060
I184
sS'xcomp=open'
p1061
I3894
sS'w-2=freak'
p1062
I3420
sS'xcomp=empty-handed'
p1063
I3845
sS'w-1=calculation'
p1064
I2769
sS'nsubj=improvement'
p1065
I1220
sS'ccomp=access'
p1066
I277
sS'dobj=Rodriguez'
p1067
I627
sS'w-1=kill'
p1068
I2863
sS'w+1=Sierra'
p1069
I1678
sS'aux=may'
p1070
I262
sS'xcomp=join'
p1071
I3875
sS'w-1=Obama'
p1072
I2689
sS'w+2=stage'
p1073
I2511
sS'w+2=lose'
p1074
I2324
sS'dep=dead'
p1075
I480
sS'nsubj=Congress'
p1076
I1007
sS'w-2=cost'
p1077
I3324
sS'w+2=worry'
p1078
I2604
sS'dobj=Ghana'
p1079
I576
sS'w-2=cooperate'
p1080
I3321
sS'advcl=leave'
p1081
I80
sS'w-1=excuse'
p1082
I2813
sS'nsubj=leader'
p1083
I1236
sS'advcl=come'
p1084
I40
sS'w-2=as'
p1085
I3249
sS'nsubj=Cup'
p1086
I1011
sS'nsubj=inch'
p1087
I1222
sS'w-1=hailstorm'
p1088
I2842
sS'w-1=sick'
p1089
I2957
sS'w+1=just'
p1090
I1798
sS'w-1=60-day'
p1091
I2622
sS'w+2=form'
p1092
I2233
sS'w+2=farm'
p1093
I2218
sS'w+1=sewage-infected'
p1094
I1865
sS'w-2=highway'
p1095
I3443
sS'w-1=Rice'
p1096
I2701
sS'w+1=half'
p1097
I1772
sS'xcomp=unkept'
p1098
I3939
sS'w-2=many'
p1099
I3503
sS'nsubj=Esperanza'
p1100
I1016
sS'nsubj=tourist'
p1101
I1351
sS'w-2=shipyard'
p1102
I3664
sS'w-2=fatal'
p1103
I3395
sS'dep=e'
p1104
I482
sS'w-2=bribe'
p1105
I3275
sS'w-1=have'
p1106
I2844
sS'w-2=Raila'
p1107
I3175
sS'w+2=research'
p1108
I2452
sS'w-2=Senate'
p1109
I3185
sS'w-2=elsewhere'
p1110
I3371
sS'w+2=if'
p1111
I2279
sS'xcomp=sell'
p1112
I3917
sS'w+2=-lrb-'
p1113
I1939
sS'w-2=confrontational'
p1114
I3315
sS'w-2=stalemate'
p1115
I3683
sS'w+2=in'
p1116
I2285
sS'ccomp=talk'
p1117
I341
sS'dobj=CIA'
p1118
I549
sS'w+2=it'
p1119
I2295
sS'w+1=Ambassador'
p1120
I1576
sS'dobj=demonstrator'
p1121
I723
sS'w-2=some'
p1122
I3678
sS'conj=place'
p1123
I413
sS'w+2=Bush'
p1124
I1986
sS'prep=about'
p1125
I1469
sS'aux=can'
p1126
I258
sS'dobj=Hungary'
p1127
I584
sS'nsubjpass=evidence'
p1128
I1392
sS'w-1=Mottaki'
p1129
I2684
sS'w-1=zone'
p1130
I3028
sS'infmod=remain'
p1131
I950
sS'dobj=area'
p1132
I669
sS'advmod=at'
p1133
I148
sS'w-2=valley'
p1134
I3757
sS'dep=see'
p1135
I510
sS'xcomp=issue'
p1136
I3874
sS'dobj=card'
p1137
I693
sS'w+2=force'
p1138
I2230
sS'w-1=government'
p1139
I2838
sS'w+1=government'
p1140
I1770
sS'nsubj=contractor'
p1141
I1159
sS'w+1=within'
p1142
I1930
sS'w-2=problem'
p1143
I3603
sS'dobj=Olmert'
p1144
I614
sS'w+1=cool'
p1145
I1735
sS'acomp=stable'
p1146
I12
sS'w+1=Manhattan'
p1147
I1642
sS'dobj=Beijing'
p1148
I546
sS'w+2=produce'
p1149
I2430
sS'xcomp=judge'
p1150
I3876
sS'advmod=only'
p1151
I209
sS'w+2=skeleton'
p1152
I2493
sS'w-2=May'
p1153
I3147
sS'w+2=immediately'
p1154
I2282
sS'w+1=undo'
p1155
I1905
sS'w-1=nothing'
p1156
I2898
sS'w+2=animal'
p1157
I2090
sS'w-1=Gogh'
p1158
I2651
sS'w-2=vessel'
p1159
I3759
sS'w+2=dozen'
p1160
I2197
sS'w-2=oil'
p1161
I3546
sS'w+1=for'
p1162
I1763
sS'w-1=Americans'
p1163
I2627
sS'nsubj=Rostropovich'
p1164
I1088
sS'dobj=military'
p1165
I808
sS'w-1=activist'
p1166
I2729
sS'dobj=hospital'
p1167
I771
sS'xcomp=report'
p1168
I3909
sS'xcomp=displaced'
p1169
I3837
sS'w+1=Mombasa'
p1170
I1650
sS'advmod=largely'
p1171
I186
sS'w+1=slave-like'
p1172
I1873
sS'prep=to'
p1173
I1505
sS'dobj=program'
p1174
I862
sS'dobj=foursoldier'
p1175
I748
sS'advcl=protect'
p1176
I102
sS'w+2=organization'
p1177
I2389
sS'w-2=statement'
p1178
I3687
sS'nsubj=Kraft'
p1179
I1049
sS'w-2=Zia'
p1180
I3209
sS'w-2=villager'
p1181
I3761
sS'dobj=poverty'
p1182
I856
sS'conj=make'
p1183
I402
sS'w-1=still'
p1184
I2968
sS'advmod=north'
p1185
I202
sS'w-2=gorilla'
p1186
I3426
sS'w+2=even'
p1187
I2213
sS'w-2=censure'
p1188
I3290
sS'dobj=plan'
p1189
I847
sS'w+2=bitter'
p1190
I2121
sS'nsubj=Carter'
p1191
I1001
sS'w+2=profound'
p1192
I2432
sS'w+2=how'
p1193
I2274
sS'dobj=scenario'
p1194
I886
sS'dobj=#DATE#'
p1195
I534
sS'dep=yes'
p1196
I529
sS'nsubj=attempt'
p1197
I1130
sS'w-2=sense'
p1198
I3656
sS'w+2=for'
p1199
I2229
sS'conj=kill'
p1200
I394
sS'w+1=unchecked'
p1201
I1902
sS'dobj=Mai'
p1202
I600
sS'w-1=wreckage'
p1203
I3025
sS'w-2=stroke'
p1204
I3694
sS'ccomp=stick'
p1205
I337
sS'w-2=north'
p1206
I3535
sS'nsubj=Tommy'
p1207
I1103
sS'ccomp=defend'
p1208
I294
sS'advmod=of'
p1209
I204
sS'dobj=Army'
p1210
I541
sS'w+2=father'
p1211
I2219
sS'w+2=miss'
p1212
I2345
sS'dobj=audience'
p1213
I674
sS'nsubj=lot'
p1214
I1239
sS'w-2=Democrat'
p1215
I3098
sS'advmod=temporarily'
p1216
I233
sS'w-2=pdp'
p1217
I3571
sS'nsubj=Tandja'
p1218
I1100
sS'w+2=possibly'
p1219
I2420
sS'w-2=control'
p1220
I3320
sS'w+1=foursoldier'
p1221
I1765
sS'advcl=reject'
p1222
I106
sS'w-2=twenty'
p1223
I3748
sS'w-1=liberal'
p1224
I2868
sS'w-2=seem'
p1225
I3655
sS'dobj=reputation'
p1226
I874
sS'w+1=Fort'
p1227
I1606
sS'dobj=crack'
p1228
I718
sS'w+2=important'
p1229
I2283
sS'w+2=official'
p1230
I2378
sS'w+2=deep'
p1231
I2180
sS'w+2=stimulate'
p1232
I2514
sS'w+2=City'
p1233
I1991
sS'w+2=house'
p1234
I2273
sS'w-2=disgruntled'
p1235
I3357
sS'w-2=establishment'
p1236
I3380
sS'w-2=practice'
p1237
I3590
sS'w-2=almost'
p1238
I3235
sS'w+2=complaint'
p1239
I2163
sS'nsubj=Koreans'
p1240
I1048
sS'w-2=Protestants'
p1241
I3174
sS'iobj=#PRP#'
p1242
I951
sS'nsubj=announcement'
p1243
I1124
sS'dobj=rubbish'
p1244
I881
sS'xcomp=reconstruct'
p1245
I3904
sS'w+1=off'
p1246
I1822
sS'ccomp=hold'
p1247
I315
sS'nsubj=pirate'
p1248
I1274
sS'w-2=14'
p1249
I3040
sS'w-2=15'
p1250
I3041
sS'w-2=12'
p1251
I3038
sS'w-2=court'
p1252
I3327
sS'nsubjpass=expert'
p1253
I1393
sS'xcomp=face'
p1254
I3849
sS'w+2=drove'
p1255
I2198
sS'xcomp=unequipped'
p1256
I3938
sS'w+2=too'
p1257
I2542
sS'w-2=judge'
p1258
I3478
sS'w+2=national'
p1259
I2361
sS'dobj=port'
p1260
I853
sS'det=the'
p1261
I533
sS'w+2=gaping'
p1262
I2242
sS'w+1=very'
p1263
I1919
sS'w-1=wife'
p1264
I3015
sS'dobj=Thaksin'
p1265
I645
sS'w+2=water'
p1266
I2581
sS'w+2=site'
p1267
I2491
sS'w+2=body'
p1268
I2124
sS'dobj=people'
p1269
I843
sS'w+2=Coast'
p1270
I1993
sS'w-2=midwife'
p1271
I3507
sS'w+2=top'
p1272
I2543
sS'xcomp=assist'
p1273
I3806
sS'w+1=behind'
p1274
I1721
sS'rel=in'
p1275
I1523
sS'advmod=and'
p1276
I146
sS'w-1=brick'
p1277
I2763
sS'nn=weekend'
p1278
I977
sS'xcomp=nation'
p1279
I3891
sS'advmod=meanwhile'
p1280
I194
sS'dobj=activity'
p1281
I657
sS'xcomp=much'
p1282
I3890
sS'w-1=2'
p1283
I2621
sS'nsubj=Goldberg'
p1284
I1021
sS'w-2=Jews'
p1285
I3130
sS'nsubjpass=child'
p1286
I1387
sS'w-2=Chad'
p1287
I3089
sS'nsubj=Kufuor'
p1288
I1050
sS'w+2=Jerusalem'
p1289
I2020
sS'w-2=hit'
p1290
I3444
sS'dobj=doubt'
p1291
I729
sS'w-2=short'
p1292
I3666
sS'w-2=withdraw'
p1293
I3785
sS'xcomp=cease'
p1294
I3817
sS'w+2=there'
p1295
I2533
sS'w+2=here'
p1296
I2264
sS'w+1=room'
p1297
I1850
sS'conj=read'
p1298
I420
sS'w-1=pilgrim'
p1299
I2916
sS'w+2=18'
p1300
I1952
sS'w-1=Shah'
p1301
I2711
sS'w+2=candidate'
p1302
I2141
sS'w-1=Matthew'
p1303
I2678
sS'nsubj=soldier'
p1304
I1320
sS'nsubj=political'
p1305
I1280
sS'w+2=month'
p1306
I2349
sS'w+1=shore'
p1307
I1867
sS'w-1=it'
p1308
I2859
sS'w-1=wouldnot'
p1309
I3024
sS'w-2=actually'
p1310
I3218
sS'prep=over'
p1311
I1500
sS'nsubj=Russia'
p1312
I1090
sS'dobj=running'
p1313
I882
sS'nsubj=few'
p1314
I1194
sS'xcomp=accompany'
p1315
I3799
sS'dobj=official'
p1316
I823
sS'w-1=tea'
p1317
I2973
sS'dobj=roof'
p1318
I879
sS'xcomp=forge'
p1319
I3853
sS'dobj=room'
p1320
I880
sS'conj=give'
p1321
I391
sS'csubj=pass'
p1322
I457
sS'w-2=government'
p1323
I3427
sS'advcl=defend'
p1324
I47
sS'w+2=Cowboys'
p1325
I1994
sS'dobj=prison'
p1326
I859
sS'dobj=plenty'
p1327
I848
sS'dobj=Department'
p1328
I563
sS'w+2=ten'
p1329
I2525
sS'w-1=ironically'
p1330
I2857
sS'ccomp=country'
p1331
I291
sS'w-1=water'
p1332
I3005
sS'w+2=airspace'
p1333
I2085
sS'w-2=able'
p1334
I3214
sS'ccomp=be'
p1335
I282
sS'w-2=boat'
p1336
I3267
sS'w+2=heavy'
p1337
I2263
sS'w+1=32'
p1338
I1563
sS'w+1=37'
p1339
I1564
sS'w-2=Tandja'
p1340
I3190
sS'w-1=previously'
p1341
I2926
sS'nsubj=rain'
p1342
I1291
sS'w+2=Act'
p1343
I1969
sS'w+1=Afghanistan'
p1344
I1574
sS'w-1=bomb'
p1345
I2760
sS'w+1=134,000'
p1346
I1548
sS'w+2=own'
p1347
I2394
sS'w+1=could'
p1348
I1737
sS'dobj=wound'
p1349
I948
sS'w-1=minister'
p1350
I2884
sS'xcomp=due'
p1351
I3841
sS'w-2=prudence'
p1352
I3610
sS'w-2=No'
p1353
I3166
sS'dobj=patient'
p1354
I842
sS'w-2=troops'
p1355
I3743
sS'advmod=abruptly'
p1356
I136
sS'nsubj=minister'
p1357
I1247
sS'nsubj=technology'
p1358
I1336
sS'w+2=shortly'
p1359
I2487
sS'advmod=alone'
p1360
I140
sS'advcl=get'
p1361
I62
sS'w+2=130,000'
p1362
I1948
sS'w-2=turn'
p1363
I3747
sS'conj=prevent'
p1364
I415
sS'nsubj=shootout'
p1365
I1314
sS'w-2=bar'
p1366
I3259
sS'w-2=whether'
p1367
I3775
sS'w-1=Jews'
p1368
I2665
sS'w+2=when'
p1369
I2589
sS'w-2=northern'
p1370
I3536
sS'w+1=--'
p1371
I1540
sS'parataxis=say'
p1372
I1449
sS'w+2=accuse'
p1373
I2078
sS'w-1=Korea'
p1374
I2671
sS'w+1=against'
p1375
I1703
sS'w+2=wound'
p1376
I2606
sS'w+2=state'
p1377
I2513
sS'w+1=Cuba'
p1378
I1596
sS'w-2=Billy'
p1379
I3083
sS'w-1=Sazegara'
p1380
I2708
sS'w-2=require'
p1381
I3632
sS'w-1=devil'
p1382
I2801
sS'w+2=pension'
p1383
I2404
sS'ccomp=affect'
p1384
I278
sS'w-1=one'
p1385
I2903
sS'w+1=3,000'
p1386
I1562
sS'dobj=blank'
p1387
I681
sS'w+2=Thaksin'
p1388
I2064
sS'w-2=prone'
p1389
I3608
sS'conj=warn'
p1390
I448
sS'w+2=take'
p1391
I2523
sS'dobj=Hamas'
p1392
I579
sS'dobj=spread'
p1393
I907
sS'w+2=mission'
p1394
I2346
sS'w-1=Habimana'
p1395
I2652
sS'w+2=good'
p1396
I2247
sS'nsubj=Putin'
p1397
I1084
sS'w+2=adulterous'
p1398
I2079
sS'w-2=EU'
p1399
I3101
sS'w+2=Thursday'
p1400
I2065
sS'w+2=say'
p1401
I2464
sS'w-1=announcement'
p1402
I2746
sS'w+1=Swat'
p1403
I1684
sS'w-2=Cheney'
p1404
I3090
sS'nsubj=manager'
p1405
I1241
sS'nsubj=participant'
p1406
I1264
sS'w-2=CARE'
p1407
I3086
sS'w+2=many'
p1408
I2330
sS'w-2=pressure'
p1409
I3596
sS'w-2=company'
p1410
I3307
sS'w-2=may'
p1411
I3505
sS'csubj=famous'
p1412
I454
sS'dobj=chaos'
p1413
I699
sS'w+1=under'
p1414
I1904
sS'w+2=staff'
p1415
I2509
sS'w-2=deal'
p1416
I3339
sS'nsubj=Hersi'
p1417
I1025
sS'w+1=240'
p1418
I1559
sS'w+1=resident'
p1419
I1849
sS'nsubj=bulk'
p1420
I1139
sS'dep=before'
p1421
I472
sS'nsubj=plant'
p1422
I1278
sS'w-2=Dr.'
p1423
I3099
sS'nsubj=none'
p1424
I1257
sS'w-1=better'
p1425
I2757
sS'dobj=lot'
p1426
I795
sS'w-2=42'
p1427
I3059
sS'w+1=Ivory'
p1428
I1631
sS'w-2=strike'
p1429
I3693
sS'nsubj=plane'
p1430
I1277
sS'w-2=professional'
p1431
I3605
sS'w+2=have'
p1432
I2257
sS'w+2=basis'
p1433
I2109
sS'w+2=year'
p1434
I2607
sS'xcomp=old'
p1435
I3893
sS'w-2=firefight'
p1436
I3406
sS'w+2=Arabia'
p1437
I1977
sS'nsubj=calculation'
p1438
I1140
sS'w-2=allow'
p1439
I3234
sS'nsubj=midwife'
p1440
I1245
sS'csubj=announce'
p1441
I452
sS'w-2=manners'
p1442
I3502
sS'xcomp=Jordan'
p1443
I3798
sS'w-2=earth'
p1444
I3366
sS'w-2=Europe'
p1445
I3107
sS'w+2=total'
p1446
I2544
sS'w+2=cave'
p1447
I2145
sS'nsubjpass=woman'
p1448
I1439
sS'w+1=to'
p1449
I1895
sS'nsubj=Lahoud'
p1450
I1053
sS'dobj=Dhaka'
p1451
I564
sS'nsubj=load'
p1452
I1237
sS'w+2=food'
p1453
I2227
sS'w+2=he'
p1454
I2258
sS'w+1=twice'
p1455
I1898
sS'xcomp=hope'
p1456
I3866
sS'advmod=best'
p1457
I153
sS'ccomp=replace'
p1458
I331
sS'w+2=Washington'
p1459
I2071
sS'w-2=bombing'
p1460
I3271
sS'nsubj=fracture'
p1461
I1203
sS'w-2=Aden'
p1462
I3068
sS'ccomp=lose'
p1463
I321
sS'w+2=power'
p1464
I2423
sS'w-2=finish'
p1465
I3404
sS'w+2=unprotected'
p1466
I2561
sS'w-2=displaced'
p1467
I3360
sS'advmod=first'
p1468
I174
sS'w+2=Quneitra'
p1469
I2048
sS'advmod=nearby'
p1470
I200
sS'ccomp=praise'
p1471
I327
sS'w+1=Mass'
p1472
I1644
sS'dobj=jail'
p1473
I782
sS'w+2=cowboy'
p1474
I2171
sS'w+2=band'
p1475
I2104
sS'dobj=Utapao'
p1476
I650
sS'w-2=computer'
p1477
I3309
sS'w+1=Griffith'
p1478
I1618
sS'nsubjpass=whatever'
p1479
I1436
sS'w+2=Riley'
p1480
I2050
sS'ccomp=torture'
p1481
I345
sS'acomp=blank'
p1482
I1
sS'w+2=U.K.'
p1483
I2067
sS'w+1=politician'
p1484
I1840
sS'w-2=live'
p1485
I3495
sS'nsubj=material'
p1486
I1243
sS'w+2=mortgage'
p1487
I2351
sS'w+2=budget'
p1488
I2128
sS'conj=return'
p1489
I424
sS'nsubjpass=UDM'
p1490
I1379
sS'w-1=Beirut'
p1491
I2632
sS'w-2=Obama'
p1492
I3168
sS'w+1=fallow'
p1493
I1757
sS'dobj=guy'
p1494
I756
sS'nsubj=Khalilzad'
p1495
I1044
sS'w-2=work'
p1496
I3789
sS'w+1=Birak'
p1497
I1586
sS'advmod=shortly'
p1498
I222
sS'nsubj=torch'
p1499
I1349
sS'w-2=Areva'
p1500
I3075
sS'w+1=South'
p1501
I1680
sS'w-2=refugee'
p1502
I3625
sS'w+1=Nairobi'
p1503
I1656
sS'xcomp=escape'
p1504
I3847
sS'w+1=Gaza'
p1505
I1611
sS'w-2=prior'
p1506
I3601
sS'w+1=say'
p1507
I1854
sS'w-2=test'
p1508
I3717
sS'dobj=hanging'
p1509
I759
sS'w-2=pollute'
p1510
I3583
sS'w+2=nothing'
p1511
I2372
sS'w+2=happy'
p1512
I2255
sS'conj=plan'
p1513
I414
sS'w+2=those'
p1514
I2536
sS'prt=on'
p1515
I1515
sS'dobj=landmine'
p1516
I787
sS'conj=settle'
p1517
I431
sS'dobj=Palace'
p1518
I619
sS'nsubj=player'
p1519
I1279
sS'tmod=day'
p1520
I1529
sS'w+1=Vietnam'
p1521
I1695
sS'auxpass=get'
p1522
I270
sS'w+2=Army'
p1523
I1978
sS'w-1=gradually'
p1524
I2839
sS'nsubj=personnel'
p1525
I1271
sS'dobj=station'
p1526
I913
sS'w-1=militant'
p1527
I2881
sS'nsubjpass=area'
p1528
I1383
sS'w+1=since'
p1529
I1871
sS'w-2=Zahir'
p1530
I3207
sS'w-1=Horchler'
p1531
I2658
sS'nsubj=vacuum'
p1532
I1357
sS'w+2=lot'
p1533
I2325
sS'advmod=there'
p1534
I236
sS'advcl=kidnap'
p1535
I77
sS'w-1=always'
p1536
I2741
sS'nsubj=total'
p1537
I1350
sS'conj=complain'
p1538
I372
sS'w-1=McCary'
p1539
I2679
sS'dobj=home'
p1540
I767
sS'xcomp=grow'
p1541
I3858
sS'nsubj=sibling'
p1542
I1317
sS'conj=nag'
p1543
I407
sS'w+2=U.N.'
p1544
I2068
sS'w+1=unsolved'
p1545
I1912
sS'w-2=Gori'
p1546
I3118
sS'w-2=christian'
p1547
I3293
sS'dobj=Swat'
p1548
I640
sS'partmod=provide'
p1549
I1462
sS'w-1=torch'
p1550
I2988
sS'w-1=participant'
p1551
I2909
sS'w+2=handwritten'
p1552
I2254
sS'nsubj=Okruashvili'
p1553
I1076
sS'nsubj=Saipov'
p1554
I1091
sS'conj=spark'
p1555
I433
sS'nsubjpass=money'
p1556
I1411
sS'dobj=car'
p1557
I692
sS'w+1=less'
p1558
I1802
sS'w+2=1992'
p1559
I1953
sS'nsubj=decision'
p1560
I1176
sS'w-2=Walter'
p1561
I3203
sS'nsubj=States'
p1562
I1099
sS'w-2=China'
p1563
I3091
sS'advcl=maintain'
p1564
I87
sS'dobj=Herzegovina'
p1565
I581
sS'w+2=building'
p1566
I2130
sS'dobj=office'
p1567
I822
sS'dobj=rally'
p1568
I868
sS'w-2=candidate'
p1569
I3285
sS'parataxis=believe'
p1570
I1445
sS'xcomp=untapped'
p1571
I3941
sS'ccomp=reduce'
p1572
I330
sS'w+2=grieving'
p1573
I2249
sS'dobj=sea'
p1574
I890
sS'w-2=plan'
p1575
I3577
sS'dobj=England'
p1576
I569
sS'w-1=the'
p1577
I2978
sS'conj=urge'
p1578
I443
sS'w+1=rebel-held'
p1579
I1848
sS'w+2=long-term'
p1580
I2322
sS'w-1=Child'
p1581
I2640
sS'w-2=day'
p1582
I3337
sS'dobj=church'
p1583
I703
sS'w+1=organization'
p1584
I1831
sS'conj=put'
p1585
I417
sS'w-2=mosque'
p1586
I3522
sS'w-1=minute'
p1587
I2886
sS'dobj=member'
p1588
I803
sS'w+1=destitute'
p1589
I1742
sS'dobj=Baghdad'
p1590
I545
sS'prep=because'
p1591
I1480
sS'w+2=shortfall'
p1592
I2486
sS'w+1=who'
p1593
I1927
sS'dobj=contingent'
p1594
I715
sS'cc=also'
p1595
I271
sS'w+2=severely'
p1596
I2481
sS'w-2=tourist'
p1597
I3737
sS'nsubjpass=government'
p1598
I1399
sS'partmod=suggest'
p1599
I1466
sS'w-2=Consulo'
p1600
I3093
sS'conj=use'
p1601
I444
sS'w+2=within'
p1602
I2597
sS'w-2=come'
p1603
I3303
sS'w+2=northern'
p1604
I2369
sS'w-2=Sergei'
p1605
I3186
sS'w-1=woman'
p1606
I3020
sS'w+1=Austria'
p1607
I1581
sS'w+2=January'
p1608
I2019
sS'w+2=dance'
p1609
I2174
sS'dobj=hound'
p1610
I773
sS'w-2=allegation'
p1611
I3233
sS'w+2=foreigner'
p1612
I2231
sS'w-2=Emile'
p1613
I3104
sS'csubj=follow'
p1614
I456
sS'w+1=Sudan'
p1615
I1682
sS'w+2=absence'
p1616
I2077
sS'w+1=Congo'
p1617
I1594
sS'w-2=fight'
p1618
I3400
sS'w-2=West'
p1619
I3205
sS'w+2=disillusion'
p1620
I2188
sS'w+1=Pakistan'
p1621
I1666
sS'w+1=Senegal'
p1622
I1676
sS'w-2=educate'
p1623
I3368
sS'nsubj=troops'
p1624
I1355
sS'w+2=naked'
p1625
I2359
sS'w-2=conflict'
p1626
I3313
sS'w-1=Jones'
p1627
I2667
sS'w-1=king'
p1628
I2864
sS'w-1=Kufuor'
p1629
I2673
sS'xcomp=try'
p1630
I3934
sS'w-1=exchange'
p1631
I2812
sS'w-2=concern'
p1632
I3310
sS'dobj=problem'
p1633
I860
sS'w+2=gang'
p1634
I2241
sS'w-2=Palestinians'
p1635
I3170
sS'w+1=Kenya'
p1636
I1636
sS'nsubjpass=who'
p1637
I1438
sS'w-2=delegate'
p1638
I3346
sS'dobj=parent'
p1639
I836
sS'conj=crash'
p1640
I373
sS'w+2=potential'
p1641
I2422
sS'nsubj=Egypt'
p1642
I1014
sS'w-2=dismissal'
p1643
I3358
sS'w+1=camp'
p1644
I1729
sS'w+2=NewDelhi'
p1645
I2037
sS'ccomp=expect'
p1646
I305
sS'w-2=service'
p1647
I3659
sS'dobj=Okinawa'
p1648
I613
sS'nsubj=Sarkozy'
p1649
I1093
sS'prep=include'
p1650
I1492
sS'w+1=here'
p1651
I1777
sS'w-2=producer'
p1652
I3604
sS'nsubjpass=Bajau'
p1653
I1376
sS'dobj=Senate'
p1654
I630
sS'dobj=field'
p1655
I744
sS'dobj=fan'
p1656
I741
sS'ccomp=inappropriate'
p1657
I316
sS'w+2=mainly'
p1658
I2327
sS'dep=get'
p1659
I488
sS'w+2=some'
p1660
I2499
sS'nsubj=official'
p1661
I1260
sS'iobj=patient'
p1662
I954
sS'nsubj=Obama'
p1663
I1074
sS'dobj=ring'
p1664
I877
sS'w+2=belongings'
p1665
I2117
sS'w-1=unit'
p1666
I2993
sS'w-1=Cuba'
p1667
I2645
sS'advmod=early'
p1668
I163
sS'dobj=history'
p1669
I765
sS'w+2=go'
p1670
I2246
sS'w-2=nine'
p1671
I3532
sS'w+1=Kellie'
p1672
I1635
sS'w+2=enforce'
p1673
I2207
sS'dep=undo'
p1674
I521
sS'nsubj=victim'
p1675
I1358
sS'w-2=advance'
p1676
I3221
sS'w+2=lead'
p1677
I2307
sS'w-2=away'
p1678
I3255
sS'dep=withdraw'
p1679
I527
sS'iobj=movement'
p1680
I953
sS'w+2=Jabour'
p1681
I2018
sS'w+1=further'
p1682
I1767
sS'w+2=battlefield'
p1683
I2111
sS'w-1=dependence'
p1684
I2799
sS'advcl=question'
p1685
I103
sS'xcomp=make'
p1686
I3883
sS'w-2=youth'
p1687
I3797
sS'advcl=play'
p1688
I99
sS'w-2=Assembly'
p1689
I3078
sS'dobj=several'
p1690
I895
sS'w-1=half'
p1691
I2843
sS'advcl=plan'
p1692
I98
sS'w+1=250'
p1693
I1560
sS'w-2=american'
p1694
I3237
sS'w+1=alone'
p1695
I1707
sS'dobj=state'
p1696
I912
sS'w-2=hardly'
p1697
I3436
sS'w-2=environment'
p1698
I3377
sS'w-1=war'
p1699
I3004
sS'w+2=policy-making'
p1700
I2413
sS'nsubjpass=part'
p1701
I1415
sS'xcomp=engage'
p1702
I3846
sS'w-2=Gonzales'
p1703
I3117
sS'dobj=Harare'
p1704
I580
sS'dobj=fact'
p1705
I738
sS'w+1=Ghana'
p1706
I1615
sS'w+1=million'
p1707
I1809
sS'w-2=Eve'
p1708
I3108
sS'conj=ask'
p1709
I361
sS'partmod=end'
p1710
I1454
sS'w-2=Russia'
p1711
I3179
sS'w+2=which'
p1712
I2592
sS'w-1=year'
p1713
I3026
sS'dobj=business'
p1714
I687
sS'w+2=Port'
p1715
I2045
sS'w+2=widow'
p1716
I2594
sS'w-1=Sall'
p1717
I2705
sS'w-2=demand'
p1718
I3347
sS'advmod=mainly'
p1719
I192
sS'nsubj=Ethiopians'
p1720
I1018
sS'w-2=prayer'
p1721
I3592
sS'advcl=end'
p1722
I52
sS'ccomp=right'
p1723
I333
sS'w-1=Seger'
p1724
I2709
sS'w+2=bar'
p1725
I2107
sS'nsubj=man'
p1726
I1240
sS'nsubj=resident'
p1727
I1301
sS'nsubj=which'
p1728
I1365
sS'w-1=far'
p1729
I2820
sS'w-1=mistrust'
p1730
I2887
sS'prep=accord'
p1731
I1470
sS'iobj=place'
p1732
I955
sS'conj=take'
p1733
I436
sS'ccomp=valid'
p1734
I348
sS'dep=day'
p1735
I479
sS'dep=come'
p1736
I476
sS'w+1=alive'
p1737
I1705
sS'conj=turn'
p1738
I442
sS'advmod=apparently'
p1739
I147
sS'advmod=recently'
p1740
I217
sS'w-1=fan'
p1741
I2819
sS'w-2=Lyndon'
p1742
I3143
sS'w-2=shortly'
p1743
I3667
sS'w+1=once'
p1744
I1825
sS'ccomp=succeed'
p1745
I339
sS'dep=about'
p1746
I466
sS'w-2=Sderot'
p1747
I3182
sS'dobj=House'
p1748
I582
sS'w+2=less'
p1749
I2312
sS'w-1=pirate'
p1750
I2917
sS'w+2=right'
p1751
I2456
sS'w+2=possibility'
p1752
I2419
sS'dobj=hillside'
p1753
I764
sS'w-2=ex-combatant'
p1754
I3385
sS'w-2=Hamas'
p1755
I3119
sS'dobj=hole'
p1756
I766
sS'nsubj=mistrust'
p1757
I1250
sS'w-1=who'
p1758
I3014
sS'w-1=Rwanda'
p1759
I2703
sS'advcl=enough'
p1760
I53
sS'w+2=up'
p1761
I2565
sS'w+2=agent'
p1762
I2082
sS'dobj=campaign'
p1763
I690
sS'w-1=land'
p1764
I2865
sS'w-1=supporter'
p1765
I2970
sS'w-1=Saipov'
p1766
I2704
sS'w+1=Islam'
p1767
I1629
sS'w+1=Beijing'
p1768
I1583
sS'w-2=law'
p1769
I3483
sS'nsubj=system'
p1770
I1332
sS'xcomp=unanswered'
p1771
I3936
sS'dobj=shelter'
p1772
I896
sS'acomp=unexplored'
p1773
I17
sS'nsubj=id'
p1774
I1217
sS'advcl=fix'
p1775
I59
sS'w+2=later'
p1776
I2306
sS'nsubj=decade'
p1777
I1175
sS'prep=across'
p1778
I1471
sS'w+2=America'
p1779
I1973
sS'w-2=try'
p1780
I3745
sS'xcomp=mean'
p1781
I3884
sS'w+2=hotel'
p1782
I2272
sS'conj=drive'
p1783
I379
sS'w+2=patch'
p1784
I2402
sS'nsubj=Tolimir'
p1785
I1102
sS'dobj=America'
p1786
I539
sS'w+2=Somalia'
p1787
I2056
sS'w+2=safer'
p1788
I2463
sS'dobj=level'
p1789
I792
sS'advmod=previously'
p1790
I213
sS'w+1=more'
p1791
I1811
sS'w-2=instability'
p1792
I3464
sS'w+1=with'
p1793
I1929
sS'nsubj=Nasr'
p1794
I1071
sS'w+2=rest'
p1795
I2455
sS'dobj=house'
p1796
I774
sS'w-2=Zimbabweans'
p1797
I3211
sS'xcomp=go'
p1798
I3857
sS'advmod=outside'
p1799
I211
sS'xcomp=affect'
p1800
I3802
sS'nsubj=professional'
p1801
I1286
sS'w-2=waste'
p1802
I3767
sS'w+2=cameroonian'
p1803
I2137
sS'w-2=35'
p1804
I3057
sS'w-1=arrangement'
p1805
I2749
sS'w-2=,'
p1806
I3033
sS'w-1=Truman'
p1807
I2722
sS'w-1=September'
p1808
I2710
sS'w+2=hospital'
p1809
I2270
sS'w+1=cancel'
p1810
I1730
sS'w-2=occupying'
p1811
I3541
sS'w+2=Iraq'
p1812
I2014
sS"w-2='"
p1813
I3029
sS'dobj=number'
p1814
I821
sS'advmod=south'
p1815
I231
sS'w+1=Galveston'
p1816
I1610
sS'w+1=major'
p1817
I1806
sS'w-2=McKinnel'
p1818
I3149
sS'w+2=Iran'
p1819
I2013
sS'w+2=display'
p1820
I2190
sS'w-2=thing'
p1821
I3726
sS'w-2=rank'
p1822
I3616
sS'nsubj=nkusus'
p1823
I1256
sS'nsubj=diplomat'
p1824
I1182
sS'w+1=Washington'
p1825
I1696
sS'w-2=Smith'
p1826
I3187
sS'advcl=die'
p1827
I50
sS'dobj=Congo'
p1828
I555
sS'dobj=Sderot'
p1829
I629
sS'w-2=dollar'
p1830
I3363
sS'w-2=I'
p1831
I3122
sS'dobj=memory'
p1832
I805
sS'w+2=mediate'
p1833
I2339
sS'w-2=Olmert'
p1834
I3169
sS'w+2=box'
p1835
I2127
sS'w-2=woman'
p1836
I3787
sS'w-1=feel'
p1837
I2822
sS'w-2=decision'
p1838
I3343
sS'w+2=void'
p1839
I2573
sS'w-2=how'
p1840
I3450
sS'w+2=Wednesday'
p1841
I2072
sS'nsubj=basket'
p1842
I1132
sS'advcl=wrangle'
p1843
I131
sS'w+2=dog'
p1844
I2193
sS'iobj=Afghanistan'
p1845
I952
sS'nsubj=Alfie'
p1846
I984
sS'w-2=human'
p1847
I3452
sS'w+2=Friday'
p1848
I2005
sS'w+1=sometime'
p1849
I1876
sS'w-2=a'
p1850
I3212
sS'w-1=process'
p1851
I2928
sS'nsubj=ban'
p1852
I1131
sS'xcomp=lie'
p1853
I3881
sS'w+1=even'
p1854
I1752
sS'w+1=Poland'
p1855
I1668
sS'w-2=capital'
p1856
I3286
sS'w+2=than'
p1857
I2528
sS'w+1=challenge'
p1858
I1731
sS'w+2=police'
p1859
I2412
sS'nsubj=Boucher'
p1860
I998
sS'w-2=request'
p1861
I3631
sS'w+1=high'
p1862
I1778
sS'w+2=estimate'
p1863
I2211
sS'dobj=Goma'
p1864
I577
sS'nsubjpass=body'
p1865
I1384
sS'w-2=businessman'
p1866
I3279
sS'w+2=tremendous'
p1867
I2551
sS'w-2=Bob'
p1868
I3084
sS'w+1=many'
p1869
I1807
sS'nsubj=kenyan'
p1870
I1229
sS'w+1=anything'
p1871
I1714
sS'w-2=member'
p1872
I3506
sS'w+1=from'
p1873
I1766
sS'neg=never'
p1874
I974
sS'nsubj=plan'
p1875
I1276
sS'w-2=city'
p1876
I3296
sS'w+1=Somalia'
p1877
I1679
sS'dobj=visitor'
p1878
I935
sS'w+2=center'
p1879
I2146
sS'w-1=Mondale'
p1880
I2681
sS'w-1=Lokos'
p1881
I2676
sS'nsubj=other'
p1882
I1261
sS'dobj=administration'
p1883
I658
sS'w-2=decade'
p1884
I3341
sS'ccomp=strand'
p1885
I338
sS'nsubj=incentive'
p1886
I1221
sS'w-2=serbian'
p1887
I3657
sS'advmod=thereafter'
p1888
I237
sS'ccomp=do'
p1889
I300
sS'w-1=demonstrator'
p1890
I2797
sS'w+1=enough'
p1891
I1750
sS'xcomp=vote'
p1892
I3947
sS'nsubj=strike'
p1893
I1327
sS'w+2=border'
p1894
I2126
sS'dobj=troops'
p1895
I931
sS'dobj=republic'
p1896
I873
sS'advcl=join'
p1897
I76
sS'dobj=Jerusalem'
p1898
I590
sS'nsubj=dozen'
p1899
I1184
sS'dep=likely'
p1900
I499
sS'w+2=stagnant'
p1901
I2512
sS'w-1=Martenez'
p1902
I2677
sS'w-1=village'
p1903
I2999
sS'w+1=Graham'
p1904
I1617
sS'xcomp=send'
p1905
I3918
sS'w-2=likely'
p1906
I3492
sS'w+2=injure'
p1907
I2289
sS'nsubj=cyclone'
p1908
I1171
sS'w-1=sometimes'
p1909
I2962
sS'amod=sick'
p1910
I254
sS'mark=since'
p1911
I968
sS'w-2=Bemba'
p1912
I3080
sS'w-1=Arbour'
p1913
I2630
sS'w-1=ever'
p1914
I2810
sS'nsubj=conflict'
p1915
I1156
sS'w-1=plane'
p1916
I2918
sS'w+2=basset'
p1917
I2110
sS'w-1=even'
p1918
I2808
sS'w+1=safe'
p1919
I1853
sS'xcomp=broken-hearted'
p1920
I3813
sS'conj=force'
p1921
I390
sS'w+2=racket'
p1922
I2442
sS'prep=from'
p1923
I1490
sS'w+2=indian'
p1924
I2287
sS'advmod=finally'
p1925
I173
sS'w+1=when'
p1926
I1926
sS'prt=off'
p1927
I1514
sS'w+1=Utapao'
p1928
I1693
sS'ccomp=authorize'
p1929
I279
sS'w-1=dna'
p1930
I2803
sS'w-2=Goldberg'
p1931
I3116
sS'w+1=standing'
p1932
I1878
sS'w-2=security'
p1933
I3652
sS'w+1=Congress'
p1934
I1595
sS'xcomp=powerless'
p1935
I3897
sS'w+2=ruin'
p1936
I2458
sS'w+1=Mogadishu'
p1937
I1649
sS'w+2=earth'
p1938
I2202
sS'dep=injure'
p1939
I495
sS'dobj=voter'
p1940
I937
sS'w-2=worker'
p1941
I3790
sS'dobj=heritage'
p1942
I763
sS'w+2=Bethlehem'
p1943
I1982
sS'dobj=presidency'
p1944
I858
sS'conj=to'
p1945
I438
sS'tmod=week'
p1946
I1534
sS'w+1=,'
p1947
I1538
sS'w-1=crisis'
p1948
I2789
sS'w+1=.'
p1949
I1542
sS'w-1=animal'
p1950
I2745
sS'dep=after'
p1951
I468
sS'w+2=home'
p1952
I2266
sS'ccomp=lay'
p1953
I318
sS'w+1=:'
p1954
I1571
sS'w+2=--'
p1955
I1938
sS'nsubj=counterattack'
p1956
I1162
sS'advcl=remarry'
p1957
I108
sS'w+1=I'
p1958
I1626
sS'w-1=Indians'
p1959
I2662
sS'w-1=mint'
p1960
I2885
sS'nsubjpass=bouquet'
p1961
I1386
sS'w-2=Thursday'
p1962
I3191
sS'w+2=game'
p1963
I2240
sS'w+1=flower'
p1964
I1761
sS'w+2=representative'
p1965
I2450
sS'dobj=Shomali'
p1966
I632
sS'w-1=today'
p1967
I2987
sS'xcomp=reach'
p1968
I3903
sS'w-1=mine'
p1969
I2883
sS'mark=with'
p1970
I973
sS'dobj=nation'
p1971
I817
sS'nsubj=Williams'
p1972
I1108
sS'w+1=a'
p1973
I1699
sS'w+1=Egypt'
p1974
I1604
sS'w-1=weekend'
p1975
I3009
sS'dep=possible'
p1976
I506
sS'advcl=rape'
p1977
I104
sS'w+1=U.S.'
p1978
I1691
sS'advmod=reportedly'
p1979
I218
sS'w+2=woman'
p1980
I2600
sS'w-1=million'
p1981
I2882
sS'w-2=because'
p1982
I3262
sS'nsubj=Israelites'
p1983
I1037
sS'nsubj=Holbrooke'
p1984
I1029
sS'w-1=al-Sadr'
p1985
I2738
sS'w+2=90,000'
p1986
I1967
sS'w+1=northern'
p1987
I1818
sS'dobj=chamber'
p1988
I698
sS'nsubj=Farhat'
p1989
I1019
sS'w+2=host'
p1990
I2271
sS'advmod=unceremoniously'
p1991
I240
sS'nsubj=Negroponte'
p1992
I1072
sS'amod=short'
p1993
I253
sS'conj=suffer'
p1994
I435
sS'w-2=copper'
p1995
I3323
sS'nsubj=refugee'
p1996
I1297
sS'w-2=loose'
p1997
I3498
sS'w+2=headquarters'
p1998
I2260
sS'advmod=consistently'
p1999
I159
sS'w+2=neighborhood'
p2000
I2366
sS'nsubjpass=people'
p2001
I1417
sS'dobj=soldier'
p2002
I903
sS'advmod=generally'
p2003
I176
sS'w+1=entire'
p2004
I1751
sS'advmod=virtually'
p2005
I242
sS'w-1=detail'
p2006
I2800
sS'conj=overburdened'
p2007
I411
sS'nsubj=child'
p2008
I1146
sS'w+1=minority'
p2009
I1810
sS'xcomp=blame'
p2010
I3812
sS'w+2=street'
p2011
I2517
sS'w-2=sad'
p2012
I3644
sS'w+2=frustration'
p2013
I2237
sS'dobj=Ukraine'
p2014
I649
sS'w+1=Shomali'
p2015
I1677
sS'dep=many'
p2016
I500
sS'w-1=border'
p2017
I2762
sS'dep=Sderot'
p2018
I464
sS'dobj=Pyongyang'
p2019
I623
sS'w+2=Johnson'
p2020
I2021
sS'w-1=customer'
p2021
I2791
sS'w-1=ammunition'
p2022
I2743
sS'w-1=Musharraf'
p2023
I2686
sS'nsubjpass=earth'
p2024
I1391
sS'nsubj=riot'
p2025
I1305
sS'nsubjpass=those'
p2026
I1430
sS'w-2=mineral'
p2027
I3513
sS'w-1=kenyan'
p2028
I2862
sS'w+1=Beirut'
p2029
I1584
sS'nsubj=anybody'
p2030
I1125
sS'w-1=african'
p2031
I2734
sS'dobj=group'
p2032
I755
sS'dobj=Syria'
p2033
I641
sS'xcomp=visit'
p2034
I3946
sS'w-1=would'
p2035
I3023
sS'w+2=fallow'
p2036
I2216
sS'dobj=better'
p2037
I680
sS'w+2=child'
p2038
I2148
sS'w-2=peace'
p2039
I3572
sS'advmod=home'
p2040
I178
sS'nsubj=container'
p2041
I1157
sS'dobj=impact'
p2042
I777
sS'xcomp=care'
p2043
I3816
sS'acomp=rot'
p2044
I11
sS'xcomp=add'
p2045
I3801
sS'w-2=recourse'
p2046
I3624
sS'nsubj=Muslims'
p2047
I1069
sS'w+1=only'
p2048
I1827
sS'dobj=meeting'
p2049
I802
sS'w+2=well'
p2050
I2585
sS'dobj=Belgium'
p2051
I547
sS'dobj=territory'
p2052
I922
sS'w-1=delegation'
p2053
I2796
sS'w+2=severe'
p2054
I2480
sS'nsubjpass=police'
p2055
I1421
sS'nsubjpass=provision'
p2056
I1422
sS'w-2=however'
p2057
I3451
sS'w-2=price'
p2058
I3599
sS'w+2=trail'
p2059
I2550
sS'xcomp=empty'
p2060
I3844
sS'w+1=Khartoum'
p2061
I1637
sS'w-2=United'
p2062
I3197
sS'nsubj=proposal'
p2063
I1288
sS'tmod=December'
p2064
I1526
sS'w+1=border'
p2065
I1724
sS'dobj=Nouadhibou'
p2066
I612
sS'advcl=harvest'
p2067
I67
sS'dobj=sanctuary'
p2068
I884
sS'w-1=troops'
p2069
I2991
sS'parataxis=take'
p2070
I1450
sS'w+2=shore'
p2071
I2485
sS'w-2=27'
p2072
I3053
sS'w+2=themselves'
p2073
I2531
sS'w-2=23'
p2074
I3051
sS'w-1=simply'
p2075
I2958
sS'w-2=Dulaimi'
p2076
I3100
sS'w-1=likely'
p2077
I2870
sS'xcomp=desperate'
p2078
I3830
sS'ccomp=catch'
p2079
I286
sS'w-2=Gibson'
p2080
I3114
sS'w-2=record'
p2081
I3623
sS'dobj=everything'
p2082
I735
sS'advcl=take'
p2083
I123
sS'w+2=country'
p2084
I2169
sS'w-2=today'
p2085
I3735
sS'w+2=journalist'
p2086
I2300
sS'dobj=U.S.'
p2087
I648
sS'nsubj=surplus'
p2088
I1331
sS'tmod=morning'
p2089
I1531
sS'w+1=Arab'
p2090
I1579
sS'nsubj=cripple'
p2091
I1167
sS'w-1=conflict'
p2092
I2784
sS'w-2=decide'
p2093
I3342
sS'w-2=purchase'
p2094
I3611
sS'w-2=population'
p2095
I3586
sS'acomp=unresolved'
p2096
I19
sS'w-2=branch'
p2097
I3273
sS'w-1=Cheney'
p2098
I2639
sS'dobj=hoof'
p2099
I770
sS'w+2=Los'
p2100
I2030
sS'w-1=professional'
p2101
I2929
sS'dobj=air'
p2102
I659
sS'w-1=France'
p2103
I2649
sS'nsubj=pest'
p2104
I1272
sS'prt=behind'
p2105
I1513
sS'dobj=pace'
p2106
I833
sS'conj=burn'
p2107
I369
sS'nsubj=Shah'
p2108
I1097
sS'w-1=Congress'
p2109
I2642
sS'conj=need'
p2110
I408
sS'w+2=ward'
p2111
I2580
sS'nsubj=price'
p2112
I1285
sS'w+2=criticism'
p2113
I2173
sS'ccomp=go'
p2114
I314
sS'advmod=short'
p2115
I221
sS'acomp=untouched'
p2116
I22
sS'advcl=meeting'
p2117
I90
sS'w+1=open'
p2118
I1828
sS'w-2=irregular'
p2119
I3472
sS'w+1=opposition'
p2120
I1829
sS'advcl=enter'
p2121
I54
sS'w+2=number'
p2122
I2375
sS'dobj=collapse'
p2123
I707
sS'complm=that'
p2124
I356
sS'w+2=iraqi'
p2125
I2292
sS'dobj=matter'
p2126
I799
sS'w-1=really'
p2127
I2932
sS'w-2=sorry'
p2128
I3681
sS'tmod=month'
p2129
I1530
sS'nsubj=bombing'
p2130
I1138
sS'w+2=flood'
p2131
I2226
sS'w-2=so'
p2132
I3674
sS"w+1=''"
p2133
I1537
sS'w-2=strategy'
p2134
I3691
sS'w+2=vote'
p2135
I2574
sS'w+2=world'
p2136
I2603
sS'xcomp=stimulate'
p2137
I3925
sS'nsubj=Indians'
p2138
I1033
sS'dep=while'
p2139
I525
sS'w+2=search'
p2140
I2471
sS'dobj=Vietnam'
p2141
I652
sS'w+2=nearby'
p2142
I2364
sS'w+2=President'
p2143
I2046
sS'w-1=truck'
p2144
I2992
sS'conj=trek'
p2145
I441
sS'w+1=then'
p2146
I1887
sS'w+1=now'
p2147
I1820
sS'w+1=Bosnia'
p2148
I1587
sS'advcl=satisfy'
p2149
I114
sS'w+2=long'
p2150
I2321
sS'w+1=most'
p2151
I1812
sS'conj=breadwinner'
p2152
I368
sS'dobj=atmosphere'
p2153
I673
sS'cc=but'
p2154
I273
sS'w+1=they'
p2155
I1890
sS'ccomp=withdraw'
p2156
I352
sS'nsubjpass=note'
p2157
I1413
sS'w-2=servant'
p2158
I3658
sS'w-2=lethargic'
p2159
I3489
sS'advmod=quickly'
p2160
I215
sS'xcomp=dead'
p2161
I3826
sS'prep=in'
p2162
I1491
sS'advmod=forever'
p2163
I175
sS'conj=win'
p2164
I449
sS'w+2=Kuwait'
p2165
I2028
sS'xcomp=submit'
p2166
I3927
sS'w-1=about'
p2167
I2728
sS'dobj=Australia'
p2168
I542
sS'w+2=mdc'
p2169
I2338
sS'nsubjpass=activity'
p2170
I1380
sS'dep=obtain'
p2171
I503
sS'w+1=16,000'
p2172
I1551
sS'w-2=turmoil'
p2173
I3746
sS'w+2=victim'
p2174
I2569
sS'w-1=Monday'
p2175
I2682
sS'w-2=sobriety'
p2176
I3675
sS'w+2=land'
p2177
I2303
sS'xcomp=wonder'
p2178
I3952
sS'w-2=Muse'
p2179
I3160
sS'prep=amid'
p2180
I1474
sS'ccomp=make'
p2181
I322
sS'w-1=Stewart'
p2182
I2716
sS'w-2=village'
p2183
I3760
sS'ccomp=tell'
p2184
I342
sS'w+2=until'
p2185
I2564
sS'w-2=study'
p2186
I3696
sS'w+2=political'
p2187
I2414
sS'conj=time'
p2188
I437
sS'w-2=much'
p2189
I3525
sS'nsubj=the'
p2190
I1342
sS'dep=bar'
p2191
I470
sS'dobj=specifics'
p2192
I905
sS'w-2=Java'
p2193
I3129
sS'w-2=combat'
p2194
I3302
sS'w-2=mud'
p2195
I3526
sS'w-2=1990s'
p2196
I3042
sS'nsubj=all'
p2197
I1119
sS'nsubjpass=victim'
p2198
I1433
sS'w+2=deal'
p2199
I2177
sS'nsubj=Diaw'
p2200
I1013
sS'dobj=infection'
p2201
I780
sS'w+1=Pyongyang'
p2202
I1670
sS'dobj=Thiaroye'
p2203
I646
sS'w-2=Nasr'
p2204
I3163
sS'w-2=Aristide'
p2205
I3076
sS'w+1=other'
p2206
I1832
sS'nsubjpass=realm'
p2207
I1425
sS'dobj=neighborhood'
p2208
I819
sS'w+2=bankrupt'
p2209
I2106
sS'w-2=insist'
p2210
I3463
sS'w+1=woman'
p2211
I1932
sS'dobj=mark'
p2212
I797
sS'w+1=Dhaka'
p2213
I1599
sS'dobj=animosity'
p2214
I663
sS'w+1=700'
p2215
I1569
sS'w-2=opportunity'
p2216
I3553
sS'nsubj=Butthey'
p2217
I1000
sS'w-1=if'
p2218
I2851
sS'nsubj=song'
p2219
I1324
sS'xcomp=produce'
p2220
I3899
sS'w-1=peacekeeper'
p2221
I2911
sS'w-1=withdrawal'
p2222
I3018
sS'w-2=flood'
p2223
I3409
sS'w-1=in'
p2224
I2852
sS'w+1=thousand'
p2225
I1893
sS'advcl=use'
p2226
I125
sS'w-2=supporter'
p2227
I3702
sS'ccomp=work'
p2228
I353
sS'w-2=deforestation'
p2229
I3345
sS'advcl=force'
p2230
I60
sS'w+2=soon'
p2231
I2501
sS'w+2=army'
p2232
I2098
sS'advmod=likely'
p2233
I188
sS'nsubj=controversy'
p2234
I1160
sS'w-2=Security'
p2235
I3184
sS'dobj=dog'
p2236
I727
sS'dobj=roll'
p2237
I878
sS'mark=if'
p2238
I963
sS'dobj=Palestinians'
p2239
I620
sS'advcl=burst'
p2240
I34
sS'mark=in'
p2241
I964
sS'ccomp=erupt'
p2242
I304
sS'w-2=town'
p2243
I3738
sS'w+2=now'
p2244
I2374
sS'advcl=rise'
p2245
I113
sS'w+2=not'
p2246
I2370
sS'w+2=company'
p2247
I2162
sS'w-2=50'
p2248
I3060
sS'w+2=Attorney'
p2249
I1979
sS'w+1=among'
p2250
I1709
sS'w-2=displace'
p2251
I3359
sS'ccomp=emerge'
p2252
I303
sS'partmod=cancel'
p2253
I1452
sS'dobj=shortfall'
p2254
I898
sS'w-2=legacy'
p2255
I3486
sS'w+2=previous'
p2256
I2427
sS'xcomp=reform'
p2257
I3905
sS'w-1=friend'
p2258
I2834
sS'amod=#NUMBER#'
p2259
I250
sS'dobj=village'
p2260
I934
sS'conj=before'
p2261
I364
sS'dep=say'
p2262
I509
sS'w+1=Amman'
p2263
I1578
sS'w-2=creative'
p2264
I3330
sS'conj=food'
p2265
I389
sS'dobj=label'
p2266
I785
sS'w-2=Garden'
p2267
I3111
sS'ccomp=move'
p2268
I324
sS'prep=by'
p2269
I1484
sS'nsubj=issue'
p2270
I1227
sS'w-2=through'
p2271
I3731
sS'nsubjpass=piece'
p2272
I1420
sS'w+2=2,500'
p2273
I1954
sS'w-2=excite'
p2274
I3386
sS'prep=within'
p2275
I1510
sS'w+2=where'
p2276
I2590
sS'dobj=power'
p2277
I857
sS'w-2=or'
p2278
I3555
sS'nsubj=who'
p2279
I1366
sS'w+2=definitely'
p2280
I2181
sS'w+2=islamic'
p2281
I2293
sS'nsubj=truck'
p2282
I1356
sS'w-2=ticket'
p2283
I3732
sS'w-2=of'
p2284
I3542
sS'w+2=vacuum'
p2285
I2568
sS'w+2=beyond'
p2286
I2119
sS'w+2=region'
p2287
I2446
sS'nsubj=failure'
p2288
I1190
sS'xcomp=discover'
p2289
I3835
sS'w-2=Leone'
p2290
I3141
sS'dobj=parliament'
p2291
I837
sS'w+2=Pakistanis'
p2292
I2042
sS'w-2=own'
p2293
I3564
sS'w-2=local'
p2294
I3496
sS'nsubj=party'
p2295
I1265
sS'w-2=foot'
p2296
I3412
sS'w+1=police'
p2297
I1839
sS'acomp=unanswered'
p2298
I14
sS'nsubj=Annan'
p2299
I987
sS'w-2=prepare'
p2300
I3593
sS'advmod=again'
p2301
I137
sS'w+2=Olmert'
p2302
I2040
sS'nsubj=Pinetop'
p2303
I1083
sS'advmod=#NUMBER#'
p2304
I132
sS'w-2=outdated'
p2305
I3560
sS'w+1=Ecuador'
p2306
I1603
sS'dobj=Congress'
p2307
I556
sS'w-2=afraid'
p2308
I3223
sS'dobj=this'
p2309
I924
sS'w+2=car'
p2310
I2143
sS'w+2=zanu-pf'
p2311
I2609
sS'w-1=guerrilla'
p2312
I2841
sS'w-2=attack'
p2313
I3253
sS'advmod=however'
p2314
I180
sS'w-2=Gogh'
p2315
I3115
sS'aux=must'
p2316
I264
sS'w+1=as'
p2317
I1716
sS'w-2=another'
p2318
I3242
sS'w+2=like'
p2319
I2314
sS'w+1=at'
p2320
I1717
sS'xcomp=mediate'
p2321
I3885
sS'w-2=call'
p2322
I3282
sS'dobj=Poland'
p2323
I621
sS'w-2=crisis'
p2324
I3332
sS'w-1=Pinetop'
p2325
I2696
sS'w-2=army'
p2326
I3248
sS'w+1=Israel'
p2327
I1630
sS'nsubj=arrangement'
p2328
I1127
sS'w+2=so'
p2329
I2496
sS'xcomp=homeless'
p2330
I3865
sS'mark=for'
p2331
I962
sS'w+2=financial'
p2332
I2224
sS'w+2=terrible'
p2333
I2526
sS'w+1=eventually'
p2334
I1753
sS'w-2=dangerous'
p2335
I3336
sS'w+2=live'
p2336
I2319
sS'w-2=uprising'
p2337
I3755
sS'w-1=can'
p2338
I2771
sS'w-2=official'
p2339
I3544
sS'w+1=everything'
p2340
I1754
sS'advmod=immediately'
p2341
I182
sS'nsubj=Parazynski'
p2342
I1081
sS'advmod=earlier'
p2343
I162
sS'w-2=chance'
p2344
I3291
sS'nsubj=mother'
p2345
I1253
sS'dobj=Mogadishu'
p2346
I605
sS'w+1=town'
p2347
I1896
sS'advcl=catch'
p2348
I36
sS'w-1=lawmaker'
p2349
I2867
sS'w-2=foreigner'
p2350
I3416
sS'w-1=risk'
p2351
I2941
sS'w-1=those'
p2352
I2983
sS'dep=speak'
p2353
I514
sS'advmod=when'
p2354
I245
sS'dobj=Georgia'
p2355
I574
sS'nsubj=Olmert'
p2356
I1077
sS'nsubj=Esfandiari'
p2357
I1015
sS'nsubj=Jamous'
p2358
I1039
sS'advcl=restore'
p2359
I111
sS'xcomp=alive'
p2360
I3803
sS'xcomp=deal'
p2361
I3827
sS'w-2=20,000'
p2362
I3044
sS'nsubj=prosperity'
p2363
I1289
sS'w-2=visit'
p2364
I3763
sS'w+2=Monday'
p2365
I2034
sS'w-1=fighting'
p2366
I2827
sS'prep=worth'
p2367
I1512
sS'w+1=we'
p2368
I1923
sS'w+2=dead'
p2369
I2176
sS'w-2=caucus'
p2370
I3289
sS'w-2=soldier'
p2371
I3676
sS'advcl=depend'
p2372
I49
sS'nsubj=al-Sadr'
p2373
I1118
sS'w+1=detention'
p2374
I1743
sS'advmod=whenever'
p2375
I246
sS'nsubjpass=opposition'
p2376
I1414
sS'w-1=executive'
p2377
I2814
sS'dobj=industry'
p2378
I779
sS'w-1=aircraft'
p2379
I2737
sS'w-2=side'
p2380
I3670
sS'dobj=Doc'
p2381
I566
sS'w+1=during'
p2382
I1747
sS'w-2=burma'
p2383
I3277
sS'nsubj=pilgrim'
p2384
I1273
sS'dep=#NUMBER#'
p2385
I461
sS'dep=leave'
p2386
I497
sS'conj=wound'
p2387
I450
sS'auxpass=be'
p2388
I269
sS'dobj=mdc'
p2389
I801
sS"w-1='s"
p2390
I2613
sS'w-2=superstar'
p2391
I3700
sS'advcl=lucky'
p2392
I86
sS'w-2=Van'
p2393
I3199
sS'nsubj=McCary'
p2394
I1059
sS'dobj=delighted'
p2395
I722
sS'dobj=dead'
p2396
I720
sS'w+2=after'
p2397
I2080
sS'w-2=flyer'
p2398
I3411
sS'w+1=unresolved'
p2399
I1909
sS'w+2=residual'
p2400
I2454
sS'dobj=company'
p2401
I712
sS'advmod=officially'
p2402
I206
sS'nsubj=disarmament'
p2403
I1183
sS'advmod=still'
p2404
I232
sS'nsubjpass=african'
p2405
I1381
sS'w-2=seeker'
p2406
I3654
sS'nsubj=need'
p2407
I1255
sS'dobj=settlement'
p2408
I894
sS'w-2=last'
p2409
I3482
sS'w-2=permission'
p2410
I3574
sS'w+2=unstable'
p2411
I2563
sS'w+2=maybe'
p2412
I2336
sS'nsubjpass=consultation'
p2413
I1389
sS'w+1=there'
p2414
I1888
sS'w-2=hand'
p2415
I3433
sS'nsubjpass=phone'
p2416
I1419
sS'nsubj=trial'
p2417
I1354
sS'w-2=talent'
p2418
I3707
sS'nsubj=month'
p2419
I1251
sS'nsubj=Johnson'
p2420
I1042
sS'nsubj=#NUMBER#'
p2421
I979
sS'w-2=oblige'
p2422
I3540
sS'w-2=barracks'
p2423
I3260
sS'w-2=1997'
p2424
I3043
sS'advcl=deny'
p2425
I48
sS'w+2=study'
p2426
I2519
sS'w+2=banking'
p2427
I2105
sS'ccomp=shatter'
p2428
I335
sS'nsubj=secretary'
p2429
I1312
sS'w+1=its'
p2430
I1797
sS'w-2=Medina'
p2431
I3150
sS'nsubjpass=patient'
p2432
I1416
sS'w-2=financial'
p2433
I3403
sS'w-2=ask'
p2434
I3250
sS'w-1=clash'
p2435
I2778
sS'dobj=what'
p2436
I945
sS'w-2=event'
p2437
I3382
sS'nsubj=Nargis'
p2438
I1070
sS"w-1=''"
p2439
I2611
sS'nsubj=Kumari'
p2440
I1051
sS'advcl=understandand'
p2441
I124
sS'conj=attend'
p2442
I362
sS'w+2=positive'
p2443
I2418
sS'conj=miss'
p2444
I405
sS'nsubj=fan'
p2445
I1193
sS'dobj=here'
p2446
I762
sS'w-1=Johnson'
p2447
I2666
sS'w-2=most'
p2448
I3523
sS'nsubj=ship'
p2449
I1313
sS'w-2=president'
p2450
I3595
sS'w-2=african'
p2451
I3224
sS'w+2=doubt'
p2452
I2195
sS'w-2=probably'
p2453
I3602
sS'conj=do'
p2454
I377
sS'dobj=well'
p2455
I944
sS'w+2=island'
p2456
I2294
sS'tmod=afternoon'
p2457
I1528
sS'nsubj=Hathaway'
p2458
I1024
sS'w+2=spotlight'
p2459
I2506
sS'w+1=next'
p2460
I1816
sS'nsubj=battle'
p2461
I1133
sS'dobj=government'
p2462
I753
sS'w+1=four'
p2463
I1764
sS'nsubj=dependence'
p2464
I1180
sS'nsubj=fighting'
p2465
I1197
sS'nsubj=hailstorm'
p2466
I1209
sS'w+1=Debby'
p2467
I1598
sS'w-2=crackdown'
p2468
I3329
sS'w+1=14,000'
p2469
I1550
sS'w+2=make'
p2470
I2329
sS'w-2=intact'
p2471
I3467
sS'w-2=overnight'
p2472
I3562
sS'w+2=14'
p2473
I1949
sS'nsubj=#DATE#'
p2474
I978
sS'conj=have'
p2475
I393
sS'dobj=total'
p2476
I926
sS'nsubj=Ali'
p2477
I985
sS'advcl=establish'
p2478
I55
sS'w+2=grow'
p2479
I2252
sS'w+2=leadership'
p2480
I2309
sS'nsubjpass=Newport'
p2481
I1378
sS'w-2=there'
p2482
I3724
sS'w-2=root'
p2483
I3640
sS'nsubj=testimony'
p2484
I1340
sS'w-1=usually'
p2485
I2995
sS'dep=strand'
p2486
I515
sS'nsubj=Lokos'
p2487
I1054
sS'dobj=tension'
p2488
I921
sS'w-2=drop'
p2489
I3365
sS'w-2=250,000'
p2490
I3052
sS'xcomp=reopen'
p2491
I3908
sS'w+2=Justice'
p2492
I2024
sS'tmod=weekend'
p2493
I1535
sS'w-2=must'
p2494
I3527
sS"w-2='s"
p2495
I3032
sS'w-1=Odinga'
p2496
I2690
sS'w-1=nature'
p2497
I2894
sS'advcl=have'
p2498
I68
sS'w+1=Furman'
p2499
I1609
sS'w-2=safe'
p2500
I3645
sS'advcl=collapse'
p2501
I39
sS'nsubj=Hillary'
p2502
I1027
sS'w+2=claim'
p2503
I2153
sS'w-2=Zimbabwe'
p2504
I3210
sS'dobj=compound'
p2505
I713
sS'xcomp=dirty'
p2506
I3833
sS'w-2=no'
p2507
I3534
sS'dobj=fall'
p2508
I739
sS'ccomp=wound'
p2509
I355
sS'prep=under'
p2510
I1506
sS'w+2=four-year-old'
p2511
I2234
sS'w+1=because'
p2512
I1719
sS'w+2=every'
p2513
I2214
sS'w+2=legacy'
p2514
I2311
sS'w-1=result'
p2515
I2939
sS'w-1=since'
p2516
I2959
sS'w-2=sixth'
p2517
I3673
sS'advcl=formulate'
p2518
I61
sS'dobj=evidence'
p2519
I736
sS'w+2=mosque'
p2520
I2352
sS'w+2=dutch'
p2521
I2200
sS'dobj=farm'
p2522
I742
sS'dobj=race'
p2523
I867
sS'w+1=land'
p2524
I1799
sS'prep=quite'
p2525
I1501
sS'w+2=poor'
p2526
I2415
sS'w+1=Mauritania'
p2527
I1645
sS'ccomp=ready'
p2528
I329
sS'nsubj=caravan'
p2529
I1145
sS'w-2=prime'
p2530
I3600
sS'w-2=student'
p2531
I3695
sS'w-2=themselves'
p2532
I3722
sS'partmod=leave'
p2533
I1461
sS'nsubj=christian'
p2534
I1147
sS'w+1=Spain'
p2535
I1681
sS'dobj=most'
p2536
I813
sS'w-2=home'
p2537
I3445
sS'w-1=battle'
p2538
I2752
sS'dobj=decision'
p2539
I721
sS'nsubj=gain'
p2540
I1206
sS'advmod=even'
p2541
I169
sS'advcl=stay'
p2542
I121
sS'w+2=outer'
p2543
I2393
sS'dep=unmanned'
p2544
I522
sS'conj=walk'
p2545
I447
sS'attr=week'
p2546
I255
sS'nsubj=some'
p2547
I1322
sS'w-2=terrify'
p2548
I3716
sS'prep=throughout'
p2549
I1504
sS'dobj=job'
p2550
I783
sS'xcomp=teacher'
p2551
I3930
sS'advmod=ever'
p2552
I171
sS'w-2=the'
p2553
I3721
sS'w+2=June'
p2554
I2023
sS'nsubj=car'
p2555
I1144
sS'w-1=thing'
p2556
I2981
sS'xcomp=protect'
p2557
I3901
sS'w+1=intact'
p2558
I1792
sS'w+2=cholera'
p2559
I2149
sS'prep=behind'
p2560
I1482
sS'aux=will'
p2561
I267
sS'xcomp=intact'
p2562
I3872
sS'w-2=Darfur'
p2563
I3097
sS'w-2=complete'
p2564
I3308
sS'w-1=Bhutto'
p2565
I2634
sS'w-1=later'
p2566
I2866
sS'dobj=Darfur'
p2567
I560
sS'nsubj=savings'
p2568
I1310
sS'dobj=summit'
p2569
I917
sS'advcl=deal'
p2570
I44
sS'nsubj=Council'
p2571
I1008
sS'w+1=Dobley'
p2572
I1600
sS'prep=with'
p2573
I1509
sS'w+1=170,000'
p2574
I1553
sS'w-2=online'
p2575
I3551
sS'w-2=killing'
p2576
I3480
sS'dobj=commuter'
p2577
I711
sS'nsubj=agency'
p2578
I1115
sS'w+2=11th'
p2579
I1946
sS'w+1=Huckabee'
p2580
I1624
sS'w-2=9'
p2581
I3065
sS'dobj=scar'
p2582
I885
sS'dobj=coast'
p2583
I706
sS'nsubj=split'
p2584
I1326
sS'dobj=force'
p2585
I747
sS'w+1=syrian'
p2586
I1882
sS'w-1=shampoo'
p2587
I2952
sS'w-1=Tsvangirai'
p2588
I2723
sS'w+2=province'
p2589
I2437
sS'w-1=adviser'
p2590
I2731
sS'advcl=support'
p2591
I122
sS'nsubj=aircraft'
p2592
I1117
sS'w-1=recently'
p2593
I2934
sS'w+2=longtime'
p2594
I2323
sS'w+1=Ethiopia'
p2595
I1605
sS'w-2=little'
p2596
I3494
sS'w-2=opposition'
p2597
I3554
sS'w+2=shop'
p2598
I2484
sS'w+2=do'
p2599
I2191
sS'advcl=old'
p2600
I93
sS'nsubj=Arafat'
p2601
I989
sS'nsubj=Gogh'
p2602
I1020
sS'w+2=Ethiopians'
p2603
I2002
sS'w+2=turkish'
p2604
I2555
sS'w-2=consequence'
p2605
I3318
sS'w-1=Lafayette'
p2606
I2674
sS'nsubj=Maoists'
p2607
I1056
sS'w+1=America'
p2608
I1577
sS'nsubj=herder'
p2609
I1210
sS'xcomp=use'
p2610
I3943
sS'w-1=Negroponte'
p2611
I2688
sS'xcomp=form'
p2612
I3854
sS'dobj=opening'
p2613
I824
sS'w-1=after'
p2614
I2735
sS'w+1=Hong'
p2615
I1623
sS'w+2=place'
p2616
I2409
sS'dep=liberal'
p2617
I498
sS'nsubjpass=talk'
p2618
I1428
sS'w-2=overwhelmingly'
p2619
I3563
sS'w-1=heritage'
p2620
I2846
sS'w-2=Jadeed'
p2621
I3126
sS'w+2=war-torn'
p2622
I2579
sS'xcomp=work'
p2623
I3953
sS'nsubj=Moi'
p2624
I1063
sS'nsubjpass=town'
p2625
I1431
sS'parataxis=accomplish'
p2626
I1442
sS'dobj=detail'
p2627
I724
sS'w-2=concerto'
p2628
I3311
sS'dobj=victim'
p2629
I933
sS'w+2=Arab'
p2630
I1976
sS'conj=die'
p2631
I376
sS'advmod=a'
p2632
I133
sS'w+1=NATO'
p2633
I1655
sS'advcl=defeat'
p2634
I46
sS'w-2=U.S.'
p2635
I3196
sS'w+2=Sondrestrom'
p2636
I2057
sS'w+1=should'
p2637
I1868
sS'w+2=.5'
p2638
I1943
sS'dep=unable'
p2639
I520
sS'w+2=capital'
p2640
I2142
sS'w+2=will'
p2641
I2595
sS'w+2=trademark'
p2642
I2548
sS'nsubj=corruption'
p2643
I1161
sS'w+1=13,000'
p2644
I1546
sS'nsubj=combat'
p2645
I1151
sS'nsubj=Craig'
p2646
I1009
sS'xcomp=professional'
p2647
I3900
sS'w+1=Captain'
p2648
I1592
sS'w+1=by'
p2649
I1728
sS'w+1=be'
p2650
I1718
sS'w-1=week'
p2651
I3008
sS'advmod=off'
p2652
I205
sS'w+2=community'
p2653
I2159
sS'nsubj=Cross'
p2654
I1010
sS'w-2=british'
p2655
I3276
sS'w-2=coalition'
p2656
I3300
sS'w-1=Taylor'
p2657
I2717
sS'dobj=Galveston'
p2658
I572
sS'w-2=anger'
p2659
I3241
sS'w-2=team'
p2660
I3711
sS'w+1=Iraq'
p2661
I1628
sS'w-2=war'
p2662
I3766
sS'conj=say'
p2663
I426
sS'prep=base'
p2664
I1479
sS'w-2=family'
p2665
I3393
sS'w+1=Utica'
p2666
I1694
sS'w+1=Manila'
p2667
I1643
sS'tmod=year'
p2668
I1536
sS'w-1=female'
p2669
I2823
sS'w-2=determination'
p2670
I3352
sS'w+2=party'
p2671
I2401
sS'w+2=dry'
p2672
I2199
sS'w-2=pack'
p2673
I3565
sS'w+1=Iran'
p2674
I1627
sS'nsubj=Blair'
p2675
I997
sS'w+1=little'
p2676
I1805
sS'dobj=groundsafter'
p2677
I754
sS'w-2=truck'
p2678
I3744
sS'w+2=family'
p2679
I2217
sS'dobj=Pakistan'
p2680
I617
sS'w-2=remove'
p2681
I3630
sS'w-2=constitutional-reform'
p2682
I3319
sS'w-2=oust'
p2683
I3558
sS'w+2=animosity'
p2684
I2091
sS'w-2=set'
p2685
I3660
sS'w+1=voter'
p2686
I1921
sS'w-2=race'
p2687
I3613
sS'nsubj=tree'
p2688
I1353
sS'w-2=feral'
p2689
I3398
sS'dobj=void'
p2690
I936
sS'w-2=equipment'
p2691
I3378
sS'nsubj=Nixon'
p2692
I1073
sS'w-2=party'
p2693
I3568
sS'dobj=standing'
p2694
I911
sS'w+1=israeli'
p2695
I1794
sS'nsubj=Mike'
p2696
I1061
sS'w-2=schedule'
p2697
I3649
sS'aux=could'
p2698
I259
sS'w-1=company'
p2699
I2781
sS'w+2=girlfriend'
p2700
I2245
sS'dobj=anybody'
p2701
I664
sS'w-2=President'
p2702
I3173
sS'w+1=-rrb-'
p2703
I1541
sS'w-2=gunman'
p2704
I3432
sS'prep=beyond'
p2705
I1483
sS'dep=if'
p2706
I493
sS'w-1=also'
p2707
I2740
sS'w+2=David'
p2708
I1997
sS'w+1=wait'
p2709
I1922
sS'nsubj=resignation'
p2710
I1302
sS'dobj=Guantanamo'
p2711
I578
sS'w-2=ship'
p2712
I3663
sS'dobj=casualty'
p2713
I694
sS'w-1=hygiene'
p2714
I2849
sS'w-2=yours'
p2715
I3796
sS'w+2=Damascus'
p2716
I1995
sS'nsubj=Africans'
p2717
I983
sS'w-2=fix'
p2718
I3407
sS'w-1=Sam'
p2719
I2706
sS'dep=widow'
p2720
I526
sS'w-2=Baghdad'
p2721
I3079
sS'w+2=service'
p2722
I2477
sS'nsubj=program'
p2723
I1287
sS'dobj=past'
p2724
I840
sS'nsubj=capture'
p2725
I1143
sS'advcl=look'
p2726
I84
sS'prep=of'
p2727
I1495
sS'prep=on'
p2728
I1497
sS'w+2=project'
p2729
I2434
sS'nsubj=Ivorians'
p2730
I1038
sS'dobj=municipality'
p2731
I816
sS'w-2=head'
p2732
I3440
sS'nsubj=fuel'
p2733
I1205
sS'xcomp=seal'
p2734
I3915
sS"w+2=''"
p2735
I1934
sS'w+2=promise'
p2736
I2435
sS"w-2=''"
p2737
I3030
sS'dobj=question'
p2738
I866
sS'w+1=50,000'
p2739
I1566
sS'dobj=earth'
p2740
I732
sS'w-2=could'
p2741
I3325
sS'nsubj=this'
p2742
I1344
sS'advcl=inform'
p2743
I74
sS'nsubj=Essex'
p2744
I1017
sS'dep=have'
p2745
I491
sS'nsubj=Jews'
p2746
I1040
sS'w+2=election'
p2747
I2204
sS'w-1=piece'
p2748
I2915
sS'w-2=never'
p2749
I3531
sS'w+2=evidence'
p2750
I2215
sS'w-2=failure'
p2751
I3392
sS'w-2=migrant'
p2752
I3509
sS'w-1=festival'
p2753
I2824
sS'nsubj=crackdown'
p2754
I1165
sS'w-2=talk'
p2755
I3708
sS'dep=though'
p2756
I518
sS'dobj=door'
p2757
I728
sS'w+2=that'
p2758
I2529
sS'xcomp=discuss'
p2759
I3836
sS'nsubj=and'
p2760
I1123
sS'w+2=cabinet'
p2761
I2135
sS'w+2=and'
p2762
I2089
sS'w-2=Mrs.'
p2763
I3157
sS'w-2=get'
p2764
I3423
sS'w+2=unequipped'
p2765
I2559
sS'w-1=or'
p2766
I2906
sS'nsubjpass=initiative'
p2767
I1404
sS'nsubj=administration'
p2768
I1113
sS'advcl=hear'
p2769
I70
sS'advcl=present'
p2770
I101
sS'nsubj=Zia'
p2771
I1109
sS'dobj=situation'
p2772
I901
sS'w+2=diamond'
p2773
I2184
sS'nsubj=Martenez'
p2774
I1057
sS'w-1=of'
p2775
I2900
sS'w-2=militia'
p2776
I3511
sS'w+1=flood'
p2777
I1760
sS'nsubj=end'
p2778
I1185
sS'w-2=more'
p2779
I3521
sS'w+2=200,000'
p2780
I1957
sS'conj=go'
p2781
I392
sS'advcl=head'
p2782
I69
sS'w+2=field'
p2783
I2222
sS'w-2=Mohsen'
p2784
I3153
sS'advcl=arise'
p2785
I29
sS'w-2=hope'
p2786
I3446
sS'w-1=start'
p2787
I2966
sS'w+2=note'
p2788
I2371
sS'w-2=confrontation'
p2789
I3314
sS'w+2=poorly'
p2790
I2416
sS'w+1=this'
p2791
I1892
sS'w+2=Election'
p2792
I1999
sS'ccomp=awesome'
p2793
I280
sS'dobj=Riley'
p2794
I625
sS'w-1=Tuesday'
p2795
I2724
sS'w-2=limit'
p2796
I3493
sS'w+2=U.S.'
p2797
I2069
sS'w-1=plant'
p2798
I2919
sS'w-2=afford'
p2799
I3222
sS'w+2=join'
p2800
I2299
sS'advcl=walk'
p2801
I126
sS'w-2=national'
p2802
I3528
sS'advmod=now'
p2803
I203
sS'advmod=voluntarily'
p2804
I243
sS'xcomp=alone'
p2805
I3804
sS'nsubj=those'
p2806
I1345
sS'w-2=Alisher'
p2807
I3069
sS'w-2=will'
p2808
I3781
sS'w-2=massacre'
p2809
I3504
sS'w+1=except'
p2810
I1755
sS'w+2=Niger'
p2811
I2038
sS'parataxis=awesome'
p2812
I1443
sS'conj=enrol'
p2813
I381
sS'w+2=leader'
p2814
I2308
sS'w-2=technology'
p2815
I3712
sS'w-2=rotation'
p2816
I3641
sS'ccomp=flood'
p2817
I311
sS'xcomp=buoy'
p2818
I3814
sS'xcomp=unattended'
p2819
I3937
sS'advcl=beat'
p2820
I32
sS'conj=lack'
p2821
I396
sS'nsubj=dancer'
p2822
I1172
sS'advcl=bear'
p2823
I31
sS'dobj=impression'
p2824
I778
sS'dobj=kind'
p2825
I784
sS'nsubj=fight'
p2826
I1195
sS'w-2=not'
p2827
I3537
sS'w-2=citizenship'
p2828
I3295
sS'dobj=center'
p2829
I696
sS'w-2=Nixon'
p2830
I3165
sS'w+1=poverty'
p2831
I1841
sS'w-2=at'
p2832
I3252
sS'dobj=Musharraf'
p2833
I608
sS'nsubj=crack'
p2834
I1164
sS'dobj=Valley'
p2835
I651
sS'w-2=man'
p2836
I3500
sS'w+2=senegalese'
p2837
I2474
sS'w+2=settlement'
p2838
I2478
sS'w-2=Gaza'
p2839
I3113
sS'w+2=suffer'
p2840
I2521
sS'w+2=Britons'
p2841
I1984
sS'nsubj=side'
p2842
I1318
sS'nsubj=Palestinians'
p2843
I1080
sS'w+2=large'
p2844
I2304
sS'w-1=Okruashvili'
p2845
I2691
sS'dobj=Islam'
p2846
I587
sS'w+2=prematurely'
p2847
I2424
sS'w+1=vacant'
p2848
I1917
sS'w+2=no'
p2849
I2368
sS'dobj=Somalis'
p2850
I635
sS'advmod=slightly'
p2851
I225
sS'xcomp=begin'
p2852
I3811
sS'advcl=make'
p2853
I88
sS'w-1=tank'
p2854
I2972
sS'w-2=out'
p2855
I3559
sS'w-2=Valley'
p2856
I3198
sS'dobj=note'
p2857
I820
sS'dobj=site'
p2858
I900
sS'nsubj=shopkeeper'
p2859
I1315
sS'dobj=time'
p2860
I925
sS'w-1=assassinate'
p2861
I2750
sS'w-1=oil'
p2862
I2902
sS'dobj=Somalia'
p2863
I634
sS'det=a'
p2864
I530
sS'w-1=when'
p2865
I3010
sS'w+1=Guantanamo'
p2866
I1619
sS'w-2=congress'
p2867
I3316
sS'w-1=either'
p2868
I2806
sS'dep=since'
p2869
I512
sS'xcomp=tend'
p2870
I3931
sS'w+1=busy'
p2871
I1726
sS'w-2=Bush'
p2872
I3085
sS'xcomp=remember'
p2873
I3907
sS'xcomp=unturned'
p2874
I3942
sS'w+2=demo'
p2875
I2182
sS'w-1=before'
p2876
I2754
sS'w-2=window'
p2877
I3782
sS'w-2=sibling'
p2878
I3669
sS'dobj=money'
p2879
I810
sS'w+1=chaos'
p2880
I1732
sS'w-2=steal'
p2881
I3688
sS'advcl=know'
p2882
I78
sS'w+2=block'
p2883
I2122
sS'dep=work'
p2884
I528
sS'w+2=pacify'
p2885
I2395
sS'xcomp=legislate'
p2886
I3880
sS'complm=whether'
p2887
I357
sS'w+2=single'
p2888
I2490
sS'dobj=Washington'
p2889
I653
sS'w-2=78,000'
p2890
I3063
sS'w+2=area'
p2891
I2096
sS'dobj=Cambodia'
p2892
I550
sS'advcl=seem'
p2893
I116
sS'w-1=police'
p2894
I2921
sS'w+2=main'
p2895
I2326
sS'w-1=must'
p2896
I2893
sS'w+2=palestinian'
p2897
I2398
sS'dobj=building'
p2898
I686
sS'w-1=tree'
p2899
I2989
sS'acomp=alive'
p2900
I0
sS'w-2=Roy'
p2901
I3178
sS'w+2=husband'
p2902
I2276
sS'advcl=refuse'
p2903
I105
sS'w+2=without'
p2904
I2598
sS'w-1=insurgent'
p2905
I2855
sS'advcl=coordinate'
p2906
I43
sS'w+2=scorched'
p2907
I2468
sS'w+1=gang'
p2908
I1768
sS'acomp=fallow'
p2909
I5
sS'advcl=launch'
p2910
I79
sS'nsubj=difficulty'
p2911
I1181
sS'dobj=micromanage'
p2912
I807
sS'nsubjpass=rate'
p2913
I1424
sS'advcl=operate'
p2914
I94
sS'dobj=picture'
p2915
I845
sS'w-2=Ehud'
p2916
I3103
sS'xcomp=incomplete'
p2917
I3869
sS'w+1=vacuum'
p2918
I1918
sS'w+1=Olympia'
p2919
I1665
sS'w-2=when'
p2920
I3773
sS'nsubj=army'
p2921
I1126
sS'dobj=Israel'
p2922
I588
sS'w-2=nationalist'
p2923
I3529
sS'w+2=Tuesday'
p2924
I2066
sS'dep=today'
p2925
I519
sS'dobj=mound'
p2926
I814
sS'w-2=74'
p2927
I3061
sS"aux='ll"
p2928
I256
sS'w-2=76'
p2929
I3062
sS'w-1=collapse'
p2930
I2779
sS'aux=to'
p2931
I266
sS'w-2=rain'
p2932
I3615
sS'nsubj=Bemba'
p2933
I994
sS'ccomp=fear'
p2934
I308
sS'w+2=final'
p2935
I2223
sS'w+2=Genevieve'
p2936
I2008
sS'w-2=evidence'
p2937
I3384
sS'dobj=Kansas'
p2938
I592
sS'xcomp=decide'
p2939
I3828
sS'xcomp=vacant'
p2940
I3944
sS'dobj=part'
p2941
I838
sS'dobj=Egypt'
p2942
I568
sS'w+1=37,000'
p2943
I1565
sS'dobj=market'
p2944
I798
sS'w+1=rural'
p2945
I1852
sS'dobj=owner'
p2946
I832
sS'w-1=for'
p2947
I2831
sS'advcl=great'
p2948
I64
sS'dobj=relationship'
p2949
I872
sS'w-2=region'
p2950
I3627
sS'w+2=most'
p2951
I2353
sS'dobj=Austria'
p2952
I543
sS'advmod=elsewhere'
p2953
I166
sS'dobj=document'
p2954
I726
sS'w+2=audience'
p2955
I2102
sS'w-2=crew'
p2956
I3331
sS'w-2=would'
p2957
I3791
sS'w+2=colony'
p2958
I2157
sS'prep=during'
p2959
I1486
sS'dobj=Sudan'
p2960
I638
sS'w-2=-'
p2961
I3034
sS'partmod=campaign'
p2962
I1451
sS'w+2=hearing'
p2963
I2262
sS'w+2=west'
p2964
I2587
sS'w-1=wealth'
p2965
I3007
sS'w+2=job'
p2966
I2298
sS'xcomp=follow'
p2967
I3852
sS'w-2=father'
p2968
I3396
sS'w+1=Hungary'
p2969
I1625
sS'w+2=meeting'
p2970
I2340
sS'nsubj=assault'
p2971
I1128
sS'dobj=hotel'
p2972
I772
sS'w-2=Michael'
p2973
I3151
sS'w+1=virtually'
p2974
I1920
sS'w-1=now'
p2975
I2899
sS'w-1=not'
p2976
I2897
sS'w+1=unsaid'
p2977
I1910
sS'w-2=difficult'
p2978
I3353
sS'w+1=huge'
p2979
I1784
sS'aux=be'
p2980
I257
sS'w+1=134-thousand'
p2981
I1549
sS'dobj=half'
p2982
I757
sS'w+2=be'
p2983
I2112
sS'xcomp=idle'
p2984
I3867
sS'dobj=hall'
p2985
I758
sS'dobj=slum'
p2986
I902
sS'w+1=church'
p2987
I1733
sS'w-2=civilian'
p2988
I3298
sS'xcomp=isolate'
p2989
I3873
sS'prep=before'
p2990
I1481
sS'w+1=unceremoniously'
p2991
I1901
sS'w-1=bomber'
p2992
I2761
sS'w-2=Moqtada'
p2993
I3155
sS'w-2=monarchy'
p2994
I3517
sS'advcl=over'
p2995
I96
sS'dobj=Pakistanis'
p2996
I618
sS'aux=have'
p2997
I261
sS'nsubj=shot'
p2998
I1316
sS'acomp=unsolved'
p2999
I21
sS'w-2=effect'
p3000
I3369
sS'w-2=ethiopian'
p3001
I3381
sS'dep=do'
p3002
I481
sS'advmod=altogether'
p3003
I143
sS'w+1=Riyadh'
p3004
I1671
sS'w-1=willing'
p3005
I3017
sS'dobj=anything'
p3006
I665
sS'advmod=doubt'
p3007
I160
sS'w+2=Europe'
p3008
I2003
sS'w-2=house'
p3009
I3449
sS'csubj=suffer'
p3010
I458
sS'nsubj=room'
p3011
I1309
sS'mark=like'
p3012
I965
sS'advmod=well'
p3013
I244
sS'w-2=election'
p3014
I3370
sS'w-1=Montano'
p3015
I2683
sS'w-2=former'
p3016
I3418
sS'w-1=103'
p3017
I2619
sS'w-1=she'
p3018
I2953
sS'w+2=Clinton'
p3019
I1992
sS'w+1=Nashville'
p3020
I1657
sS'w+1=95'
p3021
I1570
sS'w+2=use'
p3022
I2566
sS'w-2=Secretary'
p3023
I3183
sS'dobj=cabinet'
p3024
I688
sS'w-2=30,000'
p3025
I3056
sS'w-1=India'
p3026
I2661
sS'rel=that'
p3027
I1524
sS'w-1=voter'
p3028
I3003
sS'w-1=Republicans'
p3029
I2700
sS'w-2=bloc'
p3030
I3266
sS'w+2=behind'
p3031
I2116
sS'w-2=faction'
p3032
I3391
sS'w-2=they'
p3033
I3725
sS'prep=than'
p3034
I1503
sS'w+1=Kismayo'
p3035
I1638
sS'dobj=country'
p3036
I716
sS'w-1=returnee'
p3037
I2940
sS'w-2=country'
p3038
I3326
sS'w-2=Corun'
p3039
I3094
sS'w+1=city'
p3040
I1734
sS'amod=conditional'
p3041
I252
sS'nsubj=government'
p3042
I1207
sS'w+1=anybody'
p3043
I1713
sS'nsubj=concern'
p3044
I1154
sS'w-2=defense'
p3045
I3344
sS'partmod=expect'
p3046
I1455
sS'dobj=Mosul'
p3047
I607
sS'w+2=forever'
p3048
I2232
sS'w-2=North'
p3049
I3167
sS'w+1=190'
p3050
I1555
sS'w+2=cndp'
p3051
I2155
sS'dobj=Leone'
p3052
I597
sS'prep=follow'
p3053
I1488
sS'dobj=behavior'
p3054
I678
sS'w+2=enter'
p3055
I2209
sS'advmod=really'
p3056
I216
sS'w-2=four'
p3057
I3419
sS'w+1=survivor'
p3058
I1881
sS'w-2=Scott'
p3059
I3181
sS'w-2=bomber'
p3060
I3270
sS'ccomp=would'
p3061
I354
sS'nsubj=release'
p3062
I1299
sS'w-1=Carter'
p3063
I2638
sS'w-2=Aceh'
p3064
I3067
sS'nsubj=vote'
p3065
I1361
sS'w-1=Conte'
p3066
I2643
sS'w+2=United'
p3067
I2070
sS'dobj=other'
p3068
I830
sS'acomp=homeless'
p3069
I6
sS'w+1=prison'
p3070
I1844
sS'w-1=ndp'
p3071
I2895
sS'w-1=month'
p3072
I2888
sS'w-1=by'
p3073
I2767
sS'w-1=see'
p3074
I2948
sS'w+1=seriously'
p3075
I1862
sS'w-1=be'
p3076
I2753
sS'advmod=eventually'
p3077
I170
sS'w+1=Geneva'
p3078
I1612
sS'advcl=hiss'
p3079
I71
sS'w-1=day'
p3080
I2793
sS'w+2=livelihood'
p3081
I2320
sS'w+2=scene'
p3082
I2466
sS'dobj=navy'
p3083
I818
sS'acomp=unchecked'
p3084
I15
sS'nsubj=teenager'
p3085
I1337
sS'w+2=sell'
p3086
I2473
sS'nsubj=visit'
p3087
I1360
sS'dobj=Port'
p3088
I622
sS'w+1=untreated'
p3089
I1915
sS'acomp=intact'
p3090
I9
sS'advmod=sometime'
p3091
I227
sS'w+2=commuter'
p3092
I2160
sS'w-1=Bush'
p3093
I2637
sS'ccomp=destroy'
p3094
I296
sS'nsubj=clash'
p3095
I1149
sS'dobj=Furman'
p3096
I571
sS'mark=because'
p3097
I960
sS'aux=might'
p3098
I263
sS'xcomp=insult'
p3099
I3871
sS'dobj=series'
p3100
I892
sS'w-2=Anwar'
p3101
I3072
sS'w+2=continent'
p3102
I2166
sS'advmod=sooner'
p3103
I230
sS'w+1=troop'
p3104
I1897
sS'w+2=July'
p3105
I2022
sS'nsubjpass=husband-to-be'
p3106
I1403
sS'w-2=Korea'
p3107
I3136
sS'conj=find'
p3108
I387
sS'nsubj=practice'
p3109
I1282
sS'w+2=native'
p3110
I2362
sS'w-2=border'
p3111
I3272
sS'w-1=shakya'
p3112
I2951
sS'dobj=homeland'
p3113
I768
sS'w-2=Esperanza'
p3114
I3105
sS'nsubjpass=troops'
p3115
I1432
sS'w+2=what'
p3116
I2588
sS'advcl=weave'
p3117
I129
sS'w-2=coverage'
p3118
I3328
sS'w+2=200'
p3119
I1956
sS'w-2=text-align'
p3120
I3718
sS'w+2=witness'
p3121
I2599
sS'dobj=vacuum'
p3122
I932
sS'w-2=poll'
p3123
I3582
sS'dobj=Germany'
p3124
I575
sS'xcomp=divide'
p3125
I3838
sS'dobj=movement'
p3126
I815
sS'w-2=agency'
p3127
I3226
sS'advmod=once'
p3128
I208
sS'xcomp=come'
p3129
I3820
sS'w-1=which'
p3130
I3011
sS'w-2=U.N.'
p3131
I3195
sS'w+1=people'
p3132
I1838
sS'w-1=temporarily'
p3133
I2975
sS'conj=reverse'
p3134
I425
sS'nsubj=adjournment'
p3135
I1112
sS'nsubj=Chirac'
p3136
I1005
sS'dobj=Zimbabwe'
p3137
I656
sS'dobj=month'
p3138
I811
sS'w-1=I'
p3139
I2659
sS'w-2=mission'
p3140
I3516
sS'nsubj=explosion'
p3141
I1189
sS'ccomp=cut'
p3142
I293
sS'w-1=from'
p3143
I2835
sS'w+1=Canadian'
p3144
I1591
sS'w-1=only'
p3145
I2904
sS'w-2=resolve'
p3146
I3634
sS'w+2=by'
p3147
I2134
sS'w+2=city'
p3148
I2151
sS'xcomp=achievable'
p3149
I3800
sS'w-2=reconciliation'
p3150
I3621
sS'w+1=up'
p3151
I1916
sS'nsubj=customer'
p3152
I1169
sS'xcomp=protest'
p3153
I3902
sS'nsubj=amount'
p3154
I1122
sS'dobj=Russia'
p3155
I628
sS'nsubj=rise'
p3156
I1306
sS'w-1=death'
p3157
I2794
sS'w-2=wood'
p3158
I3788
sS'dobj=colony'
p3159
I709
sS'w-1=Lahoud'
p3160
I2675
sS'w+2=sense'
p3161
I2475
sS'w-1=Ray'
p3162
I2699
sS'nsubjpass=#PRP#'
p3163
I1374
sS'w-1=mostly'
p3164
I2890
sS'nsubj=bomb'
p3165
I1136
sS'nsubj=Habimana'
p3166
I1023
sS'w+2=russian'
p3167
I2462
sS'w+2=huge'
p3168
I2275
sS'aux=would'
p3169
I268
sS'ccomp=miss'
p3170
I323
sS'w+1=Chad'
p3171
I1593
sS'nsubjpass=ministry'
p3172
I1410
sS'advcl=accomplish'
p3173
I27
sS'w+2=much'
p3174
I2355
sS'w+2=vacation'
p3175
I2567
sS'w+2=Iraqis'
p3176
I2015
sS'w-2=breakthrough'
p3177
I3274
sS'w+1=230,000'
p3178
I1558
sS'nsubj=reduction'
p3179
I1296
sS'w+1=immediately'
p3180
I1789
sS'dobj=ash'
p3181
I672
sS'w-1=seconds'
p3182
I2946
sS'w-2=Truong'
p3183
I3193
sS'w+2=Pakistan'
p3184
I2041
sS'nsubj=Taylor'
p3185
I1101
sS'nsubjpass=laborer'
p3186
I1407
sS'w+2=trust'
p3187
I2554
sS'w+2=rally'
p3188
I2444
sS'w+2=small'
p3189
I2495
sS'w-1=inspector'
p3190
I2853
sS'w+2=relationship'
p3191
I2447
sS'w+2=Miles'
p3192
I2033
sS'w+2=come'
p3193
I2158
sS'w-2=suicide'
p3194
I3697
sS'advmod=ago'
p3195
I138
sS'w+2=digital'
p3196
I2185
sS'w-2=generally'
p3197
I3422
sS'w+1=and'
p3198
I1710
sS'dobj=base'
p3199
I675
sS'w-2=lawmaker'
p3200
I3484
sS'w-1=Sharif'
p3201
I2712
sS'parataxis=receive'
p3202
I1448
sS'w-2=Ambassador'
p3203
I3070
sS'advcl=capture'
p3204
I35
sS'advmod=probably'
p3205
I214
sS'w-1=slightly'
p3206
I2960
sS'w-1=family'
p3207
I2818
sS'w-2=Romney'
p3208
I3176
sS'dobj=trace'
p3209
I928
sS'w-2=pilgrim'
p3210
I3576
sS'w+1=issue'
p3211
I1795
sS'w-2=2005'
p3212
I3049
sS'prt=up'
p3213
I1519
sS'advcl=close'
p3214
I38
sS'w+2=this'
p3215
I2535
sS'w-1=farmland'
p3216
I2821
sS'w-1=Boucher'
p3217
I2636
sS'dobj=London'
p3218
I598
sS'w+2=since'
p3219
I2489
sS'parataxis=able'
p3220
I1441
sS'w-1=Olmert'
p3221
I2692
sS'w-1=Farhat'
p3222
I2648
sS'w-2=2004'
p3223
I3048
sS'w-2=Hirsi'
p3224
I3120
sS'w-2=transitional'
p3225
I3741
sS'w-2=companion'
p3226
I3306
sS'dobj=legislator'
p3227
I791
sS'csubj=unwrap'
p3228
I459
sS'dobj=sense'
p3229
I891
sS'acomp=ill'
p3230
I8
sS'w+2=series'
p3231
I2476
sS'w+2=label'
p3232
I2302
sS'advmod=naked'
p3233
I199
sS'dobj=airspace'
p3234
I661
sS'w+2=-rcb-'
p3235
I1940
sS'w+2=program'
p3236
I2433
sS'w+2=scenario'
p3237
I2465
sS'w+2=pakistani'
p3238
I2396
sS'dobj=father'
p3239
I743
sS'nsubj=Rice'
p3240
I1086
sS'w-2=intelligence'
p3241
I3468
sS'advcl=lose'
p3242
I85
sS'w+1=not'
p3243
I1819
sS'advmod=safely'
p3244
I219
sS'nsubj=Jones'
p3245
I1043
sS'w-2=gun'
p3246
I3431
sS'nsubj=flood'
p3247
I1199
sS'nsubj=tragedy'
p3248
I1352
sS'nsubjpass=many'
p3249
I1409
sS'dobj=orbiter'
p3250
I827
sS'xcomp=cite'
p3251
I3819
sS'nsubjpass=house'
p3252
I1402
sS'dobj=city'
p3253
I704
sS'nsubjpass=neighbor'
p3254
I1412
sS'nsubj=Truman'
p3255
I1104
sS'ccomp=want'
p3256
I350
sS'w+1=have'
p3257
I1775
sS'nsubj=lawmaker'
p3258
I1235
sS'nsubjpass=road'
p3259
I1426
sS'ccomp=count'
p3260
I290
sS'nsubj=Phillips'
p3261
I1082
sS'advcl=spend'
p3262
I120
sS'w-2=life'
p3263
I3490
sS'w-2=ago'
p3264
I3227
sS'w+1=ten'
p3265
I1883
sS'w+2=haste'
p3266
I2256
sS'w+2=resident'
p3267
I2453
sS'w+2=indelible'
p3268
I2286
sS'w-1=vacuum'
p3269
I2997
sS'w+2=litter'
p3270
I2317
sS'w+2=2005'
p3271
I1958
sS'w+2=authorize'
p3272
I2103
sS'w-2=Kosovo'
p3273
I3138
sS'w+2=Elysee'
p3274
I2000
sS'w-1=he'
p3275
I2845
sS'w-2=2008'
p3276
I3050
sS'nsubj=refusal'
p3277
I1298
sS'dobj=spotlight'
p3278
I906
sS'w-2=84'
p3279
I3064
sS'w+2=more'
p3280
I2350
sS'nsubj=Smith'
p3281
I1098
sS'w-2=John'
p3282
I3132
sS'w+1=side'
p3283
I1870
sS'nsubj=friend'
p3284
I1204
sS'w+2=maze'
p3285
I2337
sS'dobj=approval'
p3286
I668
sS'acomp=open'
p3287
I10
sS'w-2=rival'
p3288
I3639
sS'dobj=husband'
p3289
I775
sS'w-2=about'
p3290
I3215
sS'dobj=game'
p3291
I749
sS'w+1=London'
p3292
I1641
sS'w+2=southern'
p3293
I2503
sS'partmod=date'
p3294
I1453
sS'nsubj=Lafayette'
p3295
I1052
sS'nsubj=land'
p3296
I1232
sS'ccomp=violate'
p3297
I349
sS'w+2=navy'
p3298
I2363
sS'ccomp=give'
p3299
I313
sS'w-1=religion'
p3300
I2936
sS'w+1=unfinished'
p3301
I1907
sS'w+2=doubtful'
p3302
I2196
sS'xcomp=guarantee'
p3303
I3859
sS'w-1=completely'
p3304
I2782
sS'xcomp=country'
p3305
I3822
sS'dep=able'
p3306
I465
sS'w+1=corrupt'
p3307
I1736
sS'w+2=homeless'
p3308
I2268
sS'w+2=today'
p3309
I2541
sS'conj=wait'
p3310
I446
sS'w+1=themselves'
p3311
I1886
sS'w+1=nearly'
p3312
I1814
sS'prt=out'
p3313
I1517
sS'xcomp=slow'
p3314
I3921
sS'dep=Iraq'
p3315
I463
sS'w+1=whatever'
p3316
I1925
sS'w-1=record'
p3317
I2935
sS'w-2=international'
p3318
I3470
sS'w-2=military'
p3319
I3510
sS'nsubj=crash'
p3320
I1166
sS'dobj=many'
p3321
I796
sS'w-1=Hicks'
p3322
I2654
sS'w+2=whether'
p3323
I2591
sS'w-2=unable'
p3324
I3751
sS'tmod=today'
p3325
I1533
sS'w+2=at'
p3326
I2101
sS'w+1=Guatemala'
p3327
I1620
sS'dep=issue'
p3328
I496
sS'w-1=posting'
p3329
I2924
sS'w+2=three'
p3330
I2538
sS'w-2=10'
p3331
I3037
sS'w+2=1,000'
p3332
I1944
sS'dobj=side'
p3333
I899
sS'w+1=two'
p3334
I1899
sS'nsubj=falloff'
p3335
I1191
sS'w-1=brigade'
p3336
I2764
sS'w-1=violence'
p3337
I3000
sS'w+1=Party'
p3338
I1667
sS'w+1=illegally'
p3339
I1788
sS'xcomp=live'
p3340
I3882
sS'w-1=seven'
p3341
I2950
sS'w-2=thoroughly'
p3342
I3728
sS'w+2=Mai'
p3343
I2032
sS'nsubj=result'
p3344
I1303
sS'dobj=Ecuador'
p3345
I567
sS'prep=for'
p3346
I1489
sS'w-1=Pennsylvania'
p3347
I2694
sS'dep=that'
p3348
I517
sS'xcomp=wall'
p3349
I3950
sS'nsubj=force'
p3350
I1201
sS'w-2=together'
p3351
I3736
sS'dobj=policy-making'
p3352
I850
sS'dobj=tape'
p3353
I920
sS'xcomp=beat'
p3354
I3810
sS'w+2=they'
p3355
I2534
sS'purpcl=help'
p3356
I1520
sS'advcl=consecrate'
p3357
I42
sS'nsubj=Bush'
p3358
I999
sS'conj=marry'
p3359
I403
sS'dep=flood'
p3360
I486
sS'advcl=want'
p3361
I127
sS'dobj=leader'
p3362
I789
sS'w+2=as'
p3363
I2099
sS'nsubj=politician'
p3364
I1281
sS'w-1=ago'
p3365
I2736
sS'w-2=Mr.'
p3366
I3156
sS'w-2=everyone'
p3367
I3383
sS'w+2=approach'
p3368
I2095
sS'parataxis=have'
p3369
I1446
sS'w+1=Mexico'
p3370
I1647
sS'w+2=document'
p3371
I2192
sS'w+2=we'
p3372
I2582
sS'w-1=probably'
p3373
I2927
sS'w+1=unanswered'
p3374
I1900
sS'w-2=Houston'
p3375
I3121
sS'conj=face'
p3376
I385
sS'dobj=army'
p3377
I670
sS'conj=reach'
p3378
I419
sS'advmod=long'
p3379
I190
sS'advmod=always'
p3380
I144
sS'w+1=soon'
p3381
I1877
sS'w-2=also'
p3382
I3236
sS'w-2=monuc'
p3383
I3519
sS'w-1=ambassador'
p3384
I2742
sS'nsubj=ambassador'
p3385
I1121
sS'advmod=much'
p3386
I198
sS'w-2=anemia'
p3387
I3239
sS'w-2=whenever'
p3388
I3774
sS'xcomp=return'
p3389
I3911
sS'w-2=several'
p3390
I3661
sS'dobj=Mombasa'
p3391
I606
sS'dobj=Clinton'
p3392
I553
sS'dobj=dozen'
p3393
I730
sS'w-1=politician'
p3394
I2922
sS'nsubjpass=anemia'
p3395
I1382
sS'w+1=Tanzania'
p3396
I1686
sS'w+2=casualty'
p3397
I2144
sS'w+1=Hillary'
p3398
I1622
sS'dobj=choice'
p3399
I702
sS'w-2=simply'
p3400
I3671
sS'w+2=plan'
p3401
I2410
sS'dobj=U.K.'
p3402
I647
sS'dep=call'
p3403
I474
sS'w+2=she'
p3404
I2482
sS'nsubj=temperature'
p3405
I1338
sS'advcl=happy'
p3406
I66
sS'w-1=contractor'
p3407
I2786
sS'w+2=with'
p3408
I2596
sS'w-2=body'
p3409
I3268
sS'nsubj=day'
p3410
I1173
sS'nsubjpass=boundary'
p3411
I1385
sS'w-2=patient'
p3412
I3570
sS'w+1=Belgium'
p3413
I1585
sS'w-1=Abubakar'
p3414
I2624
sS'w+1=my'
p3415
I1813
sS'w-2=Cambodia'
p3416
I3087
sS'xcomp=child'
p3417
I3818
sS'advcl=begin'
p3418
I33
sS'prep=off'
p3419
I1496
sS'w-1=people'
p3420
I2912
sS'advcl=pass'
p3421
I97
sS'ccomp=use'
p3422
I347
sS'xcomp=hamper'
p3423
I3861
sS'acomp=destitute'
p3424
I3
sS'w-2=violence'
p3425
I3762
sS'w-2=month'
p3426
I3518
sS'w+2=Sunday'
p3427
I2061
sS'w+2=or'
p3428
I2386
sS'w-2=crown'
p3429
I3334
sS'nsubj=exchange'
p3430
I1187
sS'w+2=300'
p3431
I1963
sS'nsubj=rift'
p3432
I1304
sS'w-1=soldier'
p3433
I2961
sS'w+2=of'
p3434
I2376
sS'w-2=once'
p3435
I3549
sS'w+2=market'
p3436
I2333
sS'advmod=sometimes'
p3437
I228
sS'w-1=resident'
p3438
I2938
sS'w+2=grisly'
p3439
I2250
sS'w+2=on'
p3440
I2380
sS'conj=believe'
p3441
I366
sS'w+1=Australia'
p3442
I1580
sS'w+2=evacuation'
p3443
I2212
sS'w-1=spot'
p3444
I2964
sS'w+2=25,000'
p3445
I1960
sS'w-1=that'
p3446
I2977
sS'w-2=Koreans'
p3447
I3137
sS'w+2=Qatar'
p3448
I2047
sS'w-1=option'
p3449
I2905
sS'w+1=so'
p3450
I1874
sS'nsubj=Sall'
p3451
I1092
sS'w+2=September'
p3452
I2055
sS'dep=behind'
p3453
I473
sS'w+2=Rift'
p3454
I2049
sS'w-2=ultimatum'
p3455
I3750
sS'w+2=just'
p3456
I2301
sS'w-1=much'
p3457
I2892
sS'w-2=happen'
p3458
I3434
sS'cc=or'
p3459
I275
sS'nsubj=collapse'
p3460
I1150
sS'w-2=move'
p3461
I3524
sS'w+2=port'
p3462
I2417
sS'w+1=Zimbabwe'
p3463
I1698
sS'w-1=while'
p3464
I3012
sS'nsubjpass=question'
p3465
I1423
sS'prt=over'
p3466
I1518
sS'prep=without'
p3467
I1511
sS'w+1=56,000'
p3468
I1567
sS'w-2=hurt'
p3469
I3454
sS'w-2=Sunday'
p3470
I3189
sS'w-1=cyclone'
p3471
I2792
sS'nsubj=hour'
p3472
I1213
sS'w-1=finally'
p3473
I2828
sS'w+1=Harare'
p3474
I1621
sS'w+2=five'
p3475
I2225
sS'w+1=homeless'
p3476
I1781
sS'nsubjpass=Ababda'
p3477
I1375
sS'w-2=Peninsula'
p3478
I3171
sS'conj=not'
p3479
I409
sS'nsubj=inspector'
p3480
I1223
sS'w+2=two'
p3481
I2556
sS'w+1=130,000'
p3482
I1547
sS'w-2=Japan'
p3483
I3128
sS'w+2=half'
p3484
I2253
sS'nsubj=religion'
p3485
I1300
sS'csubj=fight'
p3486
I455
sS'w-2=departure'
p3487
I3348
sS'nsubjpass=fight'
p3488
I1396
sS'dobj=wall'
p3489
I938
sS'advmod=often'
p3490
I207
sS'dobj=possibility'
p3491
I854
sS'w+1=score'
p3492
I1857
sS'acomp=disappointed'
p3493
I4
sS'w-1=Ethiopians'
p3494
I2647
sS'dobj=dweller'
p3495
I731
sS'w+1=over'
p3496
I1834
sS'conj=enter'
p3497
I382
sS'w-1=US'
p3498
I2725
sS'w+2=3,500'
p3499
I1961
sS'w+2=ancestral'
p3500
I2088
sS'w+2=daughter'
p3501
I2175
sS'xcomp=take'
p3502
I3928
sS'w-2=aviation'
p3503
I3254
sS'w+1=Kansas'
p3504
I1633
sS'dobj=patch'
p3505
I841
sS'w-2=here'
p3506
I3442
sS'w+1=unscathed'
p3507
I1911
sS'dep=grind'
p3508
I490
sS'w-1=person'
p3509
I2913
sS'nsubj=predecessor'
p3510
I1283
sS'advmod=prematurely'
p3511
I212
sS'w+1=several'
p3512
I1864
sS'w-2=Iraq'
p3513
I3124
sS'partmod=involve'
p3514
I1460
sS'dobj=chief'
p3515
I700
sS'prep=until'
p3516
I1507
sS'w+1=Texas'
p3517
I1688
sS'w-2=child'
p3518
I3292
sS'w-2=this'
p3519
I3727
sS'w+2=General'
p3520
I2007
sS'w+1=gap'
p3521
I1769
sS'conj=travel'
p3522
I440
sS'w+2=radical'
p3523
I2443
sS'nsubj=talk'
p3524
I1333
sS'ccomp=closer'
p3525
I287
sS'xcomp=there'
p3526
I3932
sS'aux=do'
p3527
I260
sS'w-2=if'
p3528
I3455
sS'xcomp=scrape'
p3529
I3914
sS'w+1=Jerusalem'
p3530
I1632
sS'w-2=hundred'
p3531
I3453
sS'w+1=Middle'
p3532
I1648
sS'w-1=Council'
p3533
I2644
sS'w-1=camp'
p3534
I2770
sS'nsubj=institution'
p3535
I1224
sS'xcomp=republic'
p3536
I3910
sS'nsubj=fire'
p3537
I1198
sS'w-2=largely'
p3538
I3481
sS'w-2=Bhutto'
p3539
I3082
sS'advmod=already'
p3540
I141
sS'w-2=right'
p3541
I3637
sS'dobj=capital'
p3542
I691
sS'conj=meet'
p3543
I404
sS'dobj=population'
p3544
I852
sS'w-2=guard'
p3545
I3429
sS'w+2=another'
p3546
I2092
sS'nsubj=people'
p3547
I1268
sS'xcomp=hold'
p3548
I3864
sS'w+1=Tehran'
p3549
I1687
sS'xcomp=cripple'
p3550
I3823
sS'w+2=decision'
p3551
I2178
sS'w+2=gas'
p3552
I2243
sS'conj=dry'
p3553
I380
sS'w+2=airfield'
p3554
I2084
sS'w+2=people'
p3555
I2405
sS'w+1=line'
p3556
I1804
sS'dobj=York'
p3557
I655
sS'dep=Chad'
p3558
I462
sS'nsubj=speed'
p3559
I1325
sS'w-2=Kyoto'
p3560
I3140
sS'w+2=parent'
p3561
I2400
sS'xcomp=give'
p3562
I3856
sS'w-2=--'
p3563
I3035
sS'w-1=victim'
p3564
I2998
sS'w+2=indigenous'
p3565
I2288
sS'w+1=seek'
p3566
I1860
sS'w-1=stalk'
p3567
I2965
sS'w+1=Okinawa'
p3568
I1664
sS'w+2=stone'
p3569
I2515
sS'acomp=unscathed'
p3570
I20
sS'advmod=longer'
p3571
I191
sS'dobj=even'
p3572
I734
sS'nsubj=continent'
p3573
I1158
sS'advmod=little'
p3574
I189
sS'w-1=body'
p3575
I2759
sS'xcomp=vulnerable'
p3576
I3948
sS'w+2=bone'
p3577
I2125
sS'w+1=Britain'
p3578
I1588
sS'w+2=Southern'
p3579
I2058
sS'nsubjpass=field'
p3580
I1395
sS'ccomp=displace'
p3581
I299
sS'nsubj=McHenry'
p3582
I1060
sS'w+2=scrape'
p3583
I2469
sS'w+1=one'
p3584
I1826
sS'xcomp=poor'
p3585
I3896
sS'w-1=advocate'
p3586
I2732
sS'w+1=Mauritanian'
p3587
I1646
sS'w+2=week'
p3588
I2584
sS'w+1=any'
p3589
I1712
sS'dobj=cowboy'
p3590
I717
sS'advmod=about'
p3591
I134
sS'w-1=field'
p3592
I2825
sS'w-1=institution'
p3593
I2854
sS'mark=than'
p3594
I970
sS'nsubj=country'
p3595
I1163
sS'w+2=office'
p3596
I2377
sS'nsubj=Aristide'
p3597
I992
sS'w+1=Nigeria'
p3598
I1660
sS'w-1=this'
p3599
I2982
sS'w-1=reportedly'
p3600
I2937
sS'w-2=suit'
p3601
I3698
sS'nsubj=departure'
p3602
I1179
sS'w+2=wait'
p3603
I2576
sS'xcomp=prepared'
p3604
I3898
sS'w-2=institution'
p3605
I3465
sS'dobj=Olympia'
p3606
I615
sS'w+1=follow'
p3607
I1762
sS'w-2=refuse'
p3608
I3626
sS'nsubj=everybody'
p3609
I1186
sS'nsubjpass=country'
p3610
I1390
sS'w-2=business'
p3611
I3278
sS'dobj=Yemen'
p3612
I654
sS'w-1=teacher'
p3613
I2974
sS'w-2=program'
p3614
I3607
sS'w+2=air'
p3615
I2083
sS'w-1=work'
p3616
I3022
sS'conj=christian'
p3617
I370
sS'w+2=six'
p3618
I2492
sS'nsubj=loneliness'
p3619
I1238
sS'nsubj=Sazegara'
p3620
I1094
sS'w+2=170'
p3621
I1951
sS'tmod=June'
p3622
I1527
sS'nsubj=bomber'
p3623
I1137
sS'nsubj=hundreds-of-thousand'
p3624
I1214
sS'w+2=50'
p3625
I1965
sS'w+1=Thiaroye'
p3626
I1689
sS'nsubj=adviser'
p3627
I1114
sS'conj=damage'
p3628
I374
sS'w+2=interim'
p3629
I2290
sS'w-2=vehicle'
p3630
I3758
sS'w+1=;'
p3631
I1572
sS'w+2=time'
p3632
I2539
sS'nsubj=Tsvangirai'
p3633
I1106
sS'w-1=Baghdad'
p3634
I2631
sS'partmod=try'
p3635
I1467
sS'w+2=Belgium'
p3636
I1981
sS'dobj=gang'
p3637
I750
sS"w+2='s"
p3638
I1935
sS'w-1=Rostropovich'
p3639
I2702
sS'w-1=Diaw'
p3640
I2646
sS'w-2=facility'
p3641
I3390
sS'ccomp=first'
p3642
I310
sS'w+1=widow'
p3643
I1928
sS'w+1=home'
p3644
I1780
sS'w+2=spread'
p3645
I2507
sS'w-2=flower'
p3646
I3410
sS'w-1=already'
p3647
I2739
sS'nsubj=journalist'
p3648
I1228
sS'w+2=hillside'
p3649
I2265
sS'w+2=Bhutto'
p3650
I1983
sS'mark=until'
p3651
I971
sS'w+2=Rodriguez'
p3652
I2051
sS'w+2=group'
p3653
I2251
sS'nsubj=king'
p3654
I1231
sS'dep=easier'
p3655
I483
sS'advcl=find'
p3656
I58
sS'nsubj=crisis'
p3657
I1168
sS'dobj=Johnson'
p3658
I591
sS'conj=leave'
p3659
I398
sS'xcomp=avoid'
p3660
I3807
sS'ccomp=contain'
p3661
I289
sS'w+2=CIA'
p3662
I1987
sS'w+2=mixed'
p3663
I2347
sS'nsubjpass=family'
p3664
I1394
sS'nsubj=boat'
p3665
I1134
sS'w-1=basically'
p3666
I2751
sS'dobj=scene'
p3667
I887
sS'w+2=before'
p3668
I2115
sS'w+2=countryside'
p3669
I2170
sS'w+1=unpicked'
p3670
I1908
sS'w+2=mound'
p3671
I2354
sS'w-1=Thursday'
p3672
I2719
sS'ccomp=able'
p3673
I276
sS'dep=much'
p3674
I502
sS'w+2=Camp'
p3675
I1988
sS'dobj=family'
p3676
I740
sS'w-2=residual'
p3677
I3633
sS'w+2=purely'
p3678
I2439
sS'dobj=Texas'
p3679
I644
sS'w+2=opposition'
p3680
I2385
sS'mark=before'
p3681
I961
sS'dobj=rest'
p3682
I876
sS'w-2=anybody'
p3683
I3244
sS'nsubj=thing'
p3684
I1343
sS'w+2=Musharraf'
p3685
I2035
sS'advmod=back'
p3686
I149
sS'w-2=Arabs'
p3687
I3073
sS'advmod=moreover'
p3688
I196
sS'ccomp=boast'
p3689
I284
sS'w-2=Americans'
p3690
I3071
sS'w+2=visit'
p3691
I2572
sS'w-2=fearful'
p3692
I3397
sS'advmod=ironically'
p3693
I183
sS'nsubj=Omar'
p3694
I1078
sS'w-1=secretary'
p3695
I2947
sS'w-1=might'
p3696
I2879
sS'ccomp=turn'
p3697
I346
sS'w-1=into'
p3698
I2856
sS'w+2=buffer'
p3699
I2129
sS'ccomp=lie'
p3700
I320
sS'dobj=some'
p3701
I904
sS'w-2=be'
p3702
I3261
sS'conj=know'
p3703
I395
sS'dobj=memoirs'
p3704
I804
sS'nsubj=Odinga'
p3705
I1075
sS'w+2=embassy'
p3706
I2206
sS'w+1=three'
p3707
I1894
sS'w+1=untouched'
p3708
I1914
sS'nsubjpass=some'
p3709
I1427
sS'w+2=toward'
p3710
I2545
sS'w-2=part'
p3711
I3567
sS'w+1=Lebanon'
p3712
I1639
sS'w-1=doubt'
p3713
I2804
sS'nsubj=hygiene'
p3714
I1216
sS'w+1=-'
p3715
I1539
sS'w+1=Tuesday'
p3716
I1690
sS'w-2=see'
p3717
I3653
sS'w-2=might'
p3718
I3508
sS'nsubj=tension'
p3719
I1339
sS'w+2=presidential'
p3720
I2426
sS'w-2=distribute'
p3721
I3361
sS'w-2=action'
p3722
I3216
sS'w-1=rebel'
p3723
I2933
sS'nsubj=Areva'
p3724
I991
sS'w+1=six'
p3725
I1872
sS'w-2=congressional'
p3726
I3317
sS'w+1=all'
p3727
I1706
sS'w-2=ebony'
p3728
I3367
sS'dobj=system'
p3729
I919
sS'w+2=500'
p3730
I1966
sS'advcl=remove'
p3731
I109
sS'w-1=womenafter'
p3732
I3021
sS'w+1=patient'
p3733
I1837
sS'w-2=commit'
p3734
I3304
sS'conj=raise'
p3735
I418
sS'iobj=world'
p3736
I956
sS'w+2=Palestinians'
p3737
I2043
sS'advcl=replace'
p3738
I110
sS'w-2=clear'
p3739
I3299
sS'ccomp=cure'
p3740
I292
sS'w+2=village'
p3741
I2570
sS'w+2=.'
p3742
I1942
sS'nsubj=Milibandsaid'
p3743
I1062
sS'nsubj=Chad'
p3744
I1002
sS'ccomp=number'
p3745
I325
sS'w-2=want'
p3746
I3765
sS'w+2=any'
p3747
I2093
sS'w+2=post'
p3748
I2421
sS'dobj=profession'
p3749
I861
sS'dobj=France'
p3750
I570
sS'w-2=Moi'
p3751
I3154
sS'w+1=donor'
p3752
I1745
sS'dobj=street'
p3753
I914
sS'dobj=outing'
p3754
I831
sS'dobj=woman'
p3755
I946
sS'w-2=which'
p3756
I3776
sS'w-2=system'
p3757
I3706
sS'w+1=no'
p3758
I1817
sS'conj=set'
p3759
I430
sS'conj=sew'
p3760
I432
sS'w-2=conference'
p3761
I3312
sS'dep=either'
p3762
I484
sS'nsubj=Americans'
p3763
I986
sS'tmod=#DATE#'
p3764
I1525
sS'w-1=anybody'
p3765
I2747
sS'w+2=enough'
p3766
I2208
sS'w-2=older'
p3767
I3547
sS'advmod=big'
p3768
I155
sS'nsubj=percent'
p3769
I1269
sS'nsubj=communist'
p3770
I1152
sS'w-1=extremist'
p3771
I2816
sS'prep=near'
p3772
I1494
sS'dobj=flower'
p3773
I745
sS'w+2=only'
p3774
I2383
sS'ccomp=take'
p3775
I340
sS'w+1=?'
p3776
I1573
sS'w-2=flight'
p3777
I3408
sS'advmod=nearly'
p3778
I201
sS'w-2=agreement'
p3779
I3229
sS'cop=be'
p3780
I451
sS'w-2=wish'
p3781
I3783
sS'nsubj=allegation'
p3782
I1120
sS'nsubjpass=head'
p3783
I1400
sS'w-2=guerrilla'
p3784
I3430
sS'w+2=orphanage'
p3785
I2390
sS'w+2=school'
p3786
I2467
sS'w+1=disabled'
p3787
I1744
sS'dobj=airfield'
p3788
I660
sS'w-2=minister'
p3789
I3514
sS'dobj=war'
p3790
I939
sS'advcl=occur'
p3791
I92
sS'w-2=pray'
p3792
I3591
sS'dep=tear'
p3793
I516
sS'w+2=illegal'
p3794
I2280
sS'w-2=say'
p3795
I3646
sS'dobj=Afghanistan'
p3796
I537
sS'w+1=five'
p3797
I1759
sS'w+2=the'
p3798
I2530
sS'prep=at'
p3799
I1478
sS'w-1=Phillips'
p3800
I2695
sS'prep=as'
p3801
I1477
sS'w-2=Mali'
p3802
I3144
sS'w+2=thousand'
p3803
I2537
sS'dobj=approach'
p3804
I667
sS'nsubj=Uganda'
p3805
I1107
sS'xcomp=happy'
p3806
I3862
sS'w+2=unrepresented'
p3807
I2562
sS'w-1=:'
p3808
I2623
sS'w-2=but'
p3809
I3280
sS"w-1='"
p3810
I2610
sS'w+2=mutineer'
p3811
I2357
sS'w-2=girl'
p3812
I3424
sS'dobj=town'
p3813
I927
sS'w-1=.'
p3814
I2618
sS'w-1=-'
p3815
I2615
sS'w-1=,'
p3816
I2614
sS'dobj=refusal'
p3817
I870
sS'dobj=mosque'
p3818
I812
sS'w-1=front'
p3819
I2836
sS'dep=president'
p3820
I507
sS'xcomp=free'
p3821
I3855
sS'w-1=Africans'
p3822
I2625
sS'w-2=few'
p3823
I3399
sS'w-2=enter'
p3824
I3376
sS'w-1=son'
p3825
I2963
sS'w-1=Bemba'
p3826
I2633
sS'w-2=tell'
p3827
I3714
sS'w-2=offer'
p3828
I3543
sS'w+2=one'
p3829
I2382
sS'w+2=Baghdad'
p3830
I1980
sS'w+1=security'
p3831
I1859
sS'dobj=opportunity'
p3832
I825
sS'w+1=another'
p3833
I1711
sS'w-2=scared'
p3834
I3647
sS'w+2=plenty'
p3835
I2411
sS'w+2=door'
p3836
I2194
sS'w-1=1995'
p3837
I2620
sS'xcomp=defenseless'
p3838
I3829
sS'w-2=minority'
p3839
I3515
sS'w-2=temperature'
p3840
I3715
sS'w+1=Saudi'
p3841
I1674
sS'w-1=trial'
p3842
I2990
sS'w-1=a'
p3843
I2727
sS'w+2=republic'
p3844
I2451
sS'nsubj=investment'
p3845
I1226
sS'nsubjpass=which'
p3846
I1437
sS'nsubj=fighter'
p3847
I1196
sS'w+2=work'
p3848
I2602
sS'w-2=3-million-year-old'
p3849
I3055
sS'xcomp=struggle'
p3850
I3926
sS'conj=receive'
p3851
I421
sS'mark=as'
p3852
I959
sS'w-2=survivor'
p3853
I3705
sS'w+2=security'
p3854
I2472
sS'dobj=service'
p3855
I893
sS'dobj=land'
p3856
I786
sS'dobj=school'
p3857
I888
sS'advcl=confiscate'
p3858
I41
sS'ccomp=think'
p3859
I343
sS'w-2=hard'
p3860
I3435
sS'w-1=-rrb-'
p3861
I2617
sS'ccomp=faster'
p3862
I307
sS'w+2=jail'
p3863
I2297
sS'prep=except'
p3864
I1487
sS'w-2=Gabriel'
p3865
I3110
sS'w+1=again'
p3866
I1702
sS'advmod=that'
p3867
I234
sS'w-2=son'
p3868
I3679
sS'w+1=hold'
p3869
I1779
sS'dobj=Delta'
p3870
I562
sS'dobj=Iraq'
p3871
I586
sS'dep=family'
p3872
I485
sS'ccomp=leave'
p3873
I319
sS'w+1=President'
p3874
I1669
sS'w-2=States'
p3875
I3188
sS'dobj=Mexico'
p3876
I604
sS'xcomp=destitute'
p3877
I3831
sS'w+2=then'
p3878
I2532
sS'w-2=year'
p3879
I3792
sS'w-1=affiliation'
p3880
I2733
sS'dobj=landscape'
p3881
I788
sS'ccomp=back'
p3882
I281
sS'dobj=Kenya'
p3883
I595
sS'dobj=trademark'
p3884
I929
sS'w+1=fall'
p3885
I1756
sS'dep=go'
p3886
I489
sS'w-1=Khartoum'
p3887
I2669
sS'w+1=last'
p3888
I1800
sS'nsubj=activist'
p3889
I1111
sS'w+2=Thai'
p3890
I2063
sS'advcl=hold'
p3891
I72
sS'advcl=hole'
p3892
I73
sS'w+1=bitter'
p3893
I1722
sS'conj=move'
p3894
I406
sS'advmod=how'
p3895
I179
sS'w-1=issue'
p3896
I2858
sS'nsubj=weapon'
p3897
I1363
sS'w-2=tragedy'
p3898
I3740
sS'partmod=force'
p3899
I1457
sS'w-2=Cyclone'
p3900
I3096
sS'nsubj=Mbeki'
p3901
I1058
sS'w+2=summit'
p3902
I2522
sS'advmod=out'
p3903
I210
sS'w+2=Kong'
p3904
I2026
sS'w-1=member'
p3905
I2878
sS'dobj=animal'
p3906
I662
sS'w-2=start'
p3907
I3686
sS'cc=and'
p3908
I272
sS'nsubj=outage'
p3909
I1262
sS'w+1=after'
p3910
I1701
sS'ccomp=concern'
p3911
I288
sS'w-1=we'
p3912
I3006
sS'w-1=maternity'
p3913
I2876
sS'advcl=likely'
p3914
I82
sS'nsubjpass=investigator'
p3915
I1405
sS'advcl=expire'
p3916
I57
sS'w+2=Africa'
p3917
I1971
sS'w-1=patient'
p3918
I2910
sS'nsubj=worker'
p3919
I1370
sS'dobj=Quintet'
p3920
I624
sS'w-1=Khalilzad'
p3921
I2668
sS'w+2=Ethiopia'
p3922
I2001
sS'w-2=dramatically'
p3923
I3364
sS'advmod=later'
p3924
I187
sS'w-1=Mugabe'
p3925
I2685
sS'w-1=Hillary'
p3926
I2655
sS'w+1=some'
p3927
I1875
sS'nsubj=Iraq'
p3928
I1034
sS'w+2=-'
p3929
I1937
sS'w-1=but'
p3930
I2766
sS'advcl=lift'
p3931
I81
sS'w+1=settlement'
p3932
I1863
sS'w-2=pass'
p3933
I3569
sS'mark=so'
p3934
I969
sS'nsubj=Cheney'
p3935
I1003
sS'ccomp=fugitive'
p3936
I312
sS'xcomp=unable'
p3937
I3935
sS'w-1=Garland'
p3938
I2650
sS'nn=maternity'
p3939
I976
sS'dobj=way'
p3940
I942
sS'w-1=lower'
p3941
I2873
sS'conj=seek'
p3942
I428
sS'w-2=reluctant'
p3943
I3629
sS'w+2=I'
p3944
I2011
sS'w-2=poverty'
p3945
I3588
sS'w+2=Zimbabwe'
p3946
I2075
sS'nsubj=Comey'
p3947
I1006
sS'w+2=Fatah'
p3948
I2004
sS'dobj=branch'
p3949
I685
sS'dobj=maze'
p3950
I800
sS'w+2=limited'
p3951
I2316
sS'w-2=coordinate'
p3952
I3322
sS'w-2=Arap'
p3953
I3074
sS'w+1=but'
p3954
I1727
sS'w-1=may'
p3955
I2877
sS'w+2=Senate'
p3956
I2054
sS'w+2=open'
p3957
I2384
sS'w+2=big'
p3958
I2120
sS'w+2=a'
p3959
I2076
sS'w+2=Gaza'
p3960
I2006
sS'advmod=basically'
p3961
I150
ssS'dtype'
p3962
cnumpy
float64
p3963
sS'feature_names_'
p3964
(lp3965
g2900
ag1482
ag183
ag3424
ag3493
ag2909
ag3069
ag107
ag3230
ag3090
ag3287
ag2044
ag1146
ag368
ag2298
ag3084
ag1048
ag1773
ag710
ag2096
ag3570
ag2999
ag2116
ag80
ag676
ag455
ag913
ag3173
ag761
ag2785
ag168
ag2823
ag2820
ag3418
ag2240
ag3204
ag2348
ag703
ag3214
ag2501
ag1084
ag3858
ag3357
ag2906
ag2570
ag848
ag2634
ag1324
ag2425
ag2372
ag1827
ag725
ag1722
ag1760
ag2121
ag2478
ag945
ag3916
ag3656
ag1775
ag2230
ag2518
ag1361
ag394
ag2948
ag327
ag3406
ag2067
ag2498
ag2782
ag2769
ag3079
ag3891
ag3892
ag2743
ag470
ag1897
ag1535
ag2882
ag2910
ag1081
ag3931
ag3914
ag908
ag2726
ag3242
ag2392
ag1564
ag2853
ag67
ag2117
ag429
ag3791
ag2600
ag2914
ag478
ag2995
ag3421
ag1692
ag1688
ag944
ag2770
ag1176
ag1685
ag1977
ag2903
ag1222
ag64
ag1957
ag3731
ag3738
ag2359
ag27
ag2245
ag2149
ag745
ag2893
ag359
ag136
ag553
ag3262
ag2542
ag2591
ag2083
ag2441
ag2226
ag2801
ag3361
ag540
ag3117
ag815
ag1843
ag2304
ag2632
ag3591
ag406
ag1356
ag2301
ag3195
ag701
ag1360
ag3540
ag640
ag3003
ag3380
ag1015
ag1276
ag1739
ag1133
ag3686
ag3961
ag919
ag79
ag1457
ag88
ag3768
ag925
ag18
ag314
ag1999
ag3007
ag622
ag2343
ag1668
ag205
ag799
ag2953
ag890
ag302
ag2541
ag3077
ag2552
ag500
ag1925
ag1468
ag2163
ag2003
ag234
ag2040
ag3895
ag2314
ag738
ag2341
ag3693
ag1060
ag398
ag1171
ag3924
ag2233
ag3574
ag3379
ag3571
ag1719
ag438
ag1280
ag12
ag3688
ag116
ag3386
ag3233
ag1470
ag3778
ag1185
ag2803
ag1209
ag2652
ag2402
ag3490
ag3128
ag1151
ag3903
ag1799
ag3511
ag1790
ag3205
ag2160
ag3056
ag1740
ag1979
ag3244
ag462
ag2115
ag1498
ag330
ag612
ag2851
ag1055
ag3091
ag3437
ag845
ag3103
ag1815
ag2404
ag1216
ag3867
ag991
ag1534
ag1888
ag598
ag560
ag1991
ag530
ag2005
ag2804
ag3013
ag2354
ag2375
ag264
ag49
ag654
ag2259
ag425
ag3041
ag1993
ag1910
ag2546
ag2928
ag2980
ag1126
ag2698
ag3527
ag2997
ag1070
ag3098
ag2316
ag856
ag2931
ag2561
ag3169
ag2388
ag1522
ag1595
ag3908
ag2154
ag801
ag3459
ag3673
ag1066
ag1384
ag1929
ag2793
ag3882
ag1335
ag283
ag3689
ag485
ag2079
ag3525
ag3911
ag3661
ag3260
ag1331
ag3740
ag3142
ag1208
ag942
ag3094
ag660
ag511
ag3581
ag1889
ag757
ag556
ag2252
ag2242
ag1646
ag228
ag3862
ag2934
ag83
ag3642
ag2817
ag3936
ag3299
ag2114
ag1247
ag1657
ag1041
ag1953
ag3873
ag3700
ag1463
ag2181
ag3170
ag2268
ag3745
ag407
ag1471
ag297
ag2528
ag1572
ag1458
ag1032
ag1723
ag141
ag2428
ag501
ag1205
ag1885
ag1745
ag3775
ag1117
ag2184
ag3859
ag1042
ag1481
ag3697
ag3422
ag1734
ag3297
ag3256
ag864
ag2156
ag2228
ag3061
ag2509
ag2124
ag2887
ag751
ag937
ag649
ag1709
ag2442
ag248
ag2261
ag390
ag3441
ag974
ag2152
ag2107
ag3617
ag753
ag1538
ag1640
ag3628
ag984
ag2631
ag2454
ag53
ag1783
ag3553
ag2813
ag3497
ag224
ag217
ag3376
ag472
ag3108
ag989
ag2265
ag1921
ag1321
ag2781
ag2475
ag1200
ag3703
ag2821
ag98
ag3659
ag44
ag396
ag404
ag1183
ag3359
ag3543
ag2444
ag3894
ag1543
ag2110
ag3479
ag1008
ag2007
ag391
ag1123
ag1513
ag1364
ag651
ag1585
ag3735
ag3378
ag1298
ag3851
ag149
ag859
ag1489
ag3134
ag2663
ag842
ag3942
ag480
ag3759
ag1517
ag3760
ag1555
ag519
ag1994
ag1733
ag2188
ag1945
ag1038
ag3522
ag2145
ag1738
ag1578
ag1601
ag8
ag3310
ag2545
ag1390
ag2164
ag2387
ag3780
ag1441
ag821
ag1412
ag3486
ag1614
ag1322
ag3010
ag3228
ag720
ag2385
ag3558
ag3315
ag2018
ag3306
ag1746
ag237
ag1951
ag479
ag2191
ag791
ag1421
ag3453
ag3403
ag1033
ag1736
ag537
ag387
ag1735
ag1075
ag3002
ag1104
ag3655
ag3762
ag3872
ag3360
ag1059
ag1659
ag3886
ag3508
ag2745
ag255
ag2706
ag491
ag1939
ag3328
ag2386
ag2617
ag1900
ag2016
ag906
ag3674
ag2171
ag521
ag635
ag1976
ag3820
ag452
ag2262
ag1135
ag382
ag2869
ag565
ag2353
ag2486
ag3793
ag3348
ag2756
ag2925
ag2639
ag1674
ag2544
ag365
ag987
ag2139
ag2720
ag1679
ag2884
ag1196
ag2864
ag17
ag360
ag1261
ag1195
ag706
ag310
ag3796
ag588
ag1786
ag170
ag1210
ag2168
ag2952
ag627
ag1590
ag1148
ag2051
ag146
ag1118
ag2892
ag901
ag721
ag3392
ag730
ag1828
ag2307
ag381
ag577
ag673
ag2567
ag1016
ag3870
ag1328
ag1451
ag14
ag2381
ag3345
ag2942
ag1576
ag3750
ag3096
ag2658
ag490
ag2355
ag3124
ag1079
ag1864
ag2711
ag1392
ag1704
ag1565
ag1748
ag422
ag1127
ag647
ag3871
ag2846
ag2922
ag816
ag1898
ag3658
ag2938
ag832
ag785
ag3883
ag865
ag3052
ag3218
ag786
ag1202
ag806
ag289
ag473
ag3876
ag2346
ag3391
ag3047
ag2833
ag482
ag1029
ag299
ag2066
ag1648
ag1144
ag3606
ag839
ag2680
ag2996
ag1518
ag2239
ag2323
ag3088
ag2019
ag3920
ag2794
ag498
ag1067
ag3155
ag1829
ag1654
ag251
ag1966
ag73
ag2863
ag2850
ag775
ag548
ag2960
ag652
ag1548
ag2033
ag766
ag988
ag3679
ag1265
ag2203
ag3402
ag2087
ag2014
ag1476
ag2835
ag2141
ag2889
ag3612
ag3557
ag3137
ag1281
ag1883
ag2102
ag3788
ag3234
ag3906
ag2214
ag2701
ag3006
ag850
ag3804
ag3286
ag1132
ag3377
ag290
ag3181
ag2153
ag1213
ag3199
ag606
ag911
ag3054
ag851
ag2037
ag1387
ag463
ag812
ag22
ag3949
ag2898
ag1714
ag3024
ag958
ag1763
ag3542
ag1557
ag1137
ag2713
ag24
ag2829
ag555
ag1988
ag1413
ag3515
ag970
ag3399
ag1583
ag3253
ag595
ag2583
ag2123
ag488
ag3159
ag410
ag2577
ag2401
ag2505
ag624
ag1594
ag3036
ag3590
ag1228
ag566
ag2396
ag2539
ag2395
ag1121
ag2627
ag286
ag2954
ag2236
ag2757
ag1291
ag3393
ag3495
ag2740
ag818
ag3572
ag2082
ag2519
ag306
ag1705
ag2508
ag3676
ag1656
ag2522
ag3239
ag1655
ag3773
ag683
ag2585
ag1175
ag3291
ag3637
ag982
ag144
ag2462
ag2677
ag2032
ag1494
ag2982
ag2985
ag1509
ag658
ag355
ag2446
ag1942
ag1753
ag1669
ag1756
ag1540
ag3113
ag615
ag2099
ag1167
ag2972
ag1610
ag1796
ag3289
ag643
ag2042
ag2824
ag2378
ag2201
ag634
ag1473
ag2550
ag2825
ag2266
ag3856
ag1516
ag3881
ag3362
ag484
ag3227
ag1789
ag895
ag262
ag1426
ag3321
ag2212
ag2944
ag2126
ag3950
ag2389
ag2049
ag1588
ag3704
ag1832
ag609
ag2912
ag1165
ag287
ag2879
ag3138
ag3818
ag2536
ag2926
ag3126
ag2731
ag1971
ag3083
ag2208
ag2857
ag1814
ag1567
ag1316
ag2613
ag3832
ag313
ag3250
ag1004
ag23
ag3068
ag3754
ag2946
ag2106
ag948
ag253
ag1639
ag2291
ag2941
ag954
ag2724
ag3505
ag1354
ag1269
ag25
ag2915
ag578
ag1189
ag1327
ag918
ag3352
ag893
ag3544
ag1260
ag3491
ag1040
ag1182
ag2277
ag1944
ag1326
ag1633
ag3749
ag1174
ag990
ag979
ag661
ag2738
ag2523
ag1568
ag1019
ag3817
ag419
ag2949
ag1896
ag1226
ag249
ag3682
ag1664
ag2237
ag1318
ag1320
ag1244
ag1313
ag576
ag2068
ag2582
ag1194
ag3667
ag3857
ag60
ag1574
ag3229
ag3100
ag3855
ag2408
ag1690
ag1772
ag323
ag2254
ag3333
ag2858
ag2772
ag2986
ag2002
ag3701
ag2192
ag3278
ag1393
ag662
ag395
ag879
ag2694
ag1696
ag1526
ag3753
ag1047
ag503
ag2569
ag883
ag3729
ag3353
ag2488
ag2052
ag687
ag2309
ag2860
ag2476
ag3813
ag3209
ag3884
ag876
ag1895
ag3122
ag2629
ag2260
ag1878
ag2690
ag1940
ag3489
ag3790
ag714
ag41
ag3940
ag536
ag2455
ag2436
ag3755
ag216
ag1349
ag727
ag1131
ag1242
ag1845
ag1680
ag1662
ag1732
ag3736
ag739
ag642
ag3852
ag3097
ag3681
ag2331
ag2238
ag2241
ag3012
ag269
ag872
ag1911
ag3934
ag3594
ag3651
ag563
ag1970
ag1874
ag959
ag3939
ag1278
ag2474
ag2421
ag689
ag82
ag433
ag2717
ag1846
ag2477
ag3763
ag2299
ag888
ag2601
ag526
ag3724
ag3597
ag267
ag2933
ag109
ag50
ag2675
ag1860
ag3358
ag2217
ag1191
ag3744
ag3935
ag545
ag3136
ag3947
ag1076
ag2571
ag2646
ag2654
ag1086
ag212
ag2200
ag1642
ag2357
ag1100
ag2744
ag1720
ag1989
ag2602
ag1284
ag250
ag3166
ag2458
ag1417
ag1014
ag2502
ag742
ag1984
ag352
ag418
ag197
ag2138
ag3928
ag525
ag55
ag1983
ag2730
ag2358
ag2746
ag527
ag2420
ag3245
ag1495
ag1025
ag350
ag423
ag1240
ag1179
ag1288
ag2440
ag3295
ag1450
ag2487
ag668
ag2607
ag2774
ag3901
ag2394
ag3582
ag2696
ag3743
ag2624
ag897
ag857
ag885
ag28
ag326
ag2047
ag2438
ag1794
ag1992
ag2692
ag1663
ag3705
ag1553
ag2356
ag3694
ag677
ag2843
ag2342
ag3261
ag2303
ag1397
ag734
ag3240
ag192
ag1164
ag657
ag1312
ag1554
ag3451
ag1649
ag3620
ag424
ag532
ag2108
ag3281
ag1562
ag1218
ag3185
ag1785
ag1207
ag3255
ag628
ag3633
ag3805
ag1972
ag2771
ag76
ag3889
ag3135
ag2768
ag3627
ag2578
ag581
ag2592
ag2373
ag2197
ag3782
ag3385
ag3154
ag2760
ag1243
ag2030
ag2921
ag2328
ag2971
ag1026
ag1197
ag1852
ag1842
ag2461
ag3665
ag601
ag3165
ag3623
ag2130
ag1420
ag1438
ag903
ag340
ag2725
ag2555
ag2529
ag2008
ag2534
ag898
ag3095
ag3460
ag2645
ag3770
ag341
ag3044
ag910
ag1915
ag2041
ag3573
ag1141
ag2234
ag2643
ag1956
ag3595
ag2834
ag2754
ag3320
ag2091
ag3657
ag3152
ag829
ag1908
ag2822
ag3410
ag907
ag1777
ag1560
ag104
ag118
ag3602
ag2464
ag2911
ag1824
ag2403
ag1899
ag2778
ag3609
ag3430
ag792
ag3141
ag2288
ag3335
ag602
ag2445
ag1314
ag2826
ag3847
ag2465
ag3537
ag3247
ag191
ag3350
ag920
ag1461
ag3284
ag2733
ag2540
ag3042
ag245
ag2466
ag2609
ag646
ag367
ag3472
ag3624
ag319
ag3714
ag1774
ag160
ag963
ag1065
ag1886
ag1087
ag3480
ag3535
ag546
ag3845
ag2270
ag3648
ag1870
ag291
ag3654
ag3296
ag782
ag671
ag3258
ag1083
ag1452
ag3619
ag1214
ag1726
ag1405
ag1034
ag1486
ag227
ag1440
ag499
ag1357
ag957
ag833
ag1757
ag2419
ag770
ag2345
ag100
ag2407
ag1823
ag1424
ag372
ag96
ag1661
ag1882
ag3909
ag700
ag1406
ag2295
ag354
ag600
ag3547
ag3769
ag933
ag1525
ag2104
ag2384
ag1248
ag670
ag1875
ag1430
ag1422
ag1519
ag1305
ag3364
ag3109
ag3510
ag421
ag2112
ag1801
ag2723
ag2063
ag2363
ag167
ag1342
ag207
ag195
ag282
ag61
ag3179
ag1996
ag3277
ag3062
ag3485
ag1727
ag2710
ag3344
ag3432
ag2025
ag3156
ag748
ag678
ag3011
ag2568
ag802
ag2429
ag2449
ag1365
ag2859
ag2998
ag1542
ag2842
ag332
ag1304
ag838
ag2547
ag645
ag2219
ag3559
ag2584
ag1893
ag680
ag656
ag579
ag2088
ag1770
ag3524
ag203
ag40
ag1358
ag3085
ag3405
ag3719
ag2484
ag231
ag2190
ag3684
ag2742
ag2806
ag650
ag529
ag293
ag1499
ag1537
ag1101
ag3248
ag2688
ag2417
ag1624
ag2282
ag1532
ag1675
ag31
ag3087
ag3065
ag274
ag3897
ag185
ag1728
ag2279
ag321
ag626
ag513
ag3919
ag474
ag281
ag743
ag3163
ag3477
ag1653
ag923
ag2481
ag1490
ag2170
ag2405
ag3395
ag1528
ag1865
ag3411
ag1961
ag1286
ag105
ag2413
ag3610
ag2024
ag1128
ag1253
ag3664
ag3580
ag3488
ag103
ag517
ag1598
ag3783
ag931
ag3252
ag3106
ag2767
ag3915
ag371
ag3186
ag254
ag3249
ag3172
ag1556
ag3254
ag2157
ag2376
ag1701
ag2432
ag2001
ag166
ag2416
ag2272
ag2055
ag2056
ag3465
ag2913
ag2207
ag3259
ag3709
ag2618
ag34
ag2026
ag2625
ag3115
ag2198
ag256
ag729
ag1479
ag3846
ag1637
ag1448
ag965
ag3220
ag2626
ag2812
ag241
ag1570
ag3369
ag329
ag3202
ag1372
ag2070
ag2962
ag2253
ag3294
ag1710
ag3046
ag416
ag3899
ag535
ag549
ag3514
ag2533
ag1549
ag373
ag475
ag1037
ag1599
ag3635
ag705
ag1125
ag1731
ag1778
ag896
ag909
ag2180
ag1027
ag156
ag3801
ag3799
ag2664
ag1591
ag2990
ag2560
ag2705
ag2269
ag392
ag2959
ag3864
ag3053
ag3346
ag1923
ag2162
ag1650
ag257
ag3772
ag2727
ag3419
ag2728
ag279
ag585
ag1311
ag2525
ag809
ag3034
ag2549
ag1173
ag2510
ag3516
ag84
ag2573
ag2275
ag3467
ag2367
ag2105
ag1927
ag1515
ag127
ag3313
ag3466
ag3213
ag3356
ag912
ag236
ag1275
ag3027
ag3764
ag2064
ag3622
ag2457
ag1520
ag2129
ag2089
ag803
ag3325
ag1946
ag2493
ag2668
ag2133
ag1947
ag3715
ag1371
ag2703
ag1949
ag273
ag794
ag796
ag2644
ag3482
ag1346
ag2981
ag2469
ag2172
ag797
ag2574
ag779
ag3050
ag259
ag1058
ag3178
ag1418
ag1693
ag1056
ag1386
ag1338
ag1339
ag2943
ag2739
ag3468
ag52
ag2215
ag3021
ag1954
ag3631
ag3776
ag1344
ag193
ag1120
ag2608
ag2263
ag2090
ag3442
ag1607
ag466
ag1768
ag2029
ag3413
ag1497
ag2148
ag3578
ag126
ag951
ag3144
ag2648
ag3171
ag1617
ag1934
ag1378
ag94
ag2467
ag2213
ag2572
ag891
ag822
ag2306
ag1974
ag2595
ag1227
ag461
ag383
ag2499
ag1816
ag1505
ag3078
ag869
ag496
ag1706
ag35
ag1904
ag1478
ag2866
ag3327
ag3474
ag3398
ag2615
ag2580
ag2969
ag1958
ag2674
ag2661
ag1767
ag2327
ag1428
ag3530
ag3504
ag746
ag1672
ag1636
ag2061
ag3035
ag3712
ag1022
ag3292
ag1147
ag2667
ag1472
ag2527
ag3587
ag3370
ag3532
ag1937
ag1170
ag886
ag174
ag967
ag697
ag2633
ag1503
ag3020
ag504
ag692
ag3598
ag26
ag961
ag142
ag3568
ag2919
ag1621
ag3338
ag1855
ag3874
ag2202
ag3004
ag1049
ag333
ag3841
ag754
ag1622
ag2015
ag1069
ag1877
ag1501
ag2535
ag1615
ag570
ag1403
ag995
ag3396
ag3549
ag3517
ag3626
ag3716
ag1978
ag539
ag1928
ag2666
ag1521
ag1825
ag758
ag3463
ag1973
ag690
ag3910
ag3866
ag1375
ag567
ag1737
ag3727
ag1695
ag405
ag2250
ag3198
ag3833
ag3589
ag3043
ag1871
ag213
ag2317
ag2320
ag2650
ag2512
ag939
ag1274
ag3893
ag1018
ag2065
ag294
ag2871
ag3954
ag2649
ag1644
ag1810
ag1858
ag2880
ag2987
ag3040
ag1145
ag3307
ag1348
ag206
ag125
ag271
ag905
ag1589
ag2374
ag3787
ag3752
ag810
ag2382
ag972
ag732
ag1891
ag2004
ag1854
ag2334
ag2340
ag2810
ag3885
ag1493
ag618
ag3797
ag2777
ag1964
ag3607
ag1162
ag2463
ag1221
ag1873
ag1682
ag2908
ag3521
ag1140
ag584
ag1097
ag557
ag414
ag3257
ag342
ag1651
ag1862
ag3869
ag3644
ag3476
ag246
ag750
ag2979
ag682
ag975
ag966
ag3339
ag3180
ag684
ag847
ag2558
ag776
ag2695
ag3211
ag686
ag2430
ag1090
ag2524
ag3888
ag630
ag1558
ag483
ag3556
ag2676
ag1817
ag1869
ag716
ag1707
ag2009
ag1791
ag2151
ag3415
ag3312
ag827
ag2460
ag3758
ag1987
ag3243
ag2147
ag121
ag1246
ag324
ag128
ag1744
ag3584
ag2048
ag2118
ag2120
ag137
ag1584
ag2206
ag952
ag3496
ag161
ag632
ag3733
ag3132
ag2297
ag1484
ag2831
ag985
ag916
ag3070
ag182
ag188
ag930
ag1579
ag1419
ag1297
ag997
ag2945
ag1919
ag1507
ag587
ag709
ag3492
ag574
ag3831
ag3566
ag681
ag3075
ag3932
ag3512
ag1094
ag112
ag1307
ag2637
ag524
ag3283
ag1529
ag3725
ag1172
ag3450
ag3927
ag1849
ag3381
ag1932
ag831
ag178
ag3058
ag2586
ag3265
ag1036
ag172
ag3311
ag2146
ag2414
ag434
ag2155
ag542
ag2791
ag2225
ag3707
ag1449
ag2347
ag3104
ag1455
ag3334
ag3374
ag2991
ag1201
ag694
ag1414
ag1155
ag102
ag3301
ag3670
ag2399
ag2977
ag3507
ag1545
ag1020
ag3708
ag3089
ag3151
ag2848
ag2918
ag1263
ag2974
ag2686
ag2709
ag2368
ag826
ag3316
ag1926
ag1593
ag3643
ag1793
ag1142
ag633
ag2211
ag320
ag2735
ag3638
ag430
ag3929
ag1955
ag1113
ag3235
ag173
ag3742
ag2638
ag3332
ag835
ag2579
ag157
ag1362
ag2473
ag744
ag3621
ag1300
ag1559
ag2273
ag558
ag3119
ag2780
ag3271
ag561
ag3445
ag3499
ag284
ag3431
ag947
ag3625
ag3730
ag1986
ag181
ag1343
ag547
ag3917
ag594
ag1779
ag968
ag994
ag2630
ag1437
ag1523
ag2249
ag3830
ag3636
ag1943
ag3650
ag2841
ag439
ag1124
ag3662
ag3675
ag935
ag454
ag1233
ag3019
ag1270
ag1325
ag2716
ag129
ag2708
ag936
ag2792
ag3274
ag3922
ag2603
ag3008
ag3948
ag1848
ag3960
ag3520
ag2936
ag335
ag9
ag3944
ag830
ag1819
ag1812
ag3176
ag456
ag120
ag1681
ag1608
ag1289
ag2020
ag3105
ag2554
ag2492
ag457
ag3904
ag575
ag2165
ag828
ag2100
ag210
ag3343
ag3192
ag2365
ag3685
ag443
ag1645
ag2811
ag769
ag2302
ag3184
ag2292
ag3737
ag57
ag1715
ag2143
ag3448
ag1469
ag3454
ag1480
ag3652
ag550
ag384
ag3956
ag3452
ag1787
ag2636
ag3579
ag672
ag295
ag3427
ag417
ag3890
ag1388
ag1400
ag2924
ag1483
ag1544
ag2797
ag3067
ag1459
ag1841
ag445
ag1009
ag3946
ag3959
ag1616
ag1373
ag1398
ag2397
ag784
ag1762
ag3615
ag3554
ag1333
ag486
ag218
ag3500
ag2762
ag1157
ag2684
ag3546
ag3747
ag288
ag3368
ag2891
ag992
ag2232
ag3363
ag447
ag3326
ag2955
ag3272
ag1475
ag2427
ag2209
ag1725
ag1045
ag1433
ag1917
ag1683
ag2983
ag72
ag364
ag3668
ag3031
ag1665
ag1010
ag2286
ag3958
ag1190
ag2883
ag853
ag1268
ag3577
ag1894
ag1835
ag1488
ag3699
ag1566
ag981
ag36
ag38
ag3147
ag2761
ag272
ag1803
ag238
ag964
ag233
ag1302
ag2640
ag2310
ag3397
ag1447
ag1879
ag441
ag2038
ag2559
ag934
ag3148
ag37
ag2503
ag357
ag3051
ag552
ag2958
ag3193
ag2653
ag3092
ag805
ag2247
ag1239
ag783
ag69
ag3102
ag613
ag389
ag2084
ag3669
ag1474
ag702
ag2113
ag1609
ag3501
ag2369
ag2199
ag3551
ag1046
ag1231
ag2280
ag2875
ag752
ag2773
ag3196
ag795
ag176
ag1620
ag489
ag1820
ag2599
ag3371
ag1844
ag3836
ag2452
ag3302
ag1160
ag1255
ag2672
ag2521
ag675
ag1938
ag844
ag2747
ag921
ag3706
ag1673
ag3766
ag3055
ag976
ag1863
ag3443
ag1187
ag2513
ag2750
ag2036
ag2679
ag1093
ag1211
ag133
ag20
ag2783
ag2935
ag2332
ag3475
ag2131
ag1453
ag780
ag1199
ag1138
ag1612
ag3048
ag1092
ag2511
ag481
ag1013
ag2013
ag198
ag202
ag1963
ag1634
ag1262
ag3552
ag938
ag2700
ag1670
ag1396
ag861
ag1573
ag3439
ag3653
ag2479
ag3484
ag1552
ag1512
ag3266
ag1432
ag1454
ag435
ag1998
ag608
ag2963
ag1337
ag1296
ag3649
ag1952
ag887
ag3308
ag621
ag1809
ag1990
ag1782
ag1234
ag1193
ag3168
ag2902
ag717
ag688
ag1111
ag3794
ag569
ag1154
ag1229
ag298
ag1116
ag3268
ag1924
ag3565
ag1907
ag3629
ag42
ag2125
ag2281
ag2456
ag1119
ag95
ag3863
ag2966
ag2800
ag2086
ag3456
ag3232
ag2177
ag2844
ag131
ag1776
ag1677
ag2814
ag2480
ag487
ag2514
ag1749
ag1051
ag2319
ag261
ag3951
ag3270
ag693
ag2336
ag3081
ag2150
ag1580
ag2594
ag1074
ag1533
ag2895
ag1658
ag691
ag2470
ag1408
ag899
ag1035
ag3436
ag718
ag679
ag2412
ag3285
ag2169
ag1833
ag2970
ag135
ag740
ag590
ag437
ag1212
ag1394
ag3663
ag512
ag1306
ag3280
ag1487
ag2520
ag2951
ag3671
ag3174
ag726
ag3811
ag30
ag1625
ag296
ag1259
ag3110
ag3298
ag2142
ag619
ag2000
ag1012
ag2849
ag1604
ag2246
ag2788
ag1511
ag403
ag2244
ag2122
ag3434
ag3596
ag1230
ag874
ag3440
ag589
ag3829
ag3774
ag3957
ag3680
ag3428
ag402
ag515
ag1177
ag3785
ag932
ag788
ag2543
ag1347
ag2885
ag3238
ag211
ag2897
ag99
ag3561
ag2671
ag1784
ag1057
ag1383
ag3555
ag376
ag520
ag226
ag2616
ag3401
ag3835
ag1859
ag1700
ag2187
ag2526
ag2790
ag3462
ag2443
ag1752
ag1219
ag3748
ag1641
ag1464
ag2847
ag599
ag3720
ag2256
ag772
ag917
ag1149
ag400
ag1192
ag3236
ag2729
ag2736
ag860
ag2589
ag459
ag3678
ag722
ag971
ag1922
ag3523
ag3188
ag597
ag2287
ag3191
ag325
ag674
ag1965
ag3844
ag1108
ag3267
ag2400
ag1795
ag1751
ag337
ag1936
ag108
ag442
ag467
ag3167
ag1788
ag1401
ag3237
ag3082
ag3786
ag2907
ag3583
ag292
ag2140
ag3854
ag3086
ag2837
ag3161
ag3231
ag2722
ag2838
ag85
ag2054
ag1596
ag3404
ag840
ag2598
ag2071
ag1592
ag1359
ag777
ag3219
ag2888
ag1267
ag3618
ag1152
ag495
ag3189
ag2329
ag179
ag950
ag1660
ag362
ag2231
ag1030
ag3293
ag266
ag1044
ag2459
ag3645
ag665
ag1415
ag943
ag1073
ag1901
ag1377
ag1232
ag3569
ag900
ag2011
ag669
ag2426
ag528
ag2840
ag3902
ag1391
ag863
ag1329
ag2333
ag399
ag1857
ag2758
ag3798
ag2073
ag3878
ag1295
ag3355
ag3215
ag1514
ag3803
ag3330
ag3632
ag685
ag3309
ag1257
ag1272
ag1446
ag3710
ag941
ag880
ag2642
ag280
ag2059
ag1867
ag393
ag235
ag3187
ag2604
ag3481
ag741
ag346
ag2765
ag270
ag1466
ag3807
ag2411
ag2185
ag1761
ag3022
ag3175
ag2285
ag2174
ag3741
ag723
ag3691
ag1839
ag2135
ag1050
ag3603
ag800
ag316
ag2622
ag2111
ag1266
ag3372
ag62
ag3588
ag2050
ag914
ag2964
ag3116
ag1369
ag2276
ag3323
ag1712
ag334
ag1716
ag2641
ag3408
ag1602
ag2904
ag3121
ag1980
ag247
ag3848
ag2136
ag1078
ag819
ag1376
ag1434
ag155
ag2311
ag3810
ag2439
ag43
ag2390
ag3816
ag3815
ag877
ag3861
ag3814
ag3017
ag3837
ag1283
ag1091
ag3808
ag3414
ag3822
ag664
ag1163
ag78
ag637
ag1913
ag3634
ag1491
ag3826
ag2565
ag969
ag3217
ag3093
ag3063
ag2098
ag1581
ag1002
ag2109
ag3066
ag3533
ag1667
ag3640
ag3494
ag3222
ag2103
ag3938
ag1158
ag1395
ag162
ag3322
ag3926
ag106
ag922
ag1531
ag3139
ag871
ag3026
ag1959
ag91
ag768
ag1368
ag2447
ag1627
ag3921
ag3887
ag605
ag1374
ag448
ag1629
ag2606
ag3160
ag1881
ag1902
ag1303
ag1539
ag928
ag1880
ag2175
ag3015
ag1129
ag3925
ag2023
ag586
ag2611
ag1072
ag2496
ag2845
ag3221
ag823
ag3347
ag3800
ag2325
ag58
ag189
ag3162
ag3029
ag1096
ag3639
ag1759
ag1766
ag1717
ag2719
ag159
ag1380
ag1724
ag1808
ag1301
ag3201
ag411
ag813
ag617
ag2182
ag2657
ag427
ag3672
ag328
ag614
ag1807
ag2588
ag2795
ag3498
ag318
ag3843
ag2167
ag1166
ag629
ag2590
ag3586
ag3880
ag2031
ag2614
ag3365
ag2379
ag1985
ag3647
ag2707
ag1536
ag3384
ag2022
ag825
ag1950
ag1402
ag3765
ag252
ag1805
ag2861
ag3666
ag2538
ag3076
ag2876
ag544
ag873
ag1425
ag711
ag3575
ag1345
ag2992
ag2017
ag1277
ag3336
ag641
ag3930
ag3073
ag534
ag1064
ag3534
ag2338
ag377
ag666
ag164
ag695
ag409
ag74
ag2435
ag2930
ag338
ag2699
ag3304
ag793
ag2092
ag242
ag3407
ag150
ag153
ag1948
ag554
ag2021
ag3471
ag3080
ag3157
ag361
ag2053
ag1890
ag858
ag1684
ag2006
ag1382
ag47
ag1930
ag3713
ag516
ag2868
ag946
ag1918
ag762
ag1914
ag208
ag1631
ag1082
ag2377
ag834
ag3771
ag11
ag3207
ag1741
ag1729
ag3216
ag1837
ag2669
ag2753
ag3592
ag1017
ag2366
ag3473
ag303
ag787
ag2947
ag386
ag143
ag2258
ag3143
ag3819
ag187
ag1139
ag1524
ag731
ag2312
ag1088
ag1691
ag1106
ag3275
ag2620
ag824
ag169
ag2714
ag998
ag2218
ag2224
ag3190
ag3593
ag2905
ag3698
ag1330
ag3896
ag1308
ag90
ag663
ag2028
ag1068
ag1628
ag1764
ag2566
ag2349
ag1224
ag59
ag2077
ag926
ag882
ag3941
ag220
ag728
ag3913
ag3955
ag3905
ag3696
ag1003
ag1527
ag1981
ag1969
ag1350
ag1960
ag1587
ag1730
ag3072
ag370
ag3164
ag225
ag3457
ag2896
ag2497
ag3071
ag506
ag2976
ag1156
ag2975
ag2775
ag631
ag2862
ag1385
ag3145
ag3449
ag2766
ag582
ag278
ag1551
ag3918
ag2221
ag3420
ag3509
ag311
ag2748
ag1299
ag1750
ag1916
ag2798
ag996
ag2894
ag3394
ag139
ag3329
ag522
ag1341
ag3373
ag1851
ag2101
ag263
ag16
ag2127
ag3723
ag2593
ag3317
ag3300
ag3600
ag3438
ag2515
ag3037
ag2351
ag644
ag317
ag875
ag431
ag3182
ag3695
ag3074
ag449
ag3341
ag3112
ag2587
ag3018
ag230
ag915
ag353
ag1089
ag2075
ag2516
ag3206
ag3433
ag1909
ag3825
ag3444
ag3567
ag2787
ag124
ag1184
ag708
ag1765
ag465
ag2854
ag1317
ag3613
ag3133
ag771
ag3446
ag1577
ag862
ag868
ag2556
ag3599
ag2352
ag568
ag300
ag301
ag1967
ag1550
ag2899
ag3842
ag2069
ag2144
ag1666
ag258
ag2485
ag184
ag3269
ag3564
ag1903
ag3337
ag309
ag426
ag3028
ag1699
ag1332
ag3912
ag2965
ag2651
ag1975
ag2865
ag3130
ag3464
ag366
ag1758
ag1264
ag89
ag3005
ag2222
ag719
ag1606
ag3732
ag3616
ag2035
ag1309
ag1203
ag1713
ag163
ag1130
ag1813
ag2737
ag999
ag2495
ag1806
ag2961
ag3563
ag45
ag3331
ag1251
ag607
ag1249
ag1250
ag2196
ag2424
ag2362
ag260
ag123
ag122
ag3223
ag3212
ag3276
ag2074
ag2490
ag2072
ag889
ag3849
ag3025
ag1804
ag837
ag1427
ag2248
ag2927
ag2929
ag2890
ag3279
ag2581
ag348
ag3064
ag1462
ag2807
ag3203
ag3690
ag3101
ag3687
ag3953
ag1500
ag2205
ag509
ag1689
ag2721
ag1912
ag843
ag3539
ag1379
ag1868
ag2872
ag1407
ag3416
ag93
ag1287
ag1404
ag1563
ag973
ag1600
ag3039
ag10
ag3900
ag2563
ag1215
ag1423
ag2076
ag1399
ag789
ag2916
ag1613
ag3114
ag244
ag1445
ag1708
ag29
ag3865
ag2267
ag39
ag2839
ag2080
ag2315
ag1931
ag1703
ag1546
ag1755
ag3224
ag3375
ag1831
ag929
ag3513
ag453
ag2621
ag596
ag3483
ag2193
ag1285
ag408
ag3282
ag902
ag531
ag580
ag3107
ag3447
ag3273
ag464
ag3560
ag2290
ag175
ag1742
ag3802
ag735
ag849
ag1153
ag715
ag1818
ag2431
ag2973
ag151
ag2784
ag3751
ag2993
ag3366
ag2763
ag65
ag222
ag2179
ag13
ag21
ag2204
ag639
ag2830
ag1353
ag3049
ag1492
ag1834
ag1635
ag3478
ag336
ag2702
ag1241
ag1107
ag3208
ag412
ag2901
ag1711
ag77
ag3059
ag1747
ag3023
ag2235
ag1109
ag1605
ag1826
ag3875
ag3470
ag1340
ag1962
ag401
ag3183
ag331
ag3131
ag2635
ag2062
ag2856
ag2393
ag820
ag81
ag33
ag1561
ag704
ag1619
ag397
ag1530
ag86
ag1180
ag2504
ag1797
ag1850
ag440
ag1334
ag3290
ag3722
ag145
ag1310
ag239
ag811
ag1676
ag2799
ag2308
ag2451
ag778
ag3127
ag3264
ag268
ag3779
ag559
ag616
ag147
ag1611
ag1439
ag1238
ag3382
ag1694
ag636
ag3387
ag180
ag2659
ag2318
ag804
ag3683
ag15
ag749
ag583
ag2326
ag1085
ag2434
ag881
ag2832
ag2313
ag3503
ag1678
ag432
ag763
ag648
ag1366
ag2423
ag3702
ag1982
ag115
ag814
ag993
ag3030
ag1336
ag3409
ag533
ag3060
ag1460
ag3111
ag2097
ag3177
ag1105
ag2655
ag2383
ag3611
ag1866
ag3809
ag507
ag2322
ag436
ag956
ag1569
ag1856
ag949
ag19
ag2370
ag1188
ag2344
ag3518
ag1547
ag190
ag2828
ag1876
ag927
ag2988
ag3739
ag2656
ag276
ag2194
ag1603
ag3734
ag285
ag3226
ag1410
ag2564
ag1477
ag1632
ag2628
ag3761
ag1626
ag2789
ag1114
ag2867
ag3726
ag2605
ag2682
ag1220
ag1080
ag3952
ag1995
ag1077
ag2741
ag3038
ag1252
ag3118
ag2468
ag2264
ag2956
ag2324
ag305
ag3429
ag977
ag2335
ag1582
ag304
ag1416
ag477
ag1884
ag2093
ag1838
ag3045
ag2229
ag1638
ag1718
ag3487
ag884
ag798
ag471
ag2670
ag2978
ag638
ag199
ag855
ag1235
ag1643
ag2251
ag1467
ag3721
ag312
ag1830
ag3923
ag2489
ag1444
ag3728
ag1623
ag3000
ag3014
ag1110
ag221
ag1024
ag867
ag1054
ag3824
ag1698
ag2691
ag63
ag1236
ag3001
ag2437
ag3367
ag2937
ag1754
ag2274
ag866
ag562
ag625
ag3641
ag3032
ag2751
ag2665
ag953
ag1103
ag2968
ag3692
ag2689
ag3823
ag1618
ag551
ag420
ag2433
ag1465
ag114
ag1436
ag2718
ag3777
ag2223
ag3646
ag2398
ag2296
ag983
ag514
ag733
ag2350
ag747
ag3016
ag3057
ag1062
ag756
ag3197
ag2764
ag3812
ag707
ag1186
ag1323
ag232
ag3545
ag3784
ag3246
ag2704
ag2415
ag3458
ag3860
ag1697
ag497
ag655
ag807
ag2732
ag774
ag3506
ag1095
ag1290
ag2537
ag2786
ag132
ag356
ag3009
ag1840
ag2057
ag1847
ag3531
ag3469
ag3528
ag836
ag604
ag767
ag446
ag712
ag130
ag736
ag2210
ag1792
ag3605
ag48
ag2471
ag3241
ag415
ag3318
ag186
ag2119
ag510
ag66
ag894
ag610
ag200
ag1258
ag56
ag2576
ag3538
ag2409
ag1769
ag3200
ag51
ag2255
ag494
ag476
ag2159
ag3263
ag724
ag1906
ag2796
ag2596
ag1485
ag2294
ag523
ag1997
ag620
ag2836
ag413
ag1442
ag1099
ag2809
ag1411
ag1872
ag1271
ag3718
ag2752
ag3319
ag2776
ag229
ag2027
ag3789
ag3839
ag3140
ag2994
ag3426
ag3383
ag854
ag2779
ag1586
ag2448
ag3461
ag2189
ag2195
ag2494
ag2802
ag2923
ag54
ag2749
ag1671
ag428
ag2507
ag1206
ag1370
ag2827
ag978
ag351
ag2422
ag1811
ag2284
ag3828
ag2339
ag307
ag1161
ag3767
ag154
ag3435
ag841
ag2575
ag148
ag2216
ag2597
ag2278
ag214
ag852
ag2683
ag2855
ag2305
ag92
ag2472
ag2619
ag2293
ag2673
ag623
ag3711
ag2693
ag3933
ag3412
ag1217
ag2039
ag97
ag2410
ag204
ag3210
ag1575
ag322
ag46
ag275
ag603
ag3123
ag1510
ag117
ag375
ag2095
ag817
ag3945
ag591
ag1237
ag3792
ag1721
ag2300
ag71
ag2450
ag1409
ag240
ag493
ag2058
ag2530
ag1506
ag2453
ag1143
ag1652
ag1431
ag339
ag3614
ag1389
ag277
ag1352
ag2094
ag138
ag2687
ag492
ag2932
ag1822
ag196
ag1053
ag374
ag1007
ag3150
ag344
ag2081
ag2046
ag1502
ag3608
ag2950
ag369
ag3943
ag2681
ag1861
ag1381
ag3677
ag3146
ag611
ag564
ag3541
ag358
ag3288
ag2483
ag2816
ag713
ag32
ag2012
ag2500
ag3795
ag3834
ag345
ag2697
ag760
ag140
ag1933
ag3717
ag2406
ag1225
ag1198
ag1887
ag2158
ag1647
ag2685
ag3390
ag215
ag2712
ag1102
ag773
ag1292
ag1743
ag940
ag2878
ag2380
ag3400
ag1031
ag2517
ag2132
ag2176
ag2371
ag508
ag1122
ag3868
ag502
ag2128
ag1005
ag1115
ag111
ag541
ag3907
ag1178
ag2881
ag592
ag1006
ag2134
ag349
ag1429
ag1204
ag2531
ag2186
ag3194
ag3601
ag1028
ag2391
ag1023
ag2227
ag379
ag1021
ag3853
ag3757
ag2418
ag2755
ag380
ag846
ag2660
ag2815
ag70
ag3827
ag3840
ag2548
ag1508
ag3120
ag980
ag171
ag2553
ag2532
ag265
ag2482
ag3033
ag1821
ag3519
ag3342
ag451
ag110
ag2271
ag2283
ag113
ag790
ag2085
ag3351
ag1597
ag2243
ag469
ag3898
ag3225
ag759
ag1355
ag2678
ag1780
ag2173
ag1363
ag1223
ag343
ag3455
ag3324
ag764
ag194
ag450
ag2337
ag134
ag1134
ag3630
ag1159
ag2183
ag1181
ag3425
ag2364
ag1000
ag3746
ag2662
ag1802
ag87
ag1001
ag177
ag667
ag219
ag2920
ag3388
ag1367
ag3756
ag1043
ag119
ag593
ag460
ag2808
ag2877
ag3781
ag572
ag1293
ag308
ag1836
ag3158
ag1496
ag1941
ag2957
ag3879
ag878
ag505
ag1052
ag2715
ag1687
ag1443
ag1315
ag3149
ag2045
ag1800
ag2360
ag2805
ag960
ag1273
ag3660
ag765
ag458
ag3354
ag2852
ag2010
ag1920
ag2818
ag737
ag2043
ag1294
ag3417
ag3251
ag3129
ag347
ag3305
ag3550
ag385
ag955
ag2161
ag2361
ag2939
ag3838
ag2078
ag3877
ag518
ag2506
ag696
ag2289
ag2759
ag1169
ag3125
ag388
ag808
ag1351
ag201
ag543
ag2060
ag1063
ag1702
ag1504
ag209
ag1254
ag904
ag165
ag2967
ag1319
ag2612
ag3821
ag3562
ag1798
ag1541
ag3303
ag243
ag3423
ag3806
ag870
ag3548
ag2330
ag1456
ag2984
ag315
ag2917
ag75
ag3099
ag2562
ag2989
ag1136
ag1071
ag1150
ag538
ag1011
ag468
ag2886
ag1853
ag3340
ag1686
ag1781
ag2321
ag571
ag755
ag653
ag363
ag1282
ag1279
ag962
ag1435
ag1061
ag223
ag3585
ag1935
ag3604
ag2220
ag2647
ag2557
ag3153
ag1968
ag1245
ag2257
ag101
ag2873
ag2491
ag1168
ag3536
ag3389
ag781
ag378
ag3529
ag2734
ag1039
ag1112
ag1905
ag892
ag444
ag3314
ag573
ag698
ag152
ag2137
ag3850
ag2166
ag3502
ag924
ag2551
ag2870
ag3526
ag68
ag1630
ag3937
ag1771
ag2819
ag1256
ag1098
ag158
ag1571
ag2874
ag2610
ag2940
ag659
ag2034
ag1892
ag3576
ag699
ag3349
ag986
ag2178
ag2623
asS'separator'
p3966
S'='
sS'sparse'
p3967
I01
sb.