ccopy_reg
_reconstructor
p1
(csklearn.feature_extraction.dict_vectorizer
DictVectorizer
p2
c__builtin__
object
p3
NtRp4
(dp5
S'vocabulary_'
p6
(dp7
S'w+2=mailer'
p8
I225
sS'det=no'
p9
I103
sS'w-2=people'
p10
I357
sS'w-2=original'
p11
I356
sS'w+2=beauty'
p12
I208
sS'w-2=Friday'
p13
I324
sS'w-2=southerner'
p14
I367
sS'nsubj=Indians'
p15
I121
sS'w-2=new'
p16
I354
sS'w-2=they'
p17
I372
sS'nsubj=many'
p18
I131
sS'ccomp=happen'
p19
I66
sS'w+1=that'
p20
I176
sS'w-2=some'
p21
I366
sS'w-1=would'
p22
I309
sS'w+2=child'
p23
I209
sS'w-1=new'
p24
I286
sS'nsubj=Zimbabweans'
p25
I127
sS'nn=natural'
p26
I112
sS'advmod=so'
p27
I37
sS'advcl=now'
p28
I16
sS'ccomp=would'
p29
I89
sS'rcmod=get'
p30
I154
sS'aux=may'
p31
I48
sS'conj=beauty'
p32
I90
sS'w+1=how'
p33
I166
sS'w-1=be'
p34
I273
sS'w-2=the'
p35
I371
sS'w+1=she'
p36
I175
sS'advcl=leave'
p37
I13
sS'w-2=analyst'
p38
I332
sS'advcl=come'
p39
I4
sS'w+1=just'
p40
I169
sS'advcl=take'
p41
I24
sS'w-1=Joseph'
p42
I256
sS'w+1=of'
p43
I172
sS'w+2=to'
p44
I239
sS'w+1=myself'
p45
I171
sS'w-1=some'
p46
I303
sS'w-1=expert'
p47
I278
sS'w-1=have'
p48
I280
sS'w+2=if'
p49
I220
sS'w-1=Congress'
p50
I251
sS'w+2=in'
p51
I221
sS'nsubj=Sami'
p52
I125
sS'ccomp=go'
p53
I65
sS'w+2=it'
p54
I222
sS'w+2=God'
p55
I191
sS'ccomp=have'
p56
I67
sS'w-2=New'
p57
I328
sS'prep=about'
p58
I145
sS'w+2=you'
p59
I247
sS'w-1=you'
p60
I310
sS'w+2=will'
p61
I244
sS'w-1=bed'
p62
I274
sS'w+2=President'
p63
I198
sS'nsubj=person'
p64
I134
sS'advcl=be'
p65
I1
sS'dobj=if'
p66
I107
sS'w+2=event'
p67
I213
sS'w+2=long'
p68
I224
sS'w+2=be'
p69
I207
sS'w-2=instance'
p70
I347
sS'w+1=they'
p71
I177
sS'prep=if'
p72
I147
sS'prep=in'
p73
I148
sS'aux=would'
p74
I50
sS'w+1=for'
p75
I165
sS'w-1=Monday'
p76
I258
sS'amod=eighth'
p77
I41
sS'w-2=village'
p78
I375
sS'amod=original'
p79
I45
sS'nsubj=observer'
p80
I132
sS'w-1=reporter'
p81
I299
sS'w-1=still'
p82
I304
sS'w+1=and'
p83
I162
sS'w+2=even'
p84
I212
sS'ccomp=in'
p85
I68
sS'w-2=sense'
p86
I362
sS'nsubj=Hirano'
p87
I119
sS'w+2=how'
p88
I219
sS'advmod=probably'
p89
I36
sS'w+2=France'
p90
I190
sS'rcmod=be'
p91
I153
sS'w-2=here'
p92
I345
sS'nsubj=lot'
p93
I130
sS'w+2=we'
p94
I242
sS'w+2=Lucas'
p95
I195
sS'w+2=the'
p96
I235
sS'w-2=-rrb-'
p97
I317
sS'w-1=Zimbabweans'
p98
I263
sS'mark=if'
p99
I109
sS'w+2=should'
p100
I233
sS'w+2=now'
p101
I227
sS'advmod=though'
p102
I39
sS'advmod=aloud'
p103
I30
sS'w-1=many'
p104
I283
sS'nsubj=Sicherer'
p105
I126
sS'ccomp=want'
p106
I85
sS'det=the'
p107
I105
sS'w-1=Hirano'
p108
I252
sS'advcl=try'
p109
I26
sS'w-2=,'
p110
I315
sS'w-1=sganga'
p111
I301
sS'ccomp=continue'
p112
I62
sS'nsubj=who'
p113
I140
sS'w+2=Sudan'
p114
I200
sS'ccomp=possible'
p115
I76
sS'w+1=can'
p116
I164
sS'w-2=critic'
p117
I340
sS'w-1=to'
p118
I307
sS'w+2=more'
p119
I226
sS'nsubj=politician'
p120
I135
sS'dobj=#PRP#'
p121
I106
sS'nsubj=Inacker'
p122
I120
sS'w+2=all'
p123
I204
sS'w-2=spectator'
p124
I368
sS'advcl=know'
p125
I12
sS'w+2=whether'
p126
I243
sS'amod=architectural'
p127
I40
sS'dep=ready'
p128
I98
sS'ccomp=be'
p129
I57
sS'w-1=Palestinians'
p130
I259
sS'det=some'
p131
I104
sS'w-2=will'
p132
I376
sS'w-1=seven'
p133
I300
sS'dep=step'
p134
I100
sS'w-2=she'
p135
I364
sS'prep=for'
p136
I146
sS'ccomp=wait'
p137
I84
sS'advcl=get'
p138
I8
sS'w-2=Americans'
p139
I320
sS'w+2=far'
p140
I214
sS'advcl=role'
p141
I19
sS'advcl=want'
p142
I29
sS'w-2=U.S.'
p143
I331
sS'parataxis=say'
p144
I142
sS'npadvmod=#PRP#'
p145
I114
sS'ccomp=affect'
p146
I54
sS"w-1='s"
p147
I248
sS'advmod=always'
p148
I32
sS'w-2=observer'
p149
I355
sS'w-2=forgive'
p150
I341
sS'advmod=still'
p151
I38
sS'ccomp=kind'
p152
I71
sS'w-1=Inacker'
p153
I254
sS'w-1=politician'
p154
I296
sS'nn=sganga'
p155
I113
sS'w-1=Seven'
p156
I261
sS'advcl=buy'
p157
I2
sS'prep=of'
p158
I149
sS'dobj=whether'
p159
I108
sS'w-1=strike'
p160
I305
sS'w-2=those'
p161
I373
sS'w-2=shortage'
p162
I365
sS'advcl=continue'
p163
I5
sS'w+2=Israel'
p164
I193
sS'w-1=people'
p165
I295
sS'conj=do'
p166
I91
sS'w-1=no'
p167
I287
sS'w-1=observer'
p168
I289
sS'w-2=Ovie'
p169
I329
sS'w+2=or'
p170
I229
sS"w-2=''"
p171
I313
sS'w+2=on'
p172
I228
sS'w-1=and'
p173
I269
sS'det=any'
p174
I102
sS'w-2=leave'
p175
I349
sS'advcl=choose'
p176
I3
sS'w-1=Markey'
p177
I257
sS'w-1=any'
p178
I270
sS'advcl=wait'
p179
I28
sS'ccomp=change'
p180
I59
sS'w+2=virtually'
p181
I240
sS'ccomp=invest'
p182
I69
sS'amod=located'
p183
I42
sS"w-2='s"
p184
I314
sS'w-1=she'
p185
I302
sS'advcl=have'
p186
I10
sS'w-2=Scott'
p187
I330
sS'advmod=often'
p188
I34
sS'ccomp=enough'
p189
I64
sS'ccomp=unify'
p190
I81
sS'w+1=say'
p191
I174
sS'ccomp=bring'
p192
I58
sS'w+2=launch'
p193
I223
sS'advcl=turn'
p194
I27
sS'ccomp=vote'
p195
I83
sS'ccomp=ready'
p196
I77
sS'w+2=this'
p197
I238
sS'w+2=want'
p198
I241
sS'w-2=Gulsum'
p199
I325
sS'ccomp=respond'
p200
I78
sS'nsubj=some'
p201
I137
sS'w-1=always'
p202
I267
sS'dep=so'
p203
I99
sS'amod=new'
p204
I43
sS'w-1=Sami'
p205
I260
sS'w-1=natural'
p206
I285
sS'ccomp=pay'
p207
I74
sS'w+2=psychologist'
p208
I231
sS'nsubj=analyst'
p209
I129
sS'w-2=Brussels'
p210
I322
sS'w-1=analyst'
p211
I268
sS'nsubj=Joseph'
p212
I122
sS'prep=outside'
p213
I151
sS'nsubj=advocate'
p214
I128
sS'nsubj=people'
p215
I133
sS'prep=with'
p216
I152
sS'ccomp=sincere'
p217
I80
sS'w-2=if'
p218
I346
sS'advcl=event'
p219
I6
sS'advcl=thin'
p220
I25
sS'advcl=support'
p221
I23
sS'w+1=organization'
p222
I173
sS'w-2=it'
p223
I348
sS'w-2=Edward'
p224
I323
sS'w+2=do'
p225
I211
sS'w+2=CITGO'
p226
I187
sS'w-1=advocate'
p227
I265
sS'advcl=sick'
p228
I22
sS'advcl=first'
p229
I7
sS'num=#NUMBER#'
p230
I141
sS"w+2=''"
p231
I184
sS'w+2=Obama'
p232
I197
sS'advmod=also'
p233
I31
sS'w+2=represent'
p234
I232
sS'w-2=natural'
p235
I353
sS'w-2=have'
p236
I343
sS'cc=and'
p237
I51
sS'w-1=one-hit'
p238
I292
sS'w+2=Clinton'
p239
I189
sS'nsubj=Democrats'
p240
I118
sS'w+1=be'
p241
I163
sS'dep=know'
p242
I97
sS'ccomp=veer'
p243
I82
sS'w+1=if'
p244
I167
sS'w+1=in'
p245
I168
sS'rcmod=want'
p246
I156
sS'advcl=see'
p247
I21
sS'nsubj=Markey'
p248
I123
sS'nsubj=#PRP#'
p249
I115
sS'w+1=about'
p250
I160
sS'w-2=many'
p251
I352
sS'cc=but'
p252
I52
sS'dep=anything'
p253
I93
sS'w-1=eighth'
p254
I277
sS'ccomp=able'
p255
I53
sS'nn=#NUMBER#'
p256
I111
sS'w-2=busy'
p257
I338
sS'w-2=person'
p258
I358
sS'w-2=begin'
p259
I335
sS'w+2=China'
p260
I188
sS'ccomp=warning'
p261
I86
sS'w-2=purveyor'
p262
I359
sS'amod=one-hit'
p263
I44
sS'w-2=Bates'
p264
I321
sS'w-1=architectural'
p265
I271
sS'w-1=Sicherer'
p266
I262
sS'w-2=be'
p267
I334
sS'w+2=global'
p268
I216
sS'dep=hang'
p269
I95
sS'w+2=banjo'
p270
I206
sS'prep=on'
p271
I150
sS'partmod=like'
p272
I143
sS'w-2=get'
p273
I342
sS'w+1=whether'
p274
I180
sS'nsubj=spectator'
p275
I138
sS'nsubj=Bates'
p276
I117
sS'w-1=do'
p277
I276
sS'dep=come'
p278
I94
sS'w-2=safety'
p279
I360
sS'w+2=that'
p280
I234
sS'w+1=aloud'
p281
I161
sS'nsubj=Americans'
p282
I116
sS'w-1=who'
p283
I308
sS'ccomp=wonder'
p284
I88
sS'w-1=or'
p285
I294
sS'w-2=such'
p286
I370
sS'ccomp=author'
p287
I55
sS'advcl=say'
p288
I20
sS'w-1=of'
p289
I290
sS'w-2=to'
p290
I374
sS'w+2=and'
p291
I205
sS'tmod=#DATE#'
p292
I157
sS'w-2=and'
p293
I333
sS'w+2=America'
p294
I186
sS'ccomp=rest'
p295
I79
sS'w-1=zimbabwean'
p296
I311
sS'cop=be'
p297
I92
sS'w-2=he'
p298
I344
sS'w-2=world'
p299
I377
sS'advmod=now'
p300
I33
sS'w-2=say'
p301
I361
sS'w-1=keep'
p302
I282
sS'w+2=would'
p303
I246
sS'w-1=probably'
p304
I297
sS'ccomp=keep'
p305
I70
sS'w+2=concentrate'
p306
I210
sS'w-2=-'
p307
I316
sS'w-2=.'
p308
I318
sS'w+2=he'
p309
I218
sS'w+1=what'
p310
I178
sS"w-2='"
p311
I312
sS'aux=have'
p312
I47
sS'w-2=but'
p313
I339
sS'w-2=?'
p314
I319
sS'w-1=,'
p315
I249
sS'w-2=I'
p316
I326
sS'w-2=seven'
p317
I363
sS'w-2=book'
p318
I336
sS'w-1=consumer'
p319
I275
sS'w-1=also'
p320
I266
sS'nsubj=Palestinians'
p321
I124
sS'w-1=I'
p322
I253
sS'advcl=make'
p323
I14
sS'w+2=government'
p324
I217
sS'ccomp=weaken'
p325
I87
sS'w-1=recall'
p326
I298
sS'w-1=they'
p327
I306
sS'det=a'
p328
I101
sS'dep=inert'
p329
I96
sS'w-1=a'
p330
I264
sS'w-2=breath'
p331
I337
sS'w-2=make'
p332
I351
sS'w-1=he'
p333
I281
sS'advcl=put'
p334
I18
sS'nsubj=reporter'
p335
I136
sS'w+2=there'
p336
I236
sS'ccomp=last'
p337
I72
sS'neg=never'
p338
I110
sS'w-2=list'
p339
I350
sS'rcmod=happen'
p340
I155
sS'w+2=pain'
p341
I230
sS'w+2=they'
p342
I237
sS'ccomp=do'
p343
I63
sS'ccomp=back'
p344
I56
sS'advcl=prove'
p345
I17
sS'poss=world'
p346
I144
sS'advcl=mean'
p347
I15
sS'w+1=mother'
p348
I170
sS'ccomp=conduct'
p349
I61
sS'w+1=why'
p350
I182
sS'w-1=openly'
p351
I293
sS'advmod=openly'
p352
I35
sS'advcl=apply'
p353
I0
sS'w+1=who'
p354
I181
sS'ccomp=mean'
p355
I73
sS'w-2=start'
p356
I369
sS'w+2=Senegal'
p357
I199
sS'w+1=when'
p358
I179
sS'w+2=woman'
p359
I245
sS'aux=to'
p360
I49
sS'ccomp=play'
p361
I75
sS'advcl=go'
p362
I9
sS'nsubj=those'
p363
I139
sS'w+2=accurate'
p364
I203
sS'w+2=Mr.'
p365
I196
sS'w-1=for'
p366
I279
sS'w+1=,'
p367
I158
sS'w+1=.'
p368
I159
sS'w+2=,'
p369
I185
sS'w-1=often'
p370
I291
sS'advcl=idea'
p371
I11
sS'w+2=generation'
p372
I215
sS"w+2='"
p373
I183
sS'w-1=7'
p374
I250
sS'w-1=Indians'
p375
I255
sS'w+2=I'
p376
I192
sS'ccomp=come'
p377
I60
sS'w+2=Zimbabwe'
p378
I201
sS'w-2=Michael'
p379
I327
sS'w-1=now'
p380
I288
sS'w-1=may'
p381
I284
sS'w+2=Lebanon'
p382
I194
sS'w-1=as'
p383
I272
sS'aux=be'
p384
I46
sS'w+2=a'
p385
I202
ssS'dtype'
p386
cnumpy
float64
p387
sS'feature_names_'
p388
(lp389
g353
ag65
ag157
ag176
ag39
ag163
ag219
ag229
ag138
ag362
ag186
ag371
ag125
ag37
ag323
ag347
ag28
ag345
ag334
ag141
ag288
ag247
ag228
ag221
ag41
ag220
ag109
ag194
ag179
ag142
ag103
ag233
ag148
ag300
ag188
ag352
ag89
ag27
ag151
ag102
ag127
ag77
ag183
ag204
ag263
ag79
ag384
ag312
ag31
ag360
ag74
ag237
ag252
ag255
ag146
ag287
ag344
ag129
ag192
ag180
ag377
ag349
ag112
ag343
ag189
ag53
ag19
ag56
ag85
ag182
ag305
ag152
ag337
ag355
ag207
ag361
ag115
ag196
ag200
ag295
ag217
ag190
ag243
ag195
ag137
ag106
ag261
ag325
ag284
ag29
ag32
ag166
ag297
ag253
ag278
ag269
ag329
ag242
ag128
ag203
ag134
ag328
ag174
ag9
ag131
ag107
ag121
ag66
ag159
ag99
ag338
ag256
ag26
ag155
ag145
ag249
ag282
ag276
ag240
ag87
ag122
ag15
ag212
ag248
ag321
ag52
ag105
ag25
ag214
ag209
ag93
ag18
ag80
ag215
ag64
ag120
ag335
ag201
ag275
ag363
ag113
ag230
ag144
ag272
ag346
ag58
ag136
ag72
ag73
ag158
ag271
ag213
ag216
ag91
ag30
ag340
ag246
ag292
ag367
ag368
ag250
ag281
ag83
ag241
ag116
ag75
ag33
ag244
ag245
ag40
ag348
ag45
ag43
ag222
ag191
ag36
ag20
ag71
ag310
ag358
ag274
ag354
ag350
ag373
ag231
ag369
ag294
ag226
ag260
ag239
ag90
ag55
ag376
ag164
ag382
ag95
ag365
ag232
ag63
ag357
ag114
ag378
ag385
ag364
ag123
ag291
ag270
ag69
ag12
ag23
ag306
ag225
ag84
ag67
ag140
ag372
ag268
ag324
ag309
ag88
ag49
ag51
ag54
ag193
ag68
ag8
ag119
ag101
ag172
ag170
ag341
ag208
ag234
ag100
ag280
ag96
ag336
ag342
ag197
ag44
ag181
ag198
ag94
ag126
ag61
ag359
ag303
ag59
ag147
ag315
ag374
ag50
ag108
ag322
ag153
ag375
ag42
ag177
ag76
ag130
ag205
ag156
ag266
ag98
ag330
ag227
ag320
ag202
ag211
ag173
ag178
ag265
ag383
ag34
ag62
ag319
ag277
ag254
ag47
ag366
ag48
ag333
ag302
ag104
ag381
ag206
ag24
ag167
ag380
ag168
ag289
ag370
ag238
ag351
ag285
ag165
ag154
ag304
ag326
ag81
ag133
ag111
ag185
ag46
ag82
ag160
ag327
ag118
ag283
ag22
ag60
ag296
ag311
ag171
ag184
ag110
ag307
ag97
ag308
ag314
ag139
ag264
ag210
ag224
ag13
ag199
ag316
ag379
ag57
ag169
ag187
ag143
ag38
ag293
ag267
ag259
ag318
ag331
ag257
ag313
ag117
ag150
ag273
ag236
ag298
ag92
ag218
ag70
ag223
ag175
ag339
ag332
ag251
ag235
ag16
ag149
ag11
ag10
ag258
ag262
ag279
ag301
ag86
ag317
ag135
ag162
ag21
ag14
ag124
ag356
ag286
ag35
ag17
ag161
ag290
ag78
ag132
ag299
asS'separator'
p390
S'='
sS'sparse'
p391
I01
sb.