ccopy_reg
_reconstructor
p1
(csklearn.feature_extraction.dict_vectorizer
DictVectorizer
p2
c__builtin__
object
p3
NtRp4
(dp5
S'vocabulary_'
p6
(dp7
S'nsubj=patient'
p8
I6
sS'dobj=medicine'
p9
I4
sS'w-2=fibrosis'
p10
I25
sS'w-2=those'
p11
I28
sS'w-2=patient'
p12
I26
sS'w+2=drug'
p13
I15
sS'w-2=.'
p14
I24
sS'auxpass=be'
p15
I2
sS'w+1=drug'
p16
I10
sS'w+1=,'
p17
I9
sS'w-1=by'
p18
I21
sS'w-2=that'
p19
I27
sS'w-1=be'
p20
I20
sS'w-1=.'
p21
I19
sS'w-1=who'
p22
I22
sS'nsubj=who'
p23
I7
sS'w+1=the'
p24
I11
sS'w+2=medicine'
p25
I17
sS'w+2=be'
p26
I14
sS'nsubjpass=that'
p27
I8
sS'w+1=they'
p28
I12
sS'advcl=of'
p29
I0
sS'w+2=instead'
p30
I16
sS'w+2=smoke'
p31
I18
sS'aux=would'
p32
I1
sS'w-1=would'
p33
I23
sS'dobj=drug'
p34
I3
sS'w+1=this'
p35
I13
sS'dobj=smoke'
p36
I5
ssS'dtype'
p37
cnumpy
float64
p38
sS'feature_names_'
p39
(lp40
g29
ag32
ag15
ag34
ag9
ag36
ag8
ag23
ag27
ag17
ag16
ag24
ag28
ag35
ag26
ag13
ag30
ag25
ag31
ag21
ag20
ag18
ag22
ag33
ag14
ag10
ag12
ag19
ag11
asS'separator'
p41
S'='
sS'sparse'
p42
I01
sb.