ccopy_reg
_reconstructor
p1
(csklearn.feature_extraction.dict_vectorizer
DictVectorizer
p2
c__builtin__
object
p3
NtRp4
(dp5
S'sort'
p6
I01
sS'feature_names_'
p7
(lp8
S'advcl=address'
p9
aS'advcl=agree'
p10
aS'advcl=be'
p11
aS'advcl=enjoy'
p12
aS'advcl=ensure'
p13
aS'advcl=final'
p14
aS'advcl=form'
p15
aS'advcl=have'
p16
aS'advcl=leave'
p17
aS'advcl=likely'
p18
aS'advcl=meet'
p19
aS'advcl=member'
p20
aS'advcl=pass'
p21
aS'advcl=prospect'
p22
aS'advcl=say'
p23
aS'advcl=see'
p24
aS'advcl=want'
p25
aS'advmod=#PRP#'
p26
aS'advmod=absolutely'
p27
aS'advmod=adequately'
p28
aS'advmod=all'
p29
aS'advmod=also'
p30
aS'advmod=amicably'
p31
aS'advmod=area'
p32
aS'advmod=away'
p33
aS'advmod=better'
p34
aS'advmod=clearly'
p35
aS'advmod=diplomatically'
p36
aS'advmod=earlier'
p37
aS'advmod=easily'
p38
aS'advmod=effectively'
p39
aS'advmod=even'
p40
aS'advmod=eventually'
p41
aS'advmod=finally'
p42
aS'advmod=firmly'
p43
aS'advmod=fully'
p44
aS'advmod=generally'
p45
aS'advmod=how'
p46
aS'advmod=immediately'
p47
aS'advmod=internally'
p48
aS'advmod=maybe'
p49
aS'advmod=militarily'
p50
aS'advmod=now'
p51
aS'advmod=of'
p52
aS'advmod=only'
p53
aS'advmod=peacefully'
p54
aS'advmod=permanently'
p55
aS'advmod=politically'
p56
aS'advmod=potentially'
p57
aS'advmod=quickly'
p58
aS'advmod=rapidly'
p59
aS'advmod=really'
p60
aS'advmod=recently'
p61
aS'advmod=simply'
p62
aS'advmod=soon'
p63
aS'advmod=still'
p64
aS'advmod=therefore'
p65
aS'advmod=together'
p66
aS'advmod=too'
p67
aS'advmod=ultimately'
p68
aS'advmod=usually'
p69
aS'advmod=when'
p70
aS'advmod=yet'
p71
aS'amod=continue'
p72
aS'amod=diplomatic'
p73
aS'amod=same'
p74
aS'amod=strengthened'
p75
aS'aux=can'
p76
aS'aux=could'
p77
aS'aux=do'
p78
aS'aux=have'
p79
aS'aux=might'
p80
aS'aux=must'
p81
aS'aux=should'
p82
aS'aux=to'
p83
aS'aux=will'
p84
aS'aux=would'
p85
aS'auxpass=be'
p86
aS'cc=and'
p87
aS'cc=but'
p88
aS'cc=nor'
p89
aS'cc=or'
p90
aS'cc=rather'
p91
aS'ccomp=be'
p92
aS'ccomp=call'
p93
aS'ccomp=continue'
p94
aS'ccomp=difficult'
p95
aS'ccomp=direct'
p96
aS'ccomp=falter'
p97
aS'ccomp=in'
p98
aS'ccomp=leave'
p99
aS'ccomp=prepare'
p100
aS'ccomp=process'
p101
aS'ccomp=say'
p102
aS'ccomp=see'
p103
aS'ccomp=stage'
p104
aS'ccomp=wait'
p105
aS'complm=that'
p106
aS'complm=whether'
p107
aS'conj=answer'
p108
aS'conj=aware'
p109
aS'conj=be'
p110
aS'conj=begin'
p111
aS'conj=believer'
p112
aS'conj=complete'
p113
aS'conj=contribute'
p114
aS'conj=courage'
p115
aS'conj=creativity'
p116
aS'conj=declare'
p117
aS'conj=determination'
p118
aS'conj=do'
p119
aS'conj=ease'
p120
aS'conj=end'
p121
aS'conj=fight'
p122
aS'conj=get'
p123
aS'conj=have'
p124
aS'conj=help'
p125
aS'conj=increase'
p126
aS'conj=let'
p127
aS'conj=live'
p128
aS'conj=lower'
p129
aS'conj=make'
p130
aS'conj=move'
p131
aS'conj=pass'
p132
aS'conj=prefer'
p133
aS'conj=promote'
p134
aS'conj=provide'
p135
aS'conj=punish'
p136
aS'conj=reach'
p137
aS'conj=reinstate'
p138
aS'conj=rely'
p139
aS'conj=require'
p140
aS'conj=resolve'
p141
aS'conj=say'
p142
aS'conj=settle'
p143
aS'conj=unity'
p144
aS'conj=work'
p145
aS'cop=be'
p146
aS'csubj=offer'
p147
aS'csubj=release'
p148
aS'dep=do'
p149
aS'dep=essential'
p150
aS'dep=if'
p151
aS'dep=like'
p152
aS'dep=not'
p153
aS'dep=order'
p154
aS'dep=promptly'
p155
aS'dep=purely'
p156
aS'dep=relate'
p157
aS'dep=resolve'
p158
aS'dep=return'
p159
aS'dep=so'
p160
aS'dep=that'
p161
aS'dep=until'
p162
aS'det=the'
p163
aS'dobj=#PRP#'
p164
aS'dobj=Party'
p165
aS'dobj=all'
p166
aS'dobj=anything'
p167
aS'dobj=bloodshed'
p168
aS'dobj=case'
p169
aS'dobj=cause'
p170
aS'dobj=challenge'
p171
aS'dobj=claim'
p172
aS'dobj=complaint'
p173
aS'dobj=complex'
p174
aS'dobj=concern'
p175
aS'dobj=conflict'
p176
aS'dobj=contradiction'
p177
aS'dobj=crime'
p178
aS'dobj=crisis'
p179
aS'dobj=current'
p180
aS'dobj=deadlock'
p181
aS'dobj=difference'
p182
aS'dobj=disagreement'
p183
aS'dobj=dispute'
p184
aS'dobj=division'
p185
aS'dobj=election'
p186
aS'dobj=element'
p187
aS'dobj=emergency'
p188
aS'dobj=impasse'
p189
aS'dobj=incident'
p190
aS'dobj=issue'
p191
aS'dobj=kind'
p192
aS'dobj=many'
p193
aS'dobj=matter'
p194
aS'dobj=most'
p195
aS'dobj=number'
p196
aS'dobj=piracy'
p197
aS'dobj=plight'
p198
aS'dobj=political'
p199
aS'dobj=problem'
p200
aS'dobj=progress'
p201
aS'dobj=question'
p202
aS'dobj=range'
p203
aS'dobj=rebellion'
p204
aS'dobj=reform'
p205
aS'dobj=relationship'
p206
aS'dobj=role'
p207
aS'dobj=situation'
p208
aS'dobj=some'
p209
aS'dobj=source'
p210
aS'dobj=split'
p211
aS'dobj=stalemate'
p212
aS'dobj=stand'
p213
aS'dobj=standoff'
p214
aS'dobj=status'
p215
aS'dobj=strife'
p216
aS'dobj=strike'
p217
aS'dobj=system'
p218
aS'dobj=talk'
p219
aS'dobj=task'
p220
aS'dobj=technical'
p221
aS'dobj=tension'
p222
aS'dobj=thing'
p223
aS'dobj=this'
p224
aS'dobj=trouble'
p225
aS'dobj=version'
p226
aS'dobj=war'
p227
aS'dobj=wave'
p228
aS'dobj=weakness'
p229
aS'expl=there'
p230
aS'infmod=achieve'
p231
aS'infmod=allow'
p232
aS'infmod=continue'
p233
aS'infmod=dismantle'
p234
aS'infmod=do'
p235
aS'infmod=end'
p236
aS'infmod=fight'
p237
aS'infmod=go'
p238
aS'infmod=help'
p239
aS'infmod=make'
p240
aS'infmod=provide'
p241
aS'infmod=put'
p242
aS'infmod=seek'
p243
aS'infmod=tackle'
p244
aS'infmod=work'
p245
aS'mark=as'
p246
aS'mark=because'
p247
aS'mark=for'
p248
aS'mark=if'
p249
aS'mark=in'
p250
aS'mark=so'
p251
aS'mark=unless'
p252
aS'mark=until'
p253
aS'mark=while'
p254
aS'neg=never'
p255
aS'neg=not'
p256
aS'nn=purpose'
p257
aS'nsubj=#PRP#'
p258
aS'nsubj=China'
p259
aS'nsubj=Colombia'
p260
aS'nsubj=Iran'
p261
aS'nsubj=Japan'
p262
aS'nsubj=Lebanon'
p263
aS'nsubj=Nigerians'
p264
aS'nsubj=Palestinians'
p265
aS'nsubj=Poffenberger'
p266
aS'nsubj=Republicans'
p267
aS'nsubj=TV'
p268
aS'nsubj=Turkey'
p269
aS'nsubj=U.S.'
p270
aS'nsubj=WTO'
p271
aS'nsubj=Zebari'
p272
aS'nsubj=agency'
p273
aS'nsubj=amount'
p274
aS'nsubj=appeal'
p275
aS'nsubj=bill'
p276
aS'nsubj=board'
p277
aS'nsubj=chadian'
p278
aS'nsubj=country'
p279
aS'nsubj=court'
p280
aS'nsubj=dispute'
p281
aS'nsubj=donor'
p282
aS'nsubj=effort'
p283
aS'nsubj=election'
p284
aS'nsubj=enemy'
p285
aS'nsubj=expert'
p286
aS'nsubj=government'
p287
aS'nsubj=incentive'
p288
aS'nsubj=meeting'
p289
aS'nsubj=military'
p290
aS'nsubj=nation'
p291
aS'nsubj=negotiation'
p292
aS'nsubj=neighbor'
p293
aS'nsubj=official'
p294
aS'nsubj=opportunity'
p295
aS'nsubj=outsider'
p296
aS'nsubj=party'
p297
aS'nsubj=piece'
p298
aS'nsubj=plan'
p299
aS'nsubj=power'
p300
aS'nsubj=pressure'
p301
aS'nsubj=problem'
p302
aS'nsubj=side'
p303
aS'nsubj=solution'
p304
aS'nsubj=state'
p305
aS'nsubj=talk'
p306
aS'nsubj=technician'
p307
aS'nsubj=that'
p308
aS'nsubj=the'
p309
aS'nsubj=what'
p310
aS'nsubjpass=#PRP#'
p311
aS'nsubjpass=all'
p312
aS'nsubjpass=any'
p313
aS'nsubjpass=argument'
p314
aS'nsubjpass=battle'
p315
aS'nsubjpass=challenge'
p316
aS'nsubjpass=conflict'
p317
aS'nsubjpass=crisis'
p318
aS'nsubjpass=dispute'
p319
aS'nsubjpass=doubt'
p320
aS'nsubjpass=farmer'
p321
aS'nsubjpass=issue'
p322
aS'nsubjpass=many'
p323
aS'nsubjpass=matter'
p324
aS'nsubjpass=most'
p325
aS'nsubjpass=nothing'
p326
aS'nsubjpass=obstacle'
p327
aS'nsubjpass=power'
p328
aS'nsubjpass=problem'
p329
aS'nsubjpass=process'
p330
aS'nsubjpass=question'
p331
aS'nsubjpass=reporter'
p332
aS'nsubjpass=row'
p333
aS'nsubjpass=showdown'
p334
aS'nsubjpass=situation'
p335
aS'nsubjpass=some'
p336
aS'nsubjpass=stalemate'
p337
aS'nsubjpass=status'
p338
aS'nsubjpass=strike'
p339
aS'nsubjpass=that'
p340
aS'nsubjpass=thing'
p341
aS'nsubjpass=this'
p342
aS'nsubjpass=which'
p343
aS'parataxis=believe'
p344
aS'parataxis=remain'
p345
aS'partmod=need'
p346
aS'poss=#PRP#'
p347
aS'poss=Japan'
p348
aS'poss=Pakistan'
p349
aS'poss=everyone'
p350
aS'poss=government'
p351
aS'poss=team'
p352
aS'prep=about'
p353
aS'prep=after'
p354
aS'prep=alongside'
p355
aS'prep=amid'
p356
aS'prep=among'
p357
aS'prep=as'
p358
aS'prep=at'
p359
aS'prep=before'
p360
aS'prep=between'
p361
aS'prep=beyond'
p362
aS'prep=by'
p363
aS'prep=during'
p364
aS'prep=for'
p365
aS'prep=from'
p366
aS'prep=in'
p367
aS'prep=like'
p368
aS'prep=of'
p369
aS'prep=on'
p370
aS'prep=over'
p371
aS'prep=than'
p372
aS'prep=through'
p373
aS'prep=to'
p374
aS'prep=while'
p375
aS'prep=with'
p376
aS'prep=within'
p377
aS'prep=without'
p378
aS'prt=off'
p379
aS'prt=together'
p380
aS'rel=in'
p381
aS'tmod=#DATE#'
p382
aS'tmod=month'
p383
aS'tmod=spring'
p384
aS'tmod=time'
p385
aS'tmod=tomorrow'
p386
aS'tmod=week'
p387
aS'tmod=year'
p388
aS"w+1=''"
p389
aS'w+1=,'
p390
aS'w+1=-'
p391
aS'w+1=.'
p392
aS'w+1=Chad'
p393
aS'w+1=Iraq'
p394
aS'w+1=Israel'
p395
aS'w+1=Kenya'
p396
aS'w+1=Kosovo'
p397
aS'w+1=Lebanon'
p398
aS'w+1=Sudan'
p399
aS'w+1=Uganda'
p400
aS'w+1=Zimbabwe'
p401
aS'w+1=a'
p402
aS'w+1=african'
p403
aS'w+1=after'
p404
aS'w+1=all'
p405
aS'w+1=allow'
p406
aS'w+1=amicably'
p407
aS'w+1=and'
p408
aS'w+1=any'
p409
aS'w+1=anything'
p410
aS'w+1=as'
p411
aS'w+1=at'
p412
aS'w+1=be'
p413
aS'w+1=because'
p414
aS'w+1=before'
p415
aS'w+1=but'
p416
aS'w+1=by'
p417
aS'w+1=claim'
p418
aS'w+1=complaint'
p419
aS'w+1=concern'
p420
aS'w+1=conflict'
p421
aS'w+1=contentious'
p422
aS'w+1=crisis'
p423
aS'w+1=critical'
p424
aS'w+1=difference'
p425
aS'w+1=diplomatically'
p426
aS'w+1=dispute'
p427
aS'w+1=do'
p428
aS'w+1=during'
p429
aS'w+1=earlier'
p430
aS'w+1=early'
p431
aS'w+1=even'
p432
aS'w+1=for'
p433
aS'w+1=if'
p434
aS'w+1=immediately'
p435
aS'w+1=in'
p436
aS'w+1=international'
p437
aS'w+1=issue'
p438
aS'w+1=it'
p439
aS'w+1=its'
p440
aS'w+1=key'
p441
aS'w+1=land'
p442
aS'w+1=last'
p443
aS'w+1=major'
p444
aS'w+1=many'
p445
aS'w+1=most'
p446
aS'w+1=need'
p447
aS'w+1=not'
p448
aS'w+1=of'
p449
aS'w+1=on'
p450
aS'w+1=ongoing'
p451
aS'w+1=other'
p452
aS'w+1=outstanding'
p453
aS'w+1=peacefully'
p454
aS'w+1=piracy'
p455
aS'w+1=political'
p456
aS'w+1=problem'
p457
aS'w+1=promptly'
p458
aS'w+1=purely'
p459
aS'w+1=quality'
p460
aS'w+1=quickly'
p461
aS'w+1=rebellion'
p462
aS'w+1=regional'
p463
aS'w+1=remain'
p464
aS'w+1=security'
p465
aS'w+1=simply'
p466
aS'w+1=social'
p467
aS'w+1=some'
p468
aS'w+1=soon'
p469
aS'w+1=such'
p470
aS'w+1=technical'
p471
aS'w+1=tension'
p472
aS'w+1=than'
p473
aS'w+1=that'
p474
aS'w+1=the'
p475
aS'w+1=their60-year-old'
p476
aS'w+1=these'
p477
aS'w+1=they'
p478
aS'w+1=thing'
p479
aS'w+1=this'
p480
aS'w+1=those'
p481
aS'w+1=through'
p482
aS'w+1=to'
p483
aS'w+1=tofight'
p484
aS'w+1=together'
p485
aS'w+1=tomorrow'
p486
aS'w+1=underlie'
p487
aS'w+1=unless'
p488
aS'w+1=until'
p489
aS'w+1=violent'
p490
aS'w+1=what'
p491
aS'w+1=with'
p492
aS'w+1=within'
p493
aS'w+1=without'
p494
aS'w+1=world'
p495
aS'w+1=yet'
p496
aS"w+2=''"
p497
aS"w+2='s"
p498
aS'w+2=,'
p499
aS'w+2=.'
p500
aS'w+2=18'
p501
aS'w+2=BDA'
p502
aS'w+2=Cote'
p503
aS'w+2=Doha'
p504
aS'w+2=Friday'
p505
aS'w+2=Hill'
p506
aS'w+2=I'
p507
aS'w+2=Iran'
p508
aS'w+2=Kashmir'
p509
aS'w+2=Kennebunkport'
p510
aS'w+2=Macau'
p511
aS'w+2=Middle'
p512
aS'w+2=Monday'
p513
aS'w+2=North'
p514
aS'w+2=November'
p515
aS'w+2=Nuon'
p516
aS'w+2=Russia'
p517
aS'w+2=United'
p518
aS'w+2=Zimbabwe'
p519
aS'w+2=a'
p520
aS'w+2=abduction'
p521
aS'w+2=abkhazian'
p522
aS'w+2=about'
p523
aS'w+2=achieve'
p524
aS'w+2=add'
p525
aS'w+2=after'
p526
aS'w+2=aid'
p527
aS'w+2=among'
p528
aS'w+2=and'
p529
aS'w+2=answer'
p530
aS'w+2=any'
p531
aS'w+2=arab-israeli'
p532
aS'w+2=arab-kurdish'
p533
aS'w+2=as'
p534
aS'w+2=at'
p535
aS'w+2=bank'
p536
aS'w+2=banking'
p537
aS'w+2=be'
p538
aS'w+2=because'
p539
aS'w+2=between'
p540
aS'w+2=bloodshed'
p541
aS'w+2=border'
p542
aS'w+2=broken'
p543
aS'w+2=business'
p544
aS'w+2=but'
p545
aS'w+2=by'
p546
aS'w+2=central'
p547
aS'w+2=challenge'
p548
aS'w+2=civil'
p549
aS'w+2=commitment'
p550
aS'w+2=complete'
p551
aS'w+2=concern'
p552
aS'w+2=conflict'
p553
aS'w+2=conflicting'
p554
aS'w+2=contentious'
p555
aS'w+2=continue'
p556
aS'w+2=core'
p557
aS'w+2=country'
p558
aS'w+2=creativity'
p559
aS'w+2=crippling'
p560
aS'w+2=crisis'
p561
aS'w+2=currency'
p562
aS'w+2=current'
p563
aS'w+2=day'
p564
aS'w+2=deadlock'
p565
aS'w+2=deal'
p566
aS'w+2=decades-long'
p567
aS'w+2=declaration'
p568
aS'w+2=defend'
p569
aS'w+2=determination'
p570
aS'w+2=difference'
p571
aS'w+2=diplomacy'
p572
aS'w+2=diplomatic'
p573
aS'w+2=diplomatically'
p574
aS'w+2=dismantle'
p575
aS'w+2=dispute'
p576
aS'w+2=division'
p577
aS'w+2=do'
p578
aS'w+2=ease'
p579
aS'w+2=economic'
p580
aS'w+2=election'
p581
aS'w+2=electoral'
p582
aS'w+2=element'
p583
aS'w+2=emergency'
p584
aS'w+2=end'
p585
aS'w+2=extremism'
p586
aS'w+2=far'
p587
aS'w+2=favor'
p588
aS'w+2=fight'
p589
aS'w+2=file'
p590
aS'w+2=final'
p591
aS'w+2=financial'
p592
aS'w+2=for'
p593
aS'w+2=fundamental'
p594
aS'w+2=garbage'
p595
aS'w+2=global'
p596
aS'w+2=go'
p597
aS'w+2=have'
p598
aS'w+2=he'
p599
aS'w+2=help'
p600
aS'w+2=hope'
p601
aS'w+2=how'
p602
aS'w+2=if'
p603
aS'w+2=impasse'
p604
aS'w+2=in'
p605
aS'w+2=incident'
p606
aS'w+2=interstate'
p607
aS'w+2=investigator'
p608
aS'w+2=iranian'
p609
aS'w+2=iraqi'
p610
aS'w+2=israeli-palestinian'
p611
aS'w+2=issue'
p612
aS'w+2=it'
p613
aS'w+2=its'
p614
aS'w+2=kenyan'
p615
aS'w+2=key'
p616
aS'w+2=kind'
p617
aS'w+2=leave'
p618
aS'w+2=lebanese'
p619
aS'w+2=like'
p620
aS'w+2=long-standing'
p621
aS'w+2=longer-term'
p622
aS'w+2=longstanding'
p623
aS'w+2=make'
p624
aS'w+2=many'
p625
aS'w+2=matter'
p626
aS'w+2=month'
p627
aS'w+2=mutual'
p628
aS'w+2=nation'
p629
aS'w+2=national'
p630
aS'w+2=necessary'
p631
aS'w+2=negotiation'
p632
aS'w+2=new'
p633
aS'w+2=north'
p634
aS'w+2=north-south'
p635
aS'w+2=not'
p636
aS'w+2=now'
p637
aS'w+2=nuclear'
p638
aS'w+2=number'
p639
aS'w+2=of'
p640
aS'w+2=on'
p641
aS'w+2=one'
p642
aS'w+2=other'
p643
aS'w+2=outstanding'
p644
aS'w+2=over'
p645
aS'w+2=overall'
p646
aS'w+2=own'
p647
aS'w+2=palestinian'
p648
aS'w+2=peacefully'
p649
aS'w+2=pkk'
p650
aS'w+2=plight'
p651
aS'w+2=political'
p652
aS'w+2=polling'
p653
aS'w+2=problem'
p654
aS'w+2=promise'
p655
aS'w+2=protect'
p656
aS'w+2=provide'
p657
aS'w+2=psychological'
p658
aS'w+2=put'
p659
aS'w+2=quiet'
p660
aS'w+2=range'
p661
aS'w+2=region'
p662
aS'w+2=relationship'
p663
aS'w+2=role'
p664
aS'w+2=root'
p665
aS'w+2=say'
p666
aS'w+2=security'
p667
aS'w+2=see'
p668
aS'w+2=seek'
p669
aS'w+2=self-defense'
p670
aS'w+2=simply'
p671
aS'w+2=situation'
p672
aS'w+2=six-week'
p673
aS'w+2=so'
p674
aS'w+2=soon'
p675
aS'w+2=source'
p676
aS'w+2=split'
p677
aS'w+2=stalemate'
p678
aS'w+2=standoff'
p679
aS'w+2=status'
p680
aS'w+2=strength'
p681
aS'w+2=strife'
p682
aS'w+2=structural'
p683
aS'w+2=such'
p684
aS'w+2=surround'
p685
aS'w+2=tackle'
p686
aS'w+2=take'
p687
aS'w+2=terrorism-related'
p688
aS'w+2=that'
p689
aS'w+2=the'
p690
aS'w+2=there'
p691
aS'w+2=they'
p692
aS'w+2=this'
p693
aS'w+2=through'
p694
aS'w+2=to'
p695
aS'w+2=too'
p696
aS'w+2=trade'
p697
aS'w+2=unity'
p698
aS'w+2=unwaver'
p699
aS'w+2=vote'
p700
aS'w+2=war'
p701
aS'w+2=we'
p702
aS'w+2=which'
p703
aS'w+2=who'
p704
aS'w+2=widely'
p705
aS'w+2=with'
p706
aS'w+2=within'
p707
aS'w+2=without'
p708
aS'w+2=work'
p709
aS'w+2=world'
p710
aS"w-1=''"
p711
aS"w-1='s"
p712
aS'w-1=,'
p713
aS'w-1=-rrb-'
p714
aS'w-1=.'
p715
aS'w-1=China'
p716
aS'w-1=States'
p717
aS'w-1=U.S.'
p718
aS'w-1=War'
p719
aS'w-1=about'
p720
aS'w-1=absolutely'
p721
aS'w-1=adequately'
p722
aS'w-1=also'
p723
aS'w-1=and'
p724
aS'w-1=at'
p725
aS'w-1=be'
p726
aS'w-1=begin'
p727
aS'w-1=better'
p728
aS'w-1=but'
p729
aS'w-1=can'
p730
aS'w-1=clear'
p731
aS'w-1=clearly'
p732
aS'w-1=consider'
p733
aS'w-1=continue'
p734
aS'w-1=could'
p735
aS'w-1=country'
p736
aS'w-1=declaration'
p737
aS'w-1=despite'
p738
aS'w-1=diplomatic'
p739
aS'w-1=dispute'
p740
aS'w-1=easily'
p741
aS'w-1=effectively'
p742
aS'w-1=eventually'
p743
aS'w-1=finally'
p744
aS'w-1=firmly'
p745
aS'w-1=for'
p746
aS'w-1=fully'
p747
aS'w-1=government'
p748
aS'w-1=have'
p749
aS'w-1=he'
p750
aS'w-1=help'
p751
aS'w-1=in'
p752
aS'w-1=issue'
p753
aS'w-1=its'
p754
aS'w-1=make'
p755
aS'w-1=maybe'
p756
aS'w-1=must'
p757
aS'w-1=my'
p758
aS'w-1=neighbor'
p759
aS'w-1=never'
p760
aS'w-1=not'
p761
aS'w-1=of'
p762
aS'w-1=on'
p763
aS'w-1=only'
p764
aS'w-1=organization'
p765
aS'w-1=peacefully'
p766
aS'w-1=permanently'
p767
aS'w-1=potentially'
p768
aS'w-1=quickly'
p769
aS'w-1=rapidly'
p770
aS'w-1=recently'
p771
aS'w-1=reform'
p772
aS'w-1=same'
p773
aS'w-1=say'
p774
aS'w-1=should'
p775
aS'w-1=show'
p776
aS'w-1=statement'
p777
aS'w-1=strengthened'
p778
aS'w-1=technician'
p779
aS'w-1=that'
p780
aS'w-1=the'
p781
aS'w-1=they'
p782
aS'w-1=to'
p783
aS'w-1=toward'
p784
aS'w-1=towards'
p785
aS'w-1=treaty'
p786
aS'w-1=ultimately'
p787
aS'w-1=warn'
p788
aS'w-1=we'
p789
aS'w-1=whether'
p790
aS'w-1=will'
p791
aS'w-1=with'
p792
aS'w-1=without'
p793
aS'w-1=worth'
p794
aS'w-1=would'
p795
aS'w-1=yet'
p796
aS"w-2=''"
p797
aS"w-2='s"
p798
aS'w-2=,'
p799
aS'w-2=-'
p800
aS'w-2=-rrb-'
p801
aS'w-2=.'
p802
aS'w-2=1967'
p803
aS'w-2=Bush'
p804
aS'w-2=Darfur'
p805
aS'w-2=East'
p806
aS'w-2=Ecuador'
p807
aS'w-2=Gaza'
p808
aS'w-2=Iran'
p809
aS'w-2=Israelis'
p810
aS'w-2=Japan'
p811
aS'w-2=Khartoum'
p812
aS'w-2=Ki-moon'
p813
aS'w-2=Korea'
p814
aS'w-2=Kurd'
p815
aS'w-2=Lebanon'
p816
aS'w-2=Macau'
p817
aS'w-2=Musharraf'
p818
aS'w-2=Nigerians'
p819
aS'w-2=Obey'
p820
aS'w-2=Odinga'
p821
aS'w-2=Pakistan'
p822
aS'w-2=Palestinians'
p823
aS'w-2=Peace'
p824
aS'w-2=Pyongyang'
p825
aS'w-2=Serbia'
p826
aS'w-2=Sudan'
p827
aS'w-2=Tarisa'
p828
aS'w-2=Thursday'
p829
aS'w-2=Turkey'
p830
aS'w-2=United'
p831
aS'w-2=a'
p832
aS'w-2=able'
p833
aS'w-2=accord'
p834
aS'w-2=action'
p835
aS'w-2=active'
p836
aS'w-2=agency'
p837
aS'w-2=agree'
p838
aS'w-2=aim'
p839
aS'w-2=all'
p840
aS'w-2=along'
p841
aS'w-2=and'
p842
aS'w-2=appeal'
p843
aS'w-2=application'
p844
aS'w-2=arm'
p845
aS'w-2=assistance'
p846
aS'w-2=attempt'
p847
aS'w-2=avenue'
p848
aS'w-2=be'
p849
aS'w-2=because'
p850
aS'w-2=begin'
p851
aS'w-2=bid'
p852
aS'w-2=bill'
p853
aS'w-2=block'
p854
aS'w-2=both'
p855
aS'w-2=bullet'
p856
aS'w-2=burma'
p857
aS'w-2=but'
p858
aS'w-2=can'
p859
aS'w-2=candidacy'
p860
aS'w-2=chadian'
p861
aS'w-2=commit'
p862
aS'w-2=commitment'
p863
aS'w-2=committee'
p864
aS'w-2=community'
p865
aS'w-2=conflict'
p866
aS'w-2=cooperation'
p867
aS'w-2=could'
p868
aS'w-2=country'
p869
aS'w-2=course'
p870
aS'w-2=court'
p871
aS'w-2=creativity'
p872
aS'w-2=crisis'
p873
aS'w-2=demonstrate'
p874
aS'w-2=desire'
p875
aS'w-2=determination'
p876
aS'w-2=dialogue'
p877
aS'w-2=difficult'
p878
aS'w-2=diligence'
p879
aS'w-2=diplomacy'
p880
aS'w-2=diplomat'
p881
aS'w-2=director'
p882
aS'w-2=discuss'
p883
aS'w-2=disengage'
p884
aS'w-2=dispute'
p885
aS'w-2=do'
p886
aS'w-2=effort'
p887
aS'w-2=election'
p888
aS'w-2=electoral'
p889
aS'w-2=enact'
p890
aS'w-2=enemy'
p891
aS'w-2=essential'
p892
aS'w-2=everyone'
p893
aS'w-2=explain'
p894
aS'w-2=fail'
p895
aS'w-2=far'
p896
aS'w-2=find'
p897
aS'w-2=focus'
p898
aS'w-2=for'
p899
aS'w-2=forum'
p900
aS'w-2=frame'
p901
aS'w-2=from'
p902
aS'w-2=generally'
p903
aS'w-2=government'
p904
aS'w-2=hard'
p905
aS'w-2=have'
p906
aS'w-2=he'
p907
aS'w-2=help'
p908
aS'w-2=hesitant'
p909
aS'w-2=hope'
p910
aS'w-2=hopeful'
p911
aS'w-2=how'
p912
aS'w-2=idea'
p913
aS'w-2=if'
p914
aS'w-2=immediately'
p915
aS'w-2=importance'
p916
aS'w-2=impossible'
p917
aS'w-2=in'
p918
aS'w-2=incentive'
p919
aS'w-2=ingenuity'
p920
aS'w-2=initiate'
p921
aS'w-2=instead'
p922
aS'w-2=integral'
p923
aS'w-2=interested'
p924
aS'w-2=involve'
p925
aS'w-2=issue'
p926
aS'w-2=it'
p927
aS'w-2=its'
p928
aS'w-2=lack'
p929
aS'w-2=leader'
p930
aS'w-2=leadership'
p931
aS'w-2=legislation'
p932
aS'w-2=life'
p933
aS'w-2=likely'
p934
aS'w-2=longer'
p935
aS'w-2=make'
p936
aS'w-2=may'
p937
aS'w-2=means'
p938
aS'w-2=measure'
p939
aS'w-2=mechanism'
p940
aS'w-2=mediator'
p941
aS'w-2=meet'
p942
aS'w-2=military'
p943
aS'w-2=model'
p944
aS'w-2=morale'
p945
aS'w-2=more'
p946
aS'w-2=much'
p947
aS'w-2=must'
p948
aS'w-2=nation'
p949
aS'w-2=necessary'
p950
aS'w-2=need'
p951
aS'w-2=negotiation'
p952
aS'w-2=never'
p953
aS'w-2=nor'
p954
aS'w-2=not'
p955
aS'w-2=notably'
p956
aS'w-2=now'
p957
aS'w-2=nuclear'
p958
aS'w-2=obligation'
p959
aS'w-2=of'
p960
aS'w-2=office'
p961
aS'w-2=only'
p962
aS'w-2=opportunity'
p963
aS'w-2=option'
p964
aS'w-2=order'
p965
aS'w-2=party'
p966
aS'w-2=patience'
p967
aS'w-2=peace'
p968
aS'w-2=peacekeeping'
p969
aS'w-2=piracy'
p970
aS'w-2=place'
p971
aS'w-2=plan'
p972
aS'w-2=police'
p973
aS'w-2=position'
p974
aS'w-2=possible'
p975
aS'w-2=power'
p976
aS'w-2=pressure'
p977
aS'w-2=pro-active'
p978
aS'w-2=problem'
p979
aS'w-2=procedure'
p980
aS'w-2=progress'
p981
aS'w-2=promise'
p982
aS'w-2=proposal'
p983
aS'w-2=quest'
p984
aS'w-2=question'
p985
aS'w-2=re-election'
p986
aS'w-2=reaffirm'
p987
aS'w-2=really'
p988
aS'w-2=reconciliation'
p989
aS'w-2=region'
p990
aS'w-2=resource'
p991
aS'w-2=rice'
p992
aS'w-2=role'
p993
aS'w-2=say'
p994
aS'w-2=see'
p995
aS'w-2=seek'
p996
aS'w-2=sense'
p997
aS'w-2=serious'
p998
aS'w-2=shake'
p999
aS'w-2=should'
p1000
aS'w-2=side'
p1001
aS'w-2=situation'
p1002
aS'w-2=solution'
p1003
aS'w-2=state'
p1004
aS'w-2=steadfastness'
p1005
aS'w-2=step'
p1006
aS'w-2=strength'
p1007
aS'w-2=strengthen'
p1008
aS'w-2=stress'
p1009
aS'w-2=strike'
p1010
aS'w-2=successor'
p1011
aS'w-2=sufficient'
p1012
aS'w-2=swiftly'
p1013
aS'w-2=sympathy'
p1014
aS'w-2=talk'
p1015
aS'w-2=team'
p1016
aS'w-2=test'
p1017
aS'w-2=than'
p1018
aS'w-2=that'
p1019
aS'w-2=the'
p1020
aS'w-2=they'
p1021
aS'w-2=thing'
p1022
aS'w-2=this'
p1023
aS'w-2=time'
p1024
aS'w-2=timetable'
p1025
aS'w-2=to'
p1026
aS'w-2=together'
p1027
aS'w-2=track'
p1028
aS'w-2=trade'
p1029
aS'w-2=try'
p1030
aS'w-2=two'
p1031
aS'w-2=ultimately'
p1032
aS'w-2=unable'
p1033
aS'w-2=underestimate'
p1034
aS'w-2=usually'
p1035
aS'w-2=violence'
p1036
aS'w-2=want'
p1037
aS'w-2=way'
p1038
aS'w-2=we'
p1039
aS'w-2=weak'
p1040
aS'w-2=what'
p1041
aS'w-2=will'
p1042
aS'w-2=wish'
p1043
aS'w-2=with'
p1044
aS'w-2=work'
p1045
aS'w-2=would'
p1046
aS'w-2=yet'
p1047
aS'xcomp=#PRP#'
p1048
aS'xcomp=allow'
p1049
aS'xcomp=avoid'
p1050
aS'xcomp=deal'
p1051
aS'xcomp=dish'
p1052
aS'xcomp=do'
p1053
aS'xcomp=ease'
p1054
aS'xcomp=enable'
p1055
aS'xcomp=fight'
p1056
aS'xcomp=file'
p1057
aS'xcomp=have'
p1058
aS'xcomp=help'
p1059
aS'xcomp=immigrant'
p1060
aS'xcomp=overcome'
p1061
aS'xcomp=protect'
p1062
aS'xcomp=put'
p1063
aS'xcomp=show'
p1064
aS'xcomp=stabilize'
p1065
aS'xcomp=stable'
p1066
aS'xcomp=take'
p1067
asS'dtype'
p1068
cnumpy
float64
p1069
sS'vocabulary_'
p1070
(dp1071
g813
I804
sg360
I351
sg323
I314
sg187
I178
sg820
I811
sg245
I236
sg637
I628
sg815
I806
sg153
I144
sg964
I955
sg430
I421
sg93
I84
sg853
I844
sg654
I645
sg528
I519
sg760
I751
sg733
I724
sg144
I135
sg45
I36
sg729
I720
sg688
I679
sg444
I435
sg540
I531
sg736
I727
sg545
I536
sg888
I879
sg501
I492
sg722
I713
sg52
I43
sg739
I730
sg489
I480
sg679
I670
sg901
I892
sg240
I231
sg394
I385
sg759
I750
sg141
I132
sg877
I868
sg721
I712
sg951
I942
sg974
I965
sg257
I248
sg1021
I1012
sg372
I363
sg943
I934
sg363
I354
sg377
I368
sg1034
I1025
sg629
I620
sg192
I183
sg869
I860
sg321
I312
sg474
I465
sg471
I462
sg19
I10
sg287
I278
sg142
I133
sg795
I786
sg322
I313
sg810
I801
sg182
I173
sg374
I365
sg649
I640
sg946
I937
sg296
I287
sg10
I1
sg790
I781
sg477
I468
sg60
I51
sg902
I893
sg898
I889
sg393
I384
sg870
I861
sg1039
I1030
sg89
I80
sg1038
I1029
sg34
I25
sg791
I782
sg635
I626
sg767
I758
sg400
I391
sg459
I450
sg876
I867
sg259
I250
sg726
I717
sg41
I32
sg173
I164
sg204
I195
sg1020
I1011
sg91
I82
sg976
I967
sg1024
I1015
sg92
I83
sg1005
I996
sg651
I642
sg584
I575
sg300
I291
sg1025
I1016
sg310
I301
sg100
I91
sg333
I324
sg247
I238
sg80
I71
sg558
I549
sg449
I440
sg638
I629
sg252
I243
sg695
I686
sg450
I441
sg1014
I1005
sg167
I158
sg956
I947
sg190
I181
sg588
I579
sg985
I976
sg912
I903
sg754
I745
sg749
I740
sg318
I309
sg603
I594
sg414
I405
sg557
I548
sg170
I161
sg605
I596
sg26
I17
sg910
I901
sg995
I986
sg348
I339
sg983
I974
sg112
I103
sg704
I695
sg962
I953
sg1054
I1045
sg935
I926
sg504
I495
sg735
I726
sg140
I131
sg32
I23
sg353
I344
sg76
I67
sg106
I97
sg610
I601
sg36
I27
sg194
I185
sg251
I242
sg383
I374
sg1047
I1038
sg97
I88
sg68
I59
sg806
I797
sg700
I691
sg710
I701
sg1056
I1047
sg748
I739
sg406
I397
sg448
I439
sg887
I878
sg11
I2
sg738
I729
sg334
I325
sg1019
I1010
sg475
I466
sg687
I678
sg554
I545
sg560
I551
sg1048
I1039
sg446
I437
sg984
I975
sg634
I625
sg538
I529
sg1050
I1041
sg478
I469
sg1008
I999
sg481
I472
sg58
I49
sg311
I302
sg67
I58
sg367
I358
sg457
I448
sg85
I76
sg339
I330
sg740
I731
sg433
I424
sg263
I254
sg720
I711
sg930
I921
sg652
I643
sg121
I112
sg841
I832
sg680
I671
sg223
I214
sg71
I62
sg458
I449
sg435
I426
sg356
I347
sg37
I28
sg461
I452
sg39
I30
sg493
I484
sg768
I759
sg867
I858
sg814
I805
sg830
I821
sg592
I583
sg663
I654
sg915
I906
sg309
I300
sg917
I908
sg130
I121
sg785
I776
sg408
I399
sg782
I773
sg834
I825
sg98
I89
sg997
I988
sg973
I964
sg889
I880
sg602
I593
sg453
I444
sg967
I958
sg566
I557
sg559
I550
sg94
I85
sg462
I453
sg593
I584
sg452
I443
sg775
I766
sg965
I956
sg308
I299
sg438
I429
sg745
I736
sg779
I770
sg904
I895
sg622
I613
sg1033
I1024
sg963
I954
sg219
I210
sg9
I0
sg913
I904
sg611
I602
sg752
I743
sg702
I693
sg166
I157
sg177
I168
sg384
I375
sg66
I57
sg186
I177
sg110
I101
sg801
I792
sg781
I772
sg178
I169
sg996
I987
sg959
I950
sg612
I603
sg350
I341
sg485
I476
sg249
I240
sg368
I359
sg250
I241
sg731
I722
sg521
I512
sg1045
I1036
sg133
I124
sg636
I627
sg14
I5
sg659
I650
sg586
I577
sg564
I555
sg306
I297
sg838
I829
sg48
I39
sg1040
I1031
sg673
I664
sg871
I862
sg925
I916
sg184
I175
sg696
I687
sg221
I212
sg270
I261
sg115
I106
sg630
I621
sg163
I154
sg24
I15
sg928
I919
sg825
I816
sg854
I845
sg561
I552
sg1067
I1058
sg694
I685
sg147
I138
sg174
I165
sg1049
I1040
sg25
I16
sg381
I372
sg114
I105
sg201
I192
sg981
I972
sg547
I538
sg361
I352
sg750
I741
sg987
I978
sg960
I951
sg191
I182
sg670
I661
sg783
I774
sg108
I99
sg338
I329
sg860
I851
sg826
I817
sg226
I217
sg445
I436
sg1004
I995
sg932
I923
sg297
I288
sg280
I271
sg773
I764
sg172
I163
sg975
I966
sg409
I400
sg386
I377
sg807
I798
sg851
I842
sg744
I735
sg998
I989
sg741
I732
sg139
I130
sg262
I253
sg919
I910
sg281
I272
sg224
I215
sg62
I53
sg970
I961
sg627
I618
sg893
I884
sg753
I744
sg55
I46
sg349
I340
sg842
I833
sg371
I362
sg411
I402
sg609
I600
sg620
I611
sg242
I233
sg29
I20
sg447
I438
sg986
I977
sg289
I280
sg1031
I1022
sg786
I777
sg395
I386
sg576
I567
sg674
I665
sg248
I239
sg237
I228
sg340
I331
sg845
I836
sg1011
I1002
sg665
I656
sg1058
I1049
sg945
I936
sg284
I275
sg1061
I1052
sg556
I547
sg730
I721
sg193
I184
sg758
I749
sg241
I232
sg243
I234
sg451
I442
sg833
I824
sg482
I473
sg681
I672
sg486
I477
sg774
I765
sg792
I783
sg50
I41
sg476
I467
sg839
I830
sg332
I323
sg647
I638
sg968
I959
sg796
I787
sg38
I29
sg70
I61
sg267
I258
sg615
I606
sg1051
I1042
sg473
I464
sg365
I356
sg105
I96
sg161
I152
sg787
I778
sg623
I614
sg1027
I1018
sg510
I501
sg756
I747
sg843
I834
sg728
I719
sg765
I756
sg535
I526
sg20
I11
sg1022
I1013
sg307
I298
sg1053
I1044
sg534
I525
sg111
I102
sg978
I969
sg863
I854
sg828
I819
sg216
I207
sg352
I343
sg862
I853
sg894
I885
sg272
I263
sg857
I848
sg211
I202
sg933
I924
sg35
I26
sg86
I77
sg712
I703
sg120
I111
sg276
I267
sg268
I259
sg137
I128
sg526
I517
sg469
I460
sg660
I651
sg358
I349
sg517
I508
sg675
I666
sg875
I866
sg326
I317
sg64
I55
sg181
I172
sg747
I738
sg698
I689
sg805
I796
sg666
I657
sg387
I378
sg948
I939
sg357
I348
sg260
I251
sg275
I266
sg283
I274
sg650
I641
sg923
I914
sg628
I619
sg958
I949
sg595
I586
sg977
I968
sg831
I822
sg49
I40
sg570
I561
sg440
I431
sg288
I279
sg210
I201
sg1064
I1055
sg706
I697
sg426
I417
sg298
I289
sg472
I463
sg460
I451
sg135
I126
sg711
I702
sg890
I881
sg512
I503
sg103
I94
sg345
I336
sg188
I179
sg971
I962
sg370
I361
sg21
I12
sg180
I171
sg861
I852
sg527
I518
sg155
I146
sg822
I813
sg1036
I1027
sg113
I104
sg325
I316
sg797
I788
sg590
I581
sg214
I205
sg127
I118
sg562
I553
sg335
I326
sg821
I812
sg641
I632
sg483
I474
sg286
I277
sg317
I308
sg74
I65
sg653
I644
sg897
I888
sg607
I598
sg599
I590
sg582
I573
sg816
I807
sg705
I696
sg124
I115
sg165
I156
sg569
I560
sg776
I767
sg1057
I1048
sg852
I843
sg574
I565
sg42
I33
sg401
I392
sg331
I322
sg203
I194
sg378
I369
sg150
I141
sg847
I838
sg222
I213
sg207
I198
sg290
I281
sg169
I160
sg657
I648
sg456
I447
sg134
I125
sg109
I100
sg798
I789
sg583
I574
sg891
I882
sg496
I487
sg608
I599
sg16
I7
sg1059
I1050
sg53
I44
sg811
I802
sg742
I733
sg922
I913
sg631
I622
sg777
I768
sg872
I863
sg314
I305
sg1013
I1004
sg895
I886
sg1066
I1057
sg543
I534
sg437
I428
sg940
I931
sg305
I296
sg669
I660
sg1017
I1008
sg621
I612
sg69
I60
sg892
I883
sg999
I990
sg1046
I1037
sg72
I63
sg1001
I992
sg502
I493
sg546
I537
sg442
I433
sg143
I134
sg812
I803
sg238
I229
sg580
I571
sg351
I342
sg693
I684
sg175
I166
sg617
I608
sg1028
I1019
sg269
I260
sg131
I122
sg195
I186
sg656
I647
sg668
I659
sg40
I31
sg567
I558
sg171
I162
sg313
I304
sg884
I875
sg104
I95
sg490
I481
sg375
I366
sg254
I245
sg938
I929
sg160
I151
sg537
I528
sg78
I69
sg645
I636
sg1062
I1053
sg979
I970
sg924
I915
sg412
I403
sg1044
I1035
sg503
I494
sg84
I75
sg388
I379
sg625
I616
sg126
I117
sg319
I310
sg677
I668
sg484
I475
sg230
I221
sg342
I333
sg264
I255
sg233
I224
sg418
I409
sg376
I367
sg952
I943
sg536
I527
sg17
I8
sg273
I264
sg344
I335
sg330
I321
sg911
I902
sg149
I140
sg953
I944
sg614
I605
sg618
I609
sg931
I922
sg525
I516
sg972
I963
sg293
I284
sg784
I775
sg914
I905
sg217
I208
sg511
I502
sg874
I865
sg671
I662
sg918
I909
sg579
I570
sg771
I762
sg949
I940
sg27
I18
sg927
I918
sg578
I569
sg218
I209
sg991
I982
sg422
I413
sg200
I191
sg717
I708
sg33
I24
sg229
I220
sg366
I357
sg1035
I1026
sg1052
I1043
sg532
I523
sg992
I983
sg128
I119
sg539
I530
sg549
I540
sg600
I591
sg1063
I1054
sg555
I546
sg117
I108
sg969
I960
sg942
I933
sg327
I318
sg497
I488
sg279
I270
sg961
I952
sg399
I390
sg516
I507
sg515
I506
sg30
I21
sg697
I688
sg1012
I1003
sg424
I415
sg905
I896
sg320
I311
sg13
I4
sg866
I857
sg766
I757
sg199
I190
sg432
I423
sg506
I497
sg794
I785
sg594
I585
sg101
I92
sg865
I856
sg189
I180
sg823
I814
sg396
I387
sg883
I874
sg906
I897
sg565
I556
sg87
I78
sg685
I676
sg1032
I1023
sg95
I86
sg212
I203
sg563
I554
sg417
I408
sg413
I404
sg676
I667
sg1041
I1032
sg463
I454
sg644
I635
sg498
I489
sg524
I515
sg1016
I1007
sg1029
I1020
sg136
I127
sg434
I425
sg626
I617
sg577
I568
sg294
I285
sg601
I592
sg301
I292
sg138
I129
sg436
I427
sg487
I478
sg197
I188
sg658
I649
sg817
I808
sg439
I430
sg253
I244
sg479
I470
sg258
I249
sg530
I521
sg597
I588
sg836
I827
sg646
I637
sg389
I380
sg982
I973
sg346
I337
sg88
I79
sg993
I984
sg553
I544
sg467
I458
sg347
I338
sg751
I742
sg966
I957
sg119
I110
sg56
I47
sg954
I945
sg162
I153
sg77
I68
sg868
I859
sg295
I286
sg22
I13
sg846
I837
sg692
I683
sg632
I623
sg362
I353
sg421
I412
sg151
I142
sg793
I784
sg701
I692
sg900
I891
sg337
I328
sg81
I72
sg123
I114
sg873
I864
sg909
I900
sg552
I543
sg737
I728
sg606
I597
sg755
I746
sg292
I283
sg1065
I1056
sg703
I694
sg809
I800
sg158
I149
sg824
I815
sg522
I513
sg849
I840
sg575
I566
sg282
I273
sg369
I360
sg880
I871
sg882
I873
sg941
I932
sg604
I595
sg102
I93
sg678
I669
sg336
I327
sg661
I652
sg778
I769
sg573
I564
sg398
I389
sg277
I268
sg655
I646
sg156
I147
sg896
I887
sg202
I193
sg148
I139
sg391
I382
sg419
I410
sg662
I653
sg818
I809
sg856
I847
sg285
I276
sg266
I257
sg835
I826
sg616
I607
sg43
I34
sg639
I630
sg206
I197
sg581
I572
sg61
I52
sg571
I562
sg743
I734
sg640
I631
sg405
I396
sg844
I835
sg176
I167
sg1015
I1006
sg494
I485
sg315
I306
sg75
I66
sg278
I269
sg689
I680
sg514
I505
sg903
I894
sg468
I459
sg763
I754
sg568
I559
sg183
I174
sg239
I230
sg664
I655
sg1037
I1028
sg531
I522
sg533
I524
sg157
I148
sg513
I504
sg132
I123
sg208
I199
sg864
I855
sg23
I14
sg762
I753
sg129
I120
sg589
I580
sg1026
I1017
sg529
I520
sg382
I373
sg613
I604
sg585
I576
sg885
I876
sg881
I872
sg198
I189
sg302
I293
sg116
I107
sg523
I514
sg772
I763
sg1030
I1021
sg380
I371
sg480
I471
sg495
I486
sg146
I137
sg385
I376
sg1043
I1034
sg907
I898
sg718
I709
sg228
I219
sg164
I155
sg840
I831
sg492
I483
sg423
I414
sg51
I42
sg44
I35
sg994
I985
sg96
I87
sg886
I877
sg803
I794
sg947
I938
sg690
I681
sg359
I350
sg1042
I1033
sg1007
I998
sg54
I45
sg799
I790
sg800
I791
sg802
I793
sg724
I715
sg699
I690
sg491
I482
sg624
I615
sg196
I187
sg79
I70
sg858
I849
sg686
I677
sg464
I455
sg12
I3
sg466
I457
sg508
I499
sg427
I418
sg454
I445
sg715
I706
sg716
I707
sg713
I704
sg955
I946
sg957
I948
sg403
I394
sg304
I295
sg837
I828
sg541
I532
sg518
I509
sg1060
I1051
sg152
I143
sg682
I673
sg63
I54
sg808
I799
sg723
I714
sg303
I294
sg373
I364
sg265
I256
sg125
I116
sg642
I633
sg937
I928
sg465
I456
sg879
I870
sg82
I73
sg429
I420
sg31
I22
sg15
I6
sg921
I912
sg505
I496
sg832
I823
sg684
I675
sg231
I222
sg488
I479
sg65
I56
sg227
I218
sg407
I398
sg1055
I1046
sg179
I170
sg343
I334
sg455
I446
sg168
I159
sg341
I332
sg709
I700
sg420
I411
sg936
I927
sg246
I237
sg804
I795
sg667
I658
sg551
I542
sg691
I682
sg410
I401
sg633
I624
sg714
I705
sg47
I38
sg1002
I993
sg1003
I994
sg255
I246
sg299
I290
sg770
I761
sg1010
I1001
sg118
I109
sg107
I98
sg587
I578
sg926
I917
sg99
I90
sg234
I225
sg354
I345
sg18
I9
sg672
I663
sg122
I113
sg980
I971
sg757
I748
sg719
I710
sg648
I639
sg431
I422
sg598
I589
sg819
I810
sg57
I48
sg708
I699
sg542
I533
sg324
I315
sg1009
I1000
sg443
I434
sg73
I64
sg213
I204
sg145
I136
sg855
I846
sg848
I839
sg548
I539
sg90
I81
sg934
I925
sg159
I150
sg596
I587
sg205
I196
sg1023
I1014
sg46
I37
sg220
I211
sg154
I145
sg236
I227
sg271
I262
sg235
I226
sg929
I920
sg425
I416
sg707
I698
sg643
I634
sg908
I899
sg404
I395
sg379
I370
sg732
I723
sg274
I265
sg789
I780
sg83
I74
sg415
I406
sg1000
I991
sg939
I930
sg944
I935
sg591
I582
sg470
I461
sg328
I319
sg291
I282
sg859
I850
sg232
I223
sg988
I979
sg209
I200
sg329
I320
sg509
I500
sg185
I176
sg261
I252
sg746
I737
sg390
I381
sg920
I911
sg392
I383
sg990
I981
sg500
I491
sg499
I490
sg916
I907
sg1006
I997
sg256
I247
sg316
I307
sg950
I941
sg619
I610
sg364
I355
sg441
I432
sg764
I755
sg769
I760
sg59
I50
sg829
I820
sg28
I19
sg215
I206
sg428
I419
sg507
I498
sg989
I980
sg519
I510
sg397
I388
sg572
I563
sg683
I674
sg734
I725
sg402
I393
sg761
I752
sg727
I718
sg225
I216
sg416
I407
sg244
I235
sg878
I869
sg725
I716
sg550
I541
sg1018
I1009
sg850
I841
sg544
I535
sg780
I771
sg312
I303
sg899
I890
sg788
I779
sg355
I346
sg520
I511
sg827
I818
ssS'separator'
p1072
S'='
sS'sparse'
p1073
I01
sb.