ccopy_reg
_reconstructor
p1
(csklearn.feature_extraction.dict_vectorizer
DictVectorizer
p2
c__builtin__
object
p3
NtRp4
(dp5
S'sort'
p6
I01
sS'feature_names_'
p7
(lp8
S'acomp=alive'
p9
aS'acomp=better'
p10
aS'acomp=impossible'
p11
aS'acomp=local'
p12
aS'acomp=much'
p13
aS'advcl=be'
p14
aS'advcl=crash'
p15
aS'advcl=have'
p16
aS'advcl=lucky'
p17
aS'advcl=occur'
p18
aS'advcl=old'
p19
aS'advcl=writhe'
p20
aS'advmod=along'
p21
aS'advmod=already'
p22
aS'advmod=also'
p23
aS'advmod=away'
p24
aS'advmod=beautifully'
p25
aS'advmod=better'
p26
aS'advmod=commonly'
p27
aS'advmod=directly'
p28
aS'advmod=even'
p29
aS'advmod=eventually'
p30
aS'advmod=here'
p31
aS'advmod=less'
p32
aS'advmod=locally'
p33
aS'advmod=more'
p34
aS'advmod=much'
p35
aS'advmod=nutritionally'
p36
aS'advmod=once'
p37
aS'advmod=only'
p38
aS'advmod=overall'
p39
aS'advmod=properly'
p40
aS'advmod=right'
p41
aS'advmod=then'
p42
aS'advmod=well'
p43
aS'advmod=when'
p44
aS'advmod=yet'
p45
aS'aux=be'
p46
aS'aux=can'
p47
aS'aux=have'
p48
aS'aux=might'
p49
aS'aux=must'
p50
aS'aux=to'
p51
aS'aux=will'
p52
aS'aux=would'
p53
aS'auxpass=be'
p54
aS'auxpass=get'
p55
aS'cc=and'
p56
aS'cc=but'
p57
aS'cc=or'
p58
aS'ccomp=Fried'
p59
aS'ccomp=cook'
p60
aS'ccomp=have'
p61
aS'complm=that'
p62
aS'conj=#PRP#'
p63
aS'conj=alcohol'
p64
aS'conj=boil'
p65
aS'conj=burn'
p66
aS'conj=consume'
p67
aS'conj=develop'
p68
aS'conj=die'
p69
aS'conj=do'
p70
aS'conj=drink'
p71
aS'conj=enjoy'
p72
aS'conj=exercise'
p73
aS'conj=go'
p74
aS'conj=have'
p75
aS'conj=include'
p76
aS'conj=limit'
p77
aS'conj=live'
p78
aS'conj=migrate'
p79
aS'conj=play'
p80
aS'conj=produce'
p81
aS'conj=sell'
p82
aS'conj=stay'
p83
aS'conj=talk'
p84
aS'conj=tasty'
p85
aS'dep=augment'
p86
aS'dep=avoid'
p87
aS'dep=clone'
p88
aS'dep=diet'
p89
aS'dep=encourage'
p90
aS'dep=enough'
p91
aS'dep=get'
p92
aS'dep=go'
p93
aS'dep=less'
p94
aS'dep=much'
p95
aS'dep=prepared'
p96
aS'dep=try'
p97
aS'dobj=#NUMBER#'
p98
aS'dobj=#PRP#'
p99
aS'dobj=alga'
p100
aS'dobj=anything'
p101
aS'dobj=beef'
p102
aS'dobj=better'
p103
aS'dobj=bread'
p104
aS'dobj=breakfast'
p105
aS'dobj=cake'
p106
aS'dobj=calorie'
p107
aS'dobj=chicken'
p108
aS'dobj=chocolate'
p109
aS'dobj=cookie'
p110
aS'dobj=crop'
p111
aS'dobj=cucumber'
p112
aS'dobj=diet'
p113
aS'dobj=dinner'
p114
aS'dobj=dish'
p115
aS'dobj=dog'
p116
aS'dobj=enough'
p117
aS'dobj=fat'
p118
aS'dobj=fiber'
p119
aS'dobj=fifth'
p120
aS'dobj=fish'
p121
aS'dobj=food'
p122
aS'dobj=frog'
p123
aS'dobj=fruit'
p124
aS'dobj=grape'
p125
aS'dobj=habit'
p126
aS'dobj=healthier'
p127
aS'dobj=junk'
p128
aS'dobj=lot'
p129
aS'dobj=lunch'
p130
aS'dobj=maiden'
p131
aS'dobj=mango'
p132
aS'dobj=meal'
p133
aS'dobj=meat'
p134
aS'dobj=money'
p135
aS'dobj=more'
p136
aS'dobj=peanut'
p137
aS'dobj=piece'
p138
aS'dobj=piglet'
p139
aS'dobj=plenty'
p140
aS'dobj=quantity'
p141
aS'dobj=rice'
p142
aS'dobj=right'
p143
aS'dobj=salad'
p144
aS'dobj=sandwich'
p145
aS'dobj=seed'
p146
aS'dobj=serving'
p147
aS'dobj=skin'
p148
aS'dobj=snow'
p149
aS'dobj=something'
p150
aS'dobj=spinach'
p151
aS'dobj=strawberry'
p152
aS'dobj=sugar'
p153
aS'dobj=taco'
p154
aS'dobj=thing'
p155
aS'dobj=this'
p156
aS'dobj=way'
p157
aS'dobj=what'
p158
aS'mark=as'
p159
aS'mark=because'
p160
aS'mark=before'
p161
aS'mark=like'
p162
aS'mark=so'
p163
aS'mark=while'
p164
aS'neg=less'
p165
aS'neg=not'
p166
aS'nsubj=#PRP#'
p167
aS'nsubj=Indians'
p168
aS'nsubj=Jews'
p169
aS'nsubj=Rylee'
p170
aS'nsubj=and'
p171
aS'nsubj=animal'
p172
aS'nsubj=bird'
p173
aS'nsubj=challenge'
p174
aS'nsubj=child'
p175
aS'nsubj=class'
p176
aS'nsubj=day'
p177
aS'nsubj=dieter'
p178
aS'nsubj=each'
p179
aS'nsubj=family'
p180
aS'nsubj=half'
p181
aS'nsubj=lawmaker'
p182
aS'nsubj=locust'
p183
aS'nsubj=money'
p184
aS'nsubj=moose'
p185
aS'nsubj=other'
p186
aS'nsubj=participant'
p187
aS'nsubj=people'
p188
aS'nsubj=pest'
p189
aS'nsubj=pirate'
p190
aS'nsubj=planet'
p191
aS'nsubj=protester'
p192
aS'nsubj=question'
p193
aS'nsubj=recruit'
p194
aS'nsubj=sailor'
p195
aS'nsubj=student'
p196
aS'nsubj=table'
p197
aS'nsubj=that'
p198
aS'nsubj=those'
p199
aS'nsubj=user'
p200
aS'nsubj=who'
p201
aS'nsubj=wife'
p202
aS'nsubj=woman'
p203
aS'nsubj=yeast'
p204
aS'nsubjpass=#PRP#'
p205
aS'nsubjpass=Flamingo'
p206
aS'nsubjpass=increase'
p207
aS'nsubjpass=rice'
p208
aS'nsubjpass=rot'
p209
aS'nsubjpass=salary'
p210
aS'nsubjpass=that'
p211
aS'parataxis=find'
p212
aS'parataxis=say'
p213
aS'parataxis=sit'
p214
aS'partmod=pumpkin'
p215
aS'prep=after'
p216
aS'prep=as'
p217
aS'prep=at'
p218
aS'prep=before'
p219
aS'prep=by'
p220
aS'prep=despite'
p221
aS'prep=during'
p222
aS'prep=for'
p223
aS'prep=from'
p224
aS'prep=in'
p225
aS'prep=include'
p226
aS'prep=like'
p227
aS'prep=of'
p228
aS'prep=on'
p229
aS'prep=over'
p230
aS'prep=than'
p231
aS'prep=through'
p232
aS'prep=to'
p233
aS'prep=underneath'
p234
aS'prep=with'
p235
aS'prep=without'
p236
aS'prt=up'
p237
aS'tmod=day'
p238
aS'w+1=,'
p239
aS'w+1=-'
p240
aS'w+1=-lrb-'
p241
aS'w+1=.'
p242
aS'w+1=680'
p243
aS'w+1=Kosher'
p244
aS'w+1=U.S.'
p245
aS'w+1=a'
p246
aS'w+1=alga'
p247
aS'w+1=alive'
p248
aS'w+1=american'
p249
aS'w+1=and'
p250
aS'w+1=at'
p251
aS'w+1=away'
p252
aS'w+1=be'
p253
aS'w+1=beautifully'
p254
aS'w+1=before'
p255
aS'w+1=better'
p256
aS'w+1=breakfast'
p257
aS'w+1=by'
p258
aS'w+1=calorie-laden'
p259
aS'w+1=cheese'
p260
aS'w+1=chicken'
p261
aS'w+1=clone'
p262
aS'w+1=coarse'
p263
aS'w+1=considerably'
p264
aS'w+1=corn'
p265
aS'w+1=crop'
p266
aS'w+1=dinner'
p267
aS'w+1=during'
p268
aS'w+1=each'
p269
aS'w+1=enough'
p270
aS'w+1=fattening'
p271
aS'w+1=fewer'
p272
aS'w+1=fish'
p273
aS'w+1=five'
p274
aS'w+1=food'
p275
aS'w+1=for'
p276
aS'w+1=from'
p277
aS'w+1=good'
p278
aS'w+1=grape'
p279
aS'w+1=habit'
p280
aS'w+1=he'
p281
aS'w+1=healthier'
p282
aS'w+1=healthy'
p283
aS'w+1=here'
p284
aS'w+1=in'
p285
aS'w+1=it'
p286
aS'w+1=junk'
p287
aS'w+1=less'
p288
aS'w+1=like'
p289
aS'w+1=local'
p290
aS'w+1=locally'
p291
aS'w+1=lot'
p292
aS'w+1=lunch'
p293
aS'w+1=maiden'
p294
aS'w+1=mango'
p295
aS'w+1=meat'
p296
aS'w+1=mexican'
p297
aS'w+1=money'
p298
aS'w+1=more'
p299
aS'w+1=mud'
p300
aS'w+1=nasty'
p301
aS'w+1=nearly'
p302
aS'w+1=nutritionally'
p303
aS'w+1=once'
p304
aS'w+1=one'
p305
aS'w+1=only'
p306
aS'w+1=or'
p307
aS'w+1=other'
p308
aS'w+1=peanut'
p309
aS'w+1=plenty'
p310
aS'w+1=pork'
p311
aS'w+1=properly'
p312
aS'w+1=rather'
p313
aS'w+1=rice'
p314
aS'w+1=right'
p315
aS'w+1=seed'
p316
aS'w+1=should'
p317
aS'w+1=snow'
p318
aS'w+1=so'
p319
aS'w+1=some'
p320
aS'w+1=something'
p321
aS'w+1=special'
p322
aS'w+1=spinach'
p323
aS'w+1=strawberry'
p324
aS'w+1=taint'
p325
aS'w+1=tainted'
p326
aS'w+1=the'
p327
aS'w+1=these'
p328
aS'w+1=they'
p329
aS'w+1=this'
p330
aS'w+1=those'
p331
aS'w+1=three'
p332
aS'w+1=to'
p333
aS'w+1=too'
p334
aS'w+1=two'
p335
aS'w+1=underneath'
p336
aS'w+1=unleavened'
p337
aS'w+1=up'
p338
aS'w+1=various'
p339
aS'w+1=vendor'
p340
aS'w+1=waste-infested'
p341
aS'w+1=well'
p342
aS'w+1=western'
p343
aS'w+1=whale'
p344
aS'w+1=with'
p345
aS'w+1=without'
p346
aS'w+1=yet'
p347
aS'w+1=you'
p348
aS"w+2='"
p349
aS"w+2=''"
p350
aS'w+2=,'
p351
aS'w+2=-'
p352
aS'w+2=.'
p353
aS'w+2=?'
p354
aS'w+2=God'
p355
aS'w+2=a'
p356
aS'w+2=actual'
p357
aS'w+2=almost'
p358
aS'w+2=along'
p359
aS'w+2=and'
p360
aS'w+2=animal'
p361
aS'w+2=anything'
p362
aS'w+2=appear'
p363
aS'w+2=as'
p364
aS'w+2=at'
p365
aS'w+2=be'
p366
aS'w+2=beef'
p367
aS'w+2=begin'
p368
aS'w+2=bolster'
p369
aS'w+2=bread'
p370
aS'w+2=burn'
p371
aS'w+2=by'
p372
aS'w+2=cake'
p373
aS'w+2=calorie'
p374
aS'w+2=clothes'
p375
aS'w+2=contaminate'
p376
aS'w+2=cook'
p377
aS'w+2=crazy'
p378
aS'w+2=crop'
p379
aS'w+2=cucumber'
p380
aS'w+2=dark'
p381
aS'w+2=day'
p382
aS'w+2=dead'
p383
aS'w+2=diet'
p384
aS'w+2=dinner'
p385
aS'w+2=directly'
p386
aS'w+2=dish'
p387
aS'w+2=do'
p388
aS'w+2=dog'
p389
aS'w+2=drink'
p390
aS'w+2=during'
p391
aS'w+2=enjoy'
p392
aS'w+2=extremely'
p393
aS'w+2=feeling'
p394
aS'w+2=fiber'
p395
aS'w+2=fifth'
p396
aS'w+2=first'
p397
aS'w+2=fish'
p398
aS'w+2=five'
p399
aS'w+2=food'
p400
aS'w+2=for'
p401
aS'w+2=frog'
p402
aS'w+2=from'
p403
aS'w+2=fruit'
p404
aS'w+2=he'
p405
aS'w+2=healthy'
p406
aS'w+2=home'
p407
aS'w+2=hot'
p408
aS'w+2=if'
p409
aS'w+2=impossible'
p410
aS'w+2=in'
p411
aS'w+2=instead'
p412
aS'w+2=junk'
p413
aS'w+2=lace'
p414
aS'w+2=less'
p415
aS'w+2=like'
p416
aS'w+2=live'
p417
aS'w+2=lot'
p418
aS'w+2=low'
p419
aS'w+2=meal'
p420
aS'w+2=meat'
p421
aS'w+2=milk'
p422
aS'w+2=more'
p423
aS'w+2=much'
p424
aS'w+2=need'
p425
aS'w+2=never'
p426
aS'w+2=not'
p427
aS'w+2=of'
p428
aS'w+2=one'
p429
aS'w+2=or'
p430
aS'w+2=piece'
p431
aS'w+2=piglet'
p432
aS'w+2=poisonous'
p433
aS'w+2=produce'
p434
aS'w+2=quantity'
p435
aS'w+2=really'
p436
aS'w+2=restaurant'
p437
aS'w+2=rice'
p438
aS'w+2=salad'
p439
aS'w+2=sandwich'
p440
aS'w+2=saturated'
p441
aS'w+2=see'
p442
aS'w+2=seed'
p443
aS'w+2=sell'
p444
aS'w+2=serving'
p445
aS'w+2=sleep'
p446
aS'w+2=so'
p447
aS'w+2=so-called'
p448
aS'w+2=sugar'
p449
aS'w+2=taco'
p450
aS'w+2=talk'
p451
aS'w+2=than'
p452
aS'w+2=that'
p453
aS'w+2=the'
p454
aS'w+2=these'
p455
aS'w+2=they'
p456
aS'w+2=this'
p457
aS'w+2=water'
p458
aS'w+2=way'
p459
aS'w+2=what'
p460
aS'w+2=when'
p461
aS'w+2=whenever'
p462
aS'w+2=which'
p463
aS'w+2=who'
p464
aS'w+2=why'
p465
aS'w+2=with'
p466
aS"w-1='"
p467
aS"w-1=''"
p468
aS'w-1=,'
p469
aS'w-1=-'
p470
aS'w-1=I'
p471
aS'w-1=Jews'
p472
aS'w-1=Rylee'
p473
aS'w-1=Swartz'
p474
aS'w-1=`'
p475
aS'w-1=about'
p476
aS'w-1=actually'
p477
aS'w-1=after'
p478
aS'w-1=agree'
p479
aS'w-1=alone'
p480
aS'w-1=already'
p481
aS'w-1=also'
p482
aS'w-1=and'
p483
aS'w-1=be'
p484
aS'w-1=by'
p485
aS'w-1=can'
p486
aS'w-1=child'
p487
aS'w-1=chocolate'
p488
aS'w-1=commonly'
p489
aS'w-1=even'
p490
aS'w-1=from'
p491
aS'w-1=get'
p492
aS'w-1=grader'
p493
aS'w-1=half'
p494
aS'w-1=have'
p495
aS'w-1=human'
p496
aS'w-1=imagine'
p497
aS'w-1=it'
p498
aS'w-1=just'
p499
aS'w-1=like'
p500
aS'w-1=locust'
p501
aS'w-1=longer'
p502
aS'w-1=meal'
p503
aS'w-1=member'
p504
aS'w-1=might'
p505
aS'w-1=mother'
p506
aS'w-1=not'
p507
aS'w-1=now'
p508
aS'w-1=of'
p509
aS'w-1=only'
p510
aS'w-1=or'
p511
aS'w-1=other'
p512
aS'w-1=people'
p513
aS'w-1=pest'
p514
aS'w-1=pirate'
p515
aS'w-1=protester'
p516
aS'w-1=recruit'
p517
aS'w-1=report'
p518
aS'w-1=sailor'
p519
aS'w-1=say'
p520
aS'w-1=she'
p521
aS'w-1=start'
p522
aS'w-1=stop'
p523
aS'w-1=study'
p524
aS'w-1=that'
p525
aS'w-1=they'
p526
aS'w-1=to'
p527
aS'w-1=we'
p528
aS'w-1=who'
p529
aS'w-1=woman'
p530
aS'w-1=would'
p531
aS'w-1=yeast'
p532
aS'w-1=you'
p533
aS'w-2=!'
p534
aS'w-2=,'
p535
aS'w-2=.'
p536
aS'w-2=25'
p537
aS'w-2=:'
p538
aS'w-2=Angeles'
p539
aS'w-2=Flamingo'
p540
aS'w-2=Harry'
p541
aS'w-2=I'
p542
aS'w-2=Organization'
p543
aS'w-2=a'
p544
aS'w-2=able'
p545
aS'w-2=about'
p546
aS'w-2=afford'
p547
aS'w-2=already'
p548
aS'w-2=also'
p549
aS'w-2=and'
p550
aS'w-2=anything'
p551
aS'w-2=as'
p552
aS'w-2=be'
p553
aS'w-2=before'
p554
aS'w-2=bird'
p555
aS'w-2=bite'
p556
aS'w-2=breathing'
p557
aS'w-2=british'
p558
aS'w-2=buy'
p559
aS'w-2=can'
p560
aS'w-2=cancer'
p561
aS'w-2=chain'
p562
aS'w-2=chair'
p563
aS'w-2=challenge'
p564
aS'w-2=champagne'
p565
aS'w-2=class'
p566
aS'w-2=critter'
p567
aS'w-2=dark'
p568
aS'w-2=day'
p569
aS'w-2=decide'
p570
aS'w-2=die'
p571
aS'w-2=dieter'
p572
aS'w-2=difficult'
p573
aS'w-2=disease'
p574
aS'w-2=down'
p575
aS'w-2=dream'
p576
aS'w-2=drink'
p577
aS'w-2=enjoy'
p578
aS'w-2=enough'
p579
aS'w-2=exercise'
p580
aS'w-2=family'
p581
aS'w-2=feed'
p582
aS'w-2=feel'
p583
aS'w-2=find'
p584
aS'w-2=fish'
p585
aS'w-2=food'
p586
aS'w-2=forward'
p587
aS'w-2=generation'
p588
aS'w-2=get'
p589
aS'w-2=go'
p590
aS'w-2=group'
p591
aS'w-2=have'
p592
aS'w-2=hungry'
p593
aS'w-2=hunting'
p594
aS'w-2=in'
p595
aS'w-2=inclined'
p596
aS'w-2=instead'
p597
aS'w-2=just'
p598
aS'w-2=kilogram'
p599
aS'w-2=lawmaker'
p600
aS'w-2=let'
p601
aS'w-2=like'
p602
aS'w-2=likely'
p603
aS'w-2=little'
p604
aS'w-2=lot'
p605
aS'w-2=may'
p606
aS'w-2=money'
p607
aS'w-2=moose'
p608
aS'w-2=much'
p609
aS'w-2=must'
p610
aS'w-2=need'
p611
aS'w-2=no'
p612
aS'w-2=not'
p613
aS'w-2=now'
p614
aS'w-2=of'
p615
aS'w-2=or'
p616
aS'w-2=other'
p617
aS'w-2=patient'
p618
aS'w-2=people'
p619
aS'w-2=place'
p620
aS'w-2=plenty'
p621
aS'w-2=pup'
p622
aS'w-2=ready'
p623
aS'w-2=reluctant'
p624
aS'w-2=remains'
p625
aS'w-2=result'
p626
aS'w-2=rice'
p627
aS'w-2=rush'
p628
aS'w-2=safe'
p629
aS'w-2=school'
p630
aS'w-2=scientist'
p631
aS'w-2=seventh'
p632
aS'w-2=shopping'
p633
aS'w-2=shower'
p634
aS'w-2=sick'
p635
aS'w-2=sit'
p636
aS'w-2=some'
p637
aS'w-2=something'
p638
aS'w-2=spread'
p639
aS'w-2=strategy'
p640
aS'w-2=stressed'
p641
aS'w-2=sun'
p642
aS'w-2=temptation'
p643
aS'w-2=the'
p644
aS'w-2=they'
p645
aS'w-2=think'
p646
aS'w-2=those'
p647
aS'w-2=to'
p648
aS'w-2=toxic'
p649
aS'w-2=train'
p650
aS'w-2=try'
p651
aS'w-2=vineyard'
p652
aS'w-2=visit'
p653
aS'w-2=want'
p654
aS'w-2=water'
p655
aS'w-2=we'
p656
aS'w-2=what'
p657
aS'w-2=when'
p658
aS'w-2=who'
p659
aS'w-2=wife'
p660
aS'w-2=will'
p661
aS'w-2=would'
p662
aS'w-2=you'
p663
aS'xcomp=bolster'
p664
aS'xcomp=guilty'
p665
asS'dtype'
p666
cnumpy
float64
p667
sS'vocabulary_'
p668
(dp669
g42
I33
sg143
I134
sg219
I210
sg323
I314
sg390
I381
sg558
I549
sg34
I25
sg302
I293
sg422
I413
sg521
I512
sg183
I174
sg656
I647
sg619
I610
sg628
I619
sg652
I643
sg94
I85
sg391
I382
sg175
I166
sg168
I159
sg43
I34
sg81
I72
sg598
I589
sg71
I62
sg205
I196
sg501
I492
sg172
I163
sg561
I552
sg231
I222
sg500
I491
sg641
I632
sg220
I211
sg588
I579
sg127
I118
sg202
I193
sg111
I102
sg524
I515
sg243
I234
sg282
I273
sg531
I522
sg586
I577
sg520
I511
sg103
I94
sg273
I264
sg11
I2
sg125
I116
sg105
I96
sg431
I422
sg488
I479
sg120
I111
sg328
I319
sg85
I76
sg334
I325
sg566
I557
sg26
I17
sg503
I494
sg65
I56
sg108
I99
sg208
I199
sg290
I281
sg195
I186
sg485
I476
sg426
I417
sg484
I475
sg30
I21
sg581
I572
sg644
I635
sg395
I386
sg176
I167
sg404
I395
sg551
I542
sg254
I245
sg444
I435
sg554
I545
sg110
I101
sg197
I188
sg266
I257
sg209
I200
sg160
I151
sg49
I40
sg659
I650
sg173
I164
sg101
I92
sg570
I561
sg397
I388
sg362
I353
sg307
I298
sg448
I439
sg517
I508
sg165
I156
sg189
I180
sg638
I629
sg539
I530
sg409
I400
sg130
I121
sg298
I289
sg411
I402
sg465
I456
sg460
I451
sg355
I346
sg464
I455
sg320
I311
sg61
I52
sg370
I361
sg37
I28
sg482
I473
sg47
I38
sg62
I53
sg163
I154
sg123
I114
sg204
I195
sg275
I266
sg640
I631
sg292
I283
sg533
I524
sg162
I153
sg274
I265
sg491
I482
sg510
I501
sg372
I363
sg327
I318
sg449
I440
sg434
I425
sg38
I29
sg366
I357
sg329
I320
sg591
I582
sg541
I532
sg278
I269
sg331
I322
sg481
I472
sg361
I352
sg225
I216
sg53
I44
sg276
I267
sg476
I467
sg100
I91
sg443
I434
sg337
I328
sg155
I146
sg321
I312
sg45
I36
sg310
I301
sg96
I87
sg233
I224
sg283
I274
sg312
I303
sg67
I58
sg600
I591
sg250
I241
sg408
I399
sg182
I173
sg555
I546
sg458
I449
sg506
I497
sg136
I127
sg401
I392
sg308
I299
sg546
I537
sg198
I189
sg498
I489
sg237
I228
sg31
I22
sg457
I448
sg363
I354
sg455
I446
sg88
I79
sg289
I280
sg649
I640
sg177
I168
sg116
I107
sg611
I602
sg227
I218
sg141
I132
sg358
I349
sg121
I112
sg28
I19
sg382
I373
sg494
I485
sg324
I315
sg419
I410
sg413
I404
sg107
I98
sg645
I636
sg190
I181
sg461
I452
sg437
I428
sg89
I80
sg226
I217
sg109
I100
sg442
I433
sg616
I607
sg201
I192
sg300
I291
sg393
I384
sg615
I606
sg480
I471
sg25
I16
sg527
I518
sg394
I385
sg396
I387
sg593
I584
sg247
I238
sg423
I414
sg99
I90
sg68
I59
sg10
I1
sg642
I633
sg389
I380
sg210
I201
sg13
I4
sg343
I334
sg156
I147
sg178
I169
sg230
I221
sg462
I453
sg39
I30
sg416
I407
sg251
I242
sg311
I302
sg79
I70
sg77
I68
sg281
I272
sg447
I438
sg211
I202
sg140
I131
sg325
I316
sg486
I477
sg564
I555
sg374
I365
sg545
I536
sg572
I563
sg139
I130
sg335
I326
sg44
I35
sg381
I372
sg303
I294
sg623
I614
sg653
I644
sg223
I214
sg21
I12
sg514
I505
sg383
I374
sg557
I548
sg456
I447
sg451
I442
sg365
I356
sg115
I106
sg128
I119
sg364
I355
sg221
I212
sg212
I203
sg353
I344
sg78
I69
sg417
I408
sg54
I45
sg17
I8
sg502
I493
sg179
I170
sg637
I628
sg213
I204
sg35
I26
sg610
I601
sg60
I51
sg438
I429
sg187
I178
sg249
I240
sg272
I263
sg306
I297
sg150
I141
sg119
I110
sg466
I457
sg158
I149
sg170
I161
sg468
I459
sg647
I638
sg129
I120
sg291
I282
sg15
I6
sg513
I504
sg315
I306
sg378
I369
sg621
I612
sg287
I278
sg70
I61
sg63
I54
sg430
I421
sg215
I206
sg440
I431
sg446
I437
sg428
I419
sg124
I115
sg587
I578
sg534
I525
sg392
I383
sg400
I391
sg405
I396
sg12
I3
sg319
I310
sg75
I66
sg387
I378
sg376
I367
sg479
I470
sg93
I84
sg236
I227
sg385
I376
sg622
I613
sg599
I590
sg518
I509
sg112
I103
sg368
I359
sg473
I464
sg399
I390
sg336
I327
sg474
I465
sg402
I393
sg347
I338
sg16
I7
sg403
I394
sg629
I620
sg597
I588
sg318
I309
sg267
I258
sg612
I603
sg633
I624
sg132
I123
sg590
I581
sg153
I144
sg80
I71
sg427
I418
sg151
I142
sg435
I426
sg432
I423
sg73
I64
sg662
I653
sg424
I415
sg643
I634
sg238
I229
sg55
I46
sg472
I463
sg174
I165
sg181
I172
sg271
I262
sg264
I255
sg194
I185
sg59
I50
sg29
I20
sg418
I409
sg512
I503
sg36
I27
sg257
I248
sg117
I108
sg164
I155
sg384
I375
sg152
I143
sg293
I284
sg549
I540
sg52
I43
sg537
I528
sg22
I13
sg260
I251
sg180
I171
sg618
I609
sg288
I279
sg138
I129
sg147
I138
sg620
I611
sg188
I179
sg235
I226
sg58
I49
sg636
I627
sg199
I190
sg497
I488
sg262
I253
sg342
I333
sg200
I191
sg295
I286
sg113
I104
sg341
I332
sg380
I371
sg316
I307
sg595
I586
sg569
I560
sg373
I364
sg375
I366
sg604
I595
sg149
I140
sg388
I379
sg19
I10
sg369
I360
sg339
I330
sg627
I618
sg305
I296
sg203
I194
sg548
I539
sg504
I495
sg439
I430
sg478
I469
sg214
I205
sg350
I341
sg86
I77
sg280
I271
sg574
I565
sg69
I60
sg146
I137
sg425
I416
sg24
I15
sg592
I583
sg56
I47
sg196
I187
sg477
I468
sg114
I105
sg297
I288
sg577
I568
sg252
I243
sg258
I249
sg499
I490
sg580
I571
sg657
I648
sg184
I175
sg663
I654
sg106
I97
sg284
I275
sg658
I649
sg133
I124
sg92
I83
sg97
I88
sg543
I534
sg601
I592
sg285
I276
sg241
I232
sg286
I277
sg131
I122
sg167
I158
sg118
I109
sg134
I125
sg259
I250
sg654
I645
sg256
I247
sg57
I48
sg185
I176
sg596
I587
sg565
I556
sg529
I520
sg98
I89
sg584
I575
sg95
I86
sg193
I184
sg317
I308
sg583
I574
sg459
I450
sg83
I74
sg582
I573
sg161
I152
sg607
I598
sg50
I41
sg602
I593
sg575
I566
sg379
I370
sg436
I427
sg505
I496
sg463
I454
sg553
I544
sg228
I219
sg495
I486
sg540
I531
sg332
I323
sg229
I220
sg660
I651
sg91
I82
sg371
I362
sg567
I558
sg532
I523
sg66
I57
sg556
I547
sg279
I270
sg493
I484
sg72
I63
sg41
I32
sg261
I252
sg169
I160
sg377
I368
sg630
I621
sg489
I480
sg568
I559
sg322
I313
sg304
I295
sg452
I443
sg346
I337
sg415
I406
sg515
I506
sg453
I444
sg74
I65
sg171
I162
sg632
I623
sg360
I351
sg301
I292
sg589
I580
sg487
I478
sg511
I502
sg263
I254
sg523
I514
sg265
I256
sg32
I23
sg509
I500
sg665
I656
sg648
I639
sg102
I93
sg550
I541
sg338
I329
sg522
I513
sg562
I553
sg166
I157
sg651
I642
sg330
I321
sg23
I14
sg563
I554
sg579
I570
sg27
I18
sg137
I128
sg631
I622
sg547
I538
sg576
I567
sg639
I630
sg18
I9
sg496
I487
sg626
I617
sg64
I55
sg367
I358
sg609
I600
sg454
I445
sg218
I209
sg661
I652
sg217
I208
sg148
I139
sg535
I526
sg76
I67
sg559
I550
sg483
I474
sg154
I145
sg571
I562
sg48
I39
sg467
I458
sg646
I637
sg538
I529
sg157
I148
sg470
I461
sg469
I460
sg613
I604
sg614
I605
sg398
I389
sg122
I113
sg344
I335
sg542
I533
sg552
I543
sg650
I641
sg206
I197
sg594
I585
sg232
I223
sg429
I420
sg606
I597
sg617
I608
sg386
I377
sg348
I339
sg471
I462
sg268
I259
sg530
I521
sg126
I117
sg294
I285
sg410
I401
sg234
I225
sg544
I535
sg608
I599
sg526
I517
sg605
I596
sg475
I466
sg445
I436
sg340
I331
sg144
I135
sg359
I350
sg159
I150
sg296
I287
sg269
I260
sg313
I304
sg333
I324
sg145
I136
sg135
I126
sg277
I268
sg625
I616
sg90
I81
sg299
I290
sg87
I78
sg186
I177
sg216
I207
sg585
I576
sg270
I261
sg9
I0
sg345
I336
sg414
I405
sg207
I198
sg309
I300
sg516
I507
sg20
I11
sg634
I625
sg406
I397
sg519
I510
sg603
I594
sg314
I305
sg33
I24
sg450
I441
sg433
I424
sg490
I481
sg224
I215
sg245
I236
sg82
I73
sg528
I519
sg357
I348
sg51
I42
sg255
I246
sg441
I432
sg14
I5
sg492
I483
sg560
I551
sg354
I345
sg240
I231
sg239
I230
sg248
I239
sg242
I233
sg192
I183
sg407
I398
sg351
I342
sg352
I343
sg349
I340
sg664
I655
sg635
I626
sg222
I213
sg326
I317
sg578
I569
sg420
I411
sg536
I527
sg624
I615
sg421
I412
sg142
I133
sg246
I237
sg508
I499
sg507
I498
sg655
I646
sg412
I403
sg253
I244
sg191
I182
sg573
I564
sg525
I516
sg46
I37
sg244
I235
sg104
I95
sg356
I347
sg84
I75
sg40
I31
ssS'separator'
p670
S'='
sS'sparse'
p671
I01
sb.