ccopy_reg
_reconstructor
p1
(csklearn.feature_extraction.dict_vectorizer
DictVectorizer
p2
c__builtin__
object
p3
NtRp4
(dp5
S'vocabulary_'
p6
(dp7
S'w-2=love'
p8
I184
sS'poss=ship'
p9
I62
sS'w+1=off'
p10
I88
sS'w-1=awesome'
p11
I140
sS'w+2=and'
p12
I101
sS'w-2=people'
p13
I189
sS'advmod=often'
p14
I9
sS'w-1=bat'
p15
I141
sS'w-2=which'
p16
I203
sS'w-2=pig'
p17
I190
sS'nsubjpass=vegetable'
p18
I57
sS'conj=follow'
p19
I26
sS'det=the'
p20
I34
sS'w-2=say'
p21
I193
sS'w-2=election'
p22
I173
sS'w+1=over'
p23
I91
sS'dobj=water'
p24
I41
sS'w+2=chef'
p25
I106
sS'w+2=much'
p26
I118
sS'w-2=want'
p27
I199
sS'w-2=:'
p28
I162
sS'w-2=college'
p29
I171
sS'nsubj=who'
p30
I53
sS'w+2=vietnamese'
p31
I132
sS'w-2=of'
p32
I188
sS'w-2=need'
p33
I187
sS'w-2=have'
p34
I179
sS'w+2=open'
p35
I120
sS'w-1=to'
p36
I155
sS'w-2=eat'
p37
I172
sS'w+1=up'
p38
I94
sS'w-2=and'
p39
I168
sS'w+1=mine'
p40
I87
sS'nsubj=specialty'
p41
I52
sS'amod=good'
p42
I11
sS'w-1=home'
p43
I147
sS'dobj=#PRP#'
p44
I35
sS'w-2=prepare'
p45
I192
sS'w-1=would'
p46
I159
sS'w-2=clothes'
p47
I170
sS'w-2=.'
p48
I161
sS'w-1=jail'
p49
I149
sS'cop=be'
p50
I31
sS'w-1=can'
p51
I143
sS'advcl=start'
p52
I2
sS'w+1=with'
p53
I95
sS'advmod=now'
p54
I8
sS'w-2=County'
p55
I163
sS'advmod=just'
p56
I6
sS'w-1=and'
p57
I139
sS'prep=over'
p58
I69
sS'prep=at'
p59
I64
sS'parataxis=lose'
p60
I59
sS'w+1=at'
p61
I77
sS'nsubj=Ragone'
p62
I46
sS'nsubj=people'
p63
I51
sS'prep=with'
p64
I70
sS'cc=or'
p65
I19
sS'w+2=once'
p66
I119
sS'w-2=good'
p67
I178
sS'nsubjpass=than'
p68
I56
sS'w-2=fruit'
p69
I177
sS'w-2=way'
p70
I202
sS'w-1=well'
p71
I156
sS'w-1=be'
p72
I142
sS'conj=serve'
p73
I29
sS'w+2=add'
p74
I99
sS'w-1=,'
p75
I137
sS'w-2=family'
p76
I174
sS'w+2=with'
p77
I134
sS'dobj=food'
p78
I37
sS'w+2=team'
p79
I128
sS'w-2=I'
p80
I165
sS'w-2=wash'
p81
I200
sS'w-2=few'
p82
I175
sS'advcl=bowl'
p83
I0
sS'w-2=learn'
p84
I183
sS'nsubj=mother'
p85
I50
sS'w-2=mother'
p86
I186
sS'w-2=it'
p87
I182
sS'partmod=help'
p88
I60
sS'w-1=male'
p89
I150
sS'w+1=help'
p90
I84
sS'w+2=do'
p91
I108
sS'conj=add'
p92
I23
sS'w+2=coconut'
p93
I107
sS'w+1=on'
p94
I89
sS'w-2=a'
p95
I167
sS'ccomp=carry'
p96
I20
sS'w-1=they'
p97
I154
sS'advmod=essentially'
p98
I4
sS'prep=for'
p99
I65
sS'det=a'
p100
I33
sS'w+1=or'
p101
I90
sS'w-1=a'
p102
I138
sS'w-2=how'
p103
I181
sS'nsubjpass=which'
p104
I58
sS'w-1=woman'
p105
I158
sS'prep=accord'
p106
I63
sS'w+2=look'
p107
I115
sS'w+2=at'
p108
I102
sS"w+2=''"
p109
I96
sS'dobj=leader'
p110
I38
sS'w-1=he'
p111
I146
sS'w+2=what'
p112
I133
sS'w+2=it'
p113
I113
sS'w-1=good'
p114
I145
sS'w-2=porter'
p115
I191
sS'nsubj=grass'
p116
I47
sS'w+1=from'
p117
I83
sS'w+2=spoon'
p118
I126
sS'w+1=food'
p119
I81
sS'auxpass=be'
p120
I17
sS'aux=can'
p121
I14
sS'complm=that'
p122
I22
sS'poss=Rosie'
p123
I61
sS"w-1='s"
p124
I136
sS'nsubj=home'
p125
I48
sS'advmod=at'
p126
I3
sS'advmod=long'
p127
I7
sS'w-1=essentially'
p128
I144
sS'nsubjpass=meal'
p129
I55
sS'cc=and'
p130
I18
sS'w-2=herder'
p131
I180
sS'w-2=that'
p132
I197
sS'w+1=the'
p133
I93
sS'w+2=long'
p134
I114
sS'conj=server'
p135
I30
sS'w+2=be'
p136
I104
sS'xcomp=expose'
p137
I204
sS'w-2=Giuliani'
p138
I164
sS'nsubj=#NUMBER#'
p139
I44
sS'dobj=meal'
p140
I39
sS'amod=awesome'
p141
I10
sS'w+2=than'
p142
I129
sS'prep=in'
p143
I67
sS'advmod=how'
p144
I5
sS'aux=would'
p145
I16
sS'w+1=for'
p146
I82
sS'w+1=in'
p147
I85
sS'w-1=shelter'
p148
I152
sS'csubj=eat'
p149
I32
sS'w+1=it'
p150
I86
sS'w+2=taxi'
p151
I127
sS'nsubj=#PRP#'
p152
I45
sS'prep=from'
p153
I66
sS'w-2=-rrb-'
p154
I160
sS"w-1=''"
p155
I135
sS'conj=pour'
p156
I28
sS'prt=off'
p157
I71
sS'w-2=maid'
p158
I185
sS'w+2=family'
p159
I109
sS'aux=to'
p160
I15
sS'w+1=before'
p161
I78
sS'w+2=servant'
p162
I125
sS'w+2=the'
p163
I130
sS'w-2=taste'
p164
I196
sS'conj=do'
p165
I25
sS'w-1=who'
p166
I157
sS'w+2=pass'
p167
I121
sS'w+1=and'
p168
I76
sS'w-2=she'
p169
I194
sS'w+2=before'
p170
I105
sS'ccomp=stall'
p171
I21
sS'w+2=meal'
p172
I116
sS'w+1=,'
p173
I73
sS'w+1=.'
p174
I74
sS'w+2=up'
p175
I131
sS'w+2=rock'
p176
I123
sS'w+2=school'
p177
I124
sS'w+2=.'
p178
I97
sS'w-1=often'
p179
I151
sS'w+2=for'
p180
I111
sS'w-2=Rosie'
p181
I166
sS'neg=not'
p182
I43
sS'mark=before'
p183
I42
sS'w+2=rancher'
p184
I122
sS'w-1=it'
p185
I148
sS'w+2=food'
p186
I110
sS'w+2=he'
p187
I112
sS'advcl=do'
p188
I1
sS'w-2=ship'
p189
I195
sS'prt=up'
p190
I72
sS'w+1=so'
p191
I92
sS'nsubj=jail'
p192
I49
sS'nsubjpass=Giuliani'
p193
I54
sS'w+2=baby'
p194
I103
sS'w+2=meat'
p195
I117
sS'amod=male'
p196
I12
sS'w-2=the'
p197
I198
sS'dobj=all'
p198
I36
sS'dobj=rock'
p199
I40
sS'w+1=a'
p200
I75
sS'w-2=be'
p201
I169
sS'w-2=water'
p202
I201
sS'w+1=chicken'
p203
I79
sS'conj=look'
p204
I27
sS'w-1=the'
p205
I153
sS'prep=on'
p206
I68
sS'w-2=force'
p207
I176
sS'aux=be'
p208
I13
sS'w+2=all'
p209
I100
sS'w+1=die'
p210
I80
sS'w+2=a'
p211
I98
sS'conj=chef'
p212
I24
ssS'dtype'
p213
cnumpy
float64
p214
sS'feature_names_'
p215
(lp216
g83
ag188
ag52
ag126
ag98
ag144
ag56
ag127
ag54
ag14
ag141
ag42
ag196
ag208
ag121
ag160
ag145
ag120
ag130
ag65
ag96
ag171
ag122
ag92
ag212
ag165
ag19
ag204
ag156
ag73
ag135
ag50
ag149
ag100
ag20
ag44
ag198
ag78
ag110
ag140
ag199
ag24
ag183
ag182
ag139
ag152
ag62
ag116
ag125
ag192
ag85
ag63
ag41
ag30
ag193
ag129
ag68
ag18
ag104
ag60
ag88
ag123
ag9
ag106
ag59
ag99
ag153
ag143
ag206
ag58
ag64
ag157
ag190
ag173
ag174
ag200
ag168
ag61
ag161
ag203
ag210
ag119
ag146
ag117
ag90
ag147
ag150
ag40
ag10
ag94
ag101
ag23
ag191
ag133
ag38
ag53
ag109
ag178
ag211
ag74
ag209
ag12
ag108
ag194
ag136
ag170
ag25
ag93
ag91
ag159
ag186
ag180
ag187
ag113
ag134
ag107
ag172
ag195
ag26
ag66
ag35
ag167
ag184
ag176
ag177
ag162
ag118
ag151
ag79
ag142
ag163
ag175
ag31
ag112
ag77
ag155
ag124
ag75
ag102
ag57
ag11
ag15
ag72
ag51
ag128
ag114
ag111
ag43
ag185
ag49
ag89
ag179
ag148
ag205
ag97
ag36
ag71
ag166
ag105
ag46
ag154
ag48
ag28
ag55
ag138
ag80
ag181
ag95
ag39
ag201
ag47
ag29
ag37
ag22
ag76
ag82
ag207
ag69
ag67
ag34
ag131
ag103
ag87
ag84
ag8
ag158
ag86
ag33
ag32
ag13
ag17
ag115
ag45
ag21
ag169
ag189
ag164
ag132
ag197
ag27
ag81
ag202
ag70
ag16
ag137
asS'separator'
p217
S'='
sS'sparse'
p218
I01
sb.