ccopy_reg
_reconstructor
p1
(csklearn.feature_extraction.dict_vectorizer
DictVectorizer
p2
c__builtin__
object
p3
NtRp4
(dp5
S'sort'
p6
I01
sS'feature_names_'
p7
(lp8
S'advcl=located'
p9
aS'advcl=of'
p10
aS'advmod=ago'
p11
aS'advmod=around'
p12
aS'advmod=here'
p13
aS'advmod=nearby'
p14
aS'aux=be'
p15
aS'aux=have'
p16
aS'aux=to'
p17
aS'cc=and'
p18
aS'ccomp=problem'
p19
aS'conj=discover'
p20
aS'conj=hope'
p21
aS'dep=come'
p22
aS'dep=which'
p23
aS'dobj=Earth'
p24
aS'dobj=seafarer'
p25
aS'dobj=street'
p26
aS'dobj=world'
p27
aS'mark=if'
p28
aS'nsubj=#PRP#'
p29
aS'nsubj=pack'
p30
aS'nsubj=shopper'
p31
aS'nsubj=who'
p32
aS'prep=among'
p33
aS'prep=around'
p34
aS'prep=before'
p35
aS'prep=for'
p36
aS'prep=in'
p37
aS'prep=through'
p38
aS'prep=with'
p39
aS'prt=around'
p40
aS'prt=off'
p41
aS'w+1=about'
p42
aS'w+1=among'
p43
aS'w+1=around'
p44
aS'w+1=for'
p45
aS'w+1=in'
p46
aS'w+1=off'
p47
aS'w+1=seafarer'
p48
aS'w+1=the'
p49
aS'w+1=through'
p50
aS'w+2=,'
p51
aS'w+2=.'
p52
aS'w+2=Earth'
p53
aS'w+2=a'
p54
aS'w+2=and'
p55
aS'w+2=hour'
p56
aS'w+2=in'
p57
aS'w+2=spread'
p58
aS'w+2=street'
p59
aS'w+2=the'
p60
aS'w+2=world'
p61
aS'w-1=,'
p62
aS'w-1=.'
p63
aS'w-1=1950s'
p64
aS'w-1=and'
p65
aS'w-1=be'
p66
aS'w-1=dog'
p67
aS'w-1=find'
p68
aS'w-1=for'
p69
aS'w-1=have'
p70
aS'w-1=here'
p71
aS'w-1=to'
p72
aS'w-1=who'
p73
aS'w-1=year'
p74
aS'w-1=you'
p75
aS'w-2=Australia'
p76
aS'w-2=be'
p77
aS'w-2=beacon'
p78
aS'w-2=civilian'
p79
aS'w-2=equipment'
p80
aS'w-2=have'
p81
aS'w-2=night'
p82
aS'w-2=people'
p83
aS'w-2=shopper'
p84
aS'w-2=stray'
p85
aS'w-2=the'
p86
aS'w-2=they'
p87
aS'w-2=three'
p88
aS'w-2=which'
p89
aS'w-2=who'
p90
aS'w-2=you'
p91
asS'dtype'
p92
cnumpy
float64
p93
sS'vocabulary_'
p94
(dp95
g79
I70
sg35
I26
sg41
I32
sg67
I58
sg25
I16
sg46
I37
sg57
I48
sg17
I8
sg91
I82
sg90
I81
sg43
I34
sg22
I13
sg30
I21
sg31
I22
sg60
I51
sg11
I2
sg83
I74
sg76
I67
sg39
I30
sg21
I12
sg34
I25
sg20
I11
sg12
I3
sg24
I15
sg69
I60
sg15
I6
sg82
I73
sg74
I65
sg9
I0
sg66
I57
sg52
I43
sg27
I18
sg51
I42
sg71
I62
sg75
I66
sg63
I54
sg59
I50
sg62
I53
sg49
I40
sg73
I64
sg86
I77
sg18
I9
sg16
I7
sg61
I52
sg44
I35
sg65
I56
sg64
I55
sg32
I23
sg26
I17
sg13
I4
sg50
I41
sg78
I69
sg85
I76
sg80
I71
sg33
I24
sg89
I80
sg38
I29
sg23
I14
sg87
I78
sg72
I63
sg53
I44
sg56
I47
sg55
I46
sg77
I68
sg54
I45
sg10
I1
sg19
I10
sg84
I75
sg37
I28
sg14
I5
sg48
I39
sg45
I36
sg81
I72
sg40
I31
sg36
I27
sg47
I38
sg28
I19
sg29
I20
sg88
I79
sg42
I33
sg68
I59
sg70
I61
sg58
I49
ssS'separator'
p96
S'='
sS'sparse'
p97
I01
sb.