ccopy_reg
_reconstructor
p1
(csklearn.feature_extraction.dict_vectorizer
DictVectorizer
p2
c__builtin__
object
p3
NtRp4
(dp5
S'vocabulary_'
p6
(dp7
S'w+2=offer'
p8
I45
sS'w+2=apply'
p9
I34
sS'w-1=she'
p10
I54
sS'xcomp=increase'
p11
I73
sS'w+2=dive'
p12
I41
sS'xcomp=help'
p13
I72
sS'prep=to'
p14
I30
sS'aux=will'
p15
I10
sS'xcomp=authorize'
p16
I69
sS'aux=to'
p17
I9
sS'w+2=condemn'
p18
I40
sS'w-1=people'
p19
I53
sS'w-2=have'
p20
I61
sS'w-2=do'
p21
I59
sS'cc=but'
p22
I13
sS'w+2=attack'
p23
I36
sS'w+2=the'
p24
I48
sS'advcl=ask'
p25
I0
sS'w-1=long'
p26
I51
sS'w+2=call'
p27
I39
sS'nsubj=people'
p28
I26
sS'ccomp=want'
p29
I15
sS'complm=that'
p30
I16
sS'w-1=company'
p31
I50
sS'w+2=increase'
p32
I43
sS"w-2=''"
p33
I56
sS'aux=have'
p34
I7
sS'advcl=insist'
p35
I1
sS'xcomp=test'
p36
I77
sS'w-2=Pyongyang'
p37
I57
sS'advmod=long'
p38
I4
sS'xcomp=condemn'
p39
I71
sS'nsubj=OPEC'
p40
I22
sS'w+1=to'
p41
I33
sS'w+2=reply'
p42
I47
sS'w-2=would'
p43
I65
sS'neg=not'
p44
I18
sS'advcl=predict'
p45
I2
sS'cc=and'
p46
I12
sS'w+2=invest'
p47
I44
sS'w+2=authorize'
p48
I37
sS'xcomp=call'
p49
I70
sS'nsubj=Watch'
p50
I24
sS'xcomp=point'
p51
I76
sS'w-1=be'
p52
I49
sS'w-2=should'
p53
I63
sS'conj=ask'
p54
I17
sS'nsubj=Pyongyang'
p55
I23
sS'w-2=go'
p56
I60
sS'w+2=be'
p57
I38
sS'nsubj=Israelis'
p58
I21
sS'nsubj=Dubik'
p59
I20
sS'ccomp=add'
p60
I14
sS'w-1=to'
p61
I55
sS'nsubj=system'
p62
I27
sS'xcomp=attack'
p63
I68
sS'nsubj=company'
p64
I25
sS'aux=should'
p65
I8
sS'w-2=and'
p66
I58
sS'w-1=not'
p67
I52
sS'w-2=will'
p68
I64
sS'xcomp=apply'
p69
I66
sS'prep=in'
p70
I28
sS'advmod=down'
p71
I3
sS'aux=would'
p72
I11
sS'prep=on'
p73
I29
sS'w+1=in'
p74
I31
sS'w+2=assume'
p75
I35
sS'aux=be'
p76
I5
sS'w-2=say'
p77
I62
sS'w+2=point'
p78
I46
sS'xcomp=invest'
p79
I74
sS'w+1=on'
p80
I32
sS'nsubj=#PRP#'
p81
I19
sS'xcomp=assume'
p82
I67
sS'xcomp=offer'
p83
I75
sS'w+2=help'
p84
I42
sS'aux=do'
p85
I6
ssS'dtype'
p86
cnumpy
float64
p87
sS'feature_names_'
p88
(lp89
g25
ag35
ag45
ag71
ag38
ag76
ag85
ag34
ag65
ag17
ag15
ag72
ag46
ag22
ag60
ag29
ag30
ag54
ag44
ag81
ag59
ag58
ag40
ag55
ag50
ag64
ag28
ag62
ag70
ag73
ag14
ag74
ag80
ag41
ag9
ag75
ag23
ag48
ag57
ag27
ag18
ag12
ag84
ag32
ag47
ag8
ag78
ag42
ag24
ag52
ag31
ag26
ag67
ag19
ag10
ag61
ag33
ag37
ag66
ag21
ag56
ag20
ag77
ag53
ag68
ag43
ag69
ag82
ag63
ag16
ag49
ag39
ag13
ag11
ag79
ag83
ag51
ag36
asS'separator'
p90
S'='
sS'sparse'
p91
I01
sb.