ccopy_reg
_reconstructor
p1
(csklearn.feature_extraction.dict_vectorizer
DictVectorizer
p2
c__builtin__
object
p3
NtRp4
(dp5
S'sort'
p6
I01
sS'feature_names_'
p7
(lp8
S'advmod=when'
p9
aS'amod=apparent'
p10
aS'amod=concentrated'
p11
aS'aux=be'
p12
aS'aux=have'
p13
aS'aux=to'
p14
aS'aux=would'
p15
aS'cc=and'
p16
aS'cc=or'
p17
aS'ccomp=refuse'
p18
aS'conj=careful'
p19
aS'conj=haste'
p20
aS'conj=inadvertent'
p21
aS'conj=operate'
p22
aS'conj=reach'
p23
aS'cop=be'
p24
aS'dep=do'
p25
aS'dobj=case'
p26
aS'dobj=funding'
p27
aS'mark=after'
p28
aS'mark=if'
p29
aS'mark=while'
p30
aS'neg=not'
p31
aS'nsubj=#PRP#'
p32
aS'nsubj=Congress'
p33
aS'nsubj=executive'
p34
aS'nsubj=failure'
p35
aS'nsubj=jury'
p36
aS'nsubj=lapse'
p37
aS'nsubj=that'
p38
aS'nsubj=thing'
p39
aS'prep=before'
p40
aS'prep=for'
p41
aS'prep=in'
p42
aS'prep=on'
p43
aS'purpcl=try'
p44
aS"w+1='"
p45
aS"w+1=''"
p46
aS'w+1=,'
p47
aS'w+1=.'
p48
aS'w+1=a'
p49
aS'w+1=act'
p50
aS'w+1=and'
p51
aS'w+1=attack'
p52
aS'w+1=attempt'
p53
aS'w+1=be'
p54
aS'w+1=blow'
p55
aS'w+1=campaign'
p56
aS'w+1=contamination'
p57
aS'w+1=control'
p58
aS'w+1=foot-dragging'
p59
aS'w+1=for'
p60
aS'w+1=haste'
p61
aS'w+1=intent'
p62
aS'w+1=mutilation'
p63
aS'w+1=on'
p64
aS'w+1=or'
p65
aS'w+1=poisoning'
p66
aS'w+1=policy'
p67
aS'w+1=scheme'
p68
aS'w+1=slander'
p69
aS'w+1=strategy'
p70
aS'w+1=tactical'
p71
aS'w+1=taking'
p72
aS'w+1=targeting'
p73
aS'w+1=war'
p74
aS'w+1=way'
p75
aS"w+2=''"
p76
aS'w+2=,'
p77
aS'w+2=.'
p78
aS'w+2=Pentagon'
p79
aS'w+2=and'
p80
aS'w+2=approach'
p81
aS'w+2=by'
p82
aS'w+2=careful'
p83
aS'w+2=case'
p84
aS'w+2=during'
p85
aS'w+2=four'
p86
aS'w+2=funding'
p87
aS'w+2=inadvertent'
p88
aS'w+2=inside'
p89
aS'w+2=less'
p90
aS'w+2=month'
p91
aS'w+2=of'
p92
aS'w+2=over'
p93
aS'w+2=retreat'
p94
aS'w+2=than'
p95
aS'w+2=that'
p96
aS'w+2=the'
p97
aS'w+2=to'
p98
aS'w+2=unprovoked'
p99
aS'w+2=upstream'
p100
aS"w-1=''"
p101
aS'w-1=,'
p102
aS'w-1=Congress'
p103
aS'w-1=Miami'
p104
aS'w-1=`'
p105
aS'w-1=a'
p106
aS'w-1=all'
p107
aS'w-1=and'
p108
aS'w-1=apparent'
p109
aS'w-1=be'
p110
aS'w-1=by'
p111
aS'w-1=have'
p112
aS'w-1=not'
p113
aS'w-1=of'
p114
aS'w-1=start'
p115
aS'w-1=the'
p116
aS'w-1=to'
p117
aS'w-1=we'
p118
aS"w-2=''"
p119
aS'w-2=,'
p120
aS'w-2=-rrb-'
p121
aS'w-2=Litvinenko'
p122
aS'w-2=Monday'
p123
aS'w-2=a'
p124
aS'w-2=as'
p125
aS'w-2=authority'
p126
aS'w-2=be'
p127
aS'w-2=case'
p128
aS'w-2=complaint'
p129
aS'w-2=concentrated'
p130
aS'w-2=do'
p131
aS'w-2=emphasize'
p132
aS'w-2=expect'
p133
aS'w-2=have'
p134
aS'w-2=in'
p135
aS'w-2=judge'
p136
aS'w-2=jury'
p137
aS'w-2=justify'
p138
aS'w-2=of'
p139
aS'w-2=or'
p140
aS'w-2=outrageous'
p141
aS'w-2=pursue'
p142
aS'w-2=recent'
p143
aS'w-2=story'
p144
aS'w-2=that'
p145
aS'w-2=these'
p146
aS'w-2=to'
p147
aS'w-2=when'
p148
aS'w-2=with'
p149
aS'w-2=would'
p150
asS'dtype'
p151
cnumpy
float64
p152
sS'vocabulary_'
p153
(dp154
g119
I110
sg53
I44
sg100
I91
sg25
I16
sg62
I53
sg59
I50
sg85
I76
sg90
I81
sg70
I61
sg94
I85
sg96
I87
sg130
I121
sg150
I141
sg66
I57
sg144
I135
sg140
I131
sg27
I18
sg61
I52
sg89
I80
sg139
I130
sg114
I105
sg35
I26
sg117
I108
sg147
I138
sg80
I71
sg102
I93
sg115
I106
sg132
I123
sg79
I70
sg131
I122
sg31
I22
sg67
I58
sg133
I124
sg30
I21
sg24
I15
sg93
I84
sg129
I120
sg68
I59
sg38
I29
sg91
I82
sg99
I90
sg75
I66
sg97
I88
sg74
I65
sg120
I111
sg17
I8
sg13
I4
sg111
I102
sg110
I101
sg136
I127
sg11
I2
sg33
I24
sg135
I126
sg84
I75
sg125
I116
sg50
I41
sg9
I0
sg128
I119
sg98
I89
sg64
I55
sg87
I78
sg143
I134
sg124
I115
sg104
I95
sg44
I35
sg34
I25
sg41
I32
sg65
I56
sg106
I97
sg105
I96
sg138
I129
sg112
I103
sg103
I94
sg76
I67
sg73
I64
sg88
I79
sg86
I77
sg71
I62
sg81
I72
sg56
I47
sg37
I28
sg36
I27
sg149
I140
sg21
I12
sg23
I14
sg22
I13
sg20
I11
sg134
I125
sg40
I31
sg16
I7
sg82
I73
sg127
I118
sg18
I9
sg54
I45
sg63
I54
sg83
I74
sg148
I139
sg55
I46
sg69
I60
sg95
I86
sg42
I33
sg72
I63
sg15
I6
sg60
I51
sg107
I98
sg32
I23
sg52
I43
sg101
I92
sg137
I128
sg46
I37
sg10
I1
sg118
I109
sg14
I5
sg142
I133
sg109
I100
sg51
I42
sg45
I36
sg26
I17
sg58
I49
sg141
I132
sg47
I38
sg48
I39
sg92
I83
sg145
I136
sg78
I69
sg77
I68
sg122
I113
sg146
I137
sg39
I30
sg108
I99
sg126
I117
sg123
I114
sg49
I40
sg113
I104
sg121
I112
sg116
I107
sg43
I34
sg28
I19
sg19
I10
sg12
I3
sg29
I20
sg57
I48
ssS'separator'
p155
S'='
sS'sparse'
p156
I01
sb.