ccopy_reg
_reconstructor
p1
(csklearn.feature_extraction.dict_vectorizer
DictVectorizer
p2
c__builtin__
object
p3
NtRp4
(dp5
S'sort'
p6
I01
sS'feature_names_'
p7
(lp8
S'advcl=continue'
p9
aS'advcl=kill'
p10
aS'advcl=say'
p11
aS'advcl=seize'
p12
aS'advcl=surround'
p13
aS'advmod=ago'
p14
aS'advmod=also'
p15
aS'advmod=and'
p16
aS'advmod=hard'
p17
aS'advmod=immediately'
p18
aS'advmod=long'
p19
aS'advmod=overseas'
p20
aS'advmod=so'
p21
aS'advmod=still'
p22
aS'advmod=when'
p23
aS'advmod=where'
p24
aS'amod=detailed'
p25
aS'amod=difficult'
p26
aS'amod=extensive'
p27
aS'amod=first'
p28
aS'amod=heroic'
p29
aS'amod=house-to-house'
p30
aS'amod=inner'
p31
aS'amod=intensive'
p32
aS'amod=never-ending'
p33
aS'amod=random'
p34
aS'amod=thorough'
p35
aS'amod=twin'
p36
aS'amod=two-month'
p37
aS'amod=unreasonable'
p38
aS'amod=virtual'
p39
aS'amod=worldwide'
p40
aS"aux='ll"
p41
aS'aux=be'
p42
aS'aux=can'
p43
aS'aux=have'
p44
aS'aux=to'
p45
aS'aux=will'
p46
aS'auxpass=be'
p47
aS'cc=and'
p48
aS'cc=or'
p49
aS'ccomp=be'
p50
aS'complm=that'
p51
aS'conj=arrest'
p52
aS'conj=autopsy'
p53
aS'conj=cut'
p54
aS'conj=detention'
p55
aS'conj=find'
p56
aS'conj=know'
p57
aS'conj=question'
p58
aS'conj=recovery'
p59
aS'conj=rescue'
p60
aS'conj=say'
p61
aS'conj=seizure'
p62
aS'conj=start'
p63
aS'conj=surveillance'
p64
aS'conj=take'
p65
aS'conj=uncover'
p66
aS'dep=battle'
p67
aS'dep=before'
p68
aS'dep=include'
p69
aS'det=a'
p70
aS'det=that'
p71
aS'det=the'
p72
aS'dobj=Leadership'
p73
aS'dobj=Marks'
p74
aS'dobj=Tigris'
p75
aS'dobj=any'
p76
aS'dobj=building'
p77
aS'dobj=business'
p78
aS'dobj=car'
p79
aS'dobj=database'
p80
aS'dobj=globe'
p81
aS'dobj=grove'
p82
aS'dobj=house'
p83
aS'dobj=identity'
p84
aS'dobj=much'
p85
aS'dobj=place'
p86
aS'dobj=remains'
p87
aS'dobj=rest'
p88
aS'dobj=space'
p89
aS'dobj=vehicle'
p90
aS'dobj=vessel'
p91
aS'mark=as'
p92
aS'mark=than'
p93
aS'mark=while'
p94
aS'neg=not'
p95
aS'nn=Asia'
p96
aS'nn=Department'
p97
aS'nn=astronomer'
p98
aS'nn=committee'
p99
aS'nn=conduct'
p100
aS'nn=house-to-house'
p101
aS'nn=job'
p102
aS'nn=strip'
p103
aS'nsubj=#NUMBER#'
p104
aS'nsubj=#PRP#'
p105
aS'nsubj=Hersh'
p106
aS'nsubj=Nassiri'
p107
aS'nsubj=Rustanova'
p108
aS'nsubj=States'
p109
aS'nsubj=Value'
p110
aS'nsubj=artist'
p111
aS'nsubj=birdwatcher'
p112
aS'nsubj=company'
p113
aS'nsubj=crew'
p114
aS'nsubj=family'
p115
aS'nsubj=officer'
p116
aS'nsubj=official'
p117
aS'nsubj=organization'
p118
aS'nsubj=people'
p119
aS'nsubj=police'
p120
aS'nsubj=president'
p121
aS'nsubj=rescuer'
p122
aS'nsubj=resident'
p123
aS'nsubj=soldier'
p124
aS'nsubj=staffer'
p125
aS'nsubj=team'
p126
aS'nsubj=the'
p127
aS'nsubj=troops'
p128
aS'nsubj=user'
p129
aS'nsubj=volunteer'
p130
aS'nsubj=who'
p131
aS'nsubj=worker'
p132
aS'nsubjpass=#PRP#'
p133
aS'nsubjpass=aircraft'
p134
aS'nsubjpass=house'
p135
aS'nsubjpass=man'
p136
aS'nsubjpass=number'
p137
aS'nsubjpass=people'
p138
aS'parataxis=be'
p139
aS'parataxis=say'
p140
aS'partmod=confiscate'
p141
aS'partmod=kidnap'
p142
aS'partmod=lead'
p143
aS'partmod=look'
p144
aS'poss=#PRP#'
p145
aS'poss=Ahab'
p146
aS'poss=center'
p147
aS'poss=parliament'
p148
aS'prep=after'
p149
aS'prep=amid'
p150
aS'prep=around'
p151
aS'prep=as'
p152
aS'prep=at'
p153
aS'prep=by'
p154
aS'prep=for'
p155
aS'prep=from'
p156
aS'prep=in'
p157
aS'prep=of'
p158
aS'prep=on'
p159
aS'prep=through'
p160
aS'prep=throughout'
p161
aS'prep=to'
p162
aS'prt=through'
p163
aS'rcmod=know'
p164
aS'rcmod=sustain'
p165
aS'w+1=,'
p166
aS'w+1=--'
p167
aS'w+1=.'
p168
aS'w+1=;'
p169
aS'w+1=a'
p170
aS'w+1=all'
p171
aS'w+1=although'
p172
aS'w+1=and'
p173
aS'w+1=any'
p174
aS'w+1=around'
p175
aS'w+1=as'
p176
aS'w+1=at'
p177
aS'w+1=be'
p178
aS'w+1=business'
p179
aS'w+1=by'
p180
aS'w+1=car'
p181
aS'w+1=citizen'
p182
aS'w+1=company'
p183
aS'w+1=demonstrate'
p184
aS'w+1=engine'
p185
aS'w+1=every'
p186
aS'w+1=extremely'
p187
aS'w+1=for'
p188
aS'w+1=from'
p189
aS'w+1=hard'
p190
aS'w+1=home'
p191
aS'w+1=house'
p192
aS'w+1=immediately'
p193
aS'w+1=in'
p194
aS'w+1=initially'
p195
aS'w+1=look'
p196
aS'w+1=make'
p197
aS'w+1=market'
p198
aS'w+1=of'
p199
aS'w+1=official'
p200
aS'w+1=palm'
p201
aS'w+1=party'
p202
aS'w+1=power'
p203
aS'w+1=remote'
p204
aS'w+1=result'
p205
aS'w+1=site'
p206
aS'w+1=team'
p207
aS'w+1=the'
p208
aS'w+1=through'
p209
aS'w+1=to'
p210
aS'w+1=vehicle'
p211
aS'w+1=warrant'
p212
aS'w+1=when'
p213
aS"w+2='"
p214
aS'w+2=,'
p215
aS'w+2=-rrb-'
p216
aS'w+2=.'
p217
aS'w+2=15'
p218
aS'w+2=18'
p219
aS'w+2=Abdullahi'
p220
aS'w+2=Diana'
p221
aS'w+2=God'
p222
aS'w+2=Google'
p223
aS'w+2=I'
p224
aS'w+2=Interpol'
p225
aS'w+2=Italy'
p226
aS'w+2=Jakarta'
p227
aS'w+2=Monday'
p228
aS'w+2=Singh'
p229
aS'w+2=Tigris'
p230
aS'w+2=Toumba'
p231
aS'w+2=Yahoo'
p232
aS'w+2=Yvaine'
p233
aS'w+2=a'
p234
aS'w+2=abducted'
p235
aS'w+2=adventure'
p236
aS'w+2=al-qaida'
p237
aS'w+2=and'
p238
aS'w+2=answer'
p239
aS'w+2=asylum'
p240
aS'w+2=at'
p241
aS'w+2=be'
p242
aS'w+2=better'
p243
aS'w+2=body'
p244
aS'w+2=building'
p245
aS'w+2=business'
p246
aS'w+2=but'
p247
aS'w+2=cheaper'
p248
aS'w+2=chinese-language'
p249
aS'w+2=clue'
p250
aS'w+2=common'
p251
aS'w+2=concentrate'
p252
aS'w+2=database'
p253
aS'w+2=diamond'
p254
aS'w+2=difficult'
p255
aS'w+2=earth-like'
p256
aS'w+2=economic'
p257
aS'w+2=energy'
p258
aS'w+2=eventually'
p259
aS'w+2=excuse'
p260
aS'w+2=extend'
p261
aS'w+2=extraterrestrial'
p262
aS'w+2=find'
p263
aS'w+2=fire'
p264
aS'w+2=firewood'
p265
aS'w+2=flight'
p266
aS'w+2=food'
p267
aS'w+2=for'
p268
aS'w+2=former'
p269
aS'w+2=fraudulent'
p270
aS'w+2=freedom'
p271
aS'w+2=fuel'
p272
aS'w+2=geographic'
p273
aS'w+2=globe'
p274
aS'w+2=go'
p275
aS'w+2=gold'
p276
aS'w+2=grove'
p277
aS'w+2=he'
p278
aS'w+2=in'
p279
aS'w+2=innovative'
p280
aS'w+2=insurgent'
p281
aS'w+2=iranian'
p282
aS'w+2=it'
p283
aS'w+2=labor'
p284
aS'w+2=land'
p285
aS'w+2=large-scale'
p286
aS'w+2=life'
p287
aS'w+2=man'
p288
aS'w+2=many'
p289
aS'w+2=meaning'
p290
aS'w+2=merchant'
p291
aS'w+2=mine'
p292
aS'w+2=more'
p293
aS'w+2=much'
p294
aS'w+2=multiple'
p295
aS'w+2=necessity'
p296
aS'w+2=new'
p297
aS'w+2=of'
p298
aS'w+2=oil'
p299
aS'w+2=on'
p300
aS'w+2=originally'
p301
aS'w+2=other'
p302
aS'w+2=over'
p303
aS'w+2=owner'
p304
aS'w+2=part'
p305
aS'w+2=pasture'
p306
aS'w+2=people'
p307
aS'w+2=place'
p308
aS'w+2=political'
p309
aS'w+2=possible'
p310
aS'w+2=potential'
p311
aS'w+2=radio'
p312
aS'w+2=rebel'
p313
aS'w+2=recovery'
p314
aS'w+2=remains'
p315
aS'w+2=require'
p316
aS'w+2=rescue'
p317
aS'w+2=rest'
p318
aS'w+2=rob'
p319
aS'w+2=safety'
p320
aS'w+2=seizure'
p321
aS'w+2=seven'
p322
aS'w+2=she'
p323
aS'w+2=shell'
p324
aS'w+2=shortcoming'
p325
aS'w+2=sign'
p326
aS'w+2=solution'
p327
aS'w+2=someone'
p328
aS'w+2=something'
p329
aS'w+2=spirituality'
p330
aS'w+2=survivor'
p331
aS'w+2=teacher'
p332
aS'w+2=team'
p333
aS'w+2=that'
p334
aS'w+2=the'
p335
aS'w+2=they'
p336
aS'w+2=those'
p337
aS'w+2=three'
p338
aS'w+2=treasure'
p339
aS'w+2=two'
p340
aS'w+2=unconventional'
p341
aS'w+2=under'
p342
aS'w+2=urgent'
p343
aS'w+2=vain'
p344
aS'w+2=victim'
p345
aS'w+2=void'
p346
aS'w+2=water'
p347
aS'w+2=way'
p348
aS'w+2=we'
p349
aS'w+2=weapon'
p350
aS'w+2=where'
p351
aS'w+2=witness'
p352
aS'w+2=work'
p353
aS'w+2=you'
p354
aS"w-1=''"
p355
aS"w-1='ll"
p356
aS"w-1='s"
p357
aS'w-1=,'
p358
aS'w-1=.'
p359
aS'w-1=Asia'
p360
aS'w-1=Democrats'
p361
aS'w-1=Department'
p362
aS'w-1=Internet'
p363
aS'w-1=Nassiri'
p364
aS'w-1=States'
p365
aS'w-1=Value'
p366
aS'w-1=a'
p367
aS'w-1=after'
p368
aS'w-1=and'
p369
aS'w-1=as'
p370
aS'w-1=astronomer'
p371
aS'w-1=be'
p372
aS'w-1=begin'
p373
aS'w-1=british'
p374
aS'w-1=by'
p375
aS'w-1=can'
p376
aS'w-1=committee'
p377
aS'w-1=company'
p378
aS'w-1=conduct'
p379
aS'w-1=continue'
p380
aS'w-1=country'
p381
aS'w-1=detailed'
p382
aS'w-1=difficult'
p383
aS'w-1=do'
p384
aS'w-1=extensive'
p385
aS'w-1=finish'
p386
aS'w-1=first'
p387
aS'w-1=for'
p388
aS'w-1=have'
p389
aS'w-1=he'
p390
aS'w-1=heroic'
p391
aS'w-1=home'
p392
aS'w-1=house'
p393
aS'w-1=house-to-house'
p394
aS'w-1=immediately'
p395
aS'w-1=in'
p396
aS'w-1=inner'
p397
aS'w-1=intensive'
p398
aS'w-1=internet'
p399
aS'w-1=it'
p400
aS'w-1=its'
p401
aS'w-1=job'
p402
aS'w-1=much'
p403
aS'w-1=never-ending'
p404
aS'w-1=not'
p405
aS'w-1=of'
p406
aS'w-1=one'
p407
aS'w-1=online'
p408
aS'w-1=or'
p409
aS'w-1=organization'
p410
aS'w-1=out'
p411
aS'w-1=police'
p412
aS'w-1=policeman'
p413
aS'w-1=president'
p414
aS'w-1=queue'
p415
aS'w-1=random'
p416
aS'w-1=remember'
p417
aS'w-1=resident'
p418
aS'w-1=second-ranked'
p419
aS'w-1=soldier'
p420
aS'w-1=spend'
p421
aS'w-1=still'
p422
aS'w-1=stop'
p423
aS'w-1=strip'
p424
aS'w-1=that'
p425
aS'w-1=the'
p426
aS'w-1=they'
p427
aS'w-1=thorough'
p428
aS'w-1=those'
p429
aS'w-1=through'
p430
aS'w-1=time'
p431
aS'w-1=to'
p432
aS'w-1=twin'
p433
aS'w-1=two-month'
p434
aS'w-1=unreasonable'
p435
aS'w-1=we'
p436
aS'w-1=while'
p437
aS'w-1=will'
p438
aS'w-1=with'
p439
aS'w-1=worker'
p440
aS'w-1=world'
p441
aS'w-1=worldwide'
p442
aS"w-2=''"
p443
aS'w-2=,'
p444
aS'w-2=.'
p445
aS'w-2=:'
p446
aS'w-2=Ahab'
p447
aS'w-2=Beijing'
p448
aS'w-2=Depression'
p449
aS'w-2=Dili'
p450
aS'w-2=I'
p451
aS'w-2=Indonesia'
p452
aS'w-2=Jackson'
p453
aS'w-2=Jason'
p454
aS'w-2=Leone'
p455
aS'w-2=North'
p456
aS'w-2=State'
p457
aS'w-2=Taper'
p458
aS'w-2=Uganda'
p459
aS'w-2=Unit'
p460
aS'w-2=United'
p461
aS'w-2=a'
p462
aS'w-2=abandon'
p463
aS'w-2=again'
p464
aS'w-2=against'
p465
aS'w-2=agency'
p466
aS'w-2=aircraft'
p467
aS'w-2=airport'
p468
aS'w-2=also'
p469
aS'w-2=among'
p470
aS'w-2=and'
p471
aS'w-2=area'
p472
aS'w-2=armoire'
p473
aS'w-2=army'
p474
aS'w-2=artist'
p475
aS'w-2=as'
p476
aS'w-2=attack'
p477
aS'w-2=back'
p478
aS'w-2=be'
p479
aS'w-2=beach'
p480
aS'w-2=begin'
p481
aS'w-2=beyond'
p482
aS'w-2=border'
p483
aS'w-2=by'
p484
aS'w-2=call'
p485
aS'w-2=camp'
p486
aS'w-2=can'
p487
aS'w-2=capital'
p488
aS'w-2=center'
p489
aS'w-2=city'
p490
aS'w-2=come'
p491
aS'w-2=company'
p492
aS'w-2=conduct'
p493
aS'w-2=confuse'
p494
aS'w-2=continue'
p495
aS'w-2=country'
p496
aS'w-2=crew'
p497
aS'w-2=dedicate'
p498
aS'w-2=despite'
p499
aS'w-2=difficult'
p500
aS'w-2=direct'
p501
aS'w-2=director'
p502
aS'w-2=discuss'
p503
aS'w-2=during'
p504
aS'w-2=easier'
p505
aS'w-2=engage'
p506
aS'w-2=family'
p507
aS'w-2=filter'
p508
aS'w-2=for'
p509
aS'w-2=forbid'
p510
aS'w-2=formerly'
p511
aS'w-2=founder'
p512
aS'w-2=go'
p513
aS'w-2=have'
p514
aS'w-2=he'
p515
aS'w-2=help'
p516
aS'w-2=home'
p517
aS'w-2=honor'
p518
aS'w-2=how'
p519
aS'w-2=improve'
p520
aS'w-2=in'
p521
aS'w-2=information'
p522
aS'w-2=internet'
p523
aS'w-2=interrogation'
p524
aS'w-2=involved'
p525
aS'w-2=it'
p526
aS'w-2=job'
p527
aS'w-2=just'
p528
aS'w-2=lead'
p529
aS'w-2=leader'
p530
aS'w-2=leave'
p531
aS'w-2=mail'
p532
aS'w-2=make'
p533
aS'w-2=man'
p534
aS'w-2=maneuver'
p535
aS'w-2=massive'
p536
aS'w-2=migrate'
p537
aS'w-2=migration'
p538
aS'w-2=move'
p539
aS'w-2=museum'
p540
aS'w-2=narrow'
p541
aS'w-2=need'
p542
aS'w-2=never'
p543
aS'w-2=non-governmental'
p544
aS'w-2=obtain'
p545
aS'w-2=of'
p546
aS'w-2=officer'
p547
aS'w-2=official'
p548
aS'w-2=oil'
p549
aS'w-2=on'
p550
aS'w-2=only'
p551
aS'w-2=out'
p552
aS'w-2=parliament'
p553
aS'w-2=party'
p554
aS'w-2=patrol'
p555
aS'w-2=people'
p556
aS'w-2=random'
p557
aS'w-2=recruit'
p558
aS'w-2=rescue'
p559
aS'w-2=rescuer'
p560
aS'w-2=retract'
p561
aS'w-2=right'
p562
aS'w-2=risk'
p563
aS'w-2=river'
p564
aS'w-2=say'
p565
aS'w-2=sea'
p566
aS'w-2=sense'
p567
aS'w-2=she'
p568
aS'w-2=ship'
p569
aS'w-2=so'
p570
aS'w-2=soldier'
p571
aS'w-2=staffer'
p572
aS'w-2=stop'
p573
aS'w-2=such'
p574
aS'w-2=tactic'
p575
aS'w-2=technology'
p576
aS'w-2=that'
p577
aS'w-2=the'
p578
aS'w-2=they'
p579
aS'w-2=to'
p580
aS'w-2=today'
p581
aS'w-2=troops'
p582
aS'w-2=u.s.-based'
p583
aS'w-2=user'
p584
aS'w-2=virtual'
p585
aS'w-2=volunteer'
p586
aS'w-2=voter'
p587
aS'w-2=want'
p588
aS'w-2=waste'
p589
aS'w-2=we'
p590
aS'w-2=wealth'
p591
aS'w-2=week'
p592
aS'w-2=who'
p593
aS'w-2=with'
p594
aS'w-2=wreckage'
p595
aS'w-2=year'
p596
aS'xcomp=claim'
p597
aS'xcomp=cut'
p598
aS'xcomp=feed'
p599
aS'xcomp=go'
p600
aS'xcomp=guide'
p601
aS'xcomp=introduce'
p602
aS'xcomp=miss'
p603
asS'dtype'
p604
cnumpy
float64
p605
sS'vocabulary_'
p606
(dp607
g114
I105
sg360
I351
sg172
I163
sg417
I408
sg62
I53
sg590
I581
sg556
I547
sg138
I129
sg110
I101
sg327
I318
sg36
I27
sg331
I322
sg85
I76
sg247
I238
sg126
I117
sg340
I331
sg345
I336
sg175
I166
sg528
I519
sg453
I444
sg560
I551
sg542
I533
sg359
I350
sg579
I570
sg271
I262
sg154
I145
sg192
I183
sg496
I487
sg295
I286
sg73
I64
sg363
I354
sg260
I251
sg456
I447
sg586
I577
sg276
I267
sg259
I250
sg454
I445
sg17
I8
sg21
I12
sg384
I375
sg286
I277
sg350
I341
sg438
I429
sg391
I382
sg492
I483
sg545
I536
sg375
I366
sg559
I550
sg372
I363
sg470
I461
sg147
I138
sg507
I498
sg134
I125
sg578
I569
sg333
I324
sg595
I586
sg209
I200
sg315
I306
sg414
I405
sg239
I230
sg593
I584
sg581
I572
sg199
I190
sg13
I4
sg119
I110
sg339
I330
sg517
I508
sg56
I47
sg401
I392
sg389
I380
sg229
I220
sg275
I266
sg184
I175
sg279
I270
sg592
I583
sg283
I274
sg273
I264
sg263
I254
sg352
I343
sg222
I213
sg54
I45
sg415
I406
sg466
I457
sg227
I218
sg43
I34
sg354
I345
sg151
I142
sg226
I217
sg102
I93
sg69
I60
sg82
I73
sg343
I334
sg251
I242
sg208
I199
sg216
I207
sg211
I202
sg118
I109
sg509
I500
sg242
I233
sg573
I564
sg133
I124
sg157
I148
sg549
I540
sg188
I179
sg366
I357
sg530
I521
sg141
I132
sg285
I276
sg193
I184
sg150
I141
sg589
I580
sg130
I121
sg459
I450
sg162
I153
sg587
I578
sg309
I300
sg127
I118
sg14
I5
sg330
I321
sg422
I413
sg220
I211
sg173
I164
sg544
I535
sg428
I419
sg460
I451
sg33
I24
sg347
I338
sg386
I377
sg567
I558
sg268
I259
sg342
I333
sg394
I385
sg310
I301
sg400
I391
sg488
I479
sg396
I387
sg349
I340
sg313
I304
sg457
I448
sg426
I417
sg20
I11
sg143
I134
sg571
I562
sg28
I19
sg562
I553
sg24
I15
sg399
I390
sg467
I458
sg269
I260
sg332
I323
sg326
I317
sg93
I84
sg480
I471
sg72
I63
sg128
I119
sg244
I235
sg561
I552
sg510
I501
sg483
I474
sg441
I432
sg16
I7
sg131
I122
sg181
I172
sg255
I246
sg440
I431
sg100
I91
sg546
I537
sg37
I28
sg431
I422
sg550
I541
sg432
I423
sg319
I310
sg207
I198
sg387
I378
sg293
I284
sg465
I456
sg174
I165
sg201
I192
sg481
I472
sg106
I97
sg108
I99
sg204
I195
sg124
I115
sg12
I3
sg477
I468
sg97
I88
sg369
I360
sg176
I167
sg177
I168
sg59
I50
sg113
I104
sg280
I271
sg474
I465
sg464
I455
sg381
I372
sg96
I87
sg537
I528
sg40
I31
sg376
I367
sg548
I539
sg197
I188
sg50
I41
sg122
I113
sg439
I430
sg277
I268
sg495
I486
sg338
I329
sg81
I72
sg301
I292
sg429
I420
sg23
I14
sg38
I29
sg584
I575
sg107
I98
sg568
I559
sg155
I146
sg525
I516
sg523
I514
sg299
I290
sg329
I320
sg410
I401
sg241
I232
sg572
I563
sg351
I342
sg311
I302
sg266
I257
sg167
I158
sg403
I394
sg140
I131
sg139
I130
sg47
I38
sg506
I497
sg407
I398
sg357
I348
sg87
I78
sg494
I485
sg19
I10
sg190
I181
sg248
I239
sg22
I13
sg321
I312
sg121
I112
sg538
I529
sg468
I459
sg601
I592
sg508
I499
sg320
I311
sg385
I376
sg104
I95
sg564
I555
sg312
I303
sg486
I477
sg461
I452
sg57
I48
sg522
I513
sg281
I272
sg450
I441
sg74
I65
sg447
I438
sg355
I346
sg68
I59
sg383
I374
sg26
I17
sg532
I523
sg35
I26
sg90
I81
sg237
I228
sg223
I214
sg443
I434
sg165
I156
sg298
I289
sg418
I409
sg300
I291
sg210
I201
sg377
I368
sg395
I386
sg267
I258
sg278
I269
sg125
I116
sg531
I522
sg397
I388
sg591
I582
sg84
I75
sg374
I365
sg305
I296
sg49
I40
sg539
I530
sg437
I428
sg603
I594
sg265
I256
sg196
I187
sg458
I449
sg187
I178
sg493
I484
sg288
I279
sg91
I82
sg205
I196
sg228
I219
sg314
I305
sg243
I234
sg513
I504
sg316
I307
sg262
I253
sg356
I347
sg442
I433
sg294
I285
sg337
I328
sg325
I316
sg257
I248
sg306
I297
sg111
I102
sg524
I515
sg393
I384
sg599
I590
sg323
I314
sg478
I469
sg434
I425
sg161
I152
sg416
I407
sg498
I489
sg94
I85
sg303
I294
sg408
I399
sg594
I585
sg469
I460
sg46
I37
sg317
I308
sg274
I265
sg86
I77
sg289
I280
sg297
I288
sg292
I283
sg79
I70
sg472
I463
sg475
I466
sg109
I100
sg535
I526
sg233
I224
sg245
I236
sg575
I566
sg582
I573
sg129
I120
sg482
I473
sg307
I298
sg75
I66
sg89
I80
sg115
I106
sg521
I512
sg361
I352
sg212
I203
sg253
I244
sg526
I517
sg433
I424
sg198
I189
sg272
I263
sg365
I356
sg304
I295
sg553
I544
sg563
I554
sg420
I411
sg264
I255
sg491
I482
sg463
I454
sg368
I359
sg308
I299
sg163
I154
sg15
I6
sg137
I128
sg328
I319
sg116
I107
sg585
I576
sg142
I133
sg485
I476
sg455
I446
sg514
I505
sg48
I39
sg183
I174
sg499
I490
sg39
I30
sg541
I532
sg164
I155
sg180
I171
sg178
I169
sg452
I443
sg32
I23
sg9
I0
sg449
I440
sg598
I589
sg240
I231
sg392
I383
sg61
I52
sg191
I182
sg117
I108
sg194
I185
sg105
I96
sg379
I370
sg511
I502
sg31
I22
sg566
I557
sg324
I315
sg261
I252
sg256
I247
sg409
I400
sg145
I136
sg10
I1
sg554
I545
sg101
I92
sg64
I55
sg378
I369
sg296
I287
sg512
I503
sg341
I332
sg501
I492
sg348
I339
sg182
I173
sg382
I373
sg88
I79
sg489
I480
sg318
I309
sg597
I588
sg569
I560
sg146
I137
sg80
I71
sg66
I57
sg473
I464
sg78
I69
sg479
I470
sg158
I149
sg419
I410
sg284
I275
sg322
I313
sg502
I493
sg159
I150
sg270
I261
sg148
I139
sg290
I281
sg112
I103
sg123
I114
sg484
I475
sg291
I282
sg136
I127
sg202
I193
sg65
I56
sg249
I240
sg540
I531
sg250
I241
sg424
I415
sg543
I534
sg171
I162
sg518
I509
sg98
I89
sg371
I362
sg334
I325
sg55
I46
sg282
I273
sg558
I549
sg588
I579
sg430
I421
sg421
I412
sg574
I565
sg423
I414
sg529
I520
sg254
I245
sg11
I2
sg406
I397
sg120
I111
sg206
I197
sg580
I571
sg238
I229
sg471
I462
sg71
I62
sg53
I44
sg95
I86
sg221
I212
sg231
I222
sg515
I506
sg195
I186
sg179
I170
sg185
I176
sg83
I74
sg565
I556
sg600
I591
sg551
I542
sg335
I326
sg153
I144
sg152
I143
sg444
I435
sg445
I436
sg380
I371
sg398
I389
sg576
I567
sg44
I35
sg219
I210
sg446
I437
sg218
I209
sg358
I349
sg186
I177
sg451
I442
sg25
I16
sg476
I467
sg534
I525
sg346
I337
sg519
I510
sg160
I151
sg557
I548
sg51
I42
sg364
I355
sg52
I43
sg552
I543
sg462
I453
sg435
I426
sg427
I418
sg70
I61
sg367
I358
sg527
I518
sg448
I439
sg144
I135
sg536
I527
sg135
I126
sg353
I344
sg570
I561
sg533
I524
sg92
I83
sg547
I538
sg390
I381
sg18
I9
sg189
I180
sg490
I481
sg336
I327
sg402
I393
sg149
I140
sg235
I226
sg411
I402
sg362
I353
sg412
I403
sg596
I587
sg77
I68
sg555
I546
sg504
I495
sg29
I20
sg404
I395
sg344
I335
sg505
I496
sg34
I25
sg236
I227
sg230
I221
sg27
I18
sg156
I147
sg302
I293
sg516
I507
sg213
I204
sg41
I32
sg436
I427
sg76
I67
sg45
I36
sg200
I191
sg60
I51
sg58
I49
sg67
I58
sg487
I478
sg258
I249
sg503
I494
sg132
I123
sg388
I379
sg166
I157
sg168
I159
sg577
I568
sg217
I208
sg215
I206
sg169
I160
sg497
I488
sg214
I205
sg225
I216
sg252
I243
sg583
I574
sg30
I21
sg287
I278
sg232
I223
sg224
I215
sg520
I511
sg63
I54
sg170
I161
sg413
I404
sg405
I396
sg373
I364
sg103
I94
sg500
I491
sg602
I593
sg370
I361
sg246
I237
sg425
I416
sg42
I33
sg99
I90
sg203
I194
sg234
I225
ssS'separator'
p608
S'='
sS'sparse'
p609
I01
sb.