ccopy_reg
_reconstructor
p1
(csklearn.feature_extraction.dict_vectorizer
DictVectorizer
p2
c__builtin__
object
p3
NtRp4
(dp5
S'vocabulary_'
p6
(dp7
S'prep=before'
p8
I217
sS'w+2=vehicle'
p9
I401
sS'ccomp=violate'
p10
I51
sS'w+2=vulnerability'
p11
I402
sS'dobj=indictment'
p12
I120
sS'w+2=among'
p13
I312
sS'conj=conclude'
p14
I56
sS'w-2=Friday'
p15
I474
sS'w+1=Bush'
p16
I235
sS'nsubj=team'
p17
I205
sS'w+2=corruption'
p18
I328
sS'w-2=review'
p19
I537
sS'nsubj=investigator'
p20
I187
sS'w-2=Thai'
p21
I481
sS'xcomp=combat'
p22
I562
sS'dobj=condition'
p23
I100
sS'ccomp=term'
p24
I49
sS'w-2=site'
p25
I546
sS'advmod=forward'
p26
I11
sS'w-2=need'
p27
I518
sS'w-2=International'
p28
I479
sS'w+2=prepare'
p29
I378
sS'w-1=-'
p30
I408
sS'dobj=country'
p31
I106
sS'dobj=sample'
p32
I147
sS'dobj=computer'
p33
I99
sS'dobj=option'
p34
I126
sS'nsubj=doctor'
p35
I182
sS'w+1=that'
p36
I285
sS'w+1=specific'
p37
I282
sS'nsubj=government'
p38
I184
sS'dobj=contract'
p39
I103
sS'w+1=spending'
p40
I283
sS'w+2=change'
p41
I323
sS'w-1=would'
p42
I457
sS'conj=decide'
p43
I57
sS'w+2=racial'
p44
I381
sS'w+2=expression'
p45
I338
sS'dobj=remains'
p46
I142
sS'dobj=impact'
p47
I119
sS'w+2=behind'
p48
I317
sS'w-2=mine'
p49
I515
sS'nsubj=panel'
p50
I194
sS'w+1=longer-standing'
p51
I270
sS'w+2=population'
p52
I376
sS'advmod=just'
p53
I12
sS'w+2=several'
p54
I389
sS'w+1=every'
p55
I257
sS'w-1=will'
p56
I456
sS'w-2=Congress'
p57
I472
sS'conj=prepare'
p58
I65
sS'w-1=by'
p59
I418
sS'w+1=how'
p60
I264
sS'w-1=be'
p61
I417
sS'nsubj=poll'
p62
I197
sS'dobj=complaint'
p63
I97
sS'nsubj=Congress'
p64
I168
sS'w+2=impact'
p65
I351
sS'w-2=the'
p66
I550
sS'w-2=Council'
p67
I473
sS'w+1=she'
p68
I280
sS'w-2=power'
p69
I529
sS'w+2=paradox'
p70
I370
sS'w+2=country'
p71
I329
sS'w+1=whether'
p72
I296
sS'dobj=expression'
p73
I111
sS'w+2=patient'
p74
I371
sS'conj=find'
p75
I60
sS'ccomp=global'
p76
I44
sS'w-1=have'
p77
I426
sS'w+2=treatment'
p78
I398
sS'w+2=bill'
p79
I318
sS'w+2=in'
p80
I352
sS'w-2=week'
p81
I556
sS'ccomp=go'
p82
I45
sS'w+2=it'
p83
I357
sS'xcomp=see'
p84
I567
sS'w+1=datum'
p85
I255
sS'w-2=only'
p86
I524
sS'w-2=official'
p87
I522
sS'ccomp=have'
p88
I46
sS'w-1=could'
p89
I423
sS'advmod=once'
p90
I15
sS'w-1=also'
p91
I413
sS'aux=can'
p92
I24
sS'complm=that'
p93
I52
sS'prep=around'
p94
I215
sS'dobj=rule'
p95
I146
sS'nsubj=scientist'
p96
I203
sS'dobj=area'
p97
I85
sS'nsubj=Oversight'
p98
I172
sS'w-2=Committee'
p99
I471
sS'dobj=treatment'
p100
I154
sS'w-2=physician'
p101
I528
sS'w-1=only'
p102
I436
sS'w+2=training'
p103
I397
sS'w-2=that'
p104
I549
sS'w+1=the'
p105
I286
sS'advmod=only'
p106
I16
sS'w+1=they'
p107
I288
sS'w+1=400'
p108
I233
sS'dobj=record'
p109
I141
sS'nsubjpass=#PRP#'
p110
I211
sS'prep=in'
p111
I223
sS'w-1=properly'
p112
I440
sS'aux=would'
p113
I31
sS'w+1=for'
p114
I260
sS'w+2=still'
p115
I392
sS'dobj=origin'
p116
I127
sS'advmod=over'
p117
I17
sS'w-1=bank'
p118
I416
sS'w-2=researcher'
p119
I536
sS'advmod=yet'
p120
I22
sS'w+2=future'
p121
I344
sS'w-1=ophthalmologist'
p122
I437
sS'prep=to'
p123
I228
sS'w+2=human-rights'
p124
I350
sS'w+2=airport'
p125
I310
sS'w-2=study'
p126
I547
sS'w+2=organization'
p127
I366
sS'nsubj=senate'
p128
I204
sS'w-2=nurse'
p129
I521
sS'w+2=Iraqis'
p130
I305
sS'w+2=record'
p131
I382
sS'advmod=ago'
p132
I4
sS'w-1=still'
p133
I447
sS'xcomp=find'
p134
I564
sS'w+1=and'
p135
I247
sS'w-2=she'
p136
I544
sS'dobj=request'
p137
I143
sS'w-2=project'
p138
I530
sS'w+2=how'
p139
I348
sS'nsubj=lawmaker'
p140
I189
sS'w-2=bird'
p141
I488
sS'nsubj=member'
p142
I190
sS'w+1=other'
p143
I273
sS'w+2=diplomatic'
p144
I332
sS'w+2=contract'
p145
I327
sS'conj=break'
p146
I54
sS'dobj=training'
p147
I153
sS'w+1=issue'
p148
I268
sS'w-2=Abubakar'
p149
I466
sS'w-2=government'
p150
I504
sS'dobj=function'
p151
I115
sS'w-2=congressional'
p152
I494
sS'w-2=opportunity'
p153
I525
sS'w-2=then'
p154
I551
sS'w+1=evidence'
p155
I258
sS'advmod=closely'
p156
I8
sS'w-2=-rrb-'
p157
I464
sS'ccomp=function'
p158
I43
sS'xcomp=surround'
p159
I568
sS'w+2=issue'
p160
I356
sS'mark=if'
p161
I162
sS'dobj=role'
p162
I144
sS'dobj=quantity'
p163
I138
sS'w-2=work'
p164
I560
sS'w+2=indictment'
p165
I353
sS'w+1=human'
p166
I265
sS'dobj=period'
p167
I132
sS'w-2=court'
p168
I497
sS'w+1=Europe'
p169
I237
sS'w-2=navy'
p170
I517
sS'dobj=Iraqis'
p171
I78
sS'prep=by'
p172
I218
sS'w+2=estimate'
p173
I335
sS'dobj=handling'
p174
I118
sS'w-1=closely'
p175
I420
sS'nsubj=who'
p176
I209
sS'w+2=nation'
p177
I362
sS'dobj=conduct'
p178
I101
sS'nsubj=bank'
p179
I177
sS'dobj=issue'
p180
I121
sS'w-1=recently'
p181
I441
sS'w-2=on'
p182
I523
sS'w-1=to'
p183
I450
sS'w+1=patient'
p184
I274
sS'w-1=first'
p185
I425
sS'w+2=spending'
p186
I391
sS'dobj=#PRP#'
p187
I76
sS'w-1=should'
p188
I444
sS'nsubj=report'
p189
I199
sS'w+1=you'
p190
I297
sS'w+2=ethic'
p191
I336
sS'dobj=facility'
p192
I112
sS'nsubj=IOC'
p193
I171
sS'w-1=actually'
p194
I412
sS'w+1=procedural'
p195
I277
sS'w+2=car'
p196
I321
sS'w+2=human'
p197
I349
sS'nsubj=that'
p198
I206
sS'w+2=rights'
p199
I384
sS'w-1=it'
p200
I429
sS'w+2=effort'
p201
I333
sS'dobj=contribution'
p202
I104
sS'dobj=survey'
p203
I150
sS'nsubj=ophthalmologist'
p204
I193
sS'nsubj=project'
p205
I198
sS'nsubj=committee'
p206
I179
sS'conj=give'
p207
I61
sS'w+2=measure'
p208
I360
sS'dobj=root'
p209
I145
sS'w+2=root'
p210
I385
sS'xcomp=have'
p211
I565
sS'w-2=Geneva'
p212
I475
sS'dobj=pitfall'
p213
I134
sS'w+2=whether'
p214
I405
sS'ccomp=be'
p215
I35
sS'w-2=require'
p216
I535
sS'w-2=continue'
p217
I496
sS'w+1=trend'
p218
I290
sS'w+1=two'
p219
I291
sS'w+2=suspicious'
p220
I393
sS'w-1=yet'
p221
I459
sS'dobj=compliance'
p222
I98
sS'dobj=patient'
p223
I129
sS'nsubj=result'
p224
I201
sS'w-2=hearing'
p225
I507
sS'w-2=annual'
p226
I482
sS'prep=for'
p227
I221
sS'nsubj=Came'
p228
I166
sS'w+2=bridge'
p229
I320
sS'w+1=document'
p230
I256
sS'w+1=civil'
p231
I254
sS'w+2=as'
p232
I314
sS'auxpass=be'
p233
I32
sS'w+2=administration'
p234
I309
sS'w-2=last'
p235
I514
sS'w+2=origin'
p236
I367
sS'w+2=Castro'
p237
I304
sS'advmod=still'
p238
I21
sS'nsubj=physician'
p239
I196
sS'w+2=safety'
p240
I386
sS'nsubj=Abubakar'
p241
I165
sS'dobj=assurance'
p242
I87
sS'w+1=these'
p243
I287
sS'w+2=separate'
p244
I388
sS'dep=call'
p245
I72
sS'nsubj=researcher'
p246
I200
sS'w+2=free'
p247
I341
sS'w+1=its'
p248
I269
sS'dobj=bridge'
p249
I91
sS'advmod=carefully'
p250
I7
sS'w-1=committee'
p251
I421
sS'w+2=question'
p252
I380
sS'w-2=Hawaii'
p253
I476
sS'dep=before'
p254
I70
sS'w-2=those'
p255
I553
sS'w+1=my'
p256
I272
sS'dobj=car'
p257
I92
sS'dobj=vote'
p258
I157
sS'w-1=analyst'
p259
I414
sS'w+2=Israel'
p260
I306
sS'w-1=people'
p261
I438
sS'dobj=vehicle'
p262
I156
sS'w-1=project'
p263
I439
sS'nsubj=inquiry'
p264
I186
sS"w-2=''"
p265
I460
sS'w+2=of'
p266
I363
sS'dobj=future'
p267
I116
sS'advmod=sometimes'
p268
I20
sS'w-2=justice'
p269
I513
sS'nsubj=parliament'
p270
I195
sS'advcl=mention'
p271
I1
sS'w+2=long-term'
p272
I358
sS'ccomp=focus'
p273
I42
sS'w+2=he'
p274
I347
sS'w+2=facility'
p275
I339
sS'conj=determine'
p276
I58
sS'w+1=Zimbabwe'
p277
I242
sS'w-1=while'
p278
I454
sS'advmod=first'
p279
I10
sS'conj=look'
p280
I64
sS'w-1=Sheik'
p281
I410
sS'w-1=report'
p282
I442
sS'prep=inside'
p283
I224
sS'w+2=performance'
p284
I373
sS"w-2='s"
p285
I461
sS'w-2=you'
p286
I561
sS'w+2=sample'
p287
I387
sS'dobj=datum'
p288
I107
sS'w+2=from'
p289
I342
sS'dobj=opinion'
p290
I125
sS'advmod=often'
p291
I14
sS'nsubj=University'
p292
I175
sS'dobj=possibility'
p293
I136
sS'w-2=go'
p294
I503
sS'w+2=entire'
p295
I334
sS'prep=depend'
p296
I219
sS'w+2=quantity'
p297
I379
sS'w+1=141'
p298
I232
sS'ccomp=effective'
p299
I41
sS'dobj=evidence'
p300
I110
sS'dobj=these'
p301
I152
sS'dobj=phenomenon'
p302
I133
sS'w-2=which'
p303
I557
sS'w-1=official'
p304
I434
sS'ccomp=help'
p305
I47
sS'advmod=even'
p306
I9
sS'nsubj=court'
p307
I180
sS'dobj=challenge'
p308
I94
sS'w+2=period'
p309
I374
sS'w-2=panel'
p310
I526
sS'w-2=rapporteur'
p311
I532
sS'conj=recommit'
p312
I66
sS'aux=will'
p313
I30
sS'dobj=abuse'
p314
I82
sS'w-2=senior'
p315
I541
sS'w-2=right'
p316
I538
sS'w+2=aspect'
p317
I315
sS'w-2=Brussels'
p318
I469
sS'ccomp=build'
p319
I36
sS'w-1=Horseback'
p320
I409
sS'nsubj=Council'
p321
I169
sS'w+1=alleged'
p322
I246
sS'w+1=war'
p323
I293
sS'prep=with'
p324
I229
sS'w+2=monk'
p325
I361
sS'nsubj=work'
p326
I210
sS'w-2=session'
p327
I542
sS'w+2=forearm'
p328
I340
sS'dobj=methodology'
p329
I124
sS'dobj=change'
p330
I95
sS'conj=in'
p331
I62
sS'w+1=area'
p332
I248
sS'w+1=bird'
p333
I252
sS'w-2=in'
p334
I508
sS'w+2=pattern'
p335
I372
sS'w+2=evidence'
p336
I337
sS'w-2=it'
p337
I512
sS'w+1=pitfall'
p338
I275
sS'ccomp=conduit'
p339
I40
sS'dobj=vulnerability'
p340
I158
sS'w+1=Britain'
p341
I234
sS'ccomp=close'
p342
I37
sS'dobj=conflict'
p343
I102
sS'w-2=parliament'
p344
I527
sS'dobj=benefit'
p345
I88
sS'w-2=come'
p346
I491
sS'ccomp=commit'
p347
I39
sS"w+2=''"
p348
I299
sS'w+1=global'
p349
I262
sS'advmod=also'
p350
I5
sS'w+2=interrogation'
p351
I355
sS'w-2=fifth'
p352
I501
sS'nsubj=Dr.'
p353
I170
sS'conj=try'
p354
I67
sS'xcomp=disable'
p355
I563
sS'w-1=singing'
p356
I445
sS'w+1=exactly'
p357
I259
sS'w-2=who'
p358
I558
sS'w-2=Capetown'
p359
I470
sS'dobj=finding'
p360
I113
sS'w+2=grievance'
p361
I346
sS'nsubj=tribunal'
p362
I207
sS'w-2=have'
p363
I505
sS'w+2=overlook'
p364
I369
sS'cc=and'
p365
I33
sS'w-2=inquiry'
p366
I509
sS'w+2=amnesty'
p367
I311
sS'w+2=current'
p368
I330
sS'w+1=unbridgeable'
p369
I292
sS'nsubj=hearing'
p370
I185
sS'w+1=be'
p371
I250
sS'w-1=week'
p372
I452
sS'w-1=Subcommittee'
p373
I411
sS"w+2='s"
p374
I300
sS'dobj=pattern'
p375
I130
sS'nsubj=film'
p376
I183
sS'w-2=team'
p377
I548
sS'dobj=bill'
p378
I89
sS'w+1=shipment'
p379
I281
sS'dobj=ream'
p380
I140
sS'nsubj=official'
p381
I192
sS'dobj=step'
p382
I149
sS'w+1=in'
p383
I266
sS'w+2=to'
p384
I396
sS'w+2=condition'
p385
I326
sS'nsubj=#PRP#'
p386
I164
sS'w+1=ream'
p387
I279
sS'dobj=U.S.'
p388
I81
sS'w-2=firm'
p389
I502
sS'w+2=go'
p390
I345
sS'dobj=paradox'
p391
I128
sS'w+2=overall'
p392
I368
sS'w-2=promise'
p393
I531
sS'w-1=office'
p394
I433
sS'w-2=decide'
p395
I498
sS'w+2=malfunction'
p396
I359
sS'w+1=Neo'
p397
I239
sS'w-1=who'
p398
I455
sS'xcomp=make'
p399
I566
sS'w+2=before'
p400
I316
sS'w-2=schedule'
p401
I540
sS'aux=could'
p402
I25
sS'w-2=IOC'
p403
I478
sS'prep=like'
p404
I225
sS'w+2=way'
p405
I404
sS'w+2=war'
p406
I403
sS'w-2=begin'
p407
I487
sS'dobj=cell'
p408
I93
sS'aux=must'
p409
I27
sS'dep=city'
p410
I73
sS'advcl=do'
p411
I0
sS'dobj=trend'
p412
I155
sS'conj=compare'
p413
I55
sS'dobj=performance'
p414
I131
sS'partmod=focus'
p415
I212
sS'dobj=grievance'
p416
I117
sS'w-1=year'
p417
I458
sS'w-2=not'
p418
I519
sS'w-2=be'
p419
I486
sS'conj=ensure'
p420
I59
sS'prep=on'
p421
I226
sS'dep=both'
p422
I71
sS'nsubj=board'
p423
I178
sS'nsubj=which'
p424
I208
sS'w-1=carefully'
p425
I419
sS'dobj=question'
p426
I139
sS'w-2=Investigations'
p427
I480
sS'dobj=forearm'
p428
I114
sS'w+2=and'
p429
I313
sS'advmod=recently'
p430
I19
sS'w+1=all'
p431
I244
sS'dobj=system'
p432
I151
sS'dobj=Neo'
p433
I79
sS'advcl=remove'
p434
I2
sS'w+1=December'
p435
I236
sS'w+2=possibility'
p436
I377
sS'w+2=that'
p437
I394
sS'w-1=situation'
p438
I446
sS'w-2=can'
p439
I489
sS'dobj=Castro'
p440
I77
sS'w+1=blood'
p441
I253
sS'w+2=opinion'
p442
I364
sS'nsubj=administration'
p443
I176
sS'w+2=function'
p444
I343
sS'dobj=amnesty'
p445
I84
sS'dobj=situation'
p446
I148
sS'w-2=committee'
p447
I493
sS'w-1=month'
p448
I430
sS'w-2=to'
p449
I554
sS'dobj=process'
p450
I137
sS'w+1=frozen'
p451
I261
sS'advmod=actually'
p452
I3
sS'ccomp=take'
p453
I48
sS'w+1=this'
p454
I289
sS'w+2=option'
p455
I365
sS'w-2=arrive'
p456
I483
sS'w+2=urban'
p457
I400
sS'w-2=he'
p458
I506
sS'dobj=corruption'
p459
I105
sS'w+2=complaint'
p460
I324
sS'w-2=minister'
p461
I516
sS'dobj=war'
p462
I159
sS'conj=able'
p463
I53
sS'advmod=now'
p464
I13
sS'w-2=say'
p465
I539
sS'w+2=book'
p466
I319
sS'w+2=the'
p467
I395
sS'w-2=will'
p468
I559
sS'prep=as'
p469
I216
sS'w-2=,'
p470
I462
sS'conj=include'
p471
I63
sS'w-2=.'
p472
I465
sS'w-1=and'
p473
I415
sS'w-2=invite'
p474
I511
sS'w+1=what'
p475
I295
sS'aux=have'
p476
I26
sS'dobj=demand'
p477
I108
sS'w+1=major'
p478
I271
sS'prep=among'
p479
I214
sS'dobj=agency'
p480
I83
sS'w-1=,'
p481
I407
sS'dep=as'
p482
I69
sS'w-2=now'
p483
I520
sS'w+1=battlefield'
p484
I249
sS'w-2=Aneesa'
p485
I467
sS'w+2=Talansky'
p486
I307
sS'w-2=I'
p487
I477
sS'dep=surround'
p488
I74
sS'w-2=seven'
p489
I543
sS'w-2=fact'
p490
I500
sS'w-2=commission'
p491
I492
sS'w+2=tumor'
p492
I399
sS'w+1=himself'
p493
I263
sS'prep=through'
p494
I227
sS'w-1=which'
p495
I453
sS'dobj=joint'
p496
I122
sS'aux=should'
p497
I28
sS'w+2=policy'
p498
I375
sS'w-1=they'
p499
I449
sS'w+1=allege'
p500
I245
sS'mark=as'
p501
I161
sS'w-2=astronaut'
p502
I485
sS'dobj=Timmy'
p503
I80
sS'w-2=very'
p504
I555
sS'w-2=city'
p505
I490
sS'nsubj=Phares'
p506
I173
sS'dobj=aspect'
p507
I86
sS'prep=after'
p508
I213
sS'w+2=situation'
p509
I390
sS'dobj=measure'
p510
I123
sS'w-1=scientist'
p511
I443
sS'w-1=film'
p512
I424
sS'w-1=must'
p513
I431
sS'dobj=policy'
p514
I135
sS'w+2=world'
p515
I406
sS'w+2=remains'
p516
I383
sS'w+1=include'
p517
I267
sS'nsubj=justice'
p518
I188
sS'cc=well'
p519
I34
sS'dobj=book'
p520
I90
sS'w+2=challenge'
p521
I322
sS'advmod=before'
p522
I6
sS'w-2=this'
p523
I552
sS'nsubj=Sheik'
p524
I174
sS'dep=tongue'
p525
I75
sS'nsubj=Caspi'
p526
I167
sS'prep=from'
p527
I222
sS'w+1=public'
p528
I278
sS'w-2=conservative'
p529
I495
sS'w+2=compliance'
p530
I325
sS'w+1=way'
p531
I294
sS'w-2=assessment'
p532
I484
sS'nsubj=department'
p533
I181
sS'w-1=we'
p534
I451
sS'aux=to'
p535
I29
sS'w+1=before'
p536
I251
sS'w-2=should'
p537
I545
sS'w-1=hearing'
p538
I427
sS'w+1=such'
p539
I284
sS'w+2=;'
p540
I303
sS'w-2=report'
p541
I534
sS'tmod=week'
p542
I230
sS'w+1=Timmy'
p543
I240
sS'w+1=.'
p544
I231
sS'w-2=region'
p545
I533
sS'dep=after'
p546
I68
sS'w+2=.'
p547
I302
sS'w+2=,'
p548
I301
sS'w-1=often'
p549
I435
sS'w-2=doctor'
p550
I499
sS'dobj=document'
p551
I109
sS'neg=not'
p552
I163
sS'w+2=$'
p553
I298
sS'prep=during'
p554
I220
sS'w-2=inspector'
p555
I510
sS'w-2=-'
p556
I463
sS'dobj=way'
p557
I160
sS'w+2=internal'
p558
I354
sS'w+1=Mr.'
p559
I238
sS'nsubj=office'
p560
I191
sS'ccomp=come'
p561
I38
sS'ccomp=truthful'
p562
I50
sS'dobj=child'
p563
I96
sS'w-1=continue'
p564
I422
sS'w+1=a'
p565
I243
sS'w-1=not'
p566
I432
sS'w+2=demand'
p567
I331
sS'w+1=U.S.'
p568
I241
sS'w-1=include'
p569
I428
sS'w-1=that'
p570
I448
sS'aux=be'
p571
I23
sS'nsubj=review'
p572
I202
sS'w+1=possible'
p573
I276
sS'w-2=Bhargava'
p574
I468
sS'w+2=a'
p575
I308
sS'advmod=properly'
p576
I18
ssS'dtype'
p577
cnumpy
float64
p578
sS'feature_names_'
p579
(lp580
g411
ag271
ag434
ag452
ag132
ag350
ag522
ag250
ag156
ag306
ag279
ag26
ag53
ag464
ag291
ag90
ag106
ag117
ag576
ag430
ag268
ag238
ag120
ag571
ag92
ag402
ag476
ag409
ag497
ag535
ag313
ag113
ag233
ag365
ag519
ag215
ag319
ag342
ag561
ag347
ag339
ag299
ag273
ag158
ag76
ag82
ag88
ag305
ag453
ag24
ag562
ag10
ag93
ag463
ag146
ag413
ag14
ag43
ag276
ag420
ag75
ag207
ag331
ag471
ag280
ag58
ag312
ag354
ag546
ag482
ag254
ag422
ag245
ag410
ag488
ag525
ag187
ag440
ag171
ag433
ag503
ag388
ag314
ag480
ag445
ag97
ag507
ag242
ag345
ag378
ag520
ag249
ag257
ag408
ag308
ag330
ag563
ag63
ag222
ag33
ag23
ag178
ag343
ag39
ag202
ag459
ag31
ag288
ag477
ag551
ag300
ag73
ag192
ag360
ag428
ag151
ag267
ag416
ag174
ag47
ag12
ag180
ag496
ag510
ag329
ag290
ag34
ag116
ag391
ag223
ag375
ag414
ag167
ag302
ag213
ag514
ag293
ag450
ag163
ag426
ag380
ag109
ag46
ag137
ag162
ag209
ag95
ag32
ag446
ag382
ag203
ag432
ag301
ag147
ag100
ag412
ag262
ag258
ag340
ag462
ag557
ag501
ag161
ag552
ag386
ag241
ag228
ag526
ag64
ag321
ag353
ag193
ag98
ag506
ag524
ag292
ag443
ag179
ag423
ag206
ag307
ag533
ag35
ag376
ag38
ag370
ag264
ag20
ag518
ag140
ag142
ag560
ag381
ag204
ag50
ag270
ag239
ag62
ag205
ag189
ag246
ag224
ag572
ag96
ag128
ag17
ag198
ag362
ag424
ag176
ag326
ag110
ag415
ag508
ag479
ag94
ag469
ag8
ag172
ag296
ag554
ag227
ag527
ag111
ag283
ag404
ag421
ag494
ag123
ag324
ag542
ag544
ag298
ag108
ag341
ag16
ag435
ag169
ag559
ag397
ag543
ag568
ag277
ag565
ag431
ag500
ag322
ag135
ag332
ag484
ag371
ag536
ag333
ag441
ag231
ag85
ag230
ag55
ag155
ag357
ag114
ag451
ag349
ag493
ag60
ag166
ag383
ag517
ag148
ag248
ag51
ag478
ag256
ag143
ag184
ag338
ag573
ag195
ag528
ag387
ag68
ag379
ag37
ag40
ag539
ag36
ag105
ag243
ag107
ag454
ag218
ag219
ag369
ag323
ag531
ag475
ag72
ag190
ag553
ag348
ag374
ag548
ag547
ag540
ag237
ag130
ag260
ag486
ag575
ag234
ag125
ag367
ag13
ag429
ag232
ag317
ag400
ag48
ag79
ag466
ag229
ag196
ag521
ag41
ag460
ag530
ag385
ag145
ag18
ag71
ag368
ag567
ag144
ag201
ag295
ag173
ag191
ag336
ag45
ag275
ag328
ag247
ag289
ag444
ag121
ag390
ag361
ag274
ag139
ag197
ag124
ag65
ag80
ag165
ag558
ag351
ag160
ag83
ag272
ag396
ag208
ag325
ag177
ag266
ag442
ag455
ag127
ag236
ag392
ag364
ag70
ag74
ag335
ag284
ag309
ag498
ag52
ag436
ag29
ag297
ag252
ag44
ag131
ag516
ag199
ag210
ag240
ag287
ag244
ag54
ag509
ag186
ag115
ag220
ag437
ag467
ag384
ag103
ag78
ag492
ag457
ag9
ag11
ag406
ag405
ag214
ag515
ag481
ag30
ag320
ag281
ag373
ag194
ag91
ag259
ag473
ag118
ag61
ag59
ag425
ag175
ag251
ag564
ag89
ag512
ag185
ag77
ag538
ag569
ag200
ag448
ag513
ag566
ag394
ag304
ag549
ag102
ag122
ag261
ag263
ag112
ag181
ag282
ag511
ag188
ag356
ag438
ag133
ag570
ag499
ag183
ag534
ag372
ag495
ag278
ag398
ag56
ag42
ag417
ag221
ag265
ag285
ag470
ag556
ag157
ag472
ag149
ag485
ag574
ag318
ag359
ag99
ag57
ag67
ag15
ag212
ag253
ag487
ag403
ag28
ag427
ag21
ag226
ag456
ag532
ag502
ag419
ag407
ag141
ag439
ag505
ag346
ag491
ag447
ag152
ag529
ag217
ag168
ag395
ag550
ag490
ag352
ag389
ag294
ag150
ag363
ag458
ag225
ag334
ag366
ag555
ag474
ag337
ag269
ag235
ag49
ag461
ag170
ag27
ag418
ag483
ag129
ag87
ag182
ag86
ag153
ag310
ag344
ag101
ag69
ag138
ag393
ag311
ag545
ag541
ag216
ag119
ag19
ag316
ag465
ag401
ag315
ag327
ag489
ag136
ag537
ag25
ag126
ag377
ag104
ag66
ag154
ag523
ag255
ag449
ag504
ag81
ag303
ag358
ag468
ag164
ag286
ag22
ag355
ag134
ag211
ag399
ag84
ag159
asS'separator'
p581
S'='
sS'sparse'
p582
I01
sb.