ccopy_reg
_reconstructor
p1
(csklearn.feature_extraction.dict_vectorizer
DictVectorizer
p2
c__builtin__
object
p3
NtRp4
(dp5
S'vocabulary_'
p6
(dp7
S'w-2=aspire'
p8
I42
sS'w+2=from'
p9
I31
sS'w+2=in'
p10
I32
sS'aux=will'
p11
I6
sS'aux=to'
p12
I5
sS'dobj=Soda'
p13
I9
sS'w+2=into'
p14
I33
sS'w+2=the'
p15
I36
sS'prep=at'
p16
I14
sS'w+1=child'
p17
I20
sS'w+1=at'
p18
I19
sS'dobj=#NUMBER#'
p19
I7
sS'w-1=help'
p20
I38
sS'w-2=order'
p21
I48
sS'w+2=of'
p22
I34
sS'w-2=woman'
p23
I52
sS'w-2=allow'
p24
I41
sS'w+1=Soda'
p25
I18
sS'advcl=take'
p26
I2
sS'w+2=Kenya'
p27
I27
sS'advcl=receive'
p28
I1
sS'advmod=at'
p29
I3
sS'w+1=girl'
p30
I21
sS'w+2=school'
p31
I35
sS'w+2=.'
p32
I26
sS'w-1=will'
p33
I40
sS'w-2=doctor'
p34
I44
sS'advmod=straight'
p35
I4
sS'nsubj=student'
p36
I13
sS'w+2=cram-school'
p37
I30
sS'w-2=effort'
p38
I45
sS'w+1=she'
p39
I24
sS'w-1=exam'
p40
I37
sS'w-2=time'
p41
I50
sS'w-2=entrance'
p42
I46
sS'prep=into'
p43
I17
sS'w-2=choose'
p44
I43
sS'w+1=hundred'
p45
I22
sS'w+1=they'
p46
I25
sS'w-2=seek'
p47
I49
sS'w-1=to'
p48
I39
sS'dobj=child'
p49
I10
sS'w+2=college'
p50
I29
sS'dobj=girl'
p51
I11
sS'nsubj=doctor'
p52
I12
sS'prep=in'
p53
I16
sS'dobj=#PRP#'
p54
I8
sS'w+1=in'
p55
I23
sS'w-2=try'
p56
I51
sS'prep=for'
p57
I15
sS'advcl=conduct'
p58
I0
sS'w-2=need'
p59
I47
sS'w+2=child'
p60
I28
ssS'dtype'
p61
cnumpy
float64
p62
sS'feature_names_'
p63
(lp64
g58
ag28
ag26
ag29
ag35
ag12
ag11
ag19
ag54
ag13
ag49
ag51
ag52
ag36
ag16
ag57
ag53
ag43
ag25
ag18
ag17
ag30
ag45
ag55
ag39
ag46
ag32
ag27
ag60
ag50
ag37
ag9
ag10
ag14
ag22
ag31
ag15
ag40
ag20
ag48
ag33
ag24
ag8
ag44
ag34
ag38
ag42
ag59
ag21
ag47
ag41
ag56
ag23
asS'separator'
p65
S'='
sS'sparse'
p66
I01
sb.