ccopy_reg
_reconstructor
p1
(csklearn.feature_extraction.dict_vectorizer
DictVectorizer
p2
c__builtin__
object
p3
NtRp4
(dp5
S'sort'
p6
I01
sS'feature_names_'
p7
(lp8
S'advcl=rise'
p9
aS'advmod=at'
p10
aS'advmod=how'
p11
aS'advmod=rapidly'
p12
aS'advmod=together'
p13
aS'advmod=when'
p14
aS'aux=be'
p15
aS'aux=to'
p16
aS'aux=will'
p17
aS'cc=and'
p18
aS'ccomp=pass'
p19
aS'complm=that'
p20
aS'conj=be'
p21
aS'conj=decline'
p22
aS'conj=make'
p23
aS'conj=raise'
p24
aS'dep=fast'
p25
aS'dobj=cap'
p26
aS'dobj=clock'
p27
aS'dobj=ice'
p28
aS'dobj=pace'
p29
aS'mark=as'
p30
aS'mark=before'
p31
aS'mark=if'
p32
aS'nsubj=cap'
p33
aS'nsubj=change'
p34
aS'nsubj=culture'
p35
aS'nsubj=desire'
p36
aS'nsubj=glacier'
p37
aS'nsubj=ice'
p38
aS'nsubj=snow'
p39
aS'nsubj=spring'
p40
aS'nsubj=temperature'
p41
aS'nsubj=water'
p42
aS'nsubj=weather'
p43
aS'partmod=change'
p44
aS'prep=at'
p45
aS'prep=during'
p46
aS'prep=even'
p47
aS'prep=in'
p48
aS'prep=on'
p49
aS'prt=down'
p50
aS'w+1=,'
p51
aS'w+1=.'
p52
aS'w+1=Arctic'
p53
aS'w+1=and'
p54
aS'w+1=at'
p55
aS'w+1=clock'
p56
aS'w+1=down'
p57
aS'w+1=during'
p58
aS'w+1=even'
p59
aS'w+1=himalayan'
p60
aS'w+1=ice'
p61
aS'w+1=in'
p62
aS'w+1=more'
p63
aS'w+1=snow'
p64
aS'w+1=the'
p65
aS'w+1=together'
p66
aS"w+2=''"
p67
aS'w+2=,'
p68
aS'w+2=a'
p69
aS'w+2=and'
p70
aS'w+2=certain'
p71
aS'w+2=glacier'
p72
aS'w+2=heavy'
p73
aS'w+2=ice'
p74
aS'w+2=in'
p75
aS'w+2=on'
p76
aS'w+2=polar'
p77
aS'w+2=rapidly'
p78
aS'w+2=sea'
p79
aS'w+2=sheet'
p80
aS'w+2=so'
p81
aS'w+2=temperate'
p82
aS'w+2=the'
p83
aS'w+2=this'
p84
aS"w-1=''"
p85
aS'w-1=,'
p86
aS'w-1=.'
p87
aS'w-1=be'
p88
aS'w-1=freedom'
p89
aS'w-1=glacial'
p90
aS'w-1=glacier'
p91
aS'w-1=ice'
p92
aS'w-1=snow'
p93
aS'w-1=society'
p94
aS'w-1=spring'
p95
aS'w-1=temperature'
p96
aS'w-1=to'
p97
aS'w-1=weather'
p98
aS'w-1=will'
p99
aS'w-2=Salween'
p100
aS'w-2=begin'
p101
aS'w-2=cap'
p102
aS'w-2=change'
p103
aS'w-2=continue'
p104
aS'w-2=earlier'
p105
aS'w-2=for'
p106
aS'w-2=from'
p107
aS'w-2=glacier'
p108
aS'w-2=global'
p109
aS'w-2=go'
p110
aS'w-2=himalayan'
p111
aS'w-2=ice'
p112
aS'w-2=mine'
p113
aS'w-2=or'
p114
aS'w-2=snow'
p115
aS'w-2=species'
p116
aS'w-2=the'
p117
aS'w-2=to'
p118
aS'w-2=warmer'
p119
aS'w-2=western'
p120
aS'w-2=winter'
p121
asS'dtype'
p122
cnumpy
float64
p123
sS'vocabulary_'
p124
(dp125
g40
I31
sg9
I0
sg108
I99
sg64
I55
sg109
I100
sg110
I101
sg24
I15
sg79
I70
sg114
I105
sg84
I75
sg91
I82
sg56
I47
sg97
I88
sg118
I109
sg70
I61
sg60
I51
sg38
I29
sg115
I106
sg39
I30
sg33
I24
sg11
I2
sg112
I103
sg63
I54
sg71
I62
sg17
I8
sg113
I104
sg107
I98
sg26
I17
sg83
I74
sg45
I36
sg62
I53
sg55
I46
sg99
I90
sg81
I72
sg88
I79
sg78
I69
sg87
I78
sg86
I77
sg105
I96
sg117
I108
sg72
I63
sg116
I107
sg73
I64
sg36
I27
sg104
I95
sg89
I80
sg14
I5
sg47
I38
sg57
I48
sg82
I73
sg120
I111
sg27
I18
sg66
I57
sg29
I20
sg77
I68
sg34
I25
sg67
I58
sg75
I66
sg30
I21
sg98
I89
sg95
I86
sg43
I34
sg119
I110
sg25
I16
sg42
I33
sg74
I65
sg20
I11
sg59
I50
sg22
I13
sg10
I1
sg35
I26
sg18
I9
sg58
I49
sg65
I56
sg90
I81
sg61
I52
sg13
I4
sg37
I28
sg48
I39
sg41
I32
sg93
I84
sg100
I91
sg111
I102
sg53
I44
sg85
I76
sg44
I35
sg16
I7
sg92
I83
sg23
I14
sg121
I112
sg54
I45
sg94
I85
sg102
I93
sg51
I42
sg52
I43
sg19
I10
sg68
I59
sg96
I87
sg76
I67
sg31
I22
sg101
I92
sg46
I37
sg12
I3
sg50
I41
sg21
I12
sg49
I40
sg80
I71
sg28
I19
sg15
I6
sg106
I97
sg32
I23
sg103
I94
sg69
I60
ssS'separator'
p126
S'='
sS'sparse'
p127
I01
sb.