ccopy_reg
_reconstructor
p1
(csklearn.feature_extraction.dict_vectorizer
DictVectorizer
p2
c__builtin__
object
p3
NtRp4
(dp5
S'sort'
p6
I01
sS'feature_names_'
p7
(lp8
S'acomp=endocrine'
p9
aS'advcl=begin'
p10
aS'advcl=bow'
p11
aS'advcl=display'
p12
aS'advcl=down'
p13
aS'advcl=fail'
p14
aS'advcl=gather'
p15
aS'advcl=halt'
p16
aS'advcl=meet'
p17
aS'advcl=say'
p18
aS'advcl=see'
p19
aS'advmod=also'
p20
aS'advmod=at'
p21
aS'advmod=both'
p22
aS'advmod=briefly'
p23
aS'advmod=completely'
p24
aS'advmod=continually'
p25
aS'advmod=easily'
p26
aS'advmod=ever'
p27
aS'advmod=further'
p28
aS'advmod=meanwhile'
p29
aS'advmod=much'
p30
aS'advmod=needlessly'
p31
aS'advmod=really'
p32
aS'advmod=repeatedly'
p33
aS'advmod=severely'
p34
aS'advmod=there'
p35
aS'advmod=this'
p36
aS'advmod=violently'
p37
aS'advmod=when'
p38
aS'advmod=worldwide'
p39
aS'aux=be'
p40
aS'aux=can'
p41
aS'aux=could'
p42
aS'aux=do'
p43
aS'aux=have'
p44
aS'aux=might'
p45
aS'aux=to'
p46
aS'aux=will'
p47
aS'aux=would'
p48
aS'auxpass=be'
p49
aS'cc=and'
p50
aS'cc=but'
p51
aS'cc=or'
p52
aS'ccomp=response'
p53
aS'ccomp=stop'
p54
aS'complm=that'
p55
aS'conj=attack'
p56
aS'conj=be'
p57
aS'conj=bring'
p58
aS'conj=cause'
p59
aS'conj=close'
p60
aS'conj=cost'
p61
aS'conj=create'
p62
aS'conj=defeat'
p63
aS'conj=delay'
p64
aS'conj=deprive'
p65
aS'conj=disrupt'
p66
aS'conj=have'
p67
aS'conj=lead'
p68
aS'conj=make'
p69
aS'conj=put'
p70
aS'conj=rattle'
p71
aS'conj=shut'
p72
aS'dep=chant'
p73
aS'dep=damage'
p74
aS'dep=report'
p75
aS'dobj=#NUMBER#'
p76
aS'dobj=#PRP#'
p77
aS'dobj=Congress'
p78
aS'dobj=Games'
p79
aS'dobj=Parliament'
p80
aS'dobj=Summit'
p81
aS'dobj=activity'
p82
aS'dobj=advance'
p83
aS'dobj=agreement'
p84
aS'dobj=al-qaida'
p85
aS'dobj=attack'
p86
aS'dobj=balance'
p87
aS'dobj=beginning'
p88
aS'dobj=breeding'
p89
aS'dobj=broadcast'
p90
aS'dobj=campaign'
p91
aS'dobj=car-bomber'
p92
aS'dobj=care'
p93
aS'dobj=celebration'
p94
aS'dobj=ceremony'
p95
aS'dobj=chemical'
p96
aS'dobj=community'
p97
aS'dobj=conference'
p98
aS'dobj=cycle'
p99
aS'dobj=delivery'
p100
aS'dobj=distribution'
p101
aS'dobj=dna'
p102
aS'dobj=economy'
p103
aS'dobj=ecosystem'
p104
aS'dobj=effort'
p105
aS'dobj=election'
p106
aS'dobj=event'
p107
aS'dobj=export'
p108
aS'dobj=flow'
p109
aS'dobj=force'
p110
aS'dobj=game'
p111
aS'dobj=gathering'
p112
aS'dobj=government'
p113
aS'dobj=grid'
p114
aS'dobj=group'
p115
aS'dobj=harmony'
p116
aS'dobj=haven'
p117
aS'dobj=hearing'
p118
aS'dobj=holiday'
p119
aS'dobj=hotel'
p120
aS'dobj=industry'
p121
aS'dobj=institution'
p122
aS'dobj=launch'
p123
aS'dobj=leadership'
p124
aS'dobj=life'
p125
aS'dobj=link'
p126
aS'dobj=many'
p127
aS'dobj=market'
p128
aS'dobj=middleman'
p129
aS'dobj=migration'
p130
aS'dobj=militant'
p131
aS'dobj=movement'
p132
aS'dobj=network'
p133
aS'dobj=operation'
p134
aS'dobj=order'
p135
aS'dobj=parliament'
p136
aS'dobj=passing'
p137
aS'dobj=pattern'
p138
aS'dobj=plan'
p139
aS'dobj=plot'
p140
aS'dobj=poll'
p141
aS'dobj=proceedings'
p142
aS'dobj=process'
p143
aS'dobj=progress'
p144
aS'dobj=protest'
p145
aS'dobj=race'
p146
aS'dobj=reconciliation'
p147
aS'dobj=regime'
p148
aS'dobj=region'
p149
aS'dobj=relation'
p150
aS'dobj=religion'
p151
aS'dobj=return'
p152
aS'dobj=service'
p153
aS'dobj=shipping'
p154
aS'dobj=sleep'
p155
aS'dobj=soldier'
p156
aS'dobj=speech'
p157
aS'dobj=supplies'
p158
aS'dobj=supply'
p159
aS'dobj=system'
p160
aS'dobj=tie'
p161
aS'dobj=trade'
p162
aS'dobj=traffic'
p163
aS'dobj=transportation'
p164
aS'dobj=travel'
p165
aS'dobj=village'
p166
aS'dobj=visit'
p167
aS'dobj=vote'
p168
aS'dobj=voting'
p169
aS'dobj=wisdom'
p170
aS'dobj=work'
p171
aS'mark=after'
p172
aS'mark=although'
p173
aS'mark=if'
p174
aS'neg=not'
p175
aS'nsubj=#PRP#'
p176
aS'nsubj=Felix'
p177
aS'nsubj=States'
p178
aS'nsubj=attack'
p179
aS'nsubj=attempt'
p180
aS'nsubj=blanket'
p181
aS'nsubj=blockade'
p182
aS'nsubj=bombing'
p183
aS'nsubj=but'
p184
aS'nsubj=change'
p185
aS'nsubj=condition'
p186
aS'nsubj=crosser'
p187
aS'nsubj=explosion'
p188
aS'nsubj=fence'
p189
aS'nsubj=field'
p190
aS'nsubj=fighting'
p191
aS'nsubj=fishing'
p192
aS'nsubj=incident'
p193
aS'nsubj=influence'
p194
aS'nsubj=lawmaker'
p195
aS'nsubj=lighting'
p196
aS'nsubj=man'
p197
aS'nsubj=member'
p198
aS'nsubj=move'
p199
aS'nsubj=outage'
p200
aS'nsubj=police'
p201
aS'nsubj=protest'
p202
aS'nsubj=response'
p203
aS'nsubj=rocket'
p204
aS'nsubj=stoppage'
p205
aS'nsubj=storm'
p206
aS'nsubj=supporter'
p207
aS'nsubj=terrorist'
p208
aS'nsubj=that'
p209
aS'nsubj=the'
p210
aS'nsubj=union'
p211
aS'nsubj=unrest'
p212
aS'nsubj=wave'
p213
aS'nsubj=which'
p214
aS'nsubj=who'
p215
aS'nsubjpass=#PRP#'
p216
aS'nsubjpass=activity'
p217
aS'nsubjpass=cell'
p218
aS'nsubjpass=cycle'
p219
aS'nsubjpass=delivery'
p220
aS'nsubjpass=flight'
p221
aS'nsubjpass=hearing'
p222
aS'nsubjpass=industry'
p223
aS'nsubjpass=life'
p224
aS'nsubjpass=livelihood'
p225
aS'nsubjpass=militia'
p226
aS'nsubjpass=network'
p227
aS'nsubjpass=parliament'
p228
aS'nsubjpass=percent'
p229
aS'nsubjpass=printing'
p230
aS'nsubjpass=reading'
p231
aS'nsubjpass=service'
p232
aS'nsubjpass=stability'
p233
aS'nsubjpass=supplies'
p234
aS'nsubjpass=system'
p235
aS'nsubjpass=that'
p236
aS'nsubjpass=traffic'
p237
aS'parataxis=say'
p238
aS'partmod=make'
p239
aS'prep=amid'
p240
aS'prep=around'
p241
aS'prep=as'
p242
aS'prep=because'
p243
aS'prep=by'
p244
aS'prep=during'
p245
aS'prep=for'
p246
aS'prep=from'
p247
aS'prep=give'
p248
aS'prep=in'
p249
aS'prep=on'
p250
aS'prep=that'
p251
aS'prep=through'
p252
aS'prep=to'
p253
aS'prep=with'
p254
aS'tmod=election'
p255
aS'tmod=morning'
p256
aS'tmod=year'
p257
aS"w+1=''"
p258
aS'w+1=,'
p259
aS'w+1=.'
p260
aS'w+1=Congress'
p261
aS'w+1=G-20'
p262
aS'w+1=Georgia'
p263
aS'w+1=Hamas'
p264
aS'w+1=Middle'
p265
aS'w+1=North'
p266
aS'w+1=November'
p267
aS'w+1=Pakistan'
p268
aS'w+1=Parliament'
p269
aS'w+1=South'
p270
aS'w+1=U.S.'
p271
aS'w+1=a'
p272
aS'w+1=activity'
p273
aS'w+1=amid'
p274
aS'w+1=and'
p275
aS'w+1=as'
p276
aS'w+1=bird'
p277
aS'w+1=both'
p278
aS'w+1=breeding'
p279
aS'w+1=broadcast'
p280
aS'w+1=by'
p281
aS'w+1=car-bomber'
p282
aS'w+1=chemical'
p283
aS'w+1=communal'
p284
aS'w+1=daily'
p285
aS'w+1=delivery'
p286
aS'w+1=distribution'
p287
aS'w+1=dna'
p288
aS'w+1=flow'
p289
aS'w+1=for'
p290
aS'w+1=german'
p291
aS'w+1=group'
p292
aS'w+1=he'
p293
aS'w+1=hundred'
p294
aS'w+1=important'
p295
aS'w+1=in'
p296
aS'w+1=insurgent'
p297
aS'w+1=international'
p298
aS'w+1=internet'
p299
aS'w+1=it'
p300
aS'w+1=its'
p301
aS'w+1=life'
p302
aS'w+1=many'
p303
aS'w+1=market'
p304
aS'w+1=normal'
p305
aS'w+1=north-south'
p306
aS'w+1=oil'
p307
aS'w+1=on'
p308
aS'w+1=or'
p309
aS'w+1=parliament'
p310
aS'w+1=parliamentary'
p311
aS'w+1=plan'
p312
aS'w+1=political'
p313
aS'w+1=power'
p314
aS'w+1=proceedings'
p315
aS'w+1=public'
p316
aS'w+1=rail'
p317
aS'w+1=reconciliation'
p318
aS'w+1=river'
p319
aS'w+1=routine'
p320
aS'w+1=service'
p321
aS'w+1=she'
p322
aS'w+1=sleep'
p323
aS'w+1=some'
p324
aS'w+1=terrorist'
p325
aS'w+1=that'
p326
aS'w+1=the'
p327
aS'w+1=these'
p328
aS'w+1=they'
p329
aS'w+1=those'
p330
aS'w+1=tie'
p331
aS'w+1=trade'
p332
aS'w+1=traffic'
p333
aS'w+1=transport'
p334
aS'w+1=transportation'
p335
aS'w+1=we'
p336
aS'w+1=weather'
p337
aS'w+1=work'
p338
aS'w+1=worldwide'
p339
aS"w+2=''"
p340
aS"w+2='s"
p341
aS'w+2=,'
p342
aS'w+2=.'
p343
aS'w+2=Africa'
p344
aS'w+2=Americans'
p345
aS'w+2=April'
p346
aS'w+2=East'
p347
aS'w+2=February'
p348
aS'w+2=Games'
p349
aS'w+2=Korea'
p350
aS'w+2=Siniora'
p351
aS'w+2=Summit'
p352
aS'w+2=a'
p353
aS'w+2=activity'
p354
aS'w+2=agreement'
p355
aS'w+2=al-qaida'
p356
aS'w+2=and'
p357
aS'w+2=any'
p358
aS'w+2=argument'
p359
aS'w+2=around'
p360
aS'w+2=attack'
p361
aS'w+2=be'
p362
aS'w+2=beginning'
p363
aS'w+2=between'
p364
aS'w+2=big'
p365
aS'w+2=by'
p366
aS'w+2=campaign'
p367
aS'w+2=chain'
p368
aS'w+2=chemical'
p369
aS'w+2=clash'
p370
aS'w+2=community'
p371
aS'w+2=constitutional'
p372
aS'w+2=conventional'
p373
aS'w+2=country'
p374
aS'w+2=day-to-day'
p375
aS'w+2=decade'
p376
aS'w+2=delay'
p377
aS'w+2=delicate'
p378
aS'w+2=delivery'
p379
aS'w+2=democratic'
p380
aS'w+2=diabetic'
p381
aS'w+2=dismantle'
p382
aS'w+2=distribution'
p383
aS'w+2=domestic'
p384
aS'w+2=during'
p385
aS'w+2=election'
p386
aS'w+2=electoral'
p387
aS'w+2=event'
p388
aS'w+2=export'
p389
aS'w+2=festival'
p390
aS'w+2=financial'
p391
aS'w+2=flow'
p392
aS'w+2=for'
p393
aS'w+2=force'
p394
aS'w+2=fuel'
p395
aS'w+2=game'
p396
aS'w+2=gathering'
p397
aS'w+2=grid'
p398
aS'w+2=harmony'
p399
aS'w+2=health'
p400
aS'w+2=hearing'
p401
aS'w+2=hold'
p402
aS'w+2=holiday'
p403
aS'w+2=in'
p404
aS'w+2=independence'
p405
aS'w+2=industry'
p406
aS'w+2=institution'
p407
aS'w+2=launch'
p408
aS'w+2=lawmaker'
p409
aS'w+2=life'
p410
aS'w+2=lifecycle'
p411
aS'w+2=link'
p412
aS'w+2=middleman'
p413
aS'w+2=migration'
p414
aS'w+2=militant'
p415
aS'w+2=nation'
p416
aS'w+2=natural'
p417
aS'w+2=network'
p418
aS'w+2=of'
p419
aS'w+2=oil'
p420
aS'w+2=olive'
p421
aS'w+2=operation'
p422
aS'w+2=order'
p423
aS'w+2=other'
p424
aS'w+2=part'
p425
aS'w+2=peaceful'
p426
aS'w+2=plan'
p427
aS'w+2=plot'
p428
aS'w+2=poll'
p429
aS'w+2=polling'
p430
aS'w+2=proceedings'
p431
aS'w+2=process'
p432
aS'w+2=progress'
p433
aS'w+2=protest'
p434
aS'w+2=recent'
p435
aS'w+2=regime'
p436
aS'w+2=region'
p437
aS'w+2=relation'
p438
aS'w+2=religion'
p439
aS'w+2=road'
p440
aS'w+2=safe'
p441
aS'w+2=say'
p442
aS'w+2=sectarian'
p443
aS'w+2=senior'
p444
aS'w+2=sense'
p445
aS'w+2=service'
p446
aS'w+2=shipping'
p447
aS'w+2=some'
p448
aS'w+2=speech'
p449
aS'w+2=staff'
p450
aS'w+2=system'
p451
aS'w+2=that'
p452
aS'w+2=the'
p453
aS'w+2=threaten'
p454
aS'w+2=through'
p455
aS'w+2=to'
p456
aS'w+2=traffic'
p457
aS'w+2=travel'
p458
aS'w+2=troop'
p459
aS'w+2=visit'
p460
aS'w+2=vote'
p461
aS'w+2=voting'
p462
aS'w+2=weather'
p463
aS'w+2=whole'
p464
aS'w+2=work'
p465
aS'w+2=world'
p466
aS"w-1=''"
p467
aS'w-1=,'
p468
aS'w-1=.'
p469
aS'w-1=Greece'
p470
aS'w-1=also'
p471
aS'w-1=and'
p472
aS'w-1=at'
p473
aS'w-1=attack'
p474
aS'w-1=be'
p475
aS'w-1=briefly'
p476
aS'w-1=by'
p477
aS'w-1=can'
p478
aS'w-1=case'
p479
aS'w-1=completely'
p480
aS'w-1=condition'
p481
aS'w-1=continually'
p482
aS'w-1=could'
p483
aS'w-1=crosser'
p484
aS'w-1=easily'
p485
aS'w-1=endocrine'
p486
aS'w-1=ever'
p487
aS'w-1=fishing'
p488
aS'w-1=for'
p489
aS'w-1=from'
p490
aS'w-1=further'
p491
aS'w-1=have'
p492
aS'w-1=ice'
p493
aS'w-1=in'
p494
aS'w-1=lawmaker'
p495
aS'w-1=lighting'
p496
aS'w-1=man'
p497
aS'w-1=might'
p498
aS'w-1=much'
p499
aS'w-1=needlessly'
p500
aS'w-1=not'
p501
aS'w-1=of'
p502
aS'w-1=on'
p503
aS'w-1=policeman'
p504
aS'w-1=protest'
p505
aS'w-1=really'
p506
aS'w-1=repeatedly'
p507
aS'w-1=require'
p508
aS'w-1=risk'
p509
aS'w-1=rocket'
p510
aS'w-1=say'
p511
aS'w-1=severely'
p512
aS'w-1=stoppage'
p513
aS'w-1=temporarily'
p514
aS'w-1=that'
p515
aS'w-1=to'
p516
aS'w-1=toward'
p517
aS'w-1=violently'
p518
aS'w-1=will'
p519
aS'w-1=winter'
p520
aS'w-1=with'
p521
aS'w-1=without'
p522
aS'w-1=would'
p523
aS'w-1=ycl'
p524
aS"w-2=''"
p525
aS'w-2=,'
p526
aS'w-2=Afghanistan'
p527
aS'w-2=Basra'
p528
aS'w-2=Felix'
p529
aS'w-2=Iraq'
p530
aS'w-2=Nablus'
p531
aS'w-2=States'
p532
aS'w-2=a'
p533
aS'w-2=activity'
p534
aS'w-2=after'
p535
aS'w-2=aim'
p536
aS'w-2=allow'
p537
aS'w-2=also'
p538
aS'w-2=and'
p539
aS'w-2=appear'
p540
aS'w-2=armed'
p541
aS'w-2=artificial'
p542
aS'w-2=attack'
p543
aS'w-2=attempt'
p544
aS'w-2=audience'
p545
aS'w-2=be'
p546
aS'w-2=better'
p547
aS'w-2=blockade'
p548
aS'w-2=border'
p549
aS'w-2=cable'
p550
aS'w-2=can'
p551
aS'w-2=car'
p552
aS'w-2=charge'
p553
aS'w-2=cut'
p554
aS'w-2=day'
p555
aS'w-2=delivery'
p556
aS'w-2=determine'
p557
aS'w-2=do'
p558
aS'w-2=earth'
p559
aS'w-2=economy'
p560
aS'w-2=event'
p561
aS'w-2=fence'
p562
aS'w-2=fighting'
p563
aS'w-2=fleet'
p564
aS'w-2=focus'
p565
aS'w-2=funeral'
p566
aS'w-2=gear'
p567
aS'w-2=goal'
p568
aS'w-2=government'
p569
aS'w-2=habitat'
p570
aS'w-2=have'
p571
aS'w-2=he'
p572
aS'w-2=hearing'
p573
aS'w-2=highway'
p574
aS'w-2=hope'
p575
aS'w-2=in'
p576
aS'w-2=incident'
p577
aS'w-2=interdict'
p578
aS'w-2=involve'
p579
aS'w-2=leader'
p580
aS'w-2=legislature'
p581
aS'w-2=man'
p582
aS'w-2=move'
p583
aS'w-2=murderer'
p584
aS'w-2=need'
p585
aS'w-2=network'
p586
aS'w-2=not'
p587
aS'w-2=ocean'
p588
aS'w-2=of'
p589
aS'w-2=opposition'
p590
aS'w-2=outage'
p591
aS'w-2=party'
p592
aS'w-2=people'
p593
aS'w-2=plain'
p594
aS'w-2=plan'
p595
aS'w-2=police'
p596
aS'w-2=possibility'
p597
aS'w-2=potential'
p598
aS'w-2=project'
p599
aS'w-2=protest'
p600
aS'w-2=responsible'
p601
aS'w-2=road'
p602
aS'w-2=rocket'
p603
aS'w-2=role'
p604
aS'w-2=rule'
p605
aS'w-2=school'
p606
aS'w-2=seek'
p607
aS'w-2=service'
p608
aS'w-2=settler'
p609
aS'w-2=some'
p610
aS'w-2=state'
p611
aS'w-2=storm'
p612
aS'w-2=strive'
p613
aS'w-2=successful'
p614
aS'w-2=such'
p615
aS'w-2=supporter'
p616
aS'w-2=terrorist'
p617
aS'w-2=that'
p618
aS'w-2=the'
p619
aS'w-2=they'
p620
aS'w-2=threaten'
p621
aS'w-2=tibetan'
p622
aS'w-2=time'
p623
aS'w-2=tire'
p624
aS'w-2=to'
p625
aS'w-2=traffic'
p626
aS'w-2=try'
p627
aS'w-2=unrest'
p628
aS'w-2=use'
p629
aS'w-2=very'
p630
aS'w-2=violence'
p631
aS'w-2=vow'
p632
aS'w-2=want'
p633
aS'w-2=we'
p634
aS'w-2=which'
p635
aS'w-2=who'
p636
aS'w-2=word'
p637
aS'w-2=work'
p638
aS'w-2=you'
p639
aS'xcomp=attendant'
p640
aS'xcomp=deprive'
p641
aS'xcomp=try'
p642
asS'dtype'
p643
cnumpy
float64
p644
sS'vocabulary_'
p645
(dp646
g23
I14
sg542
I533
sg422
I413
sg169
I160
sg137
I128
sg406
I397
sg508
I499
sg520
I511
sg634
I625
sg593
I584
sg213
I204
sg235
I226
sg156
I147
sg385
I376
sg400
I391
sg109
I100
sg364
I355
sg434
I425
sg391
I382
sg81
I72
sg60
I51
sg628
I619
sg251
I242
sg399
I390
sg297
I288
sg596
I587
sg179
I170
sg426
I417
sg216
I207
sg221
I212
sg564
I555
sg620
I611
sg244
I235
sg416
I407
sg326
I317
sg610
I601
sg17
I8
sg523
I514
sg511
I502
sg474
I465
sg190
I181
sg121
I112
sg632
I623
sg79
I70
sg547
I538
sg435
I426
sg570
I561
sg328
I319
sg32
I23
sg194
I185
sg565
I556
sg296
I287
sg519
I510
sg116
I107
sg105
I96
sg305
I296
sg68
I59
sg202
I193
sg477
I468
sg475
I466
sg114
I105
sg359
I350
sg449
I440
sg135
I126
sg300
I291
sg282
I273
sg322
I313
sg354
I345
sg623
I614
sg142
I133
sg170
I161
sg212
I203
sg430
I421
sg239
I230
sg45
I36
sg636
I627
sg231
I222
sg574
I565
sg198
I189
sg256
I247
sg456
I447
sg308
I299
sg141
I132
sg554
I545
sg309
I300
sg521
I512
sg375
I366
sg492
I483
sg252
I243
sg436
I427
sg185
I176
sg36
I27
sg404
I395
sg140
I131
sg575
I566
sg513
I504
sg324
I315
sg132
I123
sg483
I474
sg471
I462
sg41
I32
sg55
I46
sg241
I232
sg73
I64
sg11
I2
sg21
I12
sg389
I380
sg93
I84
sg188
I179
sg229
I220
sg490
I481
sg337
I328
sg388
I379
sg618
I609
sg327
I318
sg401
I392
sg362
I353
sg329
I320
sg398
I389
sg604
I595
sg602
I593
sg330
I321
sg325
I316
sg92
I83
sg249
I240
sg48
I39
sg290
I281
sg580
I571
sg217
I208
sg71
I62
sg240
I231
sg222
I213
sg253
I244
sg445
I436
sg14
I5
sg210
I201
sg223
I214
sg69
I60
sg514
I505
sg275
I266
sg171
I162
sg139
I130
sg599
I590
sg195
I186
sg180
I171
sg393
I384
sg209
I200
sg119
I110
sg28
I19
sg569
I560
sg86
I77
sg287
I278
sg207
I198
sg428
I419
sg494
I485
sg279
I270
sg390
I381
sg614
I605
sg616
I607
sg57
I48
sg529
I520
sg607
I598
sg383
I374
sg177
I168
sg174
I165
sg199
I190
sg609
I600
sg638
I629
sg161
I152
sg611
I602
sg637
I628
sg605
I596
sg107
I98
sg586
I577
sg577
I568
sg166
I157
sg234
I225
sg482
I473
sg74
I65
sg123
I114
sg447
I438
sg159
I150
sg455
I446
sg339
I330
sg549
I540
sg433
I424
sg507
I498
sg315
I306
sg62
I53
sg215
I206
sg278
I269
sg29
I20
sg82
I73
sg589
I580
sg338
I329
sg612
I603
sg516
I507
sg136
I127
sg578
I569
sg397
I388
sg621
I612
sg115
I106
sg77
I68
sg558
I549
sg24
I15
sg189
I180
sg413
I404
sg112
I103
sg111
I102
sg78
I69
sg35
I26
sg566
I557
sg543
I534
sg269
I260
sg155
I146
sg480
I471
sg581
I572
sg276
I267
sg291
I282
sg318
I309
sg394
I385
sg206
I197
sg236
I227
sg478
I469
sg127
I118
sg151
I142
sg640
I631
sg118
I109
sg421
I412
sg302
I293
sg378
I369
sg495
I486
sg16
I7
sg536
I527
sg352
I343
sg509
I500
sg26
I17
sg38
I29
sg33
I24
sg72
I63
sg573
I564
sg246
I237
sg368
I359
sg311
I302
sg336
I327
sg464
I455
sg420
I411
sg80
I71
sg331
I322
sg591
I582
sg499
I490
sg238
I229
sg412
I403
sg184
I175
sg540
I531
sg363
I354
sg481
I472
sg49
I40
sg266
I257
sg334
I325
sg101
I92
sg97
I88
sg88
I79
sg129
I120
sg479
I470
sg149
I140
sg30
I21
sg182
I173
sg442
I433
sg104
I95
sg106
I97
sg376
I367
sg427
I418
sg98
I89
sg335
I326
sg301
I292
sg450
I441
sg181
I172
sg467
I458
sg299
I290
sg89
I80
sg510
I501
sg553
I544
sg94
I85
sg550
I541
sg631
I622
sg537
I528
sg525
I516
sg233
I224
sg113
I104
sg584
I575
sg419
I410
sg535
I526
sg438
I429
sg152
I143
sg472
I463
sg387
I378
sg67
I58
sg263
I254
sg333
I324
sg488
I479
sg425
I416
sg52
I43
sg284
I275
sg544
I535
sg230
I221
sg313
I304
sg164
I155
sg346
I337
sg588
I579
sg25
I16
sg423
I414
sg157
I148
sg31
I22
sg458
I449
sg270
I261
sg148
I139
sg601
I592
sg298
I289
sg617
I608
sg310
I301
sg39
I30
sg408
I399
sg332
I323
sg286
I277
sg146
I137
sg598
I589
sg355
I346
sg63
I54
sg600
I591
sg381
I372
sg379
I370
sg486
I477
sg635
I626
sg530
I521
sg384
I375
sg192
I183
sg545
I536
sg484
I475
sg100
I91
sg548
I539
sg27
I18
sg619
I610
sg43
I34
sg133
I124
sg317
I308
sg538
I529
sg47
I38
sg59
I50
sg178
I169
sg277
I268
sg254
I245
sg232
I223
sg641
I632
sg150
I141
sg110
I101
sg595
I586
sg517
I508
sg265
I256
sg267
I258
sg56
I47
sg431
I422
sg576
I567
sg555
I546
sg70
I61
sg307
I298
sg304
I295
sg561
I552
sg409
I400
sg319
I310
sg243
I234
sg608
I599
sg295
I286
sg557
I548
sg283
I274
sg285
I276
sg503
I494
sg340
I331
sg403
I394
sg562
I553
sg392
I383
sg20
I11
sg395
I386
sg268
I259
sg173
I164
sg122
I113
sg125
I116
sg220
I211
sg642
I633
sg452
I443
sg219
I210
sg532
I523
sg485
I476
sg374
I365
sg594
I585
sg54
I45
sg429
I420
sg154
I145
sg571
I562
sg117
I108
sg50
I41
sg348
I339
sg407
I398
sg205
I196
sg629
I620
sg281
I272
sg99
I90
sg371
I362
sg341
I332
sg138
I129
sg61
I52
sg350
I341
sg227
I218
sg417
I408
sg237
I228
sg448
I439
sg257
I248
sg165
I156
sg19
I10
sg176
I167
sg22
I13
sg258
I249
sg51
I42
sg457
I448
sg96
I87
sg377
I368
sg493
I484
sg34
I25
sg186
I177
sg293
I284
sg76
I67
sg228
I219
sg592
I583
sg351
I342
sg262
I253
sg42
I33
sg528
I519
sg144
I135
sg225
I216
sg75
I66
sg370
I361
sg37
I28
sg356
I347
sg522
I513
sg248
I239
sg208
I199
sg460
I451
sg603
I594
sg498
I489
sg512
I503
sg91
I82
sg446
I437
sg546
I537
sg382
I373
sg491
I482
sg250
I241
sg172
I163
sg415
I406
sg312
I303
sg585
I576
sg197
I188
sg402
I393
sg204
I195
sg567
I558
sg451
I442
sg214
I205
sg10
I1
sg414
I405
sg289
I280
sg437
I428
sg380
I371
sg203
I194
sg292
I283
sg462
I453
sg386
I377
sg606
I597
sg459
I450
sg160
I151
sg321
I312
sg373
I364
sg193
I184
sg622
I613
sg264
I255
sg131
I122
sg560
I551
sg343
I334
sg143
I134
sg273
I264
sg633
I624
sg358
I349
sg163
I154
sg342
I333
sg191
I182
sg524
I515
sg349
I340
sg18
I9
sg502
I493
sg280
I271
sg201
I192
sg625
I616
sg357
I348
sg539
I530
sg66
I57
sg12
I3
sg626
I617
sg627
I618
sg64
I55
sg441
I432
sg303
I294
sg572
I563
sg145
I136
sg556
I547
sg361
I352
sg288
I279
sg500
I491
sg568
I559
sg432
I423
sg147
I138
sg597
I588
sg103
I94
sg453
I444
sg242
I233
sg526
I517
sg345
I336
sg418
I409
sg367
I358
sg44
I35
sg470
I461
sg469
I460
sg468
I459
sg454
I445
sg587
I578
sg372
I363
sg65
I56
sg87
I78
sg167
I158
sg124
I115
sg613
I604
sg582
I573
sg624
I615
sg83
I74
sg396
I387
sg531
I522
sg496
I487
sg466
I457
sg15
I6
sg162
I153
sg533
I524
sg95
I86
sg58
I49
sg506
I497
sg13
I4
sg126
I117
sg465
I456
sg183
I174
sg579
I570
sg153
I144
sg405
I396
sg158
I149
sg224
I215
sg630
I621
sg130
I121
sg440
I431
sg463
I454
sg518
I509
sg563
I554
sg102
I93
sg360
I351
sg444
I435
sg527
I518
sg461
I452
sg168
I159
sg590
I581
sg411
I402
sg559
I550
sg187
I178
sg218
I209
sg108
I99
sg583
I574
sg84
I75
sg541
I532
sg505
I496
sg274
I265
sg211
I202
sg323
I314
sg255
I246
sg53
I44
sg90
I81
sg369
I360
sg487
I478
sg247
I238
sg316
I307
sg424
I415
sg200
I191
sg534
I525
sg347
I338
sg46
I37
sg639
I630
sg85
I76
sg261
I252
sg344
I335
sg128
I119
sg552
I543
sg489
I480
sg259
I250
sg260
I251
sg476
I467
sg366
I357
sg551
I542
sg615
I606
sg175
I166
sg134
I125
sg245
I236
sg439
I430
sg320
I311
sg410
I401
sg226
I217
sg120
I111
sg443
I434
sg196
I187
sg306
I297
sg272
I263
sg504
I495
sg501
I492
sg294
I285
sg9
I0
sg271
I262
sg473
I464
sg515
I506
sg40
I31
sg314
I305
sg365
I356
sg353
I344
sg497
I488
ssS'separator'
p647
S'='
sS'sparse'
p648
I01
sb.