ccopy_reg
_reconstructor
p1
(csklearn.feature_extraction.dict_vectorizer
DictVectorizer
p2
c__builtin__
object
p3
NtRp4
(dp5
S'vocabulary_'
p6
(dp7
S'w+2=text'
p8
I34
sS'w+2=Bible'
p9
I27
sS'xcomp=promote'
p10
I53
sS'w-2=also'
p11
I44
sS'mark=as'
p12
I12
sS'aux=to'
p13
I3
sS'w-2=you'
p14
I52
sS'w+2=learner'
p15
I29
sS'w+2=the'
p16
I35
sS'w-2=will'
p17
I51
sS'dobj=pledge'
p18
I9
sS'w+2=pledge'
p19
I33
sS'dobj=part'
p20
I8
sS'auxpass=be'
p21
I5
sS'aux=can'
p22
I2
sS'dobj=Shahada'
p23
I7
sS"w-1='s"
p24
I36
sS'w+2=national'
p25
I31
sS'w-2=the'
p26
I50
sS'nsubj=child'
p27
I14
sS'w-2=that'
p28
I49
sS'advmod=long'
p29
I1
sS'w-2=say'
p30
I48
sS'w+2=part'
p31
I32
sS'advmod=as'
p32
I0
sS'dobj=text'
p33
I11
sS'dobj=reading'
p34
I10
sS'w+2=muslim'
p35
I30
sS'w-1=can'
p36
I38
sS'nsubj=person'
p37
I15
sS'w-1=child'
p38
I39
sS'aux=will'
p39
I4
sS'w-1=be'
p40
I37
sS'w+1=large'
p41
I22
sS'w+1=the'
p42
I25
sS'w-2=able'
p43
I43
sS'w+1=religious'
p44
I24
sS'w+1=by'
p45
I20
sS'nsubjpass=that'
p46
I16
sS'w-2=mantra'
p47
I47
sS'w-1=to'
p48
I42
sS'prep=by'
p49
I17
sS'w+1=a'
p50
I19
sS'w+1=of'
p51
I23
sS'dobj=Koran'
p52
I6
sS'w+2=Koran'
p53
I28
sS'w-1=include'
p54
I40
sS'w+1=for'
p55
I21
sS'w-1=ritual'
p56
I41
sS'w+2=20'
p57
I26
sS'w-2=leader'
p58
I46
sS'prep=for'
p59
I18
sS'nsubj=#PRP#'
p60
I13
sS'w-2=begin'
p61
I45
ssS'dtype'
p62
cnumpy
float64
p63
sS'feature_names_'
p64
(lp65
g32
ag29
ag22
ag13
ag39
ag21
ag52
ag23
ag20
ag18
ag34
ag33
ag12
ag60
ag27
ag37
ag46
ag49
ag59
ag50
ag45
ag55
ag41
ag51
ag44
ag42
ag57
ag9
ag53
ag15
ag35
ag25
ag31
ag19
ag8
ag16
ag24
ag40
ag36
ag38
ag54
ag56
ag48
ag43
ag11
ag61
ag58
ag47
ag30
ag28
ag26
ag17
ag14
ag10
asS'separator'
p66
S'='
sS'sparse'
p67
I01
sb.