ccopy_reg
_reconstructor
p1
(csklearn.feature_extraction.dict_vectorizer
DictVectorizer
p2
c__builtin__
object
p3
NtRp4
(dp5
S'sort'
p6
I01
sS'feature_names_'
p7
(lp8
S'advmod=frequently'
p9
aS'amod=industrial'
p10
aS'amod=natural'
p11
aS'cc=and'
p12
aS'cc=or'
p13
aS'ccomp=treatment'
p14
aS'conj=put'
p15
aS'conj=real'
p16
aS'cop=be'
p17
aS'dep=make'
p18
aS'mark=as'
p19
aS'nn=chemical'
p20
aS'nn=spray'
p21
aS'nn=vegetable'
p22
aS'nsubj=a'
p23
aS'nsubj=fabric'
p24
aS'nsubj=organic'
p25
aS'nsubj=red'
p26
aS'prep=for'
p27
aS'prep=from'
p28
aS'w+1=,'
p29
aS'w+1=.'
p30
aS'w+1=and'
p31
aS'w+1=could'
p32
aS'w+1=fabric'
p33
aS'w+1=for'
p34
aS'w+1=from'
p35
aS'w+1=make'
p36
aS'w+1=or'
p37
aS'w+1=that'
p38
aS'w+2=,'
p39
aS'w+2=a'
p40
aS'w+2=and'
p41
aS'w+2=be'
p42
aS'w+2=become'
p43
aS'w+2=food'
p44
aS'w+2=from'
p45
aS'w+2=put'
p46
aS'w+2=trim'
p47
aS'w-1=,'
p48
aS'w-1=a'
p49
aS'w-1=be'
p50
aS'w-1=chemical'
p51
aS'w-1=fabric'
p52
aS'w-1=industrial'
p53
aS'w-1=natural'
p54
aS'w-1=organic'
p55
aS'w-1=red'
p56
aS'w-1=scarlet'
p57
aS'w-1=spray'
p58
aS'w-1=vegetable'
p59
aS'w-2=as'
p60
aS'w-2=beautiful'
p61
aS'w-2=frequently'
p62
aS'w-2=hair'
p63
aS'w-2=in'
p64
aS'w-2=it'
p65
aS'w-2=of'
p66
aS'w-2=or'
p67
aS'w-2=she'
p68
aS'w-2=the'
p69
aS'w-2=this'
p70
aS'w-2=use'
p71
asS'dtype'
p72
cnumpy
float64
p73
sS'vocabulary_'
p74
(dp75
g54
I45
sg15
I6
sg45
I36
sg10
I1
sg19
I10
sg24
I15
sg18
I9
sg57
I48
sg25
I16
sg35
I26
sg44
I35
sg31
I22
sg68
I59
sg46
I37
sg13
I4
sg51
I42
sg26
I17
sg59
I50
sg11
I2
sg29
I20
sg30
I21
sg50
I41
sg66
I57
sg47
I38
sg39
I30
sg71
I62
sg43
I34
sg55
I46
sg48
I39
sg61
I52
sg69
I60
sg12
I3
sg36
I27
sg52
I43
sg9
I0
sg22
I13
sg67
I58
sg64
I55
sg14
I5
sg60
I51
sg49
I40
sg65
I56
sg42
I33
sg53
I44
sg62
I53
sg23
I14
sg17
I8
sg20
I11
sg41
I32
sg28
I19
sg21
I12
sg38
I29
sg70
I61
sg56
I47
sg33
I24
sg34
I25
sg58
I49
sg27
I18
sg37
I28
sg16
I7
sg63
I54
sg32
I23
sg40
I31
ssS'separator'
p76
S'='
sS'sparse'
p77
I01
sb.