ccopy_reg
_reconstructor
p1
(csklearn.feature_extraction.dict_vectorizer
DictVectorizer
p2
c__builtin__
object
p3
NtRp4
(dp5
S'sort'
p6
I01
sS'feature_names_'
p7
(lp8
S'acomp=south'
p9
aS'advcl=ask'
p10
aS'advcl=catalogue'
p11
aS'advcl=collect'
p12
aS'advcl=come'
p13
aS'advcl=detect'
p14
aS'advcl=digging'
p15
aS'advcl=install'
p16
aS'advcl=look'
p17
aS'advcl=move'
p18
aS'advcl=since'
p19
aS'advcl=stay'
p20
aS'advcl=test'
p21
aS'advcl=young'
p22
aS'advmod=#PRP#'
p23
aS'advmod=actually'
p24
aS'advmod=again'
p25
aS'advmod=ago'
p26
aS'advmod=all'
p27
aS'advmod=also'
p28
aS'advmod=away'
p29
aS'advmod=ever'
p30
aS'advmod=far'
p31
aS'advmod=first'
p32
aS'advmod=here'
p33
aS'advmod=how'
p34
aS'advmod=however'
p35
aS'advmod=independently'
p36
aS'advmod=just'
p37
aS'advmod=later'
p38
aS'advmod=newly'
p39
aS'advmod=now'
p40
aS'advmod=on'
p41
aS'advmod=once'
p42
aS'advmod=only'
p43
aS'advmod=possibly'
p44
aS'advmod=quickly'
p45
aS'advmod=recently'
p46
aS'advmod=soon'
p47
aS'advmod=that'
p48
aS'advmod=then'
p49
aS'advmod=there'
p50
aS'advmod=well'
p51
aS'advmod=when'
p52
aS'advmod=where'
p53
aS'advmod=yet'
p54
aS'aux=be'
p55
aS'aux=can'
p56
aS'aux=could'
p57
aS'aux=have'
p58
aS'aux=to'
p59
aS'aux=will'
p60
aS'auxpass=be'
p61
aS'cc=and'
p62
aS'cc=but'
p63
aS'cc=or'
p64
aS'cc=than'
p65
aS'ccomp=able'
p66
aS'ccomp=base'
p67
aS'ccomp=be'
p68
aS'ccomp=call'
p69
aS'ccomp=carry'
p70
aS'ccomp=change'
p71
aS'ccomp=core'
p72
aS'ccomp=diabetic'
p73
aS'ccomp=do'
p74
aS'ccomp=fall'
p75
aS'ccomp=happen'
p76
aS'ccomp=happy'
p77
aS'ccomp=have'
p78
aS'ccomp=higher'
p79
aS'ccomp=identify'
p80
aS'ccomp=improve'
p81
aS'ccomp=infect'
p82
aS'ccomp=keep'
p83
aS'ccomp=know'
p84
aS'ccomp=lift'
p85
aS'ccomp=nothing'
p86
aS'ccomp=omit'
p87
aS'ccomp=part'
p88
aS'ccomp=responsible'
p89
aS'ccomp=return'
p90
aS'ccomp=say'
p91
aS'ccomp=search'
p92
aS'ccomp=store'
p93
aS'ccomp=survive'
p94
aS'ccomp=take'
p95
aS'ccomp=true'
p96
aS'ccomp=unify'
p97
aS'ccomp=victim'
p98
aS'complm=that'
p99
aS'conj=admit'
p100
aS'conj=capture'
p101
aS'conj=develop'
p102
aS'conj=find'
p103
aS'conj=fly'
p104
aS'conj=let'
p105
aS'conj=on'
p106
aS'conj=persist'
p107
aS'conj=recognize'
p108
aS'conj=recommend'
p109
aS'conj=rediscover'
p110
aS'conj=seize'
p111
aS'conj=spring'
p112
aS'dep=after'
p113
aS'dep=as'
p114
aS'dep=ed'
p115
aS'dep=live'
p116
aS'dep=love'
p117
aS'dep=paint'
p118
aS'dep=since'
p119
aS'dep=supernova'
p120
aS'dep=that'
p121
aS'dep=until'
p122
aS'dep=warn'
p123
aS'dep=world'
p124
aS'det=the'
p125
aS'dobj=#PRP#'
p126
aS'dobj=Beatles'
p127
aS'dobj=Grail'
p128
aS'dobj=adult'
p129
aS'dobj=array'
p130
aS'dobj=artifact'
p131
aS'dobj=artist'
p132
aS'dobj=body'
p133
aS'dobj=bone'
p134
aS'dobj=cache'
p135
aS'dobj=camp'
p136
aS'dobj=character'
p137
aS'dobj=coast'
p138
aS'dobj=combination'
p139
aS'dobj=deposit'
p140
aS'dobj=diagram'
p141
aS'dobj=difference'
p142
aS'dobj=effect'
p143
aS'dobj=evidence'
p144
aS'dobj=forest'
p145
aS'dobj=gate'
p146
aS'dobj=group'
p147
aS'dobj=heel'
p148
aS'dobj=hideout'
p149
aS'dobj=hippo'
p150
aS'dobj=lapse'
p151
aS'dobj=location'
p152
aS'dobj=lot'
p153
aS'dobj=lump'
p154
aS'dobj=manual'
p155
aS'dobj=material'
p156
aS'dobj=mix'
p157
aS'dobj=molecule'
p158
aS'dobj=music'
p159
aS'dobj=nursery'
p160
aS'dobj=oil'
p161
aS'dobj=origin'
p162
aS'dobj=other'
p163
aS'dobj=population'
p164
aS'dobj=program'
p165
aS'dobj=protein'
p166
aS'dobj=pub'
p167
aS'dobj=remains'
p168
aS'dobj=route'
p169
aS'dobj=shipment'
p170
aS'dobj=species'
p171
aS'dobj=star'
p172
aS'dobj=supply'
p173
aS'dobj=talent'
p174
aS'dobj=thing'
p175
aS'dobj=tomb'
p176
aS'dobj=ton'
p177
aS'dobj=value'
p178
aS'dobj=vehicle'
p179
aS'dobj=vein'
p180
aS'dobj=vigango'
p181
aS'dobj=virus'
p182
aS'dobj=way'
p183
aS'dobj=weapon'
p184
aS'dobj=what'
p185
aS'dobj=which'
p186
aS'dobj=who'
p187
aS'dobj=x'
p188
aS'mark=after'
p189
aS'mark=although'
p190
aS'mark=as'
p191
aS'mark=because'
p192
aS'mark=before'
p193
aS'mark=if'
p194
aS'mark=since'
p195
aS'mark=so'
p196
aS'mark=until'
p197
aS'neg=not'
p198
aS'nsubj=#NUMBER#'
p199
aS'nsubj=#PRP#'
p200
aS'nsubj=Aggeler'
p201
aS'nsubj=Barker'
p202
aS'nsubj=Corben'
p203
aS'nsubj=Corporation'
p204
aS'nsubj=Cyrus'
p205
aS'nsubj=Davis'
p206
aS'nsubj=Goodwin'
p207
aS'nsubj=Got'
p208
aS'nsubj=Kuba'
p209
aS'nsubj=Linguini'
p210
aS'nsubj=Nielsen'
p211
aS'nsubj=Portuguese'
p212
aS'nsubj=Roberts'
p213
aS'nsubj=Shieffelin'
p214
aS'nsubj=Snow'
p215
aS'nsubj=U.S.'
p216
aS'nsubj=Wellman'
p217
aS'nsubj=and'
p218
aS'nsubj=astronomer'
p219
aS'nsubj=audit'
p220
aS'nsubj=authority'
p221
aS'nsubj=doctor'
p222
aS'nsubj=excavator'
p223
aS'nsubj=force'
p224
aS'nsubj=generation'
p225
aS'nsubj=hijacker'
p226
aS'nsubj=investigator'
p227
aS'nsubj=man'
p228
aS'nsubj=member'
p229
aS'nsubj=militant'
p230
aS'nsubj=officer'
p231
aS'nsubj=official'
p232
aS'nsubj=oil'
p233
aS'nsubj=parliament'
p234
aS'nsubj=people'
p235
aS'nsubj=police'
p236
aS'nsubj=researcher'
p237
aS'nsubj=scientist'
p238
aS'nsubj=show'
p239
aS'nsubj=that'
p240
aS'nsubj=troops'
p241
aS'nsubj=visitor'
p242
aS'nsubj=week'
p243
aS'nsubj=who'
p244
aS'nsubj=worker'
p245
aS'nsubjpass=#NUMBER#'
p246
aS'nsubjpass=#PRP#'
p247
aS'nsubjpass=Nigeria'
p248
aS'nsubjpass=Ocean'
p249
aS'nsubjpass=amount'
p250
aS'nsubjpass=artifact'
p251
aS'nsubjpass=body'
p252
aS'nsubjpass=camp'
p253
aS'nsubjpass=card'
p254
aS'nsubjpass=case'
p255
aS'nsubjpass=cure'
p256
aS'nsubjpass=deception'
p257
aS'nsubjpass=deposit'
p258
aS'nsubjpass=disease'
p259
aS'nsubjpass=document'
p260
aS'nsubjpass=drug'
p261
aS'nsubjpass=evidence'
p262
aS'nsubjpass=fossil'
p263
aS'nsubjpass=gas'
p264
aS'nsubjpass=gold'
p265
aS'nsubjpass=grave'
p266
aS'nsubjpass=methane'
p267
aS'nsubjpass=oil'
p268
aS'nsubjpass=outbreak'
p269
aS'nsubjpass=quantity'
p270
aS'nsubjpass=remains'
p271
aS'nsubjpass=reserve'
p272
aS'nsubjpass=site'
p273
aS'nsubjpass=statue'
p274
aS'nsubjpass=stone'
p275
aS'nsubjpass=that'
p276
aS'nsubjpass=tie'
p277
aS'nsubjpass=tomb'
p278
aS'nsubjpass=tragedy'
p279
aS'nsubjpass=which'
p280
aS'nsubjpass=who'
p281
aS'nsubjpass=xdr-tb'
p282
aS'num=#NUMBER#'
p283
aS'parataxis=collect'
p284
aS'parataxis=protect'
p285
aS'parataxis=say'
p286
aS'partmod=bury'
p287
aS'partmod=heighten'
p288
aS'partmod=match'
p289
aS'prep=after'
p290
aS'prep=around'
p291
aS'prep=as'
p292
aS'prep=at'
p293
aS'prep=beneath'
p294
aS'prep=by'
p295
aS'prep=during'
p296
aS'prep=follow'
p297
aS'prep=for'
p298
aS'prep=from'
p299
aS'prep=in'
p300
aS'prep=near'
p301
aS'prep=of'
p302
aS'prep=off'
p303
aS'prep=on'
p304
aS'prep=through'
p305
aS'prep=to'
p306
aS'prep=with'
p307
aS'prt=off'
p308
aS'tmod=#DATE#'
p309
aS'tmod=June'
p310
aS'tmod=day'
p311
aS'tmod=month'
p312
aS'tmod=today'
p313
aS'tmod=year'
p314
aS'tmod=zamajobe'
p315
aS"w+1=''"
p316
aS'w+1=,'
p317
aS'w+1=-lrb-'
p318
aS'w+1=.'
p319
aS'w+1=465'
p320
aS'w+1=King'
p321
aS'w+1=Spider-Man'
p322
aS'w+1=Thursday'
p323
aS'w+1=a'
p324
aS'w+1=act'
p325
aS'w+1=after'
p326
aS'w+1=again'
p327
aS'w+1=al-qaida'
p328
aS'w+1=almost'
p329
aS'w+1=and'
p330
aS'w+1=another'
p331
aS'w+1=artifact'
p332
aS'w+1=as'
p333
aS'w+1=at'
p334
aS'w+1=be'
p335
aS'w+1=belong'
p336
aS'w+1=beneath'
p337
aS'w+1=bluegrass'
p338
aS'w+1=by'
p339
aS'w+1=during'
p340
aS'w+1=early'
p341
aS'w+1=evidence'
p342
aS'w+1=exactly'
p343
aS'w+1=five'
p344
aS'w+1=follow'
p345
aS'w+1=for'
p346
aS'w+1=from'
p347
aS'w+1=have'
p348
aS'w+1=he'
p349
aS'w+1=how'
p350
aS'w+1=in'
p351
aS'w+1=irish'
p352
aS'w+1=it'
p353
aS'w+1=its'
p354
aS'w+1=just'
p355
aS'w+1=large'
p356
aS'w+1=last'
p357
aS'w+1=later'
p358
aS'w+1=many'
p359
aS'w+1=more'
p360
aS'w+1=near'
p361
aS'w+1=nearly'
p362
aS'w+1=new'
p363
aS'w+1=off'
p364
aS'w+1=offshore'
p365
aS'w+1=oil'
p366
aS'w+1=on'
p367
aS'w+1=one'
p368
aS'w+1=or'
p369
aS'w+1=other'
p370
aS'w+1=pharmaceutical'
p371
aS'w+1=pretty'
p372
aS'w+1=recently'
p373
aS'w+1=rich'
p374
aS'w+1=several'
p375
aS'w+1=she'
p376
aS'w+1=similar'
p377
aS'w+1=slight'
p378
aS'w+1=small'
p379
aS'w+1=so'
p380
aS'w+1=some'
p381
aS'w+1=south'
p382
aS'w+1=terrorist'
p383
aS'w+1=that'
p384
aS'w+1=the'
p385
aS'w+1=there'
p386
aS'w+1=they'
p387
aS'w+1=thing'
p388
aS'w+1=this'
p389
aS'w+1=through'
p390
aS'w+1=to'
p391
aS'w+1=tomb'
p392
aS'w+1=weapon'
p393
aS'w+1=what'
p394
aS'w+1=when'
p395
aS'w+1=while'
p396
aS'w+1=yet'
p397
aS"w+2=''"
p398
aS'w+2=,'
p399
aS'w+2=.'
p400
aS'w+2=1979'
p401
aS'w+2=1991'
p402
aS'w+2=2005'
p403
aS'w+2=30'
p404
aS'w+2=Achilles'
p405
aS'w+2=Beatles'
p406
aS'w+2=Cambodia'
p407
aS'w+2=Ethiopia'
p408
aS'w+2=Friday'
p409
aS'w+2=Holy'
p410
aS'w+2=Hubble'
p411
aS'w+2=Indonesia'
p412
aS'w+2=Judaism'
p413
aS'w+2=Kenya'
p414
aS'w+2=Kompong'
p415
aS'w+2=Lake'
p416
aS'w+2=Montana'
p417
aS'w+2=Muqdadiyah'
p418
aS'w+2=Phnom'
p419
aS'w+2=Sutter'
p420
aS'w+2=Tut'
p421
aS'w+2=a'
p422
aS'w+2=adult'
p423
aS'w+2=african'
p424
aS'w+2=allow'
p425
aS'w+2=amazing'
p426
aS'w+2=and'
p427
aS'w+2=archive'
p428
aS'w+2=artist'
p429
aS'w+2=be'
p430
aS'w+2=body'
p431
aS'w+2=bomb-rigged'
p432
aS'w+2=bone'
p433
aS'w+2=british'
p434
aS'w+2=but'
p435
aS'w+2=by'
p436
aS'w+2=cache'
p437
aS'w+2=cancerous'
p438
aS'w+2=cholera'
p439
aS'w+2=clandestine'
p440
aS'w+2=collect'
p441
aS'w+2=combination'
p442
aS'w+2=commercial'
p443
aS'w+2=could'
p444
aS'w+2=cut'
p445
aS'w+2=day'
p446
aS'w+2=dead'
p447
aS'w+2=deprive'
p448
aS'w+2=develop'
p449
aS'w+2=diagram'
p450
aS'w+2=difference'
p451
aS'w+2=ed'
p452
aS'w+2=explosive'
p453
aS'w+2=far'
p454
aS'w+2=find'
p455
aS'w+2=fish'
p456
aS'w+2=five'
p457
aS'w+2=for'
p458
aS'w+2=four'
p459
aS'w+2=glowing'
p460
aS'w+2=group'
p461
aS'w+2=happen'
p462
aS'w+2=have'
p463
aS'w+2=he'
p464
aS'w+2=hideout'
p465
aS'w+2=huge'
p466
aS'w+2=in'
p467
aS'w+2=it'
p468
aS'w+2=its'
p469
aS'w+2=jeweler'
p470
aS'w+2=journalist'
p471
aS'w+2=lapse'
p472
aS'w+2=large'
p473
aS'w+2=last'
p474
aS'w+2=legacy'
p475
aS'w+2=live'
p476
aS'w+2=location'
p477
aS'w+2=lot'
p478
aS'w+2=major'
p479
aS'w+2=manual'
p480
aS'w+2=may'
p481
aS'w+2=molecule'
p482
aS'w+2=month'
p483
aS'w+2=most'
p484
aS'w+2=much'
p485
aS'w+2=mummified'
p486
aS'w+2=music'
p487
aS'w+2=my'
p488
aS'w+2=myself'
p489
aS'w+2=near'
p490
aS'w+2=new'
p491
aS'w+2=nine'
p492
aS'w+2=offshore'
p493
aS'w+2=on'
p494
aS'w+2=origin'
p495
aS'w+2=overgrown'
p496
aS'w+2=patient'
p497
aS'w+2=physical'
p498
aS'w+2=population'
p499
aS'w+2=program'
p500
aS'w+2=pub'
p501
aS'w+2=quickly'
p502
aS'w+2=real'
p503
aS'w+2=red'
p504
aS'w+2=remains'
p505
aS'w+2=reserve'
p506
aS'w+2=respect'
p507
aS'w+2=sack'
p508
aS'w+2=sea'
p509
aS'w+2=send'
p510
aS'w+2=species'
p511
aS'w+2=supernova'
p512
aS'w+2=supply'
p513
aS'w+2=surprising'
p514
aS'w+2=than'
p515
aS'w+2=that'
p516
aS'w+2=the'
p517
aS'w+2=they'
p518
aS'w+2=thing'
p519
aS'w+2=this'
p520
aS'w+2=those'
p521
aS'w+2=through'
p522
aS'w+2=to'
p523
aS'w+2=training'
p524
aS'w+2=unique'
p525
aS'w+2=vein'
p526
aS'w+2=victim'
p527
aS'w+2=water'
p528
aS'w+2=way'
p529
aS'w+2=we'
p530
aS'w+2=week'
p531
aS'w+2=what'
p532
aS'w+2=which'
p533
aS'w+2=who'
p534
aS'w+2=with'
p535
aS"w-1=''"
p536
aS'w-1=,'
p537
aS'w-1=.'
p538
aS'w-1=Corben'
p539
aS'w-1=Cyrus'
p540
aS'w-1=Davis'
p541
aS'w-1=I'
p542
aS'w-1=Kuba'
p543
aS'w-1=Linguini'
p544
aS'w-1=Park'
p545
aS'w-1=Portuguese'
p546
aS'w-1=Roberts'
p547
aS'w-1=School'
p548
aS'w-1=Shieffelin'
p549
aS'w-1=Snow'
p550
aS'w-1=Wellman'
p551
aS'w-1=actually'
p552
aS'w-1=all'
p553
aS'w-1=also'
p554
aS'w-1=and'
p555
aS'w-1=astronomer'
p556
aS'w-1=audit'
p557
aS'w-1=be'
p558
aS'w-1=can'
p559
aS'w-1=could'
p560
aS'w-1=doctor'
p561
aS'w-1=ever'
p562
aS'w-1=excavator'
p563
aS'w-1=first'
p564
aS'w-1=for'
p565
aS'w-1=force'
p566
aS'w-1=gas'
p567
aS'w-1=grave'
p568
aS'w-1=have'
p569
aS'w-1=he'
p570
aS'w-1=here'
p571
aS'w-1=hijacker'
p572
aS'w-1=hobbit'
p573
aS'w-1=if'
p574
aS'w-1=independently'
p575
aS'w-1=investigator'
p576
aS'w-1=just'
p577
aS'w-1=later'
p578
aS'w-1=member'
p579
aS'w-1=militant'
p580
aS'w-1=newly'
p581
aS'w-1=not'
p582
aS'w-1=of'
p583
aS'w-1=officer'
p584
aS'w-1=official'
p585
aS'w-1=only'
p586
aS'w-1=police'
p587
aS'w-1=possibly'
p588
aS'w-1=recently'
p589
aS'w-1=reel'
p590
aS'w-1=researcher'
p591
aS'w-1=reserve'
p592
aS'w-1=scientist'
p593
aS'w-1=she'
p594
aS'w-1=since'
p595
aS'w-1=soldier'
p596
aS'w-1=that'
p597
aS'w-1=they'
p598
aS'w-1=to'
p599
aS'w-1=troops'
p600
aS'w-1=we'
p601
aS'w-1=weapon'
p602
aS'w-1=who'
p603
aS'w-1=will'
p604
aS'w-1=worker'
p605
aS'w-1=you'
p606
aS"w-2=''"
p607
aS'w-2=,'
p608
aS'w-2=-rrb-'
p609
aS'w-2=.'
p610
aS'w-2=2001'
p611
aS'w-2=2005'
p612
aS'w-2=25'
p613
aS'w-2=Ancestor'
p614
aS'w-2=Clive'
p615
aS'w-2=Corporation'
p616
aS'w-2=D.C.'
p617
aS'w-2=Ed'
p618
aS'w-2=Goodwin'
p619
aS'w-2=Israel'
p620
aS'w-2=Jan'
p621
aS'w-2=Kong'
p622
aS'w-2=Medical'
p623
aS'w-2=Mexico'
p624
aS'w-2=National'
p625
aS'w-2=News'
p626
aS'w-2=Nigeria'
p627
aS'w-2=Ocean'
p628
aS'w-2=Phillip'
p629
aS'w-2=Ron'
p630
aS'w-2=Station'
p631
aS'w-2=Tiffany'
p632
aS'w-2=Tony'
p633
aS'w-2=University'
p634
aS'w-2=a'
p635
aS'w-2=able'
p636
aS'w-2=after'
p637
aS'w-2=aid'
p638
aS'w-2=also'
p639
aS'w-2=and'
p640
aS'w-2=anomaly'
p641
aS'w-2=authority'
p642
aS'w-2=band'
p643
aS'w-2=be'
p644
aS'w-2=before'
p645
aS'w-2=body'
p646
aS'w-2=card'
p647
aS'w-2=closet'
p648
aS'w-2=committee'
p649
aS'w-2=composer'
p650
aS'w-2=custom'
p651
aS'w-2=deception'
p652
aS'w-2=deposit'
p653
aS'w-2=diary'
p654
aS'w-2=difference'
p655
aS'w-2=disappoint'
p656
aS'w-2=disease'
p657
aS'w-2=do'
p658
aS'w-2=drug'
p659
aS'w-2=exploit'
p660
aS'w-2=fan'
p661
aS'w-2=firm'
p662
aS'w-2=first'
p663
aS'w-2=fossil'
p664
aS'w-2=gas'
p665
aS'w-2=gold'
p666
aS'w-2=gorilla'
p667
aS'w-2=grave'
p668
aS'w-2=have'
p669
aS'w-2=he'
p670
aS'w-2=hope'
p671
aS'w-2=how'
p672
aS'w-2=indonesian'
p673
aS'w-2=iraqi'
p674
aS'w-2=it'
p675
aS'w-2=just'
p676
aS'w-2=kickback'
p677
aS'w-2=lab'
p678
aS'w-2=largest'
p679
aS'w-2=league'
p680
aS'w-2=learn'
p681
aS'w-2=man'
p682
aS'w-2=mass'
p683
aS'w-2=may'
p684
aS'w-2=methane'
p685
aS'w-2=natural'
p686
aS'w-2=need'
p687
aS'w-2=negotiation'
p688
aS'w-2=now'
p689
aS'w-2=nugget'
p690
aS'w-2=of'
p691
aS'w-2=off'
p692
aS'w-2=oil'
p693
aS'w-2=once'
p694
aS'w-2=outbreak'
p695
aS'w-2=palestinian'
p696
aS'w-2=people'
p697
aS'w-2=plaque'
p698
aS'w-2=police'
p699
aS'w-2=prize'
p700
aS'w-2=remains'
p701
aS'w-2=researcher'
p702
aS'w-2=reserve'
p703
aS'w-2=say'
p704
aS'w-2=scientist'
p705
aS'w-2=shape'
p706
aS'w-2=show'
p707
aS'w-2=since'
p708
aS'w-2=so-called'
p709
aS'w-2=super-lab'
p710
aS'w-2=team'
p711
aS'w-2=that'
p712
aS'w-2=the'
p713
aS'w-2=then'
p714
aS'w-2=they'
p715
aS'w-2=tie'
p716
aS'w-2=to'
p717
aS'w-2=tomb'
p718
aS'w-2=troops'
p719
aS'w-2=until'
p720
aS'w-2=visitor'
p721
aS'w-2=we'
p722
aS'w-2=what'
p723
aS'w-2=when'
p724
aS'w-2=which'
p725
aS'w-2=who'
p726
aS'w-2=will'
p727
aS'w-2=without'
p728
aS'w-2=woman'
p729
aS'w-2=xdr-tb'
p730
aS'w-2=you'
p731
aS'xcomp=act'
p732
aS'xcomp=allow'
p733
aS'xcomp=combat'
p734
aS'xcomp=make'
p735
aS'xcomp=province'
p736
aS'xcomp=recycle'
p737
aS'xcomp=stop'
p738
asS'dtype'
p739
cnumpy
float64
p740
sS'vocabulary_'
p741
(dp742
g49
I40
sg415
I406
sg561
I552
sg266
I257
sg69
I60
sg170
I161
sg722
I713
sg79
I70
sg697
I688
sg202
I193
sg362
I353
sg106
I97
sg488
I479
sg673
I664
sg242
I233
sg588
I579
sg435
I426
sg227
I218
sg527
I518
sg734
I725
sg699
I690
sg676
I667
sg714
I705
sg342
I333
sg294
I285
sg715
I706
sg708
I699
sg336
I327
sg90
I81
sg295
I286
sg76
I67
sg434
I425
sg222
I213
sg147
I138
sg219
I210
sg239
I230
sg466
I457
sg93
I84
sg84
I75
sg142
I133
sg226
I217
sg168
I159
sg460
I451
sg297
I288
sg378
I369
sg440
I431
sg253
I244
sg346
I337
sg37
I28
sg314
I305
sg373
I364
sg604
I595
sg647
I638
sg249
I240
sg318
I309
sg163
I154
sg21
I12
sg514
I505
sg350
I341
sg558
I549
sg158
I149
sg600
I591
sg313
I304
sg713
I704
sg271
I262
sg613
I604
sg376
I367
sg68
I59
sg645
I636
sg13
I4
sg581
I572
sg139
I130
sg355
I346
sg18
I9
sg88
I79
sg192
I183
sg686
I677
sg726
I717
sg462
I453
sg611
I602
sg638
I629
sg156
I147
sg612
I603
sg728
I719
sg118
I109
sg523
I514
sg388
I379
sg474
I465
sg628
I619
sg70
I61
sg497
I488
sg563
I554
sg369
I360
sg103
I94
sg569
I560
sg91
I82
sg542
I533
sg543
I534
sg454
I445
sg683
I674
sg467
I458
sg101
I92
sg532
I523
sg468
I459
sg671
I662
sg352
I343
sg575
I566
sg134
I125
sg534
I525
sg337
I328
sg381
I372
sg78
I69
sg560
I551
sg42
I33
sg554
I545
sg56
I47
sg99
I90
sg291
I282
sg262
I253
sg238
I229
sg196
I187
sg119
I110
sg493
I484
sg331
I322
sg606
I597
sg344
I335
sg51
I42
sg586
I577
sg547
I538
sg52
I43
sg712
I703
sg385
I376
sg43
I34
sg430
I421
sg387
I378
sg421
I412
sg107
I98
sg423
I414
sg45
I36
sg96
I87
sg247
I238
sg300
I291
sg442
I433
sg499
I490
sg11
I2
sg485
I476
sg175
I166
sg54
I45
sg212
I203
sg306
I297
sg165
I156
sg29
I20
sg279
I270
sg208
I199
sg26
I17
sg472
I463
sg330
I321
sg720
I711
sg539
I530
sg177
I168
sg80
I71
sg480
I471
sg358
I349
sg458
I449
sg370
I361
sg667
I658
sg240
I231
sg41
I32
sg197
I188
sg204
I195
sg629
I620
sg512
I503
sg33
I24
sg166
I157
sg329
I320
sg574
I565
sg186
I177
sg511
I502
sg530
I521
sg269
I260
sg224
I215
sg288
I279
sg209
I200
sg623
I614
sg194
I185
sg424
I415
sg412
I403
sg321
I312
sg150
I141
sg53
I44
sg452
I443
sg446
I437
sg478
I469
sg364
I355
sg110
I101
sg487
I478
sg738
I729
sg375
I366
sg348
I339
sg125
I116
sg367
I358
sg404
I395
sg528
I519
sg431
I422
sg173
I164
sg522
I513
sg223
I214
sg733
I724
sg509
I500
sg405
I396
sg605
I596
sg622
I613
sg691
I682
sg229
I220
sg151
I142
sg599
I590
sg206
I197
sg564
I555
sg354
I345
sg261
I252
sg384
I375
sg126
I117
sg102
I93
sg658
I649
sg710
I701
sg221
I212
sg25
I16
sg274
I265
sg407
I398
sg698
I689
sg664
I655
sg50
I41
sg483
I474
sg425
I416
sg243
I234
sg35
I26
sg502
I493
sg333
I324
sg124
I115
sg552
I543
sg685
I676
sg557
I548
sg349
I340
sg651
I642
sg44
I35
sg549
I540
sg372
I363
sg268
I259
sg276
I267
sg149
I140
sg105
I96
sg432
I423
sg602
I593
sg559
I550
sg36
I27
sg327
I318
sg696
I687
sg636
I627
sg390
I381
sg471
I462
sg115
I106
sg633
I624
sg325
I316
sg210
I201
sg465
I456
sg426
I417
sg393
I384
sg627
I618
sg16
I7
sg172
I163
sg298
I289
sg477
I468
sg121
I112
sg548
I539
sg447
I438
sg129
I120
sg167
I158
sg207
I198
sg148
I139
sg566
I557
sg220
I211
sg444
I435
sg258
I249
sg286
I277
sg571
I562
sg576
I567
sg282
I273
sg400
I391
sg476
I467
sg653
I644
sg641
I632
sg61
I52
sg643
I634
sg550
I541
sg721
I712
sg155
I146
sg81
I72
sg122
I113
sg67
I58
sg736
I727
sg419
I410
sg495
I486
sg176
I167
sg234
I225
sg615
I606
sg626
I617
sg162
I153
sg417
I408
sg659
I650
sg386
I377
sg567
I558
sg86
I77
sg437
I428
sg254
I245
sg199
I190
sg371
I362
sg429
I420
sg237
I228
sg519
I510
sg361
I352
sg15
I6
sg535
I526
sg332
I323
sg646
I637
sg609
I600
sg536
I527
sg74
I65
sg108
I99
sg153
I144
sg246
I237
sg303
I294
sg402
I393
sg179
I170
sg133
I124
sg737
I728
sg692
I683
sg568
I559
sg10
I1
sg272
I263
sg607
I598
sg596
I587
sg184
I175
sg637
I628
sg241
I232
sg494
I485
sg391
I382
sg693
I684
sg464
I455
sg114
I105
sg380
I371
sg235
I226
sg181
I172
sg214
I205
sg71
I62
sg205
I196
sg616
I607
sg650
I641
sg32
I23
sg275
I266
sg31
I22
sg546
I537
sg457
I448
sg525
I516
sg594
I585
sg397
I388
sg663
I654
sg215
I206
sg481
I472
sg112
I103
sg97
I88
sg475
I466
sg490
I481
sg111
I102
sg144
I135
sg489
I480
sg573
I564
sg521
I512
sg702
I693
sg513
I504
sg182
I173
sg311
I302
sg510
I501
sg520
I511
sg732
I723
sg679
I670
sg621
I612
sg655
I646
sg178
I169
sg580
I571
sg590
I581
sg725
I716
sg585
I576
sg248
I239
sg20
I11
sg668
I659
sg100
I91
sg660
I651
sg94
I85
sg154
I145
sg30
I21
sg401
I392
sg128
I119
sg75
I66
sg315
I306
sg201
I192
sg334
I325
sg439
I430
sg508
I499
sg443
I434
sg639
I630
sg60
I51
sg160
I151
sg284
I275
sg482
I473
sg491
I482
sg9
I0
sg365
I356
sg648
I639
sg413
I404
sg164
I155
sg263
I254
sg307
I298
sg688
I679
sg180
I171
sg109
I100
sg719
I710
sg12
I3
sg138
I129
sg469
I460
sg700
I691
sg169
I160
sg674
I665
sg681
I672
sg504
I495
sg589
I580
sg625
I616
sg120
I111
sg366
I357
sg130
I121
sg433
I424
sg328
I319
sg299
I290
sg540
I531
sg729
I720
sg624
I615
sg675
I666
sg695
I686
sg368
I359
sg631
I622
sg283
I274
sg22
I13
sg398
I389
sg185
I176
sg459
I450
sg28
I19
sg137
I128
sg255
I246
sg187
I178
sg190
I181
sg556
I547
sg231
I222
sg338
I329
sg265
I256
sg592
I583
sg343
I334
sg87
I78
sg665
I656
sg203
I194
sg39
I30
sg281
I272
sg406
I397
sg669
I660
sg526
I517
sg62
I53
sg441
I432
sg260
I251
sg310
I301
sg161
I152
sg339
I330
sg501
I492
sg577
I568
sg335
I326
sg410
I401
sg449
I440
sg507
I498
sg486
I477
sg724
I715
sg711
I702
sg232
I223
sg383
I374
sg351
I342
sg506
I497
sg353
I344
sg545
I536
sg230
I221
sg200
I191
sg461
I452
sg479
I470
sg662
I653
sg250
I241
sg316
I307
sg403
I394
sg63
I54
sg492
I483
sg157
I148
sg256
I247
sg92
I83
sg735
I726
sg450
I441
sg541
I532
sg57
I48
sg66
I57
sg14
I5
sg445
I436
sg244
I235
sg498
I489
sg529
I520
sg703
I694
sg82
I73
sg65
I56
sg193
I184
sg159
I150
sg652
I643
sg27
I18
sg690
I681
sg259
I250
sg448
I439
sg572
I563
sg533
I524
sg392
I383
sg642
I633
sg595
I586
sg644
I635
sg17
I8
sg302
I293
sg217
I208
sg304
I295
sg189
I180
sg127
I118
sg228
I219
sg634
I625
sg85
I76
sg73
I64
sg565
I556
sg661
I652
sg46
I37
sg451
I442
sg515
I506
sg496
I487
sg414
I405
sg379
I370
sg516
I507
sg218
I209
sg723
I714
sg603
I594
sg707
I698
sg309
I300
sg171
I162
sg399
I390
sg640
I631
sg356
I347
sg188
I179
sg98
I89
sg72
I63
sg678
I669
sg649
I640
sg583
I574
sg236
I227
sg322
I313
sg174
I165
sg717
I708
sg427
I418
sg19
I10
sg23
I14
sg666
I657
sg24
I15
sg584
I575
sg198
I189
sg503
I494
sg95
I86
sg389
I380
sg455
I446
sg396
I387
sg418
I409
sg64
I55
sg705
I696
sg416
I407
sg323
I314
sg360
I351
sg40
I31
sg657
I648
sg116
I107
sg632
I623
sg225
I216
sg146
I137
sg517
I508
sg293
I284
sg727
I718
sg292
I283
sg83
I74
sg608
I599
sg610
I601
sg77
I68
sg555
I546
sg273
I264
sg394
I385
sg58
I49
sg538
I529
sg654
I645
sg537
I528
sg689
I680
sg456
I447
sg320
I311
sg687
I678
sg289
I280
sg345
I336
sg277
I268
sg682
I673
sg47
I38
sg672
I663
sg305
I296
sg473
I464
sg684
I675
sg680
I671
sg340
I331
sg409
I400
sg635
I626
sg270
I261
sg598
I589
sg145
I136
sg620
I611
sg716
I707
sg233
I224
sg420
I411
sg280
I271
sg500
I491
sg670
I661
sg312
I303
sg143
I134
sg718
I709
sg618
I609
sg252
I243
sg656
I647
sg191
I182
sg730
I721
sg570
I561
sg104
I95
sg359
I350
sg377
I368
sg709
I700
sg347
I338
sg382
I373
sg701
I692
sg591
I582
sg257
I248
sg48
I39
sg213
I204
sg285
I276
sg518
I509
sg290
I281
sg593
I584
sg587
I578
sg551
I542
sg453
I444
sg264
I255
sg341
I332
sg463
I454
sg211
I202
sg505
I496
sg694
I685
sg630
I621
sg357
I348
sg152
I143
sg374
I365
sg195
I186
sg34
I25
sg562
I553
sg123
I114
sg704
I695
sg553
I544
sg267
I258
sg470
I461
sg579
I570
sg326
I317
sg395
I386
sg308
I299
sg251
I242
sg601
I592
sg59
I50
sg731
I722
sg544
I535
sg278
I269
sg706
I697
sg140
I131
sg89
I80
sg287
I278
sg531
I522
sg614
I605
sg363
I354
sg216
I207
sg245
I236
sg408
I399
sg524
I515
sg38
I29
sg317
I308
sg319
I310
sg436
I427
sg113
I104
sg484
I475
sg132
I123
sg438
I429
sg136
I127
sg301
I292
sg411
I402
sg296
I287
sg135
I126
sg677
I668
sg183
I174
sg117
I108
sg428
I419
sg324
I315
sg582
I573
sg578
I569
sg131
I122
sg619
I610
sg617
I608
sg597
I588
sg55
I46
sg422
I413
sg141
I132
ssS'separator'
p743
S'='
sS'sparse'
p744
I01
sb.