ccopy_reg
_reconstructor
p1
(csklearn.feature_extraction.dict_vectorizer
DictVectorizer
p2
c__builtin__
object
p3
NtRp4
(dp5
S'sort'
p6
I01
sS'feature_names_'
p7
(lp8
S'advcl=plan'
p9
aS'advmod=certainly'
p10
aS'advmod=even'
p11
aS'advmod=here'
p12
aS'advmod=south'
p13
aS'advmod=where'
p14
aS'aux=do'
p15
aS'aux=have'
p16
aS'aux=to'
p17
aS'aux=would'
p18
aS'cc=and'
p19
aS'cc=or'
p20
aS'ccomp=say'
p21
aS'conj=before'
p22
aS'conj=flow'
p23
aS'conj=run'
p24
aS'conj=see'
p25
aS'csubj=skateboard'
p26
aS'dep=reflect'
p27
aS'dobj=#NUMBER#'
p28
aS'dobj=Europe'
p29
aS'dobj=dancer'
p30
aS'mark=if'
p31
aS'neg=not'
p32
aS'nsubj=#PRP#'
p33
aS'nsubj=Cauvery'
p34
aS'nsubj=attack'
p35
aS'nsubj=boat'
p36
aS'nsubj=call'
p37
aS'nsubj=character'
p38
aS'nsubj=disease'
p39
aS'nsubj=flight'
p40
aS'nsubj=game'
p41
aS'nsubj=immigrant'
p42
aS'nsubj=music'
p43
aS'nsubj=product'
p44
aS'nsubj=that'
p45
aS'nsubj=tribe'
p46
aS'nsubj=which'
p47
aS'prep=from'
p48
aS'prep=in'
p49
aS'prep=include'
p50
aS'prep=on'
p51
aS'prep=with'
p52
aS'w+1=,'
p53
aS'w+1=.'
p54
aS'w+1=country'
p55
aS'w+1=from'
p56
aS'w+1=here'
p57
aS'w+1=in'
p58
aS'w+1=on'
p59
aS'w+1=one'
p60
aS'w+1=or'
p61
aS'w+1=with'
p62
aS'w+2=.'
p63
aS'w+2=Asia'
p64
aS'w+2=Bata'
p65
aS'w+2=California'
p66
aS'w+2=China'
p67
aS'w+2=Gaza'
p68
aS'w+2=Germany'
p69
aS'w+2=Johor'
p70
aS'w+2=Karnataka'
p71
aS'w+2=Sikkim'
p72
aS'w+2=Sudan'
p73
aS'w+2=Vietnam'
p74
aS'w+2=a'
p75
aS'w+2=across'
p76
aS'w+2=and'
p77
aS'w+2=animal'
p78
aS'w+2=dancer'
p79
aS'w+2=of'
p80
aS"w+2=shi'ite"
p81
aS'w+2=that'
p82
aS'w+2=the'
p83
aS'w+2=they'
p84
aS'w+2=through'
p85
aS'w+2=who'
p86
aS'w+2=will'
p87
aS'w-1=,'
p88
aS'w-1=Afghanistan'
p89
aS'w-1=Cauvery'
p90
aS'w-1=Uganda'
p91
aS'w-1=attack'
p92
aS'w-1=boat'
p93
aS'w-1=call'
p94
aS'w-1=certainly'
p95
aS'w-1=character'
p96
aS'w-1=describe'
p97
aS'w-1=drug'
p98
aS'w-1=even'
p99
aS'w-1=flight'
p100
aS'w-1=have'
p101
aS'w-1=heparin'
p102
aS'w-1=history'
p103
aS'w-1=immigrant'
p104
aS'w-1=it'
p105
aS'w-1=not'
p106
aS'w-1=product'
p107
aS'w-1=skateboard'
p108
aS'w-1=stream'
p109
aS'w-1=that'
p110
aS'w-1=the'
p111
aS'w-1=they'
p112
aS'w-1=to'
p113
aS'w-1=tribe'
p114
aS'w-1=which'
p115
aS'w-2=,'
p116
aS'w-2=.'
p117
aS'w-2=9\\/11'
p118
aS'w-2=almost'
p119
aS'w-2=and'
p120
aS'w-2=appear'
p121
aS'w-2=believe'
p122
aS'w-2=counterfeit'
p123
aS'w-2=crisis'
p124
aS'w-2=cross-border'
p125
aS'w-2=do'
p126
aS'w-2=each'
p127
aS'w-2=eastern'
p128
aS'w-2=game'
p129
aS'w-2=in'
p130
aS'w-2=it'
p131
aS'w-2=music'
p132
aS'w-2=of'
p133
aS'w-2=process'
p134
aS'w-2=river'
p135
aS'w-2=strike'
p136
aS'w-2=that'
p137
aS'w-2=the'
p138
aS'w-2=throughout'
p139
aS'w-2=to'
p140
aS'w-2=where'
p141
aS'w-2=which'
p142
aS'xcomp=move'
p143
asS'dtype'
p144
cnumpy
float64
p145
sS'vocabulary_'
p146
(dp147
g47
I38
sg46
I37
sg118
I109
sg14
I5
sg13
I4
sg10
I1
sg22
I13
sg142
I133
sg122
I113
sg27
I18
sg82
I73
sg95
I86
sg85
I76
sg50
I41
sg98
I89
sg25
I16
sg102
I93
sg119
I110
sg70
I61
sg35
I26
sg133
I124
sg41
I32
sg42
I33
sg100
I91
sg113
I104
sg140
I131
sg77
I68
sg139
I130
sg120
I111
sg71
I62
sg132
I123
sg126
I117
sg44
I35
sg107
I98
sg103
I94
sg15
I6
sg11
I2
sg92
I83
sg65
I56
sg76
I67
sg125
I116
sg30
I21
sg69
I60
sg83
I74
sg116
I107
sg117
I108
sg81
I72
sg20
I11
sg68
I59
sg16
I7
sg88
I79
sg97
I88
sg138
I129
sg108
I99
sg130
I121
sg94
I85
sg141
I132
sg79
I70
sg91
I82
sg123
I114
sg64
I55
sg143
I134
sg38
I29
sg59
I50
sg96
I87
sg131
I122
sg60
I51
sg112
I103
sg61
I52
sg134
I125
sg26
I17
sg101
I92
sg21
I12
sg72
I63
sg24
I15
sg86
I77
sg29
I20
sg121
I112
sg56
I47
sg37
I28
sg43
I34
sg115
I106
sg114
I105
sg84
I75
sg87
I78
sg19
I10
sg39
I30
sg137
I128
sg62
I53
sg106
I97
sg23
I14
sg90
I81
sg57
I48
sg78
I69
sg135
I126
sg49
I40
sg40
I31
sg18
I9
sg58
I49
sg99
I90
sg129
I120
sg33
I24
sg48
I39
sg80
I71
sg127
I118
sg17
I8
sg36
I27
sg28
I19
sg34
I25
sg93
I84
sg55
I46
sg53
I44
sg54
I45
sg9
I0
sg104
I95
sg63
I54
sg32
I23
sg45
I36
sg105
I96
sg109
I100
sg124
I115
sg12
I3
sg128
I119
sg52
I43
sg136
I127
sg66
I57
sg73
I64
sg74
I65
sg111
I102
sg51
I42
sg110
I101
sg31
I22
sg89
I80
sg75
I66
sg67
I58
ssS'separator'
p148
S'='
sS'sparse'
p149
I01
sb.