ccopy_reg
_reconstructor
p1
(csklearn.feature_extraction.dict_vectorizer
DictVectorizer
p2
c__builtin__
object
p3
NtRp4
(dp5
S'sort'
p6
I01
sS'feature_names_'
p7
(lp8
S'advmod=always'
p9
aS'advmod=much'
p10
aS'advmod=often'
p11
aS'aux=may'
p12
aS'aux=might'
p13
aS'aux=will'
p14
aS'auxpass=be'
p15
aS'ccomp=say'
p16
aS'complm=that'
p17
aS'dobj=president'
p18
aS'dobj=sea'
p19
aS'nsubj=none'
p20
aS'nsubj=ruling'
p21
aS'nsubjpass=#PRP#'
p22
aS'nsubjpass=Congress'
p23
aS'nsubjpass=Ethiopia'
p24
aS'nsubjpass=administration'
p25
aS'nsubjpass=country'
p26
aS'prep=by'
p27
aS'w+1=the'
p28
aS'w+1=to'
p29
aS'w+2=break'
p30
aS'w+2=erect'
p31
aS'w+2=president'
p32
aS'w+2=sea'
p33
aS'w+2=set'
p34
aS'w+2=take'
p35
aS'w+2=try'
p36
aS'w-1=always'
p37
aS'w-1=be'
p38
aS'w-1=might'
p39
aS'w-1=often'
p40
aS'w-1=will'
p41
aS'w-2=,'
p42
aS'w-2=be'
p43
aS'w-2=child'
p44
aS'w-2=may'
p45
aS'w-2=might'
p46
aS'w-2=we'
p47
aS'xcomp=break'
p48
aS'xcomp=erect'
p49
aS'xcomp=set'
p50
aS'xcomp=take'
p51
aS'xcomp=try'
p52
asS'dtype'
p53
cnumpy
float64
p54
sS'vocabulary_'
p55
(dp56
g50
I41
sg20
I11
sg14
I5
sg46
I37
sg41
I32
sg47
I38
sg11
I2
sg42
I33
sg15
I6
sg26
I17
sg12
I3
sg52
I43
sg27
I18
sg38
I29
sg9
I0
sg51
I42
sg40
I31
sg29
I20
sg30
I21
sg18
I9
sg48
I39
sg33
I24
sg10
I1
sg35
I26
sg28
I19
sg21
I12
sg24
I15
sg34
I25
sg39
I30
sg19
I10
sg45
I36
sg13
I4
sg32
I23
sg17
I8
sg43
I34
sg22
I13
sg36
I27
sg25
I16
sg44
I35
sg31
I22
sg37
I28
sg49
I40
sg16
I7
sg23
I14
ssS'separator'
p57
S'='
sS'sparse'
p58
I01
sb.