ccopy_reg
_reconstructor
p1
(csklearn.feature_extraction.dict_vectorizer
DictVectorizer
p2
c__builtin__
object
p3
NtRp4
(dp5
S'sort'
p6
I01
sS'feature_names_'
p7
(lp8
S'advcl=about'
p9
aS'advcl=begin'
p10
aS'advcl=experience'
p11
aS'advcl=fall'
p12
aS'advcl=have'
p13
aS'advcl=reduce'
p14
aS'advmod=ago'
p15
aS'advmod=already'
p16
aS'advmod=commonly'
p17
aS'advmod=correctly'
p18
aS'advmod=differently'
p19
aS'advmod=early'
p20
aS'advmod=finally'
p21
aS'advmod=instead'
p22
aS'advmod=newly'
p23
aS'advmod=normally'
p24
aS'advmod=often'
p25
aS'advmod=properly'
p26
aS'advmod=quickly'
p27
aS'advmod=when'
p28
aS'advmod=why'
p29
aS'advmod=worldwide'
p30
aS'aux=be'
p31
aS'aux=do'
p32
aS'aux=have'
p33
aS'aux=to'
p34
aS'aux=will'
p35
aS'auxpass=be'
p36
aS'auxpass=get'
p37
aS'cc=and'
p38
aS'cc=or'
p39
aS'ccomp=die'
p40
aS'complm=that'
p41
aS'conj=clear'
p42
aS'conj=have'
p43
aS'conj=identify'
p44
aS'conj=implement'
p45
aS'conj=struggle'
p46
aS'conj=treat'
p47
aS'conj=undergo'
p48
aS'dep=#NUMBER#'
p49
aS'dep=both'
p50
aS'dep=many'
p51
aS'dep=to'
p52
aS'dep=today'
p53
aS'dobj=#PRP#'
p54
aS'dobj=Humu'
p55
aS'dobj=case'
p56
aS'dobj=cause'
p57
aS'dobj=child'
p58
aS'dobj=disease'
p59
aS'dobj=live'
p60
aS'dobj=people'
p61
aS'dobj=problem'
p62
aS'dobj=singer'
p63
aS'dobj=syndrome'
p64
aS'dobj=tb'
p65
aS'mark=about'
p66
aS'mark=after'
p67
aS'mark=because'
p68
aS'mark=before'
p69
aS'mark=if'
p70
aS'mark=once'
p71
aS'mark=until'
p72
aS'mark=while'
p73
aS'neg=not'
p74
aS'nsubj=#PRP#'
p75
aS'nsubj=cancer'
p76
aS'nsubj=child'
p77
aS'nsubj=doctor'
p78
aS'nsubj=infant'
p79
aS'nsubj=note'
p80
aS'nsubj=officer'
p81
aS'nsubj=percent'
p82
aS'nsubj=the'
p83
aS'nsubj=woman'
p84
aS'nsubjpass=#NUMBER#'
p85
aS'nsubjpass=#PRP#'
p86
aS'nsubjpass=AMD'
p87
aS'nsubjpass=Americans'
p88
aS'nsubjpass=Dwonch'
p89
aS'nsubjpass=Indians'
p90
aS'nsubjpass=John'
p91
aS'nsubjpass=Johnson'
p92
aS'nsubjpass=Kennedy'
p93
aS'nsubjpass=Lohberg'
p94
aS'nsubjpass=Pumla'
p95
aS'nsubjpass=animal'
p96
aS'nsubjpass=baby'
p97
aS'nsubjpass=cancer'
p98
aS'nsubjpass=case'
p99
aS'nsubjpass=child'
p100
aS'nsubjpass=father'
p101
aS'nsubjpass=husband'
p102
aS'nsubjpass=illness'
p103
aS'nsubjpass=malaria'
p104
aS'nsubjpass=mother'
p105
aS'nsubjpass=one-fourth'
p106
aS'nsubjpass=other'
p107
aS'nsubjpass=people'
p108
aS'nsubjpass=quarter'
p109
aS'nsubjpass=seconds'
p110
aS'nsubjpass=tb'
p111
aS'nsubjpass=who'
p112
aS'nsubjpass=woman'
p113
aS'partmod=mean'
p114
aS'prep=as'
p115
aS'prep=at'
p116
aS'prep=in'
p117
aS'prep=than'
p118
aS'prep=until'
p119
aS'prep=with'
p120
aS'tmod=December'
p121
aS'tmod=year'
p122
aS'w+1=,'
p123
aS'w+1=.'
p124
aS'w+1=Humu'
p125
aS'w+1=about'
p126
aS'w+1=almost'
p127
aS'w+1=alzheimer'
p128
aS'w+1=and'
p129
aS'w+1=as'
p130
aS'w+1=at'
p131
aS'w+1=both'
p132
aS'w+1=cancer'
p133
aS'w+1=case'
p134
aS'w+1=die'
p135
aS'w+1=differently'
p136
aS'w+1=disease'
p137
aS'w+1=each'
p138
aS'w+1=every'
p139
aS'w+1=he'
p140
aS'w+1=in'
p141
aS'w+1=often'
p142
aS'w+1=or'
p143
aS'w+1=patient'
p144
aS'w+1=people'
p145
aS'w+1=tb'
p146
aS'w+1=the'
p147
aS'w+1=this'
p148
aS'w+1=until'
p149
aS'w+1=with'
p150
aS'w+1=withparkinson'
p151
aS"w+2=''"
p152
aS"w+2='s"
p153
aS'w+2=.'
p154
aS'w+2=15'
p155
aS'w+2=15,000'
p156
aS'w+2=2003'
p157
aS'w+2=Welsh'
p158
aS'w+2=`'
p159
aS'w+2=a'
p160
aS'w+2=adhd'
p161
aS'w+2=advanced'
p162
aS'w+2=age'
p163
aS'w+2=alzheimer'
p164
aS'w+2=and'
p165
aS'w+2=anemia'
p166
aS'w+2=anyway'
p167
aS'w+2=aplastic'
p168
aS'w+2=be'
p169
aS'w+2=because'
p170
aS'w+2=bone'
p171
aS'w+2=brain'
p172
aS'w+2=breast'
p173
aS'w+2=cancer'
p174
aS'w+2=cardiovascular'
p175
aS'w+2=case'
p176
aS'w+2=cause'
p177
aS'w+2=cervical'
p178
aS'w+2=clinically'
p179
aS'w+2=colon'
p180
aS'w+2=depression'
p181
aS'w+2=diabetes'
p182
aS'w+2=disease'
p183
aS'w+2=head'
p184
aS'w+2=hiv'
p185
aS'w+2=identify'
p186
aS'w+2=in'
p187
aS'w+2=it'
p188
aS'w+2=late'
p189
aS'w+2=lung'
p190
aS'w+2=macular'
p191
aS'w+2=many'
p192
aS'w+2=pancreatic'
p193
aS'w+2=post-traumatic'
p194
aS'w+2=problem'
p195
aS'w+2=prostate'
p196
aS'w+2=psoriatic'
p197
aS'w+2=rapidly'
p198
aS'w+2=renal'
p199
aS'w+2=sad'
p200
aS'w+2=severe'
p201
aS'w+2=she'
p202
aS'w+2=singer'
p203
aS'w+2=skin'
p204
aS'w+2=tb'
p205
aS'w+2=that'
p206
aS'w+2=the'
p207
aS'w+2=three'
p208
aS'w+2=treat'
p209
aS'w+2=type'
p210
aS'w+2=who'
p211
aS'w+2=whose'
p212
aS'w+2=will'
p213
aS'w+2=with'
p214
aS'w+2=year'
p215
aS'w+2=yet'
p216
aS"w-1=''"
p217
aS'w-1=,'
p218
aS'w-1=.'
p219
aS'w-1=Americans'
p220
aS'w-1=already'
p221
aS'w-1=be'
p222
aS'w-1=cancer'
p223
aS'w-1=child'
p224
aS'w-1=commonly'
p225
aS'w-1=correctly'
p226
aS'w-1=country'
p227
aS'w-1=doctor'
p228
aS'w-1=finally'
p229
aS'w-1=for'
p230
aS'w-1=get'
p231
aS'w-1=in'
p232
aS'w-1=infant'
p233
aS'w-1=newly'
p234
aS'w-1=no'
p235
aS'w-1=normally'
p236
aS'w-1=of'
p237
aS'w-1=patient'
p238
aS'w-1=people'
p239
aS'w-1=properly'
p240
aS'w-1=quickly'
p241
aS'w-1=teens'
p242
aS'w-1=those'
p243
aS'w-1=timely'
p244
aS'w-1=to'
p245
aS'w-1=woman'
p246
aS'w-2=,'
p247
aS'w-2=.'
p248
aS'w-2=426'
p249
aS'w-2=Abubakar'
p250
aS'w-2=Dwonch'
p251
aS'w-2=I'
p252
aS'w-2=Indians'
p253
aS'w-2=John'
p254
aS'w-2=Johnson'
p255
aS'w-2=Kennedy'
p256
aS'w-2=Pumla'
p257
aS'w-2=a'
p258
aS'w-2=accurate'
p259
aS'w-2=after'
p260
aS'w-2=already'
p261
aS'w-2=and'
p262
aS'w-2=animal'
p263
aS'w-2=baby'
p264
aS'w-2=be'
p265
aS'w-2=breast'
p266
aS'w-2=cancer'
p267
aS'w-2=child'
p268
aS'w-2=depression'
p269
aS'w-2=father'
p270
aS'w-2=hard'
p271
aS'w-2=have'
p272
aS'w-2=he'
p273
aS'w-2=help'
p274
aS'w-2=himself'
p275
aS'w-2=husband'
p276
aS'w-2=it'
p277
aS'w-2=malaria'
p278
aS'w-2=method'
p279
aS'w-2=million'
p280
aS'w-2=most'
p281
aS'w-2=mother'
p282
aS'w-2=not'
p283
aS'w-2=of'
p284
aS'w-2=participant'
p285
aS'w-2=pressure'
p286
aS'w-2=refuse'
p287
aS'w-2=she'
p288
aS'w-2=show'
p289
aS'w-2=somebody'
p290
aS'w-2=symptom'
p291
aS'w-2=tb'
p292
aS'w-2=test'
p293
aS'w-2=the'
p294
aS'w-2=they'
p295
aS'w-2=those'
p296
aS'w-2=to'
p297
aS'w-2=too'
p298
aS'w-2=when'
p299
aS'w-2=who'
p300
aS'w-2=will'
p301
aS'w-2=woman'
p302
aS'w-2=world'
p303
asS'dtype'
p304
cnumpy
float64
p305
sS'vocabulary_'
p306
(dp307
g226
I217
sg194
I185
sg43
I34
sg10
I1
sg13
I4
sg91
I82
sg237
I228
sg58
I49
sg171
I162
sg228
I219
sg241
I232
sg185
I176
sg267
I258
sg195
I186
sg124
I115
sg253
I244
sg25
I16
sg108
I99
sg225
I216
sg100
I91
sg114
I105
sg162
I153
sg84
I75
sg64
I55
sg276
I267
sg102
I93
sg77
I68
sg206
I197
sg227
I218
sg223
I214
sg61
I52
sg30
I21
sg146
I137
sg151
I142
sg42
I33
sg51
I42
sg157
I148
sg149
I140
sg191
I182
sg289
I280
sg80
I71
sg113
I104
sg37
I28
sg242
I233
sg284
I275
sg292
I283
sg219
I210
sg295
I286
sg118
I109
sg245
I236
sg144
I135
sg297
I288
sg165
I156
sg262
I253
sg22
I13
sg218
I209
sg119
I110
sg217
I208
sg78
I69
sg255
I246
sg254
I245
sg287
I278
sg268
I259
sg82
I73
sg54
I45
sg136
I127
sg110
I101
sg280
I271
sg93
I84
sg173
I164
sg55
I46
sg76
I67
sg148
I139
sg73
I64
sg103
I94
sg296
I287
sg32
I23
sg17
I8
sg273
I264
sg209
I200
sg131
I122
sg35
I26
sg150
I141
sg199
I190
sg192
I183
sg211
I202
sg89
I80
sg207
I198
sg130
I121
sg180
I171
sg115
I106
sg247
I238
sg248
I239
sg120
I111
sg65
I56
sg132
I123
sg140
I131
sg33
I24
sg121
I112
sg98
I89
sg222
I213
sg133
I124
sg198
I189
sg189
I180
sg256
I247
sg270
I261
sg283
I274
sg294
I285
sg134
I125
sg201
I192
sg183
I174
sg139
I130
sg252
I243
sg176
I167
sg16
I7
sg107
I98
sg81
I72
sg234
I225
sg250
I241
sg277
I268
sg170
I161
sg246
I237
sg12
I3
sg87
I78
sg243
I234
sg62
I53
sg300
I291
sg41
I32
sg28
I19
sg233
I224
sg205
I196
sg90
I81
sg156
I147
sg214
I205
sg46
I37
sg45
I36
sg258
I249
sg111
I102
sg261
I252
sg181
I172
sg163
I154
sg71
I62
sg47
I38
sg161
I152
sg97
I88
sg24
I15
sg40
I31
sg57
I48
sg235
I226
sg152
I143
sg187
I178
sg278
I269
sg138
I129
sg188
I179
sg190
I181
sg60
I51
sg271
I262
sg99
I90
sg182
I173
sg106
I97
sg49
I40
sg105
I96
sg302
I293
sg36
I27
sg196
I187
sg145
I136
sg167
I158
sg282
I273
sg186
I177
sg104
I95
sg137
I128
sg293
I284
sg164
I155
sg23
I14
sg29
I20
sg112
I103
sg272
I263
sg96
I87
sg208
I199
sg38
I29
sg158
I149
sg251
I242
sg147
I138
sg200
I191
sg44
I35
sg168
I159
sg52
I43
sg79
I70
sg169
I160
sg19
I10
sg92
I83
sg213
I204
sg109
I100
sg153
I144
sg299
I290
sg298
I289
sg221
I212
sg86
I77
sg286
I277
sg291
I282
sg117
I108
sg66
I57
sg203
I194
sg175
I166
sg141
I132
sg122
I113
sg220
I211
sg63
I54
sg269
I260
sg290
I281
sg72
I63
sg75
I66
sg18
I9
sg126
I117
sg20
I11
sg53
I44
sg179
I170
sg21
I12
sg274
I265
sg177
I168
sg259
I250
sg224
I215
sg11
I2
sg94
I85
sg59
I50
sg85
I76
sg34
I25
sg48
I39
sg239
I230
sg281
I272
sg68
I59
sg142
I133
sg215
I206
sg285
I276
sg83
I74
sg275
I266
sg15
I6
sg116
I107
sg240
I231
sg129
I120
sg288
I279
sg238
I229
sg301
I292
sg210
I201
sg212
I203
sg125
I116
sg230
I221
sg123
I114
sg244
I235
sg231
I222
sg14
I5
sg154
I145
sg260
I251
sg264
I255
sg95
I86
sg193
I184
sg128
I119
sg74
I65
sg69
I60
sg143
I134
sg88
I79
sg178
I169
sg174
I165
sg263
I254
sg172
I163
sg184
I175
sg127
I118
sg27
I18
sg257
I248
sg202
I193
sg50
I41
sg232
I223
sg266
I257
sg101
I92
sg166
I157
sg204
I195
sg39
I30
sg265
I256
sg236
I227
sg303
I294
sg155
I146
sg197
I188
sg279
I270
sg67
I58
sg56
I47
sg31
I22
sg229
I220
sg26
I17
sg70
I61
sg216
I207
sg135
I126
sg159
I150
sg160
I151
sg249
I240
sg9
I0
ssS'separator'
p308
S'='
sS'sparse'
p309
I01
sb.