ccopy_reg
_reconstructor
p1
(csklearn.feature_extraction.dict_vectorizer
DictVectorizer
p2
c__builtin__
object
p3
NtRp4
(dp5
S'vocabulary_'
p6
(dp7
S'advmod=briefly'
p8
I80
sS'w+1=Jomo'
p9
I1114
sS'w-2=Day'
p10
I2411
sS'dobj=expense'
p11
I494
sS'nsubjpass=regulation'
p12
I996
sS'xcomp=MDG'
p13
I3031
sS'advmod=certainly'
p14
I81
sS'w-2=unless'
p15
I2993
sS'advcl=patrol'
p16
I40
sS'w+2=few'
p17
I1709
sS'nsubj=poll'
p18
I913
sS'nsubj=Speaker'
p19
I776
sS'conj=underscore'
p20
I315
sS'dobj=percent'
p21
I549
sS'w+1=representative'
p22
I1294
sS'w+2=survivor'
p23
I1949
sS'w-2=Friday'
p24
I2430
sS'w+2=health'
p25
I1740
sS'w-1=Cheney'
p26
I2049
sS'w+2=vendor'
p27
I1983
sS'xcomp=restart'
p28
I3119
sS'dobj=hostage'
p29
I512
sS'w-2=Apple'
p30
I2371
sS'w+2=commander'
p31
I1651
sS'w+2=but'
p32
I1631
sS'xcomp=mount'
p33
I3097
sS'w-1=Paisley'
p34
I2118
sS'nsubj=team'
p35
I944
sS'w+1=important'
p36
I1234
sS'w+2=target'
p37
I1953
sS'w+1=south'
p38
I1313
sS'w-2=new'
p39
I2833
sS'w-1=nation'
p40
I2267
sS'dobj=condition'
p41
I474
sS'w-2=happy'
p42
I2753
sS'w-1=diplomat'
p43
I2206
sS'w-1=Asia'
p44
I2030
sS'ccomp=term'
p45
I195
sS'xcomp=quell'
p46
I3110
sS'w-1=Montanti'
p47
I2103
sS'w-2=its'
p48
I2787
sS'w-2=need'
p49
I2831
sS'nsubj=Israelis'
p50
I692
sS'nsubj=chief'
p51
I823
sS'w-2=policy'
p52
I2870
sS'w-2=Pramila'
p53
I2523
sS'w-1=Pyongyang'
p54
I2126
sS'w+2=nation'
p55
I1820
sS'w+2=finalize'
p56
I1710
sS'w-2=Mugabe'
p57
I2498
sS'conj=call'
p58
I221
sS'w-2=israeli'
p59
I2785
sS'advcl=meet'
p60
I37
sS'nsubj=Nations'
p61
I732
sS'w-2=world'
p62
I3023
sS'w+2=December'
p63
I1419
sS'w+2=burma'
p64
I1626
sS'conj=decide'
p65
I232
sS'conj=watch'
p66
I321
sS'conj=dissolve'
p67
I239
sS'dobj=Obama'
p68
I417
sS'w-1=Annan'
p69
I2029
sS'w-2=well'
p70
I3010
sS'nsubj=Secretary'
p71
I766
sS'nsubj=Ki-moon'
p72
I697
sS'nsubj=Abbas'
p73
I631
sS'w+2=consider'
p74
I1661
sS'w+2=often'
p75
I1839
sS'w-2=challenge'
p76
I2647
sS'advmod=annually'
p77
I72
sS'w+2=several'
p78
I1922
sS'w+2=Security'
p79
I1540
sS'advmod=better'
p80
I78
sS'w-1=will'
p81
I2338
sS'w-1=journalist'
p82
I2245
sS'w+1=depose'
p83
I1190
sS'dobj=menace'
p84
I527
sS'dobj=appetite'
p85
I451
sS'nsubjpass=news'
p86
I988
sS'w-2=Congress'
p87
I2405
sS'w-1=Jon'
p88
I2085
sS'w+2=again'
p89
I1586
sS'conj=angry'
p90
I209
sS'w-2=Barack'
p91
I2381
sS'nsubj=delegate'
p92
I839
sS'w+2=al-Bashir'
p93
I1587
sS'w+2=environmental'
p94
I1699
sS'w-1=Hoyer'
p95
I2076
sS'w+2=amputee'
p96
I1594
sS'w-1=Iran'
p97
I2081
sS'dobj=counterpart'
p98
I477
sS'w+1=she'
p99
I1303
sS'w-1=Triet'
p100
I2154
sS'w-2=time'
p101
I2972
sS'w-2=Beida'
p102
I2383
sS'w-2=before'
p103
I2623
sS'w+2=Pretoria'
p104
I1522
sS'w-2=industrialized'
p105
I2778
sS'xcomp=bid'
p106
I3039
sS'w-2=poor'
p107
I2871
sS'nsubj=Albania'
p108
I636
sS'nsubj=delegation'
p109
I840
sS'w-2=who'
p110
I3015
sS'w-1=accuse'
p111
I2159
sS'w+2=nuclear'
p112
I1832
sS'w-1=state'
p113
I2313
sS'w+1=on'
p114
I1272
sS'w+2=Darfur'
p115
I1418
sS'w-2=infrastructure'
p116
I2779
sS'ccomp=study'
p117
I194
sS'w+2=sharp'
p118
I1923
sS'w+2=pope'
p119
I1863
sS'w-2=Jersey'
p120
I2458
sS'w-2=Reed'
p121
I2529
sS'nsubj=troika'
p122
I947
sS'nsubj=survivor'
p123
I943
sS'w-2=radical'
p124
I2890
sS'w-2=Africa'
p125
I2359
sS'ccomp=say'
p126
I189
sS'conj=track'
p127
I313
sS'w+2=Tripoli'
p128
I1563
sS'w+1=October'
p129
I1123
sS'w+2=anyone'
p130
I1599
sS'w-2=energy'
p131
I2705
sS'w+2=eight'
p132
I1691
sS'w-2=oyster'
p133
I2858
sS'dobj=Jackson'
p134
I403
sS'w-2=Brandan'
p135
I2390
sS'w-1=Germany'
p136
I2064
sS'w+2=Tehran'
p137
I1558
sS'w-2=all'
p138
I2605
sS'w-2=only'
p139
I2850
sS'w-2=longer'
p140
I2805
sS'ccomp=have'
p141
I180
sS'w-1=could'
p142
I2198
sS'w-2=Engin'
p143
I2423
sS'conj=awareness'
p144
I216
sS'w+2=you'
p145
I2016
sS'w-2=Treaty'
p146
I2567
sS'nsubj=Shakira'
p147
I768
sS'w-2=apec'
p148
I2614
sS'w-2=japanese'
p149
I2788
sS'w+1=two'
p150
I1339
sS'csubj=unfortunate'
p151
I324
sS'w+2=Denver'
p152
I1422
sS'w+1=everybody'
p153
I1203
sS'w-1=certainly'
p154
I2191
sS'nsubjpass=percent'
p155
I991
sS'w+2=Saudi'
p156
I1537
sS'advcl=be'
p157
I7
sS'dobj=Americans'
p158
I376
sS'nsubj=turkish'
p159
I949
sS'w+1=the'
p160
I1322
sS'w+2=-rrb-'
p161
I1370
sS'nsubj=Kansas'
p162
I695
sS'w-2=Minh'
p163
I2493
sS'w-2=jordanian'
p164
I2790
sS'w-2=offer'
p165
I2845
sS'w-1=already'
p166
I2169
sS'w-2=number'
p167
I2842
sS'xcomp=say'
p168
I3124
sS'w-2=packing'
p169
I2860
sS'w-1=Putin'
p170
I2125
sS'w-2=Kwan'
p171
I2478
sS'w-2=leader'
p172
I2798
sS'nsubj=Roh'
p173
I754
sS'w+1=Africa'
p174
I1091
sS'w+2=international'
p175
I1761
sS'w-2=African'
p176
I2360
sS'w-1=assembly'
p177
I2175
sS'w-2=Party'
p178
I2516
sS'w+2=Yayi'
p179
I1573
sS'dobj=Elise'
p180
I386
sS'w-2=each'
p181
I2699
sS'w+2=critical'
p182
I1668
sS'nsubj=XVI'
p183
I791
sS'nsubj=Solana'
p184
I775
sS'advcl=call'
p185
I10
sS'prep=amongst'
p186
I1024
sS'nsubj=Carter'
p187
I654
sS'w+2=...'
p188
I1372
sS'w-2=order'
p189
I2854
sS'w-2=she'
p190
I2926
sS'conj=expect'
p191
I245
sS'dobj=businessman'
p192
I460
sS'conj=negotiate'
p193
I277
sS'w+2=informal'
p194
I1758
sS'w+1=acceptable'
p195
I1150
sS'w+1=later'
p196
I1254
sS'w-1=mother'
p197
I2265
sS'w+2=France'
p198
I1437
sS'nsubj=Zuma'
p199
I797
sS'nsubj=member'
p200
I889
sS'w-1=should'
p201
I2307
sS'nsubj=envoy'
p202
I853
sS'nsubj=Gadhafi'
p203
I676
sS'w-2=Yudhoyono'
p204
I2585
sS'w+1=inside'
p205
I1241
sS'advmod=here'
p206
I100
sS'w+2=3'
p207
I1380
sS'w-2=Antonio'
p208
I2370
sS'xcomp=year'
p209
I3143
sS'nsubj=group'
p210
I867
sS'conj=greet'
p211
I256
sS'w-2=168'
p212
I2350
sS'conj=be'
p213
I217
sS'dobj=Claus'
p214
I385
sS'tmod=evening'
p215
I1070
sS'advcl=welcome'
p216
I63
sS'nsubj=Silva'
p217
I771
sS'w-2=staff'
p218
I2942
sS'w-1=Salim'
p219
I2137
sS'advmod=where'
p220
I143
sS'w-2=rule'
p221
I2912
sS'dobj=Freeman'
p222
I388
sS'w-2=agree'
p223
I2600
sS'xcomp=bring'
p224
I3042
sS'w+2=former'
p225
I1722
sS'w+2=when'
p226
I2002
sS'w+1=-rrb-'
p227
I1083
sS'w+2=call'
p228
I1633
sS'w+1=Sahel'
p229
I1130
sS'xcomp=stop'
p230
I3132
sS'xcomp=correct'
p231
I3053
sS'w+2=egyptian'
p232
I1690
sS'w+2=evening'
p233
I1702
sS'dobj=ambition'
p234
I448
sS'w+1=informally'
p235
I1240
sS'nsubj=way'
p236
I955
sS'conj=declare'
p237
I233
sS'conj=brief'
p238
I219
sS'w+2=at'
p239
I1605
sS'dobj=mission'
p240
I529
sS'w-2=border'
p241
I2630
sS'w-2=Annapolis'
p242
I2369
sS'w+1=both'
p243
I1171
sS'dep=if'
p244
I346
sS'w-2=inability'
p245
I2773
sS'conj=ask'
p246
I211
sS'xcomp=settle'
p247
I3129
sS'w+2=set'
p248
I1921
sS'nsubj=Ahmed'
p249
I634
sS'w-2=mom'
p250
I2823
sS'w+2=Treasury'
p251
I1562
sS'dobj=King'
p252
I407
sS'dobj=Abe'
p253
I373
sS'w-1=to'
p254
I2325
sS'w+1=then-u'
p255
I1324
sS'w-2=USADA'
p256
I2573
sS'w-1=first'
p257
I2225
sS'w+1=australian'
p258
I1163
sS'dobj=objective'
p259
I537
sS'w-2=expert'
p260
I2717
sS'w-1=two'
p261
I2329
sS'w-1=visit'
p262
I2331
sS'dobj=#PRP#'
p263
I371
sS'w-2=do'
p264
I2696
sS'dobj=opposition'
p265
I541
sS'w-1=Al-Nuhayyan'
p266
I2027
sS'w-2=Richardson'
p267
I2533
sS'w-1=economy'
p268
I2210
sS'tmod=tomorrow'
p269
I1076
sS'w+1=you'
p270
I1360
sS'nsubjpass=Goals'
p271
I964
sS'conj=vote'
p272
I318
sS'w-2=Kiirmet'
p273
I2471
sS'nsubj=Musharraf'
p274
I728
sS'dobj=then-u'
p275
I593
sS'xcomp=about'
p276
I3032
sS'nsubj=Ying-jeou'
p277
I793
sS'w+2=somewhere'
p278
I1935
sS'w+1=Saturday'
p279
I1132
sS'w+2=while'
p280
I2004
sS'w+2=reckoning'
p281
I1885
sS'neg=generally'
p282
I625
sS'xcomp=all'
p283
I3035
sS'nsubj=McCanns'
p284
I716
sS'nsubj=performance'
p285
I907
sS'xcomp=reach'
p286
I3112
sS'w-2=travels'
p287
I2983
sS'w+1=he'
p288
I1223
sS'w+1=separately'
p289
I1300
sS'w+2=all'
p290
I1589
sS'xcomp=create'
p291
I3054
sS'nsubjpass=requirement'
p292
I999
sS'w-2=Abbas'
p293
I2356
sS'w+2=late'
p294
I1779
sS'conj=open'
p295
I281
sS'nsubj=election'
p296
I850
sS'advcl=perform'
p297
I41
sS'w-2=Russia'
p298
I2536
sS'w+2=Libya'
p299
I1478
sS'dobj=deputy'
p300
I485
sS'w+2=broader'
p301
I1624
sS'w-2=palestinian'
p302
I2861
sS'w+1=through'
p303
I1332
sS'nsubj=Mubarak'
p304
I724
sS'w+2=because'
p305
I1615
sS'nsubj=promise'
p306
I921
sS'w+1=Queen'
p307
I1128
sS'nsubj=pontiff'
p308
I914
sS'nsubj=Republicans'
p309
I751
sS'w+1=rebel'
p310
I1290
sS'w-1=Peres'
p311
I2122
sS'w-2=historical'
p312
I2761
sS'dobj=compliance'
p313
I472
sS'xcomp=interested'
p314
I3086
sS'w+2=kenyan'
p315
I1772
sS'w-2=recently'
p316
I2894
sS'nsubj=Delegates'
p317
I668
sS'w-2=leading'
p318
I2799
sS'w-2=decision'
p319
I2681
sS'w-2=target'
p320
I2960
sS'dep=shore'
p321
I359
sS'w+1=Friday'
p322
I1104
sS'w+2=Saturday'
p323
I1535
sS'advmod=normally'
p324
I118
sS'w-2=funding'
p325
I2739
sS'w-1=force'
p326
I2227
sS'w+2=where'
p327
I2003
sS'w-1=Republic'
p328
I2129
sS'nsubj=Fayyad'
p329
I673
sS'prep=despite'
p330
I1032
sS'purpcl=maintain'
p331
I1058
sS'w+2=Kim'
p332
I1470
sS'xcomp=increase'
p333
I3084
sS'w-2=commit'
p334
I2660
sS'w-2=import'
p335
I2769
sS'parataxis=town'
p336
I1016
sS'w-2=Tony'
p337
I2564
sS'w-1=Patten'
p338
I2119
sS'w-2=Gordon'
p339
I2437
sS'ccomp=open'
p340
I186
sS'w+1=person'
p341
I1282
sS'w+1=set'
p342
I1301
sS'w+1=Wednesday'
p343
I1145
sS'nsubj=Nada'
p344
I731
sS'w+2=Russia'
p345
I1528
sS'xcomp=figure'
p346
I3076
sS'w-1=end'
p347
I2213
sS'nsubj=president'
p348
I917
sS'w+2=Russian'
p349
I1529
sS'nsubj=Korea'
p350
I702
sS'w+2=love'
p351
I1794
sS'w-2=Thailand'
p352
I2562
sS'conj=stabilize'
p353
I306
sS'w+2=recent'
p354
I1883
sS'w-1=Koreans'
p355
I2091
sS'nsubj=cabinet'
p356
I819
sS'w+2=Kabbah'
p357
I1464
sS'nsubj=researcher'
p358
I925
sS'w-2=Christopher'
p359
I2400
sS'xcomp=boost'
p360
I3040
sS'nsubjpass=majority'
p361
I985
sS'w+2=Moammar'
p362
I1489
sS'dobj=interest'
p363
I516
sS'w+2=New'
p364
I1501
sS'w+2=mission'
p365
I1809
sS'w+2=Sharif'
p366
I1544
sS'w-2=central'
p367
I2646
sS'dobj=everyone'
p368
I492
sS'w-2=Javier'
p369
I2457
sS'w+1=budget'
p370
I1173
sS'w-2=up'
p371
I2996
sS'w-2=those'
p372
I2969
sS'w-2=Iraqis'
p373
I2451
sS'nsubj=India'
p374
I687
sS'dobj=quota'
p375
I564
sS'w+2=Israel'
p376
I1457
sS'xcomp=lobby'
p377
I3091
sS'w+2=public'
p378
I1873
sS'w+1=administration'
p379
I1151
sS'w-2=pace'
p380
I2859
sS'w-1=Sirleaf'
p381
I2147
sS'nsubj=YarAdua'
p382
I792
sS'w+2=al-qaida'
p383
I1588
sS'w-2=land'
p384
I2796
sS'w-2=decline'
p385
I2683
sS'w+1=10,000-15'
p386
I1085
sS'w+2=teenager'
p387
I1955
sS'w+2=States'
p388
I1552
sS'w+2=enter'
p389
I1697
sS'w-2=transgress'
p390
I2981
sS'w-2=oil'
p391
I2848
sS'w-1=that'
p392
I2319
sS'nsubj=commission'
p393
I828
sS'w-1=grower'
p394
I2235
sS'w+2=Laden'
p395
I1476
sS'w-2=Khaled'
p396
I2467
sS'dep=as'
p397
I330
sS'xcomp=supplement'
p398
I3134
sS'w+2=Khartoum'
p399
I1468
sS'w-2=choose'
p400
I2652
sS'w+2=french'
p401
I1724
sS'w+1=expectation'
p402
I1206
sS'w-1=Ki-moon'
p403
I2087
sS'w-2=U.S'
p404
I2571
sS'w-1=donor'
p405
I2208
sS'w-2=Zalmay'
p406
I2586
sS'dobj=girl'
p407
I503
sS'w+2=dinner'
p408
I1682
sS'w-2=status'
p409
I2947
sS'nsubj=military'
p410
I890
sS'w-2=important'
p411
I2771
sS'advmod=far'
p412
I93
sS'w+1=political'
p413
I1285
sS'w-2=Koreans'
p414
I2476
sS'w+2=promise'
p415
I1872
sS'xcomp=located'
p416
I3092
sS'w-2=civilian'
p417
I2653
sS'dep=defend'
p418
I336
sS'w-2=you'
p419
I3028
sS'w-1=never'
p420
I2269
sS'w-2=Army'
p421
I2374
sS'w+1=loan'
p422
I1261
sS'w+1=bail'
p423
I1164
sS'xcomp=meet'
p424
I3096
sS'dep=out'
p425
I355
sS'w+2=Turkey'
p426
I1565
sS'w-1=president'
p427
I2293
sS'nsubj=Iraqis'
p428
I689
sS'w+2=speaker'
p429
I1938
sS'nsubj=state'
p430
I940
sS'w-2=Carter'
p431
I2396
sS'w-2=mission'
p432
I2821
sS'w-2=resolve'
p433
I2906
sS'xcomp=negotiate'
p434
I3099
sS'dobj=date'
p435
I479
sS'w-2=would'
p436
I3024
sS'w+2=Somali'
p437
I1549
sS'dobj=week'
p438
I601
sS'dobj=Hussein'
p439
I400
sS'w-2=Islamabad'
p440
I2452
sS'dobj=Maggie'
p441
I411
sS'xcomp=finalize'
p442
I3077
sS'w+1=resistance'
p443
I1295
sS'w+2=venezuelan'
p444
I1984
sS'w-2=alliance'
p445
I2606
sS'dobj=payment'
p446
I547
sS'w-2=travel'
p447
I2982
sS'w-2=track'
p448
I2979
sS'w-2=Albania'
p449
I2363
sS'w+2=college'
p450
I1650
sS'nsubj=revolutionary'
p451
I928
sS'conj=convince'
p452
I230
sS'nsubj=President'
p453
I746
sS'dobj=husband'
p454
I515
sS'w+1=privately'
p455
I1287
sS'conj=#NUMBER#'
p456
I200
sS'w-2=million'
p457
I2819
sS'w+1=strong'
p458
I1317
sS'w+1=consume'
p459
I1182
sS'w-1=go'
p460
I2232
sS'dobj=muse'
p461
I533
sS'nsubj=Coast'
p462
I660
sS'mark=while'
p463
I623
sS'nsubj=Shaabab'
p464
I767
sS'ccomp=form'
p465
I178
sS'dobj=daughter'
p466
I480
sS'nsubj=Rudd'
p467
I755
sS'w-1=McCain'
p468
I2098
sS'w+1=Sunday'
p469
I1137
sS'w+2=sudanese'
p470
I1946
sS'w+2=minister'
p471
I1807
sS'w-1=Livni'
p472
I2094
sS'w-1=Welch'
p473
I2156
sS'w-2=HouseThe'
p474
I2444
sS'nsubj=subsidy'
p475
I941
sS'xcomp=pick'
p476
I3101
sS'w+2=new'
p477
I1826
sS'w-2=korean'
p478
I2793
sS'w+2=Accra'
p479
I1384
sS'w+2=Odinga'
p480
I1509
sS'prep=outside'
p481
I1042
sS'w+2=detain'
p482
I1679
sS'dobj=Kibaki'
p483
I406
sS'cc=or'
p484
I164
sS'dep=accuse'
p485
I327
sS'advmod=globally'
p486
I97
sS'w-2=Eric'
p487
I2425
sS'w-2=still'
p488
I2949
sS'w-2=way'
p489
I3006
sS'w+2=payment'
p490
I1856
sS'w+2=Defense'
p491
I1420
sS'conj=enter'
p492
I243
sS'w-2=journalist'
p493
I2791
sS'w-1=eventually'
p494
I2216
sS'w-1=toward'
p495
I2326
sS'w-2=if'
p496
I2766
sS'nsubj=body'
p497
I814
sS'conj=fail'
p498
I249
sS'w-2=in'
p499
I2772
sS'w-2=launch'
p500
I2797
sS'w-1=Democrats'
p501
I2054
sS'nsubj=Kiir'
p502
I698
sS'w+2=emergency'
p503
I1693
sS'w+2=moderate'
p504
I1811
sS'conj=$'
p505
I201
sS'w-2=resource'
p506
I2907
sS'advmod=hardly'
p507
I99
sS'nsubj=Lansky'
p508
I707
sS'w+1=al-qaida'
p509
I1154
sS'w+1=future'
p510
I1215
sS'w+2=nearly'
p511
I1823
sS'w+1=it'
p512
I1246
sS'w+2=she'
p513
I1924
sS'w-2=appear'
p514
I2615
sS'w-2=parliament'
p515
I2862
sS'w+2=than'
p516
I1958
sS'w+1=Elvis'
p517
I1102
sS'advcl=impose'
p518
I32
sS'w-2=wealthiest'
p519
I3008
sS'w+2=diplomat'
p520
I1683
sS'w+2=same'
p521
I1913
sS'nsubj=Ilia'
p522
I686
sS'w+2=Naser'
p523
I1500
sS'w+1=certain'
p524
I1177
sS'w+1=FIFA'
p525
I1103
sS'w-2=and'
p526
I2612
sS'dobj=farmer'
p527
I498
sS'w-2=diplomat'
p528
I2694
sS'w-2=Nawaz'
p529
I2505
sS'advmod=also'
p530
I71
sS'nsubj=York'
p531
I794
sS'w-2=Burkina'
p532
I2392
sS'conj=retrace'
p533
I296
sS'w-1=would'
p534
I2340
sS'w+2=Millennium'
p535
I1487
sS'w-2=minister'
p536
I2820
sS'dobj=political'
p537
I556
sS'w+2=republic'
p538
I1895
sS'w-2=rebel'
p539
I2892
sS'dobj=session'
p540
I576
sS'w-1=friend'
p541
I2228
sS'w-2=States'
p542
I2556
sS'nsubj=mouat'
p543
I894
sS'w-2=Group'
p544
I2438
sS'advmod=why'
p545
I145
sS'w+2=kid'
p546
I1774
sS'w-2=have'
p547
I2755
sS'nsubj=Sheeran'
p548
I770
sS'dobj=Kufuor'
p549
I408
sS'w-2=year'
p550
I3026
sS'w+2=Dubai'
p551
I1426
sS'nsubj=Clinton'
p552
I659
sS'w-1=NBC'
p553
I2110
sS'w-1=soon'
p554
I2311
sS'w+2=current'
p555
I1669
sS'w+1=adult'
p556
I1152
sS'w-1=just'
p557
I2247
sS'w+2=develop'
p558
I1680
sS'w+2=marry'
p559
I1798
sS'w-1=they'
p560
I2322
sS'w-1=person'
p561
I2289
sS'w+2=early'
p562
I1688
sS'nsubj=representative'
p563
I924
sS'w+1=if'
p564
I1232
sS'conj=into'
p565
I263
sS'w+1=senior'
p566
I1299
sS'w+1=humanitarian'
p567
I1230
sS'w+1=in'
p568
I1235
sS'w+2=to'
p569
I1972
sS'w+2=very'
p570
I1985
sS'nsubj=Forum'
p571
I675
sS'dobj=that'
p572
I592
sS'w-1=Ramsook'
p573
I2128
sS'nsubj=#PRP#'
p574
I630
sS'w+1=about'
p575
I1149
sS'w+2=entrepreneur'
p576
I1698
sS'w-1=from'
p577
I2229
sS'w+1=Sudanese'
p578
I1136
sS'w+2=little'
p579
I1790
sS'nsubj=Macedonia'
p580
I711
sS'w+2=minneapolis-st'
p581
I1808
sS'advcl=update'
p582
I60
sS'w+2=last'
p583
I1778
sS'w+1=indian'
p584
I1238
sS'w-1=Queria'
p585
I2127
sS'w+2=UN'
p586
I1568
sS'w-2=announcement'
p587
I2613
sS'conj=pledge'
p588
I287
sS'w-1=elector'
p589
I2212
sS'w+2=burmese'
p590
I1627
sS'dobj=#NUMBER#'
p591
I370
sS'w-2=go'
p592
I2744
sS'w+1=development'
p593
I1192
sS'w+2=Silvio'
p594
I1546
sS'nsubj=Ocean'
p595
I737
sS'advmod=anywhere'
p596
I73
sS'dobj=pope'
p597
I557
sS'w+1=somebody'
p598
I1310
sS'w+2=Canberra'
p599
I1409
sS'w-1=Benedict'
p600
I2036
sS'w+2=way'
p601
I1996
sS'xcomp=hold'
p602
I3082
sS'w-2=Mottaki'
p603
I2495
sS'w+2=war'
p604
I1994
sS'w+1=or'
p605
I1278
sS'partmod=throw'
p606
I1018
sS'dep=dismantle'
p607
I339
sS'w-2=home'
p608
I2762
sS'w-2=like'
p609
I2802
sS'advcl=do'
p610
I17
sS'w+2=salvage'
p611
I1912
sS'w-2=people'
p612
I2867
sS'w+2=indonesian'
p613
I1757
sS'w-1=expert'
p614
I2218
sS'w-2=cardigan'
p615
I2642
sS'w+2=really'
p616
I1881
sS'w+2=angry'
p617
I1596
sS'w+2=basic'
p618
I1613
sS'w-2=Banny'
p619
I2380
sS'w-1=group'
p620
I2234
sS'w-2=foreign'
p621
I2730
sS'w-2=Minister'
p622
I2494
sS'w-2=Kim'
p623
I2472
sS'w-2=must'
p624
I2827
sS'w-2=determination'
p625
I2689
sS'mark=after'
p626
I608
sS'w-1=Barroso'
p627
I2034
sS'nsubj=ethanol'
p628
I854
sS'w+1=UN'
p629
I1142
sS'nsubj=speaker'
p630
I939
sS'w-2=Manuel'
p631
I2487
sS'xcomp=look'
p632
I3093
sS'w+2=Mwai'
p633
I1496
sS'w+2=Annapolis'
p634
I1390
sS'advcl=drive'
p635
I18
sS'w-1=do'
p636
I2207
sS'w+2=democratic'
p637
I1677
sS'w-2=Klein'
p638
I2473
sS'conj=come'
p639
I226
sS'w+1=United'
p640
I1144
sS'w-1=Congress'
p641
I2052
sS'advmod=privately'
p642
I124
sS'w+2=great'
p643
I1733
sS'w-1=board'
p644
I2183
sS'w-1=Burundi'
p645
I2042
sS'nsubj=NATO'
p646
I730
sS'w+2=Lithuania'
p647
I1479
sS'dobj=Chavez'
p648
I383
sS'conj=celebrate'
p649
I224
sS'w+2=North'
p650
I1504
sS'advcl=convene'
p651
I14
sS'advcl=work'
p652
I65
sS'w-1=monarch'
p653
I2264
sS'w-2=after'
p654
I2599
sS'dobj=move'
p655
I532
sS'parataxis=need'
p656
I1010
sS'w-2=Rice'
p657
I2532
sS'w-2=-lrb-'
p658
I2348
sS'w+1=fixed'
p659
I1209
sS'w-2=forward'
p660
I2733
sS'w-2=Lee'
p661
I2480
sS'w-2=to'
p662
I2974
sS'dep=be'
p663
I331
sS'w+1=11'
p664
I1086
sS'w+1=15'
p665
I1087
sS'w+1=17'
p666
I1088
sS'w-2=Daniel'
p667
I2409
sS'w-2=Rudd'
p668
I2535
sS'w-2=threat'
p669
I2970
sS'tmod=time'
p670
I1074
sS'ccomp=month'
p671
I184
sS'w-2=he'
p672
I2756
sS'w+2=korean'
p673
I1776
sS'prep=since'
p674
I1044
sS'w+2=resolve'
p675
I1902
sS'xcomp=designate'
p676
I3062
sS'w+1=business'
p677
I1175
sS'w+2=who'
p678
I2005
sS'w-2=Seoul'
p679
I2549
sS'w-2=Hutus'
p680
I2446
sS'dobj=Elvis'
p681
I387
sS'xcomp=reaffirm'
p682
I3113
sS'w-1=and'
p683
I2171
sS'dobj=Sharif'
p684
I432
sS'w+1=what'
p685
I1351
sS'dobj=demand'
p686
I484
sS'w-2=great'
p687
I2749
sS'nsubj=hospital'
p688
I872
sS'w+1=CHARLI'
p689
I1099
sS'conj=express'
p690
I247
sS'nsubj=Ahead'
p691
I633
sS'dobj=wife'
p692
I605
sS'nsubjpass=leader'
p693
I984
sS'w+2=SADC'
p694
I1530
sS'dep=that'
p695
I361
sS'advmod=soon'
p696
I134
sS'w-2=Mbeki'
p697
I2488
sS'advcl=decide'
p698
I16
sS'w+2=foreign'
p699
I1720
sS'w-2=council'
p700
I2673
sS'w+1=easily'
p701
I1198
sS'w-2=other'
p702
I2855
sS'aux=should'
p703
I156
sS'w+2=thunderous'
p704
I1970
sS'dobj=Abbas'
p705
I372
sS'w+2=iraqi'
p706
I1763
sS'w+2=government'
p707
I1731
sS'w-1=then'
p708
I2321
sS'w-2=recent'
p709
I2893
sS'w-1=Ghana'
p710
I2065
sS'dep=secretary'
p711
I358
sS'w-1=Israel'
p712
I2083
sS'mark=once'
p713
I615
sS'nsubjpass=representation'
p714
I998
sS'dobj=fate'
p715
I499
sS'w-2=Jordan'
p716
I2463
sS'w+2=rise'
p717
I1905
sS'nsubj=Glaser'
p718
I679
sS'w+2=risk'
p719
I1906
sS'w-1=envoy'
p720
I2214
sS'w+1=each'
p721
I1195
sS'w-1=-lrb-'
p722
I2022
sS'w-2=american'
p723
I2611
sS'w+1=Monday'
p724
I1120
sS'w-1=panel'
p725
I2283
sS'w-2=success'
p726
I2953
sS'w+2=Yusuf'
p727
I1575
sS'w+2=donor'
p728
I1685
sS'w+2=violent'
p729
I1988
sS'w+2=road'
p730
I1907
sS'advmod=regularly'
p731
I128
sS'w-1=Barzani'
p732
I2035
sS'nsubj=economic'
p733
I847
sS'prep=after'
p734
I1021
sS'dobj=diplomat'
p735
I486
sS'w-2=strategy'
p736
I2950
sS'nsubj=civilian'
p737
I826
sS'w-2=troika'
p738
I2986
sS'w-2=ally'
p739
I2608
sS'nsubj=Fallon'
p740
I672
sS'w-2=ACP'
p741
I2355
sS'w-2=for'
p742
I2728
sS'nsubj=conference'
p743
I831
sS'w-2=priest'
p744
I2878
sS'w-1=you'
p745
I2342
sS'w+2=mortgage'
p746
I1816
sS'dobj=police'
p747
I555
sS'advmod=before'
p748
I77
sS'w+2=water-related'
p749
I1995
sS'nsubj=Burge'
p750
I650
sS'xcomp=talk'
p751
I3137
sS'dobj=kid'
p752
I519
sS'w-2=abroad'
p753
I2592
sS'w+2=start'
p754
I1942
sS'w+2=other'
p755
I1847
sS'w-2=closest'
p756
I2655
sS'nsubj=campaign'
p757
I820
sS'w+1=before'
p758
I1168
sS'w-2=should'
p759
I2928
sS'advcl=go'
p760
I27
sS'w-2=America'
p761
I2364
sS'dobj=man'
p762
I524
sS'w-1=election'
p763
I2211
sS'w-2=Steny'
p764
I2558
sS'nsubj=nation'
p765
I895
sS'nsubj=Salim'
p766
I759
sS'w+1=new'
p767
I1267
sS'nsubjpass=Mbeki'
p768
I965
sS'w-2=car'
p769
I2641
sS'w-1=Kibbutz'
p770
I2088
sS'nsubj=Sudan'
p771
I779
sS'xcomp=urge'
p772
I3140
sS'conj=plot'
p773
I288
sS'nsubj=Kiirmet'
p774
I699
sS'dobj=party'
p775
I545
sS'w-2=can'
p776
I2638
sS'w+2=silver-haired'
p777
I1927
sS'dobj=Alfred'
p778
I375
sS'w-2=step'
p779
I2948
sS'w+2=European'
p780
I1433
sS'neg=not'
p781
I627
sS'w-2=chief'
p782
I2650
sS'w+1=key'
p783
I1251
sS'w+2=enormous'
p784
I1696
sS'advmod=today'
p785
I138
sS'w-1=Faso'
p786
I2058
sS'w-1=housing'
p787
I2242
sS'conj=visit'
p788
I317
sS'w+1=Mr.'
p789
I1121
sS'w-1=Blair'
p790
I2037
sS'nsubjpass=death'
p791
I978
sS'dobj=child'
p792
I467
sS'w+1=early'
p793
I1197
sS'nsubj=Sirleaf'
p794
I773
sS'w+2=Lebanon'
p795
I1477
sS'w-2=office'
p796
I2846
sS'w+2=business'
p797
I1629
sS'w+2=listen'
p798
I1788
sS'w+2=OSCE'
p799
I1507
sS'conj=deny'
p800
I236
sS'w-2=necessary'
p801
I2830
sS'w-2=Washington'
p802
I2578
sS'conj=talk'
p803
I310
sS'advmod=then'
p804
I136
sS'xcomp=demonstrate'
p805
I3061
sS'w+2=Kufuor'
p806
I1474
sS"w-2=Shi'ia"
p807
I2551
sS'w+2=Fidel'
p808
I1435
sS'w+1=earlier'
p809
I1196
sS'w-2=bill'
p810
I2627
sS'w-2=prosecutor'
p811
I2886
sS'w+2=Abu'
p812
I1383
sS'nsubj=Paulson'
p813
I742
sS'conj=friend'
p814
I251
sS'nsubj=ituc'
p815
I878
sS'nsubj=secretary-general'
p816
I932
sS'w+2=between'
p817
I1618
sS'w+2=next'
p818
I1827
sS'w-2=Libya'
p819
I2484
sS'w-1=urologist'
p820
I2330
sS'nsubj=Undersecretary'
p821
I787
sS'w-2=reporter'
p822
I2903
sS'w+1=grandparent'
p823
I1219
sS'w+2=Paris'
p824
I1514
sS'w+2=responsibility'
p825
I1903
sS'xcomp=shut'
p826
I3130
sS'w+2=victim'
p827
I1986
sS'w+1=Prime'
p828
I1127
sS'w+1=until'
p829
I1344
sS'w-2=Goals'
p830
I2436
sS'w-2=Japan'
p831
I2456
sS'w-2=graft'
p832
I2748
sS'w-2=menu'
p833
I2816
sS'w+2=vietnamese'
p834
I1987
sS'w+2=benchmark'
p835
I1617
sS'prep=among'
p836
I1023
sS'w+2=worker'
p837
I2012
sS'w+2=south'
p838
I1937
sS'w-2=since'
p839
I2929
sS'ccomp=return'
p840
I188
sS'prep=within'
p841
I1054
sS'w+1=house'
p842
I1229
sS'w+2=british'
p843
I1622
sS'w+1=that'
p844
I1321
sS'w-2=mauritanian'
p845
I2811
sS'dep=mission'
p846
I351
sS'w-2=Democrats'
p847
I2414
sS'w-2=freely'
p848
I2736
sS'ccomp=spend'
p849
I192
sS'nsubj=Cabinet'
p850
I653
sS'conj=due'
p851
I240
sS'nsubj=both'
p852
I815
sS'w+1=consumer'
p853
I1183
sS'w+1=Russia'
p854
I1129
sS'w+2=broadcasting'
p855
I1623
sS'ccomp=spark'
p856
I191
sS'w+2=vulnerable'
p857
I1993
sS'dobj=goal'
p858
I504
sS'w-1=regional'
p859
I2299
sS'advmod=so'
p860
I132
sS'w-2=commander'
p861
I2658
sS'advmod=just'
p862
I108
sS'w+1=recently'
p863
I1291
sS'w-2=Melbourne'
p864
I2490
sS'w+2=jew'
p865
I1770
sS"dobj=Raba'e"
p866
I424
sS'advcl=arrive'
p867
I3
sS'w+2=night'
p868
I1828
sS'w-1=Cabinet'
p869
I2044
sS'aux=may'
p870
I153
sS'w-1=Obama'
p871
I2113
sS'nsubj=China'
p872
I658
sS'nsubj=earlier'
p873
I846
sS'dep=improve'
p874
I347
sS'dep=shut'
p875
I360
sS'nsubj=Congress'
p876
I664
sS'w-2=at'
p877
I2620
sS'w-2=the'
p878
I2965
sS'nsubj=Kouyate'
p879
I705
sS'advcl=leave'
p880
I34
sS'w+2=poultry'
p881
I1865
sS'nsubj=leader'
p882
I886
sS'advcl=come'
p883
I11
sS'w-2=Tehran'
p884
I2560
sS'w-2=Rivers'
p885
I2534
sS'ccomp=question'
p886
I187
sS'nsubjpass=pope'
p887
I993
sS'dep=lead'
p888
I350
sS'w+2=form'
p889
I1721
sS'w+2=technical'
p890
I1954
sS'mark=unless'
p891
I621
sS'w+1=half'
p892
I1222
sS'parataxis=support'
p893
I1015
sS'w+2=first'
p894
I1714
sS'w+2=seasonal'
p895
I1917
sS'w-2=economic'
p896
I2700
sS'w+2=so-called'
p897
I1932
sS'w-1=have'
p898
I2238
sS'w-2=Senate'
p899
I2547
sS'nsubj=editor'
p900
I848
sS'w+2=reserved'
p901
I1900
sS'w-1=President'
p902
I2124
sS'w+2=-lrb-'
p903
I1369
sS'w+2=in'
p904
I1754
sS'w-2=week'
p905
I3009
sS'w+2=it'
p906
I1766
sS'w-2=hope'
p907
I2764
sS'conj=announce'
p908
I210
sS'w+2=find'
p909
I1713
sS'w-2=proposal'
p910
I2885
sS'w+2=syrian'
p911
I1950
sS'w+2=Bush'
p912
I1405
sS'w+1=Ahern'
p913
I1092
sS'prep=about'
p914
I1019
sS'aux=can'
p915
I149
sS'dobj=love'
p916
I523
sS'w+1=internationally'
p917
I1243
sS'ccomp=need'
p918
I185
sS'w-2=Israel'
p919
I2453
sS'w-2=General'
p920
I2433
sS'advmod=at'
p921
I74
sS'w-2=emerge'
p922
I2703
sS'nsubj=congressman'
p923
I832
sS'w-1=Il'
p924
I2078
sS'w-1=government'
p925
I2233
sS'w+1=Santa'
p926
I1131
sS'w+1=government'
p927
I1218
sS'w-2=Benedict'
p928
I2385
sS'dobj=Olmert'
p929
I419
sS'w+2=thousand'
p930
I1967
sS'dobj=brother'
p931
I459
sS'w+2=take'
p932
I1951
sS'w+2=raucous'
p933
I1879
sS'dobj=pocket'
p934
I554
sS'advmod=only'
p935
I121
sS'nsubjpass=violation'
p936
I1004
sS'w+2=immediately'
p937
I1752
sS'w+2=consequence'
p938
I1660
sS'nsubj=host'
p939
I873
sS'w-2=halfway'
p940
I2752
sS'csubj=look'
p941
I323
sS'w+1=for'
p942
I1211
sS'w-1=activist'
p943
I2161
sS'w-2=that'
p944
I2964
sS'nsubj=orchestra'
p945
I901
sS'conj=bruise'
p946
I220
sS'nsubjpass=Torch'
p947
I966
sS'advmod=largely'
p948
I110
sS'w-1=Mukherjee'
p949
I2106
sS'prep=to'
p950
I1049
sS'dobj=program'
p951
I561
sS'w+2=21st'
p952
I1379
sS'nsubj=Myung-bak'
p953
I729
sS'w-2=voter'
p954
I3003
sS'w-1=agreement'
p955
I2165
sS'conj=make'
p956
I272
sS'w+2=soar'
p957
I1933
sS'w+2=even'
p958
I1701
sS'w-2=Khartoum'
p959
I2468
sS'nsubj=burma'
p960
I817
sS'w+2=increase'
p961
I1755
sS'dobj=somebody'
p962
I584
sS'nsubj=Siniora'
p963
I772
sS'nsubjpass=development'
p964
I981
sS'w+1=Gates'
p965
I1105
sS'w+2=emission'
p966
I1694
sS'w+2=rapidly'
p967
I1878
sS'dobj=need'
p968
I534
sS'w+2=tribal'
p969
I1974
sS'xcomp=disclose'
p970
I3065
sS'w-2=congressional'
p971
I2668
sS'w-2=unable'
p972
I2990
sS'w+2=numerous'
p973
I1834
sS'w+2=bosnian'
p974
I1620
sS'dobj=which'
p975
I603
sS'w+2=Islamabad'
p976
I1456
sS'w+2=we'
p977
I1997
sS'dobj=all'
p978
I446
sS'w+2=rebel'
p979
I1882
sS'w-2=Sahara'
p980
I2540
sS'nsubjpass=need'
p981
I987
sS'nsubj=hub'
p982
I875
sS'w+1=project'
p983
I1288
sS'w-1=al-Iraqi'
p984
I2167
sS'xcomp=qualify'
p985
I3109
sS'conj=invite'
p986
I264
sS'w-2=seek'
p987
I2921
sS'w+2=important'
p988
I1753
sS'w+2=official'
p989
I1838
sS'nsubj=Nelson'
p990
I734
sS'w-2=change'
p991
I2649
sS'w+1=single'
p992
I1305
sS'nsubj=initiative'
p993
I876
sS'w+2=compete'
p994
I1654
sS'w-1=Solana'
p995
I2148
sS'w+2=pairing'
p996
I1849
sS'w-2=Nouri'
p997
I2508
sS'advmod=rarely'
p998
I126
sS'nsubj=Koreans'
p999
I703
sS'advcl=speak'
p1000
I53
sS'w-1=representative'
p1001
I2301
sS'w+2=grassland'
p1002
I1732
sS'nsubj=announcement'
p1003
I805
sS'w-2=aircraft'
p1004
I2603
sS'w-2=court'
p1005
I2675
sS'dobj=reckoning'
p1006
I565
sS'w-2=environment'
p1007
I2708
sS'conj=exceed'
p1008
I244
sS'dobj=boss'
p1009
I458
sS'w-2=Iraq'
p1010
I2450
sS'w+2=national'
p1011
I1821
sS'w+1=soldier'
p1012
I1308
sS'dobj=people'
p1013
I548
sS'w+2=top'
p1014
I1973
sS'w+1=behind'
p1015
I1169
sS'rel=in'
p1016
I1059
sS'w+2=religious'
p1017
I1891
sS'w-2=where'
p1018
I3012
sS'advmod=meanwhile'
p1019
I115
sS'w-2=Bush'
p1020
I2393
sS'dobj=Katz'
p1021
I405
sS'w-2=York'
p1022
I2584
sS'nsubj=Schieffer'
p1023
I764
sS'w+2=EU'
p1024
I1427
sS'xcomp=agree'
p1025
I3034
sS'nsubj=Kufuor'
p1026
I706
sS'w+2=schedule'
p1027
I1914
sS'w+2=eye'
p1028
I1705
sS'w+2=Jerusalem'
p1029
I1459
sS'w+2=Czech'
p1030
I1416
sS'w+2=hero'
p1031
I1741
sS'nsubj=boy'
p1032
I816
sS'w-1=Djinnit'
p1033
I2055
sS'w-1=Memphis'
p1034
I2100
sS'w-2=declaration'
p1035
I2682
sS'w+2=Risha'
p1036
I1526
sS'dobj=Hassoun'
p1037
I399
sS'w+1=western'
p1038
I1349
sS'nsubj=Chavez'
p1039
I656
sS'nsubj=that'
p1040
I945
sS'advmod=personally'
p1041
I123
sS'w+2=month'
p1042
I1813
sS'w+1=woman'
p1043
I1356
sS'w+1=Bin'
p1044
I1096
sS'prep=over'
p1045
I1043
sS'dobj=aspiration'
p1046
I453
sS'w-1=Government'
p1047
I2068
sS'dobj=official'
p1048
I539
sS'w+1=young'
p1049
I1361
sS'conj=limit'
p1050
I269
sS'w-1=ten'
p1051
I2317
sS'conj=give'
p1052
I254
sS'w-2=whom'
p1053
I3016
sS'xcomp=criterion'
p1054
I3055
sS'nsubjpass=that'
p1055
I1003
sS'w-2=Gates'
p1056
I2432
sS'w+1=haitian'
p1057
I1221
sS'conj=let'
p1058
I268
sS'nsubj=voter'
p1059
I954
sS'w-2=Pope'
p1060
I2521
sS'w+2=NATO'
p1061
I1498
sS'dobj=jew'
p1062
I518
sS'w-1=Gadhafi'
p1063
I2061
sS'nsubjpass=goal'
p1064
I983
sS'w+2=acute'
p1065
I1581
sS'w+2=Abbas'
p1066
I1382
sS'w-2=able'
p1067
I2591
sS'ccomp=be'
p1068
I165
sS'w-1=with'
p1069
I2339
sS'w+2=Mychal'
p1070
I1497
sS'w-2=continue'
p1071
I2671
sS'w+1=Taleban'
p1072
I1138
sS'w+2=own'
p1073
I1848
sS'w-2=Kufuor'
p1074
I2477
sS'w-1=yet'
p1075
I2341
sS'w-1=minister'
p1076
I2263
sS'w+2=baby'
p1077
I1609
sS'w-2=game'
p1078
I2741
sS'w-2=Hamilton'
p1079
I2440
sS'nsubj=minister'
p1080
I892
sS'advmod=alone'
p1081
I69
sS'conj=no'
p1082
I278
sS'w+2=whole'
p1083
I2006
sS'dobj=figure'
p1084
I501
sS'w+2=two-hour'
p1085
I1980
sS'w+2=London'
p1086
I1480
sS'w+1=--'
p1087
I1081
sS'parataxis=say'
p1088
I1013
sS'w-1=Korea'
p1089
I2090
sS'w+2=mid-april'
p1090
I1805
sS'w+2=state'
p1091
I1943
sS'dobj=cost'
p1092
I476
sS'w+1=burma'
p1093
I1174
sS'w-2=require'
p1094
I2904
sS'w-2=public'
p1095
I2889
sS'w-1=commission'
p1096
I2195
sS'w-2=``'
p1097
I2588
sS'advcl=before'
p1098
I8
sS'dobj=term'
p1099
I591
sS'w+2=constituent'
p1100
I1662
sS'w+2=Tanzania'
p1101
I1557
sS'w-2=democratic'
p1102
I2688
sS'acomp=political'
p1103
I1
sS'dobj=Hamas'
p1104
I398
sS'w-1=the'
p1105
I2320
sS'nsubj=Yushchenko'
p1106
I796
sS'nsubj=Putin'
p1107
I747
sS'w+2=Eritrea'
p1108
I1431
sS'w-2=muslim'
p1109
I2826
sS'w-2=EU'
p1110
I2417
sS'w+2=Thursday'
p1111
I1560
sS'w-1=announcement'
p1112
I2172
sS'advmod=internationally'
p1113
I106
sS'advcl=here'
p1114
I30
sS'w+2=safety'
p1115
I1911
sS'w-2=religion'
p1116
I2900
sS'nsubj=effort'
p1117
I849
sS'mark=till'
p1118
I620
sS'w+2=west'
p1119
I2000
sS'w+2=deputy'
p1120
I1678
sS'dobj=reporter'
p1121
I567
sS'w-2=al-Islam'
p1122
I2604
sS'w+2=definition'
p1123
I1675
sS'w-2=Shimon'
p1124
I2552
sS'nsubj=agreement'
p1125
I799
sS'conj=confer'
p1126
I228
sS'w-2=deal'
p1127
I2678
sS'w-1=committee'
p1128
I2196
sS'w-2=precondition'
p1129
I2874
sS'w-2=Powell'
p1130
I2522
sS'w+2=e.u.'
p1131
I1687
sS'dep=before'
p1132
I332
sS'w+2=palestinian'
p1133
I1851
sS'nsubjpass=cost'
p1134
I976
sS'dobj=earlier'
p1135
I489
sS'w-1=Yushchenko'
p1136
I2157
sS'dobj=lot'
p1137
I522
sS'advmod=last'
p1138
I111
sS'w-2=Health'
p1139
I2441
sS'nsubj=Amado'
p1140
I637
sS'w-1=three'
p1141
I2324
sS'w-2=XVI'
p1142
I2581
sS'w-2=allow'
p1143
I2607
sS'w-1=John'
p1144
I2084
sS'w+2=Kazakh'
p1145
I1466
sS'w+2=cave'
p1146
I1638
sS'w-2=White'
p1147
I2580
sS'w+1=to'
p1148
I1333
sS'nsubj=expert'
p1149
I857
sS'w+1=three-and-a-half'
p1150
I1331
sS'xcomp=change'
p1151
I3045
sS'w+2=close'
p1152
I1647
sS'xcomp=engage'
p1153
I3073
sS'w-2=negotiate'
p1154
I2832
sS'w+2=food'
p1155
I1717
sS'w+2=he'
p1156
I1739
sS'w-1=Somalia'
p1157
I2149
sS'w+1=twice'
p1158
I1338
sS'w-2=David'
p1159
I2410
sS'conj=sit'
p1160
I304
sS'w-2=Bhattarai'
p1161
I2388
sS'w+2=Washington'
p1162
I1571
sS'nsubjpass=objection'
p1163
I989
sS'w+1=immediate'
p1164
I1233
sS'advmod=barely'
p1165
I76
sS'xcomp=draft'
p1166
I3067
sS'w-2=capable'
p1167
I2640
sS'w+2=California'
p1168
I1407
sS'ccomp=start'
p1169
I193
sS'w+1=include'
p1170
I1236
sS'nsubj=Ambassador'
p1171
I638
sS'w-2=mobilize'
p1172
I2822
sS'advmod=first'
p1173
I94
sS'xcomp=brief'
p1174
I3041
sS'advmod=in'
p1175
I102
sS'w-1=Siniora'
p1176
I2146
sS'w-2=news'
p1177
I2834
sS'advmod=face-to-face'
p1178
I92
sS'w-2=biofuel'
p1179
I2628
sS'w+2=approval'
p1180
I1600
sS'xcomp=encourage'
p1181
I3071
sS'w+2=September'
p1182
I1543
sS'w+2=April'
p1183
I1391
sS'dep=evening'
p1184
I342
sS'w-2=first'
p1185
I2725
sS'w+2=monk'
p1186
I1812
sS'dep=who'
p1187
I368
sS'conj=hammer'
p1188
I257
sS'nsubj=Man'
p1189
I713
sS'advmod=shortly'
p1190
I131
sS'w-2=Ozawa'
p1191
I2511
sS'dobj=Oscars'
p1192
I420
sS'w-2=agriculture'
p1193
I2601
sS'conj=play'
p1194
I286
sS'w+1=strict'
p1195
I1316
sS'w-2=jatropha'
p1196
I2789
sS'w-2=state'
p1197
I2945
sS'w+2=Brazil'
p1198
I1401
sS'w-2=Putin'
p1199
I2526
sS'nsubj=Conde'
p1200
I663
sS"w-1='ll"
p1201
I2019
sS'w+2=mutual'
p1202
I1818
sS'conj=repeat'
p1203
I292
sS'w-2=Kofi'
p1204
I2474
sS'ccomp=devastating'
p1205
I172
sS'conj=plan'
p1206
I285
sS'dobj=Risha'
p1207
I427
sS'advmod=close'
p1208
I82
sS'w+2=Prague'
p1209
I1519
sS'tmod=day'
p1210
I1067
sS'w+2=economic'
p1211
I1689
sS'w-1=Fallon'
p1212
I2057
sS'w+2=father'
p1213
I1707
sS'nsubj=Hamas'
p1214
I682
sS'w+1=since'
p1215
I1304
sS'nsubj=battery'
p1216
I811
sS'advmod=there'
p1217
I137
sS'w+2=senator'
p1218
I1919
sS'dep=time'
p1219
I364
sS'nsubj=Lieberman'
p1220
I709
sS'w+2=U.N.'
p1221
I1566
sS'w+2=Kampala'
p1222
I1465
sS'w-2=Paul'
p1223
I2517
sS'w+2=twin'
p1224
I1978
sS'w+2=many'
p1225
I1797
sS'w-2=Triet'
p1226
I2568
sS'w+1=less'
p1227
I1257
sS'w-1=Negroponte'
p1228
I2111
sS'nsubj=decision'
p1229
I838
sS'nsubj=States'
p1230
I777
sS'xcomp=choose'
p1231
I3046
sS'w-2=six'
p1232
I2932
sS'dobj=set'
p1233
I577
sS'w-2=Fayyad'
p1234
I2429
sS'w-1=Ocean'
p1235
I2114
sS'xcomp=inspect'
p1236
I3085
sS'advcl=schedule'
p1237
I50
sS'w+2=its'
p1238
I1768
sS'dobj=change'
p1239
I464
sS'w-2=plan'
p1240
I2869
sS'w-1=Paulson'
p1241
I2120
sS'conj=urge'
p1242
I316
sS'nsubjpass=security'
p1243
I1000
sS'w-2=China'
p1244
I2398
sS'advmod=somewhere'
p1245
I133
sS'w-1=barely'
p1246
I2177
sS'conj=address'
p1247
I205
sS'w-2=vital'
p1248
I3001
sS'conj=put'
p1249
I289
sS'w+2=captor'
p1250
I1637
sS'xcomp=advance'
p1251
I3033
sS'w+1=laud'
p1252
I1255
sS'w-2=willingness'
p1253
I3020
sS'dobj=member'
p1254
I526
sS'w-1=last'
p1255
I2253
sS'dobj=problem'
p1256
I560
sS'advmod=away'
p1257
I75
sS'w-2=nation'
p1258
I2829
sS'w-2=Toumany'
p1259
I2565
sS'w+2=Pakistani'
p1260
I1512
sS'cc=also'
p1261
I161
sS'dobj=Win'
p1262
I438
sS'dep=challenge'
p1263
I334
sS'advcl=release'
p1264
I47
sS'prep=toward'
p1265
I1050
sS'w-1=Samak'
p1266
I2138
sS'w+2=objective'
p1267
I1835
sS'w-2=Ying-jeou'
p1268
I2583
sS'tmod=anytime'
p1269
I1066
sS'w+1=standard'
p1270
I1315
sS'nsubj=Mulford'
p1271
I727
sS'ccomp=discuss'
p1272
I173
sS'w+2=Energy'
p1273
I1430
sS'dobj=may'
p1274
I525
sS'w-1=Brussels'
p1275
I2039
sS'w-2=nice'
p1276
I2835
sS'w+1=Sudan'
p1277
I1135
sS'conj=continue'
p1278
I229
sS'w-1=Sangare'
p1279
I2139
sS'xcomp=prepare'
p1280
I3103
sS'nsubj=lady'
p1281
I883
sS'w-2=Mahmoud'
p1282
I2486
sS'w-1=king'
p1283
I2249
sS'xcomp=try'
p1284
I3139
sS'w-2=Pyongyang'
p1285
I2527
sS'w-2=concern'
p1286
I2664
sS'w-1=personally'
p1287
I2290
sS'w-2=Regional'
p1288
I2530
sS'w-2=Palestinians'
p1289
I2514
sS'w-2=clinic'
p1290
I2654
sS'w+2=shortfall'
p1291
I1925
sS'xcomp=take'
p1292
I3136
sS'w+2=potential'
p1293
I1864
sS'advmod=currently'
p1294
I85
sS'nsubj=Democrats'
p1295
I669
sS'nsubj=korean'
p1296
I882
sS'w+2=Armando'
p1297
I1393
sS'xcomp=crop'
p1298
I3056
sS'w+1=student'
p1299
I1318
sS'ccomp=expect'
p1300
I176
sS'w+2=recruiting'
p1301
I1888
sS'w-2=service'
p1302
I2923
sS'w+2=know'
p1303
I1775
sS'nsubj=Sarkozy'
p1304
I762
sS'nsubj=Commission'
p1305
I661
sS'prep=include'
p1306
I1038
sS'w+1=here'
p1307
I1225
sS'w+2=Johnson'
p1308
I1461
sS'ccomp=inappropriate'
p1309
I181
sS'w-2=Peter'
p1310
I2518
sS'dep=get'
p1311
I345
sS'xcomp=end'
p1312
I3072
sS'w+2=some'
p1313
I1934
sS'nsubj=official'
p1314
I899
sS'w+2=ever-growing'
p1315
I1703
sS'dobj=standard'
p1316
I586
sS'xcomp=push'
p1317
I3108
sS'advcl=see'
p1318
I51
sS'dobj=U.S.'
p1319
I436
sS'w+1=husband'
p1320
I1231
sS'nsubj=deal'
p1321
I837
sS'w+1=open'
p1322
I1277
sS'w-2=standard'
p1323
I2944
sS'nsubj=younger'
p1324
I962
sS'advcl=early'
p1325
I20
sS'cc=but'
p1326
I163
sS'advcl=expect'
p1327
I24
sS'acomp=great'
p1328
I0
sS'w-1=Mulford'
p1329
I2107
sS'w-1=who'
p1330
I2336
sS'xcomp=make'
p1331
I3094
sS'w-1=help'
p1332
I2240
sS'conj=report'
p1333
I293
sS'xcomp=clear'
p1334
I3048
sS'dobj=Smith'
p1335
I434
sS'w-2=same'
p1336
I2913
sS'w-1=Rudd'
p1337
I2134
sS'w+2=Nicosia'
p1338
I1502
sS'w-2=leg'
p1339
I2801
sS'conj=hear'
p1340
I259
sS'w-2=speak'
p1341
I2939
sS'w+2=Brussels'
p1342
I1402
sS'conj=generate'
p1343
I252
sS'w-2=begin'
p1344
I2624
sS'w+2=Sudan'
p1345
I1553
sS'w+2=Chavez'
p1346
I1412
sS'w+2=deadline'
p1347
I1672
sS'w+1=today'
p1348
I1334
sS'dobj=Yanukovych'
p1349
I440
sS'w-1=better'
p1350
I2182
sS'w-2=industrialize'
p1351
I2777
sS'w-2=evil'
p1352
I2715
sS'w-2=demand'
p1353
I2686
sS'conj=ensure'
p1354
I242
sS'w+2=labor'
p1355
I1777
sS'advcl=end'
p1356
I22
sS'xcomp=note'
p1357
I3100
sS'w-2=of'
p1358
I2844
sS'w-1=largely'
p1359
I2252
sS'w-2=briefing'
p1360
I2633
sS'xcomp=select'
p1361
I3126
sS'nsubj=man'
p1362
I887
sS'w+2=hold'
p1363
I1742
sS'w-2=Kevin'
p1364
I2466
sS'dobj=there'
p1365
I594
sS'nsubj=which'
p1366
I956
sS'w-1=far'
p1367
I2222
sS'w-1=Kouchner'
p1368
I2092
sS'w-1=administration'
p1369
I2163
sS'w-2=FAO'
p1370
I2427
sS'purpcl=consider'
p1371
I1057
sS'w+2=conjunction'
p1372
I1659
sS'dep=come'
p1373
I335
sS'nsubjpass=target'
p1374
I1002
sS'conj=turn'
p1375
I314
sS'w+2=,000'
p1376
I1366
sS'w+2=voting'
p1377
I1992
sS'advmod=recently'
p1378
I127
sS'w-1=fan'
p1379
I2221
sS'w-1=Roh'
p1380
I2133
sS'w-1=Rice'
p1381
I2131
sS'w-2=shortly'
p1382
I2927
sS'w+1=once'
p1383
I1273
sS'w+2=Kenya'
p1384
I1467
sS'w-1=Ecuador'
p1385
I2056
sS'w+2=right'
p1386
I1904
sS'w+2=Sydney'
p1387
I1555
sS'dobj=representative'
p1388
I568
sS'w+2=Philippine'
p1389
I1515
sS'w-2=due'
p1390
I2698
sS'w-2=Hamas'
p1391
I2439
sS'w+2=Bangkok'
p1392
I1399
sS'prep=base'
p1393
I1027
sS'dobj=one-on-one'
p1394
I540
sS'w+1=Dr.'
p1395
I1100
sS'w-2=da'
p1396
I2677
sS'advmod=elsewhere'
p1397
I89
sS'nsubj=Casey'
p1398
I655
sS'w-2=importance'
p1399
I2770
sS'nsubj=Triet'
p1400
I786
sS'nsubj=negotiator'
p1401
I896
sS'conj=ahead'
p1402
I208
sS'w+1=Burmese'
p1403
I1098
sS'w-2=could'
p1404
I2672
sS'w-2=enough'
p1405
I2707
sS'w-2=secretary-general'
p1406
I2919
sS'dobj=consequence'
p1407
I475
sS'w+1=up'
p1408
I1345
sS'w-1=start'
p1409
I2312
sS'w+1=while'
p1410
I1353
sS'w-2=until'
p1411
I2994
sS'prep=across'
p1412
I1020
sS'w+2=hungarian'
p1413
I1750
sS'w-1=product'
p1414
I2294
sS'w-2=try'
p1415
I2987
sS'advcl=articulate'
p1416
I4
sS'dobj=target'
p1417
I590
sS'dobj=Musharraf'
p1418
I415
sS'nsubj=faction'
p1419
I859
sS'w-1=Hamas'
p1420
I2072
sS'w+2=those'
p1421
I1966
sS'w-1=Odinga'
p1422
I2115
sS'w+2=ambition'
p1423
I1592
sS'w-2=Conde'
p1424
I2402
sS'w-2=behind'
p1425
I2625
sS'w-2=region'
p1426
I2898
sS'w-2=on'
p1427
I2849
sS'w-1=pope'
p1428
I2291
sS'w+1=with'
p1429
I1354
sS'nsubj=Menon'
p1430
I718
sS'w-2=goal'
p1431
I2745
sS'w+1=late'
p1432
I1253
sS'dobj=house'
p1433
I514
sS'xcomp=go'
p1434
I3080
sS'dobj=shortage'
p1435
I578
sS'w+2=face'
p1436
I1706
sS'w-2=european'
p1437
I2713
sS'w-2=nonetheless'
p1438
I2838
sS'w+2=pledge'
p1439
I1861
sS'w-2=-'
p1440
I2346
sS'w-2=.'
p1441
I2349
sS'w-2=speech'
p1442
I2941
sS'w-2=Jakarta'
p1443
I2455
sS'w+2=Iraq'
p1444
I1454
sS'dobj=number'
p1445
I536
sS'aux=have'
p1446
I152
sS'nsubj=service'
p1447
I933
sS'w+2=Iran'
p1448
I1452
sS'w-2=:'
p1449
I2354
sS'w-2=Union'
p1450
I2574
sS'w-2=turk-cypriot'
p1451
I2988
sS'nsubj=diplomat'
p1452
I843
sS'w+2=flee'
p1453
I1716
sS'xcomp=comply'
p1454
I3049
sS'w+2=constitutional'
p1455
I1663
sS'w-2=South'
p1456
I2554
sS'dobj=Prachanda'
p1457
I423
sS'w-2=I'
p1458
I2447
sS'w+2=United'
p1459
I1569
sS'w-2=Olmert'
p1460
I2510
sS'nsubj=Committee'
p1461
I662
sS'w-2=song'
p1462
I2937
sS'w-2=woman'
p1463
I3021
sS'w+1=Japan'
p1464
I1112
sS'w+1=japanese'
p1465
I1248
sS'w+2=Wednesday'
p1466
I1572
sS'conj=help'
p1467
I260
sS'w-2=face'
p1468
I2718
sS'dobj=deadline'
p1469
I481
sS'w+2=Friday'
p1470
I1440
sS'w+2=interest'
p1471
I1759
sS'w-1=Camp'
p1472
I2045
sS'w-2=Saturday'
p1473
I2542
sS'w-2=`'
p1474
I2587
sS'w-2=a'
p1475
I2589
sS'nsubj=ban'
p1476
I810
sS'w-1=Sharif'
p1477
I2143
sS'advcl=retire'
p1478
I49
sS'nsubj=Abdullah'
p1479
I632
sS'w+1=union'
p1480
I1342
sS'w+1=challenge'
p1481
I1178
sS'nsubj=democrat'
p1482
I841
sS'w+1=high'
p1483
I1226
sS'dobj=Bush'
p1484
I381
sS'w+2=MDG'
p1485
I1483
sS'w+2=standard'
p1486
I1941
sS'w-2=make'
p1487
I2807
sS'w+1=saudi'
p1488
I1298
sS'w+1=many'
p1489
I1262
sS'w+2=Secretary'
p1490
I1538
sS'w-2=scale'
p1491
I2916
sS'w-2=member'
p1492
I2815
sS'w+2=King'
p1493
I1471
sS'neg=never'
p1494
I626
sS'nsubj=plan'
p1495
I910
sS'w+2=shout'
p1496
I1926
sS'w+1=Somalia'
p1497
I1133
sS'w+2=survive'
p1498
I1948
sS'dep=overturn'
p1499
I356
sS'w+2=immediate'
p1500
I1751
sS'w+2=senior'
p1501
I1920
sS'w-2=Afghanistan'
p1502
I2358
sS'nsubjpass=condition'
p1503
I975
sS'w-1=congressman'
p1504
I2197
sS'dobj=commitment'
p1505
I471
sS'w-2=Cambodia'
p1506
I2395
sS'w+2=hostage'
p1507
I1745
sS'dep=visit'
p1508
I366
sS'dobj=veteran'
p1509
I597
sS'dobj=Union'
p1510
I437
sS'dobj=republic'
p1511
I569
sS'w-2=Mullen'
p1512
I2499
sS'xcomp=reduce'
p1513
I3115
sS'w-2=Elissa'
p1514
I2422
sS'nsubj=dozen'
p1515
I845
sS'w-2=develop'
p1516
I2691
sS'nsubj=elector'
p1517
I851
sS'dobj=responsibility'
p1518
I573
sS'xcomp=send'
p1519
I3127
sS'w-2=likely'
p1520
I2803
sS'w-2=Leone'
p1521
I2482
sS'w+1=hour'
p1522
I1228
sS'mark=since'
p1523
I616
sS'w-1=ever'
p1524
I2217
sS'w+2=U.S.'
p1525
I1567
sS'w-1=even'
p1526
I2215
sS'prep=from'
p1527
I1036
sS'w+2=term'
p1528
I1956
sS'w+1=when'
p1529
I1352
sS'w+2=Dovid'
p1530
I1425
sS'w-1=artist'
p1531
I2173
sS'nsubj=SLPP'
p1532
I756
sS'w-2=security'
p1533
I2920
sS'w-2=Angela'
p1534
I2367
sS'w+2=opposition'
p1535
I1845
sS'dobj=voter'
p1536
I600
sS'w+2=reconstruction'
p1537
I1886
sS'dobj=some'
p1538
I583
sS'w-1=al-Atiya'
p1539
I2166
sS'w-2=Ban'
p1540
I2377
sS'tmod=week'
p1541
I1077
sS'w+1=,'
p1542
I1080
sS'w+1=.'
p1543
I1084
sS'xcomp=strengthen'
p1544
I3133
sS'dep=after'
p1545
I328
sS'w+2=home'
p1546
I1743
sS'w-1=Chavez'
p1547
I2048
sS'w-2=such'
p1548
I2954
sS'ccomp=lay'
p1549
I182
sS'conj=show'
p1550
I302
sS'conj=tell'
p1551
I311
sS'w+2=lebanese'
p1552
I1783
sS'w-1=knowingly'
p1553
I2250
sS'w-1=Hayden'
p1554
I2073
sS'w+1=I'
p1555
I1110
sS'w-2=satisfactory'
p1556
I2914
sS'w-1=colleague'
p1557
I2193
sS'w+2=Sharm'
p1558
I1545
sS'w+2=representative'
p1559
I1894
sS'dobj=Goals'
p1560
I395
sS'w+2=Arusha'
p1561
I1394
sS'w-2=IAEA'
p1562
I2448
sS'mark=with'
p1563
I624
sS'w-2=measure'
p1564
I2813
sS'w+1=a'
p1565
I1148
sS'w-1=Seck'
p1566
I2142
sS'w-1=later'
p1567
I2254
sS'w+2=demand'
p1568
I1676
sS"w-2=Sa'id"
p1569
I2539
sS'w+1=U.S.'
p1570
I1141
sS'advmod=reportedly'
p1571
I129
sS'w+2=woman'
p1572
I2010
sS'w-2=because'
p1573
I2622
sS'w+2=push'
p1574
I1874
sS'nsubjpass=all'
p1575
I968
sS'w+1=Hassoun'
p1576
I1108
sS'xcomp=rally'
p1577
I3111
sS'w+2=Afghan'
p1578
I1385
sS'w+2=ally'
p1579
I1591
sS'w-2=Schieffer'
p1580
I2543
sS'w+2=minimum'
p1581
I1806
sS'dobj=right'
p1582
I574
sS'w-2=Germany'
p1583
I2435
sS'nsubj=Negroponte'
p1584
I733
sS'nsubj=Ban'
p1585
I645
sS'nsubj=Saudi'
p1586
I763
sS'w-2=Fuad'
p1587
I2431
sS'nsubj=urologist'
p1588
I951
sS'w+2=2010'
p1589
I1377
sS'w+2=japanese'
p1590
I1769
sS'w+2=among'
p1591
I1593
sS'w-2=IDP'
p1592
I2449
sS'dobj=CHARLI'
p1593
I382
sS'conj=lose'
p1594
I271
sS'w-2=trial'
p1595
I2984
sS'dobj=board'
p1596
I457
sS'advcl=prepare'
p1597
I44
sS'xcomp=salvage'
p1598
I3123
sS'w+1=minimum'
p1599
I1264
sS'w+2=Tall'
p1600
I1556
sS'xcomp=use'
p1601
I3141
sS'w+2=Jackson'
p1602
I1458
sS'xcomp=earn'
p1603
I3068
sS'w+2=near-universal'
p1604
I1822
sS'w-2=site'
p1605
I2931
sS'w-1=Musharraf'
p1606
I2108
sS"w+2=Sa'ad"
p1607
I1531
sS'w+1=Millennium'
p1608
I1119
sS'w+2=romanian'
p1609
I1908
sS'w-1=Pelosi'
p1610
I2121
sS'w-2=temporary'
p1611
I2963
sS'dobj=group'
p1612
I508
sS'w+1=specific'
p1613
I1314
sS'nsubj=wife'
p1614
I958
sS'w+2=auto'
p1615
I1608
sS'w-2=condition'
p1616
I2665
sS'w+2=scorn'
p1617
I1916
sS'w-1=normally'
p1618
I2271
sS'nsubj=desert'
p1619
I842
sS'w-2=Chavez'
p1620
I2397
sS'w-2=founding'
p1621
I2734
sS'w+2=child'
p1622
I1642
sS'nsubj=council'
p1623
I835
sS'w-2=tribal'
p1624
I2985
sS'w+1=individually'
p1625
I1239
sS'w+2=monthly'
p1626
I1814
sS'advmod=halfway'
p1627
I98
sS'w-2=intention'
p1628
I2782
sS'w+1=top'
p1629
I1336
sS'xcomp=explain'
p1630
I3075
sS'w+1=these'
p1631
I1326
sS'w+1=only'
p1632
I1276
sS'w-2=from'
p1633
I2738
sS'w+1=too'
p1634
I1335
sS'w-2=intend'
p1635
I2781
sS'w+1=libyan'
p1636
I1259
sS'w-1=delegation'
p1637
I2204
sS'nsubj=signatory'
p1638
I935
sS'ccomp=drink'
p1639
I174
sS'nsubj=Benedict'
p1640
I647
sS'w-2=employer'
p1641
I2704
sS'nsubj=proposal'
p1642
I922
sS'tmod=December'
p1643
I1062
sS'parataxis=examine'
p1644
I1007
sS'w+2=Foreign'
p1645
I1436
sS'nsubjpass=budget'
p1646
I972
sS'advcl=ashamed'
p1647
I5
sS'w+2=scientist'
p1648
I1915
sS'w-2=25'
p1649
I2353
sS'w-2=Council'
p1650
I2406
sS'w-2=power'
p1651
I2873
sS'w-1=likely'
p1652
I2256
sS'dep=Hutus'
p1653
I326
sS'w-1=negotiator'
p1654
I2268
sS'w+1=bilaterally'
p1655
I1170
sS'w-2=chance'
p1656
I2648
sS'w-2=will'
p1657
I3018
sS'conj=challenge'
p1658
I225
sS'advcl=take'
p1659
I57
sS'w-2=benchmark'
p1660
I2626
sS'w-2=today'
p1661
I2975
sS'tmod=morning'
p1662
I1072
sS'w+1=Arab'
p1663
I1094
sS'nsubj=king'
p1664
I880
sS'w-2=decide'
p1665
I2680
sS'dep=depose'
p1666
I337
sS'w+2=Los'
p1667
I1481
sS'advmod=partially'
p1668
I122
sS'w+2=obligation'
p1669
I1836
sS'w+2=marxist'
p1670
I1799
sS'conj=need'
p1671
I276
sS'nsubj=Islamabad'
p1672
I690
sS'advcl=meeting'
p1673
I38
sS'w+2=Muslims'
p1674
I1495
sS'w-2=Diallo'
p1675
I2415
sS'w+1=Islamists'
p1676
I1111
sS'complm=that'
p1677
I198
sS'w+2=Kigali'
p1678
I1469
sS'w+2=weekend'
p1679
I1999
sS'nsubj=scientist'
p1680
I930
sS'w-1=really'
p1681
I2296
sS'tmod=month'
p1682
I1071
sS'w-2=yet'
p1683
I3027
sS'w+2=legal'
p1684
I1784
sS'nsubj=buyer'
p1685
I818
sS'w+1=veteran'
p1686
I1346
sS'w-1=Ilia'
p1687
I2079
sS'w-2=boy'
p1688
I2632
sS'w-1=Hakim'
p1689
I2071
sS'w+2=world'
p1690
I2013
sS'w+2=Johannesburg'
p1691
I1460
sS'dep=order'
p1692
I354
sS'w+2=President'
p1693
I1520
sS'dobj=al-Bashir'
p1694
I445
sS'nsubj=person'
p1695
I908
sS'w+1=then'
p1696
I1323
sS'w-2=Ki-moon'
p1697
I2469
sS'w+2=Speaker'
p1698
I1550
sS'w+1=most'
p1699
I1265
sS'w+2=north'
p1700
I1830
sS'w+1=yesterday'
p1701
I1359
sS'w+1=they'
p1702
I1327
sS'nsubj=Israel'
p1703
I691
sS'tmod=yesterday'
p1704
I1079
sS'w-2=former'
p1705
I2732
sS'w+1=those'
p1706
I1329
sS'w+2=requirement'
p1707
I1898
sS'dobj=Yusuf'
p1708
I441
sS'w-1=hardly'
p1709
I2237
sS'prep=in'
p1710
I1037
sS'dobj=Mubarak'
p1711
I413
sS'w-1=Hill'
p1712
I2074
sS'w-1=about'
p1713
I2158
sS'w-1=character'
p1714
I2192
sS'advmod=yet'
p1715
I146
sS'conj=notify'
p1716
I279
sS'prep=amid'
p1717
I1022
sS'xcomp=promote'
p1718
I3105
sS'w-2=slow'
p1719
I2933
sS'w+1=grow'
p1720
I1220
sS'w+2=renew'
p1721
I1892
sS'dobj=physician'
p1722
I552
sS'conj=vow'
p1723
I319
sS'dobj=threat'
p1724
I595
sS'w+1=lesser'
p1725
I1258
sS'w+2=political'
p1726
I1862
sS'w+2=counterpart'
p1727
I1665
sS'w-2=meeting'
p1728
I2814
sS'w+2=basement'
p1729
I1612
sS'nsubjpass=denial'
p1730
I980
sS'dobj=resistance'
p1731
I572
sS'w-2=north'
p1732
I2839
sS'xcomp=keep'
p1733
I3087
sS'w-2=Annan'
p1734
I2368
sS'w-2=Condoleeza'
p1735
I2403
sS'nsubj=knight'
p1736
I881
sS'nsubj=filmmaker'
p1737
I862
sS'nsubj=all'
p1738
I802
sS'w+2=congressional'
p1739
I1658
sS'w-2=currency'
p1740
I2676
sS'w+1=other'
p1741
I1279
sS'w+2=hawiye'
p1742
I1738
sS'w-2=supplies'
p1743
I2956
sS'w-1=Sarkozy'
p1744
I2140
sS'dobj=benchmark'
p1745
I456
sS'dobj=Odinga'
p1746
I418
sS'w-2=Thabo'
p1747
I2561
sS'w-2=government'
p1748
I2747
sS'w+2=accept'
p1749
I1579
sS'w-2=opportunity'
p1750
I2851
sS'dobj=monsoon'
p1751
I531
sS'w-1=India'
p1752
I2080
sS'w-1=in'
p1753
I2243
sS'w-1=swim'
p1754
I2316
sS'w+2=rudd'
p1755
I1909
sS'w+2=Posey'
p1756
I1518
sS'w+2=Ms.'
p1757
I1491
sS'w-1=Republicans'
p1758
I2130
sS'nsubj=Welch'
p1759
I790
sS'w+2=soon'
p1760
I1936
sS'advmod=likely'
p1761
I113
sS'w-1=GrowingBolder.com'
p1762
I2070
sS'w-2=objection'
p1763
I2843
sS'mark=if'
p1764
I613
sS'dobj=Palestinians'
p1765
I421
sS'conj=pay'
p1766
I284
sS'mark=in'
p1767
I614
sS'w-2=envoy'
p1768
I2710
sS'w-2=work'
p1769
I3022
sS'nsubj=Tran'
p1770
I784
sS'w+2=not'
p1771
I1831
sS'w+2=Indonesia'
p1772
I1451
sS'nsubj=holding'
p1773
I871
sS'dobj=speaker'
p1774
I585
sS'w+2=day'
p1775
I1671
sS'dobj=Gordy'
p1776
I396
sS'xcomp=speed'
p1777
I3131
sS'w+2=lot'
p1778
I1793
sS'dobj=shortfall'
p1779
I579
sS'w+2=previous'
p1780
I1869
sS'dep=general'
p1781
I344
sS'xcomp=ease'
p1782
I3069
sS'dep=say'
p1783
I357
sS'w-1=father'
p1784
I2223
sS'nsubj=Yudhoyono'
p1785
I795
sS'w-2=Vladimir'
p1786
I2576
sS'w+1=condition'
p1787
I1181
sS'w-2=Merkel'
p1788
I2491
sS'w-2=,'
p1789
I2345
sS'dobj=hiv\\/aids'
p1790
I511
sS'conj=caution'
p1791
I223
sS'w+2=regional'
p1792
I1890
sS'w+2=radical'
p1793
I1877
sS'w-2=or'
p1794
I2853
sS'nsubj=who'
p1795
I957
sS'w+2=campus'
p1796
I1634
sS'w+2=islamic'
p1797
I1764
sS'w+2=Pope'
p1798
I1517
sS'w+2=Beijing'
p1799
I1400
sS'w-1=signatory'
p1800
I2308
sS'dobj=Guevara'
p1801
I397
sS'w+2=clash'
p1802
I1645
sS'advmod=knowingly'
p1803
I109
sS'w-2=country'
p1804
I2674
sS'w+2=incredible'
p1805
I1756
sS'w-2=union'
p1806
I2991
sS'w+2=legitimate'
p1807
I1785
sS'advmod=instead'
p1808
I105
sS'w+1=under'
p1809
I1340
sS'tmod=deadline'
p1810
I1068
sS'nsubj=party'
p1811
I904
sS'w-2=Shakira'
p1812
I2550
sS'w+1=police'
p1813
I1284
sS'w-2=Bangalore'
p1814
I2378
sS'nsubj=Annan'
p1815
I641
sS'w-2=prepare'
p1816
I2875
sS'w+2=Oscars'
p1817
I1510
sS'advmod=again'
p1818
I67
sS'nsubj=Sangare'
p1819
I761
sS'w+1=Jerry'
p1820
I1113
sS'nsubj=university'
p1821
I950
sS'w-1=actually'
p1822
I2162
sS'w-2=ability'
p1823
I2590
sS'w+2=Bali'
p1824
I1398
sS'w-2=protect'
p1825
I2887
sS'nsubj=Michael'
p1826
I720
sS'nsubj=Jordaan'
p1827
I693
sS'w+1=as'
p1828
I1161
sS'w+2=iranian'
p1829
I1762
sS'w+1=at'
p1830
I1162
sS'w+2=Macau'
p1831
I1484
sS'w+2=Capetown'
p1832
I1410
sS'w-2=Italy'
p1833
I2454
sS'w-1=car'
p1834
I2190
sS'w-1=Prachanda'
p1835
I2123
sS'dobj=physical'
p1836
I551
sS'advcl=urge'
p1837
I61
sS'w+2=Elizabeth'
p1838
I1429
sS'mark=for'
p1839
I612
sS'w+2=financial'
p1840
I1712
sS'w-1=Gates'
p1841
I2063
sS'advmod=frequently'
p1842
I95
sS'w-1=can'
p1843
I2188
sS'w-2=official'
p1844
I2847
sS'dobj=Muslims'
p1845
I416
sS'w+1=target'
p1846
I1320
sS'advmod=earlier'
p1847
I87
sS'nsubj=power'
p1848
I916
sS'w-2=Medvedev'
p1849
I2489
sS'w-1=say'
p1850
I2305
sS'w-2=product'
p1851
I2881
sS'w-1=Mukasey'
p1852
I2105
sS'nsubjpass=reporter'
p1853
I997
sS'advmod=easily'
p1854
I88
sS'advmod=when'
p1855
I142
sS'w-2=ever'
p1856
I2714
sS'dobj=monk'
p1857
I530
sS'nsubj=Klein'
p1858
I701
sS'nsubj=Olmert'
p1859
I739
sS'w+2=condition'
p1860
I1657
sS'w-2=rights'
p1861
I2910
sS'xcomp=deal'
p1862
I3057
sS'w+2=Claus'
p1863
I1414
sS'w-2=visit'
p1864
I3000
sS'nsubj=Treasury'
p1865
I785
sS'w-2=Nechirvan'
p1866
I2506
sS'nsubj=Merkel'
p1867
I719
sS'w+1=we'
p1868
I1348
sS'advcl=provide'
p1869
I45
sS'nsubj=Syria'
p1870
I781
sS'w-1=organization'
p1871
I2282
sS'advcl=ensure'
p1872
I23
sS'w-1=Iraqis'
p1873
I2082
sS'w-2=continent'
p1874
I2670
sS'w-2=Ahmed'
p1875
I2362
sS'w-2=burma'
p1876
I2635
sS'auxpass=be'
p1877
I160
sS'w+2=Harare'
p1878
I1448
sS'w-1=Mitchell'
p1879
I2102
sS'w-1=longer'
p1880
I2257
sS'w+2=after'
p1881
I1584
sS'dep=until'
p1882
I365
sS'advcl=interview'
p1883
I33
sS'w-2=forgive'
p1884
I2731
sS'xcomp=lay'
p1885
I3088
sS'dobj=deal'
p1886
I482
sS'w+2=Phnom'
p1887
I1516
sS'advmod=still'
p1888
I135
sS'w+1=next'
p1889
I1268
sS'w-2=Cairo'
p1890
I2394
sS'w+2=georgian'
p1891
I1727
sS'w+1=there'
p1892
I1325
sS'advcl=struggle'
p1893
I54
sS'prep=follow'
p1894
I1034
sS'nsubj=Australia'
p1895
I644
sS'w+1=rise'
p1896
I1296
sS'w+1=elsewhere'
p1897
I1200
sS'nsubj=#NUMBER#'
p1898
I629
sS'nsubjpass=standard'
p1899
I1001
sS'w+2=menace'
p1900
I1803
sS'w-2=approach'
p1901
I2616
sS'w+2=terrorist'
p1902
I1957
sS'nsubj=secretary'
p1903
I931
sS'w+1=its'
p1904
I1247
sS'w+1=syrian'
p1905
I1319
sS'w+1=jointly'
p1906
I1249
sS'w+2=noon'
p1907
I1829
sS'w-1=House'
p1908
I2075
sS'w+2=greet'
p1909
I1734
sS'w-2=local'
p1910
I2804
sS"w-1=''"
p1911
I2018
sS'xcomp=work'
p1912
I3142
sS'nsubj=resource'
p1913
I926
sS'w+1=Alfred'
p1914
I1093
sS'conj=attend'
p1915
I214
sS'nsubj=fan'
p1916
I860
sS'tmod=night'
p1917
I1073
sS'w-2=place'
p1918
I2868
sS'nsubj=Mukasey'
p1919
I725
sS'w-2=president'
p1920
I2876
sS'w-2=Kiir'
p1921
I2470
sS'w-2=non-nuclear'
p1922
I2837
sS'w-2=Pakistan'
p1923
I2513
sS'advcl=tell'
p1924
I58
sS'tmod=afternoon'
p1925
I1065
sS'w-1=Gonul'
p1926
I2067
sS'w-2=insufficient'
p1927
I2780
sS"w-2=''"
p1928
I2343
sS'dobj=government'
p1929
I505
sS'nsubj=Kabul'
p1930
I694
sS'w+1=four'
p1931
I1213
sS'w+2=Jong'
p1932
I1462
sS'dobj=grandparent'
p1933
I506
sS'w+1=one-on-one'
p1934
I1275
sS'w-1=fully'
p1935
I2230
sS'w+2=make'
p1936
I1795
sS'ccomp=unite'
p1937
I196
sS'conj=have'
p1938
I258
sS'w-2=part'
p1939
I2863
sS'w-2=Security'
p1940
I2546
sS'w-1=Macedonia'
p1941
I2095
sS'w+2=grow'
p1942
I1735
sS'w-2=there'
p1943
I2967
sS'w-2=then'
p1944
I2966
sS'xcomp=clarify'
p1945
I3047
sS'nsubj=consecration'
p1946
I833
sS'w-1=Merkel'
p1947
I2101
sS'w-2=England'
p1948
I2424
sS"w-2='s"
p1949
I2344
sS'advmod=bilaterally'
p1950
I79
sS'advcl=have'
p1951
I28
sS'w-2=Blair'
p1952
I2389
sS'w+2=fellow'
p1953
I1708
sS'w-1=Casey'
p1954
I2047
sS'w+1=Laura'
p1955
I1116
sS'w-2=Brownfield'
p1956
I2391
sS'dobj=donor'
p1957
I488
sS'w-2=no'
p1958
I2836
sS'w+2=human'
p1959
I1749
sS'w-1=desert'
p1960
I2205
sS'dobj=directive'
p1961
I487
sS'w+1=Gulf'
p1962
I1106
sS'w-1=requirement'
p1963
I2302
sS'w+1=international'
p1964
I1242
sS'w-2=homeowner'
p1965
I2763
sS'w+1=because'
p1966
I1167
sS'dobj=Goal'
p1967
I394
sS'conj=seize'
p1968
I300
sS'dobj=Bay'
p1969
I379
sS'w-2=Nancy'
p1970
I2502
sS'w+2=small'
p1971
I1931
sS'mark=though'
p1972
I618
sS'w+2=Indian'
p1973
I1450
sS'ccomp=boost'
p1974
I167
sS'dobj=concern'
p1975
I473
sS'conj=speak'
p1976
I305
sS'w-2=which'
p1977
I3013
sS'w-1=official'
p1978
I2276
sS'w-2=college'
p1979
I2657
sS'xcomp=rise'
p1980
I3122
sS'advmod=even'
p1981
I90
sS'w-2=Johnson'
p1982
I2461
sS'dobj=approval'
p1983
I452
sS'xcomp=determine'
p1984
I3063
sS'nsubjpass=any'
p1985
I970
sS'w-2=career'
p1986
I2643
sS'nsubj=willingness'
p1987
I959
sS'w-2=Republicans'
p1988
I2531
sS'w-1=think'
p1989
I2323
sS'advmod=continuously'
p1990
I83
sS'w-1=Saakashvili'
p1991
I2135
sS'nsubj=Steinmeier'
p1992
I778
sS'advmod=ever'
p1993
I91
sS'w+2=June'
p1994
I1463
sS'nsubj=car'
p1995
I821
sS'w+2=key'
p1996
I1773
sS'w-1=opposition'
p1997
I2279
sS'xcomp=protect'
p1998
I3106
sS'w+2=local'
p1999
I1791
sS'w-2=interested'
p2000
I2783
sS'xcomp=decide'
p2001
I3058
sS'prep=behind'
p2002
I1029
sS'nsubj=Saca'
p2003
I758
sS'aux=will'
p2004
I158
sS'ccomp=comfortable'
p2005
I169
sS'w-2=fact'
p2006
I2719
sS'w-2=university'
p2007
I2992
sS'dobj=summit'
p2008
I588
sS'w+2=Sunday'
p2009
I1554
sS'nsubj=Council'
p2010
I665
sS'prep=with'
p2011
I1053
sS'w+2=homeowner'
p2012
I1744
sS'w-1=guideline'
p2013
I2236
sS'nsubjpass=benchmark'
p2014
I971
sS'w-2=Steinmeier'
p2015
I2557
sS'w+2=Rice'
p2016
I1525
sS'nsubj=Pyongyang'
p2017
I748
sS'conj=learn'
p2018
I266
sS'advcl=support'
p2019
I55
sS'conj=discuss'
p2020
I238
sS'w-1=recently'
p2021
I2297
sS'nsubjpass=Tsvangirai'
p2022
I967
sS'conj=compete'
p2023
I227
sS'w-2=victim'
p2024
I2999
sS'w-2=Fatah'
p2025
I2428
sS'w+2=Gordy'
p2026
I1445
sS'w-1=reportedly'
p2027
I2300
sS'w+2=Secretary-General'
p2028
I1539
sS'dobj=Il'
p2029
I401
sS'w+1=demand'
p2030
I1188
sS'dobj=obligation'
p2031
I538
sS'w+2=turkish'
p2032
I1976
sS'w-2=advisor'
p2033
I2596
sS'w-1=Gambari'
p2034
I2062
sS'w+2=Colombia'
p2035
I1415
sS'w-2=rice'
p2036
I2909
sS'w-2=risk'
p2037
I2911
sS'w-1=soldier'
p2038
I2310
sS'w+2=Santiago'
p2039
I1533
sS'w-2=tax'
p2040
I2961
sS'w-1=after'
p2041
I2164
sS'nsubj=Burgener'
p2042
I651
sS'w+1=just'
p2043
I1250
sS'w-1=Africa'
p2044
I2026
sS'xcomp=mark'
p2045
I3095
sS'nsubj=Association'
p2046
I643
sS'xcomp=resolve'
p2047
I3118
sS'w-1=delegate'
p2048
I2203
sS'nsubj=platform'
p2049
I911
sS'dobj=hero'
p2050
I510
sS'w+2=Arab'
p2051
I1392
sS'w+2=McCandless'
p2052
I1486
sS'w+1=NATO'
p2053
I1122
sS'xcomp=hear'
p2054
I3081
sS'w-1=Thailand'
p2055
I2151
sS'w+1=increase'
p2056
I1237
sS'xcomp=renew'
p2057
I3117
sS'w-2=they'
p2058
I2968
sS'nsubjpass=demand'
p2059
I979
sS'w-1=min-soon'
p2060
I2262
sS'cc=and'
p2061
I162
sS'w+2=aspiration'
p2062
I1603
sS'w+1=genocide'
p2063
I1216
sS'w+1=somewhere'
p2064
I1311
sS'w-1=Mbeki'
p2065
I2097
sS'w+2=girl'
p2066
I1728
sS'w+1=32-year-old'
p2067
I1089
sS'w+1=by'
p2068
I1176
sS'nsubjpass=concern'
p2069
I974
sS'w+1=be'
p2070
I1166
sS'w-1=week'
p2071
I2334
sS'w-2=five'
p2072
I2726
sS'w+2=Hanoi'
p2073
I1447
sS'w+2=community'
p2074
I1653
sS'w-2=british'
p2075
I2634
sS'w-2=coalition'
p2076
I2656
sS'dobj=here'
p2077
I509
sS'w-2=overseas'
p2078
I2857
sS'nsubj=tuberculosis'
p2079
I948
sS'w-2=team'
p2080
I2962
sS'w-2=overall'
p2081
I2856
sS'w-2=tool'
p2082
I2977
sS'conj=say'
p2083
I298
sS'nsubj=Kayiramirwa'
p2084
I696
sS'advmod=way'
p2085
I140
sS'dobj=entity'
p2086
I490
sS'tmod=year'
p2087
I1078
sS'w+1=-lrb-'
p2088
I1082
sS'w+2=activist'
p2089
I1580
sS'w-2=wreath'
p2090
I3025
sS'w-2=Lady'
p2091
I2479
sS'w+1=health'
p2092
I1224
sS'w-2=firm'
p2093
I2724
sS'nsubj=Blair'
p2094
I648
sS'w-2=african'
p2095
I2598
sS'w-2=promise'
p2096
I2884
sS'w-2=Electoral'
p2097
I2421
sS'w+1=truly'
p2098
I1337
sS'w+2=climate'
p2099
I1646
sS'w-2=set'
p2100
I2924
sS'w+1=voter'
p2101
I1347
sS'w+2=substantial'
p2102
I1945
sS'nsubjpass=precondition'
p2103
I994
sS'w-2=health'
p2104
I2758
sS'w+2=virtual'
p2105
I1989
sS'w-2=party'
p2106
I2864
sS'w-1=region'
p2107
I2298
sS'w+1=israeli'
p2108
I1245
sS'w-2=schedule'
p2109
I2917
sS'aux=could'
p2110
I150
sS'dobj=anybody'
p2111
I450
sS'w-1=leader'
p2112
I2255
sS'w-2=President'
p2113
I2525
sS'nsubj=Barzani'
p2114
I646
sS'conj=see'
p2115
I299
sS'w-2=committee'
p2116
I2661
sS'nsubj=ofdelegation'
p2117
I897
sS'ccomp=walk'
p2118
I197
sS'dobj=hour'
p2119
I513
sS'dep=in'
p2120
I348
sS'w+2=China'
p2121
I1413
sS'nsubj=Kouchner'
p2122
I704
sS'w+2=concern'
p2123
I1656
sS'w+2=Damascus'
p2124
I1417
sS'xcomp=be'
p2125
I3038
sS'w+2=time'
p2126
I1971
sS'w-1=earlier'
p2127
I2209
sS'w-2=lab'
p2128
I2794
sS'nsubjpass=outcome'
p2129
I990
sS'nsubj=program'
p2130
I919
sS'w+2=Yemen'
p2131
I1574
sS'dobj=passenger'
p2132
I546
sS'prep=of'
p2133
I1040
sS'w+2=try'
p2134
I1975
sS'conj=tour'
p2135
I312
sS'w-2=Naomi'
p2136
I2503
sS'prep=on'
p2137
I1041
sS'w+2=project'
p2138
I1871
sS'tmod=decline'
p2139
I1069
sS'w-2=Christofias'
p2140
I2399
sS'w-2=head'
p2141
I2757
sS'w-2=University'
p2142
I2575
sS'w+2=burn'
p2143
I1628
sS'w-1=Scruggs'
p2144
I2141
sS'w-2=equip'
p2145
I2711
sS'nsubj=board'
p2146
I812
sS'w+2=Prime'
p2147
I1523
sS'conj=extract'
p2148
I248
sS'dobj=Bashir'
p2149
I378
sS'nsubj=winner'
p2150
I960
sS'dobj=security'
p2151
I575
sS'nsubj=Il'
p2152
I685
sS'conj=Berri'
p2153
I202
sS'w-2=timeline'
p2154
I2973
sS'w-2=Arabia'
p2155
I2373
sS'w-1=Ban'
p2156
I2033
sS'nsubj=citizen'
p2157
I824
sS'w-2=failure'
p2158
I2721
sS'w-2=migrant'
p2159
I2817
sS'nsubj=Ministers'
p2160
I721
sS'w+2=later'
p2161
I1780
sS'w+1=without'
p2162
I1355
sS'nsubj=Mukherjee'
p2163
I726
sS'w+1=Hamas'
p2164
I1107
sS'w+2=that'
p2165
I1959
sS'xcomp=discuss'
p2166
I3066
sS'w+2=and'
p2167
I1595
sS'w-2=Mrs.'
p2168
I2497
sS'w-2=get'
p2169
I2742
sS'w-2=Odinga'
p2170
I2509
sS'nsubj=guideline'
p2171
I868
sS'dobj=president'
p2172
I558
sS'w-1=or'
p2173
I2280
sS'nsubj=administration'
p2174
I798
sS'w-2=Affairs'
p2175
I2357
sS'advcl=hear'
p2176
I29
sS'w+2=Algeria'
p2177
I1386
sS'w-2=affect'
p2178
I2597
sS'w+2=urgent'
p2179
I1982
sS'w-1=Nelson'
p2180
I2112
sS'w-2=system'
p2181
I2959
sS'w+2=discuss'
p2182
I1684
sS'w-1=of'
p2183
I2274
sS'nsubj=police'
p2184
I912
sS'nsubj=end'
p2185
I852
sS'w-2=stakeholder'
p2186
I2943
sS'conj=go'
p2187
I255
sS'w-1=on'
p2188
I2277
sS'dobj=Boni'
p2189
I380
sS'advmod=actually'
p2190
I66
sS'w+2=real'
p2191
I1880
sS'w+2=perform'
p2192
I1858
sS'w+1=Abu'
p2193
I1090
sS'w+1=first'
p2194
I1208
sS'w+1=this'
p2195
I1328
sS'w-1=Burgener'
p2196
I2041
sS'conj=re-unite'
p2197
I290
sS'w-2=Bernard'
p2198
I2387
sS'w+2=80'
p2199
I1381
sS'w+2=Development'
p2200
I1423
sS'advmod=now'
p2201
I119
sS'w-2=George'
p2202
I2434
sS'nsubj=those'
p2203
I946
sS'w-2=unwilling'
p2204
I2995
sS'w-1=tuberculosis'
p2205
I2327
sS'w+2=Americans'
p2206
I1388
sS'w+2=leader'
p2207
I1782
sS'w-2=invite'
p2208
I2784
sS'w+2=only'
p2209
I1843
sS'dobj=Strasberg'
p2210
I435
sS'nsubj=monarch'
p2211
I893
sS'w+1=Maggie'
p2212
I1117
sS'w+2=hotel'
p2213
I1747
sS'partmod=say'
p2214
I1017
sS'w-1=party'
p2215
I2286
sS'w-2=now'
p2216
I2841
sS'w-2=while'
p2217
I3014
sS'w-1=member'
p2218
I2260
sS'w+2=pro-government'
p2219
I1870
sS'w+2=finance'
p2220
I1711
sS'w-2=two'
p2221
I2989
sS'w-2=as'
p2222
I2618
sS'w-2=man'
p2223
I2808
sS'nsubj=#DATE#'
p2224
I628
sS'w-1=faction'
p2225
I2219
sS'w-1=also'
p2226
I2170
sS'nsubj=side'
p2227
I934
sS'w+1=Berry'
p2228
I1095
sS'nsubj=Palestinians'
p2229
I741
sS'w-1=power'
p2230
I2292
sS'w-2=may'
p2231
I2812
sS'w-2=across'
p2232
I2593
sS'dobj=Rice'
p2233
I426
sS'dobj=candidate'
p2234
I461
sS'w+1=during'
p2235
I1194
sS'advcl=make'
p2236
I36
sS'conj=add'
p2237
I204
sS'w+2=San'
p2238
I1532
sS'advcl=gather'
p2239
I26
sS'w-2=Bank'
p2240
I2379
sS'w+1=democratic'
p2241
I1189
sS'dobj=adaptation'
p2242
I444
sS'dobj=time'
p2243
I596
sS'w+2=three'
p2244
I1969
sS'w+2=year'
p2245
I2015
sS'nsubj=Peres'
p2246
I744
sS'w+2=construction'
p2247
I1664
sS'xcomp=examine'
p2248
I3074
sS'w+1=Ugandan'
p2249
I1143
sS'nsubj=hero'
p2250
I870
sS'w+2=four-and-one-half'
p2251
I1723
sS'w+2=there'
p2252
I1962
sS'w-1=before'
p2253
I2180
sS'w-2=source'
p2254
I2938
sS'nsubj=min-soon'
p2255
I891
sS'w-2=major'
p2256
I2806
sS'nsubjpass=disclosure'
p2257
I982
sS'w+2=chinese'
p2258
I1643
sS'w-1=Burge'
p2259
I2040
sS'complm=whether'
p2260
I199
sS'dobj=Wright'
p2261
I439
sS'dobj=face-to-face'
p2262
I496
sS'dobj=Sarkozys'
p2263
I429
sS'w-1=must'
p2264
I2266
sS'nsubjpass=political'
p2265
I992
sS'nsubj=Pelosi'
p2266
I743
sS'w+2=have'
p2267
I1737
sS'w-2=opposition'
p2268
I2852
sS'w-2=inadequate'
p2269
I2774
sS'advcl=plot'
p2270
I42
sS'conj=overturn'
p2271
I283
sS'w-1=Graham'
p2272
I2069
sS'w+1=everyone'
p2273
I1204
sS'advmod=individually'
p2274
I103
sS'conj=convinced'
p2275
I231
sS'w+2=elect'
p2276
I1692
sS'w-2=Damascus'
p2277
I2408
sS'w-2=consume'
p2278
I2669
sS'dobj=Gadhafi'
p2279
I389
sS'w-2=Ehud'
p2280
I2420
sS'w-1=Saca'
p2281
I2136
sS'w-2=Sea'
p2282
I2544
sS'nsubjpass=deadline'
p2283
I977
sS'xcomp=support'
p2284
I3135
sS'w-2=von'
p2285
I3002
sS'advmod=fully'
p2286
I96
sS'w-1=justice'
p2287
I2248
sS'w+1=eight'
p2288
I1199
sS'nsubj=art'
p2289
I807
sS'w+2=Tuesday'
p2290
I1564
sS'w+2=within'
p2291
I2009
sS'w+2=Senegal'
p2292
I1542
sS'w-1=boy'
p2293
I2185
sS'dep=afternoon'
p2294
I329
sS'xcomp=build'
p2295
I3043
sS"aux='ll"
p2296
I147
sS'w+2=republican'
p2297
I1896
sS'aux=to'
p2298
I157
sS'w-1=Union'
p2299
I2155
sS'w-2=effort'
p2300
I2701
sS'ccomp=shake'
p2301
I190
sS'w+2=Raul'
p2302
I1524
sS'w+1=leader'
p2303
I1256
sS'w+2=libyan'
p2304
I1786
sS'w+2=Islam'
p2305
I1455
sS'dobj=part'
p2306
I544
sS'w+2=energy'
p2307
I1695
sS'nsubj=donor'
p2308
I844
sS'w-2=Baghdad'
p2309
I2376
sS'w-1=for'
p2310
I2226
sS'nsubj=father'
p2311
I861
sS'conj=cancel'
p2312
I222
sS'w+1=western-backed'
p2313
I1350
sS'advcl=converge'
p2314
I15
sS'w+2=about'
p2315
I1578
sS'w-1=cut'
p2316
I2200
sS'prep=during'
p2317
I1033
sS'w-2=not'
p2318
I2840
sS'w-1=filmmaker'
p2319
I2224
sS'w-2=dollar'
p2320
I2697
sS'w-2=Australia'
p2321
I2375
sS'w+2=both'
p2322
I1621
sS'w+2=mental'
p2323
I1804
sS'w+2=choose'
p2324
I1644
sS'w+2=assess'
p2325
I1604
sS'w+2=Cairo'
p2326
I1406
sS'w-2=Michael'
p2327
I2492
sS'w-1=now'
p2328
I2273
sS'w-1=not'
p2329
I2272
sS'dobj=weekend'
p2330
I602
sS'w-1=begin'
p2331
I2181
sS'conj=sign'
p2332
I303
sS'w+2=businessman'
p2333
I1630
sS'w-2=difficult'
p2334
I2693
sS'xcomp=protest'
p2335
I3107
sS'w-1=lady'
p2336
I2251
sS'w-2=force'
p2337
I2729
sS'aux=be'
p2338
I148
sS'w+1=possible'
p2339
I1286
sS'w+2=be'
p2340
I1614
sS'w+2=2015'
p2341
I1378
sS'prep=before'
p2342
I1028
sS'w-2=Tsvangirai'
p2343
I2569
sS'w+2=drink'
p2344
I1686
sS'nsubj=Mitchell'
p2345
I722
sS'w-2=Lenard'
p2346
I2481
sS'nsubj=lawmaker'
p2347
I885
sS'ccomp=call'
p2348
I168
sS'dobj=envoy'
p2349
I491
sS'w-2=but'
p2350
I2637
sS'w-2=commuter'
p2351
I2663
sS"w-1='"
p2352
I2017
sS'w+2=number'
p2353
I1833
sS'w+1=Elise'
p2354
I1101
sS'dobj=sidekick'
p2355
I581
sS'advmod=well'
p2356
I141
sS'w-2=election'
p2357
I2702
sS'w-1=ban'
p2358
I2176
sS'w+2=surge'
p2359
I1947
sS'prep=that'
p2360
I1047
sS'w-2=Crocker'
p2361
I2407
sS'w-2=Secretary'
p2362
I2545
sS'w-2=just'
p2363
I2792
sS'w-1=candidate'
p2364
I2189
sS'conj=resolve'
p2365
I295
sS'nsubj=Gates'
p2366
I678
sS'conj=demand'
p2367
I235
sS'xcomp=nag'
p2368
I3098
sS'w-1=Forum'
p2369
I2059
sS'w+1=credibly'
p2370
I1185
sS'prep=than'
p2371
I1046
sS'advcl=elect'
p2372
I21
sS'prep=by'
p2373
I1031
sS'prep=between'
p2374
I1030
sS'w-1=,'
p2375
I2020
sS'w+1=worker'
p2376
I1358
sS'w-1=Richardson'
p2377
I2132
sS'w-2=refuse'
p2378
I2897
sS'nsubj=government'
p2379
I866
sS'w+2=dictator'
p2380
I1681
sS'w+2=change'
p2381
I1640
sS'w-2=American'
p2382
I2365
sS'w-2=food'
p2383
I2727
sS'w+1=regularly'
p2384
I1292
sS'w+1=numerous'
p2385
I1271
sS'w+2=mauritanian'
p2386
I1800
sS'w-2=Bengal'
p2387
I2386
sS'w-2=North'
p2388
I2507
sS'w-1=Glaser'
p2389
I2066
sS'nsubj=Sunnis'
p2390
I780
sS'w-1=voter'
p2391
I2332
sS'rel=with'
p2392
I1060
sS'nsubj=panel'
p2393
I902
sS'w+2=Ankara'
p2394
I1389
sS'w-2=four'
p2395
I2735
sS'nsubj=israeli'
p2396
I877
sS'nsubj=cost'
p2397
I834
sS'advmod=truly'
p2398
I139
sS'w-2=production'
p2399
I2882
sS'nsubj=Nguyn'
p2400
I735
sS'w-2=path'
p2401
I2866
sS'w-1=Carter'
p2402
I2046
sS'w+2=Togolese'
p2403
I1561
sS'w+2=bilateral'
p2404
I1619
sS'dobj=other'
p2405
I542
sS'conj=listen'
p2406
I270
sS'w+2=Nairobi'
p2407
I1499
sS'w-1=be'
p2408
I2179
sS'ccomp=feature'
p2409
I177
sS'w-1=day'
p2410
I2201
sS'nsubj=University'
p2411
I789
sS'nsubj=Paisley'
p2412
I740
sS'w-2=Toure'
p2413
I2566
sS'w-2=Senator'
p2414
I2548
sS'w-2=replacement'
p2415
I2902
sS'w+2=affirm'
p2416
I1582
sS'nsubj=visit'
p2417
I953
sS'dobj=definition'
p2418
I483
sS'w-2=SPLM'
p2419
I2538
sS'w-2=YarAdua'
p2420
I2582
sS'w-1=Bush'
p2421
I2043
sS'w+2=recently'
p2422
I1884
sS'ccomp=destroy'
p2423
I171
sS'dobj=cleric'
p2424
I469
sS'mark=because'
p2425
I610
sS'aux=might'
p2426
I154
sS'dobj=price'
p2427
I559
sS'w+2=muse'
p2428
I1817
sS'ccomp=meet'
p2429
I183
sS'nsubj=runoff'
p2430
I929
sS'dobj=survivor'
p2431
I589
sS'w+2=reserve'
p2432
I1899
sS'conj=want'
p2433
I320
sS'nsubj=executive'
p2434
I856
sS'w+2=Nuhu'
p2435
I1506
sS'xcomp=plan'
p2436
I3102
sS'w+2=Kobe'
p2437
I1473
sS'w-1=B'
p2438
I2032
sS'w+2=arabian'
p2439
I1601
sS'w+2=for'
p2440
I1718
sS'xcomp=set'
p2441
I3128
sS'xcomp=review'
p2442
I3120
sS'dep=though'
p2443
I363
sS'w+2=what'
p2444
I2001
sS'xcomp=see'
p2445
I3125
sS'w-1=performance'
p2446
I2288
sS'w+1=deadline'
p2447
I1187
sS'w-2=business'
p2448
I2636
sS'w+1=Prachanda'
p2449
I1125
sS'w+2=hostage-taker'
p2450
I1746
sS'conj=strike'
p2451
I307
sS'advmod=once'
p2452
I120
sS'w+1=people'
p2453
I1281
sS'dobj=grassland'
p2454
I507
sS'nsubj=housing'
p2455
I874
sS'w+2=talk'
p2456
I1952
sS'conj=keep'
p2457
I265
sS'dep=include'
p2458
I349
sS'w+1=unexcised'
p2459
I1341
sS'w-2=July'
p2460
I2464
sS'nsubj=Seck'
p2461
I765
sS'nsubj=Arab'
p2462
I642
sS'w-1=junta'
p2463
I2246
sS'conj=avoid'
p2464
I215
sS'w-1=Friday'
p2465
I2060
sS'nsubj=evil'
p2466
I855
sS'w-1=only'
p2467
I2278
sS'w+2=by'
p2468
I1632
sS'w+2=recover'
p2469
I1887
sS'w+1=national'
p2470
I1266
sS'xcomp=#PRP#'
p2471
I3029
sS'w-2=essential'
p2472
I2712
sS'w+2=Rukwanzi'
p2473
I1527
sS'dobj=Russia'
p2474
I428
sS'w+2=halfway'
p2475
I1736
sS'w-2=group'
p2476
I2751
sS'w+2=president'
p2477
I1866
sS'w-2=delegation'
p2478
I2685
sS'w-2=implementer'
p2479
I2768
sS'nsubjpass=#PRP#'
p2480
I963
sS'nsubj=Richardson'
p2481
I753
sS'w+2=russian'
p2482
I1910
sS'w-2=commission'
p2483
I2659
sS'nsubj=Toure'
p2484
I783
sS'aux=would'
p2485
I159
sS'w+1=Willie'
p2486
I1146
sS'w-1=it'
p2487
I2244
sS'w-2=democrat'
p2488
I2687
sS'w-2=top'
p2489
I2978
sS'nsubj=former'
p2490
I864
sS'w+1=Hill'
p2491
I1109
sS'w-1=Commission'
p2492
I2050
sS'w+2=force'
p2493
I1719
sS'w+2=Pakistan'
p2494
I1511
sS'w-2=Tzipi'
p2495
I2570
sS'dobj=Republic'
p2496
I425
sS'nsubj=supplies'
p2497
I942
sS'w-2=Korea'
p2498
I2475
sS'w-2=Earl'
p2499
I2418
sS'w-2=immediately'
p2500
I2767
sS'w+2=pastoral'
p2501
I1855
sS'advmod=ago'
p2502
I68
sS'xcomp=improve'
p2503
I3083
sS'w+1=and'
p2504
I1157
sS'w-2=presidential'
p2505
I2877
sS'dobj=request'
p2506
I570
sS'w+1=climate'
p2507
I1180
sS'w+2=quota'
p2508
I1876
sS'w-1=still'
p2509
I2314
sS'w-2=speaker'
p2510
I2940
sS'w-1=family'
p2511
I2220
sS'nsubj=Montanti'
p2512
I723
sS'w+2=twenty'
p2513
I1977
sS'nsubj=product'
p2514
I918
sS'w+2=capacity'
p2515
I1636
sS'w+2=jewish'
p2516
I1771
sS'w-2=Sarkozy'
p2517
I2541
sS'w-1=parliament'
p2518
I2284
sS'nsubj=Reid'
p2519
I750
sS'prt=up'
p2520
I1056
sS'w+2=this'
p2521
I1965
sS'w+1=almost'
p2522
I1156
sS'w-2=Beijing'
p2523
I2384
sS'w+2=comply'
p2524
I1655
sS'w-2=Americans'
p2525
I2366
sS'w+2=these'
p2526
I1963
sS'xcomp=coordinate'
p2527
I3052
sS'w+2=since'
p2528
I1929
sS'w-1=Olmert'
p2529
I2116
sS'w+2=Iranians'
p2530
I1453
sS'w-2=Jong'
p2531
I2462
sS'w-2=confident'
p2532
I2667
sS'w-2=State'
p2533
I2555
sS'xcomp=develop'
p2534
I3064
sS'dobj=Lavrov'
p2535
I409
sS'w+2=Marine'
p2536
I1485
sS'w-2=Wars'
p2537
I2577
sS'w+2=Singapore'
p2538
I1547
sS'dep=think'
p2539
I362
sS'w+1=reporter'
p2540
I1293
sS'w+2=Gbomo'
p2541
I1443
sS'dobj=refugee'
p2542
I566
sS'w+2=african'
p2543
I1583
sS'w+1=Wright'
p2544
I1147
sS'nsubj=Group'
p2545
I680
sS'w+2=pakistani'
p2546
I1850
sS'dobj=father'
p2547
I500
sS'nsubj=Rice'
p2548
I752
sS'advmod=directly'
p2549
I86
sS'w-1=Kim'
p2550
I2089
sS'w-2=upon'
p2551
I2997
sS'nsubj=philosopher'
p2552
I909
sS'w-2=Hill'
p2553
I2442
sS'nsubj=chance'
p2554
I822
sS'advmod=jointly'
p2555
I107
sS'w+2=bargaining'
p2556
I1611
sS'nsubj=Hill'
p2557
I684
sS'nsubj=alliance'
p2558
I803
sS'mark=through'
p2559
I619
sS'advcl=at'
p2560
I6
sS'advmod=credibly'
p2561
I84
sS'dobj=city'
p2562
I468
sS'dobj=promise'
p2563
I562
sS'dobj=#DATE#'
p2564
I369
sS'w-2=2030'
p2565
I2352
sS'dobj=Secretary-General'
p2566
I431
sS'mark=than'
p2567
I617
sS'w-2=Phuong'
p2568
I2519
sS'xcomp=Goals'
p2569
I3030
sS'dobj=eye'
p2570
I495
sS'w+2=crisis'
p2571
I1666
sS'w+2=similar'
p2572
I1928
sS'w+2=Thailand'
p2573
I1559
sS'w-2=Pranab'
p2574
I2524
sS'advcl=confirm'
p2575
I12
sS'w+2=Luxembourg'
p2576
I1482
sS'w+2=2006'
p2577
I1375
sS'w+2=2001'
p2578
I1374
sS'w+2=parliamentary'
p2579
I1852
sS'xcomp=press'
p2580
I3104
sS'w+2=2009'
p2581
I1376
sS'w-1=he'
p2582
I2239
sS'conj=inform'
p2583
I262
sS'dobj=issue'
p2584
I517
sS'w+2=security'
p2585
I1918
sS'conj=affirm'
p2586
I206
sS'dobj=Garcia'
p2587
I390
sS'w+2=more'
p2588
I1815
sS'nsubj=Smith'
p2589
I774
sS'w-2=John'
p2590
I2460
sS'w+2=spending'
p2591
I1940
sS'w-1=Sydow'
p2592
I2150
sS'nsubj=head'
p2593
I869
sS'dobj=challenge'
p2594
I463
sS'nsubj=facility'
p2595
I858
sS'w+2=criterion'
p2596
I1667
sS'w-2=artemisinin'
p2597
I2617
sS'nsubj=Union'
p2598
I788
sS'nsubj=site'
p2599
I936
sS'conj=offer'
p2600
I280
sS'w+1=soar'
p2601
I1307
sS'nsubj=land'
p2602
I884
sS'dobj=Secretary'
p2603
I430
sS'w+2=candidate'
p2604
I1635
sS'nsubj=some'
p2605
I938
sS'dobj=Posey'
p2606
I422
sS'w-2=Lindsey'
p2607
I2485
sS'w+1=Michael'
p2608
I1118
sS'w-2=Hugo'
p2609
I2445
sS'nsubj=project'
p2610
I920
sS'nsubj=airline'
p2611
I800
sS'w+2=20'
p2612
I1373
sS'w-2=Agip'
p2613
I2361
sS'nsubj=committee'
p2614
I829
sS'w+2=Gaza'
p2615
I1442
sS'w-2=communist'
p2616
I2662
sS'w-1=country'
p2617
I2199
sS'w-2=military'
p2618
I2818
sS'dobj=friend'
p2619
I502
sS'dobj=Gbomo'
p2620
I392
sS'w+2=reduce'
p2621
I1889
sS'w-1=Brown'
p2622
I2038
sS'w-2=expect'
p2623
I2716
sS'w+2=interested'
p2624
I1760
sS'w+2=operating'
p2625
I1844
sS'tmod=today'
p2626
I1075
sS'conj=at'
p2627
I213
sS'w-2=aid'
p2628
I2602
sS'w+2=wife'
p2629
I2007
sS'nsubj=Saakashvili'
p2630
I757
sS'w+2=skepticism'
p2631
I1930
sS'w-1=activism'
p2632
I2160
sS'dobj=side'
p2633
I580
sS'nsubj=anyone'
p2634
I806
sS'w+2=Asia'
p2635
I1395
sS'w+2=Kuwaiti'
p2636
I1475
sS'w-1=ofdelegation'
p2637
I2275
sS'xcomp=decrease'
p2638
I3059
sS'w+1=face-to-face'
p2639
I1207
sS'w-2=ready'
p2640
I2891
sS'nsubj=result'
p2641
I927
sS'xcomp=cast'
p2642
I3044
sS'prep=for'
p2643
I1035
sS'w-2=march'
p2644
I2810
sS'advcl=reach'
p2645
I46
sS'nsubj=force'
p2646
I863
sS'w-2=together'
p2647
I2976
sS'w+1=iranian'
p2648
I1244
sS'dobj=negotiator'
p2649
I535
sS'w-2=ground'
p2650
I2750
sS'w-2=Democrat'
p2651
I2413
sS'nsubj=Sharpton'
p2652
I769
sS'nsubj=Bush'
p2653
I652
sS'conj=marry'
p2654
I273
sS'advcl=want'
p2655
I62
sS'dobj=leader'
p2656
I520
sS'nsubj=assembly'
p2657
I808
sS'w+2=as'
p2658
I1602
sS'w-2=U.S.'
p2659
I2572
sS'w-2=Mr.'
p2660
I2496
sS'parataxis=have'
p2661
I1008
sS'w+2=French'
p2662
I1439
sS'w-1=hero'
p2663
I2241
sS'w+2=Egypt'
p2664
I1428
sS'w-2=provision'
p2665
I2888
sS'w+1=Strasberg'
p2666
I1134
sS'nsubj=Kim'
p2667
I700
sS'conj=organize'
p2668
I282
sS'w-1=battery'
p2669
I2178
sS'nsubj=Gambari'
p2670
I677
sS'w+2=bureaucratic'
p2671
I1625
sS'w-2=manage'
p2672
I2809
sS'w+1=soon'
p2673
I1312
sS'w-2=also'
p2674
I2610
sS'w-2=pope'
p2675
I2872
sS'w-2=some'
p2676
I2935
sS'nsubj=ambassador'
p2677
I804
sS'nsubj=Prachanda'
p2678
I745
sS'nsubj=parliament'
p2679
I903
sS'w-2=sub-Saharan'
p2680
I2952
sS'dobj=requirement'
p2681
I571
sS'w-1=orchestra'
p2682
I2281
sS'w-1=defense'
p2683
I2202
sS'w-2=Paris'
p2684
I2515
sS'w+2=Bucharest'
p2685
I1403
sS'dep=call'
p2686
I333
sS'w-2=single'
p2687
I2930
sS'w+2=Saturdays'
p2688
I1536
sS'w+2=Ambassador'
p2689
I1387
sS'xcomp=avert'
p2690
I3037
sS'w+2=Democratic'
p2691
I1421
sS'dobj=Ahern'
p2692
I374
sS'w+2=with'
p2693
I2008
sS'w+2=play'
p2694
I1860
sS'w+2=medical'
p2695
I1801
sS'w-2=body'
p2696
I2629
sS'w+2=Captain'
p2697
I1411
sS'nsubj=Al-Nuhayyan'
p2698
I635
sS'w-2=hospital'
p2699
I2765
sS'w-2=wait'
p2700
I3004
sS'w+2=special'
p2701
I1939
sS'nsubj=au'
p2702
I809
sS'w-1=people'
p2703
I2287
sS'advcl=consult'
p2704
I13
sS'nsubj=Livni'
p2705
I710
sS'nsubj=al-Maliki'
p2706
I801
sS'w+2=president-elect'
p2707
I1867
sS'dobj=Aso'
p2708
I377
sS'w+2=or'
p2709
I1846
sS'w-2=passenger'
p2710
I2865
sS'nsubjpass=most'
p2711
I986
sS'w+1=different'
p2712
I1193
sS'nsubjpass=reform'
p2713
I995
sS'w-2=Wednesday'
p2714
I2579
sS'w-1=cabinet'
p2715
I2186
sS'w+2=of'
p2716
I1837
sS'w-2=Eastern'
p2717
I2419
sS'w+2=on'
p2718
I1840
sS'conj=believe'
p2719
I218
sS'w-2=thrill'
p2720
I2971
sS'nsubj=boatbuilder'
p2721
I813
sS'w+2=Kinshasa'
p2722
I1472
sS'xcomp=finish'
p2723
I3079
sS'w-1=satisfactorily'
p2724
I2304
sS'w+1=so'
p2725
I1306
sS'w+2=my'
p2726
I1819
sS'w+2=chief'
p2727
I1641
sS'w+2=part'
p2728
I1853
sS'w-1=while'
p2729
I2335
sS'w+2=once'
p2730
I1841
sS'prep=without'
p2731
I1055
sS'w-2=Sunday'
p2732
I2559
sS'nsubj=pope'
p2733
I915
sS'w-1=Pace'
p2734
I2117
sS'prep=inside'
p2735
I1039
sS'w+2=five'
p2736
I1715
sS'xcomp=approve'
p2737
I3036
sS'w-2=death'
p2738
I2679
sS'w-1=she'
p2739
I2306
sS'w-2=Pacific'
p2740
I2512
sS'w+2=from'
p2741
I1726
sS'w+2=two'
p2742
I1979
sS'w-1=supplies'
p2743
I2315
sS'w+2=man'
p2744
I1796
sS'w-1=turn'
p2745
I2328
sS'advmod=next'
p2746
I116
sS'w-2=Ramallah'
p2747
I2528
sS'w+2=Palestinian'
p2748
I1513
sS'w-2=fail'
p2749
I2720
sS'w-1=Myung-bak'
p2750
I2109
sS'w+2=challenge'
p2751
I1639
sS'nsubj=Crocker'
p2752
I666
sS'nsubj=Maliki'
p2753
I712
sS'w+2=long-standing'
p2754
I1792
sS'w-2=incursion'
p2755
I2775
sS'w-2=200'
p2756
I2351
sS'w+1=over'
p2757
I1280
sS'w+2=request'
p2758
I1897
sS'parataxis=rely'
p2759
I1011
sS'nsubj=Engin'
p2760
I671
sS'w+2=Freeman'
p2761
I1438
sS'dobj=public'
p2762
I563
sS'w-2=here'
p2763
I2760
sS'w-2=admiral'
p2764
I2595
sS'nsubj=Tehran'
p2765
I782
sS'w+2=reporter'
p2766
I1893
sS'w-1=Committee'
p2767
I2051
sS'w-2=resistant'
p2768
I2905
sS'conj=explain'
p2769
I246
sS'w-2=Condoleezza'
p2770
I2404
sS'w+1=several'
p2771
I1302
sS'parataxis=share'
p2772
I1014
sS'w+2=Faris'
p2773
I1434
sS'conj=move'
p2774
I275
sS'dobj=chief'
p2775
I466
sS'advcl=due'
p2776
I19
sS'prep=until'
p2777
I1052
sS'conj=release'
p2778
I291
sS'w-2=child'
p2779
I2651
sS'w+2=General'
p2780
I1444
sS'w+2=literacy'
p2781
I1789
sS'ccomp=end'
p2782
I175
sS'conj=risk'
p2783
I297
sS'xcomp=revive'
p2784
I3121
sS'aux=do'
p2785
I151
sS'w-2=problem'
p2786
I2880
sS'w+2=austrian'
p2787
I1607
sS'w+2=Mugabe'
p2788
I1493
sS'w-1=Council'
p2789
I2053
sS'w-1=camp'
p2790
I2187
sS'w-2=least'
p2791
I2800
sS'w+2=voter'
p2792
I1991
sS'xcomp=confirm'
p2793
I3050
sS'advmod=already'
p2794
I70
sS'advmod=whereby'
p2795
I144
sS'expl=there'
p2796
I607
sS'conj=meet'
p2797
I274
sS'w+2=Hamas'
p2798
I1446
sS'w-2=station'
p2799
I2946
sS'w+2=another'
p2800
I1597
sS'nsubj=people'
p2801
I905
sS'w-2=lady'
p2802
I2795
sS'w+1=Kim'
p2803
I1115
sS'w+2=bank'
p2804
I1610
sS'dobj=Gates'
p2805
I391
sS'nsubj=commander'
p2806
I827
sS'w-1=next'
p2807
I2270
sS'nsubjpass=worker'
p2808
I1006
sS'w-2=industrialised'
p2809
I2776
sS'w+2=people'
p2810
I1857
sS'w-2=g-8'
p2811
I2740
sS'w+1=current'
p2812
I1186
sS'w-2=--'
p2813
I2347
sS'w-2=Sirleaf'
p2814
I2553
sS'dobj=ally'
p2815
I447
sS'w-1=Asia-Europe'
p2816
I2031
sS'w+2=list'
p2817
I1787
sS'w-2=capability'
p2818
I2639
sS'advmod=longer'
p2819
I114
sS'w+2=lawmaker'
p2820
I1781
sS'w+1=foreign'
p2821
I1212
sS'w+1=Britain'
p2822
I1097
sS'nsubj=Obama'
p2823
I736
sS'w-2=alone'
p2824
I2609
sS'w-2=refurbish'
p2825
I2895
sS'conj=represent'
p2826
I294
sS'w-2=senior'
p2827
I2922
sS'w-2=it'
p2828
I2786
sS'w+1=one'
p2829
I1274
sS'w-2=determine'
p2830
I2690
sS'w+2=week'
p2831
I1998
sS'w+1=any'
p2832
I1158
sS'w-1=Amado'
p2833
I2028
sS'w+2=Diallo'
p2834
I1424
sS'w+1=despite'
p2835
I1191
sS'w-2=father'
p2836
I2722
sS'w-1=Sheeran'
p2837
I2144
sS'xcomp=decry'
p2838
I3060
sS'w+2=August'
p2839
I1396
sS"w+2=''"
p2840
I1363
sS'nsubj=country'
p2841
I836
sS'w-2=asian'
p2842
I2619
sS'w+2=November'
p2843
I1505
sS'w+1=measurable'
p2844
I1263
sS'dobj=who'
p2845
I604
sS'advmod=nonetheless'
p2846
I117
sS'w+1=personally'
p2847
I1283
sS'w+1=follow'
p2848
I1210
sS'nsubj=officer'
p2849
I898
sS'w-1=wife'
p2850
I2337
sS'w+1=even'
p2851
I1201
sS'w+2=italian'
p2852
I1767
sS'w-2=program'
p2853
I2883
sS'w+2=threat'
p2854
I1968
sS'w+1=exactly'
p2855
I1205
sS'w-1=rarely'
p2856
I2295
sS'xcomp=elect'
p2857
I3070
sS'w+2=need'
p2858
I1824
sS'tmod=June'
p2859
I1063
sS'prep=under'
p2860
I1051
sS'nsubj=Medvedev'
p2861
I717
sS'w-2=narrow'
p2862
I2828
sS'w-2=supply'
p2863
I2957
sS'w-2=use'
p2864
I2998
sS'parataxis=respect'
p2865
I1012
sS'dobj=babyface'
p2866
I454
sS'w-2=french'
p2867
I2737
sS'prep=such'
p2868
I1045
sS'w-2=summit'
p2869
I2955
sS'w-1=Tran'
p2870
I2153
sS'advcl=widen'
p2871
I64
sS"w+2='s"
p2872
I1364
sS'w-2=when'
p2873
I3011
sS'nsubj=Hayden'
p2874
I683
sS'conj=hold'
p2875
I261
sS'w-2=relief'
p2876
I2899
sS'w-1=Medvedev'
p2877
I2099
sS'nsubj=journalist'
p2878
I879
sS'mark=until'
p2879
I622
sS'w-2=trade'
p2880
I2980
sS'w+1=unmet'
p2881
I1343
sS'dep=easier'
p2882
I340
sS'advcl=find'
p2883
I25
sS'dobj=chess'
p2884
I465
sS'dobj=Johnson'
p2885
I404
sS'conj=leave'
p2886
I267
sS'conj=agree'
p2887
I207
sS'w-1=al-Maliki'
p2888
I2168
sS'w+2=mixed'
p2889
I1810
sS'nsubj=Lee'
p2890
I708
sS'w+1=linguist'
p2891
I1260
sS'w+2=pass'
p2892
I1854
sS'w-2=responsibility'
p2893
I2908
sS'w+2=Siniora'
p2894
I1548
sS'w+2=before'
p2895
I1616
sS'w+2=closed-door'
p2896
I1649
sS'w-1=Thursday'
p2897
I2152
sS'w+2=alliance'
p2898
I1590
sS'w-1=commander'
p2899
I2194
sS'w+2=Camp'
p2900
I1408
sS'dobj=family'
p2901
I497
sS'w+2=physical'
p2902
I1859
sS'dep=engage'
p2903
I341
sS'w+2=struggle'
p2904
I1944
sS'dobj=Siniora'
p2905
I433
sS'w+2=hour'
p2906
I1748
sS'mark=before'
p2907
I611
sS'w-2=money'
p2908
I2824
sS'w-2=center'
p2909
I2645
sS'w+2=Musharraf'
p2910
I1494
sS'aux=must'
p2911
I155
sS'conj=get'
p2912
I253
sS'w-2=field'
p2913
I2723
sS'w+1=rival'
p2914
I1297
sS'ccomp=game'
p2915
I179
sS'w+2=visit'
p2916
I1990
sS'w-1=site'
p2917
I2309
sS'w-1=might'
p2918
I2261
sS'xcomp=reject'
p2919
I3116
sS'w+2=Mr.'
p2920
I1490
sS'w-2=be'
p2921
I2621
sS'w+2=global'
p2922
I1729
sS'w+2=afternoon'
p2923
I1585
sS'nsubj=Odinga'
p2924
I738
sS'w+1=three'
p2925
I1330
sS'dobj=criterion'
p2926
I478
sS'w+1=work'
p2927
I1357
sS'parataxis=launch'
p2928
I1009
sS'w+2=goal'
p2929
I1730
sS'w-2=Clinton'
p2930
I2401
sS'nsubjpass=announcement'
p2931
I969
sS'w+2=declare'
p2932
I1674
sS'dobj=Museveni'
p2933
I414
sS'advcl=begin'
p2934
I9
sS'w+2=Sri'
p2935
I1551
sS'w+1=Tuesday'
p2936
I1140
sS'w-2=prime'
p2937
I2879
sS'w+2=presidential'
p2938
I1868
sS'nsubj=Brown'
p2939
I649
sS'w-2=action'
p2940
I2594
sS'dep=Asian'
p2941
I325
sS'w-2=goods'
p2942
I2746
sS'dobj=Chiefs'
p2943
I384
sS'w-2=Plan'
p2944
I2520
sS'ccomp=begin'
p2945
I166
sS'xcomp=consider'
p2946
I3051
sS'xcomp=reassure'
p2947
I3114
sS'w+1=all'
p2948
I1155
sS'dep=non-transparent'
p2949
I353
sS'w+2=Mubarak'
p2950
I1492
sS'w+2=Nkunda'
p2951
I1503
sS'conj=follow'
p2952
I250
sS'w+1=hiv\\/aids'
p2953
I1227
sS'nsubj=Flatt'
p2954
I674
sS'w+2=Sarkozys'
p2955
I1534
sS'w+2=.'
p2956
I1371
sS'dobj=society'
p2957
I582
sS'w-2=want'
p2958
I3005
sS'w+2=any'
p2959
I1598
sS'w-2=swim'
p2960
I2958
sS'w-2=whose'
p2961
I3017
sS'advmod=informally'
p2962
I104
sS'dobj=stranger'
p2963
I587
sS'dobj=General'
p2964
I393
sS'w-1=partially'
p2965
I2285
sS'w+2=union'
p2966
I1981
sS'dobj=list'
p2967
I521
sS'dobj=woman'
p2968
I606
sS'w-1=Abbas'
p2969
I2025
sS'dobj=a'
p2970
I442
sS'ccomp=criticize'
p2971
I170
sS'w-2=Nations'
p2972
I2504
sS'w+1=no'
p2973
I1269
sS'dobj=expectation'
p2974
I493
sS'w-2=conference'
p2975
I2666
sS'advmod=separately'
p2976
I130
sS'nsubj=Americans'
p2977
I640
sS'tmod=#DATE#'
p2978
I1061
sS'w+2=member'
p2979
I1802
sS'w-2=secretary'
p2980
I2918
sS'w-1=Silva'
p2981
I2145
sS'nsubj=percent'
p2982
I906
sS'nsubj=communist'
p2983
I830
sS'w+2=--'
p2984
I1368
sS'conj=endure'
p2985
I241
sS'w+2=resistance'
p2986
I1901
sS'cop=be'
p2987
I322
sS'w+1=Thursday'
p2988
I1139
sS'dep=difficult'
p2989
I338
sS'nsubj=America'
p2990
I639
sS'w-2=Barroso'
p2991
I2382
sS'w+2=closed'
p2992
I1648
sS'advcl=announce'
p2993
I2
sS'conj=succeed'
p2994
I308
sS'advcl=occur'
p2995
I39
sS'dobj=activist'
p2996
I443
sS'w-2=say'
p2997
I2915
sS'w+2=the'
p2998
I1960
sS'prep=at'
p2999
I1026
sS'nsubj=friend'
p3000
I865
sS'prep=as'
p3001
I1025
sS'w-2=Dmitri'
p3002
I2416
sS'w+2=negotiate'
p3003
I1825
sS'dobj=volunteer'
p3004
I599
sS'w-2=seventh'
p3005
I2925
sS'conj=associate'
p3006
I212
sS'w+2=Press'
p3007
I1521
sS'w+2=ethiopian'
p3008
I1700
sS'advcl=suspend'
p3009
I56
sS'w-1=Mubarak'
p3010
I2104
sS'w-2=girl'
p3011
I2743
sS'w-1=.'
p3012
I2024
sS'w-1=-'
p3013
I2021
sS'dobj=victim'
p3014
I598
sS'w+1=anybody'
p3015
I1159
sS'w-2=defense'
p3016
I2684
sS'w-2=NATO'
p3017
I2500
sS'w+1=every'
p3018
I1202
sS'w+1=chinese'
p3019
I1179
sS'xcomp=lift'
p3020
I3090
sS'w-2=strive'
p3021
I2951
sS'w+2=israeli'
p3022
I1765
sS'w-2=Thursday'
p3023
I2563
sS'conj=swap'
p3024
I309
sS'prep=through'
p3025
I1048
sS'xcomp=life'
p3026
I3089
sS'w+2=one'
p3027
I1842
sS'w+2=Baghdad'
p3028
I1397
sS'w-1=I'
p3029
I2077
sS'tmod=Laden'
p3030
I1064
sS'w-2=environmental'
p3031
I2709
sS'nsubj=Dawei'
p3032
I667
sS'w-2=case'
p3033
I2644
sS'w+2=Minister'
p3034
I1488
sS'dep=wed'
p3035
I367
sS'nsubj=Reed'
p3036
I749
sS'advcl=lock'
p3037
I35
sS'nsubj=McCain'
p3038
I715
sS'advcl=prelude'
p3039
I43
sS'w-2=willing'
p3040
I3019
sS'w-1=Maliki'
p3041
I2096
sS'w+2=work'
p3042
I2011
sS'w-2=so'
p3043
I2934
sS'nsubj=city'
p3044
I825
sS'dobj=Maehara'
p3045
I410
sS'mark=as'
p3046
I609
sS'w-2=House'
p3047
I2443
sS'dep=freeze'
p3048
I343
sS'nsubj=reporter'
p3049
I923
sS'advcl=seek'
p3050
I52
sS'w-2=hard'
p3051
I2754
sS'w-1=-rrb-'
p3052
I2023
sS'nsubj=measure'
p3053
I888
sS'w-1=general'
p3054
I2231
sS'w+1=again'
p3055
I1153
sS'w-1=researcher'
p3056
I2303
sS'w-2=Johansen'
p3057
I2459
sS'w+1=argentine'
p3058
I1160
sS'w+1=frequently'
p3059
I1214
sS'w-2=son'
p3060
I2936
sS'w+2=they'
p3061
I1964
sS'w-2=remark'
p3062
I2901
sS'dobj=parody'
p3063
I543
sS'dobj=capacity'
p3064
I462
sS'w+1=President'
p3065
I1126
sS'nsubj=opposition'
p3066
I900
sS'w-2=we'
p3067
I3007
sS'nsubj=Samak'
p3068
I760
sS'w+2=then'
p3069
I1961
sS'dobj=Moo-hyun'
p3070
I412
sS'dep=need'
p3071
I352
sS'xcomp=find'
p3072
I3078
sS'w+1=north'
p3073
I1270
sS'dobj=pledge'
p3074
I553
sS'nsubj=violation'
p3075
I952
sS'w-2=development'
p3076
I2692
sS'w-2=move'
p3077
I2825
sS'dobj=Islamists'
p3078
I402
sS'w+1=last'
p3079
I1252
sS'nsubj=soldier'
p3080
I937
sS'w-2=both'
p3081
I2631
sS'w+2=friend'
p3082
I1725
sS'xcomp=thrash'
p3083
I3138
sS'advcl=hold'
p3084
I31
sS'w+2=date'
p3085
I1670
sS'dobj=bail'
p3086
I455
sS'w+2=Garcia'
p3087
I1441
sS'advmod=how'
p3088
I101
sS'w+2=excitement'
p3089
I1704
sS'w+2=australian'
p3090
I1606
sS'w+1=continuously'
p3091
I1184
sS'dobj=minister'
p3092
I528
sS'nsubj=Mbeki'
p3093
I714
sS'w-1=body'
p3094
I2184
sS'nsubj=Diallo'
p3095
I670
sS'conj=sell'
p3096
I301
sS'dobj=animal'
p3097
I449
sS'w-2=Leonean'
p3098
I2483
sS'w-2=help'
p3099
I2759
sS'w-1=than'
p3100
I2318
sS'w-1=as'
p3101
I2174
sS'w+1=Palestinians'
p3102
I1124
sS'w-1=we'
p3103
I2333
sS'w+1=basic'
p3104
I1165
sS'w-1=Lansky'
p3105
I2093
sS'w+2=quickly'
p3106
I1875
sS'w-2=disclosure'
p3107
I2695
sS'w+1=promise'
p3108
I1289
sS'w+2=October'
p3109
I1508
sS'nsubj=Hakim'
p3110
I681
sS'w-2=SLPP'
p3111
I2537
sS'advcl=travel'
p3112
I59
sS'dobj=person'
p3113
I550
sS'conj=acknowledge'
p3114
I203
sS'nsubj=worker'
p3115
I961
sS'w-2=refusal'
p3116
I2896
sS'w-1=Khalilzad'
p3117
I2086
sS'w+2=Ethiopia'
p3118
I1432
sS'nsubj=Iran'
p3119
I688
sS'advmod=later'
p3120
I112
sS'w+1=girl'
p3121
I1217
sS'w+1=some'
p3122
I1309
sS'w+2=,'
p3123
I1365
sS'w+2=-'
p3124
I1367
sS'w+1=briefly'
p3125
I1172
sS"w+2='"
p3126
I1362
sS'nsubjpass=challenge'
p3127
I973
sS'nsubj=Cheney'
p3128
I657
sS'conj=describe'
p3129
I237
sS'w+2=decide'
p3130
I1673
sS'w-2=engineer'
p3131
I2706
sS'advmod=rapidly'
p3132
I125
sS'advcl=report'
p3133
I48
sS'w+2=I'
p3134
I1449
sS'w+2=Burkina'
p3135
I1404
sS'w+2=Zimbabwe'
p3136
I1576
sS'conj=deepen'
p3137
I234
sS'nsubjpass=visit'
p3138
I1005
sS'w+2=x'
p3139
I2014
sS'dobj=commander'
p3140
I470
sS'w-2=Najaf'
p3141
I2501
sS'w+2=Vietnam'
p3142
I1570
sS'w-1=may'
p3143
I2259
sS'w+2=commitment'
p3144
I1652
sS'w-1=man'
p3145
I2258
sS'w-2=Kabul'
p3146
I2465
sS'w-2=Delta'
p3147
I2412
sS'w-2=Arab'
p3148
I2372
sS'w+2=a'
p3149
I1577
sS'w-2=European'
p3150
I2426
sS'w+2=Senate'
p3151
I1541
ssS'dtype'
p3152
cnumpy
float64
p3153
sS'feature_names_'
p3154
(lp3155
g1328
ag1103
ag2993
ag867
ag1416
ag1647
ag2560
ag157
ag1098
ag2934
ag185
ag883
ag2575
ag2704
ag651
ag2314
ag698
ag610
ag635
ag2776
ag1325
ag2372
ag1356
ag1872
ag1327
ag2883
ag2239
ag760
ag1951
ag2176
ag1114
ag3084
ag518
ag1883
ag880
ag3037
ag2236
ag60
ag1673
ag2995
ag16
ag297
ag2270
ag3039
ag1597
ag1869
ag2645
ag1264
ag3133
ag1478
ag1237
ag1318
ag3050
ag1000
ag1893
ag2019
ag3009
ag1659
ag1924
ag3112
ag582
ag1837
ag2655
ag216
ag2871
ag652
ag2190
ag1818
ag2502
ag1081
ag2794
ag530
ag77
ag596
ag921
ag1257
ag1165
ag748
ag80
ag1950
ag8
ag14
ag1208
ag1990
ag2561
ag1294
ag2549
ag1847
ag1854
ag1397
ag1981
ag1993
ag1178
ag412
ag1173
ag1842
ag2286
ag486
ag1627
ag507
ag206
ag3088
ag1175
ag2274
ag2962
ag1808
ag1113
ag2555
ag862
ag1803
ag948
ag1138
ag3120
ag1761
ag2819
ag1019
ag2746
ag2846
ag324
ag2201
ag2452
ag935
ag1668
ag1041
ag642
ag3132
ag998
ag1378
ag731
ag1571
ag2976
ag1190
ag860
ag1245
ag696
ag1888
ag804
ag1217
ag785
ag2398
ag2085
ag2356
ag1855
ag220
ag2795
ag545
ag1715
ag2296
ag2338
ag915
ag2110
ag2785
ag1446
ag870
ag2426
ag2911
ag703
ag2298
ag2004
ag2485
ag1877
ag1261
ag2061
ag1326
ag484
ag1068
ag2945
ag1974
ag2348
ag2005
ag2971
ag2423
ag1205
ag1272
ag1639
ag2782
ag1300
ag2409
ag465
ag2915
ag141
ag1309
ag1549
ag2429
ag671
ag918
ag340
ag886
ag840
ag126
ag2301
ag856
ag849
ag1169
ag117
ag45
ag1937
ag2118
ag1677
ag2260
ag456
ag505
ag2153
ag3114
ag2237
ag1247
ag2586
ag2887
ag1402
ag90
ag908
ag246
ag3006
ag2627
ag1915
ag2464
ag144
ag213
ag2719
ag238
ag946
ag58
ag2312
ag1791
ag649
ag1658
ag639
ag2023
ag1126
ag1278
ag452
ag2275
ag65
ag237
ag3137
ag2367
ag800
ag3129
ag2020
ag67
ag851
ag2985
ag1354
ag492
ag1008
ag191
ag2769
ag690
ag2148
ag498
ag2952
ag814
ag1343
ag2912
ag1052
ag2187
ag211
ag1188
ag1938
ag1340
ag1467
ag2875
ag2583
ag565
ag986
ag2457
ag2018
ag2886
ag1058
ag1050
ag2406
ag1594
ag956
ag2654
ag2797
ag2774
ag1671
ag193
ag1082
ag1716
ag2600
ag295
ag2668
ag2271
ag1766
ag1206
ag1194
ag588
ag773
ag1249
ag2197
ag2778
ag1203
ag1333
ag2826
ag2365
ag533
ag2783
ag2083
ag2115
ag1968
ag3096
ag1550
ag2332
ag1160
ag1976
ag353
ag2451
ag2994
ag3024
ag803
ag1551
ag2135
ag127
ag1375
ag20
ag1242
ag788
ag272
ag1723
ag2433
ag66
ag2987
ag941
ag151
ag2941
ag1653
ag485
ag1545
ag2294
ag397
ag663
ag1132
ag2686
ag1263
ag1373
ag418
ag1666
ag2989
ag607
ag2882
ag2903
ag1184
ag3048
ag1781
ag1311
ag244
ag874
ag2120
ag2458
ag888
ag846
ag3071
ag2949
ag1692
ag425
ag1499
ag1783
ag711
ag321
ag875
ag695
ag2539
ag2443
ag1219
ag1882
ag1508
ag3035
ag1187
ag2564
ag591
ag263
ag705
ag253
ag2692
ag778
ag158
ag2708
ag2149
ag1969
ag2189
ag1484
ag1593
ag648
ag2943
ag214
ag180
ag681
ag222
ag2279
ag2587
ag2805
ag2620
ag2964
ag1967
ag1560
ag1776
ag1801
ag1104
ag1037
ag439
ag2029
ag3078
ag134
ag2885
ag1021
ag483
ag252
ag549
ag2535
ag3045
ag441
ag3070
ag1711
ag2933
ag1418
ag1845
ag68
ag1746
ag929
ag1192
ag1765
ag2606
ag1457
ag866
ag2496
ag2233
ag1207
ag2474
ag2263
ag2603
ag2566
ag684
ag2905
ag1335
ag2210
ag1319
ag1510
ag1262
ag2261
ag1349
ag1708
ag2970
ag2996
ag2242
ag1694
ag978
ag2815
ag234
ag3097
ag2111
ag85
ag1983
ag1046
ag2866
ag3086
ag1745
ag1596
ag1009
ag931
ag192
ag2234
ag3064
ag2594
ag1239
ag2884
ag2775
ag792
ag2562
ag2424
ag3140
ag1505
ag313
ag1975
ag41
ag1407
ag1092
ag98
ag2926
ag435
ag466
ag1469
ag1886
ag2418
ag686
ag300
ag735
ag1961
ag1957
ag1135
ag2086
ag2349
ag368
ag2974
ag11
ag2570
ag2262
ag2901
ag527
ag715
ag2547
ag1084
ag2619
ag407
ag858
ag1929
ag1933
ag2454
ag1612
ag2077
ag2050
ag1790
ag29
ag2119
ag1433
ag454
ag363
ag2584
ag1062
ag752
ag2656
ag2967
ag1137
ag916
ag762
ag1274
ag1254
ag84
ag3092
ag240
ag1857
ag1751
ag655
ag461
ag968
ag2649
ag1445
ag259
ag2031
ag1048
ag1394
ag265
ag2405
ag3063
ag2306
ag775
ag2132
ag446
ag1013
ag21
ag3113
ag1836
ag1722
ag3074
ag934
ag747
ag537
ag597
ag2172
ag2427
ag1256
ag951
ag2563
ag2762
ag375
ag1006
ag2542
ag1121
ag1388
ag1511
ag2506
ag2681
ag1731
ag1518
ag1582
ag2151
ag540
ag1233
ag1435
ag1779
ag2633
ag2355
ag2957
ag1538
ag962
ag1774
ag1316
ag2963
ag2008
ag2431
ag1417
ag1099
ag572
ag275
ag1365
ag1724
ag2243
ag1509
ag3014
ag3004
ag1536
ag438
ag2330
ag975
ag2845
ag692
ag2968
ag2796
ag626
ag3046
ag2425
ag2907
ag1839
ag1764
ag1767
ag713
ag1523
ag2567
ag1972
ag2559
ag1118
ag891
ag2879
ag463
ag1563
ag282
ag1494
ag781
ag2224
ag1898
ag574
ag73
ag1479
ag691
ag249
ag2698
ag108
ag1140
ag1171
ag2990
ag2977
ag1815
ag2462
ag2046
ag1895
ag1585
ag2114
ag1640
ag2094
ag2939
ag750
ag2042
ag2653
ag850
ag187
ag1398
ag1039
ag3128
ag872
ag552
ag462
ag1305
ag1461
ag1200
ag876
ag2010
ag2752
ag3032
ag317
ag1295
ag3095
ag2760
ag740
ag329
ag2954
ag571
ag203
ag2670
ag2366
ag718
ag2545
ag3110
ag1214
ag2874
ag2557
ag2152
ag522
ag374
ag3119
ag428
ag1672
ag1703
ag50
ag1827
ag1930
ag162
ag2084
ag72
ag502
ag774
ag2667
ag1858
ag350
ag999
ag2122
ag879
ag1026
ag508
ag2890
ag1220
ag2705
ag580
ag2753
ag1189
ag3093
ag3038
ag284
ag2861
ag1430
ag1867
ag1826
ag2160
ag2345
ag2512
ag304
ag1919
ag2163
ag1271
ag274
ag953
ag646
ag344
ag61
ag1584
ag990
ag2400
ag2823
ag595
ag2924
ag1859
ag2412
ag2229
ag813
ag2266
ag2246
ag2678
ag453
ag1107
ag2017
ag3036
ag2519
ag309
ag2548
ag2481
ag173
ag467
ag1532
ag2630
ag2003
ag766
ag3068
ag1819
ag1304
ag1586
ag1023
ag2461
ag71
ag464
ag147
ag2652
ag548
ag217
ag963
ag794
ag2589
ag184
ag19
ag1230
ag1992
ag771
ag2390
ag1870
ag2765
ag2484
ag1770
ag1865
ag1400
ag821
ag2598
ag2411
ag1759
ag183
ag382
ag277
ag531
ag1785
ag1106
ag199
ag2174
ag1125
ag2611
ag2706
ag1738
ag2558
ag2677
ag1003
ag2634
ag2289
ag2657
ag2702
ag1476
ag1216
ag2146
ag2721
ag497
ag852
ag1032
ag960
ag1685
ag356
ag757
ag1995
ag2554
ag51
ag2157
ag3044
ag737
ag2806
ag393
ag2614
ag2983
ag743
ag923
ag1946
ag2397
ag1623
ag2841
ag1321
ag1229
ag92
ag109
ag1482
ag1619
ag1452
ag2308
ag1515
ag873
ag733
ag900
ag1117
ag296
ag1517
ag2185
ag202
ag628
ag2466
ag2434
ag1149
ag2595
ag1419
ag1916
ag2311
ag1737
ag2646
ag2490
ag3000
ag2379
ag210
ag2171
ag2593
ag2250
ag1773
ag688
ag939
ag2455
ag982
ag993
ag2396
ag815
ag2878
ag1664
ag1736
ag1296
ag1281
ag2602
ag2347
ag882
ag1362
ag3053
ag200
ag410
ag2255
ag1080
ag2211
ag543
ag765
ag1401
ag2117
ag2849
ag1314
ag3066
ag945
ag2393
ag2679
ag1811
ag2801
ag2982
ag285
ag1695
ag2552
ag1495
ag2049
ag2184
ag18
ag308
ag2733
ag1848
ag348
ag2514
ag2130
ag2610
ag306
ag1642
ag3049
ag563
ag358
ag1913
ag2641
ag451
ag2430
ag1680
ag1903
ag816
ag1447
ag2227
ag1638
ag2599
ag3080
ag2605
ag630
ag430
ag475
ag2497
ag123
ag35
ag1040
ag2203
ag122
ag2079
ag159
ag1821
ag1588
ag3075
ag2417
ag1059
ag236
ag1366
ag1795
ag1614
ag1987
ag2150
ag3115
ag1324
ag2480
ag271
ag768
ag947
ag2022
ag1575
ag2931
ag1985
ag2014
ag1646
ag3127
ag2069
ag1503
ag1134
ag2283
ag791
ag2059
ag1730
ag964
ag2257
ag1064
ag693
ag361
ag2711
ag981
ag86
ag1163
ag2129
ag155
ag2265
ag887
ag2103
ag2713
ag12
ag1853
ag714
ag292
ag1243
ag1899
ag1374
ag1055
ag936
ag3138
ag2808
ag1644
ag2661
ag2928
ag656
ag2759
ag2865
ag1088
ag2772
ag893
ag336
ag2214
ag606
ag914
ag1412
ag734
ag1717
ag836
ag186
ag3001
ag2999
ag1393
ag2342
ag2002
ag2374
ag2373
ag330
ag2317
ag1894
ag2643
ag1527
ag1710
ag1306
ag2735
ag2133
ag2137
ag481
ag1045
ag674
ag2868
ag2371
ag2360
ag3025
ag950
ag1265
ag2860
ag2777
ag2011
ag841
ag2731
ag2520
ag1371
ag331
ag1016
ag2392
ag2978
ag1643
ag2859
ag3030
ag1925
ag1269
ag1210
ag1810
ag2139
ag215
ag1682
ag1662
ag1917
ag670
ag2626
ag269
ag1541
ag2087
ag1704
ag1542
ag1087
ag2088
ag227
ag1543
ag386
ag664
ag665
ag666
ag2067
ag2193
ag174
ag913
ag1914
ag1663
ag2228
ag1044
ag2822
ag1403
ag689
ag1395
ag2354
ag517
ag525
ag322
ag965
ag1962
ag2164
ag1576
ag2491
ag1555
ag1676
ag1464
ag1820
ag9
ag2803
ag1955
ag2212
ag2608
ag1608
ag724
ag789
ag2053
ag129
ag3102
ag2449
ag3065
ag828
ag307
ag854
ag229
ag926
ag279
ag1497
ag2666
ag1277
ag578
ag469
ag1072
ag2988
ag2936
ag1570
ag629
ag2249
ag640
ag343
ag2486
ag2544
ag1565
ag575
ag195
ag379
ag556
ag3055
ag509
ag2948
ag2522
ag2504
ag2832
ag3015
ag3058
ag1828
ag1830
ag258
ag423
ag3104
ag2070
ag1966
ag758
ag1015
ag1655
ag243
ag3125
ag370
ag1093
ag677
ag2068
ag524
ag1481
ag3019
ag2507
ag1787
ag459
ag853
ag3091
ag2370
ag2812
ag2447
ag2030
ag2241
ag83
ag2835
ag593
ag2712
ag2235
ag721
ag809
ag793
ag701
ag2288
ag1897
ag2851
ag3018
ag153
ag2273
ag2855
ag402
ag2639
ag2194
ag659
ag2848
ag942
ag2821
ag1931
ag3059
ag510
ag2063
ag3121
ag927
ag823
ag1720
ag1057
ag892
ag288
ag2092
ag1307
ag1483
ag2953
ag1522
ag842
ag567
ag1320
ag564
ag1164
ag36
ag568
ag1170
ag2056
ag584
ag1625
ag235
ag205
ag1964
ag917
ag2648
ag2108
ag512
ag1904
ag1465
ag1906
ag2043
ag783
ag3079
ag1432
ag196
ag1252
ag2303
ag1227
ag1725
ag1636
ag2891
ag422
ag1489
ag2844
ag1599
ag1699
ag2470
ag767
ag1889
ag2973
ag3073
ag2385
ag114
ag1383
ag2829
ag1934
ag1632
ag1322
ag605
ag1741
ag2757
ag2453
ag341
ag2847
ag1813
ag413
ag2339
ag455
ag983
ag3108
ag310
ag863
ag2384
ag2540
ag22
ag443
ag1896
ag2914
ag1488
ag566
ag289
ag342
ag2771
ag99
ag1215
ag992
ag2725
ag2601
ag1012
ag3122
ag598
ag2064
ag2673
ag38
ag1613
ag1270
ag1195
ag458
ag1299
ag1905
ag1846
ag844
ag160
ag1696
ag255
ag1892
ag1631
ag1702
ag2195
ag1706
ag2925
ag1150
ag303
ag1148
ag1348
ag1634
ag1629
ag2098
ag1158
ag150
ag1809
ag2459
ag1480
ag2881
ag829
ag1408
ag1686
ag2101
ag1868
ag1038
ag2313
ag685
ag1529
ag1410
ag1429
ag2162
ag1043
ag2927
ag2376
ag1701
ag270
ag1049
ag3126
ag2840
ag2872
ag3123
ag1376
ag3124
ag2984
ag903
ag161
ag2956
ag188
ag2612
ag2578
ag2577
ag2581
ag1589
ag2341
ag952
ag207
ag2199
ag1066
ag812
ag479
ag1578
ag2177
ag2689
ag2206
ag2394
ag634
ag1183
ag2051
ag1297
ag1561
ag2635
ag2839
ag3028
ag1824
ag1392
ag1799
ag1198
ag1342
ag2685
ag3135
ag912
ag2326
ag1168
ag2900
ag599
ag1832
ag2697
ag1346
ag2121
ag1863
ag2035
ag1030
ag2124
ag115
ag63
ag491
ag2691
ag152
ag2200
ag2834
ag1530
ag551
ag1024
ag2664
ag1838
ag1273
ag1108
ag3118
ag780
ag2773
ag808
ag1645
ag198
ag2761
ag2662
ag1470
ag3087
ag2615
ag2541
ag2780
ag2026
ag2798
ag2073
ag1878
ag3134
ag1973
ag1772
ag1448
ag2530
ag1444
ag2305
ag976
ag376
ag1602
ag1029
ag1691
ag1308
ag1932
ag1994
ag357
ag1222
ag1145
ag1384
ag399
ag1678
ag332
ag1493
ag2722
ag2437
ag806
ag2636
ag395
ag795
ag299
ag647
ag1086
ag1667
ag2576
ag1485
ag1831
ag2536
ag2052
ag535
ag3034
ag362
ag2920
ag1757
ag2950
ag2788
ag2910
ag1674
ag633
ag1070
ag1061
ag2407
ag523
ag364
ag1338
ag2951
ag650
ag2843
ag2435
ag799
ag3109
ag480
ag1817
ag2494
ag1260
ag2748
ag824
ag1389
ag1887
ag1798
ag1756
ag1209
ag1693
ag3007
ag104
ag2147
ag2302
ag2016
ag1036
ag2473
ag345
ag349
ag694
ag1607
ag2238
ag2039
ag2955
ag323
ag2688
ag156
ag1490
ag2028
ag79
ag3151
ag2292
ag1182
ag366
ag1558
ag594
ag2538
ag2894
ag437
ag1698
ag2935
ag388
ag1345
ag2009
ag1387
ag1600
ag1101
ag137
ag2573
ag1111
ag2403
ag251
ag128
ag2290
ag426
ag1221
ag1525
ag586
ag1459
ag3142
ag1162
ag1466
ag179
ag2131
ag727
ag3136
ag3149
ag2315
ag1749
ag2089
ag1065
ag2416
ag2543
ag1881
ag2923
ag89
ag93
ag383
ag290
ag2898
ag1579
ag1423
ag1591
ag96
ag2167
ag617
ag2800
ag2959
ag130
ag1180
ag2439
ag2658
ag2062
ag2325
ag239
ag3090
ag2787
ag1615
ag1077
ag2804
ag2556
ag1729
ag618
ag2340
ag305
ag2895
ag835
ag817
ag2404
ag974
ag2322
ag843
ag855
ag301
ag2671
ag64
ag590
ag2143
ag797
ag2333
ag32
ag2468
ag228
ag1796
ag2604
ag2515
ag1250
ag1146
ag2751
ag2381
ag2727
ag1622
ag2258
ag2324
ag1802
ag2099
ag1152
ag2992
ag2896
ag450
ag31
ag3144
ag2074
ag994
ag2524
ag2123
ag1860
ag1739
ag1372
ag938
ag74
ag1100
ag1455
ag2247
ag1727
ag2571
ag2596
ag182
ag555
ag3085
ag1775
ag1347
ag3130
ag2932
ag1123
ag1568
ag637
ag1120
ag482
ag558
ag2380
ag408
ag520
ag2182
ag728
ag2344
ag1131
ag562
ag1211
ag232
ag132
ag2276
ag503
ag966
ag2307
ag784
ag389
ag576
ag94
ag3008
ag958
ag233
ag1315
ag3089
ag1028
ag1436
ag1213
ag1953
ag17
ag56
ag2220
ag1840
ag909
ag894
ag2736
ag1453
ag1155
ag2440
ag2493
ag699
ag889
ag225
ag2251
ag401
ag3082
ag2741
ag1891
ag2066
ag2922
ag2929
ag707
ag1002
ag643
ag1909
ag1942
ag2475
ag2267
ag1742
ag1156
ag25
ag1031
ag1363
ag1546
ag2012
ag1507
ag2450
ag2213
ag2906
ag1959
ag1413
ag1500
ag937
ag988
ag904
ag961
ag1805
ag613
ag194
ag1471
ag2624
ag175
ag1829
ag706
ag1797
ag3022
ag906
ag2852
ag1238
ag1590
ag865
ag2516
ag315
ag1996
ag546
ag1303
ag673
ag1355
ag583
ag294
ag2161
ag2820
ag2207
ag1552
ag1684
ag1807
ag2304
ag2817
ag798
ag2781
ag579
ag1999
ag2754
ag1778
ag351
ag1936
ag2744
ag1225
ag559
ag1670
ag2386
ag2695
ag2979
ag1900
ag2323
ag1090
ag1581
ag471
ag581
ag365
ag2889
ag504
ag1186
ag1042
ag1626
ag2588
ag746
ag2428
ag1202
ag2726
ag55
ag1011
ag1604
ag511
ag2858
ag3003
ag477
ag818
ag868
ag1907
ag1700
ag1771
ag112
ag2353
ag973
ag1267
ag1669
ag2716
ag989
ag75
ag2718
ag2730
ag3027
ag2209
ag2625
ag1535
ag2709
ag755
ag1073
ag996
ag2546
ag1133
ag2579
ag2728
ag2892
ag2501
ag490
ag2810
ag2192
ag2902
ag2694
ag1439
ag1726
ag119
ag1293
ag881
ag2477
ag2707
ag2938
ag1780
ag2219
ag2138
ag415
ag378
ag1574
ag3106
ag2508
ag1793
ag967
ag933
ag2191
ag616
ag979
ag354
ag2422
ag281
ag1537
ag2469
ag1301
ag2621
ag1792
ag1017
ag1721
ag2766
ag1559
ag538
ag2297
ag2758
ag1707
ag2432
ag901
ag2986
ag675
ag825
ag1386
ag717
ag719
ag730
ag1609
ag1755
ag2482
ag1115
ag611
ag521
ag1027
ag1648
ag1617
ag895
ag2585
ag1218
ag1501
ag248
ag78
ag118
ag513
ag1291
ag1496
ag777
ag2572
ag2528
ag2631
ag1971
ag897
ag957
ag1313
ag278
ag1760
ag838
ag429
ag2701
ag2591
ag1486
ag754
ag1091
ag2904
ag2102
ag470
ag2359
ag1498
ag23
ag911
ag932
ag2456
ag37
ag890
ag387
ag1528
ag1902
ag516
ag2165
ag2998
ag3069
ag2252
ag2526
ag3061
ag2521
ag1421
ag930
ag2854
ag2244
ag704
ag2126
ag569
ag1014
ag969
ag2134
ag2032
ag2513
ag1224
ag2742
ag1085
ag2966
ag2179
ag27
ag444
ag570
ag827
ag834
ag729
ag2105
ag2916
ag2792
ag1377
ag857
ag604
ag749
ag601
ag977
ag2831
ag1679
ag1119
ag2444
ag226
ag327
ag280
ag678
ag1083
ag2629
ag2693
ag2291
ag1572
ag3042
ag837
ag1690
ag3139
ag2245
ag145
ag2352
ag1911
ag1201
ag2375
ag3013
ag722
ag3052
ag3012
ag2969
ag2044
ag266
ag2833
ag69
ag44
ag2816
ag2438
ag2156
ag627
ag732
ag600
ag790
ag2622
ag1275
ag2259
ag2196
ag645
ag2421
ag869
ag1472
ag2402
ag1954
ag1547
ag26
ag2492
ag2767
ag641
ag2789
ag501
ag1033
ag1385
ag1212
ag786
ag2369
ag2465
ag1063
ag2034
ag1841
ag136
ag710
ag2389
ag1926
ag1047
ag2272
ag1762
ag1689
ag1420
ag1554
ag1712
ag1908
ag95
ag3029
ag924
ag1687
ag1752
ag97
ag1873
ag712
ag1144
ag88
ag3117
ag403
ag770
ag2550
ag1089
ag355
ag1368
ag3105
ag472
ag1941
ag3041
ag2065
ag468
ag2877
ag1034
ag1947
ag1879
ag47
ag3010
ag1852
ag949
ag1329
ag1606
ag2750
ag553
ag1228
ag2180
ag871
ag1235
ag1422
ag2529
ag2734
ag34
ag338
ag1241
ag1610
ag311
ag1835
ag902
ag170
ag54
ag585
ag573
ag328
ag1758
ag1381
ag2377
ag1380
ag1337
ag1991
ag2281
ag219
ag1266
ag1279
ag1744
ag2144
ag1566
ag1477
ag2837
ag2981
ag1176
ag381
ag995
ag1157
ag2592
ag2055
ag2897
ag2870
ag100
ag2299
ag473
ag1136
ag1713
ag111
ag2632
ag943
ag1822
ag1369
ag2041
ag955
ag1539
ag984
ag2888
ag166
ag2226
ag683
ag1112
ag1531
ag3101
ag177
ag2358
ag1246
ag2669
ag2408
ag2253
ag2331
ag1350
ag644
ag3094
ag2293
ag2715
ag2790
ag1843
ag2364
ag1834
ag154
ag1714
ag1557
ag2899
ag1096
ag1128
ag1504
ag142
ag2617
ag2316
ag2410
ag2683
ag2048
ag1637
ag1960
ag43
ag636
ag405
ag2127
ag268
ag763
ag589
ag347
ag720
ag1526
ag494
ag1524
ag614
ag2225
ag2511
ag1379
ag1367
ag1784
ag2319
ag257
ag2310
ag326
ag541
ag577
ag1935
ag3054
ag460
ag925
ag620
ag394
ag2013
ag1709
ag898
ag2582
ag1332
ag2663
ag787
ag1753
ag2487
ag82
ag2463
ag557
ag2287
ag1283
ag1553
ag2336
ag1359
ag1255
ag1567
ag2112
ag1652
ag1880
ag3145
ag3143
ag2218
ag2918
ag2060
ag1076
ag653
ag197
ag2264
ag40
ag1654
ag420
ag2807
ag1618
ag2329
ag2328
ag2183
ag2637
ag1978
ag2188
ag2467
ag1997
ag2173
ag2682
ag1871
ag725
ag2518
ag2965
ag2215
ag2703
ag2446
ag561
ag1287
ag1428
ag2230
ag427
ag1414
ag2856
ag1681
ag2021
ag2107
ag859
ag2027
ag1001
ag1963
ag3056
ag2724
ag1850
ag2739
ag201
ag1800
ag2917
ag2038
ag554
ag1409
ag113
ag2509
ag2743
ag1754
ag1051
ag3100
ag392
ag1105
ag708
ag560
ag1989
ag1141
ag254
ag495
ag2205
ag2745
ag261
ag820
ag262
ag2391
ag3103
ag2071
ag2729
ag1330
ag2850
ag81
ag1069
ag534
ag1075
ag745
ag1928
ag1949
ag1789
ag1440
ag2813
ag658
ag1441
ag212
ag2756
ag2565
ag1649
ag1449
ag741
ag293
ag2175
ag1502
ag125
ag176
ag2613
ag1875
ag449
ag761
ag2382
ag2525
ag1534
ag1734
ag242
ag208
ag30
ag3148
ag2155
ag421
ag2321
ag2309
ag1540
ag1814
ag2240
ag619
ag91
ag2991
ag102
ag2523
ag928
ag2387
ag2198
ag1161
ag1952
ag135
ag1956
ag532
ag1020
ag1890
ag1506
ag431
ag1620
ag1244
ag2140
ag359
ag2930
ag1424
ag1735
ag2770
ag87
ag1650
ag2361
ag2277
ag667
ag1159
ag10
ag3147
ag2651
ag847
ag1675
ag3002
ag1110
ag2499
ag2717
ag2280
ag2097
ag1514
ag143
ag1948
ag487
ag3150
ag1370
ag2025
ag1234
ag24
ag1587
ag1056
ag920
ag2202
ag1583
ag830
ag339
ag544
ag1391
ag1079
ag1139
ag2553
ag3047
ag474
ag2609
ag680
ag1458
ag1562
ag1592
ag1010
ag373
ag440
ag919
ag1833
ag1443
ag831
ag369
ag120
ag3057
ag2590
ag1982
ag2531
ag716
ag2460
ag3146
ag1364
ag396
ag959
ag1697
ag1921
ag273
ag623
ag638
ag1204
ag2498
ag414
ag1074
ag171
ag2091
ag661
ag2346
ag1521
ag3098
ag819
ag2607
ag1282
ag631
ag697
ag1849
ag864
ag1788
ag2327
ag163
ag622
ag603
ag2660
ag2168
ag57
ag1512
ag3017
ag3141
ag1970
ag2136
ag2972
ag529
ag1866
ag2388
ag997
ag2170
ag1460
ag1191
ag2740
ag1923
ag1289
ag2684
ag178
ag1223
ag1310
ag2568
ag2944
ag1060
ag1130
ag53
ag2574
ag2113
ag1199
ag1285
ag2747
ag121
ag1288
ag1988
ag657
ag267
ag885
ag668
ag298
ag3111
ag2419
ag1569
ag980
ag2517
ag1473
ag1580
ag2282
ag2362
ag1940
ag899
ag2414
ag679
ag1812
ag807
ag1124
ag2814
ag1456
ag2533
ag542
ag2015
ag764
ag2732
ag884
ag1747
ag352
ag3023
ag337
ag1259
ag2413
ag146
ag1226
ag2343
ag2495
ag404
ag2659
ag256
ag1450
ag2142
ag1786
ag2537
ag802
ag2714
ag1147
ag1142
ag2420
ag1268
ag1022
ag204
ag406
ag1474
ag1097
ag1475
ag1823
ag1067
ag753
ag2232
ag2940
ag2764
ag2033
ag2178
ag2095
ag654
ag223
ag1193
ag2628
ag1004
ag1122
ag138
ag445
ag1143
ag739
ag2824
ag2674
ag723
ag526
ag587
ag148
ag514
ag1901
ag2597
ag2222
ag2842
ag877
ag2921
ag1573
ag103
ag1344
ag1425
ag1660
ag810
ag1179
ag2696
ag241
ag3081
ag1688
ag1360
ag2075
ag1876
ag2448
ag2350
ag776
ag2818
ag1167
ag769
ag615
ag1986
ag3033
ag2909
ag367
ag76
ag1656
ag991
ag782
ag2779
ag400
ag417
ag1290
ag756
ag2076
ag1979
ag861
ag2483
ag334
ag2116
ag2616
ag2351
ag1286
ag1616
ag2975
ag2532
ag971
ag2278
ag1874
ag1071
ag1404
ag700
ag1804
ag1005
ag1740
ag1396
ag1127
ag2738
ag1665
ag319
ag1035
ag385
ag3016
ag2478
ag1353
ag2488
ag1102
ag625
ag2830
ag1516
ag3076
ag2334
ag528
ag3107
ag264
ag2320
ag1390
ag181
ag896
ag2300
ag2357
ag922
ag1641
ag131
ag3131
ag1405
ag1007
ag3031
ag1768
ag2145
ag2472
ag1437
ag1856
ag1352
ag2623
ag260
ag1468
ag2006
ag2749
ag2158
ag2836
ag2913
ag2093
ag1185
ag2072
ag2383
ag742
ag2337
ag621
ag1884
ag1705
ag660
ag1621
ag2395
ag848
ag2867
ag1633
ag325
ag2811
ag1078
ag2169
ag3011
ag592
ag1431
ag2942
ag1748
ag832
ag687
ag2650
ag2476
ag940
ag42
ag3051
ag547
ag672
ag2141
ag2104
ag3099
ag2763
ag312
ag608
ag1965
ag907
ag2699
ag496
ag2500
ag2479
ag335
ag1399
ag411
ag499
ag245
ag2269
ag2755
ag2809
ag1351
ag105
ag116
ag1927
ag1635
ag1628
ag2000
ag2208
ag59
ag2828
ag48
ag149
ag1196
ag164
ag493
ag2363
ag478
ag2128
ag2802
ag384
ag500
ag172
ag318
ag2791
ag1339
ag609
ag1520
ag1910
ag140
ag2256
ag1487
ag2223
ag2672
ag2644
ag845
ag2231
ag1564
ag1728
ag1492
ag833
ag2159
ag2618
ag457
ag536
ag432
ag1172
ag250
ag2908
ag3077
ag1109
ag624
ag2862
ag1258
ag801
ag49
ag1154
ag39
ag1177
ag1276
ag1958
ag1922
ag1438
ag1732
ag2318
ag2216
ag167
ag1763
ag1358
ag165
ag796
ag1844
ag391
ag1427
ag139
ag1750
ag2268
ag1794
ag189
ag702
ag2081
ag2078
ag133
ag380
ag169
ag302
ag515
ag1939
ag2106
ag2710
ag2401
ag612
ag1918
ag1240
ag52
ag107
ag2675
ag1651
ag1129
ag1816
ag1920
ag2505
ag744
ag2937
ag2786
ag1851
ag2399
ag2853
ag2096
ag910
ag811
ag1825
ag2665
ag1095
ag124
ag2640
ag539
ag709
ag316
ag2825
ag3116
ag2378
ag1426
ag2876
ag1116
ag3062
ag2415
ag822
ag1094
ag2768
ag433
ag506
ag2893
ag2036
ag1861
ag2037
ag221
ag1336
ag1556
ag2997
ag1491
ag2109
ag2980
ag1406
ag1533
ag987
ag2827
ag1302
ag2100
ag3005
ag190
ag1382
ag759
ag839
ag2687
ag1605
ag1232
ag1719
ag3043
ag2676
ag3060
ag1462
ag2254
ag1341
ag2510
ag1442
ag218
ag2186
ag1323
ag1197
ag2799
ag409
ag779
ag488
ag736
ag3021
ag2680
ag726
ag1548
ag2869
ag1743
ag2863
ag2960
ag2181
ag320
ag2040
ag2080
ag1611
ag944
ag878
ag1944
ag1943
ag2058
ag372
ag669
ag2720
ag101
ag2154
ag662
ag1661
ag2647
ag2082
ag2489
ag448
ag2880
ag390
ag447
ag287
ag1595
ag1624
ag738
ag1415
ag1451
ag2221
ag972
ag1806
ag2007
ag15
ag1411
ag2204
ag371
ag2551
ag2864
ag2024
ag1864
ag1248
ag2285
ag954
ag2700
ag2958
ag489
ag3067
ag519
ag905
ag70
ag2873
ag1018
ag1977
ag2217
ag110
ag1053
ag2961
ag1657
ag3040
ag1253
ag1463
ag1769
ag62
ag436
ag2090
ag550
ag1683
ag419
ag2471
ag2569
ag13
ag276
ag1251
ag1025
ag283
ag2737
ag2690
ag2125
ag106
ag360
ag1174
ag224
ag2295
ag2642
ag1151
ag1231
ag1945
ag1334
ag1454
ag2793
ag2946
ag2527
ag231
ag291
ag1054
ag1298
ag1862
ag2001
ag2638
ag2838
ag805
ag676
ag1984
ag2534
ag970
ag2166
ag1166
ag1603
ag1782
ag2857
ag1181
ag1312
ag1153
ag2248
ag1630
ag346
ag442
ag3072
ag2723
ag1434
ag2054
ag602
ag2503
ag333
ag1236
ag314
ag1733
ag1885
ag3026
ag3020
ag377
ag416
ag632
ag1331
ag2045
ag424
ag33
ag2368
ag434
ag1357
ag476
ag2436
ag1280
ag2580
ag1718
ag1998
ag2335
ag1317
ag985
ag46
ag1577
ag286
ag682
ag2947
ag1513
ag2919
ag2057
ag2047
ag28
ag2442
ag2784
ag1980
ag1598
ag168
ag2445
ag1361
ag1519
ag2441
ag247
ag826
ag1777
ag230
ag1544
ag398
ag2284
ag1292
ag751
ag3083
ag1284
ag772
ag1601
ag1912
ag209
asS'separator'
p3156
S'='
sS'sparse'
p3157
I01
sb.