ccopy_reg
_reconstructor
p1
(csklearn.feature_extraction.dict_vectorizer
DictVectorizer
p2
c__builtin__
object
p3
NtRp4
(dp5
S'sort'
p6
I01
sS'feature_names_'
p7
(lp8
S'auxpass=be'
p9
aS'nsubjpass=Georg'
p10
aS'prep=with'
p11
aS'w+1=with'
p12
aS'w+2=they'
p13
aS'w-1=be'
p14
aS'w-2=Amalia'
p15
asS'dtype'
p16
cnumpy
float64
p17
sS'vocabulary_'
p18
(dp19
g9
I0
sg11
I2
sg15
I6
sg13
I4
sg12
I3
sg14
I5
sg10
I1
ssS'separator'
p20
S'='
sS'sparse'
p21
I01
sb.