ccopy_reg
_reconstructor
p1
(csklearn.feature_extraction.dict_vectorizer
DictVectorizer
p2
c__builtin__
object
p3
NtRp4
(dp5
S'sort'
p6
I01
sS'feature_names_'
p7
(lp8
S'advmod=already'
p9
aS'advmod=possibly'
p10
aS'aux=be'
p11
aS'aux=to'
p12
aS'cc=and'
p13
aS'cc=well'
p14
aS'conj=develop'
p15
aS'conj=monitor'
p16
aS'conj=prevent'
p17
aS'dobj=#PRP#'
p18
aS'dobj=appeal'
p19
aS'dobj=demand'
p20
aS'dobj=difference'
p21
aS'dobj=focus'
p22
aS'dobj=memory'
p23
aS'dobj=reflex'
p24
aS'dobj=role'
p25
aS'dobj=skill'
p26
aS'nsubj=#PRP#'
p27
aS'nsubj=conflict'
p28
aS'prep=for'
p29
aS'prep=in'
p30
aS'prep=include'
p31
aS'prep=on'
p32
aS'prep=to'
p33
aS'prep=with'
p34
aS'w+1=,'
p35
aS'w+1=already'
p36
aS'w+1=demand'
p37
aS'w+1=its'
p38
aS'w+1=one'
p39
aS'w+1=the'
p40
aS'w+1=they'
p41
aS"w+2=''"
p42
aS"w+2='s"
p43
aS'w+2=,'
p44
aS'w+2=appeal'
p45
aS'w+2=exist'
p46
aS'w+2=focus'
p47
aS'w+2=for'
p48
aS'w+2=reflex'
p49
aS'w+2=role'
p50
aS'w+2=skill'
p51
aS'w+2=with'
p52
aS'w-1=,'
p53
aS'w-1=and'
p54
aS'w-1=be'
p55
aS'w-1=conflict'
p56
aS'w-1=help'
p57
aS'w-1=line'
p58
aS'w-1=to'
p59
aS'w-2=Angeles'
p60
aS'w-2=IMF'
p61
aS'w-2=can'
p62
aS'w-2=effort'
p63
aS'w-2=ground'
p64
aS'w-2=hard'
p65
aS'w-2=hope'
p66
aS'w-2=ingenuity'
p67
aS'w-2=likely'
p68
aS'w-2=strengthening'
p69
aS'w-2=the'
p70
aS'w-2=these'
p71
aS'w-2=we'
p72
asS'dtype'
p73
cnumpy
float64
p74
sS'vocabulary_'
p75
(dp76
g60
I51
sg64
I55
sg42
I33
sg33
I24
sg12
I3
sg24
I15
sg9
I0
sg50
I41
sg15
I6
sg67
I58
sg72
I63
sg26
I17
sg28
I19
sg57
I48
sg34
I25
sg54
I45
sg61
I52
sg36
I27
sg10
I1
sg35
I26
sg20
I11
sg65
I56
sg69
I60
sg55
I46
sg62
I53
sg56
I47
sg44
I35
sg48
I39
sg31
I22
sg53
I44
sg71
I62
sg70
I61
sg13
I4
sg19
I10
sg63
I54
sg23
I14
sg40
I31
sg66
I57
sg16
I7
sg47
I38
sg41
I32
sg14
I5
sg59
I50
sg43
I34
sg22
I13
sg37
I28
sg68
I59
sg45
I36
sg51
I42
sg49
I40
sg30
I21
sg21
I12
sg46
I37
sg18
I9
sg38
I29
sg32
I23
sg39
I30
sg58
I49
sg11
I2
sg29
I20
sg52
I43
sg27
I18
sg17
I8
sg25
I16
ssS'separator'
p77
S'='
sS'sparse'
p78
I01
sb.