ccopy_reg
_reconstructor
p1
(csklearn.feature_extraction.dict_vectorizer
DictVectorizer
p2
c__builtin__
object
p3
NtRp4
(dp5
S'vocabulary_'
p6
(dp7
S'xcomp=class'
p8
I1339
sS'w+2=few'
p9
I757
sS'w+1=representative'
p10
I616
sS'nsubjpass=Raul'
p11
I445
sS'w-1=Ghanaians'
p12
I941
sS'xcomp=farmer'
p13
I1360
sS'w+2=but'
p14
I707
sS'dobj=head-of-state'
p15
I229
sS'nsubj=team'
p16
I422
sS'w+2=remain'
p17
I852
sS'w-2=Moscow'
p18
I1093
sS'w-2=police'
p19
I1250
sS'ccomp=term'
p20
I109
sS'w-2=need'
p21
I1231
sS'w+2=NBA'
p22
I669
sS'w+2=hard'
p23
I772
sS'xcomp=bring'
p24
I1331
sS'dobj=option'
p25
I248
sS'dobj=culture'
p26
I211
sS'nsubj=Kirchner'
p27
I340
sS'w+2=hang'
p28
I771
sS'nsubjpass=president'
p29
I464
sS'w-1=initially'
p30
I995
sS'nsubj=Meylor'
p31
I345
sS'w+2=several'
p32
I864
sS'xcomp=announce'
p33
I1326
sS'nsubj=Forer'
p34
I331
sS'tmod=work'
p35
I515
sS'advmod=better'
p36
I35
sS'w-1=will'
p37
I1045
sS'w-2=people'
p38
I1245
sS'nsubj=delegate'
p39
I386
sS'w+2=run'
p40
I859
sS'w+2=promote'
p41
I841
sS'w+1=she'
p42
I619
sS'w+2=meet'
p43
I809
sS'w-2=where'
p44
I1306
sS'w-2=poor'
p45
I1252
sS'w-2=franchise'
p46
I1192
sS'w-2=who'
p47
I1310
sS'nsubjpass=#DATE#'
p48
I434
sS'w+1=community'
p49
I566
sS'nsubjpass=half'
p50
I458
sS'w+1=on'
p51
I609
sS'w+1=formulum'
p52
I577
sS'w+2=young'
p53
I921
sS'w-2=process'
p54
I1256
sS'w-2=seat'
p55
I1272
sS'nsubj=Roddick'
p56
I358
sS'w+2=Musyoka'
p57
I668
sS'nsubj=publisher'
p58
I413
sS'ccomp=have'
p59
I105
sS'w-1=could'
p60
I973
sS'w+2=you'
p61
I920
sS'w-1=you'
p62
I1051
sS'xcomp=attack'
p63
I1327
sS'w+2=tax'
p64
I890
sS'nsubjpass=percent'
p65
I462
sS'advcl=be'
p66
I1
sS'w-2=that'
p67
I1282
sS'dobj=ambiguous'
p68
I192
sS'w-2=equally'
p69
I1181
sS'w+2=vice'
p70
I911
sS'xcomp=lie'
p71
I1378
sS'dep=branch'
p72
I146
sS'dobj=death'
p73
I212
sS'dep=jail'
p74
I153
sS'nsubj=Europe'
p75
I330
sS'xcomp=hang'
p76
I1370
sS'w-2=leader'
p77
I1213
sS'advmod=over'
p78
I63
sS'w+2=sleeveless'
p79
I869
sS'w+1=selectively'
p80
I618
sS'w+2=further'
p81
I765
sS'nsubj=Nasreen'
p82
I349
sS'w+1=something'
p83
I622
sS'dobj=want'
p84
I295
sS'w-2=Party'
p85
I1100
sS'advmod=effectively'
p86
I40
sS'xcomp=use'
p87
I1424
sS'dobj=pharmaceutical'
p88
I254
sS'advcl=opt'
p89
I18
sS'dobj=word'
p90
I303
sS'nsubj=member'
p91
I401
sS'w+2=ADHD'
p92
I656
sS'w-1=should'
p93
I1030
sS'nsubj=that'
p94
I423
sS'xcomp=pass'
p95
I1392
sS'advmod=here'
p96
I47
sS'nsubj=road'
p97
I416
sS'nsubj=group'
p98
I396
sS'nsubj=Gonzalez'
p99
I334
sS'w-2=treatment'
p100
I1292
sS'w+2=before'
p101
I694
sS'xcomp=re-publish'
p102
I1399
sS'w-2=entertainment'
p103
I1180
sS'advmod=where'
p104
I73
sS'w-2=else'
p105
I1178
sS'ccomp=test'
p106
I110
sS'xcomp=invest'
p107
I1375
sS'w+2=nominee'
p108
I817
sS'w+2=call'
p109
I709
sS'prep=out'
p110
I498
sS'w-2=community'
p111
I1155
sS'prep=include'
p112
I494
sS'w-2=500'
p113
I1061
sS'conj=create'
p114
I119
sS'w+1=both'
p115
I561
sS'w+2=cover'
p116
I728
sS'w+2=Treasury'
p117
I675
sS'nsubjpass=athlete'
p118
I447
sS'w-1=to'
p119
I1037
sS'dobj=#PRP#'
p120
I169
sS'w-2=do'
p121
I1172
sS'w+1=you'
p122
I644
sS'conj=vote'
p123
I140
sS'w-1=Hispanics'
p124
I942
sS'advmod=simply'
p125
I68
sS'w+1=Saturday'
p126
I542
sS'nsubj=company'
p127
I381
sS'w+1=he'
p128
I581
sS'w-2=two'
p129
I1294
sS'nsubj=election'
p130
I391
sS'xcomp=stay'
p131
I1419
sS'w+2=themselves'
p132
I896
sS'w+1=through'
p133
I633
sS'w+2=because'
p134
I692
sS'nsubj=Republicans'
p135
I357
sS'xcomp=divest'
p136
I1351
sS'w-1=topic'
p137
I1038
sS'w+2=bring'
p138
I702
sS'xcomp=adopt'
p139
I1324
sS'w-2=enforce'
p140
I1179
sS'w-1=freely'
p141
I985
sS'prep=despite'
p142
I490
sS'advcl=give'
p143
I9
sS'w+2=live'
p144
I796
sS'dobj=religion'
p145
I263
sS'w-2=Tony'
p146
I1114
sS'advcl=challenge'
p147
I4
sS'w+2=consensus'
p148
I722
sS'w-1=party'
p149
I1019
sS'dobj=company'
p150
I207
sS'dobj=romance'
p151
I266
sS'w-2=League'
p152
I1091
sS'w-2=Gono'
p153
I1075
sS'nsubj=president'
p154
I412
sS'w-2=ballot'
p155
I1134
sS'w+2=follow'
p156
I760
sS'advmod=maybe'
p157
I56
sS'dobj=something'
p158
I272
sS'w-2=republican'
p159
I1260
sS'w+2=move'
p160
I813
sS'w-2=those'
p161
I1286
sS'w-2=Iraqis'
p162
I1081
sS'w+1=knowingly'
p163
I591
sS'dobj=favorite'
p164
I221
sS'w+2=venue'
p165
I910
sS'advmod=freely'
p166
I45
sS'w+2=relocate'
p167
I851
sS'w-2=fellow'
p168
I1186
sS'xcomp=remain'
p169
I1402
sS'xcomp=enforcement'
p170
I1357
sS'nsubj=commission'
p171
I379
sS'nsubjpass=nominee'
p172
I461
sS'conj=send'
p173
I136
sS'w+2=head'
p174
I776
sS'w+2=along'
p175
I680
sS'w-1=Kirchner'
p176
I946
sS'w-1=Taymor'
p177
I956
sS'w+2=elect'
p178
I746
sS'w-2=coin'
p179
I1150
sS'dobj=bake'
p180
I196
sS'advmod=far'
p181
I43
sS'nsubj=screen'
p182
I418
sS'dobj=transportation'
p183
I291
sS'w+1=freely'
p184
I578
sS'w-2=young'
p185
I1321
sS'w-1=effectively'
p186
I982
sS'w-2=instead'
p187
I1211
sS'xcomp=meet'
p188
I1388
sS'w+2=person'
p189
I834
sS'xcomp=spend'
p190
I1416
sS'xcomp=coincide'
p191
I1340
sS'w-1=president'
p192
I1023
sS'conj=elect'
p193
I123
sS'w-2=would'
p194
I1316
sS'w+2=break'
p195
I701
sS'dobj=security'
p196
I268
sS'w+2=this'
p197
I898
sS'xcomp=lead'
p198
I1377
sS'w+1=between'
p199
I560
sS'w-1=other'
p200
I1017
sS'xcomp=pray'
p201
I1394
sS'w+2=20'
p202
I652
sS'mark=while'
p203
I313
sS'w+2=diet'
p204
I740
sS'dobj=winner'
p205
I301
sS'w-2=band'
p206
I1136
sS'w+2=new'
p207
I815
sS'nsubj=Castro'
p208
I326
sS'w-2=patient'
p209
I1244
sS'dep=instead'
p210
I152
sS'nsubj=vietnamese'
p211
I427
sS'dobj=flag'
p212
I222
sS'advmod=finally'
p213
I44
sS'dobj=experience'
p214
I220
sS'w+2=military'
p215
I811
sS'w+2=assembly'
p216
I687
sS'w-2=time'
p217
I1287
sS'w+2=lie'
p218
I793
sS'w+2=divest'
p219
I744
sS'dobj=diet'
p220
I216
sS'purpcl=present'
p221
I507
sS'w-1=toward'
p222
I1040
sS'w-2=if'
p223
I1208
sS'w-2=in'
p224
I1209
sS'conj=with'
p225
I142
sS'w-2=Zardari'
p226
I1120
sS'conj=drill'
p227
I122
sS'w-2=it'
p228
I1212
sS'advcl=believe'
p229
I2
sS'w+1=Brazil'
p230
I525
sS'w+2=die'
p231
I739
sS'w-2=parliament'
p232
I1240
sS'w+2=than'
p233
I893
sS'w+1=party'
p234
I613
sS'w-2=meet'
p235
I1220
sS'advmod=also'
p236
I31
sS'nsubj=beginning'
p237
I374
sS'mark=although'
p238
I305
sS'dobj=life'
p239
I237
sS'dobj=Iraq'
p240
I178
sS'advmod=why'
p241
I74
sS'w-2=have'
p242
I1201
sS'nsubj=student'
p243
I421
sS'nsubj=Clinton'
p244
I327
sS'w+2=demonstrate'
p245
I736
sS'w+1=Zuma'
p246
I546
sS'w-1=just'
p247
I1000
sS'w-1=frequently'
p248
I986
sS'w+2=crackdown'
p249
I729
sS'dobj=community'
p250
I206
sS'w-1=person'
p251
I1022
sS'w-2=2006'
p252
I1057
sS'w+1=in'
p253
I585
sS'w+1=aid'
p254
I549
sS'conj=select'
p255
I135
sS'w+1=it'
p256
I588
sS'dobj=that'
p257
I286
sS'nsubj=#PRP#'
p258
I316
sS'w+1=about'
p259
I548
sS'dobj=enemy'
p260
I218
sS'xcomp=wait'
p261
I1428
sS'w+2=get'
p262
I766
sS'advmod=ahead'
p263
I29
sS'dobj=#NUMBER#'
p264
I168
sS'w+1=development'
p265
I569
sS'w-1=student'
p266
I1033
sS'nsubjpass=Baidoa'
p267
I438
sS'w+1=player'
p268
I614
sS'w+2=cut'
p269
I731
sS'w+2=war'
p270
I914
sS'dobj=confrontation'
p271
I208
sS'nsubjpass=winner'
p272
I476
sS'w-1=group'
p273
I989
sS'w+2=spend'
p274
I877
sS'w-2=foreign'
p275
I1191
sS'conj=pass'
p276
I130
sS'w+2=Badawi'
p277
I659
sS'w-1=delay'
p278
I975
sS'mark=after'
p279
I304
sS'xcomp=look'
p280
I1382
sS'w+2=lowest'
p281
I803
sS'w-1=do'
p282
I978
sS'nsubj=Nixon'
p283
I350
sS'w+2=democratic'
p284
I735
sS'ccomp=can'
p285
I98
sS'dobj=road'
p286
I265
sS'w+2=eritrean'
p287
I752
sS'nsubj=most'
p288
I403
sS'w-2=what'
p289
I1304
sS'w-2=operation'
p290
I1237
sS'nsubjpass=woman'
p291
I477
sS'xcomp=run'
p292
I1409
sS'w+2=on'
p293
I820
sS'w+2=locate'
p294
I799
sS'w-2=hold'
p295
I1204
sS'w+2=out'
p296
I826
sS'w-2=to'
p297
I1289
sS'w-2=and'
p298
I1128
sS'w+2=symbol'
p299
I887
sS'w-2=phone'
p300
I1247
sS'xcomp=engage'
p301
I1358
sS'w-2=he'
p302
I1202
sS'cc=or'
p303
I92
sS'w+1=which'
p304
I643
sS'w+1=business'
p305
I562
sS'w+2=incidentally'
p306
I782
sS'w+1=immigration'
p307
I584
sS'w+1=what'
p308
I640
sS'advmod=selectively'
p309
I67
sS'w+2=14'
p310
I650
sS'w+2=16'
p311
I651
sS'w+2=13'
p312
I649
sS'nsubjpass=leader'
p313
I459
sS'w+2=favorite'
p314
I756
sS'w-2=other'
p315
I1239
sS'partmod=order'
p316
I479
sS'w-2=film'
p317
I1188
sS'aux=should'
p318
I85
sS'w-1=then'
p319
I1035
sS'dobj=title'
p320
I289
sS'w-1=they'
p321
I1036
sS'w-2=amish'
p322
I1127
sS'nsubjpass=date'
p323
I451
sS'w-1=-lrb-'
p324
I926
sS'w+1=Monday'
p325
I536
sS'w-2=whether'
p326
I1307
sS'xcomp=locate'
p327
I1381
sS'prep=after'
p328
I482
sS'dobj=policy'
p329
I256
sS'xcomp=song'
p330
I1414
sS'w+2=specific'
p331
I875
sS'advcl=happen'
p332
I11
sS'dobj=nominee'
p333
I244
sS'w-2=refugee'
p334
I1259
sS'xcomp=fight'
p335
I1361
sS'w+1=five'
p336
I574
sS'xcomp=talk'
p337
I1423
sS'w+2=Johns'
p338
I665
sS'w-2=you'
p339
I1320
sS'w-2=should'
p340
I1275
sS'w+2=town'
p341
I901
sS'advcl=go'
p342
I10
sS'nsubj=nation'
p343
I404
sS'w+1=new'
p344
I605
sS'w+1=newly'
p345
I606
sS'dobj=party'
p346
I250
sS'w-2=can'
p347
I1145
sS'w-2=fat'
p348
I1184
sS'neg=not'
p349
I314
sS'xcomp=likely'
p350
I1379
sS'dobj=teacher'
p351
I282
sS'w+2=life'
p352
I794
sS'w+1=Mr.'
p353
I537
sS'w-1=girl'
p354
I987
sS'w-1=Blair'
p355
I933
sS'xcomp=do'
p356
I1352
sS'w-2=Ryan'
p357
I1106
sS'dobj=best'
p358
I197
sS'dep=whether'
p359
I167
sS'w-2=Kenyans'
p360
I1087
sS'w+2=specifically'
p361
I876
sS'advmod=then'
p362
I71
sS'xcomp=demonstrate'
p363
I1349
sS'w-2=hispanic'
p364
I1203
sS'nsubj=Taymor'
p365
I363
sS'w-2=we'
p366
I1300
sS'w+2=between'
p367
I698
sS'w+2=next'
p368
I816
sS'w+2=announce'
p369
I685
sS'w+1=hope'
p370
I583
sS'xcomp=figleaf'
p371
I1362
sS'w-2=supplier'
p372
I1279
sS'w-1=driver'
p373
I979
sS'dobj=personality'
p374
I253
sS'nsubjpass=treatment'
p375
I474
sS'dobj=player'
p376
I255
sS'advmod=kind'
p377
I53
sS'nsubj=many'
p378
I399
sS'w+2=british'
p379
I703
sS'w+1=that'
p380
I627
sS'w-2=mauritanian'
p381
I1219
sS'w-2=Democrats'
p382
I1074
sS'w-2=militant'
p383
I1224
sS'dep=deployment'
p384
I147
sS'w-1=say'
p385
I1027
sS'xcomp=base'
p386
I1328
sS'dobj=Council'
p387
I176
sS'ccomp=align'
p388
I94
sS'w-1=Putin'
p389
I951
sS'advmod=so'
p390
I69
sS'w+1=20'
p391
I521
sS'advmod=just'
p392
I52
sS'xcomp=open'
p393
I1390
sS'aux=may'
p394
I82
sS'nsubj=mauritanian'
p395
I400
sS'advmod=often'
p396
I60
sS'dobj=leadership'
p397
I236
sS'nsubj=Gono'
p398
I333
sS'w-2=the'
p399
I1283
sS'w+2=unwisely'
p400
I908
sS'w-2=celebrity'
p401
I1147
sS'nsubj=leader'
p402
I398
sS'w+2=build'
p403
I705
sS'w+2=farm'
p404
I754
sS'w-2=elector'
p405
I1177
sS'w-2=Berger'
p406
I1068
sS'w-1=diet'
p407
I977
sS'w+2=special'
p408
I873
sS'nsubj=tourist'
p409
I426
sS'w-2=whatever'
p410
I1305
sS'nsubjpass=form'
p411
I455
sS'dep=what'
p412
I165
sS'w-1=have'
p413
I990
sS'w+1=mainly'
p414
I595
sS'w+2=in'
p415
I781
sS'w-2=week'
p416
I1302
sS'dobj=team'
p417
I283
sS'w+2=it'
p418
I784
sS'w-1=also'
p419
I961
sS'aux=can'
p420
I78
sS'dobj=candidate'
p421
I201
sS'nsubjpass=Karzai'
p422
I441
sS'w+2=deployment'
p423
I737
sS'dobj=dress'
p424
I217
sS'w-1=government'
p425
I988
sS'w+2=eliminate'
p426
I747
sS'dobj=brother'
p427
I199
sS'w-2=Palestinians'
p428
I1098
sS'xcomp=follow'
p429
I1363
sS'dep=open'
p430
I156
sS'w+2=transitional'
p431
I902
sS'advmod=only'
p432
I61
sS'w+2=image'
p433
I780
sS'w+1=for'
p434
I575
sS'w-1=Americans'
p435
I930
sS'w-2=Turkey'
p436
I1116
sS'w+1=successor'
p437
I624
sS'prep=to'
p438
I502
sS'w+1=music'
p439
I601
sS'w+1=Bhutan'
p440
I524
sS'w+2=organization'
p441
I825
sS'w-2=voter'
p442
I1298
sS'conj=make'
p443
I128
sS'xcomp=vice'
p444
I1425
sS'nsubjpass=Kufuor'
p445
I442
sS'xcomp=die'
p446
I1350
sS'w+2=for'
p447
I761
sS'dobj=whom'
p448
I300
sS'xcomp=participate'
p449
I1391
sS'w-2=unable'
p450
I1295
sS'w+2=keep'
p451
I787
sS'w+2=defense'
p452
I733
sS'dobj=which'
p453
I298
sS'w-1=--'
p454
I925
sS'w+2=we'
p455
I915
sS'dobj=all'
p456
I190
sS'w-2=moment'
p457
I1227
sS'w-1=Muslims'
p458
I949
sS'nsubj=Koreans'
p459
I341
sS'w+2=course'
p460
I727
sS'ccomp=hold'
p461
I106
sS'w-1=tourist'
p462
I1039
sS'w-2=Jews'
p463
I1083
sS'w-2=Andy'
p464
I1067
sS'w-2=business'
p465
I1141
sS'w-2=Texans'
p466
I1112
sS'w+2=body'
p467
I699
sS'dobj=Medvedev'
p468
I181
sS'rel=in'
p469
I508
sS'dobj=tac'
p470
I280
sS'dobj=tax'
p471
I281
sS'advmod=specifically'
p472
I70
sS'w+2=guy'
p473
I770
sS'w-2=Abyei'
p474
I1062
sS'xcomp=put'
p475
I1398
sS'nsubj=Party'
p476
I353
sS'prep=over'
p477
I499
sS'w+2=parliament'
p478
I829
sS'dobj=reinforcement'
p479
I261
sS'w+2=actually'
p480
I677
sS'dobj=official'
p481
I246
sS'nsubj=store'
p482
I420
sS'w+1=instead'
p483
I587
sS'conj=give'
p484
I124
sS'nsubjpass=that'
p485
I471
sS'nsubj=voter'
p486
I428
sS'xcomp=have'
p487
I1371
sS'w+2=continue'
p488
I724
sS'w+2=tac'
p489
I888
sS'w-2=elect'
p490
I1175
sS'w-2=able'
p491
I1122
sS'ccomp=be'
p492
I96
sS'w-2=wrong'
p493
I1317
sS'w+1=33'
p494
I522
sS'w-2=continue'
p495
I1160
sS'w-2=federation'
p496
I1185
sS'w+2=own'
p497
I828
sS'w-2=Kufuor'
p498
I1090
sS'w-1=yet'
p499
I1050
sS'conj=replace'
p500
I133
sS'w-2=she'
p501
I1274
sS'nsubj=three-quarter'
p502
I425
sS'w+2=location'
p503
I800
sS'advmod=along'
p504
I30
sS'w-2=turn'
p505
I1293
sS'w-2=Thompson'
p506
I1113
sS'nsubj=Brammertz'
p507
I322
sS'dobj=symbol'
p508
I279
sS'xcomp=aggressive'
p509
I1325
sS'xcomp=serve'
p510
I1413
sS'nsubj=bloc'
p511
I375
sS'conj=think'
p512
I139
sS'dobj=term'
p513
I285
sS'w+1=chairman'
p514
I564
sS'w-2=democratic'
p515
I1169
sS'w+2=good'
p516
I768
sS'nsubj=Putin'
p517
I354
sS'xcomp=continue'
p518
I1343
sS'xcomp=speak'
p519
I1415
sS'nsubj=state'
p520
I419
sS'w-1=Virginia'
p521
I958
sS'xcomp=second'
p522
I1410
sS'dep=before'
p523
I145
sS'w+2=regardless'
p524
I846
sS'nsubj=none'
p525
I405
sS'w-2=none'
p526
I1233
sS'w-2=anyone'
p527
I1129
sS'w-2=White'
p528
I1119
sS'w+1=to'
p529
I634
sS'dep=should'
p530
I161
sS'w-1=and'
p531
I962
sS'w-2=customer'
p532
I1164
sS'dobj=nonviolent'
p533
I245
sS'w+2=stay'
p534
I880
sS'w-1=jail'
p535
I998
sS'w-1=Beirut'
p536
I932
sS'w-2=Obama'
p537
I1097
sS'w-2=resident'
p538
I1261
sS'dobj=guy'
p539
I226
sS'nsubj=congress'
p540
I382
sS'w-2=tradition'
p541
I1291
sS'advcl=in'
p542
I14
sS'w+2=better'
p543
I697
sS'conj=play'
p544
I131
sS'xcomp=accept'
p545
I1322
sS'nsubj=federation'
p546
I392
sS'conj=repeat'
p547
I132
sS'nsubj=Texans'
p548
I364
sS'rel=whom'
p549
I509
sS'nsubj=memorial'
p550
I402
sS'tmod=day'
p551
I511
sS'w+1=Vietnam'
p552
I545
sS'xcomp=marry'
p553
I1386
sS'nsubj=Turkey'
p554
I366
sS'dobj=quart'
p555
I259
sS'w+1=directly'
p556
I570
sS'w-1=ruler'
p557
I1026
sS'w+2=over'
p558
I827
sS'w+2=delegate'
p559
I734
sS'w+2=carry'
p560
I711
sS'w+2=many'
p561
I807
sS'w+1=someone'
p562
I621
sS'w-2=why'
p563
I1311
sS'w+2=fast-acting'
p564
I755
sS'w-2=fewer'
p565
I1187
sS'ccomp=choose'
p566
I100
sS'dobj=relation'
p567
I262
sS'w+2=its'
p568
I785
sS'dobj=change'
p569
I202
sS'dobj=route'
p570
I267
sS'conj=in'
p571
I126
sS'w-2=candidate'
p572
I1146
sS'dep=say'
p573
I159
sS'dobj=member'
p574
I240
sS'w+2=transportation'
p575
I903
sS'w-2=senator'
p576
I1273
sS'nsubjpass=government'
p577
I456
sS'w+2=sustainable'
p578
I885
sS'w-2=come'
p579
I1152
sS'nsubjpass=Berger'
p580
I439
sS'w+2=resign'
p581
I855
sS'conj=continue'
p582
I118
sS'nsubjpass=Rompuy'
p583
I446
sS'nsubj=Brazil'
p584
I323
sS'w-2=West'
p585
I1118
sS'w-1=originally'
p586
I1016
sS'nsubj=Watson'
p587
I367
sS'xcomp=receive'
p588
I1400
sS'w-2=contentious'
p589
I1159
sS'nsubjpass=who'
p590
I475
sS'w-2=delegate'
p591
I1167
sS'xcomp=take'
p592
I1422
sS'dobj=stalemate'
p593
I274
sS'w-2=ask'
p594
I1131
sS'w+1=Egypt'
p595
I529
sS'w-2=Lugovoi'
p596
I1092
sS'advcl=prepare'
p597
I19
sS'xcomp=end'
p598
I1355
sS'w+2=some'
p599
I871
sS'w-2=Wales'
p600
I1117
sS'w-1=Meylor'
p601
I948
sS'xcomp=push'
p602
I1397
sS'w+2=go'
p603
I767
sS'w+1=Senator'
p604
I543
sS'advmod=arbitrarily'
p605
I32
sS'cc=but'
p606
I91
sS'w+2=lead'
p607
I790
sS'w+1=Clinton'
p608
I527
sS'nsubj=Marti'
p609
I344
sS'xcomp=make'
p610
I1384
sS'w-1=help'
p611
I992
sS'nsubj=Reagan'
p612
I355
sS'w+2=portray'
p613
I836
sS'w-2=excited'
p614
I1182
sS'xcomp=move'
p615
I1389
sS'advcl=win'
p616
I26
sS'w-2=dance'
p617
I1165
sS'w-2=Gonzalez'
p618
I1076
sS'partmod=end'
p619
I478
sS'w-2=message'
p620
I1222
sS'w+1=Dare'
p621
I528
sS'w-2=predecessor'
p622
I1253
sS'advmod=mainly'
p623
I55
sS'w+2=labor'
p624
I789
sS'nsubj=resident'
p625
I414
sS'w-2=Kevin'
p626
I1088
sS'nsubj=which'
p627
I429
sS'conj=take'
p628
I138
sS'advmod=badly'
p629
I33
sS'nsubjpass=group'
p630
I457
sS'nsubjpass=target'
p631
I470
sS'advmod=recently'
p632
I65
sS'dobj=method'
p633
I241
sS'w+2=right'
p634
I857
sS'advcl=found'
p635
I8
sS'nsubjpass=time'
p636
I472
sS'w+2=criticize'
p637
I730
sS'prep=base'
p638
I486
sS'w-1=who'
p639
I1044
sS'dobj=parliament'
p640
I249
sS'xcomp=enemy'
p641
I1356
sS'w-2=could'
p642
I1161
sS'w-2=poem'
p643
I1249
sS'conj=combine'
p644
I117
sS'w-2=vote'
p645
I1297
sS'w+1=reinforcement'
p646
I615
sS'w+2=path'
p647
I833
sS'w-2=autonomy'
p648
I1133
sS'w-2=freedom'
p649
I1194
sS'xcomp=greet'
p650
I1368
sS'w+1=full-fledged'
p651
I580
sS'nsubjpass=drug'
p652
I452
sS'dep=for'
p653
I150
sS'w+1=more'
p654
I600
sS'w-2=world'
p655
I1315
sS'xcomp=go'
p656
I1367
sS'w-2=30'
p657
I1060
sS'w+1=traditional'
p658
I636
sS'w-2=.'
p659
I1056
sS'nsubjpass=site'
p660
I466
sS'w-2=circle'
p661
I1148
sS'aux=have'
p662
I81
sS'w-2=think'
p663
I1285
sS'w-2=South'
p664
I1109
sS'w+2=ranch'
p665
I843
sS'w-2=I'
p666
I1078
sS'w-2=decision'
p667
I1166
sS'w-2=how'
p668
I1206
sS'w-2=Saturday'
p669
I1107
sS'w-2=a'
p670
I1121
sS'advcl=retire'
p671
I22
sS'xcomp=forego'
p672
I1364
sS'w+1=stalemate'
p673
I623
sS'xcomp=enable'
p674
I1354
sS'nsubj=democrat'
p675
I387
sS'w-2=difficulty'
p676
I1170
sS'dobj=Bush'
p677
I175
sS'w+2=re-publish'
p678
I844
sS'w-1=he'
p679
I991
sS'w+2=greet'
p680
I769
sS'w-2=member'
p681
I1221
sS'w+1=from'
p682
I579
sS'xcomp=lose'
p683
I1383
sS'w-2=city'
p684
I1149
sS'nsubj=other'
p685
I406
sS'w-2=board'
p686
I1140
sS'xcomp=resign'
p687
I1406
sS'xcomp=vote'
p688
I1427
sS'w-2=political'
p689
I1251
sS'w-2=well-advised'
p690
I1303
sS'w+2=nonviolent'
p691
I818
sS'dobj=formulum'
p692
I223
sS'w+2=belgian'
p693
I695
sS'mark=since'
p694
I310
sS'w-1=ever'
p695
I983
sS'dobj=hope'
p696
I230
sS'w-1=Reagan'
p697
I952
sS'prep=from'
p698
I492
sS'w+2=term'
p699
I892
sS'dobj=who'
p700
I299
sS'w-2=participation'
p701
I1241
sS'w-2=CITGO'
p702
I1070
sS'w+2=Mr.'
p703
I667
sS'tmod=week'
p704
I514
sS'w+1=,'
p705
I518
sS'w+1=.'
p706
I520
sS'nsubj=Democrats'
p707
I329
sS'w+2=printing'
p708
I840
sS'w+2=religion'
p709
I850
sS'w-2=finally'
p710
I1189
sS'w+2=representative'
p711
I854
sS'w+2=support'
p712
I884
sS'w+1=a'
p713
I547
sS'w-2=because'
p714
I1138
sS'w-1=that'
p715
I1034
sS'nsubj=Ban'
p716
I320
sS'dobj=lab'
p717
I234
sS'w+2=Joe'
p718
I664
sS'advmod=duly'
p719
I39
sS'w-2=website'
p720
I1301
sS'w-2=administration'
p721
I1126
sS'advmod=consistently'
p722
I37
sS'partmod=view'
p723
I480
sS'w+2=among'
p724
I683
sS'nsubj=contender'
p725
I383
sS'w+2=Darfur'
p726
I660
sS'w-2=Tracy'
p727
I1115
sS"w+2='s"
p728
I646
sS'xcomp=secretary-general'
p729
I1411
sS'w-1=border'
p730
I965
sS'xcomp=portray'
p731
I1393
sS'dobj=NATO'
p732
I183
sS'w-2=Summit'
p733
I1110
sS'w+1=George'
p734
I530
sS'w+2=AKP'
p735
I657
sS'xcomp=visit'
p736
I1426
sS'w-2=sculptor'
p737
I1271
sS'w-1=would'
p738
I1048
sS'dobj=ubiquitous'
p739
I293
sS'w+1=asphalt'
p740
I556
sS'w+1=top'
p741
I635
sS'nsubj=Muslims'
p742
I347
sS'w+1=only'
p743
I611
sS'w+2=enroll'
p744
I750
sS'nsubjpass=someone'
p745
I468
sS'ccomp=bear'
p746
I97
sS'w-2=Council'
p747
I1072
sS'w-2=23'
p748
I1059
sS'w+2=country'
p749
I726
sS'w+2=to'
p750
I900
sS'dobj=aid'
p751
I189
sS'dobj=course'
p752
I210
sS'w-2=market'
p753
I1217
sS'w-2=home'
p754
I1205
sS'w-2=courage'
p755
I1163
sS'w+1=money'
p756
I599
sS'w-2=guess'
p757
I1200
sS'ccomp=go'
p758
I103
sS'w+2=SWAPO'
p759
I673
sS'w+2=attack'
p760
I689
sS'complm=that'
p761
I112
sS'tmod=month'
p762
I512
sS'w-2=yet'
p763
I1319
sS"w+1=''"
p764
I517
sS'w+2=vote'
p765
I913
sS'w+2=become'
p766
I693
sS'dobj=Palin'
p767
I184
sS'w+2=President'
p768
I672
sS'w+1=not'
p769
I607
sS'nsubj=Reporters'
p770
I356
sS'advcl=vote'
p771
I25
sS'w-2=for'
p772
I1190
sS'w+1=they'
p773
I629
sS'w-2=independence'
p774
I1210
sS'nsubjpass=Adam'
p775
I437
sS'w-2=Ronald'
p776
I1105
sS'prep=in'
p777
I493
sS'conj=win'
p778
I141
sS'w-1=about'
p779
I959
sS'advmod=yet'
p780
I76
sS'w+2=political'
p781
I835
sS'w-1=judge'
p782
I999
sS'xcomp=keep'
p783
I1376
sS'w-2=concept'
p784
I1156
sS'nsubj=all'
p785
I371
sS'w+2=start'
p786
I879
sS'nsubjpass=candidate'
p787
I448
sS'xcomp=come'
p788
I1341
sS'w-1=it'
p789
I997
sS'w-2=government'
p790
I1199
sS'w+2=class'
p791
I718
sS'w+2=winner'
p792
I916
sS'w-1=writer'
p793
I1049
sS'w-1=in'
p794
I994
sS'w+1=thousand'
p795
I631
sS'conj=choose'
p796
I116
sS'xcomp=support'
p797
I1421
sS'w+2=constituent'
p798
I723
sS'dobj=Ford'
p799
I177
sS'mark=if'
p800
I309
sS'w+2=coincide'
p801
I719
sS'w-2=state'
p802
I1277
sS'w+2=company'
p803
I721
sS'dobj=convenience'
p804
I209
sS'w+1=among'
p805
I551
sS'nsubj=Thompson'
p806
I365
sS'nsubjpass=supplier'
p807
I469
sS'w+2=teacher'
p808
I891
sS'w+2=job'
p809
I786
sS'w+2=regional'
p810
I847
sS'w-2=or'
p811
I1238
sS'nsubj=who'
p812
I430
sS'nsubjpass=film'
p813
I454
sS'w-2=of'
p814
I1235
sS'advmod=knowingly'
p815
I54
sS'ccomp=add'
p816
I93
sS'nsubj=band'
p817
I373
sS'advmod=instead'
p818
I51
sS'nsubj=party'
p819
I408
sS'dobj=story'
p820
I275
sS'w-2=prepare'
p821
I1254
sS'mark=before'
p822
I308
sS'advmod=however'
p823
I49
sS'xcomp=step'
p824
I1420
sS'w+1=as'
p825
I555
sS'w+1=at'
p826
I557
sS'w-2=Cameroons'
p827
I1071
sS'xcomp=seek'
p828
I1412
sS'dobj=commissioner'
p829
I205
sS'w+2=Fahim'
p830
I661
sS'nsubj=House'
p831
I335
sS'advmod=frequently'
p832
I46
sS'w-1=can'
p833
I968
sS'purpcl=avoid'
p834
I505
sS'w+2=cast'
p835
I712
sS'advmod=when'
p836
I72
sS'advcl=run'
p837
I23
sS'w+2=pray'
p838
I837
sS'w-2=rights'
p839
I1265
sS'xcomp=deal'
p840
I1346
sS'w+2=deal'
p841
I732
sS'w-2=gardener'
p842
I1196
sS'w+1=we'
p843
I639
sS'w-2=Pohamba'
p844
I1101
sS'advcl=provide'
p845
I20
sS'w+2=look'
p846
I801
sS'nsubj=Syria'
p847
I361
sS'dep=responsive'
p848
I158
sS'advmod=initially'
p849
I50
sS'dobj=way'
p850
I296
sS'auxpass=be'
p851
I89
sS'dobj=dictator'
p852
I215
sS'w+1=Cheney'
p853
I526
sS'dobj=path'
p854
I251
sS'w+2=after'
p855
I678
sS'w-1=House'
p856
I943
sS'ccomp=grow'
p857
I104
sS'w+2=forego'
p858
I762
sS'w-2=contemporary'
p859
I1158
sS'nsubj=Johnson'
p860
I338
sS'nsubj=#NUMBER#'
p861
I315
sS'w+2=serve'
p862
I861
sS'dobj=someone'
p863
I271
sS'w-2=Syria'
p864
I1111
sS'w+1=its'
p865
I589
sS'advmod=merely'
p866
I57
sS"w-1=''"
p867
I922
sS'xcomp=work'
p868
I1429
sS'nsubjpass=#NUMBER#'
p869
I435
sS'w-1=Johnson'
p870
I945
sS'w-2=most'
p871
I1229
sS'conj=do'
p872
I121
sS'w+2=song'
p873
I872
sS'w+2=H.W.'
p874
I663
sS"w-2=''"
p875
I1052
sS'dobj=government'
p876
I224
sS'w+2=brother'
p877
I704
sS'w+2=manufacture'
p878
I806
sS'w+2=store'
p879
I882
sS'w+2=make'
p880
I804
sS'conj=worry'
p881
I143
sS'w-2=machine'
p882
I1216
sS'w+2=leadership'
p883
I792
sS"w-2='s"
p884
I1053
sS'advcl=have'
p885
I12
sS'w+2=replace'
p886
I853
sS'w-2=respect'
p887
I1262
sS'w+1=because'
p888
I558
sS'w+2=South'
p889
I674
sS'w-2=side'
p890
I1276
sS'w+1=land'
p891
I592
sS'xcomp=break'
p892
I1330
sS'advcl=figure'
p893
I7
sS'ccomp=allow'
p894
I95
sS'nsubjpass=Bryant'
p895
I440
sS'w-2=which'
p896
I1308
sS'w-2=college'
p897
I1151
sS'w-2=Republicans'
p898
I1103
sS'dobj=job'
p899
I232
sS'advmod=ever'
p900
I42
sS'w+2=local'
p901
I798
sS'aux=will'
p902
I87
sS'xcomp=cover'
p903
I1344
sS'nsubj=Council'
p904
I328
sS'prep=with'
p905
I503
sS'w+2=ignore'
p906
I779
sS'nsubj=agency'
p907
I370
sS'conj=inspiration'
p908
I127
sS'dobj=Webb'
p909
I187
sS'nsubj=right'
p910
I415
sS'dobj=asphalt'
p911
I194
sS'w-1=recently'
p912
I1025
sS'w-2=president'
p913
I1255
sS'w-2=little'
p914
I1215
sS'w+2=do'
p915
I745
sS'w-2=Adam'
p916
I1064
sS'nsubj=Moscow'
p917
I346
sS'dobj=what'
p918
I297
sS'w+2=step'
p919
I881
sS'conj=group'
p920
I125
sS'w-1=basically'
p921
I963
sS'dobj=ranch'
p922
I260
sS'w+2=different'
p923
I741
sS'w+1=neither'
p924
I604
sS'nsubjpass=seat'
p925
I465
sS'w+2=option'
p926
I823
sS'w+2=showcase'
p927
I866
sS'w-1=delegate'
p928
I976
sS'w-2=student'
p929
I1278
sS'w-1=Africans'
p930
I929
sS'w+2=enable'
p931
I748
sS'w+1=NATO'
p932
I538
sS'nsubjpass=Lugovoi'
p933
I443
sS'nsubj=ballot'
p934
I372
sS'nsubj=chart'
p935
I378
sS'dobj=representative'
p936
I264
sS'xcomp=head'
p937
I1372
sS'cc=and'
p938
I90
sS'w+2=swear'
p939
I886
sS'w+1=individual'
p940
I586
sS'w+1=by'
p941
I563
sS'xcomp=chief'
p942
I1338
sS'xcomp=ignore'
p943
I1374
sS'dobj=mayor'
p944
I239
sS'nsubjpass=politician'
p945
I463
sS'w-1=Taylor'
p946
I955
sS'w-2=team'
p947
I1281
sS'w+1=Iraq'
p948
I533
sS'conj=say'
p949
I134
sS'w+1=local'
p950
I594
sS'tmod=year'
p951
I516
sS'w+2=party'
p952
I831
sS'w+2=title'
p953
I899
sS'w+1=Iran'
p954
I532
sS'dobj=governor'
p955
I225
sS'nsubj=Blair'
p956
I321
sS'w-2=role'
p957
I1267
sS'w-1=merely'
p958
I1005
sS'w+1=often'
p959
I608
sS'dobj=body'
p960
I198
sS'dobj=Biden'
p961
I171
sS'w-2=party'
p962
I1242
sS'w+2=successor'
p963
I883
sS'w-2=schedule'
p964
I1270
sS'aux=could'
p965
I79
sS'w-1=company'
p966
I971
sS'w-2=IOC'
p967
I1079
sS'prep=like'
p968
I495
sS'w-2=President'
p969
I1102
sS'w+1=-rrb-'
p970
I519
sS'dep=if'
p971
I151
sS'advmod=either'
p972
I41
sS'xcomp=representative'
p973
I1405
sS'w-2=Julie'
p974
I1084
sS'nsubj=Africans'
p975
I318
sS'prep=of'
p976
I496
sS'xcomp=relocate'
p977
I1401
sS'prep=on'
p978
I497
sS'dobj=tree'
p979
I292
sS'dobj=delegate'
p980
I213
sS'nsubj=board'
p981
I376
sS'w+1=Islam'
p982
I534
sS'w-1=Ban'
p983
I931
sS'nsubj=candidate'
p984
I377
sS'nsubj=woman'
p985
I431
sS'w-1=Castro'
p986
I937
sS'w+2=that'
p987
I894
sS'w+1=symbol'
p988
I626
sS'nsubj=Americans'
p989
I319
sS'w-2=get'
p990
I1197
sS'w-1=child'
p991
I970
sS'dobj=president'
p992
I257
sS'w-1=or'
p993
I1015
sS'nsubj=administration'
p994
I369
sS'w-2=system'
p995
I1280
sS'w-1=of'
p996
I1011
sS'w-2=more'
p997
I1228
sS'w+2=member'
p998
I810
sS'w+2=end'
p999
I749
sS'w+2=pursue'
p1000
I842
sS'advmod=actually'
p1001
I27
sS'w-1=publisher'
p1002
I1024
sS'w+2=ubiquitous'
p1003
I906
sS'w+1=this'
p1004
I630
sS'xcomp=host'
p1005
I1373
sS'advmod=regardless'
p1006
I66
sS'nsubj=NASA'
p1007
I348
sS'w+1=Gerald'
p1008
I531
sS'w-1=so'
p1009
I1032
sS'dobj=Lessing'
p1010
I180
sS'advmod=now'
p1011
I59
sS'nsubj=those'
p1012
I424
sS'w-2=will'
p1013
I1312
sS'w+2=leader'
p1014
I791
sS'w+2=development'
p1015
I738
sS'conj=opportunistic'
p1016
I129
sS'prep=among'
p1017
I483
sS'dobj=kind'
p1018
I233
sS'w-2=not'
p1019
I1234
sS'w-2=while'
p1020
I1309
sS'w-2=Nixon'
p1021
I1096
sS'xcomp=manufacture'
p1022
I1385
sS'w-2=commission'
p1023
I1153
sS'w-2=as'
p1024
I1130
sS'prep=about'
p1025
I481
sS'w-2=Akpinkoun'
p1026
I1065
sS'advmod=overwhelmingly'
p1027
I64
sS'w-2=across'
p1028
I1123
sS'w+2=directly'
p1029
I743
sS'xcomp=begin'
p1030
I1329
sS'w+1=change'
p1031
I565
sS'dobj=time'
p1032
I288
sS'ccomp=consider'
p1033
I101
sS'xcomp=celebrate'
p1034
I1336
sS'w+1=another'
p1035
I553
sS'dobj=line'
p1036
I238
sS'w-2=Bush'
p1037
I1069
sS'dobj=money'
p1038
I243
sS'advcl=know'
p1039
I15
sS'complm=whether'
p1040
I113
sS'w+2=single'
p1041
I867
sS'w-1=vehicle'
p1042
I1041
sS'w+2=best'
p1043
I696
sS'xcomp=address'
p1044
I1323
sS'xcomp=pursue'
p1045
I1396
sS'w-1=must'
p1046
I1007
sS'nsubj=ruler'
p1047
I417
sS'w+2=have'
p1048
I773
sS'w+2=relation'
p1049
I848
sS'nsubj=difficulty'
p1050
I388
sS'w+2=chair'
p1051
I714
sS'dobj=essay'
p1052
I219
sS'w+2=lobster'
p1053
I797
sS'xcomp=compete'
p1054
I1342
sS'xcomp=delay'
p1055
I1347
sS'nsubj=patient'
p1056
I409
sS'w-1=justice'
p1057
I1001
sS'xcomp=group'
p1058
I1369
sS'w+2=Abdullah'
p1059
I658
sS'w+2=direct'
p1060
I742
sS'w-2=donor'
p1061
I1173
sS'w-1=Brazil'
p1062
I935
sS'w-1=Friday'
p1063
I940
sS'dep=second'
p1064
I160
sS'aux=to'
p1065
I86
sS'w+2=city'
p1066
I717
sS'w-2=Serge'
p1067
I1108
sS'dobj=Vietnam'
p1068
I186
sS'dep=put'
p1069
I157
sS'w+2=burial'
p1070
I706
sS'w+1=leader'
p1071
I593
sS'xcomp=represent'
p1072
I1404
sS'nsubj=donor'
p1073
I390
sS'w-1=for'
p1074
I984
sS'w+2=flag'
p1075
I759
sS'w+1=the'
p1076
I628
sS'w-2=,'
p1077
I1054
sS'w+2=take'
p1078
I889
sS'nsubj=worship'
p1079
I432
sS'w-2=pick'
p1080
I1248
sS'w+2=both'
p1081
I700
sS'nsubj=judge'
p1082
I397
sS'dobj=wonder'
p1083
I302
sS'w-1=now'
p1084
I1010
sS'w-1=not'
p1085
I1009
sS'xcomp=criticize'
p1086
I1345
sS'aux=be'
p1087
I77
sS'w-2=mistake'
p1088
I1226
sS'w+2=2016'
p1089
I654
sS'prep=before'
p1090
I487
sS'w+2=full'
p1091
I764
sS'ccomp=not'
p1092
I107
sS'dep=do'
p1093
I149
sS'w-2=2011'
p1094
I1058
sS'dobj=Brazil'
p1095
I172
sS'w-2=election'
p1096
I1176
sS'w-2=addition'
p1097
I1125
sS'prep=that'
p1098
I500
sS'xcomp=call'
p1099
I1333
sS'w+2=use'
p1100
I909
sS'w-1=candidate'
p1101
I969
sS'w-1=Republicans'
p1102
I953
sS'w-2=bloc'
p1103
I1139
sS'w-2=they'
p1104
I1284
sS'w+1=unity'
p1105
I638
sS'prep=by'
p1106
I489
sS'prep=between'
p1107
I488
sS'w-1=,'
p1108
I923
sS'w-2=country'
p1109
I1162
sS'w+2=Nelson'
p1110
I670
sS'nsubj=government'
p1111
I395
sS'w+2=smoke-filled'
p1112
I870
sS'w-1=voter'
p1113
I1042
sS'w+2=maltese'
p1114
I805
sS'w+2=enter'
p1115
I751
sS'advmod=originally'
p1116
I62
sS'dobj=song'
p1117
I273
sS'w+2=tree'
p1118
I904
sS'advcl=ask'
p1119
I0
sS'w-2=path'
p1120
I1243
sS'w+1=arbitrarily'
p1121
I554
sS'w-2=campaign'
p1122
I1144
sS'aux=do'
p1123
I80
sS'w-1=by'
p1124
I967
sS'w-1=be'
p1125
I964
sS'dobj=successor'
p1126
I277
sS'w-2=risk'
p1127
I1266
sS'w-2=go'
p1128
I1198
sS'w-1=Bush'
p1129
I936
sS'mark=because'
p1130
I307
sS'aux=might'
p1131
I83
sS'w-2=without'
p1132
I1313
sS'w+1=whether'
p1133
I642
sS'prep=through'
p1134
I501
sS'dobj=Bronx'
p1135
I173
sS'nsubj=writer'
p1136
I433
sS'dep=though'
p1137
I163
sS'w-1=again'
p1138
I960
sS'w+2=hawk'
p1139
I774
sS'dobj=sentence'
p1140
I269
sS'conj=cut'
p1141
I120
sS'dobj=Badawi'
p1142
I170
sS'w-1=educator'
p1143
I981
sS'xcomp=build'
p1144
I1332
sS'w-1=only'
p1145
I1014
sS'w+2=by'
p1146
I708
sS'w+1=national'
p1147
I603
sS'nsubj=customer'
p1148
I385
sS'w+2=be'
p1149
I690
sS'w+2=president'
p1150
I838
sS'nsubjpass=#PRP#'
p1151
I436
sS'aux=would'
p1152
I88
sS'dep=discover'
p1153
I148
sS'w-2=democrat'
p1154
I1168
sS'dobj=thing'
p1155
I287
sS'w+2=execution'
p1156
I753
sS'xcomp=mate'
p1157
I1387
sS'nsubj=Taylor'
p1158
I362
sS'w-2=title'
p1159
I1288
sS'w+1=and'
p1160
I552
sS'w-1=Clinton'
p1161
I938
sS'w-2=diner'
p1162
I1171
sS'w-2=Americans'
p1163
I1066
sS'w+2=line'
p1164
I795
sS'dobj=Musyoka'
p1165
I182
sS'w-2=DPRK'
p1166
I1073
sS'w-1=Lesotho'
p1167
I947
sS'advmod=directly'
p1168
I38
sS'nsubj=gardener'
p1169
I394
sS'advcl=loss'
p1170
I16
sS'advcl=country'
p1171
I6
sS'dobj=city'
p1172
I204
sS'w+2=ambiguous'
p1173
I682
sS'ccomp=want'
p1174
I111
sS'w-2=Karzai'
p1175
I1086
sS'w+2=Ford'
p1176
I662
sS'w-2=use'
p1177
I1296
sS'w+2=celebrate'
p1178
I713
sS'dobj=head'
p1179
I228
sS'w+1=Rihanna'
p1180
I541
sS'w+2=2006'
p1181
I653
sS'dobj=Rihanna'
p1182
I185
sS'nsubj=diner'
p1183
I389
sS'w-2=older'
p1184
I1236
sS'w+1=side'
p1185
I620
sS'xcomp=enroll'
p1186
I1359
sS'nsubj=IOC'
p1187
I336
sS'nsubj=phone'
p1188
I411
sS'dobj=burial'
p1189
I200
sS'w-2=Rompuy'
p1190
I1104
sS'nsubjpass=minister'
p1191
I460
sS'w+2=he'
p1192
I775
sS'nsubj=committee'
p1193
I380
sS'w-1=country'
p1194
I974
sS'w+1=whatever'
p1195
I641
sS'w+1=make'
p1196
I596
sS'xcomp=cast'
p1197
I1335
sS'nsubjpass=elector'
p1198
I453
sS'tmod=today'
p1199
I513
sS'nsubj=CITGO'
p1200
I325
sS'w-2=rope'
p1201
I1268
sS'dobj=side'
p1202
I270
sS'dobj=alternative'
p1203
I191
sS'w-2=return'
p1204
I1263
sS'xcomp=live'
p1205
I1380
sS'purpcl=demand'
p1206
I506
sS'w-2=ready'
p1207
I1258
sS'nsubj=Parliament'
p1208
I352
sS'w+1=Palin'
p1209
I540
sS'prep=for'
p1210
I491
sS'dep=that'
p1211
I162
sS'dobj=student'
p1212
I276
sS'w-2=together'
p1213
I1290
sS'nsubj=Bush'
p1214
I324
sS'w+2=at'
p1215
I688
sS'dobj=leader'
p1216
I235
sS'w+2=as'
p1217
I686
sS'dep=make'
p1218
I155
sS'w-2=Mr.'
p1219
I1094
sS'w-1=here'
p1220
I993
sS'w+2=return'
p1221
I856
sS'dobj=temptation'
p1222
I284
sS'w-1=consistently'
p1223
I972
sS'w+2=could'
p1224
I725
sS'w-1=Roddick'
p1225
I954
sS'nsubj=parliament'
p1226
I407
sS'xcomp=return'
p1227
I1407
sS'w-2=drug'
p1228
I1174
sS'dobj=superintendent'
p1229
I278
sS'w+1=Tanzania'
p1230
I544
sS'w-2=nominee'
p1231
I1232
sS'w+2=she'
p1232
I865
sS'w+2=settlement'
p1233
I862
sS'dobj=development'
p1234
I214
sS'advmod=carefully'
p1235
I36
sS'w+2=with'
p1236
I917
sS'w-1=overwhelmingly'
p1237
I1018
sS'conj=approve'
p1238
I114
sS'w+1=my'
p1239
I602
sS'w-1=NASA'
p1240
I950
sS'w-1=people'
p1241
I1021
sS'w+2=church'
p1242
I716
sS'w+2=aim'
p1243
I679
sS'w+2=or'
p1244
I824
sS'w-2=permit'
p1245
I1246
sS'w+2=of'
p1246
I819
sS'w+1=Kalonzo'
p1247
I535
sS'w-2=-lrb-'
p1248
I1055
sS'w-2=Koreans'
p1249
I1089
sS'w-2=balloting'
p1250
I1135
sS'advcl=choose'
p1251
I5
sS'w+2=chief'
p1252
I715
sS'ccomp=change'
p1253
I99
sS'w+2=special-interest'
p1254
I874
sS'prep=without'
p1255
I504
sS'w+2=five'
p1256
I758
sS'w-1=she'
p1257
I1029
sS'dep=whatever'
p1258
I166
sS'w+2=from'
p1259
I763
sS'w+2=two'
p1260
I905
sS'nsubj=Kenyans'
p1261
I339
sS'w+2=may'
p1262
I808
sS'w+1=jail'
p1263
I590
sS'w+2=lose'
p1264
I802
sS'w-2=fail'
p1265
I1183
sS'advmod=willfully'
p1266
I75
sS'w+2=commissioner'
p1267
I720
sS'w+1=over'
p1268
I612
sS'w-2=Iran'
p1269
I1080
sS'nsubj=Ghanaians'
p1270
I332
sS'w+2=receive'
p1271
I845
sS'w+1=death'
p1272
I568
sS'dobj=chief'
p1273
I203
sS'nsubjpass=Pohamba'
p1274
I444
sS'w-1=Europe'
p1275
I939
sS'xcomp=stand'
p1276
I1417
sS'xcomp=replace'
p1277
I1403
sS'nsubj=Academy'
p1278
I317
sS'w+1=high-profile'
p1279
I582
sS'w-2=Academy'
p1280
I1063
sS'w-2=public'
p1281
I1257
sS'w+1=either'
p1282
I571
sS'w-2=right'
p1283
I1264
sS'nsubj=people'
p1284
I410
sS'w-2=Ivorians'
p1285
I1082
sS'xcomp=start'
p1286
I1418
sS'dobj=Islam'
p1287
I179
sS'w-2=nation'
p1288
I1230
sS'dobj=promise'
p1289
I258
sS'w-1=woman'
p1290
I1047
sS'nsubjpass=city'
p1291
I449
sS'w+1=foreign'
p1292
I576
sS'w+1=romance'
p1293
I617
sS'nsubj=League'
p1294
I343
sS'nsubj=Obama'
p1295
I351
sS'w+1=one'
p1296
I610
sS'w+1=Pablo'
p1297
I539
sS'w-1=willfully'
p1298
I1046
sS'nsubj=Zardari'
p1299
I368
sS"w+2=''"
p1300
I645
sS'nsubj=country'
p1301
I384
sS'dobj=Zuma'
p1302
I188
sS'dobj=assembly'
p1303
I195
sS'w+1=treasury'
p1304
I637
sS'w-2=woman'
p1305
I1314
sS'nsubjpass=country'
p1306
I450
sS'w-1=Brammertz'
p1307
I934
sS'w+1=even'
p1308
I573
sS'w+2=six'
p1309
I868
sS'xcomp=get'
p1310
I1366
sS'w+2=interim'
p1311
I783
sS'w-2=french'
p1312
I1195
sS'w+2=stand'
p1313
I878
sS'w-1=but'
p1314
I966
sS'dep=know'
p1315
I154
sS'w-2=however'
p1316
I1207
sS'mark=until'
p1317
I312
sS'w+1=better'
p1318
I559
sS'advmod=nevertheless'
p1319
I58
sS'w-1=instead'
p1320
I996
sS'w+2=pass'
p1321
I832
sS'w-2=Nasreen'
p1322
I1095
sS'w-2=June'
p1323
I1085
sS'xcomp=eliminate'
p1324
I1353
sS'dobj=image'
p1325
I231
sS'w+2=negotiation'
p1326
I814
sS'advmod=again'
p1327
I28
sS'w+2=kind'
p1328
I788
sS'aux=must'
p1329
I84
sS'nsubj=Rwanda'
p1330
I359
sS'w+2=visit'
p1331
I912
sS'w+2=beatle'
p1332
I691
sS'w-1=site'
p1333
I1031
sS'w-1=might'
p1334
I1006
sS'nsubj=Ryan'
p1335
I360
sS'w-2=authority'
p1336
I1132
sS'w-2=be'
p1337
I1137
sS'csubj=realize'
p1338
I144
sS'w+2=seven'
p1339
I863
sS'xcomp=challenge'
p1340
I1337
sS'w+1=three'
p1341
I632
sS'nsubjpass=some'
p1342
I467
sS'advcl=report'
p1343
I21
sS'w-2=by'
p1344
I1143
sS'w+2=human'
p1345
I778
sS'w+2=alternative'
p1346
I681
sS'w-2=might'
p1347
I1223
sS'w+2=presidential'
p1348
I839
sS'w-2=action'
p1349
I1124
sS'w+1=all'
p1350
I550
sS'xcomp=form'
p1351
I1365
sS'w+2=Medvedev'
p1352
I666
sS'xcomp=president'
p1353
I1395
sS'nsubjpass=title'
p1354
I473
sS'w+1=election'
p1355
I572
sS'w-2=want'
p1356
I1299
sS'w+1=minister'
p1357
I598
sS'w-1=leader'
p1358
I1002
sS'advcl=brief'
p1359
I3
sS'w+2=union'
p1360
I907
sS'w-2=committee'
p1361
I1154
sS'w+2=and'
p1362
I684
sS'tmod=#DATE#'
p1363
I510
sS'w+2=more'
p1364
I812
sS'w-1=officer'
p1365
I1012
sS'ccomp=take'
p1366
I108
sS'w-2=minister'
p1367
I1225
sS'nsubj=Kosovo'
p1368
I342
sS'advcl=occur'
p1369
I17
sS'w-2=say'
p1370
I1269
sS'xcomp=reveal'
p1371
I1408
sS'w+2=the'
p1372
I895
sS'prep=at'
p1373
I485
sS'prep=as'
p1374
I484
sS'dobj=approach'
p1375
I193
sS'w-2=but'
p1376
I1142
sS'dobj=town'
p1377
I290
sS'w-1=.'
p1378
I928
sS'w-1=-'
p1379
I924
sS'conj=build'
p1380
I115
sS'w-1=sculpture'
p1381
I1028
sS'w+2=relative'
p1382
I849
sS'w-1=Thompson'
p1383
I957
sS'w-1=non-african'
p1384
I1008
sS'w+1=confrontation'
p1385
I567
sS'w+2=one'
p1386
I821
sS'dobj=hawk'
p1387
I227
sS'dobj=opportunity'
p1388
I247
sS'w-1=I'
p1389
I944
sS'w-2=free'
p1390
I1193
sS'w+2=participate'
p1391
I830
sS'xcomp=carry'
p1392
I1334
sS'w+2=work'
p1393
I919
sS'w+2=word'
p1394
I918
sS'w-1=duly'
p1395
I980
sS'mark=as'
p1396
I306
sS'w-2=House'
p1397
I1077
sS'w+1=4,000'
p1398
I523
sS'w+2=security'
p1399
I860
sS'w-2=congress'
p1400
I1157
sS'advcl=seem'
p1401
I24
sS'w-1=-rrb-'
p1402
I927
sS'w+2=they'
p1403
I897
sS'w+2=head-of-state'
p1404
I777
sS'w-2=year'
p1405
I1318
sS'dobj=unity'
p1406
I294
sS'w-2=Parliament'
p1407
I1099
sS'w+2=candidate'
p1408
I710
sS'w-2=mate'
p1409
I1218
sS'advcl=hold'
p1410
I13
sS'advmod=how'
p1411
I48
sS'dobj=minister'
p1412
I242
sS'w+2=250-seat'
p1413
I655
sS'ccomp=explain'
p1414
I102
sS'w-1=member'
p1415
I1004
sS'w-1=we'
p1416
I1043
sS'xcomp=deliver'
p1417
I1348
sS'w+2=October'
p1418
I671
sS'w+1=such'
p1419
I625
sS'dobj=Brown'
p1420
I174
sS'dobj=person'
p1421
I252
sS'w-1=patient'
p1422
I1020
sS'nsubj=Iran'
p1423
I337
sS'w+2=.'
p1424
I648
sS'nsubj=few'
p1425
I393
sS'w+2=,'
p1426
I647
sS'w-1=often'
p1427
I1013
sS'mark=so'
p1428
I311
sS'conj=swear'
p1429
I137
sS'w-2=lifestyle'
p1430
I1214
sS'w+2=route'
p1431
I858
sS'dep=weaken'
p1432
I164
sS'w+1=mayor'
p1433
I597
sS'w-1=may'
p1434
I1003
sS'w+2=open'
p1435
I822
sS'w+2=a'
p1436
I676
sS'advmod=basically'
p1437
I34
ssS'dtype'
p1438
cnumpy
float64
p1439
sS'feature_names_'
p1440
(lp1441
g1119
ag66
ag229
ag1359
ag147
ag1251
ag1171
ag893
ag635
ag143
ag342
ag332
ag885
ag1410
ag542
ag1039
ag1170
ag1369
ag89
ag597
ag845
ag1343
ag671
ag837
ag1401
ag771
ag616
ag1001
ag1327
ag263
ag504
ag236
ag605
ag629
ag1437
ag36
ag1235
ag722
ag1168
ag719
ag86
ag972
ag900
ag181
ag213
ag166
ag832
ag96
ag1411
ag823
ag849
ag818
ag392
ag377
ag815
ag623
ag157
ag866
ag1319
ag1011
ag396
ag432
ag1116
ag78
ag1027
ag632
ag1006
ag309
ag125
ag390
ag472
ag362
ag836
ag104
ag241
ag1266
ag780
ag1087
ag420
ag965
ag1123
ag662
ag394
ag1131
ag1329
ag318
ag1065
ag902
ag1152
ag851
ag938
ag606
ag303
ag816
ag388
ag894
ag492
ag746
ag285
ag1253
ag566
ag1033
ag1414
ag758
ag857
ag59
ag461
ag1092
ag1366
ag20
ag106
ag1174
ag761
ag1040
ag1238
ag1380
ag796
ag644
ag582
ag114
ag1141
ag872
ag227
ag193
ag484
ag920
ag571
ag908
ag443
ag1016
ag276
ag544
ag547
ag500
ag949
ag255
ag173
ag1429
ag628
ag512
ag123
ag778
ag225
ag881
ag1338
ag523
ag72
ag384
ag1153
ag1093
ag653
ag971
ag210
ag74
ag1315
ag1218
ag430
ag1069
ag848
ag573
ag1064
ag530
ag1211
ag1137
ag1432
ag412
ag1258
ag359
ag264
ag120
ag1142
ag961
ag1095
ag1135
ag1420
ag677
ag387
ag799
ag240
ag1287
ag1010
ag468
ag1165
ag732
ag767
ag1182
ag1068
ag909
ag1302
ag751
ag456
ag1203
ag68
ag1375
ag911
ag1303
ag180
ag358
ag960
ag427
ag1189
ag421
ag569
ag1273
ag1172
ag829
ag250
ag150
ag271
ag804
ag752
ag26
ag73
ag980
ag1234
ag852
ag220
ag424
ag260
ag1052
ag214
ag164
ag212
ag692
ag876
ag955
ag539
ag1387
ag1179
ag15
ag696
ag1325
ag899
ag1018
ag717
ag1216
ag397
ag239
ag1036
ag944
ag574
ag633
ag1412
ag1038
ag333
ag533
ag481
ag1388
ag25
ag640
ag346
ag854
ag1421
ag374
ag88
ag376
ag329
ag992
ag1289
ag555
ag922
ag479
ag567
ag145
ag936
ag286
ag151
ag570
ag196
ag1140
ag1202
ag863
ag158
ag1117
ag593
ag820
ag1212
ag1126
ag1229
ag508
ag470
ag471
ag351
ag417
ag1222
ag513
ag257
ag1155
ag1032
ag320
ag1377
ag183
ag979
ag739
ag1406
ag84
ag850
ag918
ag453
ag700
ag448
ag205
ag1083
ag90
ag279
ag238
ag1396
ag1130
ag822
ag800
ag694
ag1428
ag1317
ag203
ag349
ag861
ag258
ag1278
ag975
ag989
ag716
ag956
ag507
ag584
ag1214
ag1200
ag208
ag244
ag904
ag707
ag75
ag34
ag1270
ag398
ag99
ag831
ag1187
ag1423
ag860
ag1261
ag27
ag459
ag1368
ag1294
ag609
ag31
ag917
ag742
ag1007
ag82
ag283
ag1295
ag1208
ag476
ag517
ag612
ag770
ag135
ag56
ag1330
ag1335
ag847
ag1158
ag365
ag548
ag806
ag554
ag587
ag1299
ag994
ag907
ag785
ag934
ag817
ag237
ag511
ag981
ag984
ag935
ag171
ag1193
ag127
ag540
ag725
ag1301
ag1148
ag39
ag675
ag1050
ag1183
ag1073
ag130
ag546
ag1425
ag1169
ag1111
ag98
ag1082
ag402
ag378
ag395
ag91
ag550
ag288
ag343
ag525
ag685
ag1226
ag819
ag1056
ag1284
ag1188
ag154
ag58
ag625
ag910
ag97
ag1047
ag182
ag520
ag482
ag243
ag16
ag94
ag1012
ag502
ag409
ag211
ag486
ag627
ag812
ag985
ag1079
ag1136
ag48
ag869
ag1151
ag775
ag267
ag580
ag895
ag422
ag445
ag933
ag1274
ag11
ag583
ag118
ag787
ag1291
ag1306
ag323
ag652
ag1198
ag813
ag411
ag577
ag630
ag50
ag313
ag1191
ag172
ag65
ag945
ag29
ag925
ag660
ag1342
ag745
ag807
ag631
ag485
ag636
ag1354
ag375
ag590
ag272
ag291
ag619
ag316
ag723
ag1025
ag328
ag1017
ag1374
ag1373
ag638
ag1090
ag1107
ag1106
ag142
ag1210
ag698
ag777
ag112
ag968
ag976
ag978
ag110
ag477
ag1098
ag1134
ag438
ag905
ag1255
ag834
ag1206
ag221
ag469
ag549
ag1363
ag551
ag762
ag1199
ag704
ag35
ag951
ag764
ag705
ag970
ag706
ag391
ag494
ag1398
ag440
ag230
ag853
ag608
ag621
ag595
ag734
ag1008
ag954
ag948
ag982
ag1247
ag325
ag353
ag932
ag1297
ag1209
ag1180
ag126
ag604
ag1230
ag552
ag246
ag713
ag259
ag254
ag1350
ag805
ag1160
ag1035
ag1121
ag825
ag740
ag826
ag888
ag1318
ag199
ag115
ag305
ag941
ag514
ag1031
ag49
ag1385
ag1272
ag265
ag556
ag1282
ag1355
ag1308
ag336
ag434
ag1292
ag52
ag184
ag682
ag651
ag128
ag1279
ag370
ag307
ag253
ag940
ag483
ag256
ag865
ag1263
ag163
ag891
ag1071
ag950
ag414
ag1196
ag1433
ag1357
ag756
ag654
ag439
ag1239
ag1147
ag924
ag344
ag345
ag769
ag959
ag51
ag1296
ag743
ag1268
ag234
ag268
ag646
ag10
ag1293
ag80
ag42
ag1185
ag562
ag83
ag673
ag437
ag1419
ag988
ag380
ag1076
ag773
ag1004
ag795
ag1341
ag133
ag529
ag741
ag658
ag1304
ag1105
ag843
ag308
ag1195
ag1133
ag304
ag122
ag1300
ag728
ag1426
ag1424
ag312
ag310
ag311
ag202
ag1181
ag1089
ag1413
ag92
ag735
ag1059
ag277
ag726
ag830
ag1176
ag874
ag718
ag338
ag1352
ag703
ag57
ag22
ag1110
ag1418
ag768
ag759
ag889
ag117
ag1436
ag480
ag855
ag1243
ag175
ag1346
ag1173
ag724
ag1362
ag369
ag1217
ag216
ag1215
ag760
ag1149
ag1332
ag134
ag766
ag101
ag693
ag1043
ag543
ag367
ag467
ag1081
ag195
ag138
ag379
ag877
ag403
ag1070
ag14
ag1146
ag109
ag1408
ag560
ag835
ag1178
ag1051
ag1252
ag1242
ag1066
ag791
ag801
ag1267
ag803
ag148
ag798
ag488
ag1224
ag749
ag460
ag116
ag249
ag637
ag269
ag841
ag452
ag559
ag284
ag245
ag423
ag1015
ag231
ag204
ag923
ag1060
ag1029
ag219
ag915
ag178
ag426
ag931
ag999
ag744
ag1115
ag287
ag1156
ag404
ag564
ag314
ag9
ag1256
ag1075
ag156
ag447
ag858
ag1259
ag1091
ag81
ag262
ag603
ag516
ag680
ag473
ag28
ag23
ag1048
ag1139
ag1192
ag174
ag1404
ag1345
ag906
ag433
ag415
ag306
ag1311
ag418
ag568
ag809
ag451
ag1328
ag624
ag607
ag1014
ag883
ag218
ag352
ag1164
ag144
ag1053
ag901
ag294
ag503
ag846
ag1264
ag281
ag880
ag1114
ag878
ag561
ag1262
ag43
ag998
ag215
ag1364
ag160
ag1326
ag207
ag368
ag108
ag691
ag1246
ag293
ag1386
ag1435
ag926
ag1244
ag441
ag296
ag558
ag497
ag478
ag1391
ag952
ag1321
ag647
ag189
ag781
ag613
ag838
ag1150
ag1348
ag708
ag41
ag1000
ag665
ag678
ag1271
ag524
ag810
ag1049
ag1382
ag709
ag167
ag17
ag886
ag711
ag581
ag1221
ag634
ag1431
ag40
ag1399
ag862
ag1233
ag1339
ag32
ag1232
ag927
ag1041
ag1309
ag79
ag1112
ag599
ag873
ag408
ag1254
ag331
ag361
ag274
ag1313
ag786
ag534
ag919
ag879
ag963
ag712
ag578
ag939
ag299
ag489
ag1078
ag64
ag808
ag699
ag233
ag987
ag1372
ag132
ag1403
ag197
ag953
ag750
ag341
ag431
ag575
ag1118
ag1260
ag1003
ag1360
ag400
ag1100
ag165
ag70
ag1331
ag765
ag270
ag455
ag792
ag1236
ag1394
ag1393
ag61
ag53
ag867
ag1108
ag1379
ag454
ag324
ag1402
ag1378
ag930
ag435
ag983
ag536
ag355
ag1307
ag1062
ag1129
ag986
ag1161
ag1275
ag1063
ag12
ag124
ag856
ag1389
ag870
ag176
ag1167
ag601
ag458
ag1240
ag389
ag697
ag1102
ag1225
ag946
ag177
ag1383
ag521
ag779
ag1138
ag419
ag531
ag921
ag1125
ag730
ag1314
ag1124
ag833
ag1101
ag991
ag966
ag1223
ag60
ag1194
ag278
ag928
ag407
ag282
ag373
ag1395
ag1143
ag186
ag695
ag1074
ag141
ag248
ag354
ag425
ag273
ag413
ag679
ag611
ag1220
ag794
ag30
ag1320
ag789
ag535
ag782
ag247
ag1057
ag1358
ag1434
ag1415
ag958
ag1334
ag1046
ag1384
ag1085
ag1084
ag996
ag1365
ag1427
ag1145
ag993
ag586
ag200
ag1237
ag149
ag1422
ag1241
ag251
ag192
ag1002
ag912
ag557
ag385
ag1381
ag1257
ag93
ag1333
ag1009
ag266
ag715
ag319
ag321
ag119
ag137
ag462
ag222
ag1042
ag1113
ag1416
ag639
ag37
ag1298
ag1290
ag738
ag793
ag499
ag62
ag875
ag884
ag1077
ag1248
ag659
ag252
ag1094
ag748
ag657
ag113
ag474
ag1280
ag916
ag1026
ag1163
ag464
ag406
ag1037
ag702
ag827
ag747
ag1166
ag382
ag153
ag618
ag1397
ag666
ag967
ag1269
ag162
ag1285
ag463
ag974
ag1323
ag1175
ag360
ag626
ag1249
ag498
ag152
ag596
ag18
ag1219
ag1322
ag1021
ag537
ag428
ag1407
ag85
ag844
ag969
ag898
ag1190
ag776
ag357
ag669
ag1067
ag664
ag733
ag864
ag466
ag506
ag146
ag727
ag436
ag600
ag585
ag528
ag226
ag670
ag491
ag1028
ag1349
ag1097
ag721
ag322
ag298
ag527
ag1024
ag594
ag1336
ag648
ag155
ag1250
ag206
ag1337
ag714
ag1103
ag686
ag465
ag1376
ag1344
ag1122
ag347
ag572
ag401
ag661
ag684
ag179
ag897
ag579
ag1023
ag1361
ag111
ag784
ag1400
ag859
ag589
ag495
ag642
ag1109
ag755
ag532
ag617
ag667
ag591
ag1154
ag515
ag676
ag1162
ag121
ag1061
ag1228
ag490
ag1096
ag405
ag105
ag140
ag103
ag69
ag614
ag1265
ag348
ag496
ag168
ag565
ag317
ag710
ag772
ag275
ag46
ag1390
ag649
ag1312
ag842
ag990
ag1128
ag790
ag757
ag242
ag302
ag364
ag295
ag754
ag668
ag1316
ag223
ag224
ag774
ag187
ag228
ag77
ag1430
ag914
ag882
ag753
ag1409
ag381
ag235
ag681
ag620
ag1347
ag383
ag1367
ag1088
ag457
ag997
ag871
ag1288
ag21
ag1231
ag526
ag1019
ag814
ag1184
ag290
ag811
ag315
ag232
ag701
ag962
ag1120
ag209
ag38
ag1245
ag300
ag1080
ag643
ag19
ag689
ag45
ag622
ag821
ag913
ag54
ag1281
ag1207
ag334
ag159
ag538
ag887
ag1204
ag1283
ag839
ag1127
ag957
ag1201
ag1370
ag964
ag737
ag55
ag576
ag501
ag340
ag890
ag802
ag929
ag372
ag995
ag947
ag67
ag399
ag1104
ag663
ag161
ag217
ag1159
ag297
ag1213
ag541
ag100
ag505
ag129
ag450
ag1177
ag645
ag442
ag1356
ag366
ag720
ag416
ag690
ag289
ag410
ag44
ag326
ag896
ag1020
ag47
ag563
ag1013
ag1132
ag1305
ag655
ag194
ag493
ag1405
ag763
ag339
ag185
ag545
ag1044
ag139
ag509
ag33
ag63
ag386
ag1030
ag892
ag24
ag1144
ag1099
ag1392
ag1197
ag1034
ag1340
ag942
ag8
ag191
ag788
ag1054
ag518
ag903
ag1086
ag840
ag1055
ag1417
ag363
ag446
ag136
ag356
ag1324
ag674
ag598
ag641
ag170
ag301
ag1186
ag13
ag335
ag371
ag429
ag672
ag1351
ag1310
ag656
ag650
ag1058
ag76
ag487
ag937
ag1005
ag943
ag107
ag783
ag198
ag71
ag350
ag1205
ag327
ag280
ag683
ag610
ag1022
ag553
ag1157
ag188
ag615
ag393
ag449
ag95
ag731
ag201
ag1353
ag1045
ag602
ag475
ag102
ag588
ag977
ag169
ag1277
ag1072
ag973
ag687
ag1227
ag1371
ag292
ag522
ag729
ag828
ag510
ag330
ag519
ag190
ag1276
ag1286
ag131
ag824
ag797
ag592
ag337
ag87
ag444
ag736
ag688
ag261
ag868
asS'separator'
p1442
S'='
sS'sparse'
p1443
I01
sb.