ccopy_reg
_reconstructor
p1
(csklearn.feature_extraction.dict_vectorizer
DictVectorizer
p2
c__builtin__
object
p3
NtRp4
(dp5
S'vocabulary_'
p6
(dp7
S'w+2=witherspoon'
p8
I74
sS'conj=take'
p9
I15
sS'w+2=low'
p10
I67
sS'w+1=-rrb-'
p11
I42
sS'w+2=election'
p12
I65
sS'w-2=never'
p13
I101
sS'nsubjpass=people'
p14
I33
sS'dobj=citizen'
p15
I18
sS'w-2=partner'
p16
I102
sS'det=the'
p17
I17
sS'w-2=to'
p18
I110
sS'dobj=people'
p19
I21
sS'w-2=against'
p20
I94
sS'w-1=who'
p21
I90
sS'w-2=side'
p22
I105
sS'w-1=or'
p23
I86
sS'nsubj=who'
p24
I30
sS'w+2=difficult'
p25
I64
sS'auxpass=get'
p26
I11
sS'w-2=they'
p27
I108
sS'w-1=to'
p28
I89
sS'prep=by'
p29
I35
sS'w-1=drug'
p30
I80
sS'xcomp=express'
p31
I115
sS'w+1=need'
p32
I52
sS'w-1=phillippe'
p33
I87
sS'advmod=ahhh'
p34
I1
sS'advmod=ever'
p35
I2
sS'w-2=the'
p36
I107
sS'w-2=he'
p37
I98
sS'w+2=citizen'
p38
I63
sS'w+1=more'
p39
I51
sS'dobj=homeowner'
p40
I19
sS'advmod=so'
p41
I3
sS'w-2=I'
p42
I93
sS'w-2=,'
p43
I91
sS'w-2=lie'
p44
I99
sS'w-2=.'
p45
I92
sS'prep=with'
p46
I39
sS'w-2=try'
p47
I111
sS'nsubj=phillippe'
p48
I29
sS'aux=have'
p49
I7
sS'prt=out'
p50
I40
sS'w-1=be'
p51
I78
sS'acomp=difficult'
p52
I0
sS'w-1=.'
p53
I75
sS'w+1=homeowner'
p54
I50
sS'w-1=can'
p55
I79
sS'w+1=out'
p56
I54
sS'nsubjpass=Tsvangirai'
p57
I32
sS'w-1=feel'
p58
I82
sS'w-2=wrong'
p59
I113
sS'w-2=nation'
p60
I100
sS'prep=about'
p61
I34
sS'w+1=spouse'
p62
I56
sS'w-1=I'
p63
I77
sS'aux=should'
p64
I8
sS'w+2=to'
p65
I73
sS'w+1=on'
p66
I53
sS'nsubj=Citibank'
p67
I27
sS'dobj=need'
p68
I20
sS'dep=that'
p69
I16
sS'w-1=have'
p70
I84
sS"w+2=''"
p71
I59
sS'w+2=it'
p72
I66
sS'neg=never'
p73
I25
sS'auxpass=be'
p74
I10
sS'aux=can'
p75
I6
sS'complm=that'
p76
I13
sS'w+1=people'
p77
I55
sS'complm=whether'
p78
I14
sS'w+2=they'
p79
I72
sS'w+2=need'
p80
I68
sS'advmod=why'
p81
I4
sS'w-2=have'
p82
I97
sS'cc=and'
p83
I12
sS'w-2=that'
p84
I106
sS'w+1=the'
p85
I57
sS'w+2=take'
p86
I71
sS'w+1=by'
p87
I49
sS'w+1=be'
p88
I48
sS'w-2=for'
p89
I96
sS'nsubjpass=#PRP#'
p90
I31
sS'prep=in'
p91
I36
sS'w-1=ever'
p92
I81
sS'w-2=way'
p93
I112
sS'nsubj=#PRP#'
p94
I26
sS'w+1=about'
p95
I46
sS'w+2=Canada'
p96
I62
sS'w-2=those'
p97
I109
sS'aux=to'
p98
I9
sS'w-2=you'
p99
I114
sS'w-2=should'
p100
I104
sS'dobj=time'
p101
I22
sS'w-1=get'
p102
I83
sS'nsubj=nation'
p103
I28
sS'w+1=and'
p104
I47
sS'w+1=,'
p105
I41
sS'w+1=.'
p106
I43
sS'w+2=of'
p107
I69
sS'w+2=.'
p108
I61
sS'w+2=,'
p109
I60
sS'w+1=?'
p110
I44
sS'w-1=Citibank'
p111
I76
sS'w+2=second'
p112
I70
sS'w-2=people'
p113
I103
sS'w-1=make'
p114
I85
sS'w+1=a'
p115
I45
sS'prep=of'
p116
I37
sS'w+1=yourselve'
p117
I58
sS'w-1=the'
p118
I88
sS'w-2=attempt'
p119
I95
sS'prep=on'
p120
I38
sS'aux=be'
p121
I5
sS'mark=if'
p122
I24
sS'dobj=yourselve'
p123
I23
ssS'dtype'
p124
cnumpy
float64
p125
sS'feature_names_'
p126
(lp127
g52
ag34
ag35
ag41
ag81
ag121
ag75
ag49
ag64
ag98
ag74
ag26
ag83
ag76
ag78
ag9
ag69
ag17
ag15
ag40
ag68
ag19
ag101
ag123
ag122
ag73
ag94
ag67
ag103
ag48
ag24
ag90
ag57
ag14
ag61
ag29
ag91
ag116
ag120
ag46
ag50
ag105
ag11
ag106
ag110
ag115
ag95
ag104
ag88
ag87
ag54
ag39
ag32
ag66
ag56
ag77
ag62
ag85
ag117
ag71
ag109
ag108
ag96
ag38
ag25
ag12
ag72
ag10
ag80
ag107
ag112
ag86
ag79
ag65
ag8
ag53
ag111
ag63
ag51
ag55
ag30
ag92
ag58
ag102
ag70
ag114
ag23
ag33
ag118
ag28
ag21
ag43
ag45
ag42
ag20
ag119
ag89
ag82
ag37
ag44
ag60
ag13
ag16
ag113
ag100
ag22
ag84
ag36
ag27
ag97
ag18
ag47
ag93
ag59
ag99
ag31
asS'separator'
p128
S'='
sS'sparse'
p129
I01
sb.