ccopy_reg
_reconstructor
p1
(csklearn.feature_extraction.dict_vectorizer
DictVectorizer
p2
c__builtin__
object
p3
NtRp4
(dp5
S'sort'
p6
I01
sS'feature_names_'
p7
(lp8
S'advcl=have'
p9
aS'advcl=higher'
p10
aS'advcl=see'
p11
aS'advmod=#NUMBER#'
p12
aS'advmod=abruptly'
p13
aS'advmod=basically'
p14
aS'advmod=earlier'
p15
aS'advmod=early'
p16
aS'advmod=especially'
p17
aS'advmod=finally'
p18
aS'advmod=gradually'
p19
aS'advmod=just'
p20
aS'advmod=now'
p21
aS'advmod=often'
p22
aS'advmod=really'
p23
aS'advmod=unfortunately'
p24
aS'advmod=up'
p25
aS'advmod=when'
p26
aS'aux=be'
p27
aS'aux=can'
p28
aS'aux=have'
p29
aS'aux=must'
p30
aS'aux=should'
p31
aS'aux=to'
p32
aS'aux=will'
p33
aS'cc=and'
p34
aS'cc=or'
p35
aS'ccomp=do'
p36
aS'ccomp=see'
p37
aS'ccomp=try'
p38
aS'complm=that'
p39
aS'conj=change'
p40
aS'conj=dangerous'
p41
aS'conj=direction'
p42
aS'conj=go'
p43
aS'conj=juston'
p44
aS'conj=minister'
p45
aS'conj=need'
p46
aS'conj=off'
p47
aS'conj=protest'
p48
aS'conj=reduce'
p49
aS'conj=say'
p50
aS'conj=scandal'
p51
aS'conj=see'
p52
aS'conj=serious'
p53
aS'conj=sleep'
p54
aS'conj=speak'
p55
aS'conj=spread'
p56
aS'conj=sure'
p57
aS'conj=try'
p58
aS'conj=video'
p59
aS'cop=be'
p60
aS'dep=acknowledge'
p61
aS'dep=attack'
p62
aS'dep=spend'
p63
aS'dep=there'
p64
aS'det=a'
p65
aS'det=the'
p66
aS'dobj=#PRP#'
p67
aS'dobj=Asia'
p68
aS'dobj=traffic'
p69
aS'mark=because'
p70
aS'mark=if'
p71
aS'neg=not'
p72
aS'nsubj=#PRP#'
p73
aS'nsubj=Belgrade'
p74
aS'nsubj=Europeans'
p75
aS'nsubj=Ndoye'
p76
aS'nsubj=Russia'
p77
aS'nsubj=Timmy'
p78
aS'nsubj=crisis'
p79
aS'nsubj=explosion'
p80
aS'nsubj=governor'
p81
aS'nsubj=motorist'
p82
aS'nsubj=nephew'
p83
aS'nsubj=people'
p84
aS'nsubj=resident'
p85
aS'nsubj=somebody'
p86
aS'nsubj=this'
p87
aS'nsubj=world'
p88
aS'poss=#PRP#'
p89
aS'predet=all'
p90
aS'prep=as'
p91
aS'prep=at'
p92
aS'prep=before'
p93
aS'prep=from'
p94
aS'prep=in'
p95
aS'prep=include'
p96
aS'prep=of'
p97
aS'prep=than'
p98
aS'prep=to'
p99
aS'prep=with'
p100
aS'prt=up'
p101
aS'rcmod=allege'
p102
aS'rcmod=blame'
p103
aS'rcmod=perform'
p104
aS'tmod=#DATE#'
p105
aS'tmod=day'
p106
aS'tmod=morning'
p107
aS'tmod=tomorrow'
p108
aS'w+1=.'
p109
aS'w+1=:'
p110
aS'w+1=I'
p111
aS'w+1=of'
p112
aS'w+1=she'
p113
aS'w+1=they'
p114
aS'w+1=to'
p115
aS'w+1=up'
p116
aS'w+1=we'
p117
aS"w+2=''"
p118
aS'w+2=,'
p119
aS'w+2=.'
p120
aS'w+2=...'
p121
aS'w+2=Asia'
p122
aS'w+2=December'
p123
aS'w+2=Friday'
p124
aS'w+2=Hillary'
p125
aS'w+2=Kenya'
p126
aS'w+2=Kosovo'
p127
aS'w+2=March'
p128
aS'w+2=Mr.'
p129
aS'w+2=President'
p130
aS'w+2=Ted'
p131
aS'w+2=Tuesday'
p132
aS'w+2=Watergate'
p133
aS'w+2=a'
p134
aS'w+2=air'
p135
aS'w+2=al-qaida'
p136
aS'w+2=all'
p137
aS'w+2=and'
p138
aS'w+2=at'
p139
aS'w+2=baby'
p140
aS'w+2=be'
p141
aS'w+2=bloody'
p142
aS'w+2=call'
p143
aS'w+2=civil'
p144
aS'w+2=comment'
p145
aS'w+2=confusion'
p146
aS'w+2=continue'
p147
aS'w+2=controversy'
p148
aS'w+2=deadly'
p149
aS'w+2=earlier'
p150
aS'w+2=early'
p151
aS'w+2=economic'
p152
aS'w+2=from'
p153
aS'w+2=he'
p154
aS'w+2=hear'
p155
aS'w+2=in'
p156
aS'w+2=last'
p157
aS'w+2=massive'
p158
aS'w+2=more'
p159
aS'w+2=often'
p160
aS'w+2=opposition'
p161
aS'w+2=out'
p162
aS'w+2=police'
p163
aS'w+2=preliminary'
p164
aS'w+2=recent'
p165
aS'w+2=report'
p166
aS'w+2=republican'
p167
aS'w+2=rise'
p168
aS'w+2=statement'
p169
aS'w+2=that'
p170
aS'w+2=the'
p171
aS'w+2=these'
p172
aS'w+2=they'
p173
aS'w+2=to'
p174
aS'w+2=tomorrow'
p175
aS'w+2=up'
p176
aS'w+2=visit'
p177
aS'w+2=what'
p178
aS'w+2=with'
p179
aS'w-1=,'
p180
aS'w-1=Europeans'
p181
aS'w-1=I'
p182
aS'w-1=Ndoye'
p183
aS'w-1=Sharon'
p184
aS'w-1=Timmy'
p185
aS'w-1=a'
p186
aS'w-1=abruptly'
p187
aS'w-1=and'
p188
aS'w-1=be'
p189
aS'w-1=can'
p190
aS'w-1=explosion'
p191
aS'w-1=finally'
p192
aS'w-1=gradually'
p193
aS'w-1=have'
p194
aS'w-1=he'
p195
aS'w-1=in'
p196
aS'w-1=it'
p197
aS'w-1=its'
p198
aS'w-1=just'
p199
aS'w-1=motorcyclist'
p200
aS'w-1=must'
p201
aS'w-1=not'
p202
aS'w-1=obviously'
p203
aS'w-1=really'
p204
aS'w-1=resident'
p205
aS'w-1=she'
p206
aS'w-1=the'
p207
aS'w-1=they'
p208
aS'w-1=to'
p209
aS'w-1=usually'
p210
aS'w-1=we'
p211
aS'w-1=will'
p212
aS'w-1=you'
p213
aS"w-2=''"
p214
aS'w-2=,'
p215
aS'w-2=-'
p216
aS'w-2=-rrb-'
p217
aS'w-2=.'
p218
aS'w-2=Adama'
p219
aS'w-2=Australians'
p220
aS'w-2=Belgrade'
p221
aS'w-2=I'
p222
aS'w-2=Mr.'
p223
aS'w-2=ability'
p224
aS'w-2=all'
p225
aS'w-2=and'
p226
aS'w-2=be'
p227
aS'w-2=clock'
p228
aS'w-2=crisis'
p229
aS'w-2=day'
p230
aS'w-2=dream'
p231
aS'w-2=economically'
p232
aS'w-2=everyday'
p233
aS'w-2=go'
p234
aS'w-2=governor'
p235
aS'w-2=have'
p236
aS'w-2=home'
p237
aS'w-2=if'
p238
aS'w-2=in'
p239
aS'w-2=it'
p240
aS'w-2=just'
p241
aS'w-2=mother'
p242
aS'w-2=need'
p243
aS'w-2=nephew'
p244
aS'w-2=now'
p245
aS'w-2=people'
p246
aS'w-2=relation'
p247
aS'w-2=severe'
p248
aS'w-2=should'
p249
aS'w-2=think'
p250
aS'w-2=thunderous'
p251
aS'w-2=to'
p252
aS'w-2=try'
p253
aS'w-2=want'
p254
aS'w-2=we'
p255
aS'w-2=when'
p256
aS'w-2=world'
p257
aS'xcomp=Suzanna'
p258
aS'xcomp=be'
p259
aS'xcomp=come'
p260
aS'xcomp=find'
p261
aS'xcomp=hear'
p262
aS'xcomp=say'
p263
aS'xcomp=try'
p264
asS'dtype'
p265
cnumpy
float64
p266
sS'vocabulary_'
p267
(dp268
g78
I69
sg206
I197
sg93
I84
sg9
I0
sg25
I16
sg153
I144
sg41
I32
sg47
I38
sg144
I135
sg150
I141
sg255
I246
sg109
I100
sg246
I237
sg143
I134
sg22
I13
sg90
I81
sg234
I225
sg161
I152
sg46
I37
sg160
I151
sg126
I117
sg66
I57
sg68
I59
sg170
I161
sg252
I243
sg48
I39
sg57
I48
sg96
I87
sg105
I96
sg69
I60
sg205
I196
sg166
I157
sg52
I43
sg106
I97
sg152
I143
sg193
I184
sg56
I47
sg243
I234
sg55
I46
sg98
I89
sg209
I200
sg162
I153
sg43
I34
sg138
I129
sg17
I8
sg226
I217
sg81
I72
sg116
I107
sg102
I93
sg10
I1
sg244
I235
sg67
I58
sg19
I10
sg223
I214
sg108
I99
sg123
I114
sg187
I178
sg60
I51
sg190
I181
sg258
I249
sg224
I215
sg133
I124
sg231
I222
sg127
I118
sg33
I24
sg257
I248
sg103
I94
sg21
I12
sg140
I131
sg44
I35
sg20
I11
sg188
I179
sg171
I162
sg92
I83
sg184
I175
sg77
I68
sg91
I82
sg219
I210
sg147
I138
sg215
I206
sg221
I212
sg84
I75
sg100
I91
sg18
I9
sg24
I15
sg253
I244
sg137
I128
sg76
I67
sg29
I20
sg189
I180
sg250
I241
sg59
I50
sg222
I213
sg191
I182
sg180
I171
sg251
I242
sg63
I54
sg245
I236
sg11
I2
sg238
I229
sg154
I145
sg75
I66
sg113
I104
sg88
I79
sg239
I230
sg230
I221
sg15
I6
sg142
I133
sg242
I233
sg240
I231
sg228
I219
sg70
I61
sg12
I3
sg182
I173
sg122
I113
sg31
I22
sg112
I103
sg94
I85
sg124
I115
sg107
I98
sg174
I165
sg157
I148
sg167
I158
sg208
I199
sg247
I238
sg65
I56
sg186
I177
sg54
I45
sg233
I224
sg263
I254
sg198
I189
sg194
I185
sg163
I154
sg168
I159
sg139
I130
sg118
I109
sg156
I147
sg195
I186
sg178
I169
sg169
I160
sg64
I55
sg40
I31
sg225
I216
sg262
I253
sg61
I52
sg185
I176
sg58
I49
sg53
I44
sg28
I19
sg39
I30
sg164
I155
sg204
I195
sg173
I164
sg264
I255
sg51
I42
sg104
I95
sg158
I149
sg213
I204
sg146
I137
sg80
I71
sg201
I192
sg130
I121
sg34
I25
sg183
I174
sg26
I17
sg135
I126
sg62
I53
sg202
I193
sg199
I190
sg141
I132
sg165
I156
sg114
I105
sg148
I139
sg256
I247
sg42
I33
sg151
I142
sg181
I172
sg49
I40
sg50
I41
sg149
I140
sg23
I14
sg236
I227
sg159
I150
sg86
I77
sg83
I74
sg179
I170
sg73
I64
sg16
I7
sg132
I123
sg36
I27
sg155
I146
sg254
I245
sg79
I70
sg99
I90
sg211
I202
sg32
I23
sg249
I240
sg232
I223
sg145
I136
sg13
I4
sg248
I239
sg89
I80
sg125
I116
sg176
I167
sg136
I127
sg129
I120
sg38
I29
sg214
I205
sg87
I78
sg261
I252
sg131
I122
sg82
I73
sg203
I194
sg128
I119
sg120
I111
sg121
I112
sg119
I110
sg241
I232
sg260
I251
sg115
I106
sg110
I101
sg72
I63
sg95
I86
sg197
I188
sg30
I21
sg237
I228
sg229
I220
sg216
I207
sg111
I102
sg235
I226
sg101
I92
sg175
I166
sg218
I209
sg177
I168
sg259
I250
sg220
I211
sg172
I163
sg196
I187
sg117
I108
sg35
I26
sg227
I218
sg74
I65
sg210
I201
sg97
I88
sg200
I191
sg217
I208
sg207
I198
sg37
I28
sg212
I203
sg27
I18
sg192
I183
sg71
I62
sg45
I36
sg85
I76
sg134
I125
sg14
I5
ssS'separator'
p269
S'='
sS'sparse'
p270
I01
sb.