ccopy_reg
_reconstructor
p1
(csklearn.feature_extraction.dict_vectorizer
DictVectorizer
p2
c__builtin__
object
p3
NtRp4
(dp5
S'sort'
p6
I01
sS'feature_names_'
p7
(lp8
S'advcl=take'
p9
aS'advmod=probably'
p10
aS'aux=can'
p11
aS'aux=have'
p12
aS'aux=to'
p13
aS'cc=and'
p14
aS'complm=that'
p15
aS'conj=nominee'
p16
aS'dobj=#PRP#'
p17
aS'dobj=Iowa'
p18
aS'dobj=country'
p19
aS'dobj=debate'
p20
aS'dobj=gathering'
p21
aS'dobj=number'
p22
aS'dobj=playing'
p23
aS'dobj=school'
p24
aS'dobj=technology'
p25
aS'dobj=tournament'
p26
aS'mark=if'
p27
aS'mark=since'
p28
aS'nsubj=#PRP#'
p29
aS'nsubj=Bush'
p30
aS'nsubj=McCain'
p31
aS'nsubj=Thompson'
p32
aS'nsubj=leader'
p33
aS'nsubj=method'
p34
aS'partmod=draw'
p35
aS'prep=in'
p36
aS'prep=on'
p37
aS'prep=to'
p38
aS'prep=with'
p39
aS'prt=out'
p40
aS'w+1=,'
p41
aS'w+1=Iowa'
p42
aS'w+1=a'
p43
aS'w+1=fixed-line'
p44
aS'w+1=it'
p45
aS'w+1=out'
p46
aS'w+1=playing'
p47
aS'w+1=school'
p48
aS'w+1=the'
p49
aS'w+2=,'
p50
aS'w+2=.'
p51
aS'w+2=Paris'
p52
aS'w+2=as'
p53
aS'w+2=country'
p54
aS'w+2=in'
p55
aS'w+2=number'
p56
aS'w+2=on'
p57
aS'w+2=or'
p58
aS'w+2=republican'
p59
aS'w+2=technology'
p60
aS'w+2=third'
p61
aS'w-1=Clinton'
p62
aS'w-1=McCain'
p63
aS'w-1=Thompson'
p64
aS'w-1=can'
p65
aS'w-1=have'
p66
aS'w-1=leader'
p67
aS'w-1=method'
p68
aS'w-1=or'
p69
aS'w-1=to'
p70
aS'w-1=you'
p71
aS'w-2=.'
p72
aS'w-2=Army'
p73
aS'w-2=Bill'
p74
aS'w-2=John'
p75
aS'w-2=child'
p76
aS'w-2=decide'
p77
aS'w-2=have'
p78
aS'w-2=he'
p79
aS'w-2=if'
p80
aS'w-2=jump'
p81
aS'w-2=nation'
p82
aS'w-2=should'
p83
aS'w-2=the'
p84
aS'w-2=you'
p85
aS'xcomp=sign'
p86
asS'dtype'
p87
cnumpy
float64
p88
sS'vocabulary_'
p89
(dp90
g79
I70
sg14
I5
sg85
I76
sg63
I54
sg73
I64
sg75
I66
sg55
I46
sg13
I4
sg53
I44
sg83
I74
sg78
I69
sg32
I23
sg86
I77
sg34
I25
sg58
I49
sg68
I59
sg61
I52
sg72
I63
sg39
I30
sg42
I33
sg15
I6
sg30
I21
sg20
I11
sg47
I38
sg40
I31
sg46
I37
sg56
I47
sg28
I19
sg10
I1
sg54
I45
sg50
I41
sg57
I48
sg51
I42
sg52
I43
sg49
I40
sg59
I50
sg62
I53
sg65
I56
sg80
I71
sg12
I3
sg69
I60
sg81
I72
sg25
I16
sg67
I58
sg41
I32
sg64
I55
sg16
I7
sg33
I24
sg48
I39
sg35
I26
sg71
I62
sg26
I17
sg18
I9
sg11
I2
sg23
I14
sg70
I61
sg9
I0
sg19
I10
sg43
I34
sg82
I73
sg22
I13
sg36
I27
sg74
I65
sg76
I67
sg17
I8
sg77
I68
sg37
I28
sg44
I35
sg60
I51
sg31
I22
sg24
I15
sg45
I36
sg27
I18
sg29
I20
sg21
I12
sg84
I75
sg66
I57
sg38
I29
ssS'separator'
p91
S'='
sS'sparse'
p92
I01
sb.