ccopy_reg
_reconstructor
p1
(csklearn.feature_extraction.dict_vectorizer
DictVectorizer
p2
c__builtin__
object
p3
NtRp4
(dp5
S'vocabulary_'
p6
(dp7
S'advmod=then'
p8
I11
sS'conj=good'
p9
I38
sS'prep=before'
p10
I89
sS'advcl=have'
p11
I1
sS'w+2=from'
p12
I170
sS'advmod=where'
p13
I14
sS'w-2=safe'
p14
I280
sS'w+2=day'
p15
I163
sS'advcl=water'
p16
I2
sS'w+2=lot'
p17
I175
sS'w-2=when'
p18
I297
sS'w+1=off'
p19
I130
sS'w-1=more'
p20
I218
sS'w-2=although'
p21
I247
sS'rcmod=be'
p22
I99
sS'w+1=dirty'
p23
I116
sS'w+1=per'
p24
I133
sS'w-1=to'
p25
I234
sS'w+1=diet'
p26
I115
sS'w+1=clean'
p27
I113
sS'dobj=anything'
p28
I50
sS'w+1=water'
p29
I146
sS'w-2=eat'
p30
I258
sS'conj=food'
p31
I37
sS'w+2=not'
p32
I177
sS'det=the'
p33
I45
sS'dobj=road'
p34
I60
sS'w-2=wench'
p35
I296
sS'appos=drink'
p36
I21
sS'w-2=Munir'
p37
I245
sS'w+1=tea'
p38
I140
sS'dobj=water'
p39
I63
sS'w-1=who'
p40
I238
sS'w+2=much'
p41
I176
sS'rcmod=consume'
p42
I100
sS'w-2=want'
p43
I294
sS'w-1=or'
p44
I222
sS'w-1=Drinkers'
p45
I202
sS'w-2=or'
p46
I279
sS'dobj=poison'
p47
I58
sS'nsubj=who'
p48
I84
sS'w-1=not'
p49
I220
sS'dobj=alcohol'
p50
I49
sS'dobj=plenty'
p51
I57
sS'w-2=of'
p52
I278
sS'w-2=have'
p53
I268
sS'dobj=whiskey'
p54
I64
sS'nsubj=animal'
p55
I77
sS'w-2=they'
p56
I290
sS'w-1=like'
p57
I215
sS'w+2=sex'
p58
I186
sS'w-2=to'
p59
I292
sS'w+2=and'
p60
I160
sS'w-2=and'
p61
I248
sS'w-1=,'
p62
I201
sS'w+1=that'
p63
I141
sS'dobj=cup'
p64
I55
sS'w+1=while'
p65
I148
sS'w-1=two'
p66
I236
sS'dobj=#PRP#'
p67
I47
sS'w-2=do'
p68
I256
sS"w+2='"
p69
I151
sS'w-2=cool'
p70
I254
sS'w-2=whether'
p71
I299
sS'dobj=enough'
p72
I56
sS'advmod=traditionally'
p73
I12
sS'conj=drive'
p74
I33
sS'w+1=this'
p75
I144
sS'mark=while'
p76
I67
sS'cop=be'
p77
I42
sS'w-1=can'
p78
I208
sS'w-2=those'
p79
I291
sS'aux=do'
p80
I24
sS'w-2=he'
p81
I269
sS'w-2=serve'
p82
I283
sS'w-1=stimulating'
p83
I228
sS'dobj=wine'
p84
I65
sS'w-2=with'
p85
I301
sS'w+2=hand'
p86
I172
sS'aux=will'
p87
I27
sS'prep=during'
p88
I90
sS'w-2=say'
p89
I281
sS'w+1=lace'
p90
I126
sS'w+2=with'
p91
I198
sS'w+2=the'
p92
I189
sS'nsubj=Mali'
p93
I75
sS'w+1=reduce'
p94
I136
sS'prep=as'
p95
I88
sS'w-1=will'
p96
I239
sS'w+2=generally'
p97
I171
sS'w-2=,'
p98
I241
sS'w+2=180'
p99
I155
sS'nsubj=people'
p100
I81
sS'prep=per'
p101
I95
sS'w+2=train'
p102
I192
sS'w+2=against'
p103
I158
sS'w+2=all'
p104
I159
sS'aux=have'
p105
I25
sS'nsubj=driver'
p106
I78
sS'w-1=be'
p107
I207
sS'w+2=well'
p108
I194
sS'dobj=pool'
p109
I59
sS'w-2=frothy'
p110
I264
sS'w-1=soft'
p111
I227
sS'w+2=fast'
p112
I168
sS'w+2=consume'
p113
I162
sS'w+2=quick'
p114
I184
sS'w-2=if'
p115
I271
sS'w-2=carbonated'
p116
I250
sS'w-2=down'
p117
I257
sS'w-2=I'
p118
I244
sS'conj=discuss'
p119
I32
sS'w-2=in'
p120
I272
sS'w+1=so'
p121
I137
sS'w-2=food'
p122
I261
sS'w-2=where'
p123
I298
sS'nsubj=mother'
p124
I80
sS'amod=local'
p125
I16
sS'w-2=mother'
p126
I276
sS'w-2=everybody'
p127
I259
sS'w-2=go'
p128
I266
sS'w-2=continue'
p129
I253
sS'w-2=man'
p130
I273
sS'rcmod=taste'
p131
I101
sS'w-2=while'
p132
I300
sS'dobj=champagne'
p133
I52
sS'nsubj=everybody'
p134
I79
sS'w-2=natural'
p135
I277
sS'nsubj=Whisky'
p136
I76
sS'advmod=when'
p137
I13
sS'w-2=meet'
p138
I274
sS'w-2=free'
p139
I263
sS'w+1=heavily'
p140
I121
sS'w+2=to'
p141
I191
sS'conj=struggle'
p142
I41
sS'w-1=traditionally'
p143
I235
sS'w+2=drive'
p144
I164
sS'w+1=one'
p145
I131
sS'w-1=they'
p146
I233
sS'w+2=during'
p147
I166
sS'prep=for'
p148
I91
sS'det=a'
p149
I44
sS'w+1=or'
p150
I132
sS'w+2=whiskey'
p151
I197
sS'amod=sugary'
p152
I19
sS'w-2=how'
p153
I270
sS'w+1=we'
p154
I147
sS'w+2=poison'
p155
I183
sS'w+1=at'
p156
I109
sS'w+1=whiskey'
p157
I149
sS'num=#NUMBER#'
p158
I85
sS'w-2=force'
p159
I262
sS'w+1=mainly'
p160
I127
sS'w+1=just'
p161
I125
sS'ccomp=tend'
p162
I30
sS"w+2=''"
p163
I152
sS'w-1=he'
p164
I211
sS'w+2=it'
p165
I173
sS'w+2=one'
p166
I179
sS'w+1=coffee'
p167
I114
sS'w-2=see'
p168
I282
sS'w+1=anything'
p169
I108
sS'w-1=in'
p170
I214
sS'w+2=while'
p171
I196
sS'w-2=commit'
p172
I252
sS'nn=world'
p173
I71
sS'w+1=from'
p174
I120
sS'w+1=alcohol'
p175
I106
sS'ccomp=have'
p176
I29
sS'dobj=concoction'
p177
I54
sS'w-1=hot'
p178
I213
sS'w+2=soda'
p179
I187
sS'aux=can'
p180
I23
sS"w-1='s"
p181
I200
sS'w+1=stall'
p182
I139
sS'w+2=Kool-Aid'
p183
I156
sS'advmod=at'
p184
I4
sS'w-1=suicide'
p185
I230
sS'w+2=then'
p186
I190
sS'w-1=vitamin-enriched'
p187
I237
sS'w-1=signature'
p188
I226
sS'cc=and'
p189
I28
sS'amod=stimulating'
p190
I18
sS'w+1=enough'
p191
I118
sS'dobj=tea'
p192
I62
sS'w+1=of'
p193
I129
sS'w-1=animal'
p194
I206
sS'w-1=mother'
p195
I219
sS'w+1=the'
p196
I142
sS'w+2=taste'
p197
I188
sS'w-1=health'
p198
I212
sS'nn=health'
p199
I69
sS'w+1=be'
p200
I110
sS'w-2=hand'
p201
I267
sS'w-1=sugary'
p202
I229
sS'w+1=they'
p203
I143
sS'w+2=listen'
p204
I174
sS'nsubj=Drinkers'
p205
I74
sS'w-2=water'
p206
I295
sS'advmod=quickly'
p207
I10
sS'w-2=speeding'
p208
I287
sS'dobj=coffee'
p209
I53
sS'w-2=specialize'
p210
I286
sS'w+2=particular'
p211
I181
sS'amod=vitamin-enriched'
p212
I20
sS'prep=in'
p213
I93
sS'advmod=how'
p214
I7
sS'w-2=smoke'
p215
I285
sS'w+1=evidently'
p216
I119
sS'w+1=driving'
p217
I117
sS'w+1=in'
p218
I122
sS'w-2=be'
p219
I249
sS'w-1=even'
p220
I209
sS'w+1=moderately'
p221
I128
sS'w+1=it'
p222
I124
sS'w-2=more'
p223
I275
sS'w+2=play'
p224
I182
sS'nsubj=#PRP#'
p225
I72
sS'advmod=moderately'
p226
I8
sS'w+1=about'
p227
I105
sS'prep=from'
p228
I92
sS'advmod=heavily'
p229
I6
sS'w-2=get'
p230
I265
sS"w-1=''"
p231
I199
sS'w+1=too'
p232
I145
sS'conj=recall'
p233
I40
sS'w+1=infected'
p234
I123
sS'prt=off'
p235
I98
sS'w+1=plenty'
p236
I135
sS'poss=Munir'
p237
I87
sS'prep=to'
p238
I96
sS'conj=expose'
p239
I36
sS'aux=to'
p240
I26
sS'w-2=a'
p241
I246
sS'dep=high'
p242
I43
sS'w-1=people'
p243
I223
sS'w-1=world'
p244
I240
sS'w-1=serve'
p245
I225
sS'nsubj=the'
p246
I83
sS'w-2=expensive'
p247
I260
sS'w+1=beer'
p248
I111
sS'dobj=#NUMBER#'
p249
I46
sS'w-1=Pakistan'
p250
I203
sS'w+1=and'
p251
I107
sS'w+2=or'
p252
I180
sS'advmod=much'
p253
I9
sS'w-1=that'
p254
I231
sS'w-2=.'
p255
I242
sS'w-1=for'
p256
I210
sS'w+1=,'
p257
I102
sS'w+2=choice'
p258
I161
sS'w+1=.'
p259
I103
sS'w+2=of'
p260
I178
sS'w+2=water'
p261
I193
sS'w+2=.'
p262
I154
sS'w+2=eat'
p263
I167
sS'w+2=,'
p264
I153
sS'w+2=for'
p265
I169
sS'w-1=local'
p266
I216
sS'neg=not'
p267
I68
sS'advmod=again'
p268
I3
sS'dobj=Kool-Aid'
p269
I48
sS'nsubj=that'
p270
I82
sS'dobj=beer'
p271
I51
sS'dobj=soda'
p272
I61
sS'w-1=and'
p273
I205
sS'w+1=soda'
p274
I138
sS'w-1=quickly'
p275
I224
sS'w-2=customer'
p276
I255
sS'conj=drug'
p277
I34
sS'amod=hot'
p278
I15
sS'conj=eat'
p279
I35
sS'conj=have'
p280
I39
sS'advcl=get'
p281
I0
sS'prep=with'
p282
I97
sS'w-2=Americans'
p283
I243
sS'w-1=a'
p284
I204
sS'w+1=wine'
p285
I150
sS'ccomp=turn'
p286
I31
sS'w+2=which'
p287
I195
sS'w-1=on'
p288
I221
sS'w-2=the'
p289
I289
sS'w-2=share'
p290
I284
sS'nsubj=Blacks'
p291
I73
sS'w+1=a'
p292
I104
sS'w+1=play'
p293
I134
sS'w+2=ready'
p294
I185
sS'amod=soft'
p295
I17
sS'prep=of'
p296
I94
sS'w-1=moderate'
p297
I217
sS'w+2=drug'
p298
I165
sS'w-1=the'
p299
I232
sS'w-2=very'
p300
I293
sS'partmod=play'
p301
I86
sS'nn=signature'
p302
I70
sS'aux=be'
p303
I22
sS'w-2=comic'
p304
I251
sS'mark=if'
p305
I66
sS'w+2=a'
p306
I157
sS'w+1=champagne'
p307
I112
sS'w-2=tell'
p308
I288
sS'advmod=basically'
p309
I5
ssS'dtype'
p310
cnumpy
float64
p311
sS'feature_names_'
p312
(lp313
g281
ag11
ag16
ag268
ag184
ag309
ag229
ag214
ag226
ag253
ag207
ag8
ag73
ag137
ag13
ag278
ag125
ag295
ag190
ag152
ag212
ag36
ag303
ag180
ag80
ag105
ag240
ag87
ag189
ag176
ag162
ag286
ag119
ag74
ag277
ag279
ag239
ag31
ag9
ag280
ag233
ag142
ag77
ag242
ag149
ag33
ag249
ag67
ag269
ag50
ag28
ag271
ag133
ag209
ag177
ag64
ag72
ag51
ag47
ag109
ag34
ag272
ag192
ag39
ag54
ag84
ag305
ag76
ag267
ag199
ag302
ag173
ag225
ag291
ag205
ag93
ag136
ag55
ag106
ag134
ag124
ag100
ag270
ag246
ag48
ag158
ag301
ag237
ag95
ag10
ag88
ag148
ag228
ag213
ag296
ag101
ag238
ag282
ag235
ag22
ag42
ag131
ag257
ag259
ag292
ag227
ag175
ag251
ag169
ag156
ag200
ag248
ag307
ag27
ag167
ag26
ag23
ag217
ag191
ag216
ag174
ag140
ag218
ag234
ag222
ag161
ag90
ag160
ag221
ag193
ag19
ag145
ag150
ag24
ag293
ag236
ag94
ag121
ag274
ag182
ag38
ag63
ag196
ag203
ag75
ag232
ag29
ag154
ag65
ag157
ag285
ag69
ag163
ag264
ag262
ag99
ag183
ag306
ag103
ag104
ag60
ag258
ag113
ag15
ag144
ag298
ag147
ag263
ag112
ag265
ag12
ag97
ag86
ag165
ag204
ag17
ag41
ag32
ag260
ag166
ag252
ag211
ag224
ag155
ag114
ag294
ag58
ag179
ag197
ag92
ag186
ag141
ag102
ag261
ag108
ag287
ag171
ag151
ag91
ag231
ag181
ag62
ag45
ag250
ag284
ag273
ag194
ag107
ag78
ag220
ag256
ag164
ag198
ag178
ag170
ag57
ag266
ag297
ag20
ag195
ag49
ag288
ag44
ag243
ag275
ag245
ag188
ag111
ag83
ag202
ag185
ag254
ag299
ag146
ag25
ag143
ag66
ag187
ag40
ag96
ag244
ag98
ag255
ag283
ag118
ag37
ag241
ag21
ag61
ag219
ag116
ag304
ag172
ag129
ag70
ag276
ag68
ag117
ag30
ag127
ag247
ag122
ag159
ag139
ag110
ag230
ag128
ag201
ag53
ag81
ag153
ag115
ag120
ag130
ag138
ag223
ag126
ag135
ag52
ag46
ag14
ag89
ag168
ag82
ag290
ag215
ag210
ag208
ag308
ag289
ag56
ag79
ag59
ag300
ag43
ag206
ag35
ag18
ag123
ag71
ag132
ag85
asS'separator'
p314
S'='
sS'sparse'
p315
I01
sb.