ccopy_reg
_reconstructor
p1
(csklearn.feature_extraction.dict_vectorizer
DictVectorizer
p2
c__builtin__
object
p3
NtRp4
(dp5
S'sort'
p6
I01
sS'feature_names_'
p7
(lp8
S'advcl=clear'
p9
aS'advcl=come'
p10
aS'advcl=pass'
p11
aS'advcl=play'
p12
aS'advcl=serve'
p13
aS'advmod=about'
p14
aS'advmod=soon'
p15
aS'advmod=still'
p16
aS'advmod=up'
p17
aS'amod=coordinate'
p18
aS'amod=supportive'
p19
aS'aux=be'
p20
aS'aux=have'
p21
aS'aux=to'
p22
aS'aux=will'
p23
aS'cc=and'
p24
aS'cc=but'
p25
aS'ccomp=go'
p26
aS'ccomp=pack'
p27
aS'ccomp=turn'
p28
aS'complm=that'
p29
aS'conj=applause'
p30
aS'conj=chant'
p31
aS'conj=hand'
p32
aS'dep=do'
p33
aS'dep=greet'
p34
aS'dep=recognition'
p35
aS'dep=sway'
p36
aS'det=a'
p37
aS'det=the'
p38
aS'dobj=#PRP#'
p39
aS'dobj=Ugandans'
p40
aS'dobj=athlete'
p41
aS'dobj=candidate'
p42
aS'dobj=crowd'
p43
aS'dobj=decision'
p44
aS'dobj=end'
p45
aS'dobj=family'
p46
aS'dobj=fan'
p47
aS'dobj=market'
p48
aS'dobj=news'
p49
aS'dobj=ruling'
p50
aS'dobj=schoolchildren'
p51
aS'dobj=supporter'
p52
aS'dobj=the'
p53
aS'dobj=victim'
p54
aS'dobj=victory'
p55
aS'mark=while'
p56
aS'neg=not'
p57
aS'nn=school'
p58
aS'nsubj=#PRP#'
p59
aS'nsubj=Somalis'
p60
aS'nsubj=crowd'
p61
aS'nsubj=everyone'
p62
aS'nsubj=family'
p63
aS'nsubj=girl'
p64
aS'nsubj=likelihood'
p65
aS'nsubj=many'
p66
aS'nsubj=news'
p67
aS'nsubj=people'
p68
aS'nsubj=president'
p69
aS'nsubj=protester'
p70
aS'nsubj=supporter'
p71
aS'nsubj=villager'
p72
aS'prep=at'
p73
aS'prep=before'
p74
aS'prep=during'
p75
aS'prep=for'
p76
aS'prep=in'
p77
aS'prep=of'
p78
aS'prep=on'
p79
aS'rcmod=echo'
p80
aS'w+1=,'
p81
aS'w+1=-'
p82
aS'w+1=.'
p83
aS'w+1=Barack'
p84
aS'w+1=U.S.'
p85
aS'w+1=US'
p86
aS'w+1=Ugandans'
p87
aS'w+1=Wednesday'
p88
aS'w+1=about'
p89
aS'w+1=and'
p90
aS'w+1=as'
p91
aS'w+1=at'
p92
aS'w+1=audience'
p93
aS'w+1=break'
p94
aS'w+1=by'
p95
aS'w+1=crowd'
p96
aS'w+1=during'
p97
aS'w+1=earlier'
p98
aS'w+1=erupt'
p99
aS'w+1=family'
p100
aS'w+1=fan'
p101
aS'w+1=for'
p102
aS'w+1=from'
p103
aS'w+1=greet'
p104
aS'w+1=news'
p105
aS'w+1=of'
p106
aS'w+1=on'
p107
aS'w+1=schoolchildren'
p108
aS'w+1=stock'
p109
aS'w+1=supporter'
p110
aS'w+1=that'
p111
aS'w+1=the'
p112
aS'w+1=they'
p113
aS'w+1=to'
p114
aS'w+1=up'
p115
aS'w+1=victim'
p116
aS'w+1=when'
p117
aS'w+1=you'
p118
aS'w+1=young'
p119
aS"w+2=''"
p120
aS'w+2=,'
p121
aS'w+2=:'
p122
aS'w+2=Kevin'
p123
aS'w+2=Obama'
p124
aS'w+2=Olympic'
p125
aS'w+2=Open'
p126
aS'w+2=Saturday'
p127
aS'w+2=Wednesday'
p128
aS'w+2=a'
p129
aS'w+2=and'
p130
aS'w+2=applause'
p131
aS'w+2=as'
p132
aS'w+2=at'
p133
aS'w+2=athlete'
p134
aS'w+2=beat'
p135
aS'w+2=candidate'
p136
aS'w+2=chant'
p137
aS'w+2=decision'
p138
aS'w+2=end'
p139
aS'w+2=failure'
p140
aS'w+2=from'
p141
aS'w+2=have'
p142
aS'w+2=in'
p143
aS'w+2=it'
p144
aS'w+2=many'
p145
aS'w+2=market'
p146
aS'w+2=news'
p147
aS'w+2=of'
p148
aS'w+2=on'
p149
aS'w+2=out'
p150
aS'w+2=pack'
p151
aS'w+2=ruling'
p152
aS'w+2=shout'
p153
aS'w+2=sing'
p154
aS'w+2=supporter'
p155
aS'w+2=team'
p156
aS'w+2=that'
p157
aS'w+2=the'
p158
aS'w+2=they'
p159
aS'w+2=volunteer'
p160
aS'w+2=who'
p161
aS"w-1=''"
p162
aS'w-1=,'
p163
aS'w-1=India'
p164
aS'w-1=a'
p165
aS'w-1=address'
p166
aS'w-1=and'
p167
aS'w-1=be'
p168
aS'w-1=before'
p169
aS'w-1=bring'
p170
aS'w-1=by'
p171
aS'w-1=coordinate'
p172
aS'w-1=crowd'
p173
aS'w-1=family'
p174
aS'w-1=have'
p175
aS'w-1=he'
p176
aS'w-1=help'
p177
aS'w-1=in'
p178
aS'w-1=into'
p179
aS'w-1=news'
p180
aS'w-1=of'
p181
aS'w-1=people'
p182
aS'w-1=protester'
p183
aS'w-1=school'
p184
aS'w-1=she'
p185
aS'w-1=still'
p186
aS'w-1=supporter'
p187
aS'w-1=supportive'
p188
aS'w-1=tell'
p189
aS'w-1=the'
p190
aS'w-1=to'
p191
aS'w-1=villager'
p192
aS'w-1=where'
p193
aS'w-1=will'
p194
aS'w-1=with'
p195
aS"w-2='s"
p196
aS'w-2=,'
p197
aS'w-2=Canaveral'
p198
aS'w-2=Court'
p199
aS'w-2=Lahore'
p200
aS'w-2=Mars'
p201
aS'w-2=Mugabe'
p202
aS'w-2=Thursday'
p203
aS'w-2=Tokyo'
p204
aS'w-2=Washington'
p205
aS'w-2=a'
p206
aS'w-2=arena'
p207
aS'w-2=banner'
p208
aS'w-2=be'
p209
aS'w-2=bless'
p210
aS'w-2=break'
p211
aS'w-2=by'
p212
aS'w-2=chant'
p213
aS'w-2=clap'
p214
aS'w-2=come'
p215
aS'w-2=crowd'
p216
aS'w-2=death'
p217
aS'w-2=debate'
p218
aS'w-2=erupt'
p219
aS'w-2=everyone'
p220
aS'w-2=explode'
p221
aS'w-2=forward'
p222
aS'w-2=good'
p223
aS'w-2=greet'
p224
aS'w-2=have'
p225
aS'w-2=hug'
p226
aS'w-2=in'
p227
aS'w-2=into'
p228
aS'w-2=man'
p229
aS'w-2=of'
p230
aS'w-2=place'
p231
aS'w-2=plenty'
p232
aS'w-2=president'
p233
aS'w-2=rain-soaked'
p234
aS'w-2=rally'
p235
aS'w-2=reason'
p236
aS'w-2=return'
p237
aS'w-2=she'
p238
aS'w-2=shout'
p239
aS'w-2=something'
p240
aS'w-2=stand'
p241
aS'w-2=tell'
p242
aS'w-2=the'
p243
aS'w-2=they'
p244
aS'w-2=thousand'
p245
aS'w-2=to'
p246
aS'w-2=watch'
p247
aS'w-2=whoop'
p248
aS'w-2=with'
p249
aS'w-2=young'
p250
aS'xcomp=beat'
p251
asS'dtype'
p252
cnumpy
float64
p253
sS'vocabulary_'
p254
(dp255
g251
I242
sg217
I208
sg185
I176
sg74
I65
sg140
I131
sg134
I125
sg17
I8
sg141
I132
sg19
I10
sg234
I225
sg62
I53
sg98
I89
sg43
I34
sg49
I40
sg33
I24
sg46
I37
sg58
I49
sg150
I141
sg93
I84
sg38
I29
sg40
I31
sg94
I85
sg157
I148
sg105
I96
sg189
I180
sg228
I219
sg247
I238
sg125
I116
sg250
I241
sg13
I4
sg164
I155
sg26
I17
sg174
I165
sg230
I221
sg44
I35
sg200
I191
sg35
I26
sg181
I172
sg34
I25
sg244
I235
sg191
I182
sg152
I143
sg246
I237
sg130
I121
sg66
I57
sg144
I135
sg187
I178
sg216
I207
sg111
I102
sg202
I193
sg39
I30
sg135
I126
sg118
I109
sg237
I228
sg205
I196
sg214
I205
sg208
I199
sg147
I138
sg249
I240
sg9
I0
sg23
I14
sg136
I127
sg145
I136
sg161
I152
sg248
I239
sg218
I209
sg166
I157
sg158
I149
sg91
I82
sg92
I83
sg194
I185
sg197
I188
sg68
I59
sg119
I110
sg96
I87
sg78
I69
sg138
I129
sg114
I105
sg21
I12
sg171
I162
sg155
I146
sg168
I159
sg204
I195
sg186
I177
sg163
I154
sg193
I184
sg100
I91
sg243
I234
sg245
I236
sg156
I147
sg63
I54
sg241
I232
sg109
I100
sg227
I218
sg233
I224
sg10
I1
sg229
I220
sg15
I6
sg195
I186
sg173
I164
sg128
I119
sg56
I47
sg235
I226
sg99
I90
sg29
I20
sg97
I88
sg107
I98
sg206
I197
sg238
I229
sg76
I67
sg50
I41
sg41
I32
sg165
I156
sg180
I171
sg175
I166
sg123
I114
sg51
I42
sg240
I231
sg14
I5
sg127
I118
sg65
I56
sg133
I124
sg120
I111
sg143
I134
sg30
I21
sg176
I167
sg116
I107
sg132
I123
sg124
I115
sg80
I71
sg169
I160
sg220
I211
sg45
I36
sg103
I94
sg54
I45
sg153
I144
sg226
I217
sg201
I192
sg42
I33
sg170
I161
sg84
I75
sg159
I150
sg223
I214
sg160
I151
sg172
I163
sg221
I212
sg239
I230
sg225
I216
sg61
I52
sg24
I15
sg142
I133
sg16
I7
sg69
I60
sg106
I97
sg112
I103
sg95
I86
sg115
I106
sg183
I174
sg25
I16
sg113
I104
sg192
I183
sg18
I9
sg47
I38
sg36
I27
sg198
I189
sg231
I222
sg77
I68
sg236
I227
sg102
I93
sg139
I130
sg27
I18
sg60
I51
sg59
I50
sg89
I80
sg162
I153
sg117
I108
sg104
I95
sg52
I43
sg126
I117
sg22
I13
sg182
I173
sg55
I46
sg72
I63
sg53
I44
sg11
I2
sg184
I175
sg232
I223
sg73
I64
sg211
I202
sg177
I168
sg90
I81
sg219
I210
sg67
I58
sg88
I79
sg48
I39
sg213
I204
sg242
I233
sg82
I73
sg131
I122
sg81
I72
sg137
I128
sg83
I74
sg148
I139
sg70
I61
sg146
I137
sg110
I101
sg121
I112
sg149
I140
sg222
I213
sg224
I215
sg57
I48
sg122
I113
sg75
I66
sg210
I201
sg167
I158
sg32
I23
sg215
I206
sg203
I194
sg71
I62
sg108
I99
sg154
I145
sg151
I142
sg28
I19
sg178
I169
sg179
I170
sg87
I78
sg209
I200
sg129
I120
sg86
I77
sg31
I22
sg101
I92
sg85
I76
sg12
I3
sg190
I181
sg79
I70
sg199
I190
sg188
I179
sg20
I11
sg207
I198
sg37
I28
sg196
I187
sg212
I203
sg64
I55
ssS'separator'
p256
S'='
sS'sparse'
p257
I01
sb.