ccopy_reg
_reconstructor
p1
(csklearn.feature_extraction.dict_vectorizer
DictVectorizer
p2
c__builtin__
object
p3
NtRp4
(dp5
S'sort'
p6
I01
sS'feature_names_'
p7
(lp8
S'advcl=cooperate'
p9
aS'advcl=define'
p10
aS'advcl=estimate'
p11
aS'advcl=seem'
p12
aS'advcl=show'
p13
aS'advmod=again'
p14
aS'advmod=also'
p15
aS'advmod=entirely'
p16
aS'advmod=even'
p17
aS'advmod=fundamentally'
p18
aS'advmod=however'
p19
aS'advmod=long'
p20
aS'advmod=much'
p21
aS'advmod=often'
p22
aS'advmod=only'
p23
aS'advmod=peacefully'
p24
aS'advmod=respectfully'
p25
aS'advmod=sharply'
p26
aS'advmod=so'
p27
aS'advmod=strongly'
p28
aS'advmod=totally'
p29
aS'advmod=violently'
p30
aS'advmod=when'
p31
aS'advmod=where'
p32
aS'advmod=why'
p33
aS'advmod=yet'
p34
aS'aux=can'
p35
aS'aux=do'
p36
aS'aux=have'
p37
aS'aux=may'
p38
aS'aux=might'
p39
aS'aux=to'
p40
aS'aux=would'
p41
aS'cc=and'
p42
aS'cc=but'
p43
aS'cc=or'
p44
aS'ccomp=argue'
p45
aS'ccomp=be'
p46
aS'ccomp=catastrophic'
p47
aS'ccomp=diminish'
p48
aS'ccomp=due'
p49
aS'ccomp=force'
p50
aS'ccomp=gifted'
p51
aS'ccomp=happen'
p52
aS'ccomp=have'
p53
aS'ccomp=inevitable'
p54
aS'ccomp=isolate'
p55
aS'ccomp=put'
p56
aS'ccomp=say'
p57
aS'ccomp=send'
p58
aS'ccomp=tool'
p59
aS'complm=that'
p60
aS'conj=acknowledge'
p61
aS'conj=agree'
p62
aS'conj=back'
p63
aS'conj=be'
p64
aS'conj=go'
p65
aS'conj=propose'
p66
aS'conj=recruit'
p67
aS'conj=say'
p68
aS'conj=vow'
p69
aS'dep=be'
p70
aS'dep=if'
p71
aS'dep=though'
p72
aS'dobj=#PRP#'
p73
aS'dobj=s'
p74
aS'mark=although'
p75
aS'mark=as'
p76
aS'mark=because'
p77
aS'mark=if'
p78
aS'mark=while'
p79
aS'neg=not'
p80
aS'nsubj=#NUMBER#'
p81
aS'nsubj=#PRP#'
p82
aS'nsubj=Agina'
p83
aS'nsubj=Aounit'
p84
aS'nsubj=Asfaw'
p85
aS'nsubj=Atkinson'
p86
aS'nsubj=Atlan'
p87
aS'nsubj=Baker'
p88
aS'nsubj=Bakir'
p89
aS'nsubj=Bassey'
p90
aS'nsubj=Beinert'
p91
aS'nsubj=Benbow'
p92
aS'nsubj=Blair'
p93
aS'nsubj=Boucher'
p94
aS'nsubj=Brown'
p95
aS'nsubj=Bush'
p96
aS'nsubj=Casey'
p97
aS'nsubj=China'
p98
aS'nsubj=Clapp'
p99
aS'nsubj=Court'
p100
aS'nsubj=Democrats'
p101
aS'nsubj=Enrique'
p102
aS'nsubj=Europeans'
p103
aS'nsubj=Fayad'
p104
aS'nsubj=Gabr'
p105
aS'nsubj=Gates'
p106
aS'nsubj=Gingrich'
p107
aS'nsubj=Gonzales'
p108
aS'nsubj=Goodson'
p109
aS'nsubj=Hamas'
p110
aS'nsubj=Italy'
p111
aS'nsubj=Leoneans'
p112
aS'nsubj=McConnell'
p113
aS'nsubj=McNeill'
p114
aS'nsubj=McNerney'
p115
aS'nsubj=Meles'
p116
aS'nsubj=Minister'
p117
aS'nsubj=Moscow'
p118
aS'nsubj=Muslims'
p119
aS'nsubj=Okonjo-Iweala'
p120
aS'nsubj=Ottaway'
p121
aS'nsubj=Peres'
p122
aS'nsubj=Professor'
p123
aS'nsubj=Rao'
p124
aS'nsubj=Republican'
p125
aS'nsubj=Rohrabacher'
p126
aS'nsubj=Salem'
p127
aS'nsubj=Sanchez'
p128
aS'nsubj=Sando'
p129
aS'nsubj=Scalia'
p130
aS'nsubj=Son'
p131
aS'nsubj=Star'
p132
aS'nsubj=States'
p133
aS'nsubj=Talalay'
p134
aS'nsubj=U.N.'
p135
aS'nsubj=U.S.'
p136
aS'nsubj=UNDP'
p137
aS'nsubj=Undis'
p138
aS'nsubj=Venezuelans'
p139
aS'nsubj=White'
p140
aS'nsubj=Whitman'
p141
aS'nsubj=Wise'
p142
aS'nsubj=Woudenberg'
p143
aS'nsubj=activist'
p144
aS'nsubj=analyst'
p145
aS'nsubj=anthropologist'
p146
aS'nsubj=commander'
p147
aS'nsubj=commentator'
p148
aS'nsubj=congresswoman'
p149
aS'nsubj=costa'
p150
aS'nsubj=country'
p151
aS'nsubj=court'
p152
aS'nsubj=director'
p153
aS'nsubj=expert'
p154
aS'nsubj=family'
p155
aS'nsubj=government'
p156
aS'nsubj=group'
p157
aS'nsubj=head'
p158
aS'nsubj=ke-etshabe'
p159
aS'nsubj=leader'
p160
aS'nsubj=leadership'
p161
aS'nsubj=man'
p162
aS'nsubj=many'
p163
aS'nsubj=member'
p164
aS'nsubj=negotiator'
p165
aS'nsubj=official'
p166
aS'nsubj=opponent'
p167
aS'nsubj=other'
p168
aS'nsubj=party'
p169
aS'nsubj=people'
p170
aS'nsubj=percent'
p171
aS'nsubj=rebel'
p172
aS'nsubj=resident'
p173
aS'nsubj=scholar'
p174
aS'nsubj=scientist'
p175
aS'nsubj=shopkeeper'
p176
aS'nsubj=speaker'
p177
aS'nsubj=who'
p178
aS'parataxis=fund'
p179
aS'partmod=watch'
p180
aS'prep=about'
p181
aS'prep=as'
p182
aS'prep=in'
p183
aS'prep=on'
p184
aS'prep=over'
p185
aS'prep=with'
p186
aS'prep=without'
p187
aS'rel=on'
p188
aS'rel=who'
p189
aS"w+1=''"
p190
aS'w+1=,'
p191
aS'w+1=-'
p192
aS'w+1=-lrb-'
p193
aS'w+1=.'
p194
aS'w+1=?'
p195
aS'w+1=about'
p196
aS'w+1=and'
p197
aS'w+1=entirely'
p198
aS'w+1=on'
p199
aS'w+1=over'
p200
aS'w+1=strongly'
p201
aS'w+1=that'
p202
aS'w+1=with'
p203
aS"w+2=''"
p204
aS'w+2=,'
p205
aS'w+2=.'
p206
aS'w+2=COSATU'
p207
aS'w+2=Dowd'
p208
aS'w+2=Giuliani'
p209
aS'w+2=I'
p210
aS'w+2=Kerry'
p211
aS'w+2=McCain'
p212
aS'w+2=Rice'
p213
aS'w+2=U.S.'
p214
aS'w+2=a'
p215
aS'w+2=american'
p216
aS'w+2=and'
p217
aS'w+2=but'
p218
aS'w+2=disarmament'
p219
aS'w+2=each'
p220
aS'w+2=he'
p221
aS'w+2=how'
p222
aS'w+2=include'
p223
aS'w+2=jabatus'
p224
aS'w+2=many'
p225
aS'w+2=one'
p226
aS'w+2=ownership'
p227
aS'w+2=race'
p228
aS'w+2=s'
p229
aS'w+2=say'
p230
aS'w+2=several'
p231
aS'w+2=some'
p232
aS'w+2=specific'
p233
aS'w+2=such'
p234
aS'w+2=that'
p235
aS'w+2=the'
p236
aS'w+2=they'
p237
aS'w+2=this'
p238
aS'w+2=those'
p239
aS'w+2=violent'
p240
aS'w+2=vow'
p241
aS'w+2=what'
p242
aS'w+2=whether'
p243
aS'w+2=with'
p244
aS'w+2=you'
p245
aS"w-1=''"
p246
aS'w-1=,'
p247
aS'w-1=Agina'
p248
aS'w-1=Bakir'
p249
aS'w-1=Bassey'
p250
aS'w-1=Benbow'
p251
aS'w-1=Blair'
p252
aS'w-1=Boucher'
p253
aS'w-1=Brown'
p254
aS'w-1=Bush'
p255
aS'w-1=Casey'
p256
aS'w-1=Congress'
p257
aS'w-1=Council'
p258
aS'w-1=Defense'
p259
aS'w-1=Democrats'
p260
aS'w-1=Fayad'
p261
aS'w-1=Gates'
p262
aS'w-1=Getty'
p263
aS'w-1=Gingrich'
p264
aS'w-1=Gonzales'
p265
aS'w-1=Goodson'
p266
aS'w-1=Hurreh'
p267
aS'w-1=I'
p268
aS'w-1=IMF'
p269
aS'w-1=Justice'
p270
aS'w-1=Kentucky'
p271
aS'w-1=Leoneans'
p272
aS'w-1=Lifesharers'
p273
aS'w-1=McCain'
p274
aS'w-1=McConnell'
p275
aS'w-1=McNeill'
p276
aS'w-1=Meles'
p277
aS'w-1=Muslims'
p278
aS'w-1=Okonjo-Iweala'
p279
aS'w-1=Ottaway'
p280
aS'w-1=Peres'
p281
aS'w-1=Professor'
p282
aS'w-1=Rao'
p283
aS'w-1=Rohrabacher'
p284
aS'w-1=Russia'
p285
aS'w-1=Sanchez'
p286
aS'w-1=Sando'
p287
aS'w-1=Scalia'
p288
aS'w-1=Star'
p289
aS'w-1=Talalay'
p290
aS'w-1=U.N.'
p291
aS'w-1=UNDP'
p292
aS'w-1=Union'
p293
aS'w-1=Venezuelans'
p294
aS'w-1=Whitman'
p295
aS'w-1=Wise'
p296
aS'w-1=activist'
p297
aS'w-1=also'
p298
aS'w-1=analyst'
p299
aS'w-1=and'
p300
aS'w-1=but'
p301
aS'w-1=can'
p302
aS'w-1=commander'
p303
aS'w-1=commentator'
p304
aS'w-1=costa'
p305
aS'w-1=country'
p306
aS'w-1=expert'
p307
aS'w-1=family'
p308
aS'w-1=fundamentally'
p309
aS'w-1=group'
p310
aS'w-1=have'
p311
aS'w-1=he'
p312
aS'w-1=it'
p313
aS'w-1=leader'
p314
aS'w-1=leadership'
p315
aS'w-1=long'
p316
aS'w-1=man'
p317
aS'w-1=may'
p318
aS'w-1=member'
p319
aS'w-1=might'
p320
aS'w-1=much'
p321
aS'w-1=negotiator'
p322
aS'w-1=not'
p323
aS'w-1=office'
p324
aS'w-1=official'
p325
aS'w-1=often'
p326
aS'w-1=one'
p327
aS'w-1=only'
p328
aS'w-1=opponent'
p329
aS'w-1=opposition'
p330
aS'w-1=other'
p331
aS'w-1=party'
p332
aS'w-1=peacefully'
p333
aS'w-1=people'
p334
aS'w-1=rebel'
p335
aS'w-1=region'
p336
aS'w-1=respectfully'
p337
aS'w-1=scholar'
p338
aS'w-1=scientist'
p339
aS'w-1=sharply'
p340
aS'w-1=shopkeeper'
p341
aS'w-1=strongly'
p342
aS'w-1=team'
p343
aS'w-1=they'
p344
aS'w-1=to'
p345
aS'w-1=totally'
p346
aS'w-1=violently'
p347
aS'w-1=we'
p348
aS'w-1=who'
p349
aS"w-2='"
p350
aS"w-2=''"
p351
aS"w-2='s"
p352
aS'w-2=,'
p353
aS'w-2=.'
p354
aS'w-2=ANC'
p355
aS'w-2=Arizona'
p356
aS'w-2=Bryan'
p357
aS'w-2=Chris'
p358
aS'w-2=Daily'
p359
aS'w-2=Dana'
p360
aS'w-2=Democrats'
p361
aS'w-2=European'
p362
aS'w-2=Europeans'
p363
aS'w-2=Forces'
p364
aS'w-2=General'
p365
aS'w-2=Group'
p366
aS'w-2=Hamas'
p367
aS'w-2=India'
p368
aS'w-2=JI'
p369
aS'w-2=Justice'
p370
aS'w-2=Larry'
p371
aS'w-2=Maoists'
p372
aS'w-2=Marange'
p373
aS'w-2=Marina'
p374
aS'w-2=Mitch'
p375
aS'w-2=Mohamud'
p376
aS'w-2=Mr.'
p377
aS'w-2=Naomi'
p378
aS'w-2=Ngozi'
p379
aS'w-2=Nonproliferation'
p380
aS'w-2=President'
p381
aS'w-2=Sagar'
p382
aS'w-2=Salam'
p383
aS'w-2=Salem'
p384
aS'w-2=Secretary'
p385
aS'w-2=Security'
p386
aS'w-2=Shimon'
p387
aS'w-2=Sierra'
p388
aS'w-2=Teferri'
p389
aS'w-2=Though'
p390
aS'w-2=U.S.'
p391
aS'w-2=University'
p392
aS'w-2=Use'
p393
aS'w-2=Vincent'
p394
aS'w-2=Zikalala'
p395
aS'w-2=a'
p396
aS'w-2=al-Youssef'
p397
aS'w-2=and'
p398
aS'w-2=anthropologist'
p399
aS'w-2=army'
p400
aS'w-2=as'
p401
aS'w-2=bar'
p402
aS'w-2=because'
p403
aS'w-2=but'
p404
aS'w-2=candidate'
p405
aS'w-2=cause'
p406
aS'w-2=committee'
p407
aS'w-2=congresswoman'
p408
aS'w-2=conservative'
p409
aS'w-2=country'
p410
aS'w-2=da'
p411
aS'w-2=disagree'
p412
aS'w-2=do'
p413
aS'w-2=environmentalist'
p414
aS'w-2=friend'
p415
aS'w-2=have'
p416
aS'w-2=he'
p417
aS'w-2=however'
p418
aS'w-2=if'
p419
aS'w-2=in'
p420
aS'w-2=intelligence'
p421
aS'w-2=international'
p422
aS'w-2=islamic'
p423
aS'w-2=israeli'
p424
aS'w-2=just'
p425
aS'w-2=leader'
p426
aS'w-2=many'
p427
aS'w-2=military'
p428
aS'w-2=most'
p429
aS'w-2=movement'
p430
aS'w-2=my'
p431
aS'w-2=nigerian'
p432
aS'w-2=no'
p433
aS'w-2=of'
p434
aS'w-2=other'
p435
aS'w-2=party'
p436
aS'w-2=people'
p437
aS'w-2=political'
p438
aS'w-2=poll'
p439
aS'w-2=program'
p440
aS'w-2=prosecution'
p441
aS'w-2=rights'
p442
aS'w-2=say'
p443
aS'w-2=scientist'
p444
aS'w-2=start'
p445
aS'w-2=still'
p446
aS'w-2=tank'
p447
aS'w-2=that'
p448
aS'w-2=the'
p449
aS'w-2=they'
p450
aS'w-2=though'
p451
aS'w-2=to'
p452
aS'w-2=totally'
p453
aS'w-2=two'
p454
aS'w-2=very'
p455
aS'w-2=we'
p456
aS'w-2=when'
p457
aS'w-2=where'
p458
aS'w-2=which'
p459
aS'w-2=why'
p460
aS'w-2=would'
p461
aS'xcomp=say'
p462
asS'dtype'
p463
cnumpy
float64
p464
sS'vocabulary_'
p465
(dp466
g201
I192
sg106
I97
sg87
I78
sg209
I200
sg37
I28
sg456
I447
sg437
I428
sg83
I74
sg218
I209
sg259
I250
sg112
I103
sg385
I376
sg425
I416
sg134
I125
sg287
I278
sg450
I441
sg129
I120
sg207
I198
sg163
I154
sg266
I257
sg172
I163
sg247
I238
sg410
I401
sg202
I193
sg424
I415
sg156
I147
sg361
I352
sg183
I174
sg375
I366
sg148
I139
sg219
I210
sg343
I334
sg285
I276
sg119
I110
sg27
I18
sg254
I245
sg84
I75
sg231
I222
sg370
I361
sg430
I421
sg26
I17
sg98
I89
sg275
I266
sg267
I258
sg150
I141
sg449
I440
sg315
I306
sg282
I273
sg11
I2
sg460
I451
sg160
I151
sg458
I449
sg248
I239
sg29
I20
sg255
I246
sg77
I68
sg39
I30
sg199
I190
sg427
I418
sg399
I390
sg336
I327
sg295
I286
sg307
I298
sg311
I302
sg57
I48
sg373
I364
sg93
I84
sg257
I248
sg102
I93
sg72
I63
sg242
I233
sg379
I370
sg53
I44
sg28
I19
sg346
I337
sg298
I289
sg35
I26
sg60
I51
sg175
I166
sg272
I263
sg365
I356
sg304
I295
sg189
I180
sg394
I385
sg328
I319
sg448
I439
sg109
I100
sg23
I14
sg291
I282
sg212
I203
sg114
I105
sg41
I32
sg426
I417
sg198
I189
sg135
I126
sg34
I25
sg439
I430
sg128
I119
sg69
I60
sg176
I167
sg197
I188
sg344
I335
sg447
I438
sg222
I213
sg308
I299
sg164
I155
sg277
I268
sg313
I304
sg253
I244
sg402
I393
sg157
I148
sg64
I55
sg130
I121
sg108
I99
sg278
I269
sg386
I377
sg78
I69
sg120
I111
sg421
I412
sg32
I23
sg406
I397
sg125
I116
sg269
I260
sg227
I218
sg99
I90
sg105
I96
sg56
I47
sg178
I169
sg305
I296
sg434
I425
sg345
I336
sg411
I402
sg171
I162
sg169
I160
sg73
I64
sg296
I287
sg158
I149
sg115
I106
sg415
I406
sg265
I256
sg174
I165
sg127
I118
sg376
I367
sg19
I10
sg185
I176
sg400
I391
sg111
I102
sg306
I297
sg262
I253
sg428
I419
sg302
I293
sg297
I288
sg243
I234
sg357
I348
sg46
I37
sg249
I240
sg31
I22
sg281
I272
sg442
I433
sg271
I262
sg364
I355
sg462
I453
sg131
I122
sg237
I228
sg96
I87
sg321
I312
sg377
I368
sg223
I214
sg393
I384
sg316
I307
sg67
I58
sg390
I381
sg327
I318
sg261
I252
sg20
I11
sg113
I104
sg289
I280
sg263
I254
sg21
I12
sg141
I132
sg341
I332
sg230
I221
sg58
I49
sg180
I171
sg81
I72
sg244
I235
sg246
I237
sg355
I346
sg397
I388
sg117
I108
sg334
I325
sg429
I420
sg89
I80
sg369
I360
sg292
I283
sg351
I342
sg363
I354
sg126
I117
sg146
I137
sg154
I145
sg51
I42
sg221
I212
sg356
I347
sg167
I158
sg173
I164
sg391
I382
sg187
I178
sg358
I349
sg50
I41
sg38
I29
sg224
I215
sg352
I343
sg414
I405
sg423
I414
sg256
I247
sg116
I107
sg433
I424
sg22
I13
sg251
I242
sg387
I378
sg200
I191
sg461
I452
sg389
I380
sg239
I230
sg238
I229
sg110
I101
sg104
I95
sg459
I450
sg408
I399
sg325
I316
sg412
I403
sg17
I8
sg152
I143
sg280
I271
sg331
I322
sg422
I413
sg18
I9
sg79
I70
sg36
I27
sg330
I321
sg274
I265
sg258
I249
sg225
I216
sg145
I136
sg299
I290
sg133
I124
sg170
I161
sg186
I177
sg44
I35
sg147
I138
sg446
I437
sg451
I442
sg213
I204
sg419
I410
sg368
I359
sg155
I146
sg405
I396
sg420
I411
sg322
I313
sg260
I251
sg309
I300
sg118
I109
sg284
I275
sg10
I1
sg188
I179
sg445
I436
sg204
I195
sg151
I142
sg15
I6
sg290
I281
sg75
I66
sg382
I373
sg440
I431
sg153
I144
sg366
I357
sg33
I24
sg416
I407
sg42
I33
sg294
I285
sg101
I92
sg329
I320
sg301
I292
sg457
I448
sg68
I59
sg232
I223
sg166
I157
sg342
I333
sg418
I409
sg193
I184
sg388
I379
sg82
I73
sg196
I187
sg90
I81
sg139
I130
sg190
I181
sg107
I98
sg62
I53
sg324
I315
sg43
I34
sg70
I61
sg436
I427
sg340
I331
sg97
I88
sg381
I372
sg303
I294
sg71
I62
sg30
I21
sg14
I5
sg431
I422
sg320
I311
sg276
I267
sg63
I54
sg310
I301
sg337
I328
sg383
I374
sg378
I369
sg184
I175
sg162
I153
sg392
I383
sg124
I115
sg177
I168
sg250
I241
sg140
I131
sg95
I86
sg149
I140
sg55
I46
sg85
I76
sg49
I40
sg194
I185
sg123
I114
sg235
I226
sg65
I56
sg367
I358
sg211
I202
sg349
I340
sg74
I65
sg144
I135
sg314
I305
sg220
I211
sg208
I199
sg165
I156
sg47
I38
sg407
I398
sg452
I443
sg217
I208
sg398
I389
sg286
I277
sg273
I264
sg179
I170
sg338
I329
sg92
I83
sg371
I362
sg417
I408
sg444
I435
sg100
I91
sg9
I0
sg203
I194
sg453
I444
sg374
I365
sg443
I434
sg413
I404
sg236
I227
sg136
I127
sg24
I15
sg353
I344
sg354
I345
sg372
I363
sg300
I291
sg159
I150
sg350
I341
sg121
I112
sg404
I395
sg52
I43
sg335
I326
sg103
I94
sg264
I255
sg143
I134
sg283
I274
sg401
I392
sg181
I172
sg226
I217
sg435
I426
sg268
I259
sg245
I236
sg333
I324
sg396
I387
sg234
I225
sg384
I375
sg122
I113
sg94
I85
sg76
I67
sg312
I303
sg12
I3
sg45
I36
sg138
I129
sg332
I323
sg455
I446
sg16
I7
sg240
I231
sg91
I82
sg347
I338
sg279
I270
sg168
I159
sg142
I133
sg339
I330
sg54
I45
sg438
I429
sg233
I224
sg270
I261
sg441
I432
sg380
I371
sg360
I351
sg359
I350
sg86
I77
sg214
I205
sg59
I50
sg137
I128
sg88
I79
sg319
I310
sg25
I16
sg409
I400
sg13
I4
sg348
I339
sg40
I31
sg293
I284
sg61
I52
sg192
I183
sg191
I182
sg182
I173
sg216
I207
sg206
I197
sg205
I196
sg326
I317
sg80
I71
sg195
I186
sg288
I279
sg241
I232
sg161
I152
sg432
I423
sg210
I201
sg395
I386
sg252
I243
sg66
I57
sg228
I219
sg323
I314
sg229
I220
sg318
I309
sg403
I394
sg317
I308
sg454
I445
sg48
I39
sg215
I206
sg362
I353
sg132
I123
ssS'separator'
p467
S'='
sS'sparse'
p468
I01
sb.