ccopy_reg
_reconstructor
p1
(csklearn.feature_extraction.dict_vectorizer
DictVectorizer
p2
c__builtin__
object
p3
NtRp4
(dp5
S'sort'
p6
I01
sS'feature_names_'
p7
(lp8
S'advcl=be'
p9
aS'advcl=something'
p10
aS'advmod=actually'
p11
aS'advmod=always'
p12
aS'advmod=at'
p13
aS'advmod=here'
p14
aS'advmod=somehow'
p15
aS'advmod=why'
p16
aS'aux=be'
p17
aS'aux=can'
p18
aS'aux=must'
p19
aS'aux=to'
p20
aS'aux=would'
p21
aS'ccomp=be'
p22
aS'ccomp=closer'
p23
aS'ccomp=conduct'
p24
aS'ccomp=day'
p25
aS'ccomp=do'
p26
aS'ccomp=endorse'
p27
aS'ccomp=go'
p28
aS'ccomp=tough'
p29
aS'ccomp=transparent'
p30
aS'dep=happen'
p31
aS'dep=stop'
p32
aS'neg=not'
p33
aS'nsubj=#PRP#'
p34
aS'nsubj=Congress'
p35
aS'nsubj=Washington'
p36
aS'nsubj=all'
p37
aS'nsubj=itone'
p38
aS'parataxis=pretend'
p39
aS'prep=by'
p40
aS'prep=to'
p41
aS'rel=who'
p42
aS"w+1=''"
p43
aS'w+1=do'
p44
aS'w+1=he'
p45
aS'w+1=if'
p46
aS'w+1=it'
p47
aS'w+1=somethingamong'
p48
aS'w+1=that'
p49
aS'w+1=the'
p50
aS'w+1=they'
p51
aS'w+1=to'
p52
aS'w+2=be'
p53
aS'w+2=believe'
p54
aS'w+2=disarm'
p55
aS'w+2=he'
p56
aS'w+2=not'
p57
aS'w+2=oppose'
p58
aS'w+2=problem'
p59
aS'w+2=stop'
p60
aS'w+2=the'
p61
aS'w+2=there'
p62
aS'w+2=they'
p63
aS'w+2=to'
p64
aS'w+2=we'
p65
aS'w+2=would'
p66
aS"w-1=''"
p67
aS'w-1=,'
p68
aS'w-1=actually'
p69
aS'w-1=always'
p70
aS'w-1=and'
p71
aS'w-1=as'
p72
aS'w-1=be'
p73
aS'w-1=least'
p74
aS'w-1=they'
p75
aS'w-1=to'
p76
aS'w-1=way'
p77
aS'w-1=we'
p78
aS'w-1=would'
p79
aS'w-2=;'
p80
aS'w-2=Congress'
p81
aS'w-2=and'
p82
aS'w-2=at'
p83
aS'w-2=avoid'
p84
aS'w-2=be'
p85
aS'w-2=can'
p86
aS'w-2=costume'
p87
aS'w-2=eye'
p88
aS'w-2=go'
p89
aS'w-2=have'
p90
aS'w-2=it'
p91
aS'w-2=must'
p92
aS'w-2=not'
p93
aS'w-2=show'
p94
aS'w-2=some'
p95
aS'w-2=somehow'
p96
aS'w-2=they'
p97
aS'w-2=will'
p98
aS'xcomp=believe'
p99
aS'xcomp=disarm'
p100
aS'xcomp=period'
p101
aS'xcomp=somethingamong'
p102
aS'xcomp=witch'
p103
asS'dtype'
p104
cnumpy
float64
p105
sS'vocabulary_'
p106
(dp107
g57
I48
sg27
I18
sg88
I79
sg59
I50
sg84
I75
sg89
I80
sg99
I90
sg30
I21
sg94
I85
sg38
I29
sg103
I94
sg97
I88
sg76
I67
sg32
I23
sg40
I31
sg82
I73
sg68
I59
sg39
I30
sg101
I92
sg11
I2
sg49
I40
sg70
I61
sg29
I20
sg79
I70
sg23
I14
sg10
I1
sg96
I87
sg36
I27
sg31
I22
sg61
I52
sg98
I89
sg69
I60
sg56
I47
sg45
I36
sg73
I64
sg80
I71
sg35
I26
sg93
I84
sg48
I39
sg83
I74
sg22
I13
sg77
I68
sg91
I82
sg64
I55
sg75
I66
sg100
I91
sg54
I45
sg28
I19
sg62
I53
sg25
I16
sg18
I9
sg63
I54
sg13
I4
sg12
I3
sg42
I33
sg16
I7
sg90
I81
sg26
I17
sg95
I86
sg9
I0
sg60
I51
sg50
I41
sg53
I44
sg51
I42
sg15
I6
sg58
I49
sg46
I37
sg21
I12
sg24
I15
sg81
I72
sg47
I38
sg34
I25
sg67
I58
sg43
I34
sg41
I32
sg78
I69
sg20
I11
sg66
I57
sg74
I65
sg87
I78
sg37
I28
sg86
I77
sg52
I43
sg33
I24
sg102
I93
sg19
I10
sg71
I62
sg44
I35
sg14
I5
sg65
I56
sg55
I46
sg85
I76
sg72
I63
sg17
I8
sg92
I83
ssS'separator'
p108
S'='
sS'sparse'
p109
I01
sb.