ccopy_reg
_reconstructor
p1
(csklearn.feature_extraction.dict_vectorizer
DictVectorizer
p2
c__builtin__
object
p3
NtRp4
(dp5
S'vocabulary_'
p6
(dp7
S'advmod=then'
p8
I21
sS'w-1=she'
p9
I264
sS'w-2=work'
p10
I339
sS'w+1=they'
p11
I163
sS'w-2=first'
p12
I297
sS'w+2=sub-saharan'
p13
I221
sS'advmod=incorrectly'
p14
I10
sS'w-2=population'
p15
I321
sS'advmod=where'
p16
I22
sS'w-1=mirror'
p17
I256
sS'advmod=more'
p18
I15
sS'w+1=anti-terrorist'
p19
I145
sS'w+1=among'
p20
I144
sS'w-2=have'
p21
I301
sS'nsubj=resistance'
p22
I93
sS'w-2=mainly'
p23
I310
sS'w-1=lead'
p24
I253
sS'w+1=power'
p25
I157
sS'w+2=halt'
p26
I195
sS'w+2=heat'
p27
I197
sS'csubj=do'
p28
I54
sS'ccomp=belong'
p29
I37
sS'w-1=minority'
p30
I255
sS'dobj=sugar'
p31
I67
sS'w-1=initially'
p32
I249
sS'w+2=during'
p33
I188
sS'w-2=more'
p34
I314
sS'dobj=heat'
p35
I62
sS'w-2=sleep'
p36
I327
sS'ccomp=need'
p37
I39
sS'w-1=be'
p38
I238
sS'w-2=to'
p39
I333
sS'parataxis=get'
p40
I120
sS'w-2=instead'
p41
I305
sS'w-1=should'
p42
I265
sS'w+2=sun'
p43
I222
sS'w+2=Somalia'
p44
I176
sS'w-1=trouble'
p45
I270
sS'nsubjpass=holding'
p46
I103
sS'w-1=or'
p47
I262
sS'dobj=power'
p48
I65
sS'w-1=mainly'
p49
I254
sS'prep=along'
p50
I123
sS'w-2=almost'
p51
I284
sS'appos=operation'
p52
I24
sS'w+2=ensure'
p53
I192
sS'nsubj=Biden'
p54
I77
sS'w-1=he'
p55
I245
sS'partmod=heat'
p56
I121
sS'w-2=its'
p57
I308
sS'w-2=need'
p58
I317
sS'advcl=say'
p59
I2
sS'nsubjpass=population'
p60
I111
sS'w+2=eastern'
p61
I189
sS'w-2=they'
p62
I331
sS'prep=than'
p63
I134
sS'w-1=to'
p64
I269
sS'w-2=Iraq'
p65
I279
sS'dobj=ownership'
p66
I64
sS'prep=by'
p67
I127
sS'w+2=and'
p68
I179
sS'nsubj=exam'
p69
I84
sS'w-2=and'
p70
I285
sS'advmod=instead'
p71
I12
sS'nsubj=governor'
p72
I85
sS'nsubj=President'
p73
I80
sS'w+1=that'
p74
I161
sS'w-2=state'
p75
I328
sS'w-2=minority'
p76
I312
sS'advmod=actually'
p77
I5
sS'prep=across'
p78
I122
sS'prep=near'
p79
I131
sS'nsubjpass=list'
p80
I104
sS'w-2=crime'
p81
I290
sS'nsubjpass=much'
p82
I108
sS'w+2=$'
p83
I164
sS'w-2=must'
p84
I316
sS'mark=while'
p85
I72
sS'w-1=they'
p86
I268
sS'w+2=upcome'
p87
I228
sS'nsubj=minister'
p88
I89
sS'aux=do'
p89
I27
sS'nsubj=heat'
p90
I86
sS'w-1=actually'
p91
I234
sS'w+2=rural'
p92
I217
sS'nsubj=Bertone'
p93
I76
sS'w+1=more'
p94
I153
sS'w-2=minister'
p95
I311
sS'aux=will'
p96
I32
sS'w+2=human'
p97
I199
sS'nsubj=soldier'
p98
I95
sS'w-2=let'
p99
I309
sS'advmod=now'
p100
I18
sS'advmod=so'
p101
I20
sS'advmod=really'
p102
I19
sS'w+2=malnutrition'
p103
I207
sS'nsubjpass=money'
p104
I106
sS'advmod=just'
p105
I13
sS'w+2=city'
p106
I183
sS'w+2=effort'
p107
I190
sS'nsubjpass=power'
p108
I112
sS'nsubj=U.S.'
p109
I81
sS'prep=as'
p110
I125
sS'w-1=will'
p111
I272
sS'advmod=all'
p112
I6
sS'w-2=,'
p113
I276
sS'w-2=case'
p114
I288
sS'nsubj=people'
p115
I92
sS'prep=with'
p116
I136
sS'nsubjpass=patrol'
p117
I110
sS'dobj=effort'
p118
I60
sS'w-2=people'
p119
I320
sS'w-2=response'
p120
I325
sS'w+2=make'
p121
I206
sS'dobj=number'
p122
I63
sS'aux=have'
p123
I28
sS'nsubj=work'
p124
I96
sS'w-1=by'
p125
I240
sS'nsubj=minority'
p126
I90
sS'nsubjpass=wealth'
p127
I119
sS'w+2=22'
p128
I168
sS'w+2=school'
p129
I218
sS'w-2=I'
p130
I278
sS'w-2=governor'
p131
I300
sS'prep=among'
p132
I124
sS'w-2=undemocratic'
p133
I335
sS'w-1=,'
p134
I231
sS'w-2=fine'
p135
I296
sS'w-2=now'
p136
I318
sS'w-1=can'
p137
I241
sS'nsubjpass=trade'
p138
I118
sS'nsubj=mirror'
p139
I91
sS'conj=fail'
p140
I43
sS'w-2=power'
p141
I322
sS'w-2=it'
p142
I307
sS'w-2=able'
p143
I282
sS'w-2=issue'
p144
I306
sS'w+2=Texas'
p145
I177
sS'w+2=build'
p146
I182
sS'advmod=mostly'
p147
I16
sS'dobj=attention'
p148
I58
sS'nsubjpass=minority'
p149
I105
sS'w+2=blood'
p150
I181
sS'auxpass=be'
p151
I33
sS'w-2=resource'
p152
I324
sS'w+1=just'
p153
I152
sS'w+2=one'
p154
I211
sS'w+2=Baghdad'
p155
I169
sS'w+2=prevention'
p156
I212
sS'mark=because'
p157
I69
sS'nsubjpass=support'
p158
I116
sS'w-1=Biden'
p159
I232
sS'aux=should'
p160
I30
sS'conj=sterilize'
p161
I51
sS'w-2=health'
p162
I303
sS'w-2=will'
p163
I337
sS'w-2=wonder'
p164
I338
sS'nsubjpass=half'
p165
I102
sS'w+1=on'
p166
I154
sS'conj=restrict'
p167
I49
sS'nsubjpass=species'
p168
I115
sS'nsubjpass=benefit'
p169
I99
sS'w-2=support'
p170
I329
sS'nsubj=Organization'
p171
I79
sS'w+2=lifestyle'
p172
I204
sS'nsubj=search'
p173
I94
sS'w+1=or'
p174
I155
sS'w-2=tend'
p175
I330
sS'advcl=get'
p176
I1
sS'dobj=resource'
p177
I66
sS'w+2=northern'
p178
I208
sS'w+2=help'
p179
I198
sS'ccomp=say'
p180
I40
sS'w-2=much'
p181
I315
sS'w+1=at'
p182
I146
sS'advmod=about'
p183
I4
sS'advmod=normally'
p184
I17
sS'w+2=go'
p185
I194
sS'nsubj=city'
p186
I82
sS"w+2=''"
p187
I165
sS'w+2=in'
p188
I201
sS'conj=typical'
p189
I53
sS'w+2=Queens'
p190
I175
sS'w+2=what'
p191
I229
sS'w-2=U.S.'
p192
I281
sS'w-2=those'
p193
I332
sS'advmod=also'
p194
I7
sS'w+2=dose'
p195
I187
sS'nsubjpass=case'
p196
I100
sS'advmod=initially'
p197
I11
sS'w+2=recent'
p198
I215
sS'w-1=incorrectly'
p199
I248
sS'advmod=entirely'
p200
I8
sS'aux=can'
p201
I26
sS'complm=that'
p202
I41
sS'dobj=dose'
p203
I59
sS'w-1=really'
p204
I263
sS'w+2=they'
p205
I225
sS'w-1=entirely'
p206
I244
sS'w-1=kidnapper'
p207
I252
sS'w+2=defend'
p208
I185
sS'w+2=why'
p209
I230
sS'w-2=community'
p210
I289
sS'w-2=we'
p211
I336
sS'w-1=work'
p212
I273
sS'w-2=curved'
p213
I291
sS'dep=more'
p214
I55
sS'advcl=someone'
p215
I3
sS'w-2=he'
p216
I302
sS'amod=lead'
p217
I23
sS'dep=order'
p218
I56
sS'cc=and'
p219
I34
sS'w-1=case'
p220
I242
sS'w-2=fighting'
p221
I295
sS'prep=under'
p222
I135
sS'w-1=now'
p223
I259
sS'w-1=we'
p224
I271
sS'w+1=the'
p225
I162
sS'w+2=international'
p226
I203
sS'w-2=search'
p227
I326
sS'w-2=be'
p228
I287
sS'w-1=just'
p229
I251
sS'w-1=of'
p230
I260
sS'w+2=develop'
p231
I186
sS'nsubjpass=generation'
p232
I101
sS'aux=to'
p233
I31
sS'nsubj=Cross'
p234
I78
sS'w+1=sugar'
p235
I160
sS'w-2=mirror'
p236
I313
sS'w-2=religious'
p237
I323
sS'advcl=care'
p238
I0
sS'w+2=rich'
p239
I216
sS'nsubj=effort'
p240
I83
sS'w+2=Naivasha'
p241
I173
sS'w+2=sustain'
p242
I223
sS'w+2=sector'
p243
I219
sS'nsubjpass=#PRP#'
p244
I97
sS'w-1=mostly'
p245
I257
sS'nsubjpass=term'
p246
I117
sS'w-1=difficulty'
p247
I243
sS'prep=in'
p248
I129
sS'w-1=also'
p249
I236
sS'w-1=then'
p250
I267
sS'w+1=its'
p251
I151
sS'w+1=for'
p252
I147
sS'w+1=in'
p253
I148
sS'w-1=about'
p254
I233
sS'nsubjpass=activity'
p255
I98
sS'w-1=all'
p256
I235
sS'w+1=it'
p257
I150
sS'dobj=that'
p258
I68
sS'w+2=Nyanza'
p259
I174
sS'nsubj=#PRP#'
p260
I75
sS'w+1=about'
p261
I142
sS'w-2=holding'
p262
I304
sS'w-2=get'
p263
I299
sS'w+2=committee'
p264
I184
sS'w-1=and'
p265
I237
sS'w-2=activity'
p266
I283
sS'dobj=agent'
p267
I57
sS'conj=hit'
p268
I46
sS'w-2=exam'
p269
I294
sS'w+2=feel'
p270
I193
sS'w+1=into'
p271
I149
sS'w+2=Central'
p272
I170
sS'w+2=improve'
p273
I200
sS'w+2=Hungary'
p274
I171
sS'cc=but'
p275
I35
sS'w+2=several'
p276
I220
sS'conj=sustain'
p277
I52
sS'w+2=linger'
p278
I205
sS'w+2=the'
p279
I224
sS'nsubj=kidnapper'
p280
I87
sS'conj=split'
p281
I50
sS'conj=make'
p282
I48
sS'prep=at'
p283
I126
sS'xcomp=improve'
p284
I340
sS'nsubjpass=resource'
p285
I114
sS'ccomp=consider'
p286
I38
sS'w+2=energy'
p287
I191
sS'w+2=Mr.'
p288
I172
sS'nsubjpass=problem'
p289
I113
sS'w-2=force'
p290
I298
sS'nsubjpass=most'
p291
I107
sS"w-2=''"
p292
I274
sS'w-2=President'
p293
I280
sS'w+1=,'
p294
I137
sS'w+1=ownership'
p295
I156
sS'w+1=.'
p296
I138
sS'w+2=of'
p297
I209
sS'w-1=immigrant'
p298
I247
sS'w-2=direct'
p299
I292
sS'prep=for'
p300
I128
sS'w+2=.'
p301
I167
sS'w+2=,'
p302
I166
sS'w-1=often'
p303
I261
sS'w+2=on'
p304
I210
sS'w+1=along'
p305
I143
sS'neg=not'
p306
I74
sS'w+1=?'
p307
I139
sS'w-2=order'
p308
I319
sS'w-1=it'
p309
I250
sS'aux=must'
p310
I29
sS'conj=get'
p311
I44
sS'w+2=he'
p312
I196
sS'w+1=really'
p313
I158
sS'w-2=animal'
p314
I286
sS'advmod=here'
p315
I9
sS'w-2=unable'
p316
I334
sS'prep=into'
p317
I130
sS'w+2=this'
p318
I226
sS'conj=have'
p319
I45
sS'w-2=Beijing'
p320
I277
sS'dobj=energy'
p321
I61
sS'w-1=better'
p322
I239
sS'w+2=train'
p323
I227
sS'mark=with'
p324
I73
sS'cc=or'
p325
I36
sS'w+1=a'
p326
I141
sS'nsubjpass=outbreak'
p327
I109
sS'w-1=not'
p328
I258
sS'advmod=mainly'
p329
I14
sS'prep=of'
p330
I132
sS'conj=be'
p331
I42
sS'w-1=heat'
p332
I246
sS'w+1=U.S.'
p333
I140
sS'conj=look'
p334
I47
sS'prep=on'
p335
I133
sS'w-1=that'
p336
I266
sS'aux=be'
p337
I25
sS'w+2=provide'
p338
I213
sS'w+1=resource'
p339
I159
sS'mark=if'
p340
I70
sS'w+2=increase'
p341
I202
sS'w+2=rebuilding'
p342
I214
sS'w+2=be'
p343
I180
sS'w+2=a'
p344
I178
sS'nsubj=majority'
p345
I88
sS'w-2=do'
p346
I293
sS'mark=in'
p347
I71
sS"w-2='s"
p348
I275
ssS'dtype'
p349
cnumpy
float64
p350
sS'feature_names_'
p351
(lp352
g238
ag176
ag59
ag215
ag183
ag77
ag112
ag194
ag200
ag315
ag14
ag197
ag71
ag105
ag329
ag18
ag147
ag184
ag100
ag102
ag101
ag8
ag16
ag217
ag52
ag337
ag201
ag89
ag123
ag310
ag160
ag233
ag96
ag151
ag219
ag275
ag325
ag29
ag286
ag37
ag180
ag202
ag331
ag140
ag311
ag319
ag268
ag334
ag282
ag167
ag281
ag161
ag277
ag189
ag28
ag214
ag218
ag267
ag148
ag203
ag118
ag321
ag35
ag122
ag66
ag48
ag177
ag31
ag258
ag157
ag340
ag347
ag85
ag324
ag306
ag260
ag93
ag54
ag234
ag171
ag73
ag109
ag186
ag240
ag69
ag72
ag90
ag280
ag345
ag88
ag126
ag139
ag115
ag22
ag173
ag98
ag124
ag244
ag255
ag169
ag196
ag232
ag165
ag46
ag80
ag149
ag104
ag291
ag82
ag327
ag117
ag60
ag108
ag289
ag285
ag168
ag158
ag246
ag138
ag127
ag40
ag56
ag78
ag50
ag132
ag110
ag283
ag67
ag300
ag248
ag317
ag79
ag330
ag335
ag63
ag222
ag116
ag294
ag296
ag307
ag333
ag326
ag261
ag305
ag20
ag19
ag182
ag252
ag253
ag271
ag257
ag251
ag153
ag94
ag166
ag174
ag295
ag25
ag313
ag339
ag235
ag74
ag225
ag11
ag83
ag187
ag302
ag301
ag128
ag155
ag272
ag274
ag288
ag241
ag259
ag190
ag44
ag145
ag344
ag68
ag343
ag150
ag146
ag106
ag264
ag208
ag231
ag195
ag33
ag61
ag107
ag287
ag53
ag270
ag185
ag26
ag312
ag27
ag179
ag97
ag273
ag188
ag341
ag226
ag172
ag278
ag121
ag103
ag178
ag297
ag304
ag154
ag156
ag338
ag342
ag198
ag239
ag92
ag129
ag243
ag276
ag13
ag43
ag242
ag279
ag205
ag318
ag323
ag87
ag191
ag209
ag134
ag159
ag254
ag91
ag256
ag249
ag265
ag38
ag322
ag125
ag137
ag220
ag247
ag206
ag55
ag332
ag298
ag199
ag32
ag309
ag229
ag207
ag24
ag49
ag30
ag17
ag245
ag328
ag223
ag230
ag303
ag47
ag204
ag9
ag42
ag336
ag250
ag86
ag64
ag45
ag224
ag111
ag212
ag292
ag348
ag113
ag320
ag130
ag65
ag293
ag192
ag143
ag266
ag51
ag70
ag314
ag228
ag114
ag210
ag81
ag213
ag299
ag346
ag269
ag221
ag135
ag12
ag290
ag263
ag131
ag21
ag216
ag162
ag262
ag41
ag144
ag142
ag57
ag99
ag23
ag95
ag76
ag236
ag34
ag181
ag84
ag58
ag136
ag308
ag119
ag15
ag141
ag237
ag152
ag120
ag227
ag36
ag75
ag170
ag175
ag62
ag193
ag39
ag316
ag133
ag211
ag163
ag164
ag10
ag284
asS'separator'
p353
S'='
sS'sparse'
p354
I01
sb.