ccopy_reg
_reconstructor
p1
(csklearn.feature_extraction.dict_vectorizer
DictVectorizer
p2
c__builtin__
object
p3
NtRp4
(dp5
S'vocabulary_'
p6
(dp7
S'dobj=credibility'
p8
I40
sS'w-1=further'
p9
I206
sS'nsubj=reserve'
p10
I82
sS'advmod=significantly'
p11
I9
sS'ccomp=deny'
p12
I20
sS'nsubjpass=freedom'
p13
I91
sS'w-2=example'
p14
I240
sS'w-1=have'
p15
I207
sS'dep=have'
p16
I32
sS'w-2=they'
p17
I263
sS'prep=than'
p18
I105
sS'w+1=congressional'
p19
I119
sS'w+2=of'
p20
I182
sS'dep=say'
p21
I33
sS'w-2=failure'
p22
I242
sS'nsubj=mono-cropping'
p23
I79
sS'w+1=growth'
p24
I124
sS'w+1=without'
p25
I150
sS'w+2=authority'
p26
I159
sS'w+2=between'
p27
I161
sS'nsubj=support'
p28
I86
sS'dobj=confidence'
p29
I39
sS'prep=by'
p30
I98
sS'dobj=cohesion'
p31
I38
sS'w+1=over'
p32
I133
sS'w-2=reserve'
p33
I257
sS'w+2=corruption'
p34
I167
sS'dobj=growth'
p35
I43
sS'nsubjpass=structure'
p36
I92
sS'dobj=power'
p37
I51
sS'w-1=already'
p38
I200
sS'nsubj=resignation'
p39
I83
sS'w-1=support'
p40
I216
sS'w-2=of'
p41
I251
sS'ccomp=achieve'
p42
I19
sS'w-1=of'
p43
I210
sS'ccomp=misuse'
p44
I22
sS'nsubj=failure'
p45
I75
sS'w-1=to'
p46
I218
sS'w-2=Iraq'
p47
I223
sS'nsubjpass=use'
p48
I94
sS'w+2=and'
p49
I158
sS'nsubj=many'
p50
I78
sS'w-2=and'
p51
I226
sS'w+2=credibility'
p52
I168
sS'w+2=legitimacy'
p53
I177
sS'nsubj=centralization'
p54
I67
sS'w-2=risk'
p55
I258
sS'w+1=13'
p56
I112
sS'w+2=liberty'
p57
I178
sS'prep=in'
p58
I101
sS'w-2=deficiency'
p59
I237
sS'w-1=would'
p60
I221
sS'mark=while'
p61
I64
sS'w-2=threaten'
p62
I264
sS'dobj=legitimacy'
p63
I46
sS'aux=would'
p64
I15
sS'nsubj=deficiency'
p65
I70
sS'w-2=investigation'
p66
I247
sS'nsubjpass=wages'
p67
I95
sS'aux=will'
p68
I14
sS'w-2=Laws'
p69
I224
sS'nsubj=that'
p70
I87
sS'w+1=habitat'
p71
I125
sS'advmod=already'
p72
I0
sS'w+2=rights'
p73
I190
sS'w-1=serious'
p74
I213
sS'advmod=however'
p75
I3
sS'w-1=and'
p76
I202
sS'prep=over'
p77
I104
sS'w+1=in'
p78
I128
sS'dobj=advantage'
p79
I35
sS'dobj=accountability'
p80
I34
sS'w+2=Republican'
p81
I153
sS'w-2=,'
p82
I222
sS'prep=with'
p83
I107
sS'nsubj=effect'
p84
I73
sS'cc=or'
p85
I18
sS'w+1=he'
p86
I126
sS'dobj=other'
p87
I50
sS'advmod=sharply'
p88
I8
sS'nsubj=scandal'
p89
I85
sS'aux=have'
p90
I12
sS'w+2=farmland'
p91
I170
sS'w-2=way'
p92
I267
sS'w-2=government'
p93
I244
sS'w-1=be'
p94
I203
sS'dep=delay'
p95
I31
sS'w-2=plan'
p96
I253
sS'w-1=,'
p97
I196
sS'w-2=to'
p98
I265
sS'w-2=the'
p99
I262
sS'w-2=official'
p100
I252
sS'w-2=congressional'
p101
I234
sS'w+1=she'
p102
I140
sS'w-2=in'
p103
I246
sS'nsubj=image'
p104
I76
sS'w-1=rapidly'
p105
I212
sS'w+2=road'
p106
I191
sS'w-2=it'
p107
I248
sS'w-1=also'
p108
I201
sS'w-2=continue'
p109
I235
sS'ccomp=will'
p110
I23
sS'w-2=face'
p111
I241
sS'w+2=dollar'
p112
I169
sS'w+1=security'
p113
I139
sS'mark=because'
p114
I62
sS'w+1=hill'
p115
I127
sS'dobj=rights'
p116
I54
sS'nsubj=command'
p117
I68
sS'w+1=America'
p118
I113
sS'nsubj=result'
p119
I84
sS'dobj=health'
p120
I45
sS'w+1=public'
p121
I136
sS'w+2=gain'
p122
I173
sS'w+1=even'
p123
I121
sS'prep=for'
p124
I99
sS'dobj=authority'
p125
I36
sS'w-1=a'
p126
I198
sS'nsubj=drawdown'
p127
I72
sS'w+1=we'
p128
I148
sS'nsubj=privacy'
p129
I80
sS'w-1=either'
p130
I205
sS'w+1=support'
p131
I144
sS'w-2=privacy'
p132
I254
sS'w-2=force'
p133
I243
sS'w+1=civil'
p134
I118
sS'w+2=in'
p135
I176
sS'mark=as'
p136
I61
sS'ccomp=go'
p137
I21
sS'w-1=this'
p138
I217
sS'conj=disappear'
p139
I29
sS'w-2=landscape'
p140
I249
sS'w-2=problem'
p141
I255
sS'advmod=also'
p142
I1
sS'w+1=palestinian'
p143
I134
sS'w+2=mistrust'
p144
I180
sS'nsubjpass=trust'
p145
I93
sS'w+1=relation'
p146
I138
sS'w-2=be'
p147
I227
sS'w+1=mutual'
p148
I131
sS'w-1=could'
p149
I204
sS'advmod=serious'
p150
I6
sS'auxpass=be'
p151
I16
sS'complm=that'
p152
I24
sS'w+1=what'
p153
I149
sS'nsubj=public'
p154
I81
sS'w+2=own'
p155
I184
sS'complm=whether'
p156
I25
sS'w+2=vermonter'
p157
I194
sS'w-2=concern'
p158
I233
sS'prep=after'
p159
I96
sS'w-2=command'
p160
I232
sS'dobj=habitat'
p161
I44
sS'dobj=mistrust'
p162
I49
sS'w-2=have'
p163
I245
sS'cc=and'
p164
I17
sS'w-2=effort'
p165
I239
sS'w-1=only'
p166
I211
sS'w+2=husband'
p167
I175
sS'w+1=environment'
p168
I120
sS'w+1=the'
p169
I145
sS'w+2=purchase'
p170
I187
sS'w+1=by'
p171
I117
sS'dobj=year'
p172
I60
sS'w+2=cohesion'
p173
I164
sS'advmod=only'
p174
I4
sS'dobj=market'
p175
I48
sS"w+2='s"
p176
I151
sS'w+1=those'
p177
I146
sS'w+2=progress'
p178
I186
sS'prep=if'
p179
I100
sS'w+1=amid'
p180
I116
sS'w+1=trust'
p181
I147
sS'w-2=war'
p182
I266
sS'w+2=government'
p183
I174
sS'nsubj=level'
p184
I77
sS'w+1=five'
p185
I122
sS'conj=be'
p186
I26
sS'w+1=its'
p187
I129
sS'tmod=year'
p188
I109
sS'w-1=about'
p189
I199
sS'w+2=support'
p190
I192
sS'w+2=party'
p191
I185
sS'w-2=bloodsh'
p192
I228
sS'dobj=that'
p193
I57
sS'nsubj=#PRP#'
p194
I65
sS'nsubj=disapproval'
p195
I71
sS'w+2=further'
p196
I172
sS'w+1=sunni'
p197
I143
sS'w+1=U.S.'
p198
I114
sS'w+2=modest'
p199
I181
sS'w-2=year'
p200
I269
sS'prep=amid'
p201
I97
sS'dobj=gain'
p202
I42
sS'w-2=U.N.'
p203
I225
sS'w+2=confidence'
p204
I166
sS'w+1=freedom'
p205
I123
sS'prep=to'
p206
I106
sS'w-1=we'
p207
I219
sS'aux=to'
p208
I13
sS'w+1=significantly'
p209
I141
sS'w-2=litter'
p210
I250
sS'w-1=inequality'
p211
I209
sS'dobj=victory'
p212
I59
sS'w-2=public'
p213
I256
sS'w+2=year'
p214
I195
sS'w+1=social'
p215
I142
sS'advmod=severely'
p216
I7
sS'w-2=support'
p217
I260
sS'conj=make'
p218
I30
sS'dobj=support'
p219
I56
sS'w-2=casualty'
p220
I229
sS'dobj=farmland'
p221
I41
sS'w-2=will'
p222
I268
sS'w+1=railroad'
p223
I137
sS'aux=could'
p224
I11
sS'w+2=already'
p225
I157
sS'dobj=liberty'
p226
I47
sS'w-2=could'
p227
I236
sS'w+1=key'
p228
I130
sS'nsubj=this'
p229
I88
sS'w+1=.'
p230
I111
sS'dobj=trust'
p231
I58
sS'w+2=market'
p232
I179
sS'w-2=clearly'
p233
I230
sS'w-1=will'
p234
I220
sS'w+2=,'
p235
I152
sS'w+2=on'
p236
I183
sS'w+2=for'
p237
I171
sS'nsubj=year'
p238
I90
sS'nsubj=expert'
p239
I74
sS'mark=before'
p240
I63
sS'w+1=or'
p241
I132
sS'conj=blow'
p242
I27
sS'w+1=protection'
p243
I135
sS'dobj=resource'
p244
I53
sS'advmod=further'
p245
I2
sS'w+2=revelation'
p246
I189
sS'w+1=,'
p247
I110
sS'w+2=blow'
p248
I163
sS'advmod=rapidly'
p249
I5
sS'prep=into'
p250
I102
sS'w+2=collapse'
p251
I165
sS'w-2=scandal'
p252
I259
sS'w+2=resource'
p253
I188
sS'w+2=Zimbabwe'
p254
I155
sS'w-1=severely'
p255
I214
sS'w-1=in'
p256
I208
sS'conj=collapse'
p257
I28
sS'w+1=a'
p258
I115
sS'w-2=coalition'
p259
I231
sS'nsubj=treatment'
p260
I89
sS'nsubj=confidence'
p261
I69
sS'w+2=the'
p262
I193
sS'w+2=bit'
p263
I162
sS'prep=without'
p264
I108
sS'nsubj=casualty'
p265
I66
sS'w-2=system'
p266
I261
sS'prep=on'
p267
I103
sS'dobj=bit'
p268
I37
sS'w-1=sharply'
p269
I215
sS'aux=be'
p270
I10
sS'w-2=democracy'
p271
I238
sS'w+2=State'
p272
I154
sS'dobj=production'
p273
I52
sS'w+2=a'
p274
I156
sS'w+2=bay'
p275
I160
sS'dobj=role'
p276
I55
sS'w-1=Vietnam'
p277
I197
ssS'dtype'
p278
cnumpy
float64
p279
sS'feature_names_'
p280
(lp281
g72
ag142
ag245
ag75
ag174
ag249
ag150
ag216
ag88
ag11
ag270
ag224
ag90
ag208
ag68
ag64
ag151
ag164
ag85
ag42
ag12
ag137
ag44
ag110
ag152
ag156
ag186
ag242
ag257
ag139
ag218
ag95
ag16
ag21
ag80
ag79
ag125
ag268
ag31
ag29
ag8
ag221
ag202
ag35
ag161
ag120
ag63
ag226
ag175
ag162
ag87
ag37
ag273
ag244
ag116
ag276
ag219
ag193
ag231
ag212
ag172
ag136
ag114
ag240
ag61
ag194
ag265
ag54
ag117
ag261
ag65
ag195
ag127
ag84
ag239
ag45
ag104
ag184
ag50
ag23
ag129
ag154
ag10
ag39
ag119
ag89
ag28
ag70
ag229
ag260
ag238
ag13
ag36
ag145
ag48
ag67
ag159
ag201
ag30
ag124
ag179
ag58
ag250
ag267
ag77
ag18
ag206
ag83
ag264
ag188
ag247
ag230
ag56
ag118
ag198
ag258
ag180
ag171
ag134
ag19
ag168
ag123
ag185
ag205
ag24
ag71
ag86
ag115
ag78
ag187
ag228
ag148
ag241
ag32
ag143
ag243
ag121
ag223
ag146
ag113
ag102
ag209
ag215
ag197
ag131
ag169
ag177
ag181
ag128
ag153
ag25
ag176
ag235
ag81
ag272
ag254
ag274
ag225
ag49
ag26
ag275
ag27
ag263
ag248
ag173
ag251
ag204
ag34
ag52
ag112
ag91
ag237
ag196
ag122
ag183
ag167
ag135
ag53
ag57
ag232
ag144
ag199
ag20
ag236
ag155
ag191
ag178
ag170
ag253
ag246
ag73
ag106
ag190
ag262
ag157
ag214
ag97
ag277
ag126
ag189
ag38
ag108
ag76
ag94
ag149
ag130
ag9
ag15
ag256
ag211
ag43
ag166
ag105
ag74
ag255
ag269
ag40
ag138
ag46
ag207
ag234
ag60
ag82
ag47
ag69
ag203
ag51
ag147
ag192
ag220
ag233
ag259
ag160
ag158
ag101
ag109
ag227
ag59
ag271
ag165
ag14
ag111
ag22
ag133
ag93
ag163
ag103
ag66
ag107
ag140
ag210
ag41
ag100
ag96
ag132
ag141
ag213
ag33
ag55
ag252
ag217
ag266
ag99
ag17
ag62
ag98
ag182
ag92
ag222
ag200
asS'separator'
p282
S'='
sS'sparse'
p283
I01
sb.