ccopy_reg
_reconstructor
p1
(csklearn.feature_extraction.dict_vectorizer
DictVectorizer
p2
c__builtin__
object
p3
NtRp4
(dp5
S'vocabulary_'
p6
(dp7
S'w+2=regime'
p8
I14
sS'w-2=degree'
p9
I21
sS'w-2=monitor'
p10
I22
sS'w+2=the'
p11
I15
sS'auxpass=be'
p12
I2
sS'w+2=they'
p13
I16
sS'w+1=.'
p14
I9
sS'w-1=be'
p15
I18
sS'w-2=can'
p16
I20
sS'w-2=who'
p17
I24
sS'nsubj=monitor'
p18
I4
sS'w-1=,'
p19
I17
sS'nsubj=that'
p20
I5
sS'w-2=that'
p21
I23
sS'w+1=the'
p22
I12
sS'w+2=motorist'
p23
I13
sS'w+1=by'
p24
I10
sS'dobj=regime'
p25
I3
sS'w-1=might'
p26
I19
sS'aux=might'
p27
I1
sS'prep=by'
p28
I7
sS'nsubjpass=who'
p29
I6
sS'w+1=for'
p30
I11
sS'aux=be'
p31
I0
sS'prep=for'
p32
I8
ssS'dtype'
p33
cnumpy
float64
p34
sS'feature_names_'
p35
(lp36
g31
ag27
ag12
ag25
ag18
ag20
ag29
ag28
ag32
ag14
ag24
ag30
ag22
ag23
ag8
ag11
ag13
ag19
ag15
ag26
ag16
ag9
ag10
ag21
ag17
asS'separator'
p37
S'='
sS'sparse'
p38
I01
sb.