ccopy_reg
_reconstructor
p1
(csklearn.feature_extraction.dict_vectorizer
DictVectorizer
p2
c__builtin__
object
p3
NtRp4
(dp5
S'vocabulary_'
p6
(dp7
S'cc=and'
p8
I2
sS'conj=engage'
p9
I3
sS'w-2=allow'
p10
I7
sS'advmod=there'
p11
I0
sS'aux=to'
p12
I1
sS'w+1=there'
p13
I4
sS'w-1=to'
p14
I6
sS'w+2=and'
p15
I5
ssS'dtype'
p16
cnumpy
float64
p17
sS'feature_names_'
p18
(lp19
g11
ag12
ag8
ag9
ag13
ag15
ag14
ag10
asS'separator'
p20
S'='
sS'sparse'
p21
I01
sb.