ccopy_reg
_reconstructor
p1
(csklearn.feature_extraction.dict_vectorizer
DictVectorizer
p2
c__builtin__
object
p3
NtRp4
(dp5
S'vocabulary_'
p6
(dp7
S'w+1=Guinea'
p8
I709
sS'w+1=endanger'
p9
I775
sS'w+2=health'
p10
I1098
sS'dep=lift'
p11
I206
sS'w+2=but'
p12
I999
sS'w+2=civilian'
p13
I1007
sS'dobj=action'
p14
I260
sS'w-2=offer'
p15
I1683
sS'w-2=levee'
p16
I1639
sS'w+2=international'
p17
I1122
sS'w-2=new'
p18
I1674
sS'w-2=net'
p19
I1673
sS'w-2=police'
p20
I1707
sS'w+1=campsite'
p21
I755
sS'w+2=camp'
p22
I1001
sS'w-2=need'
p23
I1672
sS'w+2=helicopter'
p24
I1100
sS'w-2=position'
p25
I1711
sS'w-2=policy'
p26
I1708
sS'dobj=watershed'
p27
I499
sS'w+2=nation'
p28
I1154
sS'csubj=be'
p29
I191
sS'conj=rebuild'
p30
I167
sS'dobj=culture'
p31
I300
sS'nsubjpass=point'
p32
I638
sS'dobj=remains'
p33
I434
sS'nsubj=pressure'
p34
I590
sS'w+2=hand'
p35
I1093
sS'w+2=behind'
p36
I991
sS'w-2=way'
p37
I1833
sS'advmod=better'
p38
I34
sS'w-1=will'
p39
I1422
sS'w-1=well'
p40
I1416
sS'w+1=physical'
p41
I849
sS'w-2=disadvantage'
p42
I1568
sS'ccomp=protect'
p43
I106
sS'w+2=promote'
p44
I1193
sS'w+1=she'
p45
I864
sS'w+2=meet'
p46
I1145
sS'w+2=individual'
p47
I1114
sS'w+2=quality'
p48
I1197
sS'w-2=embrace'
p49
I1573
sS'w-2=who'
p50
I1841
sS'w+2=nuclear'
p51
I1162
sS'w-2=2004'
p52
I1434
sS'w-2=infrastructure'
p53
I1622
sS'w+2=last'
p54
I1129
sS'conj=strengthen'
p55
I182
sS'w+2=school'
p56
I1218
sS'cc=instead'
p57
I89
sS'w+2=young'
p58
I1296
sS'dobj=vulnerable'
p59
I498
sS'w+2=coast'
p60
I1008
sS'conj=secure'
p61
I180
sS'ccomp=say'
p62
I110
sS'w+2=Ossetian'
p63
I949
sS'w+1=victim'
p64
I898
sS'dobj=position'
p65
I418
sS'w-2=bloodshed'
p66
I1510
sS'w+2=identity'
p67
I1110
sS'w-2=only'
p68
I1688
sS'advcl=earn'
p69
I8
sS'advmod=formally'
p70
I42
sS'w-2=longer'
p71
I1645
sS'ccomp=have'
p72
I99
sS'w-1=could'
p73
I1343
sS'w+1=itself'
p74
I814
sS'dobj=principle'
p75
I422
sS'prep=around'
p76
I656
sS'w+2=export'
p77
I1057
sS'w+1=everybody'
p78
I781
sS'xcomp=attack'
p79
I1850
sS'nsubjpass=percent'
p80
I637
sS'advcl=be'
p81
I3
sS'dobj=Americans'
p82
I226
sS'w+2=river'
p83
I1212
sS'w+1=the'
p84
I881
sS'w+2=Abidjan'
p85
I921
sS'w-2=than'
p86
I1795
sS'dobj=orchard'
p87
I405
sS'w+1=good'
p88
I789
sS'w-1=already'
p89
I1318
sS'w-1=checkpoint'
p90
I1337
sS'w-2=reason'
p91
I1731
sS'w-2=citizen'
p92
I1526
sS'w-2=leader'
p93
I1636
sS'nsubj=U.N.'
p94
I541
sS'w+1=iraqi'
p95
I811
sS'w+2=future'
p96
I1084
sS'advmod=effectively'
p97
I38
sS'nsubj=Poachers'
p98
I540
sS'dobj=worker'
p99
I505
sS'w-2=convention'
p100
I1541
sS'w-2=order'
p101
I1691
sS'dobj=strait'
p102
I473
sS'w-2=votersconcern'
p103
I1829
sS'advcl=acknowledge'
p104
I2
sS'w+1=watershed'
p105
I902
sS'advcl=receive'
p106
I18
sS'dobj=#NUMBER#'
p107
I223
sS'w-1=should'
p108
I1394
sS'nsubj=that'
p109
I605
sS'advmod=further'
p110
I44
sS'advmod=here'
p111
I45
sS'w+2=heart'
p112
I1099
sS'w+2=baby'
p113
I985
sS'nsubj=Bill'
p114
I527
sS'w-1=model'
p115
I1377
sS'w+2=since'
p116
I1231
sS'w+2=secret'
p117
I1220
sS'conj=conduct'
p118
I126
sS'w+2=hawksbill'
p119
I1096
sS'w+2=practice'
p120
I1184
sS'w+2=forrest'
p121
I1075
sS'w-2=restore'
p122
I1743
sS'nsubj=ability'
p123
I546
sS'w-2=Somalia'
p124
I1465
sS'w-2=send'
p125
I1761
sS'conj=reward'
p126
I178
sS'dobj=livelihood'
p127
I381
sS'w-2=diligent'
p128
I1567
sS'w-2=necessarily'
p129
I1670
sS'advmod=where'
p130
I73
sS'w-2=rule'
p131
I1748
sS'w+2=kurdish'
p132
I1127
sS'w-2=agree'
p133
I1482
sS'dobj=swimmer'
p134
I478
sS'w+2=when'
p135
I1286
sS'nsubj=Amendment'
p136
I522
sS'w+1=Europe'
p137
I707
sS'nsubj=way'
p138
I612
sS'w-2=liberty'
p139
I1640
sS'nsubj=troops'
p140
I610
sS'w+2=Niyamgiri'
p141
I946
sS'w+1=worldwide'
p142
I909
sS'dobj=plant'
p143
I415
sS'prep=include'
p144
I667
sS'w+2=estimate'
p145
I1049
sS'xcomp=allow'
p146
I1849
sS'xcomp=both'
p147
I1851
sS'w+1=both'
p148
I749
sS'w-2=inability'
p149
I1620
sS'w-1=time'
p150
I1407
sS'w-1=to'
p151
I1408
sS'advmod=especially'
p152
I39
sS'w-2=contract'
p153
I1539
sS'w-2=Authority'
p154
I1437
sS'w-2=U.S.'
p155
I1469
sS'w-2=legislation'
p156
I1638
sS'dobj=#PRP#'
p157
I224
sS'w+2=strengthen'
p158
I1248
sS'w-2=do'
p159
I1569
sS'w+1=privacy'
p160
I853
sS'w+1=you'
p161
I910
sS'w+2=empower'
p162
I1044
sS'advmod=simply'
p163
I62
sS'w+2=marine'
p164
I1143
sS'dobj=hawksbill'
p165
I345
sS'conj=empower'
p166
I132
sS'w-1=actually'
p167
I1316
sS'w+2=support'
p168
I1250
sS'conj=republic'
p169
I173
sS'w+1=he'
p170
I794
sS'w+2=all'
p171
I966
sS'w+2=under'
p172
I1275
sS'w-1=would'
p173
I1424
sS'w-2=oath'
p174
I1679
sS'w+2=Marines'
p175
I943
sS'w+2=tiger'
p176
I1262
sS'w+1=rebel'
p177
I855
sS'w+2=environment'
p178
I1047
sS'ccomp=make'
p179
I101
sS'dobj=majority'
p180
I384
sS'w-1=one'
p181
I1382
sS'xcomp=say'
p182
I1863
sS'w-2=regulator'
p183
I1733
sS'w-1=force'
p184
I1354
sS'w-2=commitment'
p185
I1530
sS'dobj=ideal'
p186
I354
sS'w-2=commit'
p187
I1529
sS'conj=live'
p188
I155
sS'w+2=live'
p189
I1139
sS'w+1=ngo'
p190
I838
sS'w-2=engage'
p191
I1574
sS'csubj=operate'
p192
I194
sS'conj=restore'
p193
I176
sS'dep=natural'
p194
I210
sS'w+2=media'
p195
I1144
sS'nsubj=shield'
p196
I600
sS'dobj=community'
p197
I289
sS'w-2=manage'
p198
I1652
sS'w-2=approach'
p199
I1496
sS'nsubj=safeguard'
p200
I599
sS'w+1=sex'
p201
I863
sS'w+2=vast'
p202
I1278
sS'dobj=wildlife'
p203
I502
sS'dobj=relay'
p204
I433
sS'w-2=fight'
p205
I1589
sS'nsubj=to'
p206
I607
sS'dobj=interest'
p207
I364
sS'dobj=tissue'
p208
I484
sS'w-2=from'
p209
I1596
sS'w+2=shop'
p210
I1229
sS'w+2=Earth'
p211
I934
sS'w-2=rancher'
p212
I1727
sS'w+2=assist'
p213
I982
sS'w+2=back'
p214
I986
sS'w-2=up'
p215
I1819
sS'w-2=those'
p216
I1803
sS'w-2=Iraqis'
p217
I1454
sS'dobj=River'
p218
I248
sS'w+2=public'
p219
I1196
sS'dobj=Jakarta'
p220
I242
sS'w+2=venue'
p221
I1279
sS'dobj=body'
p222
I275
sS'dobj=grandson'
p223
I339
sS'w+2=soil'
p224
I1238
sS'w-2=soldier'
p225
I1771
sS'ccomp=mindful'
p226
I102
sS'w+1=hawiye'
p227
I793
sS'xcomp=remain'
p228
I1861
sS'dobj=electronics'
p229
I315
sS'w+1=Baghdad'
p230
I702
sS'dobj=stability'
p231
I467
sS'w+2=taxpayer'
p232
I1252
sS'w-2=oil'
p233
I1685
sS'w-1=purchase'
p234
I1389
sS'w-2=oversight'
p235
I1694
sS'dep=as'
p236
I197
sS'w-2=bit'
p237
I1509
sS'w+2=head'
p238
I1097
sS'ccomp=priority'
p239
I105
sS'w-2=mark'
p240
I1654
sS'w+2=area'
p241
I977
sS'w+2=Congress'
p242
I930
sS'w+1=diplomat'
p243
I768
sS'dobj=girl'
p244
I335
sS'w-2=prevent'
p245
I1720
sS'dobj=delegate'
p246
I304
sS'w-2=attempt'
p247
I1498
sS'nsubj=military'
p248
I582
sS'w-2=important'
p249
I1618
sS'nsubj=environment'
p250
I567
sS'ccomp=shape'
p251
I111
sS'w+1=stability'
p252
I874
sS'w+2=Danube'
p253
I933
sS'w-1=effectively'
p254
I1350
sS'w-2=instead'
p255
I1624
sS'w+2=forever'
p256
I1074
sS'w+2=integrity'
p257
I1119
sS'w-2=crucial'
p258
I1548
sS'nsubj=regulator'
p259
I593
sS'w+1=local'
p260
I822
sS'w-2=go'
p261
I1598
sS'w+1=nature'
p262
I836
sS'nsubj=Iraqis'
p263
I536
sS'w-2=terrorist'
p264
I1794
sS'w-2=mission'
p265
I1664
sS'w-2=resolve'
p266
I1737
sS'w-1=constitutionally'
p267
I1340
sS'w+2=launch'
p268
I1130
sS'w-2=would'
p269
I1847
sS'w+2=colombian'
p270
I1010
sS'w-2=obviously'
p271
I1680
sS'w+2=this'
p272
I1259
sS'conj=force'
p273
I141
sS'w+2=regulate'
p274
I1204
sS'conj=preserve'
p275
I160
sS'dobj=cartel'
p276
I282
sS'dobj=eagle'
p277
I310
sS'w-2=role'
p278
I1746
sS'w-2=expect'
p279
I1581
sS'dep=deploy'
p280
I199
sS'mark=while'
p281
I519
sS'w-2=wherewithal'
p282
I1838
sS'conj=expand'
p283
I137
sS'dobj=interrogator'
p284
I365
sS'w+1=Thaksin'
p285
I728
sS'w+2=minister'
p286
I1147
sS'w-2=also'
p287
I1489
sS'ccomp=believe'
p288
I94
sS'dobj=place'
p289
I413
sS'w+1=taxpayer'
p290
I877
sS'w-2=troops'
p291
I1813
sS'w-2=time'
p292
I1804
sS'w+2=stature'
p293
I1245
sS'advmod=therefore'
p294
I69
sS'w+2=regenerate'
p295
I1201
sS'nsubj=peacekeeper'
p296
I586
sS'conj=evacuate'
p297
I136
sS'conj=grant'
p298
I146
sS'w-2=best'
p299
I1508
sS'w-2=in'
p300
I1619
sS'advcl=move'
p301
I15
sS'nsubj=helmet'
p302
I573
sS'w-2=it'
p303
I1630
sS'dobj=freedom'
p304
I332
sS'dobj=continent'
p305
I293
sS'w+2=precious'
p306
I1185
sS'nsubj=woman'
p307
I617
sS'w+2=crocodile'
p308
I1022
sS'w+2=diplomat'
p309
I1031
sS'nsubjpass=identity'
p310
I631
sS'dobj=farmer'
p311
I325
sS'w-2=tough'
p312
I1808
sS'parataxis=would'
p313
I650
sS'advmod=also'
p314
I29
sS'nsubj=tradition'
p315
I608
sS'w+2=popular'
p316
I1181
sS'w-1=guard'
p317
I1359
sS'dobj=life'
p318
I378
sS'dobj=tonight'
p319
I485
sS'w-2=States'
p320
I1466
sS'w-2=shift'
p321
I1767
sS'dobj=Bagram'
p322
I227
sS'w-2=Narayan'
p323
I1460
sS'dobj=analysis'
p324
I266
sS'dep=commit'
p325
I198
sS'ccomp=reason'
p326
I107
sS'w+1=religious'
p327
I858
sS'dobj=achievement'
p328
I259
sS'nsubj=law'
p329
I578
sS'w-1=law'
p330
I1370
sS'w+2=Korea'
p331
I939
sS'w+2=legitimate'
p332
I1133
sS'w+1=humanitarian'
p333
I798
sS'w+1=in'
p334
I802
sS'dobj=shop'
p335
I457
sS'w+1=it'
p336
I812
sS'nsubj=#PRP#'
p337
I521
sS'w+2=little'
p338
I1138
sS'dobj=convoy'
p339
I294
sS'dobj=supporter'
p340
I476
sS'w+1=endangered'
p341
I776
sS'dobj=president'
p342
I421
sS'w-2=defend'
p343
I1555
sS'w+1=Ms.'
p344
I717
sS'w+2=pilgrim'
p345
I1178
sS'dobj=eco-system'
p346
I311
sS'conj=mean'
p347
I157
sS'w+2=ethnic'
p348
I1051
sS'conj=provide'
p349
I165
sS'w+1=or'
p350
I843
sS'w+2=social'
p351
I1237
sS'w-2=like'
p352
I1642
sS'advcl=do'
p353
I7
sS'w-2=month'
p354
I1665
sS'w-2=mandate'
p355
I1653
sS'dobj=zone'
p356
I507
sS'w+2=defendant'
p357
I1027
sS'w-2=Africa'
p358
I1436
sS'w+1=herself'
p359
I795
sS'w-2=system'
p360
I1787
sS'w-1=delay'
p361
I1347
sS'w+1=unmodified'
p362
I894
sS'w+2=evacuate'
p363
I1053
sS'conj=allow'
p364
I119
sS'conj=come'
p365
I124
sS'w+1=biodiversity'
p366
I747
sS'w-2=Odierno'
p367
I1462
sS'w-2=school'
p368
I1756
sS'dobj=citizen'
p369
I284
sS'conj=act'
p370
I117
sS'w+2=planet'
p371
I1179
sS'dobj=kilometer'
p372
I371
sS'w+2=Patasse'
p373
I950
sS'w-2=ape'
p374
I1495
sS'dobj=newborn'
p375
I399
sS'w-2=operation'
p376
I1689
sS'w-2=and'
p377
I1491
sS'w-2=-lrb-'
p378
I1430
sS'nsubj=chairman'
p379
I560
sS'w-2=to'
p380
I1805
sS'conj=maintain'
p381
I156
sS'w+2=gorilla'
p382
I1087
sS'w+2=disabled'
p383
I1032
sS'dobj=aircraft'
p384
I263
sS'w-2=table'
p385
I1788
sS'w-2=destroy'
p386
I1562
sS'w-2=one'
p387
I1687
sS'tmod=time'
p388
I688
sS'w-1=campaign'
p389
I1335
sS'dobj=fanny'
p390
I323
sS'w-2=he'
p391
I1606
sS'prep=since'
p392
I674
sS'w-2=all'
p393
I1487
sS'w+2=process'
p394
I1191
sS'w-2=horseshoe'
p395
I1611
sS'dobj=economy'
p396
I313
sS'w+2=food'
p397
I1067
sS'w-2=training'
p398
I1809
sS'w+1=what'
p399
I904
sS'dobj=consumer'
p400
I292
sS'w-2=antibody'
p401
I1493
sS'w-2=haven'
p402
I1605
sS'xcomp=ensure'
p403
I1855
sS'dep=that'
p404
I219
sS'w+2=foreign'
p405
I1071
sS'w+1=Ahmad'
p406
I697
sS'w-2=other'
p407
I1692
sS'w+1=investment'
p408
I808
sS'aux=should'
p409
I82
sS'w-2=worker'
p410
I1846
sS'conj=remain'
p411
I172
sS'w+2=government'
p412
I1088
sS'dobj=Lebanon'
p413
I246
sS'w-2=look'
p414
I1646
sS'w-1=they'
p415
I1406
sS'dobj=disabled'
p416
I308
sS'dobj=sovereignty'
p417
I465
sS'dobj=sector'
p418
I448
sS'w+1=livestock'
p419
I821
sS'w+1=each'
p420
I772
sS'w-2=stability'
p421
I1775
sS'w+2=dignity'
p422
I1030
sS'prep=after'
p423
I653
sS'dobj=diplomat'
p424
I307
sS'w+2=around'
p425
I978
sS'w-2=ally'
p426
I1488
sS'dobj=defender'
p427
I303
sS'prep=against'
p428
I654
sS'dobj=export'
p429
I320
sS'w-1=you'
p430
I1425
sS'w-2=refugee'
p431
I1732
sS'w-2=al-Qaida'
p432
I1486
sS'w+1=whistleblower'
p433
I905
sS'w+2=neonatal'
p434
I1158
sS'w+2=water-bearing'
p435
I1285
sS'w+1=impoverished'
p436
I801
sS'w+2=infrastructure'
p437
I1117
sS'w+1=public'
p438
I854
sS'w+2=other'
p439
I1171
sS'nsubj=campaign'
p440
I558
sS'w+1=freedom'
p441
I786
sS'w+2=livestock'
p442
I1141
sS'w-2=should'
p443
I1768
sS'dobj=Forest'
p444
I236
sS'dobj=man'
p445
I385
sS'nsubj=nation'
p446
I583
sS'w+2=state-owned'
p447
I1244
sS'nsubjpass=information'
p448
I633
sS'w-2=that'
p449
I1796
sS'w-2=can'
p450
I1518
sS'w-2=step'
p451
I1780
sS'dobj=camp'
p452
I281
sS'neg=not'
p453
I520
sS'w-2=veil'
p454
I1824
sS'w+2=Tutsis'
p455
I955
sS'w+1=key'
p456
I817
sS'w+2=life'
p457
I1135
sS'w+1=Mr.'
p458
I716
sS'dobj=monkey'
p459
I393
sS'w+1=Kosovo'
p460
I714
sS'dobj=child'
p461
I283
sS'w-2=federal'
p462
I1584
sS'w+1=hundred'
p463
I799
sS'w+2=especially'
p464
I1048
sS'dobj=producer'
p465
I425
sS'dobj=property'
p466
I426
sS'w+2=Lebanon'
p467
I941
sS'xcomp=ship'
p468
I1865
sS'w+2=business'
p469
I998
sS'w-2=for'
p470
I1593
sS'w-2=Secret'
p471
I1464
sS'dobj=Rutshuru'
p472
I250
sS'w-2=Sudan'
p473
I1467
sS'w+2=ship'
p474
I1226
sS'advmod=then'
p475
I66
sS'w-1=militia'
p476
I1376
sS'dobj=migrant'
p477
I388
sS'nsubjpass=Allam'
p478
I619
sS'w-2=we'
p479
I1834
sS'dobj=Biya'
p480
I230
sS'w+2=hard-won'
p481
I1094
sS'conj=counter'
p482
I127
sS'dobj=tribe'
p483
I486
sS'dobj=DPRK'
p484
I233
sS'w+1=pilgrim'
p485
I850
sS'w-2=hormone'
p486
I1610
sS'xcomp=help'
p487
I1857
sS'w+2=victim'
p488
I1281
sS'w+1=nutrition'
p489
I841
sS'w+1=until'
p490
I895
sS'nsubj=process'
p491
I591
sS'w-2=container'
p492
I1537
sS'nsubj=Khartoum'
p493
I537
sS'nsubj=attack'
p494
I549
sS'advmod=importantly'
p495
I48
sS'w+2=worker'
p496
I1294
sS'nsubj=al-Qaida'
p497
I547
sS'w+2=freedom'
p498
I1077
sS'dobj=integrity'
p499
I363
sS'w+1=internally'
p500
I806
sS'w-1=say'
p501
I1392
sS'w+1=Asia'
p502
I700
sS'w+1=soil'
p503
I869
sS'dobj=industry'
p504
I358
sS'w+1=consumer'
p505
I765
sS'w+1=Russia'
p506
I722
sS'dobj=writer'
p507
I506
sS'advmod=so'
p508
I63
sS'w+1=village'
p509
I899
sS'dobj=Kurdistan'
p510
I245
sS'w-2=erect'
p511
I1577
sS'w-1=permanently'
p512
I1386
sS'advmod=anymore'
p513
I31
sS'w+2=tissue'
p514
I1263
sS'aux=may'
p515
I80
sS'w-2=Gabril'
p516
I1447
sS'w+2=producer'
p517
I1192
sS'w-1=adequately'
p518
I1317
sS'w-2=militia'
p519
I1661
sS'w-2=the'
p520
I1797
sS'w-2=cotton'
p521
I1542
sS'w+2=satellite'
p522
I1216
sS'w-2=anything'
p523
I1494
sS'advcl=leave'
p524
I12
sS'w+2=far'
p525
I1062
sS'w+1=job'
p526
I815
sS'advcl=come'
p527
I5
sS'nsubj=what'
p528
I614
sS'w+1=half'
p529
I791
sS'w+1=classify'
p530
I760
sS'advmod=legally'
p531
I50
sS'w-1=have'
p532
I1360
sS'dobj=satellite'
p533
I444
sS'w+2=-lrb-'
p534
I916
sS'w+2=employee'
p535
I1043
sS'w+2=in'
p536
I1113
sS'advmod=#PRP#'
p537
I25
sS'dobj=woodland'
p538
I504
sS'nsubj=food'
p539
I568
sS'w+2=Bush'
p540
I928
sS'w-1=also'
p541
I1319
sS'aux=can'
p542
I76
sS'dobj=area'
p543
I269
sS'advmod=at'
p544
I33
sS'advmod=as'
p545
I32
sS'w+2=position'
p546
I1183
sS'dobj=cord'
p547
I295
sS'dobj=brother'
p548
I278
sS'advmod=worldwide'
p549
I74
sS'w+2=transitional'
p550
I1268
sS'w-2=ever'
p551
I1580
sS'advmod=only'
p552
I54
sS'nsubj=bunch'
p553
I557
sS'w-1=formally'
p554
I1355
sS'w-2=capacity'
p555
I1519
sS'w+2=animal'
p556
I971
sS'w+1=member'
p557
I825
sS'w-1=properly'
p558
I1388
sS'w+1=non-smoker'
p559
I839
sS'w+2=population'
p560
I1182
sS'acomp=public'
p561
I0
sS'w+2=Zone'
p562
I957
sS'advmod=largely'
p563
I49
sS'prep=to'
p564
I678
sS'w+1=Bagram'
p565
I703
sS'w+1=riverIn'
p566
I860
sS'dep=fall'
p567
I201
sS'w+2=even'
p568
I1054
sS'dobj=minority'
p569
I392
sS'dep=yes'
p570
I222
sS'w-2=intervention'
p571
I1629
sS'w+2=for'
p572
I1069
sS'w-2=about'
p573
I1474
sS'w+2=trade'
p574
I1267
sS'w-2=count'
p575
I1544
sS'w-2=unable'
p576
I1816
sS'w-2=here'
p577
I1609
sS'w+2=agent'
p578
I963
sS'advmod=temporarily'
p579
I65
sS'dobj=all'
p580
I264
sS'dobj=Tutsis'
p581
I254
sS'w-2=seem'
p582
I1760
sS'dobj=reputation'
p583
I435
sS'advmod=overseas'
p584
I56
sS'w+2=important'
p585
I1112
sS'nsubj=key'
p586
I576
sS'w+2=supporter'
p587
I1251
sS'w-2=vaccine'
p588
I1822
sS'w+2=tribe'
p589
I1269
sS'w-2=design'
p590
I1559
sS'w-2=cause'
p591
I1520
sS'w+1=child'
p592
I756
sS'w+1=british'
p593
I751
sS'w-1=above'
p594
I1315
sS'w+2=national'
p595
I1155
sS'w-2=Kenya'
p596
I1456
sS'w+1=very'
p597
I897
sS'w-2=business'
p598
I1514
sS'dobj=nutrition'
p599
I402
sS'ccomp=lead'
p600
I100
sS"w+1=shi'ite"
p601
I865
sS'w+2=body'
p602
I993
sS'dobj=people'
p603
I409
sS'w+2=top'
p604
I1265
sS'conj=assist'
p605
I121
sS'xcomp=observe'
p606
I1858
sS'w-2=progress'
p607
I1725
sS'w-2=have'
p608
I1604
sS'nsubjpass=child'
p609
I623
sS'w-2=store'
p610
I1781
sS'w-1=Gannet'
p611
I1304
sS'w+1=merchant'
p612
I826
sS'w-2=sovereignty'
p613
I1773
sS'w+2=archipelago'
p614
I975
sS'w-2=possible'
p615
I1712
sS'w-2=identity'
p616
I1615
sS'w+2=shipment'
p617
I1227
sS'w-2=serious'
p618
I1763
sS'w-1=die'
p619
I1349
sS'nsubj=soldier'
p620
I602
sS'w+2=rights'
p621
I1211
sS'advmod=permanently'
p622
I57
sS'w-2=take'
p623
I1789
sS'w+2=predominantly'
p624
I1186
sS'prep=over'
p625
I672
sS'w-1=always'
p626
I1320
sS'dobj=official'
p627
I403
sS'w+2=smallpox'
p628
I1235
sS'w-1=environmentalist'
p629
I1351
sS'conj=limit'
p630
I154
sS'advmod=possibly'
p631
I58
sS'conj=give'
p632
I144
sS'w+2=heritage'
p633
I1101
sS'w-2=assist'
p634
I1497
sS'nsubj=story'
p635
I604
sS'w+2=NATO'
p636
I945
sS'w-2=able'
p637
I1473
sS'ccomp=be'
p638
I93
sS'w+2=secular'
p639
I1222
sS'w+1=life'
p640
I819
sS'w+2=ethnic-tutsi'
p641
I1052
sS'w-2=newest'
p642
I1675
sS'w+2=own'
p643
I1173
sS'w-2=two-dose'
p644
I1815
sS'dobj=patient'
p645
I407
sS'conj=implement'
p646
I150
sS'xcomp=report'
p647
I1862
sS'w+2=electronics'
p648
I1042
sS'aux=do'
p649
I78
sS'conj=facilitate'
p650
I138
sS'conj=prevent'
p651
I162
sS'w+2=frontrunner'
p652
I1081
sS'w+2=polio'
p653
I1180
sS'w+1=civil'
p654
I758
sS'w+2=accuse'
p655
I959
sS'w+2=throughout'
p656
I1261
sS'xcomp=serve'
p657
I1864
sS'w+2=while'
p658
I1288
sS'w-2=Maliki'
p659
I1459
sS'w+1=burma'
p660
I752
sS'w+1=Jakarta'
p661
I713
sS'w-2=require'
p662
I1735
sS'w+1=North'
p663
I720
sS'w-1=Service'
p664
I1308
sS'nsubjpass=both'
p665
I622
sS'w+1=Baidoa'
p666
I704
sS'dobj=non-smoker'
p667
I401
sS'w+2=hoof'
p668
I1107
sS'w-2=weapon'
p669
I1836
sS'w+2=say'
p670
I1217
sS'conj=finance'
p671
I140
sS'w+2=safety'
p672
I1215
sS'w+2=carry'
p673
I1002
sS'nsubj=effort'
p674
I566
sS'w+1=american'
p675
I738
sS'w-2=pressure'
p676
I1718
sS'dep=pass'
p677
I213
sS'conj=be'
p678
I123
sS'w+1=under'
p679
I892
sS'dobj=resident'
p680
I436
sS'dobj=Thaci'
p681
I253
sS'w-2=collect'
p682
I1528
sS'w+2=basic'
p683
I989
sS'w-2=charge'
p684
I1523
sS'w-2=Department'
p685
I1444
sS'dobj=great-aunt'
p686
I341
sS'w-2=unlikely'
p687
I1818
sS'nsubj=block'
p688
I554
sS'conj=#PRP#'
p689
I116
sS'w-2=grid'
p690
I1600
sS'w+2=fulfill'
p691
I1082
sS'w+2=spinal'
p692
I1242
sS'w-2=democracy'
p693
I1557
sS'conj=support'
p694
I183
sS'w+1=to'
p695
I887
sS'w-2=HMS'
p696
I1450
sS'dobj=beach'
p697
I273
sS'dobj=investor'
p698
I367
sS'w-1=and'
p699
I1321
sS'w-1=Somalia'
p700
I1309
sS'w+1=populated'
p701
I852
sS'nsubj=means'
p702
I580
sS'dobj=Sea'
p703
I252
sS'advcl=carry'
p704
I4
sS'w+2=congolese'
p705
I1014
sS'dobj=tiger'
p706
I483
sS'conj=promote'
p707
I163
sS'w-2=interest'
p708
I1626
sS'w-2=surface'
p709
I1785
sS'w+2=preserve'
p710
I1187
sS'w+2=flock'
p711
I1066
sS'dobj=those'
p712
I482
sS'nsubjpass=individual'
p713
I632
sS'dobj=Korea'
p714
I243
sS'w-2=line'
p715
I1643
sS'w+1=South'
p716
I727
sS'nsubjpass=worker'
p717
I647
sS'dobj=crocodile'
p718
I299
sS'w-2=state'
p719
I1778
sS'advmod=thereby'
p720
I68
sS'w-2=build'
p721
I1513
sS'dep=prosecute'
p722
I215
sS'nsubj=hormone'
p723
I575
sS'w-2=swear'
p724
I1786
sS'w-2=skill'
p725
I1769
sS'w+2=those'
p726
I1260
sS'tmod=day'
p727
I687
sS'w+2=economic'
p728
I1039
sS'nsubj=Nkunda'
p729
I539
sS'dobj=station'
p730
I469
sS'w+2=thick'
p731
I1258
sS'w-1=house'
p732
I1363
sS'w-2=Chad'
p733
I1440
sS'advmod=there'
p734
I67
sS'dobj=reef'
p735
I429
sS'w-2=dedicate'
p736
I1554
sS'dobj=home'
p737
I351
sS'w-2=weak'
p738
I1835
sS'w+2=great-aunt'
p739
I1090
sS'w+1=someone'
p740
I871
sS'parataxis=go'
p741
I648
sS'dobj=sex'
p742
I453
sS'w-2=if'
p743
I1616
sS'w+2=its'
p744
I1124
sS'dobj=route'
p745
I442
sS'w-2=plan'
p746
I1704
sS'w-2=learn'
p747
I1637
sS'dobj=village'
p748
I495
sS'nsubjpass=security'
p749
I642
sS'w+2=creature'
p750
I1020
sS'nsubjpass=rights'
p751
I641
sS'w-2=transparency'
p752
I1810
sS'dobj=Harun'
p753
I238
sS'w+1=oil'
p754
I842
sS'w+1=ethiopian'
p755
I777
sS'dobj=politician'
p756
I416
sS'w+1=grassland'
p757
I790
sS'dobj=member'
p758
I387
sS'w+2=apec'
p759
I974
sS'conj=violate'
p760
I189
sS'w-2=service'
p761
I1764
sS'w-2=woman'
p762
I1844
sS'conj=use'
p763
I188
sS'w+1=undercover'
p764
I893
sS'w+1=yourself'
p765
I911
sS'dobj=kingdom'
p766
I373
sS'dobj=practice'
p767
I419
sS'w+2=aircraft'
p768
I964
sS'w+2=advance'
p769
I961
sS'w+1=Congo'
p770
I705
sS'dobj=heart'
p771
I348
sS'w+2=ideal'
p772
I1109
sS'w-2=concern'
p773
I1533
sS'dep=government'
p774
I203
sS'w-1=thereby'
p775
I1404
sS'w-2=community'
p776
I1531
sS'dep=help'
p777
I205
sS'w-2=despite'
p778
I1561
sS'dobj=innocent'
p779
I361
sS'advmod=currently'
p780
I36
sS'w+1=camp'
p781
I754
sS'w-2=Indonesia'
p782
I1452
sS'w+1=regional'
p783
I857
sS'w+2=god-given'
p784
I1086
sS'w-2=border'
p785
I1511
sS'w+2=natural'
p786
I1156
sS'nsubj=official'
p787
I584
sS'w-2=measure'
p788
I1658
sS'w-2=al-Maliki'
p789
I1485
sS'dobj=U.S.'
p790
I256
sS'dobj=agent'
p791
I262
sS'w+1=intellectual'
p792
I805
sS'w+2=overall'
p793
I1172
sS'w-2=standard'
p794
I1776
sS'w+2=nearby'
p795
I1157
sS'cc=but'
p796
I88
sS'ccomp=announce'
p797
I92
sS'w-1=help'
p798
I1361
sS'dobj=privacy'
p799
I423
sS'w-1=bill'
p800
I1330
sS'w-2=feel'
p801
I1586
sS'w+1=citizen'
p802
I757
sS'w+1=Sake'
p803
I724
sS'dobj=state'
p804
I468
sS'w-2=feed'
p805
I1585
sS'w+1=farmer'
p806
I785
sS'advcl=win'
p807
I24
sS'w+2=crop'
p808
I1023
sS'dobj=currency'
p809
I301
sS'w-2=my'
p810
I1668
sS'w-1=better'
p811
I1328
sS'dobj=business'
p812
I280
sS'w-2=mindful'
p813
I1662
sS'conj=ensure'
p814
I134
sS'w-1=further'
p815
I1358
sS'w+2=missile'
p816
I1149
sS'w-1=largely'
p817
I1369
sS'conj=attempt'
p818
I122
sS'w-2=precaution'
p819
I1713
sS'nsubj=man'
p820
I579
sS'w-1=biodiversity'
p821
I1331
sS'w+2=hold'
p822
I1104
sS'w+2=Great'
p823
I937
sS'w+1=democracy'
p824
I767
sS'nsubj=which'
p825
I615
sS'dobj=revolution'
p826
I438
sS'w+2=region'
p827
I1203
sS'w+2=both'
p828
I995
sS'w+2=hiv'
p829
I1103
sS'w-1=sunscreen'
p830
I1398
sS'w-1=why'
p831
I1421
sS'w+2=right'
p832
I1210
sS'nsubjpass=time'
p833
I644
sS'w+2=girl'
p834
I1085
sS'dobj=hold'
p835
I350
sS'prep=base'
p836
I659
sS'w-1=who'
p837
I1420
sS'w+2=visitor'
p838
I1283
sS'w-2=could'
p839
I1543
sS'w-2=law'
p840
I1635
sS'w+1=up'
p841
I896
sS'dobj=dignity'
p842
I306
sS'conj=condemn'
p843
I125
sS'w-2=Second'
p844
I1463
sS'w-2=crime'
p845
I1547
sS'w-2=freedom'
p846
I1595
sS'w+2=Kosovars'
p847
I940
sS'dobj=America'
p848
I225
sS'dep=for'
p849
I202
sS'w+2=single'
p850
I1232
sS'w-2=pretext'
p851
I1719
sS'advmod=fully'
p852
I43
sS'xcomp=go'
p853
I1856
sS'w+2=city'
p854
I1005
sS'dobj=skin'
p855
I461
sS'w-2=,'
p856
I1428
sS'conj=include'
p857
I151
sS'w-2=.'
p858
I1432
sS'nsubj=resident'
p859
I595
sS'aux=have'
p860
I79
sS'w+1=remain'
p861
I859
sS'w+2=flee'
p862
I1065
sS'w+1=baby'
p863
I743
sS'w+2=shark'
p864
I1225
sS'w-2=I'
p865
I1451
sS'w+2=principle'
p866
I1189
sS'nsubj=help'
p867
I574
sS'nsubj=Committee'
p868
I529
sS'dobj=institution'
p869
I362
sS'w-1=feel'
p870
I1352
sS'w-2=decision'
p871
I1553
sS'w-2=how'
p872
I1612
sS'conj=help'
p873
I148
sS'dobj=rights'
p874
I440
sS'w+2=interest'
p875
I1120
sS'ccomp=wear'
p876
I113
sS'w-2=material'
p877
I1655
sS'nsubj=sacrifice'
p878
I598
sS'w-2=lot'
p879
I1647
sS'w-2=peacekeeper'
p880
I1701
sS'w-2=job'
p881
I1633
sS'w+2=personnel'
p882
I1177
sS'dobj=Bush'
p883
I231
sS'w-2=constitution'
p884
I1536
sS'w-2=make'
p885
I1650
sS'w+2=strait'
p886
I1247
sS'w+1=many'
p887
I823
sS'w-2=program'
p888
I1724
sS'dobj=livestock'
p889
I382
sS'w-1=70'
p890
I1300
sS'w+1=from'
p891
I787
sS'nsubj=plan'
p892
I588
sS'w-2=city'
p893
I1527
sS'w+1=Somalia'
p894
I726
sS'dobj=visitor'
p895
I497
sS'w+2=it'
p896
I1123
sS'dobj=turtle'
p897
I488
sS'w-1=how'
p898
I1364
sS'w+1=species'
p899
I873
sS'w-2=Afghanistan'
p900
I1435
sS'nsubjpass=Independent'
p901
I620
sS'dobj=veteran'
p902
I493
sS'w+2=remains'
p903
I1205
sS'w+2=sovereignty'
p904
I1240
sS'dobj=troops'
p905
I487
sS'w-2=Blackwater'
p906
I1439
sS'w-2=develop'
p907
I1565
sS'w+2=sector'
p908
I1221
sS'w+1=displaced'
p909
I769
sS'nsubj=Gannet'
p910
I532
sS'w-2=this'
p911
I1802
sS'mark=since'
p912
I515
sS'w+2=U.S.'
p913
I956
sS'w+1=muslim'
p914
I832
sS'nsubj=situation'
p915
I601
sS'prep=from'
p916
I665
sS'w-2=urgent'
p917
I1820
sS'advmod=rather'
p918
I61
sS'w+2=resettle'
p919
I1207
sS'w-2=security'
p920
I1757
sS'nsubj=convention'
p921
I564
sS'w+2=opposition'
p922
I1169
sS'dobj=heritage'
p923
I349
sS'dobj=presidency'
p924
I420
sS'w+1=,'
p925
I692
sS'w+1=.'
p926
I694
sS'w+2=home'
p927
I1106
sS'w-2=such'
p928
I1783
sS'w+1=?'
p929
I695
sS'w-2=necessary'
p930
I1671
sS'w+1=I'
p931
I710
sS'w+2=operate'
p932
I1168
sS'w+1=swimmer'
p933
I876
sS'advmod=adequately'
p934
I27
sS'w-1=sacrifice'
p935
I1391
sS'w+2=State'
p936
I953
sS'dobj=nation'
p937
I396
sS'w+1=a'
p938
I734
sS'nsubj=treatment'
p939
I609
sS'w+2=peacekeeper'
p940
I1175
sS'w+1=U.S.'
p941
I732
sS'w+2=force'
p942
I1070
sS'w+2=woman'
p943
I1293
sS'w-1=include'
p944
I1367
sS'w-2=because'
p945
I1506
sS'conj=rescue'
p946
I174
sS'w-1=that'
p947
I1402
sS'dobj=Uganda'
p948
I257
sS'w+2=ally'
p949
I968
sS'w+1=Israel'
p950
I712
sS'advmod=properly'
p951
I60
sS'dobj=right'
p952
I439
sS'dobj=border'
p953
I276
sS'ccomp=endorse'
p954
I97
sS'preconj=both'
p955
I652
sS'w+2=so'
p956
I1236
sS'w-2=people'
p957
I1702
sS'nsubjpass=people'
p958
I636
sS'dobj=civilian'
p959
I286
sS'w+1=minority'
p960
I830
sS'w+2=reputation'
p961
I1206
sS'dobj=Hutus'
p962
I239
sS'w-2=base'
p963
I1503
sS'conj=government'
p964
I145
sS'w+2=Biya'
p965
I925
sS'dobj=group'
p966
I342
sS'dobj=river'
p967
I441
sS'dobj=stock'
p968
I472
sS'w+2=child'
p969
I1003
sS'w-2=trivalent'
p970
I1812
sS'w-2=volunteer'
p971
I1828
sS'w+1=these'
p972
I883
sS'dobj=secret'
p973
I447
sS'w-2=intend'
p974
I1625
sS'nsubjpass=consumer'
p975
I625
sS'w-1=mean'
p976
I1375
sS'conj=encourage'
p977
I133
sS'w-2=price'
p978
I1721
sS'w+2=minority'
p979
I1148
sS'w+2=high'
p980
I1102
sS'w-2=company'
p981
I1532
sS'conj=defend'
p982
I129
sS'w+1=border'
p983
I748
sS'w+2=site'
p984
I1233
sS'w-1=troops'
p985
I1411
sS'w-2=stay'
p986
I1779
sS'w+1=family'
p987
I783
sS'nsubjpass=infrastructure'
p988
I634
sS'nsubjpass=company'
p989
I624
sS'w-2=resource'
p990
I1738
sS'w-2=altar'
p991
I1490
sS'w+2=country'
p992
I1019
sS'w+2=to'
p993
I1264
sS'w-2=decide'
p994
I1552
sS'dobj=hoof'
p995
I352
sS'dobj=Saudis'
p996
I251
sS'w+2=fanny'
p997
I1061
sS'w+2=attack'
p998
I983
sS'w+2=who'
p999
I1289
sS'w+2=convoy'
p1000
I1018
sS'w-2=act'
p1001
I1477
sS'nsubj=purchase'
p1002
I592
sS'complm=that'
p1003
I114
sS'w+2=property'
p1004
I1194
sS'w-2=curse'
p1005
I1550
sS'conj=crack'
p1006
I128
sS'w-2=Committee'
p1007
I1442
sS'w+2=world'
p1008
I1295
sS'w+2=will'
p1009
I1291
sS'dep=while'
p1010
I221
sS'dep=order'
p1011
I211
sS'w+1=not'
p1012
I840
sS'w+2=common'
p1013
I1011
sS'dep=name'
p1014
I209
sS'xcomp=do'
p1015
I1854
sS'dobj=ship'
p1016
I454
sS'w+1=they'
p1017
I884
sS'dep=problem'
p1018
I214
sS'conj=supporter'
p1019
I184
sS'w-2=future'
p1020
I1597
sS'w+1=those'
p1021
I886
sS'conj=reduce'
p1022
I169
sS'prep=in'
p1023
I666
sS'advmod=forever'
p1024
I41
sS'w-1=about'
p1025
I1314
sS'w+2=land'
p1026
I1128
sS'w-2=reinforcement'
p1027
I1734
sS'dobj=gain'
p1028
I334
sS'w+2=Mahdi'
p1029
I942
sS'nsubj=God'
p1030
I535
sS'w+1=ship'
p1031
I866
sS'w-2=scapegoat'
p1032
I1755
sS'w-2=ceasefire'
p1033
I1521
sS'w+2=arrest'
p1034
I979
sS'ccomp=essential'
p1035
I98
sS'advcl=exist'
p1036
I9
sS'dobj=dad'
p1037
I302
sS'w-2=setback'
p1038
I1765
sS'nsubj=patrol'
p1039
I585
sS'w-2=Ghanaians'
p1040
I1448
sS'nsubj=all'
p1041
I548
sS'xcomp=come'
p1042
I1853
sS'w-2=currency'
p1043
I1549
sS'w+1=other'
p1044
I844
sS'w-2=bag'
p1045
I1500
sS'dobj=media'
p1046
I386
sS'w+1=woman'
p1047
I907
sS'nsubj=Corporation'
p1048
I530
sS'w-2=government'
p1049
I1599
sS'w-2=ban'
p1050
I1502
sS'w-1=if'
p1051
I1365
sS'w-1=in'
p1052
I1366
sS'w+2=species'
p1053
I1241
sS'w-2=checkpoint'
p1054
I1524
sS'w+1=ourselves'
p1055
I845
sS'w+1=Tutsis'
p1056
I730
sS'mark=if'
p1057
I513
sS'conj=pay'
p1058
I159
sS'mark=in'
p1059
I514
sS'dobj=mutineer'
p1060
I395
sS'w-2=work'
p1061
I1845
sS'w-2=sandbag'
p1062
I1752
sS'w+2=not'
p1063
I1161
sS'conj=protect'
p1064
I164
sS'w+2=company'
p1065
I1013
sS'dobj=serb'
p1066
I451
sS'w+2=dad'
p1067
I1026
sS'conj=distribute'
p1068
I130
sS'w-2=they'
p1069
I1801
sS'csubj=do'
p1070
I192
sS'w+1=Siamese'
p1071
I725
sS'dep=say'
p1072
I217
sS'w-2=believe'
p1073
I1507
sS'dobj=Iraqis'
p1074
I240
sS'prep=by'
p1075
I661
sS'dobj=supply'
p1076
I475
sS'w-2=or'
p1077
I1690
sS'nsubj=who'
p1078
I616
sS'w-2=of'
p1079
I1682
sS'ccomp=necessary'
p1080
I103
sS'w-2=country'
p1081
I1545
sS'w-2=on'
p1082
I1686
sS'w-2=deploy'
p1083
I1558
sS'dep=oust'
p1084
I212
sS'w+2=credibility'
p1085
I1021
sS'w-2=prepare'
p1086
I1714
sS'w+1=domestic'
p1087
I770
sS'w-2=desire'
p1088
I1560
sS'w-2=ability'
p1089
I1472
sS'w+1=Ecuador'
p1090
I706
sS'dobj=Congress'
p1091
I232
sS'advcl=function'
p1092
I11
sS'w-2=response'
p1093
I1740
sS'w-2=duty'
p1094
I1571
sS'w+2=allow'
p1095
I967
sS'w+2=doctor'
p1096
I1035
sS'advmod=however'
p1097
I47
sS'dobj=planet'
p1098
I414
sS'w+1=as'
p1099
I742
sS'w+2=like'
p1100
I1136
sS'w-1=currently'
p1101
I1345
sS'nsubj=biodiversity'
p1102
I553
sS'dep=look'
p1103
I207
sS'w-2=itself'
p1104
I1632
sS'mark=for'
p1105
I512
sS'w+2=financial'
p1106
I1064
sS'w-1=can'
p1107
I1336
sS'w-2=official'
p1108
I1684
sS'advmod=earlier'
p1109
I37
sS'w-2=chance'
p1110
I1522
sS'advmod=when'
p1111
I72
sS'dobj=militia'
p1112
I390
sS'dobj=everybody'
p1113
I319
sS'w-2=accountable'
p1114
I1476
sS'w-2=nothing'
p1115
I1678
sS'advcl=that'
p1116
I22
sS'w+2=base'
p1117
I988
sS'w-2=hunt'
p1118
I1613
sS'w+1=we'
p1119
I903
sS'w-2=intervene'
p1120
I1628
sS'w+2=oil'
p1121
I1164
sS'nsubj=vaccine'
p1122
I611
sS'w-1=Iraqis'
p1123
I1307
sS'w+1=aboriginal'
p1124
I735
sS'auxpass=be'
p1125
I86
sS'w-2=Commission'
p1126
I1441
sS'w-2=balance'
p1127
I1501
sS'nsubj=bill'
p1128
I552
sS'w-1=longer'
p1129
I1372
sS'w-2=continue'
p1130
I1538
sS'w-2=Karbala'
p1131
I1455
sS'dobj=company'
p1132
I290
sS'dobj=settlement'
p1133
I452
sS'w-1=fully'
p1134
I1357
sS'nsubj=haven'
p1135
I572
sS'w-2=USA'
p1136
I1470
sS'w-2=must'
p1137
I1667
sS'nsubj=step'
p1138
I603
sS'dobj=someone'
p1139
I464
sS'dobj=tutsus'
p1140
I489
sS'w+2=terrorist'
p1141
I1253
sS'w+2=banking'
p1142
I987
sS'w+2=holy'
p1143
I1105
sS'w+1=its'
p1144
I813
sS'w+2=Al'
p1145
I922
sS'w-1=shrine'
p1146
I1395
sS'dobj=what'
p1147
I500
sS"w-1=''"
p1148
I1297
sS'w+1=eastern'
p1149
I773
sS'nsubj=resource'
p1150
I596
sS'w-2=place'
p1151
I1703
sS'dobj=region'
p1152
I432
sS'w+1=Americans'
p1153
I699
sS'dobj=personnel'
p1154
I411
sS'conj=do'
p1155
I131
sS'dobj=sister'
p1156
I458
sS'dobj=government'
p1157
I338
sS'advmod=sufficiently'
p1158
I64
sS'w+2=brother'
p1159
I997
sS'w+2=revolution'
p1160
I1209
sS'w-1=area'
p1161
I1322
sS'w-2=animal'
p1162
I1492
sS'conj=have'
p1163
I147
sS'w+1=poppy'
p1164
I851
sS'dobj=constitution'
p1165
I291
sS'dobj=identity'
p1166
I355
sS'w-1=warhead'
p1167
I1413
sS'w+1=militant'
p1168
I828
sS'dobj=pilgrim'
p1169
I412
sS'w-2=root'
p1170
I1747
sS'nsubjpass=food'
p1171
I629
sS'w+2=american'
p1172
I969
sS'dobj=doctor'
p1173
I309
sS'w-2=England'
p1174
I1445
sS"w-2='s"
p1175
I1427
sS'nsubjpass=reason'
p1176
I640
sS'w+1=animal'
p1177
I740
sS'conj=reclaim'
p1178
I168
sS'w-2=no'
p1179
I1676
sS'w-2=respect'
p1180
I1739
sS'w+2=entire'
p1181
I1046
sS'w+1=because'
p1182
I746
sS'dobj=seal'
p1183
I446
sS'dobj=stature'
p1184
I470
sS'dobj=farm'
p1185
I324
sS'w+2=lawsuit'
p1186
I1132
sS'w+1=trafficking'
p1187
I888
sS'w+2=Congo'
p1188
I929
sS'w-2=themselves'
p1189
I1798
sS'dobj=value'
p1190
I491
sS'w-2=which'
p1191
I1839
sS'dobj=U.N.'
p1192
I255
sS'w+2=livelihood'
p1193
I1140
sS'w+2=domestic'
p1194
I1036
sS'ccomp=recognize'
p1195
I108
sS'dobj=Zone'
p1196
I258
sS'prep=throughout'
p1197
I677
sS'w-2=camp'
p1198
I1516
sS'w-2=action'
p1199
I1478
sS'dobj=job'
p1200
I368
sS'prep=while'
p1201
I682
sS'w+2=structure'
p1202
I1249
sS'w+2=local'
p1203
I1142
sS'w-2=interested'
p1204
I1627
sS'w+1=Rutshuru'
p1205
I723
sS'ccomp=sift'
p1206
I112
sS'aux=will'
p1207
I84
sS'w-2=Darfur'
p1208
I1443
sS'w+2=culture'
p1209
I1024
sS'w-2=epidemic'
p1210
I1576
sS'prep=with'
p1211
I683
sS'w-2=spirit'
p1212
I1774
sS'dobj=coast'
p1213
I287
sS'w-1=between'
p1214
I1329
sS'dobj=force'
p1215
I329
sS'w-2=suppose'
p1216
I1784
sS'nsubj=right'
p1217
I597
sS'w-2=president'
p1218
I1717
sS'w-2=little'
p1219
I1644
sS'dep=safer'
p1220
I216
sS'w+2=turkish'
p1221
I1271
sS'w+1=America'
p1222
I698
sS'dobj=hand'
p1223
I344
sS'w+2=civil'
p1224
I1006
sS'w-2=tax'
p1225
I1792
sS'w-2=fail'
p1226
I1582
sS'dobj=environment'
p1227
I318
sS'w-2=fence'
p1228
I1587
sS'w+1=global'
p1229
I788
sS'w+2=value'
p1230
I1277
sS'advmod=constitutionally'
p1231
I35
sS'dobj=victim'
p1232
I494
sS'dobj=Marines'
p1233
I247
sS'w+1=drug'
p1234
I771
sS'w+1=NATO'
p1235
I718
sS'w-1=these'
p1236
I1405
sS'cc=and'
p1237
I87
sS'dobj=lion'
p1238
I379
sS'dobj=brain'
p1239
I277
sS'w+1=individual'
p1240
I803
sS'w+1=by'
p1241
I753
sS'w+1=be'
p1242
I745
sS'w+2=community'
p1243
I1012
sS'conj=fulfill'
p1244
I142
sS'w+2=Olympic'
p1245
I948
sS'w+1=Iraq'
p1246
I711
sS'w-2=tool'
p1247
I1807
sS'w+1=tuna'
p1248
I890
sS'w+2=economy'
p1249
I1040
sS'tmod=year'
p1250
I690
sS'w-2=determination'
p1251
I1563
sS'w-2=firm'
p1252
I1591
sS'w-2=see'
p1253
I1758
sS'dobj=gorilla'
p1254
I337
sS'w+2=family'
p1255
I1059
sS'w-2=promise'
p1256
I1726
sS'w+2=skin'
p1257
I1234
sS'dobj=flame'
p1258
I326
sS'nsubj=presence'
p1259
I589
sS'nsubj=Blackwater'
p1260
I528
sS'aux=could'
p1261
I77
sS'w-1=company'
p1262
I1338
sS'prep=like'
p1263
I669
sS'w+1=-rrb-'
p1264
I693
sS'w+1=investor'
p1265
I809
sS'w-2=inflation'
p1266
I1621
sS'w+2=al-qaida'
p1267
I965
sS'w-2=these'
p1268
I1800
sS'prep=of'
p1269
I670
sS'prep=on'
p1270
I671
sS'ccomp=rule'
p1271
I109
sS'dobj=Guinea'
p1272
I237
sS'xcomp=prevent'
p1273
I1860
sS'w+2=stock'
p1274
I1246
sS'dobj=back'
p1275
I272
sS'nsubj=board'
p1276
I555
sS'nsubj=guard'
p1277
I571
sS"w-2=''"
p1278
I1426
sS'dobj=security'
p1279
I450
sS'w+1=farm'
p1280
I784
sS'w+1=computer'
p1281
I763
sS'dep=have'
p1282
I204
sS'nsubj=citizen'
p1283
I561
sS'w+2=currency'
p1284
I1025
sS'w-2=failure'
p1285
I1583
sS'w+2=than'
p1286
I1254
sS'w-2=talk'
p1287
I1790
sS'w-1=beach'
p1288
I1326
sS'dobj=investment'
p1289
I366
sS'dobj=militant'
p1290
I389
sS'w+2=that'
p1291
I1255
sS'w+2=and'
p1292
I970
sS'dobj=species'
p1293
I466
sS'w-1=or'
p1294
I1384
sS'conj=regenerate'
p1295
I170
sS'dobj=situation'
p1296
I460
sS'advcl=say'
p1297
I19
sS'w-1=of'
p1298
I1380
sS'w-2=more'
p1299
I1666
sS'w-2=pledge'
p1300
I1705
sS'dobj=process'
p1301
I424
sS'prep=provide'
p1302
I673
sS'advmod=actually'
p1303
I26
sS'w+2=fall'
p1304
I1058
sS'w+1=this'
p1305
I885
sS'w-2=date'
p1306
I1551
sS'w-2=enough'
p1307
I1575
sS'w+2=exploitation'
p1308
I1056
sS'w+1=telecommunications'
p1309
I879
sS'advmod=now'
p1310
I52
sS'w+2=law'
p1311
I1131
sS'w+1=defender'
p1312
I766
sS'w-2=will'
p1313
I1843
sS'w+2=controversial'
p1314
I1017
sS'w+2=Americans'
p1315
I923
sS'w-2=try'
p1316
I1814
sS'w+1=Kurdistan'
p1317
I715
sS'w+2=newborn'
p1318
I1160
sS'ccomp=preserve'
p1319
I104
sS'w-2=concerned'
p1320
I1534
sS'prep=among'
p1321
I655
sS'dobj=kind'
p1322
I372
sS'w-2=not'
p1323
I1677
sS'w-2=while'
p1324
I1840
sS'dobj=infrastructure'
p1325
I360
sS'w-2=man'
p1326
I1651
sS'dobj=venue'
p1327
I492
sS'w+2=rebuild'
p1328
I1198
sS'w+2=regime'
p1329
I1202
sS'w-2=may'
p1330
I1656
sS'w+2=french'
p1331
I1078
sS'w-1=system'
p1332
I1399
sS'w-2=out'
p1333
I1693
sS'w+2=troops'
p1334
I1270
sS'prep=underneath'
p1335
I680
sS'dobj=site'
p1336
I459
sS'conj=advance'
p1337
I118
sS'conj=reverse'
p1338
I177
sS'dobj=mountain'
p1339
I394
sS'dobj=another'
p1340
I268
sS'dobj=Baidoa'
p1341
I228
sS'w+2=drug'
p1342
I1037
sS'dobj=operative'
p1343
I404
sS'dobj=idp'
p1344
I356
sS'w+2=farmer'
p1345
I1063
sS'w-2=major'
p1346
I1648
sS'nsubj=Department'
p1347
I531
sS'complm=whether'
p1348
I115
sS'w+1=more'
p1349
I831
sS'dobj=Kosovars'
p1350
I244
sS'w-1=must'
p1351
I1378
sS'conj=rebel'
p1352
I166
sS'w-2=fighter'
p1353
I1590
sS'w+2=have'
p1354
I1095
sS'w-2=patrol'
p1355
I1699
sS'w-2=there'
p1356
I1799
sS'conj=train'
p1357
I185
sS'advcl=mean'
p1358
I13
sS'advcl=#PRP#'
p1359
I1
sS'csubjpass=leave'
p1360
I195
sS'dobj=Israel'
p1361
I241
sS'w+1=export'
p1362
I782
sS'nsubjpass=border'
p1363
I621
sS'nsubjpass=environment'
p1364
I627
sS'aux=to'
p1365
I83
sS'dobj=baby'
p1366
I271
sS'w-1=Union'
p1367
I1312
sS'w+2=rogue'
p1368
I1213
sS'w+2=anymore'
p1369
I973
sS'w+2=name'
p1370
I1153
sS'w+1=million'
p1371
I829
sS'conj=regulate'
p1372
I171
sS'w-1=for'
p1373
I1353
sS'prep=as'
p1374
I657
sS'w-1=situation'
p1375
I1396
sS'w+2=most'
p1376
I1151
sS'w+1=idp'
p1377
I800
sS'w+1=human'
p1378
I797
sS'dobj=park'
p1379
I406
sS'w-1=U.S.'
p1380
I1310
sS'prep=during'
p1381
I662
sS'nsubj=card'
p1382
I559
sS'w+2=brain'
p1383
I996
sS'dobj=status'
p1384
I471
sS'dobj=hotel'
p1385
I353
sS'w-1=on'
p1386
I1381
sS'w+1=ethnic'
p1387
I778
sS'w-1=not'
p1388
I1379
sS'w-1=begin'
p1389
I1327
sS'dobj=peacekeeper'
p1390
I408
sS'w-2=force'
p1391
I1594
sS'aux=be'
p1392
I75
sS'w-1=there'
p1393
I1403
sS'w+2=be'
p1394
I990
sS'w+1=vulnerable'
p1395
I901
sS'dobj=element'
p1396
I316
sS'w+2=industry'
p1397
I1115
sS'ccomp=call'
p1398
I95
sS'dobj=shipment'
p1399
I455
sS'dep=do'
p1400
I200
sS'w+1=wildlife'
p1401
I906
sS'w-2=but'
p1402
I1515
sS'w+1=shipping'
p1403
I867
sS'w+2=DPRK'
p1404
I932
sS'w-1=treatment'
p1405
I1410
sS'advmod=well'
p1406
I71
sS'parataxis=steadfast'
p1407
I649
sS'w-2=just'
p1408
I1634
sS'dobj=whistleblower'
p1409
I501
sS'prep=than'
p1410
I675
sS'dobj=country'
p1411
I296
sS'w+1=worker'
p1412
I908
sS'w+2=AIDS'
p1413
I920
sS'nsubj=government'
p1414
I570
sS'w+1=journalist'
p1415
I816
sS'dobj=living'
p1416
I383
sS'w+2=forest'
p1417
I1072
sS'w-2=food'
p1418
I1592
sS'w-2=vow'
p1419
I1830
sS'w-2=Zambia'
p1420
I1471
sS'w+2=collective'
p1421
I1009
sS'w+1=survivor'
p1422
I875
sS'nsubj=Applied'
p1423
I525
sS'w+1=teenage'
p1424
I878
sS'w-1=plan'
p1425
I1387
sS'w+1=Uganda'
p1426
I733
sS'w-2=safeguard'
p1427
I1750
sS'w-2=campaign'
p1428
I1517
sS'w+1=villager'
p1429
I900
sS'conj=stop'
p1430
I181
sS'w-1=by'
p1431
I1334
sS'dobj=soil'
p1432
I462
sS'w-2=few'
p1433
I1588
sS'w-1=be'
p1434
I1325
sS'w-1=day'
p1435
I1346
sS'w+2=eagle'
p1436
I1038
sS'prep=behind'
p1437
I660
sS'w+2=Texas'
p1438
I954
sS'w-2=risk'
p1439
I1745
sS'w-1=sufficiently'
p1440
I1397
sS'mark=because'
p1441
I510
sS'dobj=shipping'
p1442
I456
sS'w+2=continent'
p1443
I1016
sS'dobj=survivor'
p1444
I477
sS'w+1=myself'
p1445
I834
sS'w+1=colombian'
p1446
I762
sS'w-1=with'
p1447
I1423
sS'w-2=save'
p1448
I1753
sS'nsubjpass=source'
p1449
I643
sS'w-2=mechanism'
p1450
I1659
sS'w+2=endanger'
p1451
I1045
sS'nsubj=Gardasil'
p1452
I533
sS'w+2=everything'
p1453
I1055
sS'w+2=grandson'
p1454
I1089
sS'w-1=which'
p1455
I1418
sS'w+1=people'
p1456
I848
sS'w-1=temporarily'
p1457
I1400
sS'dobj=grassland'
p1458
I340
sS'conj=keep'
p1459
I153
sS'w+1=another'
p1460
I741
sS'w-1=from'
p1461
I1356
sS'w-2=effort'
p1462
I1572
sS'w-1=only'
p1463
I1383
sS'w+2=by'
p1464
I1000
sS'w+1=national'
p1465
I835
sS'w-2=essential'
p1466
I1579
sS'dobj=Russia'
p1467
I249
sS'w-2=group'
p1468
I1601
sS'w+1=interrogator'
p1469
I807
sS'w+2=president'
p1470
I1188
sS'nsubjpass=#PRP#'
p1471
I618
sS'advmod=too'
p1472
I70
sS'aux=would'
p1473
I85
sS'w+1=Green'
p1474
I708
sS'w-1=it'
p1475
I1368
sS'w-2=cover'
p1476
I1546
sS'w-1=UNHCR'
p1477
I1311
sS'w+2=spiritual'
p1478
I1243
sS'w-2=U.N.'
p1479
I1468
sS'w-2=wall'
p1480
I1831
sS'w+1=land'
p1481
I818
sS'dobj=the'
p1482
I481
sS'w-2=immediately'
p1483
I1617
sS'w-2=understanding'
p1484
I1817
sS'w+2=digital'
p1485
I1029
sS'w+1=and'
p1486
I739
sS'w-1=dictator'
p1487
I1348
sS'w-2=present'
p1488
I1715
sS'w-2=vigilant'
p1489
I1825
sS'dobj=forest'
p1490
I330
sS'w+2=wildlife'
p1491
I1290
sS'prt=up'
p1492
I685
sS'dobj=journalist'
p1493
I369
sS'w-2=tree'
p1494
I1811
sS'w-2=somali'
p1495
I1772
sS'dobj=Bhutto'
p1496
I229
sS'w+1=congolese'
p1497
I764
sS'w-2=item'
p1498
I1631
sS'w-2=well'
p1499
I1837
sS'dobj=villager'
p1500
I496
sS'dobj=refugee'
p1501
I430
sS'w+2=should'
p1502
I1230
sS'w-2=guilty'
p1503
I1603
sS'w+2=tutsi'
p1504
I1272
sS'nsubj=UNHCR'
p1505
I543
sS'w+1=coastal'
p1506
I761
sS'w+2=famine'
p1507
I1060
sS'w-2=ploy'
p1508
I1706
sS'dobj=city'
p1509
I285
sS'w+1=have'
p1510
I792
sS'w+1=russian'
p1511
I861
sS'w+2=Serbs'
p1512
I952
sS'mark=than'
p1513
I517
sS'advcl=spend'
p1514
I20
sS'w+2=shipping'
p1515
I1228
sS'w-2=life'
p1516
I1641
sS'w-2=ago'
p1517
I1481
sS'w+1=ten'
p1518
I880
sS'w-2=use'
p1519
I1821
sS'w+2=resident'
p1520
I1208
sS'conj=pressure'
p1521
I161
sS'w-1=legally'
p1522
I1371
sS'dobj=infant'
p1523
I359
sS'conj=uphold'
p1524
I187
sS'w-2=Kosovo'
p1525
I1458
sS'w+2=vital'
p1526
I1284
sS'nsubjpass=vote'
p1527
I645
sS'w+1=unarmed'
p1528
I891
sS'w+1=patient'
p1529
I847
sS'advmod=even'
p1530
I40
sS'conj=save'
p1531
I179
sS'w+2=more'
p1532
I1150
sS'dobj=quality'
p1533
I428
sS'w+2=liberty'
p1534
I1134
sS'dobj=lane'
p1535
I375
sS'w-2=Bill'
p1536
I1438
sS'w-2=value'
p1537
I1823
sS'dobj=facility'
p1538
I321
sS'nsubj=Union'
p1539
I544
sS'w+2=citizen'
p1540
I1004
sS'w+2=southern'
p1541
I1239
sS'w+2=displaced'
p1542
I1034
sS'w-1=budget'
p1543
I1332
sS'dep=able'
p1544
I196
sS'w+2=action'
p1545
I960
sS'w+2=against'
p1546
I962
sS'nsubj=measure'
p1547
I581
sS'w+1=themselves'
p1548
I882
sS'w+1=nearly'
p1549
I837
sS'w+1=maritime'
p1550
I824
sS'w+2=kingdom'
p1551
I1126
sS'w-2=military'
p1552
I1660
sS'w-1=weapon'
p1553
I1415
sS'dobj=friend'
p1554
I333
sS'w-2=shelter'
p1555
I1766
sS'w+2=whether'
p1556
I1287
sS'w+2=Blackwater'
p1557
I926
sS'w-2=aim'
p1558
I1484
sS'dobj=asset'
p1559
I270
sS'w-1=Washington'
p1560
I1313
sS'w-2=initiative'
p1561
I1623
sS'w-2=ready'
p1562
I1730
sS'dep=than'
p1563
I218
sS'dobj=Ecuador'
p1564
I234
sS'w+1=lion'
p1565
I820
sS'prep=for'
p1566
I664
sS'w+1=breast'
p1567
I750
sS'advcl=reach'
p1568
I17
sS'nsubj=force'
p1569
I569
sS'w-2=together'
p1570
I1806
sS'w+1=iranian'
p1571
I810
sS'advcl=want'
p1572
I23
sS'dobj=leader'
p1573
I376
sS'w+2=as'
p1574
I980
sS'advmod=or'
p1575
I55
sS'dep=make'
p1576
I208
sS'xcomp=own'
p1577
I1859
sS'w-1=here'
p1578
I1362
sS'dobj=commodity'
p1579
I288
sS'w+2=seal'
p1580
I1219
sS'w-2=control'
p1581
I1540
sS'advmod=always'
p1582
I30
sS'w+2=Firestone'
p1583
I935
sS'w-2=violation'
p1584
I1826
sS'dobj=administration'
p1585
I261
sS'w+2=tutsus'
p1586
I1273
sS'w+2=unity'
p1587
I1276
sS'w-2=drug'
p1588
I1570
sS'dobj=ecosystem'
p1589
I314
sS'w+2=food-producing'
p1590
I1068
sS'csubj=ignore'
p1591
I193
sS'w+2=blackwater'
p1592
I992
sS'w-2=majority'
p1593
I1649
sS'w+2=fundamental'
p1594
I1083
sS'dobj=democracy'
p1595
I305
sS'w-1=contractor'
p1596
I1341
sS'w+2=with'
p1597
I1292
sS'nsubjpass=freedom'
p1598
I630
sS'w-2=-rrb-'
p1599
I1431
sS'nsubjpass=figure'
p1600
I628
sS'w-2=year'
p1601
I1848
sS'w+1=my'
p1602
I833
sS'w-2=primarily'
p1603
I1722
sS'nsubj=au'
p1604
I550
sS'w-1=people'
p1605
I1385
sS'w+2=Bosnian-Muslim'
p1606
I927
sS'conj=equip'
p1607
I135
sS'w-2=violence'
p1608
I1827
sS'w-2=1099'
p1609
I1433
sS'w+2=or'
p1610
I1170
sS'dobj=liberty'
p1611
I377
sS'w+2=of'
p1612
I1163
sS'w-1=resident'
p1613
I1390
sS'w+2=border'
p1614
I994
sS'w+2=on'
p1615
I1165
sS'w+1=Australia'
p1616
I701
sS'w+2=park'
p1617
I1174
sS'dobj=resource'
p1618
I437
sS'w+2=network'
p1619
I1159
sS'w+1=so'
p1620
I868
sS'cc=or'
p1621
I90
sS'w-1=while'
p1622
I1419
sS'w+2=serbian'
p1623
I1224
sS'prep=without'
p1624
I684
sS'w-2=hurt'
p1625
I1614
sS'w-2=same'
p1626
I1751
sS'prep=inside'
p1627
I668
sS'w-2=helpless'
p1628
I1608
sS'w-1=she'
p1629
I1393
sS'conj=not'
p1630
I158
sS'w-2=mean'
p1631
I1657
sS'w+2=from'
p1632
I1080
sS'w+2=two'
p1633
I1274
sS'w-2=ocean'
p1634
I1681
sS'w-2=politics'
p1635
I1709
sS'advmod=often'
p1636
I53
sS'w-2=responsible'
p1637
I1742
sS'w+1=Afghan'
p1638
I696
sS'advcl=target'
p1639
I21
sS'nsubj=Maliki'
p1640
I538
sS'dobj=taxpayer'
p1641
I480
sS'nsubj=Ghanaians'
p1642
I534
sS'w-2=Khartoum'
p1643
I1457
sS'nsubj=knowledge'
p1644
I577
sS'dobj=public'
p1645
I427
sS'dobj=safety'
p1646
I443
sS'w+2=Masisi'
p1647
I944
sS'w+1=infant'
p1648
I804
sS'w-2=Iraq'
p1649
I1453
sS'prep=until'
p1650
I681
sS'dobj=judiciary'
p1651
I370
sS'w+2=privacy'
p1652
I1190
sS'w-2=child'
p1653
I1525
sS'w-1=toward'
p1654
I1409
sS'w-1=Amendment'
p1655
I1302
sS'dep=vote'
p1656
I220
sS'dobj=network'
p1657
I398
sS'w-2=problem'
p1658
I1723
sS'w+1=either'
p1659
I774
sS'dobj=unity'
p1660
I490
sS'advmod=already'
p1661
I28
sS'nsubj=Authority'
p1662
I526
sS'w-2=right'
p1663
I1744
sS'expl=there'
p1664
I508
sS'nsubj=conflict'
p1665
I562
sS'dobj=population'
p1666
I417
sS'w-2=guard'
p1667
I1602
sS'w-2=react'
p1668
I1729
sS'nsubj=people'
p1669
I587
sS'w+2=fragile'
p1670
I1076
sS'advcl=complete'
p1671
I6
sS'w+2=people'
p1672
I1176
sS'w-1=vaccine'
p1673
I1412
sS'w+2=red'
p1674
I1199
sS'w-2=--'
p1675
I1429
sS'dobj=flank'
p1676
I327
sS'w+1=refugee'
p1677
I856
sS'dobj=ally'
p1678
I265
sS'w-2=nation'
p1679
I1669
sS'dobj=forrest'
p1680
I331
sS'w+2=list'
p1681
I1137
sS'dobj=nature'
p1682
I397
sS'advmod=longer'
p1683
I51
sS'advcl=necessary'
p1684
I16
sS'dobj=economic'
p1685
I312
sS'ccomp=displace'
p1686
I96
sS'w+2=asset'
p1687
I981
sS'w-2=determine'
p1688
I1564
sS'w+2=disgraced'
p1689
I1033
sS'w+1=civilian'
p1690
I759
sS'nsubj=reinforcement'
p1691
I594
sS"w+2=''"
p1692
I913
sS'nsubj=country'
p1693
I565
sS'w-2=help'
p1694
I1607
sS'w+2=November'
p1695
I947
sS'w+1=palestinian'
p1696
I846
sS'dobj=Europe'
p1697
I235
sS'w+1=Turkey'
p1698
I729
sS'w+2=consumer'
p1699
I1015
sS'conj=try'
p1700
I186
sS'w+2=forestsThe'
p1701
I1073
sS'nsubjpass=country'
p1702
I626
sS'w+1=even'
p1703
I779
sS'w-2=participate'
p1704
I1697
sS'w-2=separate'
p1705
I1762
sS'dobj=employee'
p1706
I317
sS'dobj=habitat'
p1707
I343
sS'w+1=mexican'
p1708
I827
sS'prep=under'
p1709
I679
sS'w+2=interim'
p1710
I1121
sS'prep=either'
p1711
I663
sS'w-1=Baghdad'
p1712
I1303
sS'w-1=but'
p1713
I1333
sS"w+2='s"
p1714
I914
sS'conj=hold'
p1715
I149
sS'dobj=head'
p1716
I346
sS'w+1=home'
p1717
I796
sS'w-2=task'
p1718
I1791
sS'w+2=Bhutto'
p1719
I924
sS'mark=until'
p1720
I518
sS'w-1=constitution'
p1721
I1339
sS'w+2=group'
p1722
I1091
sS"w+1=''"
p1723
I691
sS'conj=wrap'
p1724
I190
sS'partmod=destroy'
p1725
I651
sS'dobj=individual'
p1726
I357
sS'dobj=ngo'
p1727
I400
sS'w+1=against'
p1728
I736
sS'w-2=responsibility'
p1729
I1741
sS'advmod=predominantly'
p1730
I59
sS'w-2=God'
p1731
I1449
sS'dobj=family'
p1732
I322
sS'w+1=southern'
p1733
I872
sS'w-2=reserve'
p1734
I1736
sS'w+1=troops'
p1735
I889
sS'mark=before'
p1736
I511
sS'w+2=kind'
p1737
I1125
sS'nsubj=thing'
p1738
I606
sS'w+2=Giitune'
p1739
I936
sS'nsubjpass=patent'
p1740
I635
sS'conj=get'
p1741
I143
sS'dobj=flock'
p1742
I328
sS'w-1=country'
p1743
I1344
sS'w-2=authority'
p1744
I1499
sS'dobj=some'
p1745
I463
sS'w-2=be'
p1746
I1505
sS'w-1=convoy'
p1747
I1342
sS'w-2=park'
p1748
I1695
sS'w-2=part'
p1749
I1696
sS'xcomp=site'
p1750
I1866
sS'advcl=minority'
p1751
I14
sS'w+2=human'
p1752
I1108
sS'dobj=court'
p1753
I297
sS'tmod=war'
p1754
I689
sS'dobj=burma'
p1755
I279
sS'w-2=pay'
p1756
I1700
sS'w+1=all'
p1757
I737
sS'dobj=system'
p1758
I479
sS'w+1=sacred'
p1759
I862
sS'w-1=Gardasil'
p1760
I1305
sS'w-2=abuse'
p1761
I1475
sS'w-2=battle'
p1762
I1504
sS'w-2=against'
p1763
I1480
sS'w+2=village'
p1764
I1282
sS'w+1=some'
p1765
I870
sS'w+2=information'
p1766
I1116
sS'w-2=want'
p1767
I1832
sS'w-2=whose'
p1768
I1842
sS'dobj=list'
p1769
I380
sS'dobj=woman'
p1770
I503
sS'w-2=Nations'
p1771
I1461
sS'nsubjpass=population'
p1772
I639
sS'conj=involve'
p1773
I152
sS'nsubj=Americans'
p1774
I524
sS'tmod=#DATE#'
p1775
I686
sS'w+2=member'
p1776
I1146
sS'mark=so'
p1777
I516
sS'w+2=veteran'
p1778
I1280
sS'w+2=only'
p1779
I1167
sS'w-2=term'
p1780
I1793
sS'w-2=agreement'
p1781
I1483
sS'w+2=innocent'
p1782
I1118
sS'nsubj=America'
p1783
I523
sS'w-2=minister'
p1784
I1663
sS'nsubj=beach'
p1785
I551
sS'nsubj=Washington'
p1786
I545
sS'w+2=illegal'
p1787
I1111
sS'w-2=say'
p1788
I1754
sS'ccomp=#NUMBER#'
p1789
I91
sS'w+2=the'
p1790
I1256
sS'prep=at'
p1791
I658
sS'nsubj=U.S.'
p1792
I542
sS'w+2=habitat'
p1793
I1092
sS'w+2=Harun'
p1794
I938
sS'w-1=:'
p1795
I1301
sS'w+2=ethiopian'
p1796
I1050
sS'conj=resettle'
p1797
I175
sS'w+2=mutineer'
p1798
I1152
sS'w-1=,'
p1799
I1298
sS'dobj=structure'
p1800
I474
sS'w-2=defense'
p1801
I1556
sS'w+2=anonymity'
p1802
I972
sS'w+1=every'
p1803
I780
sS'nsubj=budget'
p1804
I556
sS'w-2=strive'
p1805
I1782
sS'dobj=regime'
p1806
I431
sS'w-2=preserve'
p1807
I1716
sS'prep=through'
p1808
I676
sS'w+2=one'
p1809
I1166
sS'w-1=I'
p1810
I1306
sS'conj=arrest'
p1811
I120
sS'xcomp=carry'
p1812
I1852
sS'dobj=health'
p1813
I347
sS'nsubj=constitution'
p1814
I563
sS'nsubjpass=which'
p1815
I646
sS'w-2=so'
p1816
I1770
sS'mark=as'
p1817
I509
sS'dobj=creature'
p1818
I298
sS'w+2=security'
p1819
I1223
sS'w-2=congress'
p1820
I1535
sS'dobj=land'
p1821
I374
sS'dobj=school'
p1822
I445
sS'w-1=-rrb-'
p1823
I1299
sS'w+2=Saudis'
p1824
I951
sS'w+2=describe'
p1825
I1028
sS'w+2=they'
p1826
I1257
sS'w+1=President'
p1827
I721
sS'dobj=secular'
p1828
I449
sS'conj=fight'
p1829
I139
sS'w+2=torch'
p1830
I1266
sS'w+2=refugee'
p1831
I1200
sS'w-2=development'
p1832
I1566
sS'w-2=seek'
p1833
I1759
sS'w-2=both'
p1834
I1512
sS'w+2=friend'
p1835
I1079
sS'w+2=Coral'
p1836
I931
sS'dobj=biodiversity'
p1837
I274
sS'w-2=rather'
p1838
I1728
sS'advmod=how'
p1839
I46
sS'w+1=U.N.'
p1840
I731
sS'w+2=australian'
p1841
I984
sS'nsubj=weapon'
p1842
I613
sS'dobj=minister'
p1843
I391
sS'w-1=may'
p1844
I1374
sS'dobj=animal'
p1845
I267
sS'w-2=start'
p1846
I1777
sS'w+1=Nigeria'
p1847
I719
sS'w-1=than'
p1848
I1401
sS'aux=must'
p1849
I81
sS'w-1=we'
p1850
I1414
sS'w+1=basic'
p1851
I744
sS'w-2=actually'
p1852
I1479
sS'advcl=expire'
p1853
I10
sS'dobj=person'
p1854
I410
sS'w+2=;'
p1855
I919
sS'w-2=sacrifice'
p1856
I1749
sS'w-2=population'
p1857
I1710
sS'w+2=.'
p1858
I917
sS'w+2=,'
p1859
I915
sS'w+2=prosecution'
p1860
I1195
sS'w-2=pass'
p1861
I1698
sS"w+2='"
p1862
I912
sS'w+2=route'
p1863
I1214
sS'w+2=archive'
p1864
I976
sS'w-1=what'
p1865
I1417
sS'dobj=good'
p1866
I336
sS'w-1=at'
p1867
I1324
sS'w-1=as'
p1868
I1323
sS'w+2=40'
p1869
I918
sS'w+2=a'
p1870
I958
sS'w-2=European'
p1871
I1446
sS'w-1=man'
p1872
I1373
sS'w+2=ecosystem'
p1873
I1041
sS'w-2=erosion'
p1874
I1578
ssS'dtype'
p1875
cnumpy
float64
p1876
sS'feature_names_'
p1877
(lp1878
g561
ag1359
ag104
ag81
ag704
ag527
ag1671
ag353
ag69
ag1036
ag1853
ag1092
ag524
ag1358
ag1751
ag301
ag1684
ag1568
ag106
ag1297
ag1514
ag1639
ag1116
ag1572
ag807
ag537
ag1303
ag934
ag1661
ag314
ag1582
ag513
ag545
ag544
ag38
ag1231
ag780
ag1109
ag97
ag152
ag1530
ag1024
ag70
ag852
ag110
ag111
ag1839
ag1097
ag495
ag563
ag531
ag1683
ag1310
ag1636
ag552
ag1575
ag584
ag622
ag631
ag1730
ag951
ag918
ag163
ag508
ag1158
ag579
ag475
ag734
ag720
ag294
ag1472
ag1406
ag1111
ag130
ag549
ag1392
ag542
ag1261
ag649
ag860
ag515
ag1849
ag409
ag1365
ag1207
ag1473
ag1125
ag1237
ag796
ag57
ag1621
ag1789
ag797
ag638
ag288
ag1398
ag1686
ag954
ag1035
ag72
ag600
ag179
ag226
ag1080
ag1319
ag239
ag43
ag326
ag1195
ag1271
ag62
ag251
ag1206
ag876
ag1003
ag1348
ag689
ag370
ag1337
ag364
ag1811
ag605
ag818
ag678
ag365
ag843
ag118
ag482
ag1006
ag982
ag1068
ag1155
ag166
ag977
ag814
ag1607
ag297
ag283
ag650
ag1829
ag671
ag273
ag1244
ag1741
ag632
ag964
ag298
ag1163
ag873
ag1715
ag646
ag857
ag1773
ag1459
ag630
ag188
ag381
ag347
ag1630
ag1058
ag275
ag1521
ag651
ag707
ag1064
ag349
ag1352
ag30
ag1178
ag1022
ag1295
ag1372
ag411
ag169
ag946
ag1797
ag193
ag1338
ag126
ag1531
ag61
ag1430
ag55
ag694
ag1019
ag1357
ag1700
ag1524
ag763
ag760
ag1724
ag29
ag1070
ag1591
ag192
ag1360
ag1544
ag236
ag325
ag280
ag1400
ag567
ag849
ag774
ag1282
ag777
ag11
ag1103
ag1576
ag1014
ag194
ag1011
ag1084
ag677
ag1018
ag722
ag1220
ag1072
ag1563
ag404
ag1656
ag1010
ag570
ag107
ag157
ag848
ag82
ag322
ag1341
ag1496
ag480
ag883
ag1091
ag484
ag1564
ag1697
ag444
ag1272
ag753
ag962
ag1074
ag1361
ag220
ag714
ag1350
ag510
ag413
ag1233
ag218
ag1467
ag472
ag996
ag703
ag681
ag581
ag1192
ag790
ag948
ag1196
ag328
ag14
ag1585
ag791
ag384
ag580
ag1678
ag324
ag1845
ag1340
ag543
ag1559
ag1366
ag1275
ag697
ag1837
ag222
ag953
ag1239
ag548
ag1755
ag812
ag452
ag276
ag461
ag369
ag1509
ag959
ag1213
ag1579
ag197
ag1132
ag1165
ag400
ag305
ag339
ag547
ag1411
ag1753
ag1818
ag718
ag31
ag809
ag1037
ag427
ag246
ag1595
ag842
ag424
ag416
ag1173
ag277
ag346
ag1685
ag396
ag1589
ag229
ag1396
ag1706
ag1227
ag1113
ag429
ag1538
ag1732
ag390
ag1185
ag311
ag1258
ag1676
ag1742
ag1215
ag1490
ag1680
ag304
ag1554
ag1028
ag244
ag1866
ag1254
ag1157
ag223
ag1458
ag686
ag966
ag1707
ag1223
ag165
ag1716
ag1813
ag771
ag923
ag835
ag737
ag995
ag1385
ag186
ag1166
ag1344
ag1726
ag504
ag1523
ag1325
ag779
ag869
ag499
ag207
ag284
ag1289
ag698
ag1200
ag1493
ag1651
ag372
ag1322
ag766
ag1821
ag1535
ag1573
ag1611
ag318
ag1238
ag1769
ag127
ag889
ag1416
ag180
ag445
ag1046
ag758
ag477
ag1290
ag1112
ag1843
ag569
ag459
ag1339
ag1060
ag937
ag1682
ag1657
ag375
ag1727
ag667
ag599
ag627
ag1343
ag87
ag1379
ag645
ag1390
ag603
ag1854
ag1154
ag1169
ag289
ag1098
ag143
ag756
ag1666
ag65
ag767
ag924
ag342
ag75
ag799
ag1301
ag465
ag466
ag1645
ag1533
ag735
ag1501
ag1806
ag1152
ag204
ag33
ag583
ag680
ag1618
ag826
ag952
ag874
ag967
ag745
ag1646
ag533
ag1822
ag1183
ag973
ag418
ag1828
ag1279
ag1066
ag1133
ag742
ag1016
ag1399
ag1442
ag335
ag1156
ag1336
ag1296
ag855
ag1432
ag1745
ag1139
ag417
ag1293
ag231
ag804
ag730
ag1184
ag1384
ag968
ag102
ag1800
ag1076
ag340
ag1444
ag134
ag1758
ag1641
ag1482
ag712
ag706
ag208
ag319
ag483
ag905
ag897
ag1140
ag1660
ag1190
ag1327
ag902
ag1232
ag748
ag1500
ag895
ag59
ag27
ag1147
ag1409
ag203
ag1770
ag538
ag99
ag507
ag356
ag1664
ag1817
ag1441
ag1736
ag1105
ag1057
ag1059
ag912
ag1777
ag1513
ag1720
ag281
ag453
ag337
ag136
ag1783
ag1774
ag1423
ag1662
ag114
ag1260
ag868
ag1048
ag1347
ag910
ag1452
ag1642
ag1030
ag263
ag493
ag1640
ag729
ag98
ag94
ag1792
ag1505
ag1539
ag1786
ag123
ag497
ag1041
ag494
ag1604
ag1785
ag1128
ag1102
ag688
ag1276
ag1804
ag553
ag440
ag1382
ag379
ag1283
ag1665
ag1814
ag921
ag1693
ag674
ag250
ag539
ag1569
ag1414
ag1277
ag1135
ag302
ag867
ag723
ag586
ag1644
ag329
ag820
ag702
ag1547
ag248
ag446
ag787
ag1039
ag296
ag1669
ag892
ag1259
ag34
ag491
ag1002
ag259
ag1691
ag859
ag1150
ag1217
ag878
ag200
ag196
ag915
ag620
ag1138
ag635
ag109
ag1738
ag206
ag315
ag939
ag140
ag1122
ag138
ag1842
ag528
ag825
ag1078
ag307
ag1471
ag478
ag901
ag1363
ag665
ag609
ag989
ag975
ag1702
ag1364
ag1600
ag1171
ag1598
ag310
ag713
ag448
ag988
ag1740
ag958
ag80
ag32
ag1772
ag1176
ag751
ag749
ag1449
ag833
ag1527
ag1815
ag717
ag741
ag1407
ag313
ag1725
ag955
ag423
ag428
ag1321
ag76
ag1374
ag1791
ag836
ag1437
ag1075
ag1381
ag1711
ag1566
ag916
ag1023
ag144
ag1627
ag1263
ag1269
ag1270
ag625
ag1302
ag392
ag1410
ag1808
ag1197
ag564
ag1709
ag1335
ag1650
ag1201
ag1211
ag1624
ag1492
ag1775
ag727
ag388
ag1754
ag1250
ag1723
ag925
ag1264
ag926
ag929
ag1638
ag406
ag1222
ag1153
ag502
ag1616
ag230
ag565
ag666
ag770
ag1090
ag137
ag1474
ag8
ag931
ag1246
ag950
ag661
ag460
ag1317
ag458
ag344
ag1235
ag1847
ag663
ag1827
ag506
ag1205
ag803
ag1071
ag894
ag716
ag285
ag1698
ag1056
ag1840
ag941
ag1426
ag938
ag1124
ag1728
ag1757
ag675
ag1486
ag1177
ag1460
ag1099
ag863
ag1851
ag1242
ag1182
ag366
ag983
ag148
ag1567
ag593
ag660
ag1241
ag781
ag21
ag592
ag802
ag654
ag1690
ag530
ag1506
ag1446
ag1281
ag1497
ag505
ag1312
ag824
ag243
ag909
ag1087
ag1234
ag420
ag1149
ag1659
ag9
ag341
ag755
ag1387
ag1703
ag1803
ag78
ag1362
ag987
ag1280
ag806
ag441
ag891
ag1229
ag88
ag757
ag529
ag1510
ag227
ag170
ag359
ag1717
ag1378
ag333
ag463
ag1377
ag436
ag334
ag1240
ag1648
ag792
ag500
ag1469
ag408
ag1265
ag1571
ag95
ag336
ag1144
ag74
ag526
ag1415
ag456
ag1481
ag640
ag1565
ag419
ag260
ag887
ag1550
ag557
ag612
ag1708
ag1168
ag1371
ag960
ag1349
ag914
ag1602
ag1445
ag1465
ag262
ag1549
ag190
ag559
ag1012
ag489
ag754
ag350
ag1044
ag1055
ag1696
ag1529
ag1456
ag41
ag485
ag1164
ag701
ag160
ag438
ag177
ag1677
ag783
ag327
ag861
ag566
ag1511
ag1759
ag201
ag45
ag601
ag1031
ag1403
ag1620
ag503
ag1765
ag740
ag1733
ag899
ag252
ag1422
ag933
ag290
ag1424
ag1309
ag1518
ag84
ag1548
ag972
ag1017
ag1305
ag1021
ag695
ag1187
ag1735
ag1248
ag1528
ag679
ag764
ag362
ag490
ag841
ag597
ag64
ag509
ag1429
ag1395
ag105
ag1119
ag399
ag433
ag1401
ag1047
ag1412
ag142
ag161
ag765
ag1862
ag1692
ag1714
ag1859
ag534
ag1858
ag1869
ag1855
ag1413
ag85
ag1145
ag1315
ag1719
ag965
ag1557
ag1606
ag540
ag1188
ag242
ag1836
ag1404
ag253
ag211
ag1583
ag1739
ag823
ag1794
ag331
ag847
ag467
ag1029
ag175
ag1647
ag636
ag141
ag1695
ag1245
ag63
ag373
ag1824
ag1512
ag936
ag1438
ag455
ag913
ag562
ag1870
ag655
ag1545
ag769
ag1546
ag578
ag768
ag1267
ag171
ag1095
ag949
ag1172
ag1292
ag556
ag1802
ag1369
ag759
ag614
ag1864
ag241
ag425
ag1034
ag1574
ag1687
ag213
ag998
ag1841
ag113
ag214
ag1142
ag1117
ag683
ag1394
ag36
ag1592
ag602
ag1614
ag828
ag1383
ag1159
ag469
ag12
ag1464
ag22
ag673
ag969
ag1540
ag854
ag1224
ag13
ag60
ag1421
ag270
ag1013
ag1243
ag1065
ag705
ag1699
ag1443
ag1314
ag1000
ag992
ag750
ag1085
ag308
ag808
ag1209
ag1284
ag1067
ag357
ag1825
ag1485
ag422
ag309
ag383
ag1689
ag1542
ag1096
ag1194
ag1342
ag1436
ag728
ag1249
ag1873
ag648
ag535
ag162
ag1451
ag1181
ag178
ag464
ag145
ag1796
ag348
ag641
ag363
ag568
ag1453
ag1308
ag77
ag1304
ag1255
ag1507
ag997
ag525
ag1345
ag1106
ag862
ag711
ag397
ag1590
ag572
ag942
ag405
ag1417
ag1701
ag256
ag121
ag1670
ag498
ag1331
ag1835
ag1632
ag652
ag691
ag1594
ag96
ag834
ag784
ag382
ag412
ag1454
ag739
ag1722
ag1793
ag35
ag481
ag1354
ag119
ag238
ag10
ag112
ag24
ag633
ag980
ag829
ag822
ag1143
ag927
ag668
ag1752
ag772
ag67
ag1787
ag585
ag536
ag47
ag1397
ag1766
ag437
ag1782
ag257
ag875
ag1710
ag17
ag896
ag744
ag1737
ag1551
ag132
ag1026
ag54
ag268
ag1311
ag1186
ag332
ag1534
ag457
ag1100
ag1681
ag338
ag189
ag1193
ag442
ag1203
ag164
ag195
ag46
ag1776
ag286
ag979
ag816
ag1532
ag1376
ag1798
ag1370
ag28
ag595
ag786
ag795
ag434
ag1619
ag1318
ag1063
ag51
ag1612
ag1121
ag1615
ag1809
ag1779
ag932
ag922
ag1610
ag439
ag793
ag643
ag1617
ag940
ag1672
ag882
ag345
ag371
ag653
ag316
ag560
ag546
ag120
ag306
ag624
ag710
ag1470
ag866
ag1652
ag394
ag517
ag44
ag1004
ag1860
ag219
ag48
ag1328
ag1674
ag1831
ag295
ag1329
ag827
ag274
ag903
ag961
ag919
ag1520
ag1160
ag832
ag621
ag83
ag1368
ag1863
ag672
ag522
ag670
ag56
ag1580
ag117
ag908
ag639
ag1819
ag1623
ag864
ag474
ag617
ag1515
ag210
ag1502
ag116
ag850
ag984
ag1257
ag628
ag956
ag351
ag224
ag1541
ag904
ag1053
ag692
ag1478
ag447
ag293
ag1274
ag886
ag158
ag1202
ag168
ag587
ag232
ag1141
ag1286
ag1291
ag1790
ag1826
ag731
ag272
ag726
ag656
ag176
ag514
ag993
ag604
ag1830
ag574
ag550
ag589
ag1334
ag1221
ag1504
ag1586
ag1633
ag172
ag1587
ag1230
ag202
ag221
ag1778
ag488
ag1764
ag838
ag1526
ag435
ag135
ag1556
ag658
ag999
ag1491
ag1009
ag1597
ag943
ag496
ag1008
ag58
ag1148
ag1799
ag1823
ag890
ag1795
ag1655
ag1712
ag611
ag1760
ag1810
ag1123
ag664
ag700
ag1380
ag1477
ag1367
ag1560
ag1025
ag594
ag167
ag518
ag89
ag541
ag626
ag699
ag1161
ag1868
ag1867
ag1434
ag1288
ag1389
ag811
ag1214
ag800
ag821
ag1543
ag1713
ag1431
ag389
ag1107
ag90
ag1262
ag1721
ag267
ag1596
ag1747
ag73
ag1743
ag1101
ag1435
ag361
ag1487
ag619
ag254
ag629
ag870
ag1373
ag184
ag554
ag1461
ag1134
ag815
ag317
ag532
ag798
ag1578
ag732
ag898
ag1051
ag1052
ag944
ag1475
ag817
ag330
ag1522
ag1129
ag1872
ag1844
ag976
ag476
ag115
ag1351
ag1388
ag1298
ag1386
ag181
ag1463
ag1294
ag1605
ag512
ag1425
ag558
ag234
ag1613
ag935
ag501
ag1629
ag108
ag1146
ag1375
ag1440
ag830
ag1332
ag1457
ag1848
ag947
ag1393
ag775
ag1236
ag415
ag150
ag151
ag1654
ag1405
ag985
ag1673
ag1167
ag1850
ag1553
ag40
ag1865
ag1455
ag1622
ag837
ag831
ag39
ag1447
ag173
ag430
ag1278
ag1175
ag856
ag1675
ag378
ag1599
ag858
ag1609
ag52
ag900
ag358
ag154
ag1536
ag906
ag733
ag1126
ag1007
ag1208
ag685
ag1174
ag1871
ag516
ag1040
ag1731
ag696
ag865
ag782
ag1649
ag217
ag1131
ag596
ag1643
ag1525
ag659
ag323
ag1771
ag367
ag844
ag471
ag124
ag320
ag473
ag1479
ag155
ag1136
ag1420
ag1089
ag637
ag573
ag1761
ag1114
ag1001
ag1199
ag1852
ag1763
ag1517
ag133
ag1781
ag1558
ag789
ag432
ag393
ag426
ag287
ag991
ag377
ag1162
ag401
ag523
ag374
ag199
ag634
ag247
ag1744
ag1045
ag1127
ag1050
ag963
ag1762
ag1746
ag945
ag1073
ag299
ag237
ag66
ag785
ag1834
ag721
ag598
ag1402
ag1198
ag1428
ag450
ag555
ag591
ag1033
ag1110
ag684
ag1054
ag1653
ag92
ag893
ag682
ag187
ag185
ag776
ag981
ag773
ag1320
ag1820
ag884
ag492
ag1130
ag153
ag1581
ag100
ag521
ag839
ag575
ag1081
ag1476
ag845
ag258
ag1043
ag1005
ag1306
ag994
ag871
ag736
ag343
ag1801
ag693
ag1083
ag590
ag1088
ag778
ag386
ag1251
ag1688
ag907
ag1832
ag128
ag42
ag159
ag1588
ag1094
ag1462
ag49
ag191
ag1307
ag1210
ag511
ag1874
ag1466
ag551
ag279
ag1226
ag1285
ag462
ag805
ag801
ag1228
ag1433
ag205
ag1353
ag1252
ag1418
ag470
ag1391
ag846
ag209
ag1020
ag261
ag1049
ag690
ag1468
ag1667
ag1503
ag608
ag402
ag391
ag1694
ag1628
ag577
ag486
ag395
ag872
ag1118
ag1625
ag616
ag743
ag1483
ag249
ag300
ag149
ag1266
ag53
ag1561
ag255
ag974
ag708
ag1204
ag1120
ag571
ag303
ag1498
ag1104
ag881
ag1408
ag840
ag93
ag747
ag156
ag16
ag139
ag1516
ag352
ag715
ag1219
ag71
ag414
ag879
ag1346
ag1593
ag885
ag1326
ag198
ag355
ag240
ag877
ag1330
ag1631
ag788
ag1450
ag1552
ag519
ag813
ag1784
ag265
ag354
ag1299
ag1137
ag810
ag1679
ag129
ag930
ag23
ag19
ag18
ag642
ag1179
ag1323
ag1115
ag174
ag271
ag1634
ag1079
ag15
ag1108
ag233
ag1082
ag387
ag68
ag376
ag1077
ag101
ag407
ag1333
ag235
ag1748
ag1749
ag1704
ag1861
ag1355
ag1756
ag880
ag957
ag1151
ag746
ag1300
ag1508
ag20
ag26
ag1635
ag1857
ag25
ag615
ag819
ag1086
ag1488
ag1807
ag1218
ag676
ag851
ag245
ag978
ag1603
ag1658
ag888
ag607
ag1256
ag212
ag1838
ag1668
ag1562
ag91
ag431
ag183
ag1027
ag662
ag1734
ag266
ag990
ag1180
ag1093
ag1729
ag1637
ag122
ag1663
ag1439
ag278
ag1170
ag131
ag1856
ag1427
ag1626
ag1062
ag1448
ag1788
ag1032
ag368
ag920
ag1253
ag1833
ag582
ag125
ag1705
ag618
ag761
ag1038
ag1555
ag321
ag443
ag725
ag1816
ag225
ag1495
ag613
ag1212
ag421
ag794
ag1846
ag719
ag986
ag451
ag610
ag1805
ag928
ag1216
ag709
ag724
ag360
ag385
ag623
ag1287
ag1718
ag1225
ag1780
ag264
ag86
ag449
ag520
ag1189
ag1356
ag1268
ag1069
ag911
ag216
ag292
ag380
ag1570
ag1247
ag312
ag398
ag752
ag1494
ag970
ag291
ag1316
ag644
ag576
ag1484
ag687
ag215
ag917
ag1519
ag588
ag1537
ag454
ag1489
ag1584
ag1608
ag971
ag103
ag1419
ag1480
ag1767
ag37
ag479
ag738
ag669
ag1499
ag282
ag1191
ag1324
ag50
ag1768
ag1313
ag762
ag1061
ag410
ag269
ag1601
ag146
ag79
ag147
ag1812
ag1042
ag1015
ag403
ag853
ag487
ag606
ag1577
ag1273
ag228
ag647
ag182
ag657
ag468
ag1750
asS'separator'
p1879
S'='
sS'sparse'
p1880
I01
sb.