ccopy_reg
_reconstructor
p1
(csklearn.feature_extraction.dict_vectorizer
DictVectorizer
p2
c__builtin__
object
p3
NtRp4
(dp5
S'vocabulary_'
p6
(dp7
S'prep=before'
p8
I181
sS'advmod=unlawfully'
p9
I22
sS'w+2=full'
p10
I325
sS'nsubj=someone'
p11
I159
sS'aux=have'
p12
I27
sS'dobj=score'
p13
I104
sS'dobj=information'
p14
I81
sS'w-2=we'
p15
I572
sS'dobj=videotape'
p16
I118
sS'w-2=people'
p17
I542
sS'dobj=percent'
p18
I94
sS'w+2=idea'
p19
I329
sS'nsubj=al-qaida'
p20
I144
sS'xcomp=use'
p21
I590
sS'w+1=diplomatic'
p22
I218
sS'w+2=use'
p23
I389
sS'w-1=candidate'
p24
I410
sS'w-1=India'
p25
I399
sS'ccomp=determine'
p26
I35
sS'w-2=need'
p27
I535
sS'w+2=land'
p28
I336
sS'w+2=freedom'
p29
I322
sS'prep=by'
p30
I182
sS'w-2=country'
p31
I490
sS'w+2=equipment'
p32
I317
sS'w+1=specific'
p33
I259
sS'w+2=master'
p34
I344
sS'w-2=Democrats'
p35
I459
sS'w-2=biologist'
p36
I478
sS'w-2=militant'
p37
I531
sS'w+2=entry'
p38
I316
sS'w-2=solution'
p39
I555
sS'w-2=North'
p40
I464
sS'w+2=nuclear'
p41
I350
sS'w-2=let'
p42
I524
sS'nsubj=Meylor'
p43
I141
sS'advmod=just'
p44
I16
sS'xcomp=solve'
p45
I588
sS'w+2=weapon'
p46
I394
sS'w+2=torture'
p47
I387
sS'w-1=will'
p48
I451
sS'w-1=be'
p49
I407
sS'nsubjpass=U.S.'
p50
I165
sS'w-2=cost'
p51
I488
sS'dobj=order'
p52
I92
sS'advcl=see'
p53
I7
sS'dobj=yield'
p54
I124
sS'mark=until'
p55
I132
sS'w+2=petrol'
p56
I361
sS'w+2=authorization'
p57
I296
sS'w+2=independent'
p58
I332
sS'w-1=trouble'
p59
I444
sS'w-1=president'
p60
I437
sS'w+1=just'
p61
I237
sS'advcl=take'
p62
I8
sS'nsubjpass=support'
p63
I175
sS'dobj=material'
p64
I90
sS'mark=unless'
p65
I131
sS'w-2=without'
p66
I576
sS'w+2=to'
p67
I386
sS'w+2=identification'
p68
I330
sS'w+2=pepper'
p69
I358
sS'dobj=residence'
p70
I101
sS'dobj=statement'
p71
I110
sS'advmod=legally'
p72
I17
sS'advcl=create'
p73
I1
sS'w+2=so-called'
p74
I376
sS'w+2=share'
p75
I375
sS'w-1=have'
p76
I420
sS'w+2=cruel'
p77
I307
sS'w+1=travel'
p78
I267
sS'dobj=homeland'
p79
I79
sS'w+2=in'
p80
I331
sS'dobj=release'
p81
I100
sS'dobj=position'
p82
I97
sS'w-2=hope'
p83
I516
sS'w+1=datum'
p84
I217
sS'w+1=maximum'
p85
I243
sS'ccomp=occur'
p86
I39
sS'w-1=document'
p87
I415
sS'w-1=someone'
p88
I439
sS'prep=about'
p89
I180
sS'aux=can'
p90
I24
sS'complm=that'
p91
I41
sS'nsubjpass=evidence'
p92
I170
sS'w+1=nuclear'
p93
I249
sS'tmod=month'
p94
I195
sS'w+2=legal'
p95
I338
sS'w-2=until'
p96
I567
sS'w+1=court'
p97
I215
sS'w+2=vote'
p98
I391
sS'dobj=permission'
p99
I95
sS'dep=order'
p100
I52
sS'w+2=eliminate'
p101
I313
sS'w-2=effort'
p102
I498
sS'w-2=evidence'
p103
I500
sS'w+2=waiver'
p104
I392
sS'dobj=arrest'
p105
I58
sS'w+1=the'
p106
I262
sS'w+1=illegally'
p107
I231
sS'dobj=visa'
p108
I119
sS'w+1=they'
p109
I263
sS'w-2=group'
p110
I506
sS'advmod=naturally'
p111
I19
sS'w+1=those'
p112
I264
sS'dobj=kilogram'
p113
I84
sS'dobj=record'
p114
I99
sS'w-2=ambition'
p115
I473
sS'w+2=prison'
p116
I365
sS'nsubjpass=#PRP#'
p117
I164
sS'prep=in'
p118
I187
sS'w-1=speech'
p119
I440
sS'w-1=information'
p120
I426
sS'advmod=yet'
p121
I23
sS'dobj=video'
p122
I117
sS'w-2=that'
p123
I561
sS'w+1=immediately'
p124
I232
sS'w-2=adoption'
p125
I469
sS'prep=to'
p126
I190
sS'w-1=evidence'
p127
I416
sS'w-2=study'
p128
I557
sS'dobj=declaration'
p129
I70
sS'nsubjpass=consent'
p130
I168
sS'w+2=arrest'
p131
I294
sS'w+1=and'
p132
I202
sS'w+2=such'
p133
I378
sS'xcomp=keep'
p134
I584
sS'dobj=result'
p135
I102
sS'w+1=ownership'
p136
I250
sS'nsubj=attempt'
p137
I145
sS'w-1=mother'
p138
I429
sS'w+2=for'
p139
I320
sS'nsubj=tax'
p140
I160
sS'w-1=illegally'
p141
I423
sS'w-1=Sarkozy'
p142
I404
sS'advcl=predict'
p143
I6
sS'w-2=insist'
p144
I520
sS'ccomp=violate'
p145
I40
sS'w+1=visa'
p146
I272
sS'w-2=government'
p147
I505
sS'w-2=ban'
p148
I476
sS'w+1=book'
p149
I209
sS'w+1=700'
p150
I199
sS'dobj=which'
p151
I123
sS'dobj=justice'
p152
I83
sS'w-1=in'
p153
I424
sS'w-1=unlawfully'
p154
I445
sS'nsubj=group'
p155
I153
sS'dobj=budget'
p156
I63
sS'w-2=seek'
p157
I554
sS'dobj=weapon'
p158
I122
sS'mark=if'
p159
I127
sS'w+1=asylum'
p160
I204
sS'w+2=Kalashnikov'
p161
I283
sS'mark=in'
p162
I128
sS'w+2=assurance'
p163
I295
sS'w-2=practice'
p164
I544
sS'nsubj=orphanage'
p165
I157
sS'w-2=right'
p166
I551
sS'w-2=state'
p167
I556
sS'w-1=organization'
p168
I436
sS'dobj=permit'
p169
I96
sS'dep=say'
p170
I53
sS'w+1=permission'
p171
I253
sS'dobj=intelligence'
p172
I82
sS'nsubj=Bush'
p173
I135
sS'w-1=official'
p174
I433
sS'w+2=through'
p175
I384
sS'dobj=warrant'
p176
I121
sS'w+2=figure'
p177
I318
sS'dobj=support'
p178
I113
sS'w-2=Bush'
p179
I458
sS'w-2=of'
p180
I536
sS'w-1=to'
p181
I443
sS'w-1=first'
p182
I417
sS'w+2=mistreatment'
p183
I345
sS'w+2=more'
p184
I346
sS'w+2=release'
p185
I368
sS'dobj=assistance'
p186
I59
sS'w-2=do'
p187
I496
sS'nsubjpass=enrichment'
p188
I169
sS'w-2=prospect'
p189
I546
sS'w+1=you'
p190
I275
sS'w-1=verdict'
p191
I446
sS'acomp=much'
p192
I0
sS'w+2=quorum'
p193
I366
sS'w-2=delay'
p194
I492
sS'w+2=residence'
p195
I371
sS'w+2=warrant'
p196
I393
sS'w-1=it'
p197
I427
sS'partmod=use'
p198
I179
sS'prep=over'
p199
I188
sS'w-2=consent'
p200
I487
sS'dobj=cooperation'
p201
I67
sS'conj=seek'
p202
I45
sS'nsubj=company'
p203
I150
sS'w+1=he'
p204
I230
sS'w+2=circulate'
p205
I299
sS'dobj=consensus'
p206
I66
sS'xcomp=have'
p207
I582
sS'w-1=can'
p208
I409
sS'w-2=official'
p209
I538
sS'w+1=mortgage'
p210
I245
sS'conj=circulate'
p211
I42
sS'w-2=able'
p212
I468
sS'w+1=through'
p213
I265
sS'nsubj=mother'
p214
I155
sS'w+2=Voice'
p215
I287
sS'w+2=search'
p216
I374
sS'w+1=weapon'
p217
I273
sS'ccomp=make'
p218
I37
sS'dobj=majority'
p219
I88
sS'prep=for'
p220
I185
sS'w+2=embezzlement'
p221
I314
sS'w+2=percent'
p222
I359
sS'w+1=parliamentary'
p223
I251
sS'xcomp=say'
p224
I587
sS'w+2=over'
p225
I355
sS'advcl=maintain'
p226
I5
sS'dobj=figure'
p227
I76
sS'w-2=Strip'
p228
I465
sS'w+2=statement'
p229
I377
sS'prep=despite'
p230
I183
sS'w-2=Mr.'
p231
I462
sS'w-1=Korea'
p232
I401
sS'w-2=victory'
p233
I570
sS'nsubj=bloc'
p234
I147
sS'w+1=capital'
p235
I211
sS'w+1=46'
p236
I198
sS'dobj=so-called'
p237
I108
sS'auxpass=be'
p238
I31
sS'w+1=fund'
p239
I229
sS'w+2=consensus'
p240
I302
sS'w-2=manage'
p241
I529
sS'w+1=long-denied'
p242
I241
sS'w+1=use'
p243
I270
sS'nsubj=president'
p244
I158
sS'nsubj=Korea'
p245
I140
sS'xcomp=return'
p246
I586
sS'w-1=datum'
p247
I412
sS'w-2=must'
p248
I533
sS'dobj=assurance'
p249
I60
sS'w-2=order'
p250
I539
sS'w-2=1996'
p251
I456
sS'w-2=tape'
p252
I559
sS'w-1=Margolis'
p253
I402
sS'advmod=maybe'
p254
I18
sS'w+1=its'
p255
I236
sS'dobj=something'
p256
I109
sS'w+1=under'
p257
I268
sS'conj=share'
p258
I46
sS'w+1=much'
p259
I246
sS'w+1=snapshot'
p260
I258
sS'nsubj=India'
p261
I138
sS'w+2=Israel'
p262
I282
sS'w+2=theend'
p263
I383
sS'w-2=century'
p264
I482
sS'w+1=credit'
p265
I216
sS'w-2=month'
p266
I532
sS'w+1=confession'
p267
I212
sS'w+2=or'
p268
I352
sS'w+1=bed'
p269
I207
sS'w-2=torture'
p270
I564
sS'w-2=permit'
p271
I543
sS'w+2=fund'
p272
I326
sS'nsubj=year'
p273
I162
sS'nsubj=bribe'
p274
I148
sS'w-1=and'
p275
I406
sS'dobj=advice'
p276
I55
sS'w+1=information'
p277
I234
sS'w-2=recording'
p278
I547
sS'advmod=first'
p279
I11
sS'w+2=about'
p280
I289
sS'prep=without'
p281
I193
sS'w+2=supplies'
p282
I379
sS'w-2=attempt'
p283
I475
sS'w+2=approval'
p284
I293
sS'w-2=room'
p285
I552
sS'w-2=guilty'
p286
I507
sS'w+2=counterfeiting'
p287
I305
sS'w-2=you'
p288
I578
sS'dobj=datum'
p289
I69
sS'w+2=from'
p290
I323
sS'w-2=who'
p291
I575
sS'w+2=order'
p292
I353
sS'w+2=necessary'
p293
I347
sS'w+2=travel'
p294
I388
sS'w+2=better'
p295
I297
sS'w+1=score'
p296
I257
sS'w+1=because'
p297
I206
sS'ccomp=need'
p298
I38
sS'w-2=terrorist'
p299
I560
sS'w-1=money'
p300
I428
sS'w+1=uranium'
p301
I269
sS'w-2=Iran'
p302
I461
sS'mark=though'
p303
I130
sS'w+2=economic'
p304
I311
sS'nsubjpass=recording'
p305
I173
sS'w-2=here'
p306
I515
sS'dobj=degree'
p307
I71
sS'nsubjpass=approval'
p308
I167
sS'w-1=fraudulently'
p309
I418
sS'conj=speak'
p310
I47
sS'w-2=which'
p311
I574
sS'w-1=bloc'
p312
I408
sS'w+2=required'
p313
I370
sS'conj=target'
p314
I48
sS'nsubj=Vazquez'
p315
I143
sS'advmod=even'
p316
I10
sS'dobj=approval'
p317
I57
sS'w-2=child'
p318
I484
sS'w+2=Pentagon'
p319
I284
sS'w+1=need'
p320
I247
sS'w+2=technology'
p321
I381
sS'w-1=Iran'
p322
I400
sS'w-2=expect'
p323
I501
sS'w+1=donation'
p324
I219
sS'w-2=orphanage'
p325
I540
sS'nsubj=developer'
p326
I152
sS'aux=do'
p327
I26
sS'w+2=key'
p328
I334
sS'w-2=Agency'
p329
I457
sS'w+2=satellite'
p330
I373
sS'w-2=letter'
p331
I525
sS'w-2=also'
p332
I472
sS'aux=will'
p333
I30
sS'w-2=weapon'
p334
I573
sS'w+2=many'
p335
I343
sS'w+2=net'
p336
I348
sS'w+2=new'
p337
I349
sS'dobj=capital'
p338
I64
sS'w+1=approval'
p339
I203
sS'w+2=detail'
p340
I309
sS'prep=with'
p341
I192
sS'w+2=loan'
p342
I340
sS'w+2=papers'
p343
I356
sS'xcomp=suspend'
p344
I589
sS'w+2=majority'
p345
I341
sS'w+2=latest'
p346
I337
sS'w-1=video'
p347
I447
sS'w-2=lawyer'
p348
I523
sS'w-2=if'
p349
I518
sS'w-2=India'
p350
I460
sS'w-2=in'
p351
I519
sS'w-2=president'
p352
I545
sS'w-1=recently'
p353
I438
sS'w-2=day'
p354
I491
sS'w-2=nation'
p355
I534
sS'w-2=it'
p356
I521
sS'w+1=permanent'
p357
I252
sS'w-2=little'
p358
I527
sS'nsubjpass=number'
p359
I172
sS'w-1=60'
p360
I397
sS'dobj=idea'
p361
I80
sS'dobj=freedom'
p362
I77
sS'w-2=unreliable'
p363
I566
sS'conj=identical'
p364
I44
sS'dobj=credit'
p365
I68
sS'w+1=russian'
p366
I256
sS'dobj=confession'
p367
I65
sS'w-2=determine'
p368
I493
sS'conj=use'
p369
I49
sS'dobj=license'
p370
I85
sS'w+2=civil'
p371
I300
sS'w-1=after'
p372
I405
sS"w+2=''"
p373
I277
sS'w+2=fraud'
p374
I321
sS'w-2=help'
p375
I514
sS'advmod=also'
p376
I9
sS'w+2=fuel'
p377
I324
sS'w-1=waysto'
p378
I449
sS'dobj=detail'
p379
I72
sS'w+2=phone'
p380
I362
sS'mark=because'
p381
I126
sS'w+2=prescription'
p382
I364
sS'w-2=have'
p383
I510
sS'w-2=gay'
p384
I504
sS'cc=and'
p385
I32
sS'dobj=margin'
p386
I89
sS'prep=under'
p387
I191
sS'dobj=waiver'
p388
I120
sS'w-1=we'
p389
I450
sS'nsubj=Democrats'
p390
I136
sS'w-2=use'
p391
I568
sS'w+1=more'
p392
I244
sS'w+1=by'
p393
I210
sS'ccomp=dry'
p394
I36
sS'w+2=Associated'
p395
I280
sS'nsubj=Sarkozy'
p396
I142
sS'w-1=they'
p397
I442
sS'w-2=resign'
p398
I550
sS'w-2=war'
p399
I571
sS'w+2=visa'
p400
I390
sS'w-1=Gingras'
p401
I398
sS'nsubj=official'
p402
I156
sS'w-2=ability'
p403
I467
sS'w-1=Meylor'
p404
I403
sS'w+1=in'
p405
I233
sS'w-2=vice'
p406
I569
sS'w-2=be'
p407
I477
sS'w+2=title'
p408
I385
sS'w+2=information'
p409
I333
sS'dobj=that'
p410
I115
sS'nsubj=#PRP#'
p411
I134
sS'w+1=training'
p412
I266
sS'w-1=from'
p413
I419
sS'w+1=justice'
p414
I238
sS'nsubjpass=vaccine'
p415
I177
sS'w-1=visa'
p416
I448
sS'w-1=help'
p417
I422
sS'w+1=israeli'
p418
I235
sS'w-2=schedule'
p419
I553
sS'aux=could'
p420
I25
sS'w-1=company'
p421
I411
sS'w-2=find'
p422
I503
sS'advcl=face'
p423
I3
sS'dobj=papers'
p424
I93
sS'dep=if'
p425
I51
sS'w+1=congressional'
p426
I213
sS'w-1=without'
p427
I452
sS'w+2=raw'
p428
I367
sS'aux=must'
p429
I28
sS'w-1=difficulty'
p430
I414
sS'w-2=the'
p431
I562
sS'w-2=bribe'
p432
I479
sS'nsubj=biologist'
p433
I146
sS'w+1=legally'
p434
I240
sS'w-2=charter'
p435
I483
sS'xcomp=challenge'
p436
I580
sS'w-2=engineering'
p437
I499
sS'advmod=illegally'
p438
I14
sS'mark=after'
p439
I125
sS'nsubjpass=some'
p440
I174
sS'nsubj=man'
p441
I154
sS'nsubjpass=#NUMBER#'
p442
I163
sS'w-2=by'
p443
I480
sS'advcl=cut'
p444
I2
sS'w+1=fresh'
p445
I225
sS'w-2=could'
p446
I489
sS'dobj=rifle'
p447
I103
sS'dobj=authorization'
p448
I61
sS'dobj=$'
p449
I54
sS'w+2=election'
p450
I312
sS'advmod=recently'
p451
I20
sS'w+2=of'
p452
I351
sS'w-2=region'
p453
I549
sS'nsubj=crackdown'
p454
I151
sS'w-2=talk'
p455
I558
sS'w+1=without'
p456
I274
sS'w-2=hard'
p457
I508
sS'w-2=to'
p458
I563
sS'w-2=against'
p459
I470
sS'w-2=can'
p460
I481
sS'w-1=on'
p461
I434
sS'w+2=yield'
p462
I395
sS'nsubj=church'
p463
I149
sS'w+2=any'
p464
I292
sS'w-1=or'
p465
I435
sS'w+2=despite'
p466
I308
sS'w-1=of'
p467
I432
sS'w+2=license'
p468
I339
sS'conj=go'
p469
I43
sS'w+2=and'
p470
I291
sS'tmod=#DATE#'
p471
I194
sS'w-2=and'
p472
I474
sS'w+2=kilogram'
p473
I335
sS'w-1=start'
p474
I441
sS'w-2=allege'
p475
I471
sS'w+1=private'
p476
I254
sS'mark=so'
p477
I129
sS'w-2=try'
p478
I565
sS'w+2=mandate'
p479
I342
sS'xcomp=override'
p480
I585
sS'w-2=he'
p481
I511
sS'w-2=NASA'
p482
I463
sS'dobj=sentence'
p483
I105
sS'dep=difficult'
p484
I50
sS'w-2=regard'
p485
I548
sS'w+2=Development'
p486
I281
sS'dobj=agreement'
p487
I56
sS'w-2=church'
p488
I485
sS'w+2=book'
p489
I298
sS'w+2=the'
p490
I382
sS'nsubjpass=weapon'
p491
I178
sS'w-2=,'
p492
I454
sS'w+2=controversial'
p493
I303
sS'w-2=.'
p494
I455
sS'w-2=$'
p495
I453
sS'w-1=developer'
p496
I413
sS'dobj=number'
p497
I91
sS'advmod=south'
p498
I21
sS'w-2=heavily'
p499
I513
sS'w-1=,'
p500
I396
sS'dobj=share'
p501
I106
sS'w+2=advice'
p502
I290
sS'dobj=technology'
p503
I114
sS'w+1=videotape'
p504
I271
sS'w+2=grudging'
p505
I328
sS'w+1=equipment'
p506
I223
sS'w-2=how'
p507
I517
sS'prep=through'
p508
I189
sS'dobj=fund'
p509
I78
sS'w-2=other'
p510
I541
sS'w+1=full'
p511
I228
sS'w+1=during'
p512
I221
sS'w+1=authorization'
p513
I205
sS'dobj=status'
p514
I111
sS'dobj=title'
p515
I116
sS'w-2=a'
p516
I466
sS'w+1=fuel'
p517
I227
sS'xcomp=help'
p518
I583
sS'w-2=late'
p519
I522
sS'w-2=difficulty'
p520
I495
sS'dobj=line'
p521
I86
sS'w-2=officer'
p522
I537
sS'w-1=he'
p523
I421
sS'xcomp=assist'
p524
I579
sS'w+1=many'
p525
I242
sS'w+1=reliable'
p526
I255
sS'w-2=member'
p527
I530
sS'dobj=supplies'
p528
I112
sS'nsubj=waysto'
p529
I161
sS'advmod=immediately'
p530
I15
sS'w+1=from'
p531
I226
sS'dobj=donation'
p532
I74
sS'nsubjpass=antibiotic'
p533
I166
sS'w-2=harder'
p534
I509
sS'w-1=must'
p535
I430
sS'w-2=cite'
p536
I486
sS'w-2=year'
p537
I577
sS'w+1=enough'
p538
I222
sS'w+2=enrichment'
p539
I315
sS'w+2=parent'
p540
I357
sS'w+1=construction'
p541
I214
sS'dobj=book'
p542
I62
sS'w+2=comfortable'
p543
I301
sS'w-2=likely'
p544
I526
sS'w+2=court'
p545
I306
sS'advmod=how'
p546
I13
sS'w+2=permit'
p547
I360
sS'w+2=U.S.'
p548
I286
sS'w-2=head'
p549
I512
sS'w-2=experience'
p550
I502
sS'prep=from'
p551
I186
sS'w+2=other'
p552
I354
sS'advmod=fraudulently'
p553
I12
sS'dobj=equipment'
p554
I75
sS'w+1=dry'
p555
I220
sS'w+2=republican'
p556
I369
sS'ccomp=act'
p557
I33
sS'dobj=snapshot'
p558
I107
sS'aux=to'
p559
I29
sS'w+1=before'
p560
I208
sS'dobj=quorum'
p561
I98
sS'advcl=go'
p562
I4
sS'w+1=such'
p563
I260
sS'w-2=location'
p564
I528
sS'w+1=new'
p565
I248
sS'w+1=exact'
p566
I224
sS'nsubjpass=information'
p567
I171
sS'nsubj=Iran'
p568
I139
sS'w+1=,'
p569
I196
sS'w+1=.'
p570
I197
sS'w+2=fixed'
p571
I319
sS'w+2=position'
p572
I363
sS'w+2=.'
p573
I279
sS'w+2=,'
p574
I278
sS'dobj=document'
p575
I73
sS'w+2=genuine'
p576
I327
sS'neg=not'
p577
I133
sS'w+2=$'
p578
I276
sS'w+2=Turkey'
p579
I285
sS'prep=during'
p580
I184
sS'w-2=dollar'
p581
I497
sS'nsubjpass=tape'
p582
I176
sS'nsubj=Gingras'
p583
I137
sS'ccomp=come'
p584
I34
sS'xcomp=cross'
p585
I581
sS'dobj=loan'
p586
I87
sS'w+1=telephone'
p587
I261
sS'w+2=support'
p588
I380
sS'w+1=a'
p589
I200
sS'w-1=not'
p590
I431
sS'w+2=result'
p591
I372
sS'w-2=difficult'
p592
I494
sS'w-1=include'
p593
I425
sS'w+2=document'
p594
I310
sS'w+1=legal'
p595
I239
sS'w+2=cooperation'
p596
I304
sS'w+1=accurate'
p597
I201
sS'w+2=a'
p598
I288
ssS'dtype'
p599
cnumpy
float64
p600
sS'feature_names_'
p601
(lp602
g192
ag73
ag444
ag423
ag562
ag226
ag143
ag53
ag62
ag376
ag316
ag279
ag553
ag546
ag438
ag530
ag44
ag72
ag254
ag111
ag451
ag498
ag9
ag121
ag90
ag420
ag327
ag12
ag429
ag559
ag333
ag238
ag385
ag557
ag584
ag26
ag394
ag218
ag298
ag86
ag145
ag91
ag211
ag469
ag364
ag202
ag258
ag310
ag314
ag369
ag484
ag425
ag100
ag170
ag449
ag276
ag487
ag317
ag105
ag186
ag249
ag448
ag542
ag156
ag338
ag367
ag206
ag201
ag365
ag289
ag129
ag307
ag379
ag575
ag532
ag554
ag227
ag362
ag509
ag79
ag361
ag14
ag172
ag152
ag113
ag370
ag521
ag586
ag219
ag386
ag64
ag497
ag52
ag424
ag18
ag99
ag169
ag82
ag561
ag114
ag81
ag70
ag135
ag447
ag13
ag483
ag501
ag558
ag237
ag256
ag71
ag514
ag528
ag178
ag503
ag410
ag515
ag122
ag16
ag108
ag388
ag176
ag158
ag151
ag54
ag439
ag381
ag159
ag162
ag477
ag303
ag65
ag55
ag577
ag411
ag173
ag390
ag583
ag261
ag568
ag245
ag43
ag396
ag315
ag20
ag137
ag433
ag234
ag274
ag463
ag203
ag454
ag326
ag155
ag441
ag214
ag402
ag165
ag244
ag11
ag140
ag529
ag273
ag442
ag117
ag50
ag533
ag308
ag130
ag188
ag92
ag567
ag359
ag305
ag440
ag63
ag582
ag415
ag491
ag198
ag89
ag8
ag30
ag230
ag580
ag220
ag551
ag118
ag199
ag508
ag126
ag387
ag341
ag281
ag471
ag94
ag569
ag570
ag236
ag150
ag589
ag597
ag132
ag339
ag160
ag513
ag297
ag269
ag560
ag149
ag393
ag235
ag267
ag426
ag541
ag97
ag265
ag84
ag22
ag324
ag555
ag512
ag538
ag506
ag566
ag445
ag531
ag517
ag511
ag239
ag204
ag107
ag124
ag405
ag277
ag418
ag255
ag61
ag414
ag595
ag434
ag242
ag525
ag85
ag392
ag210
ag259
ag320
ag565
ag93
ag136
ag223
ag357
ag171
ag476
ag526
ag366
ag296
ag260
ag33
ag563
ag587
ag106
ag109
ag112
ag213
ag412
ag78
ag257
ag301
ag243
ag504
ag146
ag217
ag456
ag190
ag578
ag373
ag574
ag573
ag395
ag486
ag262
ag161
ag319
ag579
ag548
ag215
ag598
ag280
ag502
ag470
ag464
ag284
ag131
ag163
ag57
ag295
ag489
ag205
ag371
ag543
ag240
ag493
ag596
ag287
ag545
ag77
ag466
ag340
ag594
ag304
ag450
ag101
ag221
ag539
ag38
ag32
ag177
ag571
ag139
ag374
ag29
ag290
ag377
ag10
ag272
ag576
ag505
ag19
ag68
ag80
ag58
ag409
ag328
ag473
ag28
ag346
ag95
ag468
ag342
ag345
ag479
ag335
ag34
ag183
ag184
ag293
ag336
ag337
ag41
ag452
ag268
ag292
ag552
ag225
ag343
ag540
ag69
ag222
ag547
ag56
ag380
ag572
ag382
ag116
ag193
ag428
ag185
ag556
ag313
ag195
ag591
ag330
ag216
ag75
ag74
ag229
ag133
ag282
ag588
ag321
ag490
ag263
ag175
ag408
ag67
ag47
ag294
ag23
ag400
ag98
ag104
ag196
ag46
ag462
ag500
ag360
ag401
ag25
ag322
ag232
ag253
ag404
ag142
ag372
ag275
ag49
ag312
ag208
ag24
ag421
ag247
ag496
ag430
ag87
ag127
ag182
ag309
ag413
ag76
ag523
ag417
ag141
ag153
ag593
ag120
ag197
ag300
ag138
ag535
ag590
ag467
ag174
ag461
ag465
ag168
ag60
ag353
ag88
ag119
ag474
ag397
ag181
ag59
ag154
ag191
ag347
ag416
ag378
ag389
ag48
ag427
ag495
ag492
ag494
ag251
ag329
ag179
ag35
ag350
ag302
ag231
ag482
ag40
ag228
ag516
ag403
ag212
ag125
ag459
ag475
ag332
ag115
ag472
ag283
ag148
ag407
ag36
ag432
ag443
ag460
ag264
ag435
ag318
ag488
ag536
ag200
ag51
ag446
ag31
ag354
ag194
ag368
ag592
ag520
ag187
ag581
ag102
ag437
ag103
ag323
ag550
ag422
ag384
ag147
ag110
ag286
ag457
ag534
ag383
ag481
ag549
ag499
ag375
ag306
ag83
ag507
ag349
ag351
ag144
ag356
ag519
ag348
ag42
ag331
ag544
ag358
ag564
ag241
ag527
ag37
ag266
ag248
ag355
ag27
ag180
ag522
ag209
ag250
ag325
ag510
ag17
ag271
ag164
ag352
ag189
ag278
ag485
ag453
ag398
ag166
ag285
ag419
ag157
ag39
ag167
ag128
ag455
ag252
ag299
ag123
ag431
ag458
ag270
ag478
ag363
ag96
ag391
ag406
ag233
ag399
ag15
ag334
ag311
ag291
ag66
ag537
ag288
ag524
ag436
ag585
ag207
ag518
ag134
ag480
ag246
ag224
ag45
ag344
ag21
asS'separator'
p603
S'='
sS'sparse'
p604
I01
sb.