ccopy_reg
_reconstructor
p1
(csklearn.feature_extraction.dict_vectorizer
DictVectorizer
p2
c__builtin__
object
p3
NtRp4
(dp5
S'sort'
p6
I01
sS'feature_names_'
p7
(lp8
S'acomp=good'
p9
aS'advcl=begin'
p10
aS'advcl=calmer'
p11
aS'advcl=claim'
p12
aS'advcl=come'
p13
aS'advcl=complete'
p14
aS'advcl=do'
p15
aS'advcl=end'
p16
aS'advcl=even'
p17
aS'advcl=fail'
p18
aS'advcl=finalize'
p19
aS'advcl=go'
p20
aS'advcl=leave'
p21
aS'advcl=make'
p22
aS'advcl=need'
p23
aS'advcl=receive'
p24
aS'advcl=refuse'
p25
aS'advcl=report'
p26
aS'advcl=return'
p27
aS'advcl=say'
p28
aS'advcl=set'
p29
aS'advcl=step'
p30
aS'advcl=travel'
p31
aS'advcl=way'
p32
aS'advmod=abroad'
p33
aS'advmod=accurately'
p34
aS'advmod=afterward'
p35
aS'advmod=again'
p36
aS'advmod=ago'
p37
aS'advmod=ahead'
p38
aS'advmod=allegedly'
p39
aS'advmod=already'
p40
aS'advmod=also'
p41
aS'advmod=apparently'
p42
aS'advmod=as'
p43
aS'advmod=at'
p44
aS'advmod=carefully'
p45
aS'advmod=centrally'
p46
aS'advmod=certainly'
p47
aS'advmod=currently'
p48
aS'advmod=early'
p49
aS'advmod=even'
p50
aS'advmod=forward'
p51
aS'advmod=further'
p52
aS'advmod=highly'
p53
aS'advmod=how'
p54
aS'advmod=indeed'
p55
aS'advmod=initially'
p56
aS'advmod=instead'
p57
aS'advmod=later'
p58
aS'advmod=long'
p59
aS'advmod=longer'
p60
aS'advmod=meanwhile'
p61
aS'advmod=meticulously'
p62
aS'advmod=minimally'
p63
aS'advmod=more'
p64
aS'advmod=much'
p65
aS'advmod=normally'
p66
aS'advmod=now'
p67
aS'advmod=originally'
p68
aS'advmod=poorly'
p69
aS'advmod=properly'
p70
aS'advmod=shortly'
p71
aS'advmod=simply'
p72
aS'advmod=so'
p73
aS'advmod=soon'
p74
aS'advmod=still'
p75
aS'advmod=than'
p76
aS'advmod=then'
p77
aS'advmod=there'
p78
aS'advmod=unfortunately'
p79
aS'advmod=up'
p80
aS'advmod=well'
p81
aS'advmod=when'
p82
aS'advmod=where'
p83
aS'advmod=why'
p84
aS'amod=#NUMBER#'
p85
aS'amod=accelerate'
p86
aS'amod=actual'
p87
aS'amod=aggressive'
p88
aS'amod=agree'
p89
aS'amod=agricultural'
p90
aS'amod=allege'
p91
aS'amod=alleged'
p92
aS'amod=alternative'
p93
aS'amod=ambitious'
p94
aS'amod=american'
p95
aS'amod=announce'
p96
aS'amod=annual'
p97
aS'amod=australian'
p98
aS'amod=back-up'
p99
aS'amod=basic'
p100
aS'amod=better'
p101
aS'amod=big'
p102
aS'amod=bigger'
p103
aS'amod=blue'
p104
aS'amod=bold'
p105
aS'amod=broader'
p106
aS'amod=clear'
p107
aS'amod=colombian'
p108
aS'amod=comprehensive'
p109
aS'amod=concrete'
p110
aS'amod=confidence-building'
p111
aS'amod=controversial'
p112
aS'amod=coordinate'
p113
aS'amod=corporate'
p114
aS'amod=current'
p115
aS'amod=cut'
p116
aS'amod=dangerous'
p117
aS'amod=democratic'
p118
aS'amod=democratically-controlled'
p119
aS'amod=detailed'
p120
aS'amod=different'
p121
aS'amod=donor-funded'
p122
aS'amod=dual'
p123
aS'amod=dumbest'
p124
aS'amod=earlier'
p125
aS'amod=easier'
p126
aS'amod=economic'
p127
aS'amod=effective'
p128
aS'amod=egyptian'
p129
aS'amod=electoral'
p130
aS'amod=entire'
p131
aS'amod=escue'
p132
aS'amod=european'
p133
aS'amod=evil'
p134
aS'amod=evolve'
p135
aS'amod=extensive'
p136
aS'amod=faster-than-expected'
p137
aS'amod=federal'
p138
aS'amod=final'
p139
aS'amod=financial'
p140
aS'amod=firm'
p141
aS'amod=fiscal'
p142
aS'amod=five-year'
p143
aS'amod=five-year-old'
p144
aS'amod=flawed'
p145
aS'amod=food-to-fuel'
p146
aS'amod=foreign'
p147
aS'amod=formal'
p148
aS'amod=forward-looking'
p149
aS'amod=four-year'
p150
aS'amod=funded'
p151
aS'amod=funeral'
p152
aS'amod=future'
p153
aS'amod=global'
p154
aS'amod=good'
p155
aS'amod=government-led'
p156
aS'amod=grand'
p157
aS'amod=green'
p158
aS'amod=imf-backed'
p159
aS'amod=immediate'
p160
aS'amod=individual'
p161
aS'amod=initial'
p162
aS'amod=innovative'
p163
aS'amod=interim'
p164
aS'amod=international'
p165
aS'amod=internationally'
p166
aS'amod=internationally-backed'
p167
aS'amod=iranian'
p168
aS'amod=iraqi'
p169
aS'amod=israeli'
p170
aS'amod=japanese'
p171
aS'amod=joint'
p172
aS'amod=larger'
p173
aS'amod=latest'
p174
aS'amod=legislative'
p175
aS'amod=local'
p176
aS'amod=localized'
p177
aS'amod=long'
p178
aS'amod=long-range'
p179
aS'amod=long-term'
p180
aS'amod=many'
p181
aS'amod=mideast'
p182
aS'amod=military'
p183
aS'amod=missile-defense'
p184
aS'amod=modest'
p185
aS'amod=multi-faceted'
p186
aS'amod=multi-million'
p187
aS'amod=multi-year'
p188
aS'amod=national'
p189
aS'amod=new'
p190
aS'amod=neweuro-mediterranean'
p191
aS'amod=nuclear'
p192
aS'amod=old'
p193
aS'amod=operational'
p194
aS'amod=original'
p195
aS'amod=other'
p196
aS'amod=overall'
p197
aS'amod=own'
p198
aS'amod=polar'
p199
aS'amod=political'
p200
aS'amod=possible'
p201
aS'amod=post-musharraf'
p202
aS'amod=power-sharing'
p203
aS'amod=presidential'
p204
aS'amod=previous'
p205
aS'amod=private'
p206
aS'amod=propose'
p207
aS'amod=rapid'
p208
aS'amod=real'
p209
aS'amod=recent'
p210
aS'amod=report'
p211
aS'amod=responsible'
p212
aS'amod=revise'
p213
aS'amod=rule'
p214
aS'amod=rural'
p215
aS'amod=russian'
p216
aS'amod=saudi-authored'
p217
aS'amod=saudi-brokered'
p218
aS'amod=secret'
p219
aS'amod=senegalese'
p220
aS'amod=short-term'
p221
aS'amod=similar'
p222
aS'amod=single'
p223
aS'amod=six-point'
p224
aS'amod=six-step'
p225
aS'amod=six-year'
p226
aS'amod=small'
p227
aS'amod=sophisticated'
p228
aS'amod=specific'
p229
aS'amod=standardized'
p230
aS'amod=stay-behind'
p231
aS'amod=step-by-step'
p232
aS'amod=strategic'
p233
aS'amod=substantial'
p234
aS'amod=such'
p235
aS'amod=syrian'
p236
aS'amod=take-back'
p237
aS'amod=tentative'
p238
aS'amod=terrorist'
p239
aS'amod=thought-out'
p240
aS'amod=thoughtful'
p241
aS'amod=three-phase'
p242
aS'amod=three-point'
p243
aS'amod=three-year'
p244
aS'amod=troop-surge'
p245
aS'amod=turkish'
p246
aS'amod=u.s.-mediated'
p247
aS'amod=ultimate'
p248
aS'amod=un-backed'
p249
aS'amod=unique'
p250
aS'amod=universal'
p251
aS'amod=unprecedented'
p252
aS'amod=update'
p253
aS'amod=venezuelan'
p254
aS'amod=voluntary'
p255
aS'amod=well-conceived'
p256
aS'amod=western'
p257
aS'amod=western-backed'
p258
aS'amod=wide-ranging'
p259
aS'amod=work-study'
p260
aS'amod=year'
p261
aS'appos=House'
p262
aS'appos=ongoing'
p263
aS'appos=part'
p264
aS'appos=plan'
p265
aS'aux=be'
p266
aS'aux=can'
p267
aS'aux=do'
p268
aS'aux=have'
p269
aS'aux=may'
p270
aS'aux=should'
p271
aS'aux=to'
p272
aS'aux=will'
p273
aS'auxpass=be'
p274
aS'cc=and'
p275
aS'cc=but'
p276
aS'cc=or'
p277
aS'cc=well'
p278
aS'ccomp=aim'
p279
aS'ccomp=attack'
p280
aS'ccomp=be'
p281
aS'ccomp=bring'
p282
aS'ccomp=conduct'
p283
aS'ccomp=exploit'
p284
aS'ccomp=have'
p285
aS'ccomp=know'
p286
aS'ccomp=look'
p287
aS'ccomp=make'
p288
aS'ccomp=meet'
p289
aS'ccomp=pay'
p290
aS'ccomp=plan'
p291
aS'ccomp=resolve'
p292
aS'ccomp=say'
p293
aS'ccomp=scrap'
p294
aS'ccomp=tell'
p295
aS'ccomp=walk'
p296
aS'ccomp=would'
p297
aS'complm=that'
p298
aS'complm=whether'
p299
aS'conj=#NUMBER#'
p300
aS'conj=add'
p301
aS'conj=address'
p302
aS'conj=affect'
p303
aS'conj=announce'
p304
aS'conj=anxious'
p305
aS'conj=be'
p306
aS'conj=benefit'
p307
aS'conj=bring'
p308
aS'conj=cancel'
p309
aS'conj=carry'
p310
aS'conj=come'
p311
aS'conj=crack'
p312
aS'conj=date'
p313
aS'conj=decision'
p314
aS'conj=defens'
p315
aS'conj=delay'
p316
aS'conj=die'
p317
aS'conj=drop'
p318
aS'conj=effort'
p319
aS'conj=encourage'
p320
aS'conj=execute'
p321
aS'conj=expect'
p322
aS'conj=go'
p323
aS'conj=have'
p324
aS'conj=help'
p325
aS'conj=hope'
p326
aS'conj=idea'
p327
aS'conj=indicator'
p328
aS'conj=intention'
p329
aS'conj=irk'
p330
aS'conj=issue'
p331
aS'conj=lean'
p332
aS'conj=leave'
p333
aS'conj=make'
p334
aS'conj=move'
p335
aS'conj=need'
p336
aS'conj=nervous'
p337
aS'conj=not'
p338
aS'conj=order'
p339
aS'conj=other'
p340
aS'conj=postpone'
p341
aS'conj=prepare'
p342
aS'conj=president'
p343
aS'conj=promise'
p344
aS'conj=purpose'
p345
aS'conj=reform'
p346
aS'conj=say'
p347
aS'conj=see'
p348
aS'conj=set'
p349
aS'conj=spend'
p350
aS'conj=spree'
p351
aS'conj=strategy'
p352
aS'conj=supervise'
p353
aS'conj=support'
p354
aS'conj=surge'
p355
aS'conj=target'
p356
aS'conj=terrorism'
p357
aS'conj=the'
p358
aS'conj=think'
p359
aS'conj=vision'
p360
aS'conj=want'
p361
aS'conj=way'
p362
aS'conj=wish'
p363
aS'conj=with'
p364
aS'cop=be'
p365
aS'csubj=receive'
p366
aS'csubj=report'
p367
aS'dep=#NUMBER#'
p368
aS'dep=accuse'
p369
aS'dep=agree'
p370
aS'dep=airline'
p371
aS'dep=albeit'
p372
aS'dep=as'
p373
aS'dep=b'
p374
aS'dep=be'
p375
aS'dep=both'
p376
aS'dep=catch'
p377
aS'dep=chance'
p378
aS'dep=difficult'
p379
aS'dep=do'
p380
aS'dep=exactly'
p381
aS'dep=for'
p382
aS'dep=have'
p383
aS'dep=hold'
p384
aS'dep=import'
p385
aS'dep=lawyer'
p386
aS'dep=maintain'
p387
aS'dep=mislead'
p388
aS'dep=nation'
p389
aS'dep=operate'
p390
aS'dep=oppose'
p391
aS'dep=or'
p392
aS'dep=propose'
p393
aS'dep=provide'
p394
aS'dep=reduce'
p395
aS'dep=say'
p396
aS'dep=security'
p397
aS'dep=shift'
p398
aS'dep=so'
p399
aS'dep=talk'
p400
aS'dep=that'
p401
aS'dep=tonight'
p402
aS'dep=try'
p403
aS'dep=what'
p404
aS'dep=withdraw'
p405
aS'det=a'
p406
aS'det=all'
p407
aS'det=another'
p408
aS'det=any'
p409
aS'det=both'
p410
aS'det=neither'
p411
aS'det=no'
p412
aS'det=some'
p413
aS'det=that'
p414
aS'det=the'
p415
aS'det=these'
p416
aS'det=this'
p417
aS'det=those'
p418
aS'dobj=#PRP#'
p419
aS'dobj=Bowl'
p420
aS'dobj=act'
p421
aS'dobj=action'
p422
aS'dobj=address'
p423
aS'dobj=appeal'
p424
aS'dobj=approach'
p425
aS'dobj=area'
p426
aS'dobj=assassination'
p427
aS'dobj=assault'
p428
aS'dobj=assessment'
p429
aS'dobj=attack'
p430
aS'dobj=attempt'
p431
aS'dobj=beheading'
p432
aS'dobj=beneficiary'
p433
aS'dobj=bombing'
p434
aS'dobj=campaign'
p435
aS'dobj=celebration'
p436
aS'dobj=change'
p437
aS'dobj=competition'
p438
aS'dobj=conference'
p439
aS'dobj=control'
p440
aS'dobj=coup'
p441
aS'dobj=crackdown'
p442
aS'dobj=crossing'
p443
aS'dobj=demonstration'
p444
aS'dobj=disruption'
p445
aS'dobj=effort'
p446
aS'dobj=election'
p447
aS'dobj=event'
p448
aS'dobj=exercise'
p449
aS'dobj=exhibit'
p450
aS'dobj=expansion'
p451
aS'dobj=festivity'
p452
aS'dobj=finances'
p453
aS'dobj=first'
p454
aS'dobj=flight'
p455
aS'dobj=funding'
p456
aS'dobj=hearing'
p457
aS'dobj=homage'
p458
aS'dobj=invasion'
p459
aS'dobj=jailbreak'
p460
aS'dobj=march'
p461
aS'dobj=measure'
p462
aS'dobj=meeting'
p463
aS'dobj=minister'
p464
aS'dobj=mission'
p465
aS'dobj=mixed-faith'
p466
aS'dobj=number'
p467
aS'dobj=operation'
p468
aS'dobj=party'
p469
aS'dobj=program'
p470
aS'dobj=project'
p471
aS'dobj=protest'
p472
aS'dobj=provocation'
p473
aS'dobj=put'
p474
aS'dobj=rally'
p475
aS'dobj=rate'
p476
aS'dobj=register'
p477
aS'dobj=relay'
p478
aS'dobj=resource'
p479
aS'dobj=return'
p480
aS'dobj=role'
p481
aS'dobj=round'
p482
aS'dobj=run'
p483
aS'dobj=sale'
p484
aS'dobj=series'
p485
aS'dobj=solution'
p486
aS'dobj=southeast'
p487
aS'dobj=step'
p488
aS'dobj=strain'
p489
aS'dobj=strategy'
p490
aS'dobj=strike'
p491
aS'dobj=study'
p492
aS'dobj=suicide'
p493
aS'dobj=summit'
p494
aS'dobj=that'
p495
aS'dobj=time'
p496
aS'dobj=torch'
p497
aS'dobj=tour'
p498
aS'dobj=trial'
p499
aS'dobj=trip'
p500
aS'dobj=violence'
p501
aS'dobj=visit'
p502
aS'dobj=vote'
p503
aS'dobj=wave'
p504
aS'dobj=what'
p505
aS'dobj=which'
p506
aS'dobj=worker'
p507
aS'expl=there'
p508
aS'infmod=abandon'
p509
aS'infmod=accommodate'
p510
aS'infmod=acquire'
p511
aS'infmod=act'
p512
aS'infmod=address'
p513
aS'infmod=admit'
p514
aS'infmod=allow'
p515
aS'infmod=assist'
p516
aS'infmod=attack'
p517
aS'infmod=augment'
p518
aS'infmod=ban'
p519
aS'infmod=base'
p520
aS'infmod=begin'
p521
aS'infmod=boost'
p522
aS'infmod=break'
p523
aS'infmod=bring'
p524
aS'infmod=build'
p525
aS'infmod=challenge'
p526
aS'infmod=change'
p527
aS'infmod=close'
p528
aS'infmod=convert'
p529
aS'infmod=create'
p530
aS'infmod=curtail'
p531
aS'infmod=cut'
p532
aS'infmod=deal'
p533
aS'infmod=declare'
p534
aS'infmod=deepen'
p535
aS'infmod=deliver'
p536
aS'infmod=deploy'
p537
aS'infmod=develop'
p538
aS'infmod=dig'
p539
aS'infmod=discuss'
p540
aS'infmod=draw'
p541
aS'infmod=ease'
p542
aS'infmod=employ'
p543
aS'infmod=end'
p544
aS'infmod=enter'
p545
aS'infmod=establish'
p546
aS'infmod=execute'
p547
aS'infmod=expand'
p548
aS'infmod=export'
p549
aS'infmod=extend'
p550
aS'infmod=fix'
p551
aS'infmod=fortify'
p552
aS'infmod=get'
p553
aS'infmod=give'
p554
aS'infmod=go'
p555
aS'infmod=grant'
p556
aS'infmod=have'
p557
aS'infmod=help'
p558
aS'infmod=hold'
p559
aS'infmod=improve'
p560
aS'infmod=increase'
p561
aS'infmod=inject'
p562
aS'infmod=invade'
p563
aS'infmod=join'
p564
aS'infmod=kill'
p565
aS'infmod=launch'
p566
aS'infmod=leave'
p567
aS'infmod=list'
p568
aS'infmod=market'
p569
aS'infmod=mediate'
p570
aS'infmod=meet'
p571
aS'infmod=modernize'
p572
aS'infmod=move'
p573
aS'infmod=open'
p574
aS'infmod=participate'
p575
aS'infmod=perform'
p576
aS'infmod=place'
p577
aS'infmod=postpone'
p578
aS'infmod=privatize'
p579
aS'infmod=protect'
p580
aS'infmod=provide'
p581
aS'infmod=pull'
p582
aS'infmod=put'
p583
aS'infmod=raise'
p584
aS'infmod=rebuild'
p585
aS'infmod=reduce'
p586
aS'infmod=reform'
p587
aS'infmod=reinvent'
p588
aS'infmod=release'
p589
aS'infmod=relinquish'
p590
aS'infmod=relocate'
p591
aS'infmod=remove'
p592
aS'infmod=renovate'
p593
aS'infmod=reopen'
p594
aS'infmod=rescue'
p595
aS'infmod=resolve'
p596
aS'infmod=restore'
p597
aS'infmod=restrict'
p598
aS'infmod=restructure'
p599
aS'infmod=retire'
p600
aS'infmod=return'
p601
aS'infmod=run'
p602
aS'infmod=save'
p603
aS'infmod=secure'
p604
aS'infmod=seek'
p605
aS'infmod=sell'
p606
aS'infmod=send'
p607
aS'infmod=solve'
p608
aS'infmod=spend'
p609
aS'infmod=start'
p610
aS'infmod=step'
p611
aS'infmod=strengthen'
p612
aS'infmod=study'
p613
aS'infmod=subsidize'
p614
aS'infmod=succeed'
p615
aS'infmod=take'
p616
aS'infmod=test'
p617
aS'infmod=transfer'
p618
aS'infmod=transform'
p619
aS'infmod=travel'
p620
aS'infmod=trim'
p621
aS'infmod=try'
p622
aS'infmod=use'
p623
aS'infmod=verify'
p624
aS'infmod=visit'
p625
aS'infmod=withdraw'
p626
aS'infmod=work'
p627
aS'mark=after'
p628
aS'mark=although'
p629
aS'mark=as'
p630
aS'mark=because'
p631
aS'mark=before'
p632
aS'mark=for'
p633
aS'mark=if'
p634
aS'mark=in'
p635
aS'mark=since'
p636
aS'mark=than'
p637
aS'mark=while'
p638
aS'neg=never'
p639
aS'neg=not'
p640
aS'nn=#DATE#'
p641
aS'nn=#NUMBER#'
p642
aS'nn=Administration'
p643
aS'nn=Ahtisaari'
p644
aS'nn=American'
p645
aS'nn=Annan'
p646
aS'nn=Arab'
p647
aS'nn=Atkins'
p648
aS'nn=Baghdad'
p649
aS'nn=Bush'
p650
aS'nn=Bushehr'
p651
aS'nn=Congress'
p652
aS'nn=Cosaka'
p653
aS'nn=Czech'
p654
aS'nn=EU'
p655
aS'nn=Gadhafi'
p656
aS'nn=Hamas'
p657
aS'nn=House'
p658
aS'nn=I.D.'
p659
aS'nn=Iraq'
p660
aS'nn=Kremlin'
p661
aS'nn=League'
p662
aS'nn=Mabira'
p663
aS'nn=Marshall'
p664
aS'nn=Nations'
p665
aS'nn=Obama'
p666
aS'nn=Paulson'
p667
aS'nn=Petraeus'
p668
aS'nn=Saudi'
p669
aS'nn=Senate'
p670
aS'nn=States'
p671
aS'nn=Tehran'
p672
aS'nn=U.N.'
p673
aS'nn=U.N.-AU'
p674
aS'nn=U.S.'
p675
aS'nn=Washington'
p676
aS'nn=action'
p677
aS'nn=administration'
p678
aS'nn=agreement'
p679
aS'nn=aid'
p680
aS'nn=ambition'
p681
aS'nn=amnesty'
p682
aS'nn=austerity'
p683
aS'nn=bailout'
p684
aS'nn=battle'
p685
aS'nn=border'
p686
aS'nn=budget'
p687
aS'nn=business'
p688
aS'nn=campaign'
p689
aS'nn=card'
p690
aS'nn=care'
p691
aS'nn=cease-fire'
p692
aS'nn=certification'
p693
aS'nn=change'
p694
aS'nn=command'
p695
aS'nn=construction'
p696
aS'nn=contingency'
p697
aS'nn=counterterrorism'
p698
aS'nn=defense'
p699
aS'nn=deforestation'
p700
aS'nn=deployment'
p701
aS'nn=development'
p702
aS'nn=diet'
p703
aS'nn=disarmament'
p704
aS'nn=disaster-response'
p705
aS'nn=disengagement'
p706
aS'nn=dollar'
p707
aS'nn=draft'
p708
aS'nn=drawdown'
p709
aS'nn=election'
p710
aS'nn=electricity'
p711
aS'nn=emergency'
p712
aS'nn=employment'
p713
aS'nn=energy'
p714
aS'nn=eradication'
p715
aS'nn=evacuation'
p716
aS'nn=expansion'
p717
aS'nn=fence'
p718
aS'nn=firm'
p719
aS'nn=fleet'
p720
aS'nn=future'
p721
aS'nn=game'
p722
aS'nn=government'
p723
aS'nn=guideline'
p724
aS'nn=health'
p725
aS'nn=honeymoon'
p726
aS'nn=housing'
p727
aS'nn=identification'
p728
aS'nn=import'
p729
aS'nn=increase'
p730
aS'nn=independence'
p731
aS'nn=industrialization'
p732
aS'nn=insurance'
p733
aS'nn=intervention'
p734
aS'nn=investment'
p735
aS'nn=jailbreak'
p736
aS'nn=leadership'
p737
aS'nn=map'
p738
aS'nn=marketing'
p739
aS'nn=master'
p740
aS'nn=meeting'
p741
aS'nn=membership'
p742
aS'nn=missile'
p743
aS'nn=movement'
p744
aS'nn=outline'
p745
aS'nn=party'
p746
aS'nn=payment'
p747
aS'nn=peace'
p748
aS'nn=peacekeeping'
p749
aS'nn=pension'
p750
aS'nn=point'
p751
aS'nn=policy'
p752
aS'nn=pricing'
p753
aS'nn=protection'
p754
aS'nn=protest'
p755
aS'nn=range'
p756
aS'nn=rationing'
p757
aS'nn=re-denomination'
p758
aS'nn=re-election'
p759
aS'nn=reconciliation'
p760
aS'nn=reconstruction'
p761
aS'nn=recovery'
p762
aS'nn=reform'
p763
aS'nn=reorganization'
p764
aS'nn=repatriation'
p765
aS'nn=repayment'
p766
aS'nn=replacement'
p767
aS'nn=rescue'
p768
aS'nn=response'
p769
aS'nn=restructuring'
p770
aS'nn=retaliation'
p771
aS'nn=retirement'
p772
aS'nn=reunification'
p773
aS'nn=roadmap'
p774
aS'nn=scientist'
p775
aS'nn=security'
p776
aS'nn=settlement'
p777
aS'nn=spending'
p778
aS'nn=stabilization'
p779
aS'nn=stimulus'
p780
aS'nn=strategy'
p781
aS'nn=succession'
p782
aS'nn=summit'
p783
aS'nn=surge'
p784
aS'nn=suspension'
p785
aS'nn=sustainment'
p786
aS'nn=system'
p787
aS'nn=tax'
p788
aS'nn=test'
p789
aS'nn=travel'
p790
aS'nn=treatment'
p791
aS'nn=troop'
p792
aS'nn=verification'
p793
aS'nn=viability'
p794
aS'nn=war'
p795
aS'nn=weapon'
p796
aS'nn=withdrawal'
p797
aS'nn=worker'
p798
aS'nsubj=#DATE#'
p799
aS'nsubj=#NUMBER#'
p800
aS'nsubj=#PRP#'
p801
aS'nsubj=$'
p802
aS'nsubj=Abbas'
p803
aS'nsubj=Al-Megrahi'
p804
aS'nsubj=Al-Qaida'
p805
aS'nsubj=Arabs'
p806
aS'nsubj=Bala'
p807
aS'nsubj=Ban'
p808
aS'nsubj=Beijing'
p809
aS'nsubj=Bhutto'
p810
aS'nsubj=Bill'
p811
aS'nsubj=Bischoff'
p812
aS'nsubj=Blumenauer'
p813
aS'nsubj=Britain'
p814
aS'nsubj=Bush'
p815
aS'nsubj=CARE'
p816
aS'nsubj=Cairo'
p817
aS'nsubj=Calories'
p818
aS'nsubj=Caravan'
p819
aS'nsubj=City'
p820
aS'nsubj=Clinton'
p821
aS'nsubj=Committee'
p822
aS'nsubj=Congress'
p823
aS'nsubj=Cross'
p824
aS'nsubj=Delegates'
p825
aS'nsubj=Democrat'
p826
aS'nsubj=Democrats'
p827
aS'nsubj=Derview'
p828
aS'nsubj=EU'
p829
aS'nsubj=Edwards'
p830
aS'nsubj=Elders'
p831
aS'nsubj=Emirates'
p832
aS'nsubj=Emma'
p833
aS'nsubj=Europe'
p834
aS'nsubj=Expo'
p835
aS'nsubj=Faust'
p836
aS'nsubj=Federation'
p837
aS'nsubj=Fleming'
p838
aS'nsubj=Ford'
p839
aS'nsubj=Galactic'
p840
aS'nsubj=Gates'
p841
aS'nsubj=Glaser'
p842
aS'nsubj=Government'
p843
aS'nsubj=Gray'
p844
aS'nsubj=Guard'
p845
aS'nsubj=Hamas'
p846
aS'nsubj=Hezbollah'
p847
aS'nsubj=Hill'
p848
aS'nsubj=Horta'
p849
aS'nsubj=House'
p850
aS'nsubj=IOM'
p851
aS'nsubj=India'
p852
aS'nsubj=Interpol'
p853
aS'nsubj=Iowans'
p854
aS'nsubj=Iraq'
p855
aS'nsubj=Islamists'
p856
aS'nsubj=Israel'
p857
aS'nsubj=Japan'
p858
aS'nsubj=Johnson-Sirleaf'
p859
aS'nsubj=Kong'
p860
aS'nsubj=Leahy'
p861
aS'nsubj=Limited'
p862
aS'nsubj=Maryland'
p863
aS'nsubj=Mastrogiacomo'
p864
aS'nsubj=McCain'
p865
aS'nsubj=Mexicanos'
p866
aS'nsubj=Mexico'
p867
aS'nsubj=Milner'
p868
aS'nsubj=Museum'
p869
aS'nsubj=Musharraf'
p870
aS'nsubj=Myung-bak'
p871
aS'nsubj=NASA'
p872
aS'nsubj=Nango'
p873
aS'nsubj=Nations'
p874
aS'nsubj=Nigeria'
p875
aS'nsubj=Nigerians'
p876
aS'nsubj=Noriega'
p877
aS'nsubj=Nuh'
p878
aS'nsubj=Obama'
p879
aS'nsubj=Odinga'
p880
aS'nsubj=Olmert'
p881
aS'nsubj=Omar'
p882
aS'nsubj=Organization'
p883
aS'nsubj=Pakistan'
p884
aS'nsubj=Paulson'
p885
aS'nsubj=Petraeus'
p886
aS'nsubj=Plan'
p887
aS'nsubj=Planktos'
p888
aS'nsubj=Poland'
p889
aS'nsubj=Project'
p890
aS'nsubj=Rabliauskas'
p891
aS'nsubj=Rachel'
p892
aS'nsubj=Reid'
p893
aS'nsubj=Republicans'
p894
aS'nsubj=Resources'
p895
aS'nsubj=Rice'
p896
aS'nsubj=Rodrigues'
p897
aS'nsubj=Rudd'
p898
aS'nsubj=Russia'
p899
aS'nsubj=Ryan'
p900
aS'nsubj=Secretary'
p901
aS'nsubj=Sharif'
p902
aS'nsubj=Simonyi'
p903
aS'nsubj=States'
p904
aS'nsubj=Sudan'
p905
aS'nsubj=Sullivan'
p906
aS'nsubj=Taleban'
p907
aS'nsubj=Telecommunications'
p908
aS'nsubj=Thompson'
p909
aS'nsubj=Toonz'
p910
aS'nsubj=Tribunal'
p911
aS'nsubj=Truss'
p912
aS'nsubj=U.N.'
p913
aS'nsubj=U.S.'
p914
aS'nsubj=UN'
p915
aS'nsubj=UNHCR'
p916
aS'nsubj=UNICEF'
p917
aS'nsubj=Wilkinson'
p918
aS'nsubj=Woong-ki'
p919
aS'nsubj=Wright'
p920
aS'nsubj=XYZ'
p921
aS'nsubj=activist'
p922
aS'nsubj=administration'
p923
aS'nsubj=agency'
p924
aS'nsubj=agenda'
p925
aS'nsubj=al-Qaida'
p926
aS'nsubj=another'
p927
aS'nsubj=approach'
p928
aS'nsubj=astronaut'
p929
aS'nsubj=astronomer'
p930
aS'nsubj=attendee'
p931
aS'nsubj=authority'
p932
aS'nsubj=bank'
p933
aS'nsubj=bomber'
p934
aS'nsubj=campaign'
p935
aS'nsubj=capability'
p936
aS'nsubj=carrier'
p937
aS'nsubj=chamber'
p938
aS'nsubj=charge'
p939
aS'nsubj=city'
p940
aS'nsubj=client'
p941
aS'nsubj=coalition'
p942
aS'nsubj=community'
p943
aS'nsubj=company'
p944
aS'nsubj=concern'
p945
aS'nsubj=conspirator'
p946
aS'nsubj=contingency'
p947
aS'nsubj=contrast'
p948
aS'nsubj=country'
p949
aS'nsubj=couple'
p950
aS'nsubj=court'
p951
aS'nsubj=curfew'
p952
aS'nsubj=democrat'
p953
aS'nsubj=distiller'
p954
aS'nsubj=document'
p955
aS'nsubj=election'
p956
aS'nsubj=element'
p957
aS'nsubj=emissary'
p958
aS'nsubj=expansion'
p959
aS'nsubj=extremist'
p960
aS'nsubj=factory'
p961
aS'nsubj=farmer'
p962
aS'nsubj=fdlr'
p963
aS'nsubj=fighter'
p964
aS'nsubj=filmmaker'
p965
aS'nsubj=force'
p966
aS'nsubj=founder'
p967
aS'nsubj=gamut'
p968
aS'nsubj=gang'
p969
aS'nsubj=government'
p970
aS'nsubj=group'
p971
aS'nsubj=hunter'
p972
aS'nsubj=immigrant'
p973
aS'nsubj=industry'
p974
aS'nsubj=initiative'
p975
aS'nsubj=inspector'
p976
aS'nsubj=institute'
p977
aS'nsubj=insurgent'
p978
aS'nsubj=issue'
p979
aS'nsubj=lawmaker'
p980
aS'nsubj=lawyer'
p981
aS'nsubj=leader'
p982
aS'nsubj=leadership'
p983
aS'nsubj=lot'
p984
aS'nsubj=majority'
p985
aS'nsubj=man'
p986
aS'nsubj=manufacturer'
p987
aS'nsubj=many'
p988
aS'nsubj=mediator'
p989
aS'nsubj=member'
p990
aS'nsubj=militant'
p991
aS'nsubj=military'
p992
aS'nsubj=minister'
p993
aS'nsubj=monarchy'
p994
aS'nsubj=most'
p995
aS'nsubj=navy'
p996
aS'nsubj=negotiator'
p997
aS'nsubj=now'
p998
aS'nsubj=office'
p999
aS'nsubj=officer'
p1000
aS'nsubj=official'
p1001
aS'nsubj=oil'
p1002
aS'nsubj=one-third'
p1003
aS'nsubj=opponent'
p1004
aS'nsubj=opposition'
p1005
aS'nsubj=organization'
p1006
aS'nsubj=partner'
p1007
aS'nsubj=party'
p1008
aS'nsubj=plot'
p1009
aS'nsubj=point'
p1010
aS'nsubj=political'
p1011
aS'nsubj=president'
p1012
aS'nsubj=proceeds'
p1013
aS'nsubj=prosecutor'
p1014
aS'nsubj=protest'
p1015
aS'nsubj=protester'
p1016
aS'nsubj=publisher'
p1017
aS'nsubj=rebel'
p1018
aS'nsubj=report'
p1019
aS'nsubj=researcher'
p1020
aS'nsubj=resident'
p1021
aS'nsubj=restaurant'
p1022
aS'nsubj=return'
p1023
aS'nsubj=school'
p1024
aS'nsubj=scientist'
p1025
aS'nsubj=ser'
p1026
aS'nsubj=side'
p1027
aS'nsubj=sign'
p1028
aS'nsubj=some'
p1029
aS'nsubj=spaceman'
p1030
aS'nsubj=speaker'
p1031
aS'nsubj=staff'
p1032
aS'nsubj=state'
p1033
aS'nsubj=success'
p1034
aS'nsubj=supporter'
p1035
aS'nsubj=suspect'
p1036
aS'nsubj=talk'
p1037
aS'nsubj=team'
p1038
aS'nsubj=terrorist'
p1039
aS'nsubj=that'
p1040
aS'nsubj=this'
p1041
aS'nsubj=tibetan'
p1042
aS'nsubj=town'
p1043
aS'nsubj=travel'
p1044
aS'nsubj=vision'
p1045
aS'nsubj=wfp'
p1046
aS'nsubj=whaler'
p1047
aS'nsubj=which'
p1048
aS'nsubj=who'
p1049
aS'nsubj=woman'
p1050
aS'nsubj=worker'
p1051
aS'nsubjpass=#PRP#'
p1052
aS'nsubjpass=assault'
p1053
aS'nsubjpass=attack'
p1054
aS'nsubjpass=campaign'
p1055
aS'nsubjpass=card'
p1056
aS'nsubjpass=criticism'
p1057
aS'nsubjpass=day'
p1058
aS'nsubjpass=election'
p1059
aS'nsubjpass=meal'
p1060
aS'nsubjpass=meeting'
p1061
aS'nsubjpass=more'
p1062
aS'nsubjpass=negotiation'
p1063
aS'nsubjpass=number'
p1064
aS'nsubjpass=offensive'
p1065
aS'nsubjpass=operation'
p1066
aS'nsubjpass=pregnancy'
p1067
aS'nsubjpass=protest'
p1068
aS'nsubjpass=reduction'
p1069
aS'nsubjpass=road'
p1070
aS'nsubjpass=schedule'
p1071
aS'nsubjpass=screening'
p1072
aS'nsubjpass=spacecraft'
p1073
aS'nsubjpass=strike'
p1074
aS'nsubjpass=study'
p1075
aS'nsubjpass=summit'
p1076
aS'nsubjpass=survey'
p1077
aS'nsubjpass=talk'
p1078
aS'nsubjpass=test'
p1079
aS'nsubjpass=that'
p1080
aS'nsubjpass=trial'
p1081
aS'nsubjpass=visit'
p1082
aS'nsubjpass=welcome'
p1083
aS'nsubjpass=what'
p1084
aS'nsubjpass=which'
p1085
aS'num=#NUMBER#'
p1086
aS'num=$'
p1087
aS'parataxis=add'
p1088
aS'parataxis=concern'
p1089
aS'parataxis=go'
p1090
aS'parataxis=make'
p1091
aS'parataxis=plan'
p1092
aS'parataxis=say'
p1093
aS'partmod=adopt'
p1094
aS'partmod=aim'
p1095
aS'partmod=announce'
p1096
aS'partmod=approve'
p1097
aS'partmod=back'
p1098
aS'partmod=call'
p1099
aS'partmod=carry'
p1100
aS'partmod=circulate'
p1101
aS'partmod=compete'
p1102
aS'partmod=consider'
p1103
aS'partmod=deal'
p1104
aS'partmod=design'
p1105
aS'partmod=develop'
p1106
aS'partmod=disclose'
p1107
aS'partmod=draft'
p1108
aS'partmod=enable'
p1109
aS'partmod=go'
p1110
aS'partmod=grant'
p1111
aS'partmod=impose'
p1112
aS'partmod=increase'
p1113
aS'partmod=initiate'
p1114
aS'partmod=intend'
p1115
aS'partmod=involve'
p1116
aS'partmod=know'
p1117
aS'partmod=move'
p1118
aS'partmod=oppose'
p1119
aS'partmod=outline'
p1120
aS'partmod=propose'
p1121
aS'partmod=protect'
p1122
aS'partmod=provide'
p1123
aS'partmod=publish'
p1124
aS'partmod=ratify'
p1125
aS'partmod=receive'
p1126
aS'partmod=renew'
p1127
aS'partmod=sign'
p1128
aS'partmod=sit'
p1129
aS'partmod=submit'
p1130
aS'partmod=support'
p1131
aS'poss=#PRP#'
p1132
aS'poss=Adua'
p1133
aS'poss=Ahtisaari'
p1134
aS'poss=America'
p1135
aS'poss=Australia'
p1136
aS'poss=Bloomberg'
p1137
aS'poss=Brown'
p1138
aS'poss=Bush'
p1139
aS'poss=California'
p1140
aS'poss=Cambodia'
p1141
aS'poss=Canberra'
p1142
aS'poss=Carter'
p1143
aS'poss=Chavez'
p1144
aS'poss=Democrats'
p1145
aS'poss=Energy'
p1146
aS'poss=Fed'
p1147
aS'poss=God'
p1148
aS'poss=House'
p1149
aS'poss=India'
p1150
aS'poss=Islamists'
p1151
aS'poss=Israel'
p1152
aS'poss=Japan'
p1153
aS'poss=Labor'
p1154
aS'poss=Lee'
p1155
aS'poss=McChrystal'
p1156
aS'poss=Minister'
p1157
aS'poss=Musharraf'
p1158
aS'poss=Myung-bak'
p1159
aS'poss=ONUCI'
p1160
aS'poss=Obama'
p1161
aS'poss=Olmert'
p1162
aS'poss=Paulson'
p1163
aS'poss=Poland'
p1164
aS'poss=President'
p1165
aS'poss=Putin'
p1166
aS'poss=Raul'
p1167
aS'poss=Reid'
p1168
aS'poss=Representatives'
p1169
aS'poss=Republicans'
p1170
aS'poss=Rice'
p1171
aS'poss=Roh'
p1172
aS'poss=Rudd'
p1173
aS'poss=Sarkozy'
p1174
aS'poss=Senate'
p1175
aS'poss=Taylor'
p1176
aS'poss=Timor'
p1177
aS'poss=Union'
p1178
aS'poss=Wade'
p1179
aS'poss=Wal-Mart'
p1180
aS'poss=administration'
p1181
aS'poss=airport'
p1182
aS'poss=alliance'
p1183
aS'poss=army'
p1184
aS'poss=bank'
p1185
aS'poss=building'
p1186
aS'poss=commander'
p1187
aS'poss=company'
p1188
aS'poss=developer'
p1189
aS'poss=general'
p1190
aS'poss=government'
p1191
aS'poss=governor'
p1192
aS'poss=mayor'
p1193
aS'poss=minister'
p1194
aS'poss=museum'
p1195
aS'poss=organization'
p1196
aS'poss=party'
p1197
aS'poss=president'
p1198
aS'poss=scholar'
p1199
aS'poss=school'
p1200
aS'poss=worker'
p1201
aS'poss=year'
p1202
aS"possessive='s"
p1203
aS'preconj=both'
p1204
aS'predet=such'
p1205
aS'predet=the'
p1206
aS'prep=accord'
p1207
aS'prep=after'
p1208
aS'prep=against'
p1209
aS'prep=along'
p1210
aS'prep=among'
p1211
aS'prep=around'
p1212
aS'prep=as'
p1213
aS'prep=at'
p1214
aS'prep=base'
p1215
aS'prep=because'
p1216
aS'prep=before'
p1217
aS'prep=besides'
p1218
aS'prep=between'
p1219
aS'prep=by'
p1220
aS'prep=despite'
p1221
aS'prep=during'
p1222
aS'prep=for'
p1223
aS'prep=from'
p1224
aS'prep=give'
p1225
aS'prep=in'
p1226
aS'prep=include'
p1227
aS'prep=into'
p1228
aS'prep=involve'
p1229
aS'prep=like'
p1230
aS'prep=next'
p1231
aS'prep=of'
p1232
aS'prep=on'
p1233
aS'prep=outside'
p1234
aS'prep=over'
p1235
aS'prep=through'
p1236
aS'prep=to'
p1237
aS'prep=under'
p1238
aS'prep=until'
p1239
aS'prep=with'
p1240
aS'prep=within'
p1241
aS'prep=without'
p1242
aS'prt=out'
p1243
aS'purpcl=avoid'
p1244
aS'purpcl=try'
p1245
aS'rcmod=aim'
p1246
aS'rcmod=allow'
p1247
aS'rcmod=announce'
p1248
aS'rcmod=appear'
p1249
aS'rcmod=attempt'
p1250
aS'rcmod=avoid'
p1251
aS'rcmod=back'
p1252
aS'rcmod=balance'
p1253
aS'rcmod=base'
p1254
aS'rcmod=basis'
p1255
aS'rcmod=be'
p1256
aS'rcmod=begin'
p1257
aS'rcmod=believe'
p1258
aS'rcmod=bring'
p1259
aS'rcmod=call'
p1260
aS'rcmod=comparable'
p1261
aS'rcmod=compensate'
p1262
aS'rcmod=cover'
p1263
aS'rcmod=cut'
p1264
aS'rcmod=demand'
p1265
aS'rcmod=do'
p1266
aS'rcmod=expect'
p1267
aS'rcmod=feed'
p1268
aS'rcmod=form'
p1269
aS'rcmod=go'
p1270
aS'rcmod=hold'
p1271
aS'rcmod=identify'
p1272
aS'rcmod=in'
p1273
aS'rcmod=include'
p1274
aS'rcmod=involve'
p1275
aS'rcmod=keep'
p1276
aS'rcmod=know'
p1277
aS'rcmod=lead'
p1278
aS'rcmod=make'
p1279
aS'rcmod=mean'
p1280
aS'rcmod=negotiate'
p1281
aS'rcmod=offer'
p1282
aS'rcmod=ongoing'
p1283
aS'rcmod=overhaul'
p1284
aS'rcmod=pass'
p1285
aS'rcmod=pledge'
p1286
aS'rcmod=promote'
p1287
aS'rcmod=provide'
p1288
aS'rcmod=purchase'
p1289
aS'rcmod=pursue'
p1290
aS'rcmod=reaffirm'
p1291
aS'rcmod=respond'
p1292
aS'rcmod=say'
p1293
aS'rcmod=see'
p1294
aS'rcmod=send'
p1295
aS'rcmod=suit'
p1296
aS'rcmod=support'
p1297
aS'rcmod=tie'
p1298
aS'rcmod=vote'
p1299
aS'rcmod=work'
p1300
aS'rel=in'
p1301
aS'rel=that'
p1302
aS'rel=what'
p1303
aS'tmod=#DATE#'
p1304
aS'tmod=afternoon'
p1305
aS'tmod=autumn'
p1306
aS'tmod=legislation'
p1307
aS'tmod=month'
p1308
aS'tmod=offensive'
p1309
aS'tmod=time'
p1310
aS'tmod=wedding'
p1311
aS'tmod=week'
p1312
aS'tmod=year'
p1313
aS"w+1='"
p1314
aS"w+1=''"
p1315
aS"w+1='s"
p1316
aS'w+1=,'
p1317
aS'w+1=-'
p1318
aS'w+1=--'
p1319
aS'w+1=-lrb-'
p1320
aS'w+1=-rrb-'
p1321
aS'w+1=.'
p1322
aS'w+1=...'
p1323
aS'w+1=100'
p1324
aS'w+1=20,000'
p1325
aS'w+1=2006-2010'
p1326
aS'w+1=21,000'
p1327
aS'w+1=2700'
p1328
aS'w+1=8,000-strong'
p1329
aS'w+1=:'
p1330
aS'w+1=;'
p1331
aS'w+1=AU-U.N.'
p1332
aS'w+1=Balkans'
p1333
aS'w+1=Central'
p1334
aS'w+1=December'
p1335
aS'w+1=February'
p1336
aS'w+1=France'
p1337
aS'w+1=Friday'
p1338
aS'w+1=I'
p1339
aS'w+1=Internatinal'
p1340
aS'w+1=June'
p1341
aS'w+1=Monday'
p1342
aS'w+1=Mr.'
p1343
aS'w+1=Petraeus'
p1344
aS'w+1=President'
p1345
aS'w+1=Rawalpindi'
p1346
aS'w+1=Saturday'
p1347
aS'w+1=Thursday'
p1348
aS'w+1=U.S.'
p1349
aS'w+1=United'
p1350
aS'w+1=Wednesday'
p1351
aS'w+1=Yongbyon'
p1352
aS'w+1=a'
p1353
aS'w+1=about'
p1354
aS'w+1=accordingly'
p1355
aS'w+1=adopt'
p1356
aS'w+1=after'
p1357
aS'w+1=again'
p1358
aS'w+1=against'
p1359
aS'w+1=ahead'
p1360
aS'w+1=aim'
p1361
aS'w+1=also'
p1362
aS'w+1=among'
p1363
aS'w+1=amount'
p1364
aS'w+1=and'
p1365
aS'w+1=announce'
p1366
aS'w+1=another'
p1367
aS'w+1=any'
p1368
aS'w+1=approve'
p1369
aS'w+1=arm'
p1370
aS'w+1=around'
p1371
aS'w+1=as'
p1372
aS'w+1=at'
p1373
aS'w+1=attack'
p1374
aS'w+1=b'
p1375
aS'w+1=back'
p1376
aS'w+1=base'
p1377
aS'w+1=be'
p1378
aS'w+1=because'
p1379
aS'w+1=before'
p1380
aS'w+1=behind'
p1381
aS'w+1=beneficiary'
p1382
aS'w+1=between'
p1383
aS'w+1=bomb'
p1384
aS'w+1=both'
p1385
aS'w+1=break'
p1386
aS'w+1=budgeting'
p1387
aS'w+1=build'
p1388
aS'w+1=but'
p1389
aS'w+1=by'
p1390
aS'w+1=call'
p1391
aS'w+1=can'
p1392
aS'w+1=cheap'
p1393
aS'w+1=claim'
p1394
aS'w+1=company'
p1395
aS'w+1=compete'
p1396
aS'w+1=completion'
p1397
aS'w+1=conform'
p1398
aS'w+1=constitute'
p1399
aS'w+1=continue'
p1400
aS'w+1=cost'
p1401
aS'w+1=could'
p1402
aS'w+1=coup'
p1403
aS'w+1=cover'
p1404
aS'w+1=crackdown'
p1405
aS'w+1=currently'
p1406
aS'w+1=day'
p1407
aS'w+1=deal'
p1408
aS'w+1=decide'
p1409
aS'w+1=defend'
p1410
aS'w+1=defense'
p1411
aS'w+1=demand'
p1412
aS'w+1=departure'
p1413
aS'w+1=deployment'
p1414
aS'w+1=design'
p1415
aS'w+1=despite'
p1416
aS'w+1=destabilizing'
p1417
aS'w+1=devise'
p1418
aS'w+1=differ'
p1419
aS'w+1=disclose'
p1420
aS'w+1=discussion'
p1421
aS'w+1=disproportionately'
p1422
aS'w+1=do'
p1423
aS'w+1=draft'
p1424
aS'w+1=during'
p1425
aS'w+1=earlier'
p1426
aS'w+1=early'
p1427
aS'w+1=elaborate'
p1428
aS'w+1=election'
p1429
aS'w+1=enable'
p1430
aS'w+1=ensure'
p1431
aS'w+1=establish'
p1432
aS'w+1=experiment'
p1433
aS'w+1=fail'
p1434
aS'w+1=fall'
p1435
aS'w+1=fence'
p1436
aS'w+1=find'
p1437
aS'w+1=five'
p1438
aS'w+1=flight'
p1439
aS'w+1=focus'
p1440
aS'w+1=for'
p1441
aS'w+1=from'
p1442
aS'w+1=further'
p1443
aS'w+1=general'
p1444
aS'w+1=get'
p1445
aS'w+1=give'
p1446
aS'w+1=go'
p1447
aS'w+1=good'
p1448
aS'w+1=government'
p1449
aS'w+1=grant'
p1450
aS'w+1=have'
p1451
aS'w+1=he'
p1452
aS'w+1=health'
p1453
aS'w+1=high'
p1454
aS'w+1=hope'
p1455
aS'w+1=how'
p1456
aS'w+1=humanitarian'
p1457
aS'w+1=identification'
p1458
aS'w+1=if'
p1459
aS'w+1=impose'
p1460
aS'w+1=in'
p1461
aS'w+1=include'
p1462
aS'w+1=increase'
p1463
aS'w+1=initially'
p1464
aS'w+1=innovative'
p1465
aS'w+1=instead'
p1466
aS'w+1=intend'
p1467
aS'w+1=invasion'
p1468
aS'w+1=involve'
p1469
aS'w+1=iranian'
p1470
aS'w+1=it'
p1471
aS'w+1=its'
p1472
aS'w+1=joint'
p1473
aS'w+1=just'
p1474
aS'w+1=know'
p1475
aS'w+1=languish'
p1476
aS'w+1=last'
p1477
aS'w+1=law'
p1478
aS'w+1=lay'
p1479
aS'w+1=lead'
p1480
aS'w+1=legislative'
p1481
aS'w+1=less'
p1482
aS'w+1=lifetime'
p1483
aS'w+1=lunch'
p1484
aS'w+1=major'
p1485
aS'w+1=make'
p1486
aS'w+1=march'
p1487
aS'w+1=mark'
p1488
aS'w+1=may'
p1489
aS'w+1=mean'
p1490
aS'w+1=measure'
p1491
aS'w+1=meeting'
p1492
aS'w+1=mideast'
p1493
aS'w+1=might'
p1494
aS'w+1=military'
p1495
aS'w+1=missile'
p1496
aS'w+1=mission'
p1497
aS'w+1=mixed-faith'
p1498
aS'w+1=more'
p1499
aS'w+1=move'
p1500
aS'w+1=must'
p1501
aS'w+1=necessarily'
p1502
aS'w+1=need'
p1503
aS'w+1=negotiation'
p1504
aS'w+1=new'
p1505
aS'w+1=next'
p1506
aS'w+1=non-african'
p1507
aS'w+1=not'
p1508
aS'w+1=note'
p1509
aS'w+1=now'
p1510
aS'w+1=nuclear'
p1511
aS'w+1=of'
p1512
aS'w+1=offer'
p1513
aS'w+1=on'
p1514
aS'w+1=only'
p1515
aS'w+1=oppose'
p1516
aS'w+1=or'
p1517
aS'w+1=other'
p1518
aS'w+1=out'
p1519
aS'w+1=outline'
p1520
aS'w+1=over'
p1521
aS'w+1=oversight'
p1522
aS'w+1=parliamentary'
p1523
aS'w+1=peace'
p1524
aS'w+1=peacekeeping'
p1525
aS'w+1=pledge'
p1526
aS'w+1=pose'
p1527
aS'w+1=power-sharing'
p1528
aS'w+1=prevent'
p1529
aS'w+1=prior'
p1530
aS'w+1=privately'
p1531
aS'w+1=proof'
p1532
aS'w+1=properly'
p1533
aS'w+1=propose'
p1534
aS'w+1=protect'
p1535
aS'w+1=protest'
p1536
aS'w+1=provide'
p1537
aS'w+1=provocation'
p1538
aS'w+1=pull-back'
p1539
aS'w+1=put'
p1540
aS'w+1=quiet'
p1541
aS'w+1=rally'
p1542
aS'w+1=reach'
p1543
aS'w+1=really'
p1544
aS'w+1=receive'
p1545
aS'w+1=reconciliation'
p1546
aS'w+1=reconstruction'
p1547
aS'w+1=reform'
p1548
aS'w+1=regard'
p1549
aS'w+1=regime'
p1550
aS'w+1=remain'
p1551
aS'w+1=replace'
p1552
aS'w+1=require'
p1553
aS'w+1=return'
p1554
aS'w+1=run'
p1555
aS'w+1=say'
p1556
aS'w+1=scientific'
p1557
aS'w+1=secret'
p1558
aS'w+1=seem'
p1559
aS'w+1=separate'
p1560
aS'w+1=separatist'
p1561
aS'w+1=session'
p1562
aS'w+1=set'
p1563
aS'w+1=she'
p1564
aS'w+1=should'
p1565
aS'w+1=show'
p1566
aS'w+1=sideline'
p1567
aS'w+1=sign'
p1568
aS'w+1=signal'
p1569
aS'w+1=sit'
p1570
aS'w+1=so'
p1571
aS'w+1=solution'
p1572
aS'w+1=some'
p1573
aS'w+1=still'
p1574
aS'w+1=strategy'
p1575
aS'w+1=strike'
p1576
aS'w+1=study'
p1577
aS'w+1=submit'
p1578
aS'w+1=suggest'
p1579
aS'w+1=suicide'
p1580
aS'w+1=summit'
p1581
aS'w+1=support'
p1582
aS'w+1=take'
p1583
aS'w+1=talk'
p1584
aS'w+1=target'
p1585
aS'w+1=terror'
p1586
aS'w+1=terrorist'
p1587
aS'w+1=that'
p1588
aS'w+1=the'
p1589
aS'w+1=themselves'
p1590
aS'w+1=there'
p1591
aS'w+1=these'
p1592
aS'w+1=they'
p1593
aS'w+1=this'
p1594
aS'w+1=threaten'
p1595
aS'w+1=three'
p1596
aS'w+1=to'
p1597
aS'w+1=trigger'
p1598
aS'w+1=troop'
p1599
aS'w+1=try'
p1600
aS'w+1=two'
p1601
aS'w+1=u.s-organized'
p1602
aS'w+1=unconstitutional'
p1603
aS'w+1=under'
p1604
aS'w+1=unless'
p1605
aS'w+1=until'
p1606
aS'w+1=unveil'
p1607
aS'w+1=upcome'
p1608
aS'w+1=victory'
p1609
aS'w+1=visit'
p1610
aS'w+1=vote'
p1611
aS'w+1=we'
p1612
aS'w+1=when'
p1613
aS'w+1=whereby'
p1614
aS'w+1=which'
p1615
aS'w+1=while'
p1616
aS'w+1=will'
p1617
aS'w+1=with'
p1618
aS'w+1=withdrawal'
p1619
aS'w+1=within'
p1620
aS'w+1=without'
p1621
aS'w+1=work'
p1622
aS'w+1=worth'
p1623
aS'w+1=would'
p1624
aS'w+1=yet'
p1625
aS'w+1=you'
p1626
aS'w+2=$'
p1627
aS"w+2=''"
p1628
aS"w+2='s"
p1629
aS'w+2=,'
p1630
aS'w+2=-'
p1631
aS'w+2=.'
p1632
aS'w+2=10'
p1633
aS'w+2=1998'
p1634
aS'w+2=2003'
p1635
aS'w+2=2008'
p1636
aS'w+2=2009'
p1637
aS'w+2=2010'
p1638
aS'w+2=24'
p1639
aS'w+2=27'
p1640
aS'w+2=350'
p1641
aS'w+2=5'
p1642
aS'w+2=60'
p1643
aS'w+2=AIDS'
p1644
aS'w+2=Afghanistan'
p1645
aS'w+2=African'
p1646
aS'w+2=Aids'
p1647
aS'w+2=Alitalia'
p1648
aS'w+2=America'
p1649
aS'w+2=Americans'
p1650
aS'w+2=Annapolis'
p1651
aS'w+2=April'
p1652
aS'w+2=Asia'
p1653
aS'w+2=Atlantis'
p1654
aS'w+2=Australia'
p1655
aS'w+2=Baghdad'
p1656
aS'w+2=Britain'
p1657
aS'w+2=Bush'
p1658
aS'w+2=China'
p1659
aS'w+2=Dalia'
p1660
aS'w+2=Darfur'
p1661
aS'w+2=Democrat'
p1662
aS'w+2=Democrats'
p1663
aS'w+2=Doctor'
p1664
aS'w+2=France'
p1665
aS'w+2=Friday'
p1666
aS'w+2=General'
p1667
aS'w+2=Gulf'
p1668
aS'w+2=House'
p1669
aS'w+2=I'
p1670
aS'w+2=India'
p1671
aS'w+2=Iraq'
p1672
aS'w+2=Israel'
p1673
aS'w+2=Ivory'
p1674
aS'w+2=January'
p1675
aS'w+2=July'
p1676
aS'w+2=Kibo'
p1677
aS'w+2=Koroma'
p1678
aS'w+2=Kosovo'
p1679
aS'w+2=Monday'
p1680
aS'w+2=Moscow'
p1681
aS'w+2=Mr.'
p1682
aS'w+2=Mumbai'
p1683
aS'w+2=Nations'
p1684
aS'w+2=Negroponte'
p1685
aS'w+2=North'
p1686
aS'w+2=November'
p1687
aS'w+2=October'
p1688
aS'w+2=Pakistan'
p1689
aS'w+2=Palestinians'
p1690
aS'w+2=Pentagon'
p1691
aS'w+2=Physicians'
p1692
aS'w+2=Poland'
p1693
aS'w+2=President'
p1694
aS'w+2=Romania'
p1695
aS'w+2=Russia'
p1696
aS'w+2=Russian'
p1697
aS'w+2=Saturday'
p1698
aS'w+2=Secretary'
p1699
aS'w+2=Senator'
p1700
aS'w+2=September'
p1701
aS'w+2=Sierra'
p1702
aS'w+2=Sunday'
p1703
aS'w+2=Super'
p1704
aS'w+2=Thursday'
p1705
aS'w+2=Treasury'
p1706
aS'w+2=Tuesday'
p1707
aS'w+2=U.N.'
p1708
aS'w+2=U.S.'
p1709
aS'w+2=Ukraine'
p1710
aS'w+2=Wall'
p1711
aS'w+2=Wednesday'
p1712
aS'w+2=World'
p1713
aS'w+2=a'
p1714
aS'w+2=abandon'
p1715
aS'w+2=ability'
p1716
aS'w+2=abolish'
p1717
aS'w+2=accommodate'
p1718
aS'w+2=accomplish'
p1719
aS'w+2=accuse'
p1720
aS'w+2=achieve'
p1721
aS'w+2=acquire'
p1722
aS'w+2=act'
p1723
aS'w+2=action'
p1724
aS'w+2=actual'
p1725
aS'w+2=actually'
p1726
aS'w+2=adapt'
p1727
aS'w+2=add'
p1728
aS'w+2=address'
p1729
aS'w+2=admit'
p1730
aS'w+2=adopt'
p1731
aS'w+2=affect'
p1732
aS'w+2=afoot'
p1733
aS'w+2=african'
p1734
aS'w+2=after'
p1735
aS'w+2=against'
p1736
aS'w+2=agency'
p1737
aS'w+2=agree'
p1738
aS'w+2=ahead'
p1739
aS'w+2=aid'
p1740
aS'w+2=aim'
p1741
aS'w+2=air'
p1742
aS'w+2=al-qaida'
p1743
aS'w+2=albeit'
p1744
aS'w+2=all'
p1745
aS'w+2=allow'
p1746
aS'w+2=already'
p1747
aS'w+2=also'
p1748
aS'w+2=alternative'
p1749
aS'w+2=although'
p1750
aS'w+2=amend'
p1751
aS'w+2=american'
p1752
aS'w+2=amount'
p1753
aS'w+2=and'
p1754
aS'w+2=announce'
p1755
aS'w+2=any'
p1756
aS'w+2=apparent'
p1757
aS'w+2=appeal'
p1758
aS'w+2=appear'
p1759
aS'w+2=apply'
p1760
aS'w+2=approach'
p1761
aS'w+2=approval'
p1762
aS'w+2=arab-wide'
p1763
aS'w+2=argue'
p1764
aS'w+2=as'
p1765
aS'w+2=ask'
p1766
aS'w+2=assassinate'
p1767
aS'w+2=assassination'
p1768
aS'w+2=assemble'
p1769
aS'w+2=assist'
p1770
aS'w+2=at'
p1771
aS'w+2=attack'
p1772
aS'w+2=attempt'
p1773
aS'w+2=attend'
p1774
aS'w+2=augment'
p1775
aS'w+2=avert'
p1776
aS'w+2=avoid'
p1777
aS'w+2=balance'
p1778
aS'w+2=ban'
p1779
aS'w+2=base'
p1780
aS'w+2=basically'
p1781
aS'w+2=be'
p1782
aS'w+2=because'
p1783
aS'w+2=become'
p1784
aS'w+2=begin'
p1785
aS'w+2=beheading'
p1786
aS'w+2=benefit'
p1787
aS'w+2=best'
p1788
aS'w+2=better'
p1789
aS'w+2=between'
p1790
aS'w+2=big'
p1791
aS'w+2=biggest'
p1792
aS'w+2=block'
p1793
aS'w+2=blockade'
p1794
aS'w+2=blow'
p1795
aS'w+2=bomb'
p1796
aS'w+2=bombing'
p1797
aS'w+2=boost'
p1798
aS'w+2=borrow'
p1799
aS'w+2=borrowing'
p1800
aS'w+2=both'
p1801
aS'w+2=break'
p1802
aS'w+2=brewing'
p1803
aS'w+2=brief'
p1804
aS'w+2=bring'
p1805
aS'w+2=build'
p1806
aS'w+2=bus'
p1807
aS'w+2=but'
p1808
aS'w+2=buy'
p1809
aS'w+2=by'
p1810
aS'w+2=call'
p1811
aS'w+2=campaign'
p1812
aS'w+2=can'
p1813
aS'w+2=capture'
p1814
aS'w+2=carry'
p1815
aS'w+2=cast'
p1816
aS'w+2=catch'
p1817
aS'w+2=caucus'
p1818
aS'w+2=cause'
p1819
aS'w+2=celebration'
p1820
aS'w+2=challenge'
p1821
aS'w+2=chance'
p1822
aS'w+2=change'
p1823
aS'w+2=charge'
p1824
aS'w+2=child'
p1825
aS'w+2=chinese'
p1826
aS'w+2=circulate'
p1827
aS'w+2=cleanse'
p1828
aS'w+2=clear'
p1829
aS'w+2=climate'
p1830
aS'w+2=close'
p1831
aS'w+2=coalition'
p1832
aS'w+2=collaboration'
p1833
aS'w+2=combat'
p1834
aS'w+2=combine'
p1835
aS'w+2=come'
p1836
aS'w+2=commemorate'
p1837
aS'w+2=commercial'
p1838
aS'w+2=commercially'
p1839
aS'w+2=commit'
p1840
aS'w+2=company'
p1841
aS'w+2=compensate'
p1842
aS'w+2=competition'
p1843
aS'w+2=complain'
p1844
aS'w+2=complete'
p1845
aS'w+2=completion'
p1846
aS'w+2=concession'
p1847
aS'w+2=conduct'
p1848
aS'w+2=conference'
p1849
aS'w+2=consider'
p1850
aS'w+2=construct'
p1851
aS'w+2=construction'
p1852
aS'w+2=consult'
p1853
aS'w+2=contest'
p1854
aS'w+2=contingency'
p1855
aS'w+2=contingent'
p1856
aS'w+2=continue'
p1857
aS'w+2=control'
p1858
aS'w+2=controversial'
p1859
aS'w+2=convene'
p1860
aS'w+2=convert'
p1861
aS'w+2=cooperation'
p1862
aS'w+2=corresponding'
p1863
aS'w+2=cost'
p1864
aS'w+2=could'
p1865
aS'w+2=coup'
p1866
aS'w+2=court'
p1867
aS'w+2=court-martial'
p1868
aS'w+2=cover'
p1869
aS'w+2=crack'
p1870
aS'w+2=crackdown'
p1871
aS'w+2=create'
p1872
aS'w+2=credible'
p1873
aS'w+2=cross'
p1874
aS'w+2=crossing'
p1875
aS'w+2=curb'
p1876
aS'w+2=current'
p1877
aS'w+2=curtail'
p1878
aS'w+2=cut'
p1879
aS'w+2=date'
p1880
aS'w+2=day'
p1881
aS'w+2=deadly'
p1882
aS'w+2=deal'
p1883
aS'w+2=declaration'
p1884
aS'w+2=declare'
p1885
aS'w+2=deepen'
p1886
aS'w+2=defend'
p1887
aS'w+2=defense'
p1888
aS'w+2=delay'
p1889
aS'w+2=deliver'
p1890
aS'w+2=demand'
p1891
aS'w+2=democratic'
p1892
aS'w+2=demolish'
p1893
aS'w+2=deploy'
p1894
aS'w+2=deployment'
p1895
aS'w+2=deprive'
p1896
aS'w+2=derail'
p1897
aS'w+2=descend'
p1898
aS'w+2=design'
p1899
aS'w+2=destroy'
p1900
aS'w+2=detail'
p1901
aS'w+2=detonate'
p1902
aS'w+2=develop'
p1903
aS'w+2=developer'
p1904
aS'w+2=devote'
p1905
aS'w+2=dig'
p1906
aS'w+2=dinner'
p1907
aS'w+2=direct'
p1908
aS'w+2=discuss'
p1909
aS'w+2=dismiss'
p1910
aS'w+2=disrupt'
p1911
aS'w+2=disruption'
p1912
aS'w+2=distribute'
p1913
aS'w+2=divide'
p1914
aS'w+2=divorce'
p1915
aS'w+2=do'
p1916
aS'w+2=donate'
p1917
aS'w+2=donor'
p1918
aS'w+2=double'
p1919
aS'w+2=down'
p1920
aS'w+2=draft'
p1921
aS'w+2=draw'
p1922
aS'w+2=drawdown'
p1923
aS'w+2=drill'
p1924
aS'w+2=drive'
p1925
aS'w+2=drop'
p1926
aS'w+2=each'
p1927
aS'w+2=earlier'
p1928
aS'w+2=ease'
p1929
aS'w+2=eastern'
p1930
aS'w+2=economic'
p1931
aS'w+2=education'
p1932
aS'w+2=effective'
p1933
aS'w+2=egyptian'
p1934
aS'w+2=elaborate'
p1935
aS'w+2=election'
p1936
aS'w+2=eliminate'
p1937
aS'w+2=embark'
p1938
aS'w+2=emergency'
p1939
aS'w+2=employ'
p1940
aS'w+2=end'
p1941
aS'w+2=endorse'
p1942
aS'w+2=enforce'
p1943
aS'w+2=enforcement'
p1944
aS'w+2=engage'
p1945
aS'w+2=ensure'
p1946
aS'w+2=enter'
p1947
aS'w+2=envisage'
p1948
aS'w+2=envision'
p1949
aS'w+2=erode'
p1950
aS'w+2=escalation'
p1951
aS'w+2=establish'
p1952
aS'w+2=estimate'
p1953
aS'w+2=ethnic'
p1954
aS'w+2=eu-supervised'
p1955
aS'w+2=evaluate'
p1956
aS'w+2=even'
p1957
aS'w+2=eventual'
p1958
aS'w+2=eventually'
p1959
aS'w+2=every'
p1960
aS'w+2=execute'
p1961
aS'w+2=exercise'
p1962
aS'w+2=exile'
p1963
aS'w+2=expand'
p1964
aS'w+2=expansion'
p1965
aS'w+2=expect'
p1966
aS'w+2=expedition'
p1967
aS'w+2=explain'
p1968
aS'w+2=explore'
p1969
aS'w+2=export'
p1970
aS'w+2=express'
p1971
aS'w+2=extend'
p1972
aS'w+2=extradite'
p1973
aS'w+2=face'
p1974
aS'w+2=fail'
p1975
aS'w+2=failure'
p1976
aS'w+2=farce'
p1977
aS'w+2=feature'
p1978
aS'w+2=federal'
p1979
aS'w+2=feed'
p1980
aS'w+2=field'
p1981
aS'w+2=fight'
p1982
aS'w+2=file'
p1983
aS'w+2=film'
p1984
aS'w+2=finances'
p1985
aS'w+2=finish'
p1986
aS'w+2=first'
p1987
aS'w+2=five'
p1988
aS'w+2=fix'
p1989
aS'w+2=flee'
p1990
aS'w+2=float'
p1991
aS'w+2=fly'
p1992
aS'w+2=focus'
p1993
aS'w+2=fold'
p1994
aS'w+2=follow'
p1995
aS'w+2=for'
p1996
aS'w+2=force'
p1997
aS'w+2=forcibly'
p1998
aS'w+2=form'
p1999
aS'w+2=formally'
p2000
aS'w+2=former'
p2001
aS'w+2=forth'
p2002
aS'w+2=fortify'
p2003
aS'w+2=forward'
p2004
aS'w+2=four'
p2005
aS'w+2=from'
p2006
aS'w+2=fuel'
p2007
aS'w+2=fundamentally'
p2008
aS'w+2=further'
p2009
aS'w+2=future'
p2010
aS'w+2=gather'
p2011
aS'w+2=generally'
p2012
aS'w+2=generate'
p2013
aS'w+2=generous'
p2014
aS'w+2=georgian'
p2015
aS'w+2=get'
p2016
aS'w+2=give'
p2017
aS'w+2=go'
p2018
aS'w+2=good'
p2019
aS'w+2=government'
p2020
aS'w+2=gradual'
p2021
aS'w+2=grand'
p2022
aS'w+2=grant'
p2023
aS'w+2=grind'
p2024
aS'w+2=group'
p2025
aS'w+2=guard'
p2026
aS'w+2=gunman'
p2027
aS'w+2=half'
p2028
aS'w+2=halt'
p2029
aS'w+2=hand'
p2030
aS'w+2=handle'
p2031
aS'w+2=harness'
p2032
aS'w+2=have'
p2033
aS'w+2=he'
p2034
aS'w+2=head'
p2035
aS'w+2=health'
p2036
aS'w+2=hearing'
p2037
aS'w+2=help'
p2038
aS'w+2=highlight'
p2039
aS'w+2=hold'
p2040
aS'w+2=homage'
p2041
aS'w+2=hope'
p2042
aS'w+2=however'
p2043
aS'w+2=hunt'
p2044
aS'w+2=idea'
p2045
aS'w+2=if'
p2046
aS'w+2=immigration'
p2047
aS'w+2=impact'
p2048
aS'w+2=implementation'
p2049
aS'w+2=import'
p2050
aS'w+2=improve'
p2051
aS'w+2=in'
p2052
aS'w+2=include'
p2053
aS'w+2=increase'
p2054
aS'w+2=indict'
p2055
aS'w+2=infrastructure'
p2056
aS'w+2=initiate'
p2057
aS'w+2=initiative'
p2058
aS'w+2=inject'
p2059
aS'w+2=input'
p2060
aS'w+2=inspect'
p2061
aS'w+2=inspection'
p2062
aS'w+2=install'
p2063
aS'w+2=intend'
p2064
aS'w+2=intensify'
p2065
aS'w+2=intention'
p2066
aS'w+2=interconnect'
p2067
aS'w+2=interfere'
p2068
aS'w+2=international'
p2069
aS'w+2=intervene'
p2070
aS'w+2=into'
p2071
aS'w+2=introduce'
p2072
aS'w+2=invade'
p2073
aS'w+2=invasion'
p2074
aS'w+2=invest'
p2075
aS'w+2=investigate'
p2076
aS'w+2=involve'
p2077
aS'w+2=iranian'
p2078
aS'w+2=irresponsible'
p2079
aS'w+2=issue'
p2080
aS'w+2=it'
p2081
aS'w+2=its'
p2082
aS'w+2=jailbreak'
p2083
aS'w+2=join'
p2084
aS'w+2=keep'
p2085
aS'w+2=key'
p2086
aS'w+2=kick'
p2087
aS'w+2=kill'
p2088
aS'w+2=kilometer'
p2089
aS'w+2=know'
p2090
aS'w+2=label'
p2091
aS'w+2=language'
p2092
aS'w+2=largely'
p2093
aS'w+2=last'
p2094
aS'w+2=late'
p2095
aS'w+2=later'
p2096
aS'w+2=launch'
p2097
aS'w+2=lay'
p2098
aS'w+2=layoff'
p2099
aS'w+2=lead'
p2100
aS'w+2=lease'
p2101
aS'w+2=least'
p2102
aS'w+2=leave'
p2103
aS'w+2=lebanese'
p2104
aS'w+2=let'
p2105
aS'w+2=license'
p2106
aS'w+2=lift'
p2107
aS'w+2=like'
p2108
aS'w+2=limit'
p2109
aS'w+2=list'
p2110
aS'w+2=listen'
p2111
aS'w+2=live'
p2112
aS'w+2=local'
p2113
aS'w+2=long'
p2114
aS'w+2=long-term'
p2115
aS'w+2=look'
p2116
aS'w+2=major'
p2117
aS'w+2=make'
p2118
aS'w+2=manufacture'
p2119
aS'w+2=many'
p2120
aS'w+2=march'
p2121
aS'w+2=mark'
p2122
aS'w+2=marry'
p2123
aS'w+2=mass'
p2124
aS'w+2=mass-produce'
p2125
aS'w+2=massive'
p2126
aS'w+2=mean'
p2127
aS'w+2=mediate'
p2128
aS'w+2=meet'
p2129
aS'w+2=member'
p2130
aS'w+2=meningitis'
p2131
aS'w+2=menu'
p2132
aS'w+2=mid-december'
p2133
aS'w+2=military'
p2134
aS'w+2=mine'
p2135
aS'w+2=missile'
p2136
aS'w+2=mission'
p2137
aS'w+2=modernize'
p2138
aS'w+2=month'
p2139
aS'w+2=more'
p2140
aS'w+2=mount'
p2141
aS'w+2=move'
p2142
aS'w+2=much'
p2143
aS'w+2=multi-layered'
p2144
aS'w+2=muslim'
p2145
aS'w+2=name'
p2146
aS'w+2=national'
p2147
aS'w+2=nationalize'
p2148
aS'w+2=naval'
p2149
aS'w+2=nearly'
p2150
aS'w+2=need'
p2151
aS'w+2=negotiate'
p2152
aS'w+2=negotiation'
p2153
aS'w+2=neither'
p2154
aS'w+2=new'
p2155
aS'w+2=next'
p2156
aS'w+2=nine'
p2157
aS'w+2=no'
p2158
aS'w+2=not'
p2159
aS'w+2=note'
p2160
aS'w+2=nothing'
p2161
aS'w+2=now'
p2162
aS'w+2=nuclear'
p2163
aS'w+2=number'
p2164
aS'w+2=observe'
p2165
aS'w+2=of'
p2166
aS'w+2=offensive'
p2167
aS'w+2=offer'
p2168
aS'w+2=officially'
p2169
aS'w+2=offload'
p2170
aS'w+2=oil'
p2171
aS'w+2=older'
p2172
aS'w+2=on'
p2173
aS'w+2=once'
p2174
aS'w+2=one'
p2175
aS'w+2=ongoing'
p2176
aS'w+2=only'
p2177
aS'w+2=open'
p2178
aS'w+2=operate'
p2179
aS'w+2=operation'
p2180
aS'w+2=oppose'
p2181
aS'w+2=opposition'
p2182
aS'w+2=or'
p2183
aS'w+2=order'
p2184
aS'w+2=out'
p2185
aS'w+2=over'
p2186
aS'w+2=overthrow'
p2187
aS'w+2=own'
p2188
aS'w+2=part'
p2189
aS'w+2=partially'
p2190
aS'w+2=participate'
p2191
aS'w+2=party'
p2192
aS'w+2=pass'
p2193
aS'w+2=peace'
p2194
aS'w+2=peacekeep'
p2195
aS'w+2=pend'
p2196
aS'w+2=people'
p2197
aS'w+2=perfectly'
p2198
aS'w+2=perform'
p2199
aS'w+2=permanent'
p2200
aS'w+2=phase'
p2201
aS'w+2=place'
p2202
aS'w+2=play'
p2203
aS'w+2=plead'
p2204
aS'w+2=pledge'
p2205
aS'w+2=pneumococcal'
p2206
aS'w+2=point'
p2207
aS'w+2=polish'
p2208
aS'w+2=political'
p2209
aS'w+2=positive'
p2210
aS'w+2=possible'
p2211
aS'w+2=postpone'
p2212
aS'w+2=potential'
p2213
aS'w+2=predator'
p2214
aS'w+2=preemptively'
p2215
aS'w+2=prepare'
p2216
aS'w+2=present'
p2217
aS'w+2=preserve'
p2218
aS'w+2=president'
p2219
aS'w+2=prevent'
p2220
aS'w+2=prevention'
p2221
aS'w+2=primarily'
p2222
aS'w+2=privatize'
p2223
aS'w+2=problematic'
p2224
aS'w+2=process'
p2225
aS'w+2=produce'
p2226
aS'w+2=project'
p2227
aS'w+2=promote'
p2228
aS'w+2=properly'
p2229
aS'w+2=propose'
p2230
aS'w+2=prosecute'
p2231
aS'w+2=protect'
p2232
aS'w+2=protest'
p2233
aS'w+2=prove'
p2234
aS'w+2=provide'
p2235
aS'w+2=provision'
p2236
aS'w+2=public'
p2237
aS'w+2=publicize'
p2238
aS'w+2=publicly'
p2239
aS'w+2=publish'
p2240
aS'w+2=pull'
p2241
aS'w+2=punish'
p2242
aS'w+2=purchase'
p2243
aS'w+2=pursue'
p2244
aS'w+2=push'
p2245
aS'w+2=put'
p2246
aS'w+2=raise'
p2247
aS'w+2=rally'
p2248
aS'w+2=rancher'
p2249
aS'w+2=rate'
p2250
aS'w+2=ratify'
p2251
aS'w+2=re-do'
p2252
aS'w+2=re-open'
p2253
aS'w+2=re-try'
p2254
aS'w+2=reach'
p2255
aS'w+2=reactivate'
p2256
aS'w+2=rearrange'
p2257
aS'w+2=reassess'
p2258
aS'w+2=rebuild'
p2259
aS'w+2=receive'
p2260
aS'w+2=recover'
p2261
aS'w+2=reduce'
p2262
aS'w+2=reflect'
p2263
aS'w+2=reform'
p2264
aS'w+2=regular'
p2265
aS'w+2=rein'
p2266
aS'w+2=reintroduce'
p2267
aS'w+2=reinvent'
p2268
aS'w+2=release'
p2269
aS'w+2=reliable'
p2270
aS'w+2=relinquish'
p2271
aS'w+2=relocate'
p2272
aS'w+2=remove'
p2273
aS'w+2=renew'
p2274
aS'w+2=renovate'
p2275
aS'w+2=reopen'
p2276
aS'w+2=repair'
p2277
aS'w+2=repatriate'
p2278
aS'w+2=replace'
p2279
aS'w+2=request'
p2280
aS'w+2=rescue'
p2281
aS'w+2=resettle'
p2282
aS'w+2=resign'
p2283
aS'w+2=resolve'
p2284
aS'w+2=resource'
p2285
aS'w+2=restitution'
p2286
aS'w+2=restore'
p2287
aS'w+2=restrict'
p2288
aS'w+2=restructure'
p2289
aS'w+2=resume'
p2290
aS'w+2=retire'
p2291
aS'w+2=return'
p2292
aS'w+2=reunite'
p2293
aS'w+2=revamp'
p2294
aS'w+2=revenge'
p2295
aS'w+2=review'
p2296
aS'w+2=revise'
p2297
aS'w+2=revitalize'
p2298
aS'w+2=revive'
p2299
aS'w+2=revolution'
p2300
aS'w+2=rig'
p2301
aS'w+2=river'
p2302
aS'w+2=round'
p2303
aS'w+2=run'
p2304
aS'w+2=russian'
p2305
aS'w+2=sale'
p2306
aS'w+2=save'
p2307
aS'w+2=say'
p2308
aS'w+2=scale'
p2309
aS'w+2=scrap'
p2310
aS'w+2=second'
p2311
aS'w+2=sectarian'
p2312
aS'w+2=secure'
p2313
aS'w+2=security'
p2314
aS'w+2=see'
p2315
aS'w+2=seek'
p2316
aS'w+2=sell'
p2317
aS'w+2=send'
p2318
aS'w+2=series'
p2319
aS'w+2=serve'
p2320
aS'w+2=set'
p2321
aS'w+2=several'
p2322
aS'w+2=share'
p2323
aS'w+2=sharply'
p2324
aS'w+2=she'
p2325
aS'w+2=shelter'
p2326
aS'w+2=ship'
p2327
aS'w+2=short'
p2328
aS'w+2=short-term'
p2329
aS'w+2=show'
p2330
aS'w+2=shutdown'
p2331
aS'w+2=sign'
p2332
aS'w+2=significantly'
p2333
aS'w+2=similar'
p2334
aS'w+2=six'
p2335
aS'w+2=six-fold'
p2336
aS'w+2=slaughter'
p2337
aS'w+2=slow'
p2338
aS'w+2=smart'
p2339
aS'w+2=snatch'
p2340
aS'w+2=so'
p2341
aS'w+2=solve'
p2342
aS'w+2=some'
p2343
aS'w+2=space'
p2344
aS'w+2=speak'
p2345
aS'w+2=spend'
p2346
aS'w+2=sport'
p2347
aS'w+2=spread'
p2348
aS'w+2=staffing'
p2349
aS'w+2=stage'
p2350
aS'w+2=start'
p2351
aS'w+2=stay'
p2352
aS'w+2=stem'
p2353
aS'w+2=step'
p2354
aS'w+2=still'
p2355
aS'w+2=stimulus'
p2356
aS'w+2=stop'
p2357
aS'w+2=store'
p2358
aS'w+2=strategy'
p2359
aS'w+2=strengthen'
p2360
aS'w+2=strike'
p2361
aS'w+2=strip'
p2362
aS'w+2=stronger'
p2363
aS'w+2=study'
p2364
aS'w+2=subatomic'
p2365
aS'w+2=subjugate'
p2366
aS'w+2=submit'
p2367
aS'w+2=subsidize'
p2368
aS'w+2=succeed'
p2369
aS'w+2=success'
p2370
aS'w+2=successfully'
p2371
aS'w+2=such'
p2372
aS'w+2=suit'
p2373
aS'w+2=summit'
p2374
aS'w+2=supervise'
p2375
aS'w+2=supervised'
p2376
aS'w+2=support'
p2377
aS'w+2=suppose'
p2378
aS'w+2=surpass'
p2379
aS'w+2=surround'
p2380
aS'w+2=suspend'
p2381
aS'w+2=sustain'
p2382
aS'w+2=sweeping'
p2383
aS'w+2=system'
p2384
aS'w+2=tackle'
p2385
aS'w+2=take'
p2386
aS'w+2=talk'
p2387
aS'w+2=target'
p2388
aS'w+2=tax'
p2389
aS'w+2=tear'
p2390
aS'w+2=telephone'
p2391
aS'w+2=temporarily'
p2392
aS'w+2=ten'
p2393
aS'w+2=term'
p2394
aS'w+2=test'
p2395
aS'w+2=than'
p2396
aS'w+2=that'
p2397
aS'w+2=the'
p2398
aS'w+2=then'
p2399
aS'w+2=these'
p2400
aS'w+2=they'
p2401
aS'w+2=this'
p2402
aS'w+2=those'
p2403
aS'w+2=threat'
p2404
aS'w+2=three'
p2405
aS'w+2=through'
p2406
aS'w+2=time'
p2407
aS'w+2=to'
p2408
aS'w+2=today'
p2409
aS'w+2=ton'
p2410
aS'w+2=touch'
p2411
aS'w+2=tour'
p2412
aS'w+2=train'
p2413
aS'w+2=training'
p2414
aS'w+2=transfer'
p2415
aS'w+2=transform'
p2416
aS'w+2=translate'
p2417
aS'w+2=travel'
p2418
aS'w+2=treat'
p2419
aS'w+2=trial'
p2420
aS'w+2=trim'
p2421
aS'w+2=trip'
p2422
aS'w+2=troubled'
p2423
aS'w+2=try'
p2424
aS'w+2=turn'
p2425
aS'w+2=ultimately'
p2426
aS'w+2=unblock'
p2427
aS'w+2=unclear'
p2428
aS'w+2=under'
p2429
aS'w+2=underway'
p2430
aS'w+2=universal'
p2431
aS'w+2=unveil'
p2432
aS'w+2=upon'
p2433
aS'w+2=upset'
p2434
aS'w+2=urge'
p2435
aS'w+2=use'
p2436
aS'w+2=utilize'
p2437
aS'w+2=vaccinate'
p2438
aS'w+2=verification'
p2439
aS'w+2=verify'
p2440
aS'w+2=very'
p2441
aS'w+2=viable'
p2442
aS'w+2=village'
p2443
aS'w+2=visit'
p2444
aS'w+2=voice'
p2445
aS'w+2=vote'
p2446
aS'w+2=wage'
p2447
aS'w+2=want'
p2448
aS'w+2=war'
p2449
aS'w+2=wave'
p2450
aS'w+2=we'
p2451
aS'w+2=wealthy'
p2452
aS'w+2=wean'
p2453
aS'w+2=weapon'
p2454
aS'w+2=week'
p2455
aS'w+2=what'
p2456
aS'w+2=when'
p2457
aS'w+2=which'
p2458
aS'w+2=while'
p2459
aS'w+2=whole'
p2460
aS'w+2=wide'
p2461
aS'w+2=widely'
p2462
aS'w+2=widespread'
p2463
aS'w+2=will'
p2464
aS'w+2=win'
p2465
aS'w+2=win-win'
p2466
aS'w+2=wind'
p2467
aS'w+2=with'
p2468
aS'w+2=withdraw'
p2469
aS'w+2=work'
p2470
aS'w+2=would'
p2471
aS'w+2=write'
p2472
aS'w+2=year'
p2473
aS'w+2=you'
p2474
aS"w-1='"
p2475
aS"w-1=''"
p2476
aS"w-1='s"
p2477
aS'w-1=,'
p2478
aS'w-1=-'
p2479
aS'w-1=-lrb-'
p2480
aS'w-1=.'
p2481
aS'w-1=10-year'
p2482
aS'w-1=15-billion'
p2483
aS'w-1=15-point'
p2484
aS'w-1=69-point'
p2485
aS'w-1=750,000'
p2486
aS'w-1=91-million'
p2487
aS'w-1=Abbas'
p2488
aS'w-1=Administration'
p2489
aS'w-1=Ahtisaari'
p2490
aS'w-1=Annan'
p2491
aS'w-1=Arab'
p2492
aS'w-1=Arabs'
p2493
aS'w-1=Atkins'
p2494
aS'w-1=Bacar'
p2495
aS'w-1=Baghdad'
p2496
aS'w-1=Ban'
p2497
aS'w-1=Beijing'
p2498
aS'w-1=Bhutto'
p2499
aS'w-1=Bischoff'
p2500
aS'w-1=Blumenauer'
p2501
aS'w-1=Britain'
p2502
aS'w-1=Bush'
p2503
aS'w-1=Bushehr'
p2504
aS'w-1=Canberra'
p2505
aS'w-1=Caravan'
p2506
aS'w-1=Clinton'
p2507
aS'w-1=Congress'
p2508
aS'w-1=Cosaka'
p2509
aS'w-1=Cross'
p2510
aS'w-1=Delegates'
p2511
aS'w-1=Democrats'
p2512
aS'w-1=Dy'
p2513
aS'w-1=EU'
p2514
aS'w-1=Edwards'
p2515
aS'w-1=Emirates'
p2516
aS'w-1=Emma'
p2517
aS'w-1=Europe'
p2518
aS'w-1=Expo'
p2519
aS'w-1=Faust'
p2520
aS'w-1=Ford'
p2521
aS'w-1=Foundation'
p2522
aS'w-1=Gadhafi'
p2523
aS'w-1=Galactic'
p2524
aS'w-1=Glaser'
p2525
aS'w-1=Government'
p2526
aS'w-1=Gray'
p2527
aS'w-1=Hamas'
p2528
aS'w-1=Hill'
p2529
aS'w-1=House'
p2530
aS'w-1=I'
p2531
aS'w-1=I.D.'
p2532
aS'w-1=IOM'
p2533
aS'w-1=Interpol'
p2534
aS'w-1=Iowans'
p2535
aS'w-1=Iraq'
p2536
aS'w-1=Ireland'
p2537
aS'w-1=Islamists'
p2538
aS'w-1=Israel'
p2539
aS'w-1=Japan'
p2540
aS'w-1=July'
p2541
aS'w-1=Kong'
p2542
aS'w-1=Kremlin'
p2543
aS'w-1=League'
p2544
aS'w-1=Limited'
p2545
aS'w-1=Mabira'
p2546
aS'w-1=Marshall'
p2547
aS'w-1=Maryland'
p2548
aS'w-1=McCain'
p2549
aS'w-1=Mexico'
p2550
aS'w-1=Michigan'
p2551
aS'w-1=Milner'
p2552
aS'w-1=Mimmo'
p2553
aS'w-1=Musharraf'
p2554
aS'w-1=NASA'
p2555
aS'w-1=NATO'
p2556
aS'w-1=Nango'
p2557
aS'w-1=Nations'
p2558
aS'w-1=Nigeria'
p2559
aS'w-1=Noriega'
p2560
aS'w-1=Nuh'
p2561
aS'w-1=Obama'
p2562
aS'w-1=Odinga'
p2563
aS'w-1=Olmert'
p2564
aS'w-1=Pakistan'
p2565
aS'w-1=Paulson'
p2566
aS'w-1=Petraeus'
p2567
aS'w-1=Polish'
p2568
aS'w-1=Project'
p2569
aS'w-1=Rabliauskas'
p2570
aS'w-1=Reid'
p2571
aS'w-1=Representatives'
p2572
aS'w-1=Republicans'
p2573
aS'w-1=Rice'
p2574
aS'w-1=Rodrigues'
p2575
aS'w-1=Rudnick'
p2576
aS'w-1=Russia'
p2577
aS'w-1=Ryan'
p2578
aS'w-1=Saudi'
p2579
aS'w-1=Senate'
p2580
aS'w-1=Simonyi'
p2581
aS'w-1=Smith'
p2582
aS'w-1=States'
p2583
aS'w-1=Sullivan'
p2584
aS'w-1=Tehran'
p2585
aS'w-1=Toonz'
p2586
aS'w-1=Tribunal'
p2587
aS'w-1=Truss'
p2588
aS'w-1=Tuesday'
p2589
aS'w-1=Turkey'
p2590
aS'w-1=U.N.'
p2591
aS'w-1=U.S.'
p2592
aS'w-1=UN'
p2593
aS'w-1=UNHCR'
p2594
aS'w-1=UNICEF'
p2595
aS'w-1=US'
p2596
aS'w-1=Washington'
p2597
aS'w-1=Wayne'
p2598
aS'w-1=Wilkinson'
p2599
aS'w-1=Wright'
p2600
aS'w-1=XYZ'
p2601
aS'w-1=a'
p2602
aS'w-1=abandon'
p2603
aS'w-1=about'
p2604
aS'w-1=accelerate'
p2605
aS'w-1=accurately'
p2606
aS'w-1=action'
p2607
aS'w-1=activist'
p2608
aS'w-1=actual'
p2609
aS'w-1=administration'
p2610
aS'w-1=against'
p2611
aS'w-1=agency'
p2612
aS'w-1=aggressive'
p2613
aS'w-1=agree'
p2614
aS'w-1=agreement'
p2615
aS'w-1=aid'
p2616
aS'w-1=all'
p2617
aS'w-1=allege'
p2618
aS'w-1=alleged'
p2619
aS'w-1=allegedly'
p2620
aS'w-1=along'
p2621
aS'w-1=already'
p2622
aS'w-1=also'
p2623
aS'w-1=alternative'
p2624
aS'w-1=ambition'
p2625
aS'w-1=ambitious'
p2626
aS'w-1=ambush'
p2627
aS'w-1=american'
p2628
aS'w-1=amnesty'
p2629
aS'w-1=and'
p2630
aS'w-1=announce'
p2631
aS'w-1=annual'
p2632
aS'w-1=any'
p2633
aS'w-1=apparently'
p2634
aS'w-1=approach'
p2635
aS'w-1=approve'
p2636
aS'w-1=as'
p2637
aS'w-1=astronaut'
p2638
aS'w-1=astronomer'
p2639
aS'w-1=attack'
p2640
aS'w-1=austerity'
p2641
aS'w-1=authority'
p2642
aS'w-1=back'
p2643
aS'w-1=back-up'
p2644
aS'w-1=bailout'
p2645
aS'w-1=basic'
p2646
aS'w-1=battle'
p2647
aS'w-1=be'
p2648
aS'w-1=begin'
p2649
aS'w-1=better'
p2650
aS'w-1=big'
p2651
aS'w-1=bigger'
p2652
aS'w-1=billion'
p2653
aS'w-1=blue'
p2654
aS'w-1=bold'
p2655
aS'w-1=bomber'
p2656
aS'w-1=border'
p2657
aS'w-1=both'
p2658
aS'w-1=broader'
p2659
aS'w-1=budget'
p2660
aS'w-1=business'
p2661
aS'w-1=but'
p2662
aS'w-1=by'
p2663
aS'w-1=campaign'
p2664
aS'w-1=can'
p2665
aS'w-1=cancel'
p2666
aS'w-1=card'
p2667
aS'w-1=care'
p2668
aS'w-1=carefully'
p2669
aS'w-1=carrier'
p2670
aS'w-1=carry'
p2671
aS'w-1=cease-fire'
p2672
aS'w-1=census'
p2673
aS'w-1=centrally'
p2674
aS'w-1=certainly'
p2675
aS'w-1=certification'
p2676
aS'w-1=chamber'
p2677
aS'w-1=change'
p2678
aS'w-1=city'
p2679
aS'w-1=clear'
p2680
aS'w-1=client'
p2681
aS'w-1=coalition'
p2682
aS'w-1=colombian'
p2683
aS'w-1=command'
p2684
aS'w-1=company'
p2685
aS'w-1=complicate'
p2686
aS'w-1=comprehensive'
p2687
aS'w-1=concrete'
p2688
aS'w-1=conference'
p2689
aS'w-1=confidence-building'
p2690
aS'w-1=confirm'
p2691
aS'w-1=consider'
p2692
aS'w-1=construction'
p2693
aS'w-1=contingency'
p2694
aS'w-1=controversial'
p2695
aS'w-1=coordinate'
p2696
aS'w-1=counterterrorism'
p2697
aS'w-1=country'
p2698
aS'w-1=course'
p2699
aS'w-1=court'
p2700
aS'w-1=criticize'
p2701
aS'w-1=current'
p2702
aS'w-1=currently'
p2703
aS'w-1=cut'
p2704
aS'w-1=dangerous'
p2705
aS'w-1=declare'
p2706
aS'w-1=defense'
p2707
aS'w-1=deforestation'
p2708
aS'w-1=democratic'
p2709
aS'w-1=demonstration'
p2710
aS'w-1=departure'
p2711
aS'w-1=deployment'
p2712
aS'w-1=detailed'
p2713
aS'w-1=develop'
p2714
aS'w-1=development'
p2715
aS'w-1=diet'
p2716
aS'w-1=disarmament'
p2717
aS'w-1=disaster-response'
p2718
aS'w-1=discuss'
p2719
aS'w-1=disengagement'
p2720
aS'w-1=disrupt'
p2721
aS'w-1=distiller'
p2722
aS'w-1=do'
p2723
aS'w-1=dollar'
p2724
aS'w-1=donor-funded'
p2725
aS'w-1=draft'
p2726
aS'w-1=drawdown'
p2727
aS'w-1=dual'
p2728
aS'w-1=dumbest'
p2729
aS'w-1=earlier'
p2730
aS'w-1=economic'
p2731
aS'w-1=either'
p2732
aS'w-1=election'
p2733
aS'w-1=electoral'
p2734
aS'w-1=electricity'
p2735
aS'w-1=emergency'
p2736
aS'w-1=emissary'
p2737
aS'w-1=employment'
p2738
aS'w-1=endorse'
p2739
aS'w-1=energy'
p2740
aS'w-1=entire'
p2741
aS'w-1=eradication'
p2742
aS'w-1=escue'
p2743
aS'w-1=european'
p2744
aS'w-1=evacuation'
p2745
aS'w-1=even'
p2746
aS'w-1=event'
p2747
aS'w-1=evil'
p2748
aS'w-1=evolve'
p2749
aS'w-1=expansion'
p2750
aS'w-1=experiment'
p2751
aS'w-1=extensive'
p2752
aS'w-1=extremist'
p2753
aS'w-1=fdlr'
p2754
aS'w-1=fence'
p2755
aS'w-1=festivity'
p2756
aS'w-1=final'
p2757
aS'w-1=finalize'
p2758
aS'w-1=firm'
p2759
aS'w-1=fiscal'
p2760
aS'w-1=five-year'
p2761
aS'w-1=flawed'
p2762
aS'w-1=fleet'
p2763
aS'w-1=food-to-fuel'
p2764
aS'w-1=for'
p2765
aS'w-1=force'
p2766
aS'w-1=form'
p2767
aS'w-1=forward-looking'
p2768
aS'w-1=four-year'
p2769
aS'w-1=freeze'
p2770
aS'w-1=from'
p2771
aS'w-1=funeral'
p2772
aS'w-1=future'
p2773
aS'w-1=g77'
p2774
aS'w-1=game'
p2775
aS'w-1=global'
p2776
aS'w-1=good'
p2777
aS'w-1=government'
p2778
aS'w-1=government-led'
p2779
aS'w-1=grand'
p2780
aS'w-1=green'
p2781
aS'w-1=group'
p2782
aS'w-1=guideline'
p2783
aS'w-1=have'
p2784
aS'w-1=he'
p2785
aS'w-1=health'
p2786
aS'w-1=help'
p2787
aS'w-1=highly'
p2788
aS'w-1=honeymoon'
p2789
aS'w-1=housing'
p2790
aS'w-1=hunt'
p2791
aS'w-1=hunter'
p2792
aS'w-1=identification'
p2793
aS'w-1=if'
p2794
aS'w-1=imf-backed'
p2795
aS'w-1=immediate'
p2796
aS'w-1=impact'
p2797
aS'w-1=import'
p2798
aS'w-1=in'
p2799
aS'w-1=include'
p2800
aS'w-1=increase'
p2801
aS'w-1=indeed'
p2802
aS'w-1=independence'
p2803
aS'w-1=individual'
p2804
aS'w-1=industrialization'
p2805
aS'w-1=industry'
p2806
aS'w-1=initial'
p2807
aS'w-1=initially'
p2808
aS'w-1=initiative'
p2809
aS'w-1=innovative'
p2810
aS'w-1=institute'
p2811
aS'w-1=insurance'
p2812
aS'w-1=international'
p2813
aS'w-1=internationally-backed'
p2814
aS'w-1=intervention'
p2815
aS'w-1=investment'
p2816
aS'w-1=iranian'
p2817
aS'w-1=iraqi'
p2818
aS'w-1=israeli'
p2819
aS'w-1=it'
p2820
aS'w-1=its'
p2821
aS'w-1=jailbreak'
p2822
aS'w-1=japanese'
p2823
aS'w-1=jihadist'
p2824
aS'w-1=larger'
p2825
aS'w-1=latest'
p2826
aS'w-1=launch'
p2827
aS'w-1=lawmaker'
p2828
aS'w-1=leader'
p2829
aS'w-1=leadership'
p2830
aS'w-1=legislative'
p2831
aS'w-1=localized'
p2832
aS'w-1=long-range'
p2833
aS'w-1=long-term'
p2834
aS'w-1=make'
p2835
aS'w-1=man'
p2836
aS'w-1=many'
p2837
aS'w-1=marketing'
p2838
aS'w-1=master'
p2839
aS'w-1=maximum'
p2840
aS'w-1=may'
p2841
aS'w-1=mean'
p2842
aS'w-1=meeting'
p2843
aS'w-1=member'
p2844
aS'w-1=membership'
p2845
aS'w-1=meticulously'
p2846
aS'w-1=military'
p2847
aS'w-1=million'
p2848
aS'w-1=ministry'
p2849
aS'w-1=missile'
p2850
aS'w-1=missile-defense'
p2851
aS'w-1=monarchy'
p2852
aS'w-1=movement'
p2853
aS'w-1=multi-faceted'
p2854
aS'w-1=my'
p2855
aS'w-1=national'
p2856
aS'w-1=negotiator'
p2857
aS'w-1=neither'
p2858
aS'w-1=new'
p2859
aS'w-1=neweuro-mediterranean'
p2860
aS'w-1=no'
p2861
aS'w-1=normally'
p2862
aS'w-1=not'
p2863
aS'w-1=now'
p2864
aS'w-1=of'
p2865
aS'w-1=off'
p2866
aS'w-1=official'
p2867
aS'w-1=ofthe'
p2868
aS'w-1=old'
p2869
aS'w-1=on'
p2870
aS'w-1=one'
p2871
aS'w-1=operational'
p2872
aS'w-1=oppose'
p2873
aS'w-1=opposition'
p2874
aS'w-1=or'
p2875
aS'w-1=order'
p2876
aS'w-1=organization'
p2877
aS'w-1=original'
p2878
aS'w-1=originally'
p2879
aS'w-1=other'
p2880
aS'w-1=out'
p2881
aS'w-1=outline'
p2882
aS'w-1=over'
p2883
aS'w-1=overall'
p2884
aS'w-1=overshadow'
p2885
aS'w-1=own'
p2886
aS'w-1=partner'
p2887
aS'w-1=party'
p2888
aS'w-1=payment'
p2889
aS'w-1=peace'
p2890
aS'w-1=peacekeeping'
p2891
aS'w-1=pension'
p2892
aS'w-1=point'
p2893
aS'w-1=policy'
p2894
aS'w-1=political'
p2895
aS'w-1=poorly'
p2896
aS'w-1=possible'
p2897
aS'w-1=post-musharraf'
p2898
aS'w-1=power-sharing'
p2899
aS'w-1=prepare'
p2900
aS'w-1=president'
p2901
aS'w-1=previous'
p2902
aS'w-1=pricing'
p2903
aS'w-1=produce'
p2904
aS'w-1=project'
p2905
aS'w-1=propose'
p2906
aS'w-1=prosecutor'
p2907
aS'w-1=protection'
p2908
aS'w-1=protest'
p2909
aS'w-1=protester'
p2910
aS'w-1=publisher'
p2911
aS'w-1=put'
p2912
aS'w-1=rally'
p2913
aS'w-1=range'
p2914
aS'w-1=rationing'
p2915
aS'w-1=re-denomination'
p2916
aS'w-1=re-election'
p2917
aS'w-1=reaffirm'
p2918
aS'w-1=real'
p2919
aS'w-1=rebel'
p2920
aS'w-1=recent'
p2921
aS'w-1=reconciliation'
p2922
aS'w-1=reconstruction'
p2923
aS'w-1=recovery'
p2924
aS'w-1=reform'
p2925
aS'w-1=reject'
p2926
aS'w-1=reorganization'
p2927
aS'w-1=repatriation'
p2928
aS'w-1=repayment'
p2929
aS'w-1=replacement'
p2930
aS'w-1=report'
p2931
aS'w-1=reportedly'
p2932
aS'w-1=rescue'
p2933
aS'w-1=resident'
p2934
aS'w-1=response'
p2935
aS'w-1=restaurant'
p2936
aS'w-1=restore'
p2937
aS'w-1=restructuring'
p2938
aS'w-1=retaliation'
p2939
aS'w-1=rethink'
p2940
aS'w-1=retirement'
p2941
aS'w-1=reunification'
p2942
aS'w-1=revise'
p2943
aS'w-1=revive'
p2944
aS'w-1=roadmap'
p2945
aS'w-1=russian'
p2946
aS'w-1=safety'
p2947
aS'w-1=savings'
p2948
aS'w-1=say'
p2949
aS'w-1=scholar'
p2950
aS'w-1=school'
p2951
aS'w-1=scientist'
p2952
aS'w-1=scrap'
p2953
aS'w-1=secret'
p2954
aS'w-1=security'
p2955
aS'w-1=session'
p2956
aS'w-1=settlement'
p2957
aS'w-1=she'
p2958
aS'w-1=short-term'
p2959
aS'w-1=should'
p2960
aS'w-1=side'
p2961
aS'w-1=similar'
p2962
aS'w-1=simply'
p2963
aS'w-1=single'
p2964
aS'w-1=six-point'
p2965
aS'w-1=six-step'
p2966
aS'w-1=six-year'
p2967
aS'w-1=some'
p2968
aS'w-1=sophisticated'
p2969
aS'w-1=spaceman'
p2970
aS'w-1=speaker'
p2971
aS'w-1=specific'
p2972
aS'w-1=spending'
p2973
aS'w-1=spoil'
p2974
aS'w-1=stabilization'
p2975
aS'w-1=start'
p2976
aS'w-1=state'
p2977
aS'w-1=stay-behind'
p2978
aS'w-1=still'
p2979
aS'w-1=stimulus'
p2980
aS'w-1=strategic'
p2981
aS'w-1=strategy'
p2982
aS'w-1=strike'
p2983
aS'w-1=student'
p2984
aS'w-1=submit'
p2985
aS'w-1=succession'
p2986
aS'w-1=such'
p2987
aS'w-1=summit'
p2988
aS'w-1=support'
p2989
aS'w-1=supporter'
p2990
aS'w-1=surge'
p2991
aS'w-1=suspend'
p2992
aS'w-1=suspension'
p2993
aS'w-1=sustainment'
p2994
aS'w-1=syrian'
p2995
aS'w-1=system'
p2996
aS'w-1=take-back'
p2997
aS'w-1=tax'
p2998
aS'w-1=team'
p2999
aS'w-1=tentative'
p3000
aS'w-1=terrorist'
p3001
aS'w-1=than'
p3002
aS'w-1=that'
p3003
aS'w-1=the'
p3004
aS'w-1=then'
p3005
aS'w-1=these'
p3006
aS'w-1=they'
p3007
aS'w-1=this'
p3008
aS'w-1=those'
p3009
aS'w-1=thoughtful'
p3010
aS'w-1=three'
p3011
aS'w-1=three-phase'
p3012
aS'w-1=three-year'
p3013
aS'w-1=to'
p3014
aS'w-1=travel'
p3015
aS'w-1=treatment'
p3016
aS'w-1=troop'
p3017
aS'w-1=troop-surge'
p3018
aS'w-1=two'
p3019
aS'w-1=u.s.-mediated'
p3020
aS'w-1=ultimate'
p3021
aS'w-1=un-backed'
p3022
aS'w-1=undermine'
p3023
aS'w-1=unique'
p3024
aS'w-1=unprecedented'
p3025
aS'w-1=unveil'
p3026
aS'w-1=up'
p3027
aS'w-1=update'
p3028
aS'w-1=use'
p3029
aS'w-1=venezuelan'
p3030
aS'w-1=verification'
p3031
aS'w-1=viability'
p3032
aS'w-1=voter'
p3033
aS'w-1=war'
p3034
aS'w-1=we'
p3035
aS'w-1=weapon'
p3036
aS'w-1=wedding'
p3037
aS'w-1=well'
p3038
aS'w-1=well-conceived'
p3039
aS'w-1=western'
p3040
aS'w-1=western-backed'
p3041
aS'w-1=wfp'
p3042
aS'w-1=when'
p3043
aS'w-1=which'
p3044
aS'w-1=while'
p3045
aS'w-1=who'
p3046
aS'w-1=will'
p3047
aS'w-1=with'
p3048
aS'w-1=withdrawal'
p3049
aS'w-1=without'
p3050
aS'w-1=work'
p3051
aS'w-1=work-study'
p3052
aS'w-1=worker'
p3053
aS'w-1=year'
p3054
aS'w-1=you'
p3055
aS'w-2=$'
p3056
aS"w-2='"
p3057
aS"w-2=''"
p3058
aS"w-2='cause"
p3059
aS"w-2='s"
p3060
aS'w-2=,'
p3061
aS'w-2=-'
p3062
aS'w-2=-lrb-'
p3063
aS'w-2=.'
p3064
aS'w-2=100'
p3065
aS'w-2=146'
p3066
aS'w-2=2,000'
p3067
aS'w-2=20'
p3068
aS'w-2=2001'
p3069
aS'w-2=2002'
p3070
aS'w-2=2004'
p3071
aS'w-2=231'
p3072
aS'w-2=52'
p3073
aS'w-2=64'
p3074
aS'w-2=8'
p3075
aS'w-2=:'
p3076
aS'w-2=Adua'
p3077
aS'w-2=Afghanistan'
p3078
aS'w-2=Afghans'
p3079
aS'w-2=Africa'
p3080
aS'w-2=Ahtisaari'
p3081
aS'w-2=Ankara'
p3082
aS'w-2=Annan'
p3083
aS'w-2=Arab'
p3084
aS'w-2=Atlantis'
p3085
aS'w-2=Australia'
p3086
aS'w-2=Baghdad'
p3087
aS'w-2=Beijing'
p3088
aS'w-2=Bloomberg'
p3089
aS'w-2=Brandon'
p3090
aS'w-2=Brisbane'
p3091
aS'w-2=Brown'
p3092
aS'w-2=Bush'
p3093
aS'w-2=CARE'
p3094
aS'w-2=Cairo'
p3095
aS'w-2=California'
p3096
aS'w-2=Cambodia'
p3097
aS'w-2=Canberra'
p3098
aS'w-2=Carter'
p3099
aS'w-2=Chavez'
p3100
aS'w-2=Clinton'
p3101
aS'w-2=Commission'
p3102
aS'w-2=Committee'
p3103
aS'w-2=Congress'
p3104
aS'w-2=Copeland'
p3105
aS'w-2=Corporation'
p3106
aS'w-2=Countries'
p3107
aS'w-2=Day'
p3108
aS'w-2=Derview'
p3109
aS'w-2=Design'
p3110
aS'w-2=Donovan'
p3111
aS'w-2=EU'
p3112
aS'w-2=East'
p3113
aS'w-2=Ehud'
p3114
aS'w-2=Emirates'
p3115
aS'w-2=Energy'
p3116
aS'w-2=Europe'
p3117
aS'w-2=Fatah'
p3118
aS'w-2=Fed'
p3119
aS'w-2=Fleming'
p3120
aS'w-2=Fort'
p3121
aS'w-2=France'
p3122
aS'w-2=Friday'
p3123
aS'w-2=Gates'
p3124
aS'w-2=Gaza'
p3125
aS'w-2=Gbagbo'
p3126
aS'w-2=Georgia'
p3127
aS'w-2=Gerard'
p3128
aS'w-2=God'
p3129
aS'w-2=Health'
p3130
aS'w-2=Hong'
p3131
aS'w-2=Horta'
p3132
aS'w-2=House'
p3133
aS'w-2=I'
p3134
aS'w-2=ID'
p3135
aS'w-2=India'
p3136
aS'w-2=Integrated'
p3137
aS'w-2=Iraq'
p3138
aS'w-2=Islamists'
p3139
aS'w-2=Israel'
p3140
aS'w-2=Italy'
p3141
aS'w-2=Japan'
p3142
aS'w-2=John'
p3143
aS'w-2=Kashmir'
p3144
aS'w-2=Kazakhstan'
p3145
aS'w-2=Ki-Moon'
p3146
aS'w-2=Korea'
p3147
aS'w-2=Labor'
p3148
aS'w-2=Laden'
p3149
aS'w-2=Lahore'
p3150
aS'w-2=Lee'
p3151
aS'w-2=Life'
p3152
aS'w-2=London'
p3153
aS'w-2=Maliki'
p3154
aS'w-2=March'
p3155
aS'w-2=Market'
p3156
aS'w-2=Mastrogiacomo'
p3157
aS'w-2=May'
p3158
aS'w-2=Mexicanos'
p3159
aS'w-2=Minister'
p3160
aS'w-2=Mofaz'
p3161
aS'w-2=Monday'
p3162
aS'w-2=Moratinos'
p3163
aS'w-2=Mr.'
p3164
aS'w-2=Ms.'
p3165
aS'w-2=Murtha'
p3166
aS'w-2=Musharraf'
p3167
aS'w-2=Myung-bak'
p3168
aS'w-2=NASA'
p3169
aS'w-2=NATO'
p3170
aS'w-2=Nairobi'
p3171
aS'w-2=Nangarhar'
p3172
aS'w-2=North'
p3173
aS'w-2=Obama'
p3174
aS'w-2=Obrador'
p3175
aS'w-2=Olmert'
p3176
aS'w-2=Organization'
p3177
aS'w-2=Pakistan'
p3178
aS'w-2=Paulson'
p3179
aS'w-2=Penalosa'
p3180
aS'w-2=Planktos'
p3181
aS'w-2=Poland'
p3182
aS'w-2=President'
p3183
aS'w-2=Preval'
p3184
aS'w-2=Putin'
p3185
aS'w-2=Red'
p3186
aS'w-2=Rehn'
p3187
aS'w-2=Reid'
p3188
aS'w-2=Republic'
p3189
aS'w-2=Republicans'
p3190
aS'w-2=Resources'
p3191
aS'w-2=Roadmap'
p3192
aS'w-2=Roh'
p3193
aS'w-2=Rudd'
p3194
aS'w-2=Russia'
p3195
aS'w-2=Rwanda'
p3196
aS'w-2=Sanchar'
p3197
aS'w-2=Sanha'
p3198
aS'w-2=Sarkozy'
p3199
aS'w-2=Scott'
p3200
aS'w-2=Secretary'
p3201
aS'w-2=Secretary-General'
p3202
aS'w-2=Senate'
p3203
aS'w-2=Senator'
p3204
aS'w-2=Seoul'
p3205
aS'w-2=September'
p3206
aS'w-2=Sophia'
p3207
aS'w-2=States'
p3208
aS'w-2=Street'
p3209
aS'w-2=Sudan'
p3210
aS'w-2=Syria'
p3211
aS'w-2=Taleban'
p3212
aS'w-2=Taliban'
p3213
aS'w-2=Tan'
p3214
aS'w-2=Texas'
p3215
aS'w-2=Theinterim'
p3216
aS'w-2=Thompson'
p3217
aS'w-2=Timor'
p3218
aS'w-2=Tuesday'
p3219
aS'w-2=U.N.'
p3220
aS'w-2=U.N.-AU'
p3221
aS'w-2=U.S.'
p3222
aS'w-2=UNHCR'
p3223
aS'w-2=UNICEF'
p3224
aS'w-2=Union'
p3225
aS'w-2=United'
p3226
aS'w-2=Virgin'
p3227
aS'w-2=Wade'
p3228
aS'w-2=Wal-Mart'
p3229
aS'w-2=Wednesday'
p3230
aS'w-2=William'
p3231
aS'w-2=Yushchenko'
p3232
aS'w-2=Zarwan'
p3233
aS'w-2=`'
p3234
aS'w-2=a'
p3235
aS'w-2=abandon'
p3236
aS'w-2=about'
p3237
aS'w-2=accelerate'
p3238
aS'w-2=accept'
p3239
aS'w-2=accident'
p3240
aS'w-2=accompany'
p3241
aS'w-2=accord'
p3242
aS'w-2=accuse'
p3243
aS'w-2=achievement'
p3244
aS'w-2=activate'
p3245
aS'w-2=activist'
p3246
aS'w-2=additional'
p3247
aS'w-2=address'
p3248
aS'w-2=administration'
p3249
aS'w-2=admit'
p3250
aS'w-2=adopt'
p3251
aS'w-2=advocate'
p3252
aS'w-2=affect'
p3253
aS'w-2=after'
p3254
aS'w-2=again'
p3255
aS'w-2=against'
p3256
aS'w-2=agency'
p3257
aS'w-2=agenda'
p3258
aS'w-2=agree'
p3259
aS'w-2=agricultural'
p3260
aS'w-2=ahead'
p3261
aS'w-2=aid'
p3262
aS'w-2=aide'
p3263
aS'w-2=al-Qaida'
p3264
aS'w-2=al-qaida'
p3265
aS'w-2=allege'
p3266
aS'w-2=allow'
p3267
aS'w-2=alongside'
p3268
aS'w-2=already'
p3269
aS'w-2=also'
p3270
aS'w-2=alter'
p3271
aS'w-2=alternative'
p3272
aS'w-2=although'
p3273
aS'w-2=ambitious'
p3274
aS'w-2=american'
p3275
aS'w-2=amid'
p3276
aS'w-2=and'
p3277
aS'w-2=announce'
p3278
aS'w-2=announcement'
p3279
aS'w-2=annual'
p3280
aS'w-2=anti-globalization'
p3281
aS'w-2=any'
p3282
aS'w-2=approve'
p3283
aS'w-2=argue'
p3284
aS'w-2=army'
p3285
aS'w-2=arrest'
p3286
aS'w-2=as'
p3287
aS'w-2=astronaut'
p3288
aS'w-2=at'
p3289
aS'w-2=attack'
p3290
aS'w-2=attorney'
p3291
aS'w-2=australian'
p3292
aS'w-2=authority'
p3293
aS'w-2=avert'
p3294
aS'w-2=back'
p3295
aS'w-2=bail'
p3296
aS'w-2=bank'
p3297
aS'w-2=be'
p3298
aS'w-2=because'
p3299
aS'w-2=before'
p3300
aS'w-2=behind'
p3301
aS'w-2=believe'
p3302
aS'w-2=billion'
p3303
aS'w-2=bird'
p3304
aS'w-2=block'
p3305
aS'w-2=boycott'
p3306
aS'w-2=briefing'
p3307
aS'w-2=british'
p3308
aS'w-2=build'
p3309
aS'w-2=building'
p3310
aS'w-2=but'
p3311
aS'w-2=by'
p3312
aS'w-2=call'
p3313
aS'w-2=campaign'
p3314
aS'w-2=cancel'
p3315
aS'w-2=candidate'
p3316
aS'w-2=care'
p3317
aS'w-2=carry'
p3318
aS'w-2=cautious'
p3319
aS'w-2=cease-fire'
p3320
aS'w-2=centralized'
p3321
aS'w-2=challenge'
p3322
aS'w-2=change'
p3323
aS'w-2=charge'
p3324
aS'w-2=child'
p3325
aS'w-2=circulate'
p3326
aS'w-2=city'
p3327
aS'w-2=claim'
p3328
aS'w-2=clear'
p3329
aS'w-2=climate'
p3330
aS'w-2=coal'
p3331
aS'w-2=commander'
p3332
aS'w-2=committee'
p3333
aS'w-2=company'
p3334
aS'w-2=comprehensive'
p3335
aS'w-2=concern'
p3336
aS'w-2=concession'
p3337
aS'w-2=concrete'
p3338
aS'w-2=condemn'
p3339
aS'w-2=conference'
p3340
aS'w-2=consider'
p3341
aS'w-2=conspiracy'
p3342
aS'w-2=conspirator'
p3343
aS'w-2=consultation'
p3344
aS'w-2=contain'
p3345
aS'w-2=continue'
p3346
aS'w-2=controversial'
p3347
aS'w-2=controversy'
p3348
aS'w-2=corporate'
p3349
aS'w-2=could'
p3350
aS'w-2=counter'
p3351
aS'w-2=couple'
p3352
aS'w-2=cover'
p3353
aS'w-2=create'
p3354
aS'w-2=criticism'
p3355
aS'w-2=criticize'
p3356
aS'w-2=current'
p3357
aS'w-2=dead'
p3358
aS'w-2=deal'
p3359
aS'w-2=debate'
p3360
aS'w-2=decision'
p3361
aS'w-2=defeat'
p3362
aS'w-2=defend'
p3363
aS'w-2=defense'
p3364
aS'w-2=delay'
p3365
aS'w-2=democracy'
p3366
aS'w-2=democrat'
p3367
aS'w-2=democratic'
p3368
aS'w-2=democratically-controlled'
p3369
aS'w-2=denounce'
p3370
aS'w-2=deploy'
p3371
aS'w-2=derail'
p3372
aS'w-2=describe'
p3373
aS'w-2=despite'
p3374
aS'w-2=detail'
p3375
aS'w-2=detailed'
p3376
aS'w-2=determine'
p3377
aS'w-2=develop'
p3378
aS'w-2=development'
p3379
aS'w-2=devise'
p3380
aS'w-2=dictate'
p3381
aS'w-2=different'
p3382
aS'w-2=director'
p3383
aS'w-2=disaster'
p3384
aS'w-2=discuss'
p3385
aS'w-2=disrupt'
p3386
aS'w-2=do'
p3387
aS'w-2=document'
p3388
aS'w-2=draft'
p3389
aS'w-2=draw'
p3390
aS'w-2=drop'
p3391
aS'w-2=drug'
p3392
aS'w-2=each'
p3393
aS'w-2=earlier'
p3394
aS'w-2=easier'
p3395
aS'w-2=economic'
p3396
aS'w-2=effectively'
p3397
aS'w-2=effort'
p3398
aS'w-2=either'
p3399
aS'w-2=election'
p3400
aS'w-2=embrace'
p3401
aS'w-2=emergency'
p3402
aS'w-2=enact'
p3403
aS'w-2=endorse'
p3404
aS'w-2=enemy'
p3405
aS'w-2=ensure'
p3406
aS'w-2=equipment'
p3407
aS'w-2=european'
p3408
aS'w-2=even'
p3409
aS'w-2=event'
p3410
aS'w-2=exceed'
p3411
aS'w-2=execute'
p3412
aS'w-2=executive'
p3413
aS'w-2=expatriate'
p3414
aS'w-2=explore'
p3415
aS'w-2=extensive'
p3416
aS'w-2=extremist'
p3417
aS'w-2=eye'
p3418
aS'w-2=fail'
p3419
aS'w-2=failure'
p3420
aS'w-2=farmer'
p3421
aS'w-2=faster-than-expected'
p3422
aS'w-2=federal'
p3423
aS'w-2=feel'
p3424
aS'w-2=fighter'
p3425
aS'w-2=fill'
p3426
aS'w-2=filmmaker'
p3427
aS'w-2=financial'
p3428
aS'w-2=first'
p3429
aS'w-2=flexibility'
p3430
aS'w-2=flight'
p3431
aS'w-2=foiled'
p3432
aS'w-2=follow'
p3433
aS'w-2=food'
p3434
aS'w-2=for'
p3435
aS'w-2=force'
p3436
aS'w-2=foreign'
p3437
aS'w-2=formal'
p3438
aS'w-2=formalize'
p3439
aS'w-2=formally'
p3440
aS'w-2=formulate'
p3441
aS'w-2=forward'
p3442
aS'w-2=four-year'
p3443
aS'w-2=fringe'
p3444
aS'w-2=from'
p3445
aS'w-2=front'
p3446
aS'w-2=funded'
p3447
aS'w-2=further'
p3448
aS'w-2=future'
p3449
aS'w-2=general'
p3450
aS'w-2=get'
p3451
aS'w-2=give'
p3452
aS'w-2=global'
p3453
aS'w-2=go'
p3454
aS'w-2=government'
p3455
aS'w-2=governor'
p3456
aS'w-2=graduate'
p3457
aS'w-2=group'
p3458
aS'w-2=guest'
p3459
aS'w-2=guilty'
p3460
aS'w-2=halt'
p3461
aS'w-2=hand'
p3462
aS'w-2=happen'
p3463
aS'w-2=harbor'
p3464
aS'w-2=have'
p3465
aS'w-2=haven'
p3466
aS'w-2=he'
p3467
aS'w-2=health'
p3468
aS'w-2=hear'
p3469
aS'w-2=here'
p3470
aS'w-2=highland'
p3471
aS'w-2=hit'
p3472
aS'w-2=hope'
p3473
aS'w-2=how'
p3474
aS'w-2=hydroelectric'
p3475
aS'w-2=ict'
p3476
aS'w-2=if'
p3477
aS'w-2=immigrant'
p3478
aS'w-2=implement'
p3479
aS'w-2=impossible'
p3480
aS'w-2=in'
p3481
aS'w-2=include'
p3482
aS'w-2=incorporate'
p3483
aS'w-2=indicate'
p3484
aS'w-2=infrastructure'
p3485
aS'w-2=insist'
p3486
aS'w-2=inspector'
p3487
aS'w-2=insurgent'
p3488
aS'w-2=intention'
p3489
aS'w-2=interim'
p3490
aS'w-2=international'
p3491
aS'w-2=interrupt'
p3492
aS'w-2=into'
p3493
aS'w-2=introduce'
p3494
aS'w-2=investment'
p3495
aS'w-2=involve'
p3496
aS'w-2=iraqi'
p3497
aS'w-2=issue'
p3498
aS'w-2=it'
p3499
aS'w-2=its'
p3500
aS'w-2=japanese'
p3501
aS'w-2=join'
p3502
aS'w-2=joint'
p3503
aS'w-2=justify'
p3504
aS'w-2=kid'
p3505
aS'w-2=kind'
p3506
aS'w-2=korean'
p3507
aS'w-2=land'
p3508
aS'w-2=language'
p3509
aS'w-2=last'
p3510
aS'w-2=later'
p3511
aS'w-2=launch'
p3512
aS'w-2=lawyer'
p3513
aS'w-2=lay'
p3514
aS'w-2=leader'
p3515
aS'w-2=leadership'
p3516
aS'w-2=leave'
p3517
aS'w-2=level'
p3518
aS'w-2=limitation'
p3519
aS'w-2=link'
p3520
aS'w-2=local'
p3521
aS'w-2=long'
p3522
aS'w-2=long-term'
p3523
aS'w-2=longer'
p3524
aS'w-2=lunar'
p3525
aS'w-2=make'
p3526
aS'w-2=mansion'
p3527
aS'w-2=many'
p3528
aS'w-2=map'
p3529
aS'w-2=mass'
p3530
aS'w-2=may'
p3531
aS'w-2=measure'
p3532
aS'w-2=mechanism'
p3533
aS'w-2=medical'
p3534
aS'w-2=meeting'
p3535
aS'w-2=membership'
p3536
aS'w-2=mideast'
p3537
aS'w-2=might'
p3538
aS'w-2=military'
p3539
aS'w-2=mine'
p3540
aS'w-2=minister'
p3541
aS'w-2=missile'
p3542
aS'w-2=missile-defense'
p3543
aS'w-2=modest'
p3544
aS'w-2=month'
p3545
aS'w-2=most'
p3546
aS'w-2=move'
p3547
aS'w-2=much'
p3548
aS'w-2=multi-million'
p3549
aS'w-2=multi-year'
p3550
aS'w-2=municipality'
p3551
aS'w-2=museum'
p3552
aS'w-2=muslim'
p3553
aS'w-2=must'
p3554
aS'w-2=my'
p3555
aS'w-2=nation'
p3556
aS'w-2=national'
p3557
aS'w-2=navy'
p3558
aS'w-2=need'
p3559
aS'w-2=never'
p3560
aS'w-2=new'
p3561
aS'w-2=night'
p3562
aS'w-2=no'
p3563
aS'w-2=not'
p3564
aS'w-2=nothing'
p3565
aS'w-2=now'
p3566
aS'w-2=nuclear'
p3567
aS'w-2=number'
p3568
aS'w-2=of'
p3569
aS'w-2=off'
p3570
aS'w-2=offensive'
p3571
aS'w-2=offer'
p3572
aS'w-2=office'
p3573
aS'w-2=officer'
p3574
aS'w-2=official'
p3575
aS'w-2=old'
p3576
aS'w-2=on'
p3577
aS'w-2=one'
p3578
aS'w-2=operation'
p3579
aS'w-2=opponent'
p3580
aS'w-2=oppose'
p3581
aS'w-2=opposition'
p3582
aS'w-2=organization'
p3583
aS'w-2=other'
p3584
aS'w-2=out'
p3585
aS'w-2=outline'
p3586
aS'w-2=outset'
p3587
aS'w-2=over'
p3588
aS'w-2=pact'
p3589
aS'w-2=partner'
p3590
aS'w-2=party'
p3591
aS'w-2=peace'
p3592
aS'w-2=pension'
p3593
aS'w-2=people'
p3594
aS'w-2=perhaps'
p3595
aS'w-2=place'
p3596
aS'w-2=plague'
p3597
aS'w-2=plot'
p3598
aS'w-2=point'
p3599
aS'w-2=polar'
p3600
aS'w-2=police'
p3601
aS'w-2=policy'
p3602
aS'w-2=port'
p3603
aS'w-2=postpone'
p3604
aS'w-2=power'
p3605
aS'w-2=precede'
p3606
aS'w-2=pregnancy'
p3607
aS'w-2=pregnant'
p3608
aS'w-2=prepare'
p3609
aS'w-2=present'
p3610
aS'w-2=president'
p3611
aS'w-2=presidential'
p3612
aS'w-2=prevent'
p3613
aS'w-2=previous'
p3614
aS'w-2=proceeds'
p3615
aS'w-2=produce'
p3616
aS'w-2=project'
p3617
aS'w-2=promote'
p3618
aS'w-2=propose'
p3619
aS'w-2=protest'
p3620
aS'w-2=protester'
p3621
aS'w-2=provide'
p3622
aS'w-2=province'
p3623
aS'w-2=pudding'
p3624
aS'w-2=purse'
p3625
aS'w-2=push'
p3626
aS'w-2=put'
p3627
aS'w-2=quartet'
p3628
aS'w-2=rally'
p3629
aS'w-2=rapid'
p3630
aS'w-2=really'
p3631
aS'w-2=rebel'
p3632
aS'w-2=recently'
p3633
aS'w-2=region'
p3634
aS'w-2=reject'
p3635
aS'w-2=release'
p3636
aS'w-2=report'
p3637
aS'w-2=reporter'
p3638
aS'w-2=researcher'
p3639
aS'w-2=responsible'
p3640
aS'w-2=reveal'
p3641
aS'w-2=review'
p3642
aS'w-2=revive'
p3643
aS'w-2=rights'
p3644
aS'w-2=road-map'
p3645
aS'w-2=rule'
p3646
aS'w-2=rural'
p3647
aS'w-2=russian'
p3648
aS'w-2=safe-haven'
p3649
aS'w-2=satisfy'
p3650
aS'w-2=saudi-authored'
p3651
aS'w-2=saudi-brokered'
p3652
aS'w-2=say'
p3653
aS'w-2=scheme'
p3654
aS'w-2=scholar'
p3655
aS'w-2=school'
p3656
aS'w-2=screening'
p3657
aS'w-2=scrub'
p3658
aS'w-2=send'
p3659
aS'w-2=senegalese'
p3660
aS'w-2=sensor'
p3661
aS'w-2=separatist'
p3662
aS'w-2=set'
p3663
aS'w-2=seven'
p3664
aS'w-2=several'
p3665
aS'w-2=sharply'
p3666
aS'w-2=she'
p3667
aS'w-2=short-term'
p3668
aS'w-2=should'
p3669
aS'w-2=sidekick'
p3670
aS'w-2=sign'
p3671
aS'w-2=similar'
p3672
aS'w-2=since'
p3673
aS'w-2=site'
p3674
aS'w-2=slow'
p3675
aS'w-2=slower'
p3676
aS'w-2=small'
p3677
aS'w-2=so'
p3678
aS'w-2=society'
p3679
aS'w-2=some'
p3680
aS'w-2=speak'
p3681
aS'w-2=spearhead'
p3682
aS'w-2=specific'
p3683
aS'w-2=spend'
p3684
aS'w-2=spur'
p3685
aS'w-2=staff'
p3686
aS'w-2=stake'
p3687
aS'w-2=stall'
p3688
aS'w-2=state'
p3689
aS'w-2=step-by-step'
p3690
aS'w-2=stick'
p3691
aS'w-2=still'
p3692
aS'w-2=stop'
p3693
aS'w-2=student'
p3694
aS'w-2=submit'
p3695
aS'w-2=substantial'
p3696
aS'w-2=such'
p3697
aS'w-2=suicide'
p3698
aS'w-2=summit'
p3699
aS'w-2=support'
p3700
aS'w-2=surge'
p3701
aS'w-2=suspend'
p3702
aS'w-2=talk'
p3703
aS'w-2=terrorist'
p3704
aS'w-2=testing'
p3705
aS'w-2=than'
p3706
aS'w-2=that'
p3707
aS'w-2=the'
p3708
aS'w-2=then'
p3709
aS'w-2=there'
p3710
aS'w-2=they'
p3711
aS'w-2=thing'
p3712
aS'w-2=think'
p3713
aS'w-2=this'
p3714
aS'w-2=those'
p3715
aS'w-2=thought-out'
p3716
aS'w-2=threaten'
p3717
aS'w-2=three'
p3718
aS'w-2=three-phase'
p3719
aS'w-2=three-point'
p3720
aS'w-2=through'
p3721
aS'w-2=tibetan'
p3722
aS'w-2=to'
p3723
aS'w-2=together'
p3724
aS'w-2=trader'
p3725
aS'w-2=traffic'
p3726
aS'w-2=training'
p3727
aS'w-2=treaty'
p3728
aS'w-2=trial'
p3729
aS'w-2=trillion'
p3730
aS'w-2=troop'
p3731
aS'w-2=troops'
p3732
aS'w-2=try'
p3733
aS'w-2=turkish'
p3734
aS'w-2=two'
p3735
aS'w-2=under'
p3736
aS'w-2=understand'
p3737
aS'w-2=unit'
p3738
aS'w-2=unveil'
p3739
aS'w-2=up'
p3740
aS'w-2=upgrade'
p3741
aS'w-2=use'
p3742
aS'w-2=vaccine'
p3743
aS'w-2=very'
p3744
aS'w-2=veto'
p3745
aS'w-2=view'
p3746
aS'w-2=visit'
p3747
aS'w-2=voluntary'
p3748
aS'w-2=voter'
p3749
aS'w-2=want'
p3750
aS'w-2=way'
p3751
aS'w-2=we'
p3752
aS'w-2=week'
p3753
aS'w-2=welcome'
p3754
aS'w-2=well-armed'
p3755
aS'w-2=western'
p3756
aS'w-2=whale'
p3757
aS'w-2=whaler'
p3758
aS'w-2=what'
p3759
aS'w-2=when'
p3760
aS'w-2=where'
p3761
aS'w-2=whereas'
p3762
aS'w-2=whether'
p3763
aS'w-2=which'
p3764
aS'w-2=while'
p3765
aS'w-2=who'
p3766
aS'w-2=wide-ranging'
p3767
aS'w-2=will'
p3768
aS'w-2=wipha'
p3769
aS'w-2=with'
p3770
aS'w-2=without'
p3771
aS'w-2=woman'
p3772
aS'w-2=work'
p3773
aS'w-2=worker'
p3774
aS'w-2=year'
p3775
aS'w-2=you'
p3776
aS'w-2=youth'
p3777
aS'xcomp=#NUMBER#'
p3778
aS'xcomp=add'
p3779
aS'xcomp=address'
p3780
aS'xcomp=adopt'
p3781
aS'xcomp=air'
p3782
aS'xcomp=announce'
p3783
aS'xcomp=appeal'
p3784
aS'xcomp=apply'
p3785
aS'xcomp=ask'
p3786
aS'xcomp=assemble'
p3787
aS'xcomp=attach'
p3788
aS'xcomp=attack'
p3789
aS'xcomp=attend'
p3790
aS'xcomp=be'
p3791
aS'xcomp=begin'
p3792
aS'xcomp=block'
p3793
aS'xcomp=bomber'
p3794
aS'xcomp=boost'
p3795
aS'xcomp=borrow'
p3796
aS'xcomp=bring'
p3797
aS'xcomp=build'
p3798
aS'xcomp=call'
p3799
aS'xcomp=capture'
p3800
aS'xcomp=carry'
p3801
aS'xcomp=cast'
p3802
aS'xcomp=catch'
p3803
aS'xcomp=cater'
p3804
aS'xcomp=challenge'
p3805
aS'xcomp=change'
p3806
aS'xcomp=cleanse'
p3807
aS'xcomp=close'
p3808
aS'xcomp=commemorate'
p3809
aS'xcomp=commit'
p3810
aS'xcomp=compensate'
p3811
aS'xcomp=complete'
p3812
aS'xcomp=conduct'
p3813
aS'xcomp=construct'
p3814
aS'xcomp=consult'
p3815
aS'xcomp=contest'
p3816
aS'xcomp=continue'
p3817
aS'xcomp=convene'
p3818
aS'xcomp=convert'
p3819
aS'xcomp=create'
p3820
aS'xcomp=cross'
p3821
aS'xcomp=cut'
p3822
aS'xcomp=deal'
p3823
aS'xcomp=declare'
p3824
aS'xcomp=defend'
p3825
aS'xcomp=delay'
p3826
aS'xcomp=deliver'
p3827
aS'xcomp=demand'
p3828
aS'xcomp=demolish'
p3829
aS'xcomp=deploy'
p3830
aS'xcomp=descend'
p3831
aS'xcomp=destroy'
p3832
aS'xcomp=detonate'
p3833
aS'xcomp=develop'
p3834
aS'xcomp=devote'
p3835
aS'xcomp=disarm'
p3836
aS'xcomp=discover'
p3837
aS'xcomp=discuss'
p3838
aS'xcomp=disrupt'
p3839
aS'xcomp=distribute'
p3840
aS'xcomp=do'
p3841
aS'xcomp=donate'
p3842
aS'xcomp=double'
p3843
aS'xcomp=draw'
p3844
aS'xcomp=drive'
p3845
aS'xcomp=ease'
p3846
aS'xcomp=educate'
p3847
aS'xcomp=eliminate'
p3848
aS'xcomp=engage'
p3849
aS'xcomp=enter'
p3850
aS'xcomp=establish'
p3851
aS'xcomp=evaluate'
p3852
aS'xcomp=execute'
p3853
aS'xcomp=expand'
p3854
aS'xcomp=explore'
p3855
aS'xcomp=export'
p3856
aS'xcomp=extend'
p3857
aS'xcomp=extradite'
p3858
aS'xcomp=feature'
p3859
aS'xcomp=fight'
p3860
aS'xcomp=file'
p3861
aS'xcomp=flee'
p3862
aS'xcomp=fly'
p3863
aS'xcomp=focus'
p3864
aS'xcomp=follow'
p3865
aS'xcomp=force'
p3866
aS'xcomp=form'
p3867
aS'xcomp=gather'
p3868
aS'xcomp=get'
p3869
aS'xcomp=girl'
p3870
aS'xcomp=give'
p3871
aS'xcomp=go'
p3872
aS'xcomp=grant'
p3873
aS'xcomp=guard'
p3874
aS'xcomp=hand'
p3875
aS'xcomp=have'
p3876
aS'xcomp=head'
p3877
aS'xcomp=help'
p3878
aS'xcomp=hold'
p3879
aS'xcomp=honor'
p3880
aS'xcomp=import'
p3881
aS'xcomp=improve'
p3882
aS'xcomp=increase'
p3883
aS'xcomp=indict'
p3884
aS'xcomp=initiate'
p3885
aS'xcomp=install'
p3886
aS'xcomp=introduce'
p3887
aS'xcomp=invest'
p3888
aS'xcomp=investigate'
p3889
aS'xcomp=issue'
p3890
aS'xcomp=join'
p3891
aS'xcomp=keep'
p3892
aS'xcomp=kick'
p3893
aS'xcomp=kill'
p3894
aS'xcomp=launch'
p3895
aS'xcomp=lay'
p3896
aS'xcomp=lead'
p3897
aS'xcomp=lease'
p3898
aS'xcomp=leave'
p3899
aS'xcomp=let'
p3900
aS'xcomp=license'
p3901
aS'xcomp=listen'
p3902
aS'xcomp=live'
p3903
aS'xcomp=look'
p3904
aS'xcomp=make'
p3905
aS'xcomp=manufacture'
p3906
aS'xcomp=mark'
p3907
aS'xcomp=marry'
p3908
aS'xcomp=mass-produce'
p3909
aS'xcomp=meet'
p3910
aS'xcomp=mount'
p3911
aS'xcomp=move'
p3912
aS'xcomp=name'
p3913
aS'xcomp=nationalize'
p3914
aS'xcomp=observe'
p3915
aS'xcomp=offer'
p3916
aS'xcomp=open'
p3917
aS'xcomp=operate'
p3918
aS'xcomp=oppose'
p3919
aS'xcomp=order'
p3920
aS'xcomp=overthrow'
p3921
aS'xcomp=place'
p3922
aS'xcomp=play'
p3923
aS'xcomp=plead'
p3924
aS'xcomp=produce'
p3925
aS'xcomp=profitable'
p3926
aS'xcomp=propose'
p3927
aS'xcomp=prosecute'
p3928
aS'xcomp=prove'
p3929
aS'xcomp=provide'
p3930
aS'xcomp=publicize'
p3931
aS'xcomp=punish'
p3932
aS'xcomp=push'
p3933
aS'xcomp=put'
p3934
aS'xcomp=raise'
p3935
aS'xcomp=re-do'
p3936
aS'xcomp=re-open'
p3937
aS'xcomp=re-try'
p3938
aS'xcomp=reactivate'
p3939
aS'xcomp=rearrange'
p3940
aS'xcomp=reassess'
p3941
aS'xcomp=reduce'
p3942
aS'xcomp=reintroduce'
p3943
aS'xcomp=release'
p3944
aS'xcomp=relocate'
p3945
aS'xcomp=repair'
p3946
aS'xcomp=repatriate'
p3947
aS'xcomp=request'
p3948
aS'xcomp=resign'
p3949
aS'xcomp=resolve'
p3950
aS'xcomp=restore'
p3951
aS'xcomp=restructure'
p3952
aS'xcomp=resume'
p3953
aS'xcomp=retire'
p3954
aS'xcomp=return'
p3955
aS'xcomp=review'
p3956
aS'xcomp=revive'
p3957
aS'xcomp=run'
p3958
aS'xcomp=say'
p3959
aS'xcomp=scale'
p3960
aS'xcomp=see'
p3961
aS'xcomp=sell'
p3962
aS'xcomp=send'
p3963
aS'xcomp=serve'
p3964
aS'xcomp=set'
p3965
aS'xcomp=share'
p3966
aS'xcomp=ship'
p3967
aS'xcomp=show'
p3968
aS'xcomp=sign'
p3969
aS'xcomp=snatch'
p3970
aS'xcomp=speak'
p3971
aS'xcomp=spend'
p3972
aS'xcomp=stage'
p3973
aS'xcomp=start'
p3974
aS'xcomp=stay'
p3975
aS'xcomp=stem'
p3976
aS'xcomp=step'
p3977
aS'xcomp=stop'
p3978
aS'xcomp=strike'
p3979
aS'xcomp=subjugate'
p3980
aS'xcomp=support'
p3981
aS'xcomp=surround'
p3982
aS'xcomp=suspend'
p3983
aS'xcomp=take'
p3984
aS'xcomp=talk'
p3985
aS'xcomp=target'
p3986
aS'xcomp=teacher'
p3987
aS'xcomp=technician'
p3988
aS'xcomp=test'
p3989
aS'xcomp=tour'
p3990
aS'xcomp=train'
p3991
aS'xcomp=transform'
p3992
aS'xcomp=travel'
p3993
aS'xcomp=treat'
p3994
aS'xcomp=try'
p3995
aS'xcomp=turn'
p3996
aS'xcomp=unblock'
p3997
aS'xcomp=underscore'
p3998
aS'xcomp=unveil'
p3999
aS'xcomp=use'
p4000
aS'xcomp=utilize'
p4001
aS'xcomp=vaccinate'
p4002
aS'xcomp=visit'
p4003
aS'xcomp=voice'
p4004
aS'xcomp=vote'
p4005
aS'xcomp=wage'
p4006
aS'xcomp=win'
p4007
aS'xcomp=withdraw'
p4008
aS'xcomp=work'
p4009
aS'xcomp=worry'
p4010
aS'xcomp=write'
p4011
asS'dtype'
p4012
cnumpy
float64
p4013
sS'vocabulary_'
p4014
(dp4015
g3786
I3777
sg1261
I1252
sg3085
I3076
sg3032
I3023
sg64
I55
sg1778
I1769
sg1553
I1544
sg412
I403
sg1243
I1234
sg2514
I2505
sg175
I166
sg1928
I1919
sg2953
I2944
sg177
I168
sg27
I18
sg2287
I2278
sg3123
I3114
sg2036
I2027
sg2684
I2675
sg2058
I2049
sg2897
I2888
sg1807
I1798
sg2675
I2666
sg1808
I1799
sg3911
I3902
sg3002
I2993
sg1809
I1800
sg422
I413
sg3572
I3563
sg3215
I3206
sg2388
I2379
sg2069
I2060
sg2460
I2451
sg3561
I3552
sg1683
I1674
sg1371
I1362
sg3601
I3592
sg2962
I2953
sg2334
I2325
sg3488
I3479
sg119
I110
sg369
I360
sg3023
I3014
sg2731
I2722
sg641
I632
sg3559
I3550
sg1557
I1548
sg2814
I2805
sg3797
I3788
sg3443
I3434
sg3602
I3593
sg357
I348
sg335
I326
sg3758
I3749
sg2452
I2443
sg3506
I3497
sg2734
I2725
sg2542
I2533
sg1976
I1967
sg3680
I3671
sg2278
I2269
sg347
I338
sg2230
I2221
sg1022
I1013
sg2575
I2566
sg3862
I3853
sg225
I216
sg2892
I2883
sg2640
I2631
sg947
I938
sg2859
I2850
sg3883
I3874
sg1713
I1704
sg2491
I2482
sg1291
I1282
sg2030
I2021
sg1202
I1193
sg1486
I1477
sg803
I794
sg2288
I2279
sg2807
I2798
sg2808
I2799
sg2913
I2904
sg551
I542
sg2322
I2313
sg3783
I3774
sg2454
I2445
sg2493
I2484
sg3824
I3815
sg3047
I3038
sg3802
I3793
sg3317
I3308
sg2872
I2863
sg3511
I3502
sg332
I323
sg3104
I3095
sg3523
I3514
sg3198
I3189
sg3478
I3469
sg1568
I1559
sg3533
I3524
sg3038
I3029
sg2368
I2359
sg3495
I3486
sg2304
I2295
sg844
I835
sg3884
I3875
sg2443
I2434
sg2228
I2219
sg1564
I1555
sg2129
I2120
sg1775
I1766
sg888
I879
sg3512
I3503
sg3761
I3752
sg2959
I2950
sg1361
I1352
sg3813
I3804
sg2725
I2716
sg355
I346
sg3401
I3392
sg487
I478
sg3476
I3467
sg3766
I3757
sg3720
I3711
sg3069
I3060
sg1512
I1503
sg2163
I2154
sg3070
I3061
sg2977
I2968
sg3071
I3062
sg1514
I1505
sg1819
I1810
sg2190
I2181
sg3363
I3354
sg669
I660
sg1517
I1508
sg2968
I2959
sg1693
I1684
sg2323
I2314
sg293
I284
sg3186
I3177
sg210
I201
sg522
I513
sg1350
I1341
sg2405
I2396
sg3530
I3521
sg314
I305
sg167
I158
sg2487
I2478
sg838
I829
sg780
I771
sg2515
I2506
sg937
I928
sg1584
I1575
sg16
I7
sg788
I779
sg2924
I2915
sg3894
I3885
sg2474
I2465
sg1212
I1203
sg3518
I3509
sg3501
I3492
sg3938
I3929
sg2727
I2718
sg1970
I1961
sg3055
I3046
sg3788
I3779
sg3789
I3780
sg3860
I3851
sg774
I765
sg936
I927
sg741
I732
sg3637
I3628
sg3787
I3778
sg1589
I1580
sg2674
I2665
sg1141
I1132
sg566
I557
sg3706
I3697
sg248
I239
sg624
I615
sg1448
I1439
sg1522
I1513
sg1038
I1029
sg313
I304
sg204
I195
sg2622
I2613
sg1719
I1710
sg549
I540
sg1325
I1316
sg3568
I3559
sg3959
I3950
sg693
I684
sg3515
I3506
sg3875
I3866
sg588
I579
sg1164
I1155
sg1552
I1543
sg913
I904
sg38
I29
sg1980
I1971
sg2010
I2001
sg2961
I2952
sg3393
I3384
sg681
I672
sg1620
I1611
sg2657
I2648
sg3913
I3904
sg3851
I3842
sg3690
I3681
sg1533
I1524
sg1431
I1422
sg507
I498
sg2486
I2477
sg18
I9
sg2717
I2708
sg193
I184
sg826
I817
sg1132
I1123
sg883
I874
sg322
I313
sg3242
I3233
sg1747
I1738
sg925
I916
sg2764
I2755
sg1488
I1479
sg24
I15
sg2788
I2779
sg2689
I2680
sg1665
I1656
sg2944
I2935
sg489
I480
sg990
I981
sg1129
I1120
sg2960
I2951
sg2933
I2924
sg1040
I1031
sg2331
I2322
sg2214
I2205
sg2998
I2989
sg2923
I2914
sg3456
I3447
sg2523
I2514
sg1035
I1026
sg707
I698
sg1110
I1101
sg1753
I1744
sg3674
I3665
sg3248
I3239
sg3502
I3493
sg3652
I3643
sg3354
I3345
sg2463
I2454
sg962
I953
sg2954
I2945
sg2337
I2328
sg1042
I1033
sg1912
I1903
sg306
I297
sg1475
I1466
sg2580
I2571
sg499
I490
sg3366
I3357
sg3676
I3667
sg2216
I2207
sg3659
I3650
sg2994
I2985
sg83
I74
sg528
I519
sg3646
I3637
sg924
I915
sg2344
I2335
sg3259
I3250
sg3888
I3879
sg2001
I1992
sg1977
I1968
sg2264
I2255
sg1565
I1556
sg1811
I1802
sg1175
I1166
sg3978
I3969
sg538
I529
sg1600
I1591
sg586
I577
sg218
I209
sg3769
I3760
sg3621
I3612
sg3833
I3824
sg2638
I2629
sg138
I129
sg86
I77
sg1273
I1264
sg3558
I3549
sg1418
I1409
sg166
I157
sg3012
I3003
sg1874
I1865
sg465
I456
sg1953
I1944
sg1257
I1248
sg2088
I2079
sg1560
I1551
sg2315
I2306
sg3589
I3580
sg3464
I3455
sg1385
I1376
sg1869
I1860
sg1018
I1009
sg255
I246
sg2321
I2312
sg3228
I3219
sg2621
I2612
sg1706
I1697
sg2043
I2034
sg3014
I3005
sg2522
I2513
sg3866
I3857
sg772
I763
sg3019
I3010
sg419
I410
sg2360
I2351
sg3387
I3378
sg3352
I3343
sg1950
I1941
sg2449
I2440
sg645
I636
sg1019
I1010
sg1626
I1617
sg1188
I1179
sg3599
I3590
sg1225
I1216
sg1913
I1904
sg1539
I1530
sg870
I861
sg1030
I1021
sg2677
I2668
sg72
I63
sg3219
I3210
sg292
I283
sg1574
I1565
sg231
I222
sg1347
I1338
sg2453
I2444
sg245
I236
sg2553
I2544
sg550
I541
sg2705
I2696
sg2442
I2433
sg944
I935
sg1452
I1443
sg3735
I3726
sg1745
I1736
sg3820
I3811
sg3830
I3821
sg2509
I2500
sg2429
I2420
sg3728
I3719
sg1406
I1397
sg2428
I2419
sg2754
I2745
sg2181
I2172
sg2095
I2086
sg143
I134
sg3607
I3598
sg1818
I1809
sg1797
I1788
sg3195
I3186
sg3975
I3966
sg581
I572
sg605
I596
sg457
I448
sg1156
I1147
sg329
I320
sg287
I278
sg3855
I3846
sg413
I404
sg3100
I3091
sg359
I350
sg1783
I1774
sg3901
I3892
sg2683
I2674
sg3121
I3112
sg894
I885
sg1586
I1577
sg288
I279
sg1767
I1758
sg3633
I3624
sg1245
I1236
sg825
I816
sg2686
I2677
sg1099
I1090
sg3836
I3827
sg1805
I1796
sg3948
I3939
sg614
I605
sg2620
I2611
sg3781
I3772
sg1698
I1689
sg66
I57
sg3196
I3187
sg2766
I2757
sg1118
I1109
sg1966
I1957
sg3116
I3107
sg1221
I1212
sg518
I509
sg346
I337
sg1669
I1660
sg2112
I2103
sg234
I225
sg2585
I2576
sg233
I224
sg33
I24
sg3197
I3188
sg59
I50
sg1351
I1342
sg2582
I2573
sg497
I488
sg2964
I2955
sg1696
I1687
sg1280
I1271
sg2947
I2938
sg1459
I1450
sg1012
I1003
sg1697
I1688
sg901
I892
sg1603
I1594
sg2243
I2234
sg370
I361
sg3525
I3516
sg477
I468
sg3643
I3634
sg798
I789
sg11
I2
sg1995
I1986
sg478
I469
sg1108
I1099
sg611
I602
sg254
I245
sg804
I795
sg1020
I1011
sg2918
I2909
sg3327
I3318
sg3795
I3786
sg235
I226
sg2267
I2258
sg1911
I1902
sg2852
I2843
sg2055
I2046
sg3945
I3936
sg2142
I2133
sg2222
I2213
sg1770
I1761
sg2263
I2254
sg3740
I3731
sg3715
I3706
sg3241
I3232
sg1403
I1394
sg397
I388
sg852
I843
sg2917
I2908
sg2726
I2717
sg1673
I1664
sg2237
I2228
sg1337
I1328
sg2905
I2896
sg2272
I2263
sg1150
I1141
sg1743
I1734
sg3508
I3499
sg3160
I3151
sg2889
I2880
sg3843
I3834
sg529
I520
sg2845
I2836
sg2576
I2567
sg1531
I1522
sg3284
I3275
sg712
I703
sg414
I405
sg1161
I1152
sg2579
I2570
sg3817
I3808
sg480
I471
sg3031
I3022
sg2101
I2092
sg409
I400
sg373
I364
sg261
I252
sg2035
I2026
sg394
I385
sg1866
I1857
sg2285
I2276
sg661
I652
sg2102
I2093
sg3861
I3852
sg1792
I1783
sg3281
I3272
sg3754
I3745
sg927
I918
sg2049
I2040
sg3613
I3604
sg242
I233
sg3960
I3951
sg1491
I1482
sg992
I983
sg1468
I1459
sg3028
I3019
sg3039
I3030
sg1269
I1260
sg2099
I2090
sg1031
I1022
sg3702
I3693
sg2502
I2493
sg3027
I3018
sg766
I757
sg875
I866
sg2666
I2657
sg80
I71
sg1355
I1346
sg1302
I1293
sg90
I81
sg2184
I2175
sg3794
I3785
sg3910
I3901
sg547
I538
sg3200
I3191
sg2418
I2409
sg3593
I3584
sg3972
I3963
sg3904
I3895
sg3492
I3483
sg2901
I2892
sg1854
I1845
sg3522
I3513
sg644
I635
sg2316
I2307
sg3704
I3695
sg2750
I2741
sg102
I93
sg114
I105
sg587
I578
sg2097
I2088
sg3858
I3849
sg1802
I1793
sg3370
I3361
sg2723
I2714
sg2747
I2738
sg2367
I2358
sg759
I750
sg2379
I2370
sg3266
I3257
sg1191
I1182
sg2402
I2393
sg3382
I3373
sg978
I969
sg1979
I1970
sg2091
I2082
sg1657
I1648
sg2489
I2480
sg2239
I2230
sg973
I964
sg1716
I1707
sg2928
I2919
sg1383
I1374
sg2232
I2223
sg951
I942
sg2880
I2871
sg155
I146
sg3916
I3907
sg2838
I2829
sg2409
I2400
sg3790
I3781
sg1610
I1601
sg1639
I1630
sg1640
I1631
sg2578
I2569
sg182
I173
sg873
I864
sg126
I117
sg190
I181
sg178
I169
sg2549
I2540
sg454
I445
sg763
I754
sg3770
I3761
sg3297
I3288
sg1679
I1670
sg1994
I1985
sg730
I721
sg1549
I1540
sg2155
I2146
sg656
I647
sg3718
I3709
sg3507
I3498
sg818
I809
sg1878
I1869
sg797
I788
sg1604
I1595
sg1717
I1708
sg2497
I2488
sg876
I867
sg1901
I1892
sg941
I932
sg277
I268
sg2174
I2165
sg3359
I3350
sg603
I594
sg943
I934
sg3871
I3862
sg2008
I1999
sg3692
I3683
sg3751
I3742
sg2943
I2934
sg1769
I1760
sg2133
I2124
sg2567
I2558
sg1949
I1940
sg3618
I3609
sg3477
I3468
sg2896
I2887
sg2224
I2215
sg3914
I3905
sg3481
I3472
sg3300
I3291
sg364
I355
sg2512
I2503
sg3139
I3130
sg1128
I1119
sg3499
I3490
sg1252
I1243
sg252
I243
sg62
I53
sg1833
I1824
sg1098
I1089
sg911
I902
sg1172
I1163
sg2583
I2574
sg2427
I2418
sg2141
I2132
sg2150
I2141
sg1046
I1037
sg2042
I2033
sg1906
I1897
sg1507
I1498
sg3713
I3704
sg1776
I1767
sg2096
I2087
sg2610
I2601
sg3703
I3694
sg1973
I1964
sg3376
I3367
sg1195
I1186
sg3251
I3242
sg773
I764
sg1749
I1740
sg3832
I3823
sg125
I116
sg2980
I2971
sg1919
I1910
sg109
I100
sg1502
I1493
sg41
I32
sg569
I560
sg1563
I1554
sg2858
I2849
sg3928
I3919
sg216
I207
sg784
I775
sg734
I725
sg2340
I2331
sg2544
I2535
sg3388
I3379
sg674
I665
sg2919
I2910
sg580
I571
sg3208
I3199
sg2588
I2579
sg207
I198
sg1766
I1757
sg1989
I1980
sg84
I75
sg1264
I1255
sg3465
I3456
sg3696
I3687
sg821
I812
sg1742
I1733
sg1877
I1868
sg725
I716
sg855
I846
sg1617
I1608
sg2772
I2763
sg1903
I1894
sg1871
I1862
sg1229
I1220
sg2843
I2834
sg1445
I1436
sg162
I153
sg1404
I1395
sg3007
I2998
sg3986
I3977
sg2065
I2056
sg3834
I3825
sg2846
I2837
sg492
I483
sg1450
I1441
sg1457
I1448
sg2938
I2929
sg2716
I2707
sg1461
I1452
sg2378
I2369
sg1471
I1462
sg495
I486
sg592
I583
sg801
I792
sg2826
I2817
sg1354
I1345
sg2498
I2489
sg2117
I2108
sg590
I581
sg3485
I3476
sg3574
I3565
sg2004
I1995
sg756
I747
sg1889
I1880
sg2016
I2007
sg170
I161
sg243
I234
sg2200
I2191
sg3279
I3270
sg117
I108
sg1954
I1945
sg923
I914
sg2423
I2414
sg15
I6
sg1294
I1285
sg1494
I1485
sg1265
I1256
sg2700
I2691
sg1879
I1870
sg251
I242
sg553
I544
sg1500
I1491
sg2907
I2898
sg3879
I3870
sg2124
I2115
sg1863
I1854
sg3050
I3041
sg539
I530
sg1023
I1014
sg110
I101
sg1483
I1474
sg708
I699
sg1203
I1194
sg2883
I2874
sg1926
I1917
sg2670
I2661
sg1084
I1075
sg2203
I2194
sg3450
I3441
sg747
I738
sg2782
I2773
sg2346
I2337
sg3737
I3728
sg3437
I3428
sg3493
I3484
sg3736
I3727
sg1737
I1728
sg628
I619
sg783
I774
sg2251
I2242
sg3943
I3934
sg28
I19
sg737
I728
sg223
I214
sg1492
I1483
sg371
I362
sg232
I223
sg237
I228
sg1651
I1642
sg3272
I3263
sg610
I601
sg3897
I3888
sg3885
I3876
sg311
I302
sg2763
I2754
sg1608
I1599
sg2508
I2499
sg3656
I3647
sg3850
I3841
sg1189
I1180
sg196
I187
sg3151
I3142
sg3814
I3805
sg4006
I3997
sg2639
I2630
sg1686
I1677
sg1250
I1241
sg995
I986
sg3759
I3750
sg2273
I2264
sg2238
I2229
sg604
I595
sg3579
I3570
sg755
I746
sg375
I366
sg2774
I2765
sg3459
I3450
sg1927
I1918
sg3958
I3949
sg3952
I3943
sg400
I391
sg3063
I3054
sg575
I566
sg2059
I2050
sg2072
I2063
sg584
I575
sg2737
I2728
sg2185
I2176
sg3723
I3714
sg3277
I3268
sg2986
I2977
sg2652
I2643
sg1154
I1145
sg3110
I3101
sg156
I147
sg2654
I2645
sg3800
I3791
sg3194
I3185
sg1831
I1822
sg3578
I3569
sg3086
I3077
sg3774
I3765
sg3282
I3273
sg2793
I2784
sg1196
I1187
sg3467
I3458
sg600
I591
sg1017
I1008
sg1615
I1606
sg2284
I2275
sg2247
I2238
sg3161
I3152
sg2745
I2736
sg2225
I2216
sg1169
I1160
sg3232
I3223
sg3988
I3979
sg441
I432
sg2471
I2462
sg111
I102
sg479
I470
sg151
I142
sg2630
I2621
sg2632
I2623
sg2806
I2797
sg1963
I1954
sg122
I113
sg97
I88
sg3524
I3515
sg3466
I3457
sg1820
I1811
sg285
I276
sg1633
I1624
sg2769
I2760
sg2920
I2911
sg676
I667
sg2276
I2267
sg1174
I1165
sg3819
I3810
sg2045
I2036
sg2997
I2988
sg1329
I1320
sg337
I328
sg3155
I3146
sg2955
I2946
sg3426
I3417
sg3584
I3575
sg452
I443
sg1794
I1785
sg392
I383
sg271
I262
sg541
I532
sg2711
I2702
sg321
I312
sg2020
I2011
sg429
I420
sg2664
I2655
sg1360
I1351
sg2781
I2772
sg2605
I2596
sg3072
I3063
sg2426
I2417
sg976
I967
sg2438
I2429
sg573
I564
sg1387
I1378
sg2415
I2406
sg153
I144
sg862
I853
sg2480
I2471
sg2659
I2650
sg3205
I3196
sg3496
I3487
sg2681
I2672
sg1434
I1425
sg1424
I1415
sg3275
I3266
sg1342
I1333
sg1490
I1481
sg2970
I2961
sg3448
I3439
sg806
I797
sg3687
I3678
sg3744
I3735
sg3763
I3754
sg1918
I1909
sg3406
I3397
sg2435
I2426
sg3137
I3128
sg3784
I3775
sg3498
I3489
sg224
I215
sg3856
I3847
sg1208
I1199
sg2420
I2411
sg1147
I1138
sg2952
I2943
sg1122
I1113
sg3828
I3819
sg1409
I1400
sg877
I868
sg3738
I3729
sg3806
I3797
sg1209
I1200
sg1138
I1129
sg1278
I1269
sg3440
I3431
sg144
I135
sg4001
I3992
sg278
I269
sg878
I869
sg574
I565
sg1432
I1423
sg3264
I3255
sg3192
I3183
sg2534
I2525
sg2909
I2900
sg939
I930
sg171
I162
sg2126
I2117
sg1382
I1373
sg540
I531
sg3985
I3976
sg627
I618
sg3810
I3801
sg2047
I2038
sg544
I535
sg2617
I2608
sg845
I836
sg2056
I2047
sg3126
I3117
sg385
I376
sg1242
I1233
sg1508
I1499
sg1839
I1830
sg935
I926
sg2199
I2190
sg2071
I2062
sg3776
I3767
sg3669
I3660
sg1081
I1072
sg1582
I1573
sg1510
I1501
sg20
I11
sg700
I691
sg1061
I1052
sg2733
I2724
sg1166
I1157
sg1505
I1496
sg2414
I2405
sg515
I506
sg2767
I2758
sg1547
I1538
sg905
I896
sg597
I588
sg1519
I1510
sg3452
I3443
sg3707
I3698
sg469
I460
sg1171
I1162
sg3446
I3437
sg3360
I3351
sg1660
I1651
sg3187
I3178
sg2795
I2786
sg640
I631
sg2735
I2726
sg468
I459
sg1812
I1803
sg3225
I3216
sg2145
I2136
sg2813
I2804
sg2790
I2781
sg983
I974
sg1343
I1334
sg2609
I2600
sg1730
I1721
sg2107
I2098
sg3727
I3718
sg1427
I1418
sg3423
I3414
sg3221
I3212
sg303
I294
sg1968
I1959
sg3077
I3068
sg3573
I3564
sg3967
I3958
sg775
I766
sg1932
I1923
sg2313
I2304
sg2111
I2102
sg1066
I1057
sg1145
I1136
sg3821
I3812
sg3128
I3119
sg3210
I3201
sg471
I462
sg1197
I1188
sg1069
I1060
sg2256
I2247
sg3390
I3381
sg339
I330
sg3090
I3081
sg3303
I3294
sg1275
I1266
sg1401
I1392
sg221
I212
sg1426
I1417
sg2254
I2245
sg3418
I3409
sg2417
I2408
sg3752
I3743
sg3081
I3072
sg3475
I3466
sg885
I876
sg2692
I2683
sg2975
I2966
sg710
I701
sg3432
I3423
sg1575
I1566
sg442
I433
sg2233
I2224
sg2156
I2147
sg2441
I2432
sg3638
I3629
sg1346
I1337
sg389
I380
sg1455
I1446
sg2679
I2670
sg2022
I2013
sg2466
I2457
sg1183
I1174
sg1606
I1597
sg3701
I3692
sg3315
I3306
sg2266
I2257
sg2798
I2789
sg3683
I3674
sg2023
I2014
sg1998
I1989
sg407
I398
sg926
I917
sg157
I148
sg3673
I3664
sg2309
I2300
sg988
I979
sg2122
I2113
sg1588
I1579
sg602
I593
sg2607
I2598
sg3341
I3332
sg726
I717
sg2949
I2940
sg2262
I2253
sg3765
I3756
sg87
I78
sg1780
I1771
sg2667
I2658
sg2668
I2659
sg381
I372
sg2209
I2200
sg1930
I1921
sg3095
I3086
sg1254
I1245
sg3540
I3531
sg1446
I1437
sg1732
I1723
sg73
I64
sg2194
I2185
sg3332
I3323
sg460
I451
sg3917
I3908
sg2270
I2261
sg453
I444
sg3422
I3413
sg3705
I3696
sg1952
I1943
sg3127
I3118
sg1184
I1175
sg589
I580
sg2044
I2035
sg2109
I2100
sg3391
I3382
sg1072
I1063
sg3891
I3882
sg2562
I2553
sg2350
I2341
sg1456
I1447
sg1117
I1108
sg1662
I1653
sg921
I912
sg3261
I3252
sg823
I814
sg2712
I2703
sg3708
I3699
sg2830
I2821
sg928
I919
sg21
I12
sg3962
I3953
sg982
I973
sg13
I4
sg1806
I1797
sg3347
I3338
sg770
I761
sg1474
I1465
sg1763
I1754
sg1430
I1421
sg2009
I2000
sg1999
I1990
sg2416
I2407
sg74
I65
sg1758
I1749
sg3597
I3588
sg2485
I2476
sg2574
I2565
sg2259
I2250
sg3528
I3519
sg3999
I3990
sg2157
I2148
sg1987
I1978
sg1410
I1401
sg374
I365
sg1341
I1332
sg3816
I3807
sg1027
I1018
sg2338
I2329
sg2784
I2775
sg408
I399
sg3203
I3194
sg2046
I2037
sg3973
I3964
sg3018
I3009
sg3216
I3207
sg2052
I2043
sg3753
I3744
sg2081
I2072
sg3473
I3464
sg304
I295
sg795
I786
sg1846
I1837
sg3224
I3215
sg994
I985
sg3846
I3837
sg3372
I3363
sg340
I331
sg860
I851
sg1658
I1649
sg2595
I2586
sg2972
I2963
sg2623
I2614
sg267
I258
sg650
I641
sg3140
I3131
sg1106
I1097
sg426
I417
sg1731
I1722
sg651
I642
sg2982
I2973
sg1895
I1886
sg43
I34
sg2832
I2823
sg34
I25
sg1281
I1272
sg2778
I2769
sg1449
I1440
sg2520
I2511
sg2205
I2196
sg623
I614
sg2495
I2486
sg344
I335
sg2296
I2287
sg2386
I2377
sg3865
I3856
sg2226
I2217
sg22
I13
sg3992
I3983
sg366
I357
sg1834
I1825
sg694
I685
sg1097
I1088
sg2075
I2066
sg127
I118
sg3447
I3438
sg915
I906
sg3005
I2996
sg1074
I1065
sg1441
I1432
sg1798
I1789
sg2691
I2682
sg1738
I1729
sg3415
I3406
sg2207
I2198
sg2303
I2294
sg781
I772
sg743
I734
sg3148
I3139
sg739
I730
sg578
I569
sg3338
I3329
sg1718
I1709
sg2776
I2767
sg1285
I1276
sg1237
I1228
sg2002
I1993
sg2261
I2252
sg2676
I2667
sg871
I862
sg3749
I3740
sg1096
I1087
sg1104
I1095
sg1100
I1091
sg683
I674
sg2678
I2669
sg548
I539
sg2615
I2606
sg2369
I2360
sg2979
I2970
sg2539
I2530
sg350
I341
sg402
I393
sg2054
I2045
sg1733
I1724
sg980
I971
sg2922
I2913
sg2290
I2281
sg1286
I1277
sg1996
I1987
sg2257
I2248
sg1727
I1718
sg3237
I3228
sg2211
I2202
sg249
I240
sg2987
I2978
sg1803
I1794
sg3730
I3721
sg430
I421
sg2085
I2076
sg2937
I2928
sg1888
I1879
sg506
I497
sg906
I897
sg135
I126
sg2603
I2594
sg2451
I2442
sg1520
I1511
sg3831
I3822
sg1272
I1263
sg447
I438
sg523
I514
sg3015
I3006
sg1002
I993
sg695
I686
sg116
I107
sg1577
I1568
sg3743
I3734
sg3725
I3716
sg1723
I1714
sg3323
I3314
sg256
I247
sg2732
I2723
sg1407
I1398
sg146
I137
sg2773
I2764
sg647
I638
sg2021
I2012
sg2599
I2590
sg2742
I2733
sg2956
I2947
sg3384
I3375
sg2651
I2642
sg2073
I2064
sg448
I439
sg814
I805
sg3662
I3653
sg1569
I1560
sg187
I178
sg1133
I1124
sg2697
I2688
sg3328
I3319
sg3595
I3586
sg791
I782
sg326
I317
sg2307
I2298
sg2147
I2138
sg415
I406
sg2593
I2584
sg2406
I2397
sg1158
I1149
sg3900
I3891
sg378
I369
sg1381
I1372
sg3915
I3906
sg1301
I1292
sg1922
I1913
sg2240
I2231
sg2524
I2515
sg456
I447
sg61
I52
sg3053
I3044
sg1622
I1613
sg787
I778
sg2253
I2244
sg2688
I2679
sg3472
I3463
sg3654
I3645
sg3188
I3179
sg2193
I2184
sg689
I680
sg2501
I2492
sg132
I123
sg3325
I3316
sg3934
I3925
sg1837
I1828
sg1497
I1488
sg1011
I1002
sg2139
I2130
sg1284
I1275
sg1391
I1382
sg2518
I2509
sg3632
I3623
sg1235
I1226
sg1905
I1896
sg899
I890
sg2526
I2517
sg1726
I1717
sg1043
I1034
sg1721
I1712
sg1039
I1030
sg52
I43
sg200
I191
sg820
I811
sg1466
I1457
sg3108
I3099
sg1536
I1527
sg1080
I1071
sg3124
I3115
sg3326
I3317
sg3876
I3867
sg2548
I2539
sg1857
I1848
sg861
I852
sg459
I450
sg685
I676
sg1855
I1846
sg1179
I1170
sg2803
I2794
sg281
I272
sg3880
I3871
sg837
I828
sg3048
I3039
sg617
I608
sg3346
I3337
sg284
I275
sg241
I232
sg2188
I2179
sg2389
I2380
sg891
I882
sg3468
I3459
sg1786
I1777
sg2031
I2022
sg305
I296
sg1000
I991
sg212
I203
sg811
I802
sg1925
I1916
sg2234
I2225
sg993
I984
sg3932
I3923
sg3576
I3567
sg299
I290
sg2482
I2473
sg680
I671
sg2457
I2448
sg2387
I2378
sg3500
I3491
sg2587
I2578
sg1297
I1288
sg1319
I1310
sg1093
I1084
sg1720
I1711
sg2804
I2795
sg3964
I3955
sg2459
I2450
sg3154
I3145
sg1248
I1239
sg866
I857
sg3207
I3198
sg835
I826
sg2871
I2862
sg1148
I1139
sg2696
I2687
sg1674
I1665
sg2066
I2057
sg1439
I1430
sg1777
I1768
sg3345
I3336
sg3922
I3913
sg3844
I3835
sg2148
I2139
sg3226
I3217
sg2361
I2352
sg2137
I2128
sg3588
I3579
sg2019
I2010
sg1298
I1289
sg2357
I2348
sg1872
I1863
sg3553
I3544
sg3244
I3235
sg1705
I1696
sg2308
I2299
sg971
I962
sg290
I281
sg1938
I1929
sg1056
I1047
sg3971
I3962
sg834
I825
sg1033
I1024
sg3094
I3085
sg1634
I1625
sg786
I777
sg713
I704
sg142
I133
sg750
I741
sg961
I952
sg1092
I1083
sg2755
I2746
sg30
I21
sg238
I229
sg3080
I3071
sg3233
I3224
sg3358
I3349
sg3024
I3015
sg1873
I1864
sg1829
I1820
sg920
I911
sg3324
I3315
sg663
I654
sg2860
I2851
sg1654
I1645
sg3130
I3121
sg3668
I3659
sg2645
I2636
sg2473
I2464
sg436
I427
sg2709
I2700
sg3793
I3784
sg1958
I1949
sg2653
I2644
sg3011
I3002
sg3695
I3686
sg3267
I3258
sg17
I8
sg2636
I2627
sg3612
I3603
sg1190
I1181
sg2080
I2071
sg1848
I1839
sg3254
I3245
sg3685
I3676
sg2198
I2189
sg1597
I1588
sg3825
I3816
sg2655
I2646
sg148
I139
sg2115
I2106
sg3353
I3344
sg2034
I2025
sg1544
I1535
sg2827
I2818
sg1201
I1192
sg3413
I3404
sg576
I567
sg203
I194
sg2633
I2624
sg2250
I2241
sg2352
I2343
sg1462
I1453
sg1032
I1023
sg2271
I2262
sg2912
I2903
sg3627
I3618
sg386
I377
sg1413
I1404
sg1170
I1161
sg2873
I2864
sg1762
I1753
sg23
I14
sg4008
I3999
sg1701
I1692
sg1013
I1004
sg2218
I2209
sg1652
I1643
sg3537
I3528
sg3429
I3420
sg2412
I2403
sg2598
I2589
sg1267
I1258
sg3174
I3165
sg1328
I1319
sg3520
I3511
sg2496
I2487
sg1935
I1926
sg71
I62
sg3453
I3444
sg2231
I2222
sg1789
I1780
sg977
I968
sg3252
I3243
sg3689
I3680
sg3185
I3176
sg2642
I2633
sg1556
I1547
sg965
I956
sg3309
I3300
sg1981
I1972
sg2434
I2425
sg2161
I2152
sg445
I436
sg2403
I2394
sg3335
I3326
sg1744
I1735
sg1931
I1922
sg1800
I1791
sg1047
I1038
sg1946
I1937
sg3908
I3899
sg846
I837
sg3469
I3460
sg2695
I2686
sg686
I677
sg211
I202
sg2265
I2256
sg2822
I2813
sg1524
I1515
sg93
I84
sg1972
I1963
sg2032
I2023
sg356
I347
sg3734
I3725
sg3614
I3605
sg3295
I3286
sg78
I69
sg1503
I1494
sg147
I138
sg3868
I3859
sg3260
I3251
sg2062
I2053
sg2940
I2931
sg1402
I1393
sg1708
I1699
sg2186
I2177
sg1067
I1058
sg2255
I2246
sg1484
I1475
sg1123
I1114
sg2976
I2967
sg2281
I2272
sg1815
I1806
sg2120
I2111
sg1103
I1094
sg3337
I3328
sg1482
I1473
sg121
I112
sg1090
I1081
sg904
I895
sg1444
I1435
sg154
I145
sg2740
I2731
sg3719
I3710
sg475
I466
sg257
I248
sg751
I742
sg1817
I1808
sg3404
I3395
sg612
I603
sg1326
I1317
sg2082
I2073
sg437
I428
sg3944
I3935
sg2467
I2458
sg2484
I2475
sg3394
I3385
sg240
I231
sg890
I881
sg1814
I1805
sg3316
I3307
sg2170
I2161
sg302
I293
sg1276
I1267
sg1120
I1111
sg3998
I3989
sg1840
I1831
sg2007
I1998
sg1113
I1104
sg1920
I1911
sg2927
I2918
sg1266
I1257
sg1299
I1290
sg2851
I2842
sg833
I824
sg991
I982
sg839
I830
sg3772
I3763
sg720
I711
sg2992
I2983
sg3269
I3260
sg1094
I1085
sg189
I180
sg3417
I3408
sg829
I820
sg3067
I3058
sg3935
I3926
sg1675
I1666
sg3807
I3798
sg816
I807
sg2283
I2274
sg2440
I2431
sg1538
I1529
sg60
I51
sg802
I793
sg3430
I3421
sg779
I770
sg570
I561
sg2879
I2870
sg3399
I3390
sg2856
I2847
sg1152
I1143
sg2682
I2673
sg3756
I3747
sg767
I758
sg2816
I2807
sg3995
I3986
sg3336
I3327
sg1489
I1480
sg3112
I3103
sg92
I83
sg36
I27
sg1415
I1406
sg1216
I1207
sg3942
I3933
sg1324
I1315
sg2472
I2463
sg1060
I1051
sg1044
I1035
sg1561
I1552
sg3374
I3365
sg974
I965
sg48
I39
sg625
I616
sg827
I818
sg1277
I1268
sg1890
I1881
sg1793
I1784
sg2090
I2081
sg3191
I3182
sg1380
I1371
sg3729
I3720
sg1227
I1218
sg1715
I1706
sg3994
I3985
sg29
I20
sg3694
I3685
sg403
I394
sg2343
I2334
sg1001
I992
sg3153
I3144
sg3276
I3267
sg572
I563
sg3933
I3924
sg2546
I2537
sg3804
I3795
sg3059
I3050
sg49
I40
sg484
I475
sg341
I332
sg152
I143
sg2131
I2122
sg2018
I2009
sg1114
I1105
sg1943
I1934
sg3839
I3830
sg276
I267
sg1115
I1106
sg2100
I2091
sg790
I781
sg2581
I2572
sg2672
I2663
sg2951
I2942
sg1443
I1434
sg1984
I1975
sg3905
I3896
sg2787
I2778
sg3411
I3402
sg3857
I3848
sg1310
I1301
sg3777
I3768
sg214
I205
sg2336
I2327
sg3238
I3229
sg3815
I3806
sg3424
I3415
sg752
I743
sg3681
I3672
sg2713
I2704
sg2957
I2948
sg646
I637
sg649
I640
sg3912
I3903
sg3849
I3840
sg754
I745
sg1247
I1238
sg3505
I3496
sg244
I235
sg3206
I3197
sg3555
I3546
sg2650
I2641
sg847
I838
sg3444
I3435
sg3054
I3045
sg3410
I3401
sg1364
I1355
sg1315
I1306
sg1843
I1834
sg2775
I2766
sg2761
I2752
sg758
I749
sg1779
I1770
sg1993
I1984
sg2136
I2127
sg933
I924
sg3658
I3649
sg1091
I1082
sg585
I576
sg986
I977
sg1021
I1012
sg2040
I2031
sg488
I479
sg1447
I1438
sg1048
I1039
sg3639
I3630
sg2500
I2491
sg1185
I1176
sg133
I124
sg1274
I1265
sg3570
I3561
sg1433
I1424
sg722
I713
sg3552
I3543
sg466
I457
sg1801
I1792
sg2086
I2077
sg3630
I3621
sg42
I33
sg161
I152
sg1369
I1360
sg1541
I1532
sg715
I706
sg1787
I1778
sg3402
I3393
sg3223
I3214
sg100
I91
sg606
I597
sg987
I978
sg1498
I1489
sg3989
I3980
sg98
I89
sg1849
I1840
sg1628
I1619
sg1884
I1875
sg3046
I3037
sg558
I549
sg433
I424
sg677
I668
sg3726
I3717
sg972
I963
sg57
I48
sg997
I988
sg3778
I3769
sg3514
I3505
sg163
I154
sg3270
I3261
sg3350
I3341
sg2106
I2097
sg1543
I1534
sg2557
I2548
sg1619
I1610
sg3209
I3200
sg2904
I2895
sg828
I819
sg2411
I2402
sg2005
I1996
sg2900
I2891
sg2895
I2886
sg2540
I2531
sg1054
I1045
sg567
I558
sg1649
I1640
sg3733
I3724
sg169
I160
sg431
I422
sg532
I523
sg2950
I2941
sg2528
I2519
sg2783
I2774
sg2563
I2554
sg1024
I1015
sg174
I165
sg1336
I1327
sg3169
I3160
sg128
I119
sg504
I495
sg1499
I1490
sg2339
I2330
sg3065
I3056
sg1618
I1609
sg3461
I3452
sg3872
I3863
sg3548
I3539
sg1177
I1168
sg1974
I1965
sg3408
I3399
sg2612
I2603
sg3061
I3052
sg3062
I3053
sg3064
I3055
sg2543
I2534
sg3162
I3153
sg989
I980
sg3056
I3047
sg1672
I1663
sg3057
I3048
sg467
I458
sg269
I260
sg2385
I2376
sg1485
I1476
sg1554
I1545
sg3076
I3067
sg2217
I2208
sg3600
I3591
sg3650
I3641
sg1969
I1960
sg1668
I1659
sg3134
I3125
sg502
I493
sg3176
I3167
sg1495
I1486
sg35
I26
sg785
I776
sg250
I241
sg626
I617
sg2878
I2869
sg3361
I3352
sg3189
I3180
sg3474
I3465
sg3433
I3424
sg1774
I1765
sg363
I354
sg1858
I1849
sg2770
I2761
sg307
I298
sg2942
I2933
sg3979
I3970
sg1073
I1064
sg201
I192
sg1666
I1657
sg1595
I1586
sg2176
I2167
sg2425
I2416
sg3235
I3226
sg1055
I1046
sg2371
I2362
sg3610
I3601
sg2013
I2004
sg1902
I1893
sg3088
I3079
sg264
I255
sg953
I944
sg3427
I3418
sg749
I740
sg1454
I1445
sg3859
I3850
sg3526
I3517
sg1162
I1153
sg2785
I2776
sg1295
I1286
sg1699
I1690
sg3679
I3670
sg3811
I3802
sg1442
I1433
sg639
I630
sg1287
I1278
sg53
I44
sg858
I849
sg917
I908
sg1344
I1335
sg1198
I1189
sg2797
I2788
sg4002
I3993
sg462
I453
sg1151
I1142
sg3949
I3940
sg3748
I3739
sg3097
I3088
sg687
I678
sg4005
I3996
sg2158
I2149
sg2864
I2855
sg1102
I1093
sg524
I515
sg3365
I3356
sg3438
I3429
sg552
I543
sg3939
I3930
sg2362
I2353
sg3156
I3147
sg3378
I3369
sg3268
I3259
sg1821
I1812
sg3963
I3954
sg1192
I1183
sg2738
I2729
sg3290
I3281
sg636
I627
sg1853
I1844
sg1709
I1700
sg2746
I2737
sg3513
I3504
sg2833
I2824
sg1224
I1215
sg2394
I2385
sg3321
I3312
sg696
I687
sg1613
I1604
sg3229
I3220
sg577
I568
sg2070
I2061
sg2796
I2787
sg3318
I3309
sg2282
I2273
sg188
I179
sg3921
I3912
sg1894
I1885
sg796
I787
sg3626
I3617
sg2089
I2080
sg2182
I2173
sg2694
I2685
sg859
I850
sg3375
I3366
sg328
I319
sg1682
I1673
sg1314
I1305
sg3840
I3831
sg738
I729
sg1318
I1309
sg1317
I1308
sg1322
I1313
sg199
I190
sg3329
I3320
sg2078
I2069
sg3697
I3688
sg670
I661
sg1330
I1321
sg1137
I1128
sg2104
I2095
sg1366
I1357
sg424
I415
sg2516
I2507
sg3920
I3911
sg1339
I1330
sg2991
I2982
sg1260
I1251
sg1089
I1080
sg2179
I2170
sg1340
I1331
sg1862
I1853
sg1845
I1836
sg2144
I2135
sg1311
I1302
sg959
I950
sg3605
I3596
sg440
I431
sg1353
I1344
sg2291
I2282
sg1375
I1366
sg718
I709
sg850
I841
sg1891
I1882
sg3344
I3335
sg1349
I1340
sg1997
I1988
sg2800
I2791
sg3299
I3290
sg2187
I2178
sg2536
I2527
sg3457
I3448
sg2886
I2877
sg2661
I2652
sg2327
I2318
sg70
I61
sg2298
I2289
sg3213
I3204
sg535
I526
sg226
I217
sg398
I389
sg1204
I1195
sg2511
I2502
sg808
I799
sg3993
I3984
sg1527
I1518
sg1436
I1427
sg1850
I1841
sg1217
I1208
sg3249
I3240
sg3594
I3585
sg897
I888
sg2235
I2226
sg2868
I2859
sg1487
I1478
sg1661
I1652
sg2437
I2428
sg735
I726
sg1408
I1399
sg393
I384
sg717
I708
sg2067
I2058
sg561
I552
sg672
I663
sg4000
I3991
sg1139
I1130
sg3010
I3001
sg3286
I3277
sg1193
I1184
sg832
I823
sg3550
I3541
sg2328
I2319
sg1460
I1451
sg956
I947
sg4003
I3994
sg63
I54
sg123
I114
sg2862
I2853
sg2204
I2195
sg525
I516
sg2665
I2656
sg1825
I1816
sg3592
I3583
sg2906
I2897
sg2792
I2783
sg2490
I2481
sg345
I336
sg2999
I2990
sg1959
I1950
sg3175
I3166
sg3779
I3770
sg3257
I3248
sg1592
I1583
sg1515
I1506
sg3445
I3436
sg164
I155
sg88
I79
sg2842
I2833
sg1187
I1178
sg1249
I1240
sg320
I311
sg2413
I2404
sg315
I306
sg342
I333
sg1785
I1776
sg3181
I3172
sg1159
I1150
sg1259
I1250
sg1965
I1956
sg3258
I3249
sg1400
I1391
sg2024
I2015
sg2048
I2039
sg598
I589
sg500
I491
sg3068
I3059
sg2945
I2936
sg69
I60
sg2857
I2848
sg1939
I1930
sg3847
I3838
sg1578
I1569
sg520
I511
sg158
I149
sg2408
I2399
sg1992
I1983
sg2984
I2975
sg2125
I2116
sg2821
I2812
sg3283
I3274
sg3767
I3758
sg96
I87
sg1244
I1235
sg336
I327
sg2212
I2203
sg582
I573
sg1149
I1140
sg1134
I1125
sg3331
I3322
sg137
I128
sg1153
I1144
sg1757
I1748
sg3648
I3639
sg1772
I1763
sg599
I590
sg1573
I1564
sg2395
I2386
sg908
I899
sg298
I289
sg1025
I1016
sg1007
I998
sg1308
I1299
sg2629
I2620
sg2625
I2616
sg565
I556
sg709
I700
sg312
I303
sg3103
I3094
sg2446
I2437
sg1784
I1775
sg2464
I2455
sg719
I710
sg1438
I1429
sg1694
I1685
sg3809
I3800
sg4011
I4002
sg4004
I3995
sg1219
I1210
sg179
I170
sg2114
I2105
sg2914
I2905
sg418
I409
sg3841
I3832
sg325
I316
sg3435
I3426
sg259
I250
sg1593
I1584
sg857
I848
sg660
I651
sg3163
I3154
sg3693
I3684
sg3449
I3440
sg2869
I2860
sg2704
I2695
sg881
I872
sg728
I719
sg3873
I3864
sg1226
I1217
sg2329
I2320
sg2529
I2520
sg2604
I2595
sg958
I949
sg3954
I3945
sg2249
I2240
sg1481
I1472
sg198
I189
sg1374
I1365
sg215
I206
sg191
I182
sg3675
I3666
sg1826
I1817
sg2631
I2622
sg295
I286
sg2274
I2265
sg247
I238
sg195
I186
sg1327
I1318
sg2391
I2382
sg1036
I1027
sg3535
I3526
sg1083
I1074
sg3412
I3403
sg3892
I3883
sg666
I657
sg2149
I2140
sg3565
I3556
sg3083
I3074
sg3052
I3043
sg2824
I2815
sg2064
I2055
sg1063
I1054
sg3304
I3295
sg185
I176
sg2351
I2342
sg571
I562
sg1518
I1509
sg3082
I3073
sg887
I878
sg3486
I3477
sg483
I474
sg2820
I2811
sg1583
I1574
sg1087
I1078
sg3455
I3446
sg1647
I1638
sg1194
I1185
sg2613
I2604
sg2794
I2785
sg3925
I3916
sg417
I408
sg841
I832
sg3159
I3150
sg2799
I2790
sg952
I943
sg3981
I3972
sg1496
I1487
sg736
I727
sg2903
I2894
sg1545
I1536
sg2634
I2625
sg3004
I2995
sg3805
I3796
sg1176
I1167
sg3479
I3470
sg2762
I2753
sg634
I625
sg262
I253
sg2627
I2618
sg2831
I2822
sg907
I898
sg481
I472
sg635
I626
sg2680
I2671
sg294
I285
sg2162
I2153
sg3946
I3937
sg405
I396
sg2159
I2150
sg1841
I1832
sg3157
I3148
sg253
I244
sg1881
I1872
sg1363
I1354
sg1338
I1329
sg1396
I1387
sg909
I900
sg2236
I2227
sg1255
I1246
sg1256
I1247
sg85
I76
sg2837
I2828
sg396
I387
sg1645
I1636
sg3302
I3293
sg450
I441
sg1915
I1906
sg2153
I2144
sg416
I407
sg3984
I3975
sg979
I970
sg3721
I3712
sg517
I508
sg1241
I1232
sg1210
I1201
sg1049
I1040
sg984
I975
sg3625
I3616
sg3569
I3560
sg3307
I3298
sg1392
I1383
sg3660
I3651
sg2921
I2912
sg3577
I3568
sg1562
I1553
sg3371
I3362
sg3854
I3845
sg1186
I1177
sg2967
I2958
sg473
I464
sg2990
I2981
sg1609
I1600
sg2269
I2260
sg1008
I999
sg932
I923
sg3609
I3600
sg1851
I1842
sg2818
I2809
sg3893
I3884
sg1467
I1458
sg2383
I2374
sg930
I921
sg2297
I2288
sg2093
I2084
sg1746
I1737
sg1263
I1254
sg1813
I1804
sg3977
I3968
sg1372
I1363
sg387
I378
sg2108
I2099
sg1373
I1364
sg3919
I3910
sg2208
I2199
sg3141
I3132
sg2995
I2986
sg2060
I2051
sg3285
I3276
sg2703
I2694
sg3842
I3833
sg3042
I3033
sg2341
I2332
sg3686
I3677
sg3255
I3246
sg633
I624
sg3489
I3480
sg2558
I2549
sg1566
I1557
sg3320
I3311
sg607
I598
sg2719
I2710
sg3575
I3566
sg3616
I3607
sg1585
I1576
sg2926
I2917
sg3214
I3205
sg2915
I2906
sg428
I419
sg1476
I1467
sg286
I277
sg3864
I3855
sg2828
I2819
sg1816
I1807
sg3818
I3809
sg3009
I3000
sg1205
I1196
sg692
I683
sg2310
I2301
sg1646
I1637
sg82
I73
sg2710
I2701
sg1238
I1229
sg3180
I3171
sg1921
I1912
sg3644
I3635
sg3115
I3106
sg3645
I3636
sg3823
I3814
sg3700
I3691
sg3280
I3271
sg3747
I3738
sg1883
I1874
sg3049
I3040
sg1612
I1603
sg1916
I1907
sg3102
I3093
sg3409
I3400
sg3073
I3064
sg2116
I2107
sg2877
I2868
sg9
I0
sg900
I891
sg3746
I3737
sg2370
I2361
sg3245
I3236
sg3291
I3282
sg2458
I2449
sg1292
I1283
sg56
I47
sg1109
I1100
sg368
I359
sg274
I265
sg533
I524
sg2477
I2468
sg512
I503
sg1957
I1948
sg655
I646
sg2888
I2879
sg918
I909
sg3231
I3222
sg1781
I1772
sg2015
I2006
sg1735
I1726
sg1136
I1127
sg3896
I3887
sg1945
I1936
sg2003
I1994
sg75
I66
sg1975
I1966
sg1506
I1497
sg727
I718
sg1428
I1419
sg3510
I3501
sg3745
I3736
sg1591
I1582
sg3462
I3453
sg579
I570
sg2577
I2568
sg800
I791
sg2812
I2803
sg2537
I2528
sg439
I430
sg740
I731
sg2320
I2311
sg3567
I3558
sg3996
I3987
sg2364
I2355
sg3212
I3203
sg2701
I2692
sg2359
I2350
sg729
I720
sg3211
I3202
sg1472
I1463
sg557
I548
sg2823
I2814
sg3428
I3419
sg2530
I2521
sg2347
I2338
sg3521
I3512
sg2476
I2467
sg91
I82
sg2392
I2383
sg1924
I1915
sg2983
I2974
sg4009
I4000
sg3544
I3535
sg3202
I3193
sg449
I440
sg3739
I3730
sg1493
I1484
sg3596
I3587
sg2768
I2759
sg2748
I2739
sg2618
I2609
sg1532
I1523
sg2861
I2852
sg3178
I3169
sg149
I140
sg2541
I2532
sg1305
I1296
sg2494
I2485
sg1750
I1741
sg2974
I2965
sg954
I945
sg1140
I1131
sg1537
I1528
sg2720
I2711
sg3058
I3049
sg1041
I1032
sg2326
I2317
sg665
I656
sg2119
I2110
sg2300
I2291
sg863
I854
sg1897
I1888
sg1178
I1169
sg3145
I3136
sg946
I937
sg2393
I2384
sg2118
I2109
sg799
I790
sg1664
I1655
sg1768
I1759
sg2219
I2210
sg2825
I2816
sg2465
I2456
sg446
I437
sg124
I115
sg3710
I3701
sg3997
I3988
sg351
I342
sg1899
I1890
sg1790
I1781
sg2673
I2664
sg1026
I1017
sg1752
I1743
sg3312
I3303
sg270
I261
sg1509
I1500
sg3554
I3545
sg675
I666
sg3060
I3051
sg423
I414
sg2656
I2647
sg1405
I1396
sg3405
I3396
sg1625
I1616
sg3022
I3013
sg2279
I2270
sg1944
I1935
sg1057
I1048
sg721
I712
sg1680
I1671
sg3608
I3599
sg2663
I2654
sg3563
I3554
sg1875
I1866
sg377
I368
sg593
I584
sg3667
I3658
sg3845
I3836
sg3661
I3652
sg3263
I3254
sg1978
I1969
sg3274
I3265
sg2853
I2844
sg704
I695
sg1960
I1951
sg282
I273
sg1160
I1151
sg1112
I1103
sg2143
I2134
sg2559
I2550
sg1155
I1146
sg3091
I3082
sg1692
I1683
sg106
I97
sg2728
I2719
sg2318
I2309
sg1986
I1977
sg1964
I1955
sg1165
I1156
sg2295
I2286
sg1710
I1701
sg3240
I3231
sg3172
I3163
sg3107
I3098
sg1059
I1050
sg3764
I3755
sg2867
I2858
sg2930
I2921
sg2647
I2638
sg50
I41
sg2447
I2438
sg3168
I3159
sg1163
I1154
sg1029
I1020
sg2027
I2018
sg609
I600
sg3190
I3181
sg812
I803
sg1677
I1668
sg3416
I3407
sg2874
I2865
sg2113
I2104
sg3218
I3209
sg458
I449
sg1838
I1829
sg273
I264
sg3342
I3333
sg1168
I1159
sg3152
I3143
sg2499
I2490
sg3075
I3066
sg2135
I2126
sg668
I659
sg643
I634
sg3096
I3087
sg494
I485
sg1703
I1694
sg1131
I1122
sg608
I599
sg762
I753
sg1240
I1231
sg1581
I1572
sg3026
I3017
sg205
I196
sg1127
I1118
sg3968
I3959
sg1893
I1884
sg938
I929
sg3516
I3507
sg1728
I1719
sg118
I109
sg343
I334
sg2195
I2186
sg1399
I1390
sg491
I482
sg2039
I2030
sg761
I752
sg516
I507
sg2978
I2969
sg1077
I1068
sg1034
I1025
sg3611
I3602
sg2221
I2212
sg150
I141
sg3118
I3109
sg2932
I2923
sg1064
I1055
sg3853
I3844
sg3330
I3321
sg830
I821
sg2569
I2560
sg1962
I1953
sg505
I496
sg1641
I1632
sg19
I10
sg1398
I1389
sg793
I784
sg3306
I3297
sg2643
I2634
sg1678
I1669
sg3217
I3208
sg2729
I2720
sg968
I959
sg2353
I2344
sg410
I401
sg2584
I2575
sg2202
I2193
sg3414
I3405
sg3907
I3898
sg2375
I2366
sg1173
I1164
sg2432
I2423
sg3976
I3967
sg3722
I3713
sg1690
I1681
sg3950
I3941
sg115
I106
sg2132
I2123
sg2882
I2873
sg317
I308
sg455
I446
sg2252
I2243
sg3403
I3394
sg2965
I2956
sg2390
I2381
sg1463
I1454
sg1333
I1324
sg996
I987
sg702
I693
sg805
I796
sg3006
I2997
sg1045
I1036
sg3991
I3982
sg275
I266
sg1955
I1946
sg2206
I2197
sg2268
I2259
sg1390
I1381
sg263
I254
sg1378
I1369
sg2373
I2364
sg652
I643
sg824
I815
sg1681
I1672
sg289
I280
sg3381
I3372
sg2382
I2373
sg1053
I1044
sg817
I808
sg874
I865
sg1215
I1206
sg3546
I3537
sg3247
I3238
sg1313
I1304
sg1320
I1311
sg2192
I2183
sg3649
I3640
sg461
I452
sg3549
I3540
sg3519
I3510
sg1453
I1444
sg2302
I2293
sg3182
I3173
sg2973
I2964
sg1352
I1343
sg1830
I1821
sg3663
I3654
sg2057
I2048
sg3504
I3495
sg753
I744
sg3407
I3398
sg3591
I3582
sg2966
I2957
sg1607
I1598
sg1068
I1059
sg2077
I2068
sg2685
I2676
sg1230
I1221
sg1312
I1303
sg3183
I3174
sg1321
I1312
sg2850
I2841
sg3305
I3296
sg1479
I1470
sg296
I287
sg1473
I1464
sg2376
I2367
sg1478
I1469
sg2741
I2732
sg3017
I3008
sg1659
I1650
sg1795
I1786
sg3037
I3028
sg168
I159
sg2076
I2067
sg1440
I1431
sg1480
I1471
sg3791
I3782
sg2554
I2545
sg2985
I2976
sg2730
I2721
sg1167
I1158
sg1868
I1859
sg435
I426
sg404
I395
sg3624
I3615
sg3863
I3854
sg1146
I1137
sg1232
I1223
sg2424
I2415
sg3619
I3610
sg1759
I1750
sg3383
I3374
sg3484
I3475
sg1233
I1224
sg2227
I2218
sg1760
I1751
sg183
I174
sg3852
I3843
sg1126
I1117
sg1200
I1191
sg771
I762
sg2384
I2375
sg2079
I2070
sg2669
I2660
sg3334
I3325
sg2483
I2474
sg1386
I1377
sg3899
I3890
sg3020
I3011
sg3773
I3764
sg2286
I2277
sg3965
I3956
sg1695
I1686
sg383
I374
sg349
I340
sg699
I690
sg165
I156
sg2167
I2158
sg1936
I1927
sg3560
I3551
sg1550
I1541
sg1253
I1244
sg3420
I3411
sg2552
I2543
sg960
I951
sg2396
I2387
sg1844
I1835
sg1621
I1612
sg493
I484
sg2397
I2388
sg2506
I2497
sg1748
I1739
sg3838
I3829
sg3397
I3388
sg706
I697
sg3034
I3025
sg3265
I3256
sg3451
I3442
sg3691
I3682
sg2875
I2866
sg1384
I1375
sg809
I800
sg731
I722
sg667
I658
sg3253
I3244
sg2626
I2617
sg969
I960
sg2215
I2206
sg1909
I1900
sg2865
I2856
sg3144
I3135
sg1535
I1526
sg1982
I1973
sg2348
I2339
sg323
I314
sg2870
I2861
sg1558
I1549
sg1941
I1932
sg1144
I1135
sg2777
I2768
sg2244
I2235
sg2724
I2715
sg2911
I2902
sg3657
I3648
sg3886
I3877
sg316
I307
sg219
I210
sg1279
I1270
sg2779
I2770
sg1594
I1585
sg903
I894
sg760
I751
sg1616
I1607
sg872
I863
sg2948
I2939
sg698
I689
sg2172
I2163
sg2358
I2349
sg2756
I2747
sg733
I724
sg2084
I2075
sg746
I737
sg67
I58
sg1579
I1570
sg1598
I1589
sg1095
I1086
sg2098
I2089
sg130
I121
sg3768
I3759
sg2510
I2501
sg3146
I3137
sg1859
I1850
sg1650
I1641
sg742
I733
sg659
I650
sg79
I70
sg1942
I1933
sg476
I467
sg3273
I3264
sg2050
I2041
sg1377
I1368
sg1755
I1746
sg112
I103
sg653
I644
sg3030
I3021
sg1211
I1202
sg3564
I3555
sg3566
I3557
sg3762
I3753
sg1971
I1962
sg1684
I1675
sg1685
I1676
sg3604
I3595
sg3615
I3606
sg3664
I3655
sg3906
I3897
sg3289
I3280
sg3040
I3031
sg482
I473
sg3287
I3278
sg3517
I3508
sg3529
I3520
sg723
I714
sg202
I193
sg3396
I3387
sg145
I136
sg2087
I2078
sg3531
I3522
sg2550
I2541
sg324
I315
sg3792
I3783
sg2996
I2987
sg301
I292
sg3585
I3576
sg213
I204
sg957
I948
sg2012
I2003
sg2849
I2840
sg496
I487
sg2513
I2504
sg3671
I3662
sg308
I299
sg406
I397
sg382
I373
sg3043
I3034
sg1511
I1502
sg2277
I2268
sg2324
I2315
sg1852
I1843
sg3835
I3826
sg1985
I1976
sg1773
I1764
sg853
I844
sg536
I527
sg3098
I3089
sg2601
I2592
sg1105
I1096
sg3093
I3084
sg3078
I3069
sg3812
I3803
sg3482
I3473
sg1934
I1925
sg230
I221
sg3641
I3632
sg664
I655
sg546
I537
sg310
I301
sg434
I425
sg44
I35
sg678
I669
sg2614
I2605
sg2242
I2233
sg2894
I2885
sg3389
I3380
sg1804
I1795
sg379
I370
sg2000
I1991
sg2017
I2008
sg1788
I1779
sg2881
I2872
sg3780
I3771
sg3890
I3881
sg684
I675
sg3425
I3416
sg2033
I2024
sg3582
I3573
sg25
I16
sg279
I270
sg545
I536
sg2910
I2901
sg3193
I3184
sg2644
I2635
sg554
I545
sg789
I780
sg2519
I2510
sg159
I150
sg3120
I3111
sg390
I381
sg2744
I2735
sg3620
I3611
sg2220
I2211
sg3826
I3817
sg1071
I1062
sg716
I707
sg596
I587
sg3682
I3673
sg280
I271
sg1908
I1899
sg136
I127
sg354
I345
sg2258
I2249
sg1707
I1698
sg1907
I1898
sg3439
I3430
sg3441
I3432
sg1799
I1790
sg1937
I1928
sg272
I263
sg810
I801
sg3532
I3523
sg3357
I3348
sg1282
I1273
sg2146
I2137
sg1465
I1456
sg3631
I3622
sg2301
I2292
sg3087
I3078
sg2765
I2756
sg1623
I1614
sg3634
I3625
sg309
I300
sg621
I612
sg1910
I1901
sg395
I386
sg107
I98
sg1058
I1049
sg2916
I2907
sg2592
I2583
sg1534
I1525
sg1222
I1213
sg2311
I2302
sg3113
I3104
sg2037
I2028
sg184
I175
sg258
I249
sg2127
I2118
sg537
I528
sg1423
I1414
sg999
I990
sg2981
I2972
sg217
I208
sg1842
I1833
sg662
I653
sg1940
I1931
sg1528
I1519
sg1006
I997
sg2863
I2854
sg2649
I2640
sg160
I151
sg1303
I1294
sg1611
I1602
sg3436
I3427
sg266
I257
sg542
I533
sg765
I756
sg2505
I2496
sg1003
I994
sg227
I218
sg1638
I1629
sg519
I510
sg2180
I2171
sg3230
I3221
sg714
I705
sg843
I834
sg2811
I2802
sg194
I185
sg380
I371
sg3583
I3574
sg622
I613
sg2887
I2878
sg46
I37
sg2380
I2371
sg3179
I3170
sg2538
I2529
sg1231
I1222
sg1551
I1542
sg2708
I2699
sg2164
I2155
sg3016
I3007
sg81
I72
sg3400
I3391
sg1262
I1253
sg2635
I2626
sg3642
I3633
sg3929
I3920
sg1567
I1558
sg3799
I3790
sg2436
I2427
sg3201
I3192
sg1182
I1173
sg510
I501
sg3709
I3700
sg51
I42
sg2573
I2564
sg1052
I1043
sg2566
I2557
sg1663
I1654
sg134
I125
sg3711
I3702
sg1220
I1211
sg595
I586
sg3881
I3872
sg807
I798
sg1644
I1635
sg2941
I2932
sg970
I961
sg1990
I1981
sg945
I936
sg1823
I1814
sg3434
I3425
sg2223
I2214
sg2815
I2806
sg948
I939
sg513
I504
sg3173
I3164
sg2419
I2410
sg2525
I2516
sg2063
I2054
sg1870
I1861
sg3033
I3024
sg2699
I2690
sg1947
I1938
sg68
I59
sg3926
I3917
sg3636
I3627
sg1417
I1408
sg297
I288
sg1028
I1019
sg1614
I1605
sg3314
I3305
sg1015
I1006
sg3339
I3330
sg1513
I1504
sg3373
I3364
sg2074
I2065
sg562
I553
sg2648
I2639
sg648
I639
sg822
I813
sg782
I773
sg777
I768
sg1199
I1190
sg3204
I3195
sg2092
I2083
sg2317
I2308
sg220
I211
sg176
I167
sg131
I122
sg2971
I2962
sg3454
I3445
sg2503
I2494
sg1078
I1069
sg1009
I1000
sg631
I622
sg3622
I3613
sg616
I607
sg485
I476
sg3923
I3914
sg2306
I2297
sg1599
I1590
sg3771
I3762
sg1676
I1667
sg864
I855
sg361
I352
sg318
I309
sg534
I525
sg1288
I1279
sg2757
I2748
sg1904
I1895
sg101
I92
sg2751
I2742
sg1379
I1370
sg1712
I1703
sg1414
I1405
sg527
I518
sg3757
I3748
sg2521
I2512
sg2456
I2447
sg3961
I3952
sg3111
I3102
sg3684
I3675
sg1548
I1539
sg420
I411
sg690
I681
sg691
I682
sg794
I785
sg2646
I2637
sg2433
I2424
sg1580
I1571
sg3099
I3090
sg1283
I1274
sg1135
I1126
sg2531
I2522
sg836
I827
sg2801
I2792
sg3250
I3241
sg2771
I2762
sg3798
I3789
sg3398
I3389
sg3149
I3140
sg1810
I1801
sg470
I461
sg601
I592
sg486
I477
sg1700
I1691
sg2993
I2984
sg3606
I3597
sg39
I30
sg2866
I2857
sg768
I759
sg1782
I1773
sg3041
I3032
sg3227
I3218
sg3458
I3449
sg2591
I2582
sg2381
I2372
sg2714
I2705
sg1587
I1578
sg530
I521
sg2305
I2296
sg1394
I1385
sg3089
I3080
sg3131
I3122
sg2248
I2239
sg819
I810
sg2355
I2346
sg3367
I3358
sg103
I94
sg697
I688
sg3421
I3412
sg228
I219
sg1370
I1361
sg2594
I2585
sg1458
I1449
sg3220
I3211
sg3234
I3225
sg2939
I2930
sg1689
I1680
sg919
I910
sg3147
I3138
sg2345
I2336
sg910
I901
sg1836
I1827
sg3480
I3471
sg37
I28
sg1956
I1947
sg3698
I3689
sg3882
I3873
sg1365
I1356
sg353
I344
sg2759
I2750
sg2600
I2591
sg1388
I1379
sg2628
I2619
sg334
I325
sg555
I546
sg526
I517
sg1605
I1596
sg2619
I2610
sg3101
I3092
sg2507
I2498
sg2168
I2159
sg2041
I2032
sg3199
I3190
sg2556
I2547
sg521
I512
sg55
I46
sg893
I884
sg3271
I3262
sg3074
I3065
sg3536
I3527
sg867
I858
sg963
I954
sg2400
I2391
sg432
I423
sg792
I783
sg2564
I2555
sg2989
I2980
sg3651
I3642
sg3941
I3932
sg367
I358
sg209
I200
sg1157
I1148
sg2590
I2581
sg3029
I3020
sg3982
I3973
sg2448
I2439
sg3356
I3347
sg3355
I3346
sg2319
I2310
sg1062
I1053
sg1088
I1079
sg3296
I3287
sg1734
I1725
sg849
I840
sg916
I907
sg3551
I3542
sg1796
I1787
sg896
I887
sg2439
I2430
sg748
I739
sg1516
I1507
sg531
I522
sg3617
I3608
sg842
I833
sg3785
I3776
sg3598
I3589
sg1037
I1028
sg884
I875
sg848
I839
sg2450
I2441
sg1572
I1563
sg384
I375
sg1309
I1300
sg2332
I2323
sg1451
I1442
sg3951
I3942
sg1070
I1061
sg2805
I2796
sg637
I628
sg619
I610
sg2275
I2266
sg388
I379
sg1711
I1702
sg2196
I2187
sg3742
I3733
sg1602
I1593
sg1635
I1626
sg2568
I2559
sg1540
I1531
sg3930
I3921
sg173
I164
sg1827
I1818
sg3246
I3237
sg1637
I1628
sg1636
I1627
sg1576
I1567
sg3079
I3070
sg3927
I3918
sg2061
I2052
sg1119
I1110
sg3117
I3108
sg615
I606
sg3294
I3285
sg2140
I2131
sg3105
I3096
sg3122
I3113
sg3717
I3708
sg3940
I3931
sg1368
I1359
sg851
I842
sg1356
I1347
sg975
I966
sg2780
I2771
sg856
I847
sg3782
I3773
sg3349
I3340
sg1206
I1197
sg197
I188
sg1065
I1056
sg2839
I2830
sg3837
I3828
sg703
I694
sg208
I199
sg3581
I3572
sg2363
I2354
sg3628
I3619
sg2660
I2651
sg1724
I1715
sg2854
I2845
sg2840
I2831
sg1546
I1537
sg3969
I3960
sg1736
I1727
sg300
I291
sg2178
I2169
sg1590
I1581
sg265
I256
sg3167
I3158
sg3562
I3553
sg2698
I2689
sg1764
I1755
sg2722
I2713
sg2718
I2709
sg3491
I3482
sg3539
I3530
sg2658
I2649
sg3036
I3027
sg3655
I3646
sg2608
I2599
sg2855
I2846
sg3322
I3313
sg2817
I2808
sg594
I585
sg94
I85
sg3262
I3253
sg2094
I2085
sg3351
I3342
sg638
I629
sg3677
I3668
sg1601
I1592
sg1653
I1644
sg1258
I1249
sg2597
I2588
sg3903
I3894
sg399
I390
sg105
I96
sg3870
I3861
sg3889
I3880
sg2461
I2452
sg1223
I1214
sg898
I889
sg401
I392
sg1523
I1514
sg966
I957
sg186
I177
sg3724
I3715
sg1470
I1461
sg1951
I1942
sg3343
I3334
sg222
I213
sg3924
I3915
sg815
I806
sg1771
I1762
sg3712
I3703
sg2213
I2204
sg1643
I1634
sg1765
I1756
sg705
I696
sg3222
I3213
sg1290
I1281
sg3164
I3155
sg2053
I2044
sg2292
I2283
sg1624
I1615
sg474
I465
sg1761
I1752
sg1393
I1384
sg2333
I2324
sg1991
I1982
sg3503
I3494
sg2891
I2882
sg1835
I1826
sg568
I559
sg1655
I1646
sg1865
I1856
sg1967
I1958
sg1671
I1662
sg3670
I3661
sg2469
I2460
sg688
I679
sg895
I886
sg2293
I2284
sg950
I941
sg591
I582
sg65
I56
sg1271
I1262
sg2884
I2875
sg1289
I1280
sg3955
I3946
sg3665
I3656
sg3106
I3097
sg3392
I3383
sg2560
I2551
sg498
I489
sg2707
I2698
sg2083
I2074
sg2752
I2743
sg613
I604
sg1397
I1388
sg3013
I3004
sg1437
I1428
sg2325
I2316
sg1050
I1041
sg2399
I2390
sg1882
I1873
sg1376
I1367
sg998
I989
sg352
I343
sg45
I36
sg2468
I2459
sg514
I505
sg1914
I1905
sg229
I220
sg1847
I1838
sg391
I382
sg2969
I2960
sg2606
I2597
sg3775
I3766
sg3931
I3922
sg503
I494
sg2051
I2042
sg2555
I2546
sg140
I131
sg2885
I2876
sg1741
I1732
sg2876
I2867
sg2706
I2697
sg1740
I1731
sg2246
I2237
sg3571
I3562
sg3545
I3536
sg1234
I1225
sg2183
I2174
sg129
I120
sg2611
I2602
sg912
I903
sg1983
I1974
sg1832
I1823
sg2166
I2157
sg2616
I2607
sg192
I183
sg2934
I2925
sg1332
I1323
sg2173
I2164
sg3442
I3433
sg1079
I1070
sg2342
I2333
sg2690
I2681
sg3003
I2994
sg1861
I1852
sg2551
I2542
sg3310
I3301
sg1571
I1562
sg1228
I1219
sg319
I310
sg95
I86
sg3990
I3981
sg1887
I1878
sg3731
I3722
sg2229
I2220
sg3936
I3927
sg1323
I1314
sg331
I322
sg1435
I1426
sg3463
I3454
sg2189
I2180
sg1702
I1693
sg3114
I3105
sg1125
I1116
sg3045
I3036
sg2330
I2321
sg2241
I2232
sg1246
I1237
sg757
I748
sg1107
I1098
sg2134
I2125
sg2931
I2922
sg2445
I2436
sg32
I23
sg3460
I3451
sg682
I673
sg1988
I1979
sg3135
I3126
sg2958
I2949
sg2929
I2920
sg338
I329
sg2899
I2890
sg1860
I1851
sg3878
I3869
sg560
I551
sg3142
I3133
sg3808
I3799
sg2028
I2019
sg2365
I2356
sg3732
I3723
sg3509
I3500
sg2029
I2020
sg1864
I1855
sg108
I99
sg3640
I3631
sg3419
I3410
sg3590
I3581
sg3953
I3944
sg2201
I2192
sg206
I197
sg2492
I2483
sg1504
I1495
sg3983
I3974
sg3021
I3012
sg3895
I3886
sg1422
I1413
sg1521
I1512
sg2280
I2271
sg3672
I3663
sg2596
I2587
sg180
I171
sg967
I958
sg3688
I3679
sg1880
I1871
sg3494
I3485
sg3470
I3461
sg239
I230
sg511
I502
sg3158
I3149
sg724
I715
sg172
I163
sg3138
I3129
sg1961
I1952
sg1116
I1107
sg1014
I1005
sg1239
I1230
sg2068
I2059
sg3132
I3123
sg3714
I3705
sg1667
I1658
sg1691
I1682
sg2721
I2712
sg1948
I1939
sg654
I645
sg1251
I1242
sg2571
I2562
sg902
I893
sg260
I251
sg47
I38
sg3957
I3948
sg268
I259
sg3136
I3127
sg283
I274
sg2925
I2916
sg854
I845
sg40
I31
sg104
I95
sg3898
I3889
sg508
I499
sg3580
I3571
sg12
I3
sg2570
I2561
sg1722
I1713
sg438
I429
sg931
I922
sg2572
I2563
sg2641
I2632
sg2430
I2421
sg1421
I1412
sg14
I5
sg2169
I2160
sg2197
I2188
sg2103
I2094
sg3319
I3310
sg3974
I3965
sg2589
I2580
sg3119
I3110
sg3497
I3488
sg2366
I2357
sg564
I555
sg1704
I1695
sg3001
I2992
sg1293
I1284
sg1559
I1550
sg2535
I2526
sg3556
I3547
sg2410
I2401
sg2110
I2101
sg3629
I3620
sg1892
I1883
sg1828
I1819
sg1334
I1325
sg813
I804
sg3386
I3377
sg2138
I2129
sg764
I755
sg879
I870
sg141
I132
sg620
I611
sg3755
I3746
sg3377
I3368
sg1729
I1720
sg2455
I2446
sg1419
I1410
sg1822
I1813
sg2038
I2029
sg3236
I3227
sg1416
I1407
sg1207
I1198
sg1086
I1077
sg3239
I3230
sg2819
I2810
sg949
I940
sg3008
I2999
sg1181
I1172
sg1856
I1847
sg1687
I1678
sg99
I90
sg2517
I2508
sg543
I534
sg981
I972
sg490
I481
sg3243
I3234
sg3887
I3878
sg2988
I2979
sg2011
I2002
sg2671
I2662
sg3380
I3371
sg2404
I2395
sg3051
I3042
sg1075
I1066
sg360
I351
sg2335
I2326
sg2151
I2142
sg1412
I1403
sg3869
I3860
sg2791
I2782
sg1395
I1386
sg2810
I2801
sg934
I925
sg372
I363
sg1362
I1353
sg1929
I1920
sg3292
I3283
sg1725
I1716
sg2407
I2398
sg1411
I1402
sg3165
I3156
sg3699
I3690
sg2547
I2538
sg2809
I2800
sg1824
I1815
sg2662
I2653
sg1629
I1620
sg671
I662
sg3760
I3751
sg559
I550
sg3822
I3813
sg3066
I3057
sg2128
I2119
sg3177
I3168
sg2354
I2345
sg776
I767
sg2377
I2368
sg2786
I2777
sg679
I670
sg2963
I2954
sg2025
I2016
sg2586
I2577
sg2545
I2536
sg1306
I1297
sg3947
I3938
sg333
I324
sg1218
I1209
sg2561
I2552
sg89
I80
sg1469
I1460
sg291
I282
sg3362
I3353
sg3348
I3339
sg658
I649
sg2260
I2251
sg1359
I1350
sg1270
I1261
sg1923
I1914
sg2758
I2749
sg2422
I2413
sg3848
I3839
sg942
I933
sg3129
I3120
sg1425
I1416
sg2504
I2495
sg330
I321
sg2421
I2412
sg642
I633
sg2289
I2280
sg632
I623
sg1525
I1516
sg2294
I2285
sg3025
I3016
sg463
I454
sg3603
I3594
sg3586
I3577
sg1529
I1520
sg3741
I3732
sg1896
I1887
sg2936
I2927
sg2444
I2435
sg2835
I2826
sg3044
I3035
sg882
I873
sg2789
I2780
sg3918
I3909
sg1130
I1121
sg3293
I3284
sg1316
I1307
sg2026
I2017
sg3298
I3289
sg3542
I3533
sg3902
I3893
sg427
I418
sg1530
I1521
sg892
I883
sg880
I871
sg2210
I2201
sg1596
I1587
sg2687
I2678
sg3527
I3518
sg3987
I3978
sg376
I367
sg985
I976
sg2715
I2706
sg1885
I1876
sg10
I1
sg929
I920
sg358
I349
sg2462
I2453
sg3538
I3529
sg3534
I3525
sg1570
I1561
sg4007
I3998
sg1642
I1633
sg2760
I2751
sg2739
I2730
sg3471
I3462
sg236
I227
sg889
I880
sg1335
I1326
sg3867
I3858
sg769
I760
sg2736
I2727
sg1142
I1133
sg1143
I1134
sg3256
I3247
sg246
I237
sg3647
I3638
sg1900
I1891
sg3308
I3299
sg3750
I3741
sg1756
I1747
sg922
I913
sg411
I402
sg2829
I2820
sg348
I339
sg3483
I3474
sg1751
I1742
sg3666
I3657
sg2488
I2479
sg3333
I3324
sg3150
I3141
sg1933
I1924
sg2299
I2290
sg2154
I2145
sg3340
I3331
sg1331
I1322
sg1754
I1745
sg1304
I1295
sg2130
I2121
sg1898
I1889
sg745
I736
sg421
I412
sg1296
I1287
sg711
I702
sg3557
I3548
sg2753
I2744
sg3143
I3134
sg2177
I2168
sg3431
I3422
sg3125
I3116
sg3184
I3175
sg365
I356
sg444
I435
sg3635
I3626
sg1101
I1092
sg3623
I3614
sg362
I353
sg472
I463
sg1348
I1339
sg2847
I2838
sg1464
I1455
sg3541
I3532
sg3395
I3386
sg2533
I2524
sg1886
I1877
sg3653
I3644
sg3000
I2991
sg2893
I2884
sg1420
I1411
sg2398
I2389
sg1214
I1205
sg914
I905
sg1213
I1204
sg2902
I2893
sg3980
I3971
sg2152
I2143
sg425
I416
sg3171
I3162
sg2743
I2734
sg3311
I3302
sg2475
I2466
sg1076
I1067
sg1268
I1259
sg3829
I3820
sg3278
I3269
sg2481
I2472
sg2479
I2470
sg2478
I2469
sg2946
I2937
sg3364
I3355
sg3170
I3161
sg2898
I2889
sg3587
I3578
sg4010
I4001
sg2802
I2793
sg3966
I3957
sg2356
I2347
sg2834
I2825
sg120
I111
sg501
I492
sg2121
I2112
sg1236
I1227
sg3956
I3947
sg2175
I2166
sg1656
I1647
sg2749
I2740
sg1367
I1358
sg869
I860
sg673
I664
sg2191
I2182
sg3801
I3792
sg3301
I3292
sg2372
I2363
sg865
I856
sg831
I822
sg2602
I2593
sg327
I318
sg3092
I3083
sg3796
I3787
sg1085
I1076
sg964
I955
sg732
I723
sg1124
I1115
sg2470
I2461
sg3678
I3669
sg940
I931
sg1180
I1171
sg630
I621
sg3133
I3124
sg3288
I3279
sg2314
I2305
sg3369
I3360
sg1111
I1102
sg3803
I3794
sg657
I648
sg618
I609
sg2935
I2926
sg3109
I3100
sg1358
I1349
sg3937
I3928
sg1917
I1908
sg2624
I2615
sg2401
I2392
sg1345
I1336
sg1005
I996
sg1300
I1291
sg3716
I3707
sg1501
I1492
sg1876
I1867
sg76
I67
sg3368
I3359
sg2908
I2899
sg181
I172
sg3909
I3900
sg1010
I1001
sg509
I500
sg77
I68
sg886
I877
sg556
I547
sg3313
I3304
sg1648
I1639
sg3379
I3370
sg1004
I995
sg2014
I2005
sg3547
I3538
sg1477
I1468
sg2702
I2693
sg3877
I3868
sg113
I104
sg1739
I1730
sg1867
I1858
sg54
I45
sg1555
I1546
sg1526
I1517
sg3874
I3865
sg2890
I2881
sg443
I434
sg464
I455
sg2165
I2156
sg2374
I2365
sg3490
I3481
sg2844
I2835
sg2160
I2151
sg840
I831
sg1357
I1348
sg2565
I2556
sg2105
I2096
sg3166
I3157
sg3035
I3026
sg2532
I2523
sg139
I130
sg2848
I2839
sg2349
I2340
sg3827
I3818
sg1688
I1679
sg31
I22
sg2171
I2162
sg2527
I2518
sg3385
I3376
sg1051
I1042
sg2245
I2236
sg26
I17
sg58
I49
sg778
I769
sg583
I574
sg1016
I1007
sg1632
I1623
sg1429
I1420
sg1630
I1621
sg1631
I1622
sg701
I692
sg1627
I1618
sg3487
I3478
sg1307
I1298
sg955
I946
sg3543
I3534
sg629
I620
sg1670
I1661
sg451
I442
sg868
I859
sg1542
I1533
sg2312
I2303
sg1121
I1112
sg1082
I1073
sg3970
I3961
sg1389
I1380
sg2841
I2832
sg2637
I2628
sg563
I554
sg744
I735
sg2693
I2684
sg2006
I1997
sg2431
I2422
sg3084
I3075
sg1791
I1782
sg1714
I1705
sg2836
I2827
sg2123
I2114
ssS'separator'
p4016
S'='
sS'sparse'
p4017
I01
sb.