ccopy_reg
_reconstructor
p1
(csklearn.feature_extraction.dict_vectorizer
DictVectorizer
p2
c__builtin__
object
p3
NtRp4
(dp5
S'vocabulary_'
p6
(dp7
S'dobj=hull'
p8
I6
sS'w+2=in'
p9
I19
sS'mark=as'
p10
I7
sS'w-1=Asia'
p11
I24
sS'w+2=the'
p12
I21
sS'auxpass=be'
p13
I3
sS'aux=have'
p14
I1
sS'w+2=hull'
p15
I18
sS'w-1=be'
p16
I25
sS'w+2=robust'
p17
I20
sS'w-1=.'
p18
I23
sS'w+1=into'
p19
I16
sS'cc=and'
p20
I4
sS'aux=must'
p21
I2
sS'w-2=East'
p22
I28
sS'advmod=incredibly'
p23
I0
sS'prep=into'
p24
I13
sS'conj=pressure-cycle'
p25
I5
sS'nsubj=hub'
p26
I9
sS'w-2=how'
p27
I30
sS'w-1=incredibly'
p28
I27
sS'w-2=they'
p29
I32
sS'w+1=a'
p30
I14
sS'nsubjpass=#PRP#'
p31
I10
sS'w+2=thing'
p32
I22
sS'w-2=Institute'
p33
I29
sS'prep=in'
p34
I12
sS'w+1=in'
p35
I15
sS'w+1=visitor'
p36
I17
sS'nsubj=#PRP#'
p37
I8
sS'w-2=must'
p38
I31
sS'prep=from'
p39
I11
sS'w-1=have'
p40
I26
ssS'dtype'
p41
cnumpy
float64
p42
sS'feature_names_'
p43
(lp44
g23
ag14
ag21
ag13
ag20
ag25
ag8
ag10
ag37
ag26
ag31
ag39
ag34
ag24
ag30
ag35
ag19
ag36
ag15
ag9
ag17
ag12
ag32
ag18
ag11
ag16
ag40
ag28
ag22
ag33
ag27
ag38
ag29
asS'separator'
p45
S'='
sS'sparse'
p46
I01
sb.