ccopy_reg
_reconstructor
p1
(csklearn.feature_extraction.dict_vectorizer
DictVectorizer
p2
c__builtin__
object
p3
NtRp4
(dp5
S'vocabulary_'
p6
(dp7
S'advmod=more'
p8
I1
sS'w+1=,'
p9
I67
sS'ccomp=call'
p10
I13
sS'w+2=problem'
p11
I98
sS'w-2=avoid'
p12
I137
sS'w-1=occasionally'
p13
I121
sS'w-2=budget'
p14
I140
sS'dobj=conflict'
p15
I20
sS'nsubj=loss'
p16
I43
sS'w+2=between'
p17
I92
sS'w-1=possibly'
p18
I122
sS'w-2=to'
p19
I158
sS'prep=include'
p20
I62
sS'w+2=raid'
p21
I99
sS'w-2=instability'
p22
I145
sS'nsubj=Winter'
p23
I38
sS'w-2=aggravate'
p24
I134
sS'dobj=intensity'
p25
I25
sS'nsubj=revelation'
p26
I48
sS'w-2=site'
p27
I153
sS'dobj=pressure'
p28
I26
sS'dobj=situation'
p29
I30
sS'dobj=tie'
p30
I33
sS'nsubj=chief'
p31
I41
sS'w-1=to'
p32
I125
sS'prep=by'
p33
I58
sS'w+2=and'
p34
I91
sS'dobj=discontent'
p35
I23
sS'w-2=and'
p36
I135
sS'prep=between'
p37
I57
sS'w-1=start'
p38
I124
sS'dobj=#PRP#'
p39
I19
sS'w-2=do'
p40
I142
sS'advmod=occasionally'
p41
I2
sS'w-1=would'
p42
I128
sS'w+1=this'
p43
I81
sS'xcomp=grow'
p44
I159
sS'w-2=the'
p45
I155
sS'w+2=June'
p46
I86
sS'aux=do'
p47
I5
sS'w-2=serve'
p48
I152
sS'w-2=problem'
p49
I149
sS'w-2=bank'
p50
I138
sS'aux=will'
p51
I8
sS'w+2=recent'
p52
I100
sS'dobj=task'
p53
I31
sS'dobj=shortage'
p54
I29
sS'w+2=the'
p55
I106
sS'prep=at'
p56
I56
sS'tmod=year'
p57
I66
sS'w-1=will'
p58
I127
sS'w-1=see'
p59
I123
sS'w-2=.'
p60
I130
sS'prep=with'
p61
I64
sS'w-1=and'
p62
I112
sS'w+1=he'
p63
I72
sS'w+1=what'
p64
I82
sS'advmod=possibly'
p65
I3
sS'aux=have'
p66
I6
sS'nsubj=agency'
p67
I39
sS'nsubj=proposal'
p68
I45
sS'w-1=be'
p69
I114
sS'w-2=arm'
p70
I136
sS'conj=harry'
p71
I16
sS'w-1=,'
p72
I110
sS'w+2=with'
p73
I109
sS'w-1=avoid'
p74
I113
sS'w-2=thedevelopment'
p75
I156
sS'nsubj=#PRP#'
p76
I36
sS'dobj=violence'
p77
I34
sS'nsubj=rain'
p78
I46
sS'w-2=may'
p79
I147
sS'dobj=problem'
p80
I27
sS'w-2=recession'
p81
I151
sS'nsubjpass=polarization'
p82
I51
sS'w+2=aggravate'
p83
I88
sS'w-2=Mbeki'
p84
I131
sS'prep=for'
p85
I59
sS'nsubj=instability'
p86
I42
sS'dobj=crisis'
p87
I22
sS'ccomp=say'
p88
I14
sS'w-2=poverty'
p89
I148
sS'nsubj=nutrition'
p90
I44
sS'w+2=risk'
p91
I101
sS'w-1=he'
p92
I118
sS'w-2=U.S.'
p93
I133
sS'w-2=proposal'
p94
I150
sS'w+2=intensity'
p95
I95
sS'advcl=compromise'
p96
I0
sS'auxpass=be'
p97
I10
sS'complm=that'
p98
I15
sS'w+2=they'
p99
I107
sS'nsubj=bombing'
p100
I40
sS'w-1=nutrition'
p101
I120
sS'w+1=discontent'
p102
I70
sS'w-2=Poor'
p103
I132
sS'w-1=transaction'
p104
I126
sS'w+2=situation'
p105
I102
sS'w-2=last'
p106
I146
sS'w-2=have'
p107
I144
sS'cc=and'
p108
I11
sS'nsubjpass=slowdown'
p109
I54
sS'tmod=June'
p110
I65
sS'w-2=that'
p111
I154
sS'w+1=the'
p112
I79
sS'w+1=by'
p113
I69
sS'aux=to'
p114
I7
sS'w+1=they'
p115
I80
sS'w-1=year'
p116
I129
sS'w+2=humanitarian'
p117
I94
sS'w+1=inflation'
p118
I74
sS'w-2=this'
p119
I157
sS'prep=in'
p120
I61
sS'aux=would'
p121
I9
sS'w+1=in'
p122
I73
sS'dobj=inflation'
p123
I24
sS'w-2=be'
p124
I139
sS'nsubj=restriction'
p125
I47
sS'w+2=political'
p126
I97
sS'w+1=it'
p127
I75
sS'nsubj=Mbeki'
p128
I37
sS'w+1=tension'
p129
I78
sS'prep=from'
p130
I60
sS'w+2=analyst'
p131
I90
sS'w+2=violence'
p132
I108
sS'w+1=grow'
p133
I71
sS'cc=but'
p134
I12
sS'nsubj=thedevelopment'
p135
I49
sS'w+2=marriage'
p136
I96
sS'w+2=conflict'
p137
I93
sS'dobj=tension'
p138
I32
sS'w+1=social'
p139
I77
sS'csubj=work'
p140
I18
sS'w+2=soar'
p141
I103
sS'w-1=get'
p142
I116
sS'parataxis=argue'
p143
I55
sS'nsubjpass=problem'
p144
I52
sS'w+2=Ethiopia'
p145
I85
sS'nsubj=this'
p146
I50
sS'nsubjpass=situation'
p147
I53
sS'w+2=.'
p148
I84
sS'w+2=,'
p149
I83
sS'neg=not'
p150
I35
sS'w-1=U.S.'
p151
I111
sS'w+2=social'
p152
I104
sS'w-2=chief'
p153
I141
sS'dobj=confrontation'
p154
I21
sS'w-2=government'
p155
I143
sS'conj=have'
p156
I17
sS'w-1=have'
p157
I117
sS'w+1=sectarian'
p158
I76
sS'w+1=a'
p159
I68
sS'w-1=not'
p160
I119
sS'dobj=risk'
p161
I28
sS'w-1=further'
p162
I115
sS'w+2=spill'
p163
I105
sS'prep=on'
p164
I63
sS'w+2=already'
p165
I89
sS'aux=be'
p166
I4
sS'w+2=a'
p167
I87
ssS'dtype'
p168
cnumpy
float64
p169
sS'feature_names_'
p170
(lp171
g96
ag8
ag41
ag65
ag166
ag47
ag66
ag114
ag51
ag121
ag97
ag108
ag134
ag10
ag88
ag98
ag71
ag156
ag140
ag39
ag15
ag154
ag87
ag35
ag123
ag25
ag28
ag80
ag161
ag54
ag29
ag53
ag138
ag30
ag77
ag150
ag76
ag128
ag23
ag67
ag100
ag31
ag86
ag16
ag90
ag68
ag78
ag125
ag26
ag135
ag146
ag82
ag144
ag147
ag109
ag143
ag56
ag37
ag33
ag85
ag130
ag120
ag20
ag164
ag61
ag110
ag57
ag9
ag159
ag113
ag102
ag133
ag63
ag122
ag118
ag127
ag158
ag139
ag129
ag112
ag115
ag43
ag64
ag149
ag148
ag145
ag46
ag167
ag83
ag165
ag131
ag34
ag17
ag137
ag117
ag95
ag136
ag126
ag11
ag21
ag52
ag91
ag105
ag141
ag152
ag163
ag55
ag99
ag132
ag73
ag72
ag151
ag62
ag74
ag69
ag162
ag142
ag157
ag92
ag160
ag101
ag13
ag18
ag59
ag38
ag32
ag104
ag58
ag42
ag116
ag60
ag84
ag103
ag93
ag24
ag36
ag70
ag12
ag50
ag124
ag14
ag153
ag40
ag155
ag107
ag22
ag106
ag79
ag89
ag49
ag94
ag81
ag48
ag27
ag111
ag45
ag75
ag119
ag19
ag44
asS'separator'
p172
S'='
sS'sparse'
p173
I01
sb.