ccopy_reg
_reconstructor
p1
(csklearn.feature_extraction.dict_vectorizer
DictVectorizer
p2
c__builtin__
object
p3
NtRp4
(dp5
S'vocabulary_'
p6
(dp7
S'nsubj=spring'
p8
I31
sS'advcl=rise'
p9
I0
sS'w-2=glacier'
p10
I99
sS'w+1=snow'
p11
I55
sS'w-2=global'
p12
I100
sS'w-1=to'
p13
I88
sS'conj=raise'
p14
I15
sS'w+2=sea'
p15
I70
sS'w-2=or'
p16
I105
sS'w+2=this'
p17
I75
sS'w-1=glacier'
p18
I82
sS'w+1=clock'
p19
I47
sS'w-1=spring'
p20
I86
sS'w-2=to'
p21
I109
sS'w+2=and'
p22
I61
sS'w+1=himalayan'
p23
I51
sS'nsubj=ice'
p24
I29
sS'w-2=snow'
p25
I106
sS'nsubj=snow'
p26
I30
sS'nsubj=cap'
p27
I24
sS'nsubj=temperature'
p28
I32
sS'w-2=ice'
p29
I103
sS'w+1=more'
p30
I54
sS'w+2=certain'
p31
I62
sS'aux=will'
p32
I8
sS'w-2=mine'
p33
I104
sS'w-2=from'
p34
I98
sS'dobj=cap'
p35
I17
sS'w+2=the'
p36
I74
sS'prep=at'
p37
I36
sS'w-2=Salween'
p38
I91
sS'w+1=at'
p39
I46
sS'ccomp=pass'
p40
I10
sS'w+2=so'
p41
I72
sS'w-1=be'
p42
I79
sS'w+2=rapidly'
p43
I69
sS'w-1=.'
p44
I78
sS'w-1=,'
p45
I77
sS'w-2=earlier'
p46
I96
sS'w-2=the'
p47
I108
sS'w+2=glacier'
p48
I63
sS'w-2=species'
p49
I107
sS'w+2=heavy'
p50
I64
sS'nsubj=desire'
p51
I27
sS'w-2=go'
p52
I101
sS'w-2=continue'
p53
I95
sS'w-1=freedom'
p54
I80
sS'w+1=during'
p55
I49
sS'prep=even'
p56
I38
sS'w+1=down'
p57
I48
sS'w+2=temperate'
p58
I73
sS'w-2=western'
p59
I111
sS'dobj=clock'
p60
I18
sS'w+1=together'
p61
I57
sS'dobj=pace'
p62
I20
sS'w+2=polar'
p63
I68
sS'nsubj=change'
p64
I25
sS"w+2=''"
p65
I58
sS'w+2=in'
p66
I66
sS'mark=as'
p67
I21
sS'w-1=weather'
p68
I89
sS'conj=decline'
p69
I13
sS'nsubj=weather'
p70
I34
sS'w-2=warmer'
p71
I110
sS'dep=fast'
p72
I16
sS'nsubj=water'
p73
I33
sS'w+2=ice'
p74
I65
sS'complm=that'
p75
I11
sS'w+1=even'
p76
I50
sS'advmod=at'
p77
I1
sS'nsubj=culture'
p78
I26
sS'cc=and'
p79
I9
sS'advmod=when'
p80
I5
sS'w+1=the'
p81
I56
sS'w-1=glacial'
p82
I81
sS'w+1=ice'
p83
I52
sS'advmod=together'
p84
I4
sS'nsubj=glacier'
p85
I28
sS'prep=in'
p86
I39
sS'advmod=how'
p87
I2
sS'conj=be'
p88
I12
sS'w+1=in'
p89
I53
sS'w-2=himalayan'
p90
I102
sS'w+1=Arctic'
p91
I44
sS"w-1=''"
p92
I76
sS'partmod=change'
p93
I35
sS'aux=to'
p94
I7
sS'w-1=ice'
p95
I83
sS'conj=make'
p96
I14
sS'w-2=winter'
p97
I112
sS'w+1=and'
p98
I45
sS'w-1=society'
p99
I85
sS'w-2=cap'
p100
I93
sS'w+1=,'
p101
I42
sS'w+1=.'
p102
I43
sS'w-1=will'
p103
I90
sS'w+2=,'
p104
I59
sS'w-1=temperature'
p105
I87
sS'w+2=on'
p106
I67
sS'mark=before'
p107
I22
sS'w-2=begin'
p108
I92
sS'prep=during'
p109
I37
sS'advmod=rapidly'
p110
I3
sS'prt=down'
p111
I41
sS'w-1=snow'
p112
I84
sS'prep=on'
p113
I40
sS'w+2=sheet'
p114
I71
sS'dobj=ice'
p115
I19
sS'aux=be'
p116
I6
sS'w-2=for'
p117
I97
sS'mark=if'
p118
I23
sS'w-2=change'
p119
I94
sS'w+2=a'
p120
I60
ssS'dtype'
p121
cnumpy
float64
p122
sS'feature_names_'
p123
(lp124
g9
ag77
ag87
ag110
ag84
ag80
ag116
ag94
ag32
ag79
ag40
ag75
ag88
ag69
ag96
ag14
ag72
ag35
ag60
ag115
ag62
ag67
ag107
ag118
ag27
ag64
ag78
ag51
ag85
ag24
ag26
ag8
ag28
ag73
ag70
ag93
ag37
ag109
ag56
ag86
ag113
ag111
ag101
ag102
ag91
ag98
ag39
ag19
ag57
ag55
ag76
ag23
ag83
ag89
ag30
ag11
ag81
ag61
ag65
ag104
ag120
ag22
ag31
ag48
ag50
ag74
ag66
ag106
ag63
ag43
ag15
ag114
ag41
ag58
ag36
ag17
ag92
ag45
ag44
ag42
ag54
ag82
ag18
ag95
ag112
ag99
ag20
ag105
ag13
ag68
ag103
ag38
ag108
ag100
ag119
ag53
ag46
ag117
ag34
ag10
ag12
ag52
ag90
ag29
ag33
ag16
ag25
ag49
ag47
ag21
ag71
ag59
ag97
asS'separator'
p125
S'='
sS'sparse'
p126
I01
sb.