ccopy_reg
_reconstructor
p1
(csklearn.feature_extraction.dict_vectorizer
DictVectorizer
p2
c__builtin__
object
p3
NtRp4
(dp5
S'vocabulary_'
p6
(dp7
S'w+2=file'
p8
I41
sS'w-2=spacewalk'
p9
I65
sS'dobj=equipment'
p10
I14
sS'conj=assassinate'
p11
I7
sS'w+2=response'
p12
I44
sS'w+2=car'
p13
I39
sS'nsubj=Mercenaries'
p14
I20
sS'w-2=involve'
p15
I62
sS'aux=to'
p16
I2
sS'dobj=antenna'
p17
I12
sS'ccomp=give'
p18
I6
sS'nsubj=ship'
p19
I22
sS'dobj=car'
p20
I13
sS'w-2=they'
p21
I66
sS'w+2=the'
p22
I46
sS'prep=from'
p23
I25
sS'w+1=from'
p24
I29
sS'dobj=#NUMBER#'
p25
I8
sS'w-2=,'
p26
I56
sS'w-2=.'
p27
I57
sS'auxpass=be'
p28
I4
sS'w+2=property'
p29
I43
sS'w+1=water'
p30
I34
sS'advmod=faster'
p31
I0
sS'aux=have'
p32
I1
sS'w+1=.'
p33
I26
sS'w-1=be'
p34
I49
sS'w-2=say'
p35
I64
sS'w+2=,'
p36
I36
sS'w+2=for'
p37
I42
sS'dobj=water'
p38
I17
sS'w+1=five'
p39
I28
sS'w+1=spill'
p40
I31
sS'w-2=Mercenaries'
p41
I58
sS'w-2=adroa'
p42
I59
sS'cc=and'
p43
I5
sS'w-1=and'
p44
I48
sS'xcomp=return'
p45
I69
sS'w+2=strategic'
p46
I45
sS'w+1=the'
p47
I32
sS'w+2=faster'
p48
I40
sS'nsubj=man'
p49
I21
sS'w-2=have'
p50
I61
sS'w+1=they'
p51
I33
sS'w-1=of'
p52
I53
sS'dobj=Heights'
p53
I10
sS'w-1=in'
p54
I51
sS'w-1=to'
p55
I54
sS'w+2=activist'
p56
I37
sS'w+1=a'
p57
I27
sS'nsubjpass=#PRP#'
p58
I23
sS'w-2=war'
p59
I67
sS'w-2=we'
p60
I68
sS'dobj=property'
p61
I16
sS'aux=would'
p62
I3
sS'dobj=#PRP#'
p63
I9
sS'dobj=activist'
p64
I11
sS'w+2=weapon'
p65
I47
sS'w+2=broken'
p66
I38
sS'dobj=weapon'
p67
I18
sS'w-1=would'
p68
I55
sS'w+1=it'
p69
I30
sS'w-2=come'
p70
I60
sS'nsubj=#PRP#'
p71
I19
sS'w-2=process'
p72
I63
sS'w+1=you'
p73
I35
sS'nsubjpass=goods'
p74
I24
sS'w-1=have'
p75
I50
sS'w-1=man'
p76
I52
sS'dobj=file'
p77
I15
ssS'dtype'
p78
cnumpy
float64
p79
sS'feature_names_'
p80
(lp81
g31
ag32
ag16
ag62
ag28
ag43
ag18
ag11
ag25
ag63
ag53
ag64
ag17
ag20
ag10
ag77
ag61
ag38
ag67
ag71
ag14
ag49
ag19
ag58
ag74
ag23
ag33
ag57
ag39
ag24
ag69
ag40
ag47
ag51
ag30
ag73
ag36
ag56
ag66
ag13
ag48
ag8
ag37
ag29
ag12
ag46
ag22
ag65
ag44
ag34
ag75
ag54
ag76
ag52
ag55
ag68
ag26
ag27
ag41
ag42
ag70
ag50
ag15
ag72
ag35
ag9
ag21
ag59
ag60
ag45
asS'separator'
p82
S'='
sS'sparse'
p83
I01
sb.