ccopy_reg
_reconstructor
p1
(csklearn.feature_extraction.dict_vectorizer
DictVectorizer
p2
c__builtin__
object
p3
NtRp4
(dp5
S'vocabulary_'
p6
(dp7
S'advmod=then'
p8
I14
sS'nsubj=which'
p9
I109
sS'w-2=death'
p10
I288
sS'w+2=armed'
p11
I184
sS'w+2=negative'
p12
I215
sS'w+1=.'
p13
I133
sS'nsubjpass=lord'
p14
I116
sS'dobj=element'
p15
I57
sS'w+2=company'
p16
I189
sS'w+2=region'
p17
I224
sS'advmod=more'
p18
I10
sS'w-2=task'
p19
I322
sS'w-2=have'
p20
I296
sS'w+2=young'
p21
I234
sS'conj=turn'
p22
I34
sS'advmod=dramatically'
p23
I5
sS'w-2=we'
p24
I328
sS'dobj=agriculture'
p25
I47
sS'dobj=Bhutan'
p26
I39
sS'dobj=citizen'
p27
I49
sS'nsubjpass=grounds'
p28
I114
sS'dobj=Welsh'
p29
I46
sS'dobj=sugar'
p30
I86
sS'nsubjpass=situation'
p31
I118
sS'dobj=output'
p32
I75
sS'conj=raise'
p33
I33
sS'w+1=hiv\\/aids'
p34
I154
sS'w+1=skin'
p35
I165
sS'w-2=medical'
p36
I305
sS'w-2=Palin'
p37
I274
sS'dobj=country'
p38
I53
sS'w+1=experience'
p39
I149
sS'w+2=from'
p40
I202
sS'w-1=help'
p41
I251
sS'w+2=.'
p42
I178
sS'w+1=ordinary'
p43
I163
sS'nsubj=Georgia'
p44
I93
sS'dobj=hiv\\/aids'
p45
I61
sS'dobj=society'
p46
I84
sS'w+2=mosque'
p47
I212
sS'w-2=want'
p48
I327
sS'dobj=race'
p49
I80
sS'w+2=neighborhood'
p50
I216
sS'w-2=potential'
p51
I313
sS'w-2=Georgia'
p52
I270
sS'nsubj=who'
p53
I111
sS'w+2=economic'
p54
I194
sS'w-2=activist'
p55
I279
sS'w-2=then'
p56
I324
sS'w-1=then'
p57
I261
sS'w-2=dialogue'
p58
I289
sS'dobj=situation'
p59
I83
sS'nsubj=step'
p60
I107
sS'w-2=system'
p61
I321
sS'w+2=housing'
p62
I203
sS'w+2=for'
p63
I201
sS'w-2=they'
p64
I325
sS'prep=than'
p65
I127
sS'w-1=to'
p66
I262
sS'w-2=innovation'
p67
I299
sS'w+1=blood'
p68
I145
sS'dobj=ministry'
p69
I67
sS'w+2=and'
p70
I183
sS'w+2=landscape'
p71
I209
sS'w+2=nation'
p72
I214
sS'w-1=,'
p73
I235
sS'w-2=chance'
p74
I285
sS'w-2=exist'
p75
I292
sS'dobj=#PRP#'
p76
I38
sS'dobj=mosque'
p77
I69
sS'dobj=commerce'
p78
I50
sS'nsubjpass=center'
p79
I113
sS'w+2=experience'
p80
I199
sS'w-2=Maryland'
p81
I272
sS'w+1=himself'
p82
I153
sS'w-2=region'
p83
I315
sS'w+1=this'
p84
I170
sS'w+1=derelict'
p85
I147
sS'w+2=child'
p86
I187
sS'w-2=violence'
p87
I326
sS'w+2=attitude'
p88
I185
sS'dobj=misconception'
p89
I68
sS'w+2=citizen'
p90
I188
sS'w+2=agriculture'
p91
I182
sS'advcl=meet'
p92
I2
sS'w-2=also'
p93
I282
sS'aux=will'
p94
I21
sS'w+1=with'
p95
I175
sS'prep=follow'
p96
I122
sS'w+1=its'
p97
I157
sS'w+2=new'
p98
I217
sS'w+2=situation'
p99
I226
sS'advmod=just'
p100
I8
sS'dobj=economy'
p101
I56
sS'w+2=the'
p102
I229
sS'w+1=itself'
p103
I158
sS'nsubjpass=jump'
p104
I115
sS'dobj=housing'
p105
I62
sS'w-1=will'
p106
I266
sS'w-2=,'
p107
I269
sS'w+1=Welsh'
p108
I142
sS'nsubj=event'
p109
I101
sS'prep=with'
p110
I129
sS'dobj=experience'
p111
I59
sS'w-2=skill'
p112
I318
sS'w-1=city'
p113
I246
sS'partmod=build'
p114
I120
sS'aux=have'
p115
I18
sS'w-1=by'
p116
I244
sS'w-2=exchange'
p117
I291
sS'dobj=Dubai'
p118
I40
sS'w-1=be'
p119
I243
sS'w+1=into'
p120
I156
sS'advcl=successful'
p121
I3
sS'dobj=force'
p122
I60
sS'w-2=plan'
p123
I311
sS'w+2=museum'
p124
I213
sS'w+1=Washington'
p125
I141
sS'conj=with'
p126
I35
sS'w+1=Medellin'
p127
I140
sS'w-1=can'
p128
I245
sS'w-2=World'
p129
I275
sS'dobj=trend'
p130
I88
sS'w+2=north-south'
p131
I218
sS'w-2=forward'
p132
I295
sS'w-1=shall'
p133
I256
sS'w+1=commerce'
p134
I146
sS'w-2=foreigner'
p135
I294
sS'aux=shall'
p136
I19
sS'w-2=able'
p137
I278
sS'w+2=emergency'
p138
I196
sS'w-2=succeed'
p139
I320
sS'dobj=Medellin'
p140
I44
sS'w-1=spider'
p141
I258
sS'dobj=discourse'
p142
I55
sS'w+1=life'
p143
I160
sS'dobj=life'
p144
I65
sS'advmod=thanks'
p145
I13
sS'w+1=japanese'
p146
I159
sS'w-2=result'
p147
I316
sS'w-1=which'
p148
I264
sS'w+2=country'
p149
I190
sS'dobj=Ethiopia'
p150
I42
sS'advmod=when'
p151
I15
sS'w-2=will'
p152
I331
sS'w+2=element'
p153
I195
sS'w+1=Ethiopia'
p154
I137
sS'w+2=to'
p155
I230
sS'w-1=of'
p156
I255
sS'nsubj=result'
p157
I105
sS'w+1=misconception'
p158
I161
sS'w+1=one'
p159
I162
sS'w-2=step'
p160
I319
sS'advmod=literally'
p161
I9
sS'conj=bring'
p162
I27
sS'w-1=successfully'
p163
I259
sS'w+1=Bhutan'
p164
I135
sS'nsubj=Lukashenko'
p165
I94
sS'advcl=inherit'
p166
I1
sS'w+1=we'
p167
I174
sS'w-1=Cheo'
p168
I238
sS'w-1=have'
p169
I249
sS'nsubj=innovation'
p170
I102
sS'w+2=whole'
p171
I233
sS'w-2=and'
p172
I283
sS'w+1=industrial'
p173
I155
sS'advmod=since'
p174
I11
sS'w+2=sugar'
p175
I228
sS'w+2=-lrb-'
p176
I177
sS'dobj=environment'
p177
I58
sS'w+2=in'
p178
I206
sS'dobj=museum'
p179
I71
sS'w-2=providence'
p180
I314
sS'w-1=he'
p181
I250
sS'w+2=security'
p182
I225
sS'w-2=continent'
p183
I286
sS'w+2=diplomacy'
p184
I193
sS'w-2=work'
p185
I332
sS'w+1=India'
p186
I138
sS'w-2=aim'
p187
I280
sS'w+2=Peter'
p188
I180
sS'w-2=ability'
p189
I277
sS'advcl=give'
p190
I0
sS'w+1=from'
p191
I151
sS'w-2=landmark'
p192
I304
sS'dobj=structure'
p193
I85
sS'auxpass=be'
p194
I22
sS'aux=can'
p195
I17
sS'complm=that'
p196
I26
sS'dobj=mdc'
p197
I66
sS'w-1=since'
p198
I257
sS'advmod=successfully'
p199
I12
sS'conj=face'
p200
I30
sS'w-2=year'
p201
I333
sS'nsubj=region'
p202
I104
sS'w-2=hope'
p203
I297
sS'w+2=flower'
p204
I200
sS'w-2=continue'
p205
I287
sS'dobj=company'
p206
I51
sS'dobj=mother'
p207
I70
sS'w+1=Dubai'
p208
I136
sS'nsubj=Cheo'
p209
I92
sS'w+1=Kenya'
p210
I139
sS'w-2=intend'
p211
I300
sS'conj=lift'
p212
I32
sS'nsubj=arena'
p213
I96
sS'ccomp=do'
p214
I25
sS'dobj=policy'
p215
I77
sS'dobj=region'
p216
I81
sS'dobj=landscape'
p217
I64
sS'nsubj=president'
p218
I103
sS'nsubj=death'
p219
I100
sS'dobj=province'
p220
I79
sS'dobj=Kenya'
p221
I43
sS'conj=encompass'
p222
I29
sS'w-1=just'
p223
I253
sS'advmod=in'
p224
I7
sS'w-1=literally'
p225
I254
sS'cc=but'
p226
I24
sS'w+1=they'
p227
I169
sS'w-2=indoor'
p228
I298
sS'xcomp=able'
p229
I334
sS'w-1=year'
p230
I267
sS'w+1=Afghan'
p231
I134
sS"w+2='s"
p232
I176
sS'w+1=those'
p233
I171
sS'w-2=when'
p234
I329
sS'w+1=american'
p235
I144
sS'nsubj=bite'
p236
I98
sS'dep=call'
p237
I36
sS'w-2=Lukashenko'
p238
I271
sS'w+2=town'
p239
I231
sS'prep=in'
p240
I125
sS'neg=not'
p241
I90
sS'w-1=we'
p242
I263
sS'nsubjpass=#PRP#'
p243
I112
sS'w-2=few'
p244
I293
sS'nsubj=whites'
p245
I110
sS'w+1=for'
p246
I150
sS'tmod=year'
p247
I131
sS'w+2=race'
p248
I223
sS'dobj=Parker'
p249
I45
sS'w-1=event'
p250
I247
sS'nsubj=#PRP#'
p251
I91
sS'prep=from'
p252
I124
sS'w+1=public'
p253
I164
sS'nsubj=self-respect'
p254
I106
sS'w-2=that'
p255
I323
sS'cc=and'
p256
I23
sS'w-1=at'
p257
I242
sS'w-1=from'
p258
I248
sS'w-2=Mexico'
p259
I273
sS'prep=to'
p260
I128
sS'w+2=into'
p261
I207
sS'dobj=program'
p262
I78
sS'aux=to'
p263
I20
sS'w-2=a'
p264
I276
sS'w-2=should'
p265
I317
sS'nsubjpass=tragedy'
p266
I119
sS'w+2=political'
p267
I221
sS'conj=consume'
p268
I28
sS'nsubj=block'
p269
I99
sS'w-1=a'
p270
I239
sS'advmod=ago'
p271
I4
sS'w-1=who'
p272
I265
sS'w-1=America'
p273
I237
sS'w+2=opposition'
p274
I219
sS'nsubj=Palin'
p275
I95
sS'dobj=part'
p276
I76
sS'w+2=energy'
p277
I197
sS'w+2=different'
p278
I192
sS'w-2=kilogram'
p279
I303
sS'w+1=society'
p280
I166
sS'w-2=effort'
p281
I290
sS"w-2=''"
p282
I268
sS'dep=identify'
p283
I37
sS'w+1=,'
p284
I132
sS'w-1=arena'
p285
I241
sS'dobj=relationship'
p286
I82
sS'nsubjpass=relation'
p287
I117
sS'dobj=image'
p288
I63
sS'xcomp=politically'
p289
I335
sS'prep=for'
p290
I123
sS'w+1=teenaged'
p291
I167
sS'w+2=way'
p292
I232
sS'w+2=society'
p293
I227
sS'w+2=human'
p294
I204
sS'w+1=to'
p295
I172
sS'w+2=iron'
p296
I208
sS'w+1=the'
p297
I168
sS'dobj=neighborhood'
p298
I73
sS'dobj=cell'
p299
I48
sS'nsubj=that'
p300
I108
sS'dobj=ore'
p301
I74
sS'w+1=dramatically'
p302
I148
sS'w-1=and'
p303
I240
sS'dobj=town'
p304
I87
sS'w-2=irradiated'
p305
I301
sS'advmod=here'
p306
I6
sS'dobj=diplomacy'
p307
I54
sS'prep=into'
p308
I126
sS'w+2=life'
p309
I210
sS'w+2=province'
p310
I222
sS'dobj=East'
p311
I41
sS'w+2=environment'
p312
I198
sS'dobj=which'
p313
I89
sS'w-1=--'
p314
I236
sS'w+2=cell'
p315
I186
sS'w+1=urban'
p316
I173
sS'w-1=in'
p317
I252
sS'w-2=it'
p318
I302
sS'w-2=which'
p319
I330
sS'w+2=impoverished'
p320
I205
sS'dobj=nation'
p321
I72
sS'w+1=a'
p322
I143
sS'w-2=not'
p323
I307
sS'w-2=be'
p324
I284
sS'prep=by'
p325
I121
sS'w-2=planet'
p326
I312
sS'w-2=minder'
p327
I306
sS'prep=without'
p328
I130
sS'w+1=he'
p329
I152
sS'w+2=Middle'
p330
I179
sS'w-2=of'
p331
I309
sS'nsubj=arrival'
p332
I97
sS'w-1=that'
p333
I260
sS'aux=be'
p334
I16
sS'conj=initiate'
p335
I31
sS'dobj=complex'
p336
I52
sS'w-2=alchemy'
p337
I281
sS'w-2=part'
p338
I310
sS'w+2=dangling'
p339
I191
sS'w+2=ministry'
p340
I211
sS'w+2=a'
p341
I181
sS'w+2=output'
p342
I220
sS'w-2=now'
p343
I308
ssS'dtype'
p344
cnumpy
float64
p345
sS'feature_names_'
p346
(lp347
g190
ag166
ag92
ag121
ag271
ag23
ag306
ag224
ag100
ag161
ag18
ag174
ag199
ag145
ag8
ag151
ag334
ag195
ag115
ag136
ag263
ag94
ag194
ag256
ag226
ag214
ag196
ag162
ag268
ag222
ag200
ag335
ag212
ag33
ag22
ag126
ag237
ag283
ag76
ag26
ag118
ag311
ag150
ag221
ag140
ag249
ag29
ag25
ag299
ag27
ag78
ag206
ag336
ag38
ag307
ag142
ag101
ag15
ag177
ag111
ag122
ag45
ag105
ag288
ag217
ag144
ag197
ag69
ag89
ag77
ag207
ag179
ag321
ag298
ag301
ag32
ag276
ag215
ag262
ag220
ag49
ag216
ag286
ag59
ag46
ag193
ag30
ag304
ag130
ag313
ag241
ag251
ag209
ag44
ag165
ag275
ag213
ag332
ag236
ag269
ag219
ag109
ag170
ag218
ag202
ag157
ag254
ag60
ag300
ag9
ag245
ag53
ag243
ag79
ag28
ag104
ag14
ag287
ag31
ag266
ag114
ag325
ag96
ag290
ag252
ag240
ag308
ag65
ag260
ag110
ag328
ag247
ag284
ag13
ag231
ag164
ag208
ag154
ag186
ag210
ag127
ag125
ag108
ag322
ag235
ag68
ag134
ag85
ag302
ag39
ag246
ag191
ag329
ag82
ag34
ag173
ag120
ag97
ag103
ag146
ag143
ag158
ag159
ag43
ag253
ag35
ag280
ag291
ag297
ag227
ag84
ag233
ag295
ag316
ag167
ag95
ag232
ag176
ag42
ag330
ag188
ag341
ag91
ag70
ag11
ag88
ag315
ag86
ag90
ag16
ag149
ag339
ag278
ag184
ag54
ag153
ag138
ag277
ag312
ag80
ag204
ag63
ag40
ag62
ag294
ag320
ag178
ag261
ag296
ag71
ag309
ag340
ag47
ag124
ag72
ag12
ag50
ag98
ag131
ag274
ag342
ag267
ag310
ag248
ag17
ag182
ag99
ag293
ag175
ag102
ag155
ag239
ag292
ag171
ag21
ag73
ag314
ag273
ag168
ag270
ag303
ag285
ag257
ag119
ag116
ag128
ag113
ag250
ag258
ag169
ag181
ag41
ag317
ag223
ag225
ag156
ag133
ag198
ag141
ag163
ag333
ag57
ag66
ag242
ag148
ag272
ag106
ag230
ag282
ag107
ag52
ag238
ag81
ag259
ag37
ag129
ag264
ag189
ag137
ag55
ag187
ag337
ag93
ag172
ag324
ag74
ag183
ag205
ag10
ag58
ag281
ag117
ag75
ag244
ag135
ag132
ag20
ag203
ag228
ag67
ag211
ag305
ag318
ag279
ag192
ag36
ag327
ag323
ag343
ag331
ag338
ag123
ag326
ag51
ag180
ag83
ag147
ag265
ag112
ag160
ag139
ag61
ag19
ag255
ag56
ag64
ag87
ag48
ag24
ag234
ag319
ag152
ag185
ag201
ag229
ag289
asS'separator'
p348
S'='
sS'sparse'
p349
I01
sb.