ccopy_reg
_reconstructor
p1
(csklearn.feature_extraction.dict_vectorizer
DictVectorizer
p2
c__builtin__
object
p3
NtRp4
(dp5
S'sort'
p6
I01
sS'feature_names_'
p7
(lp8
S'advmod=then'
p9
aS'cc=and'
p10
aS'ccomp=have'
p11
aS'conj=focus'
p12
aS'dep=six-month'
p13
aS'dobj=#NUMBER#'
p14
aS'dobj=#PRP#'
p15
aS'dobj=crew'
p16
aS'dobj=crop'
p17
aS'dobj=presidency'
p18
aS'dobj=sheep'
p19
aS'dobj=wheel'
p20
aS'dobj=which'
p21
aS'nsubj=#PRP#'
p22
aS'nsubj=guy'
p23
aS'nsubj=leader'
p24
aS'nsubj=that'
p25
aS'nsubj=to'
p26
aS'prep=in'
p27
aS'prep=include'
p28
aS'prep=into'
p29
aS'prep=through'
p30
aS'prep=to'
p31
aS'prt=around'
p32
aS'w+1=-rrb-'
p33
aS'w+1=E.U.'
p34
aS'w+1=EU'
p35
aS'w+1=European'
p36
aS'w+1=Security'
p37
aS'w+1=all'
p38
aS'w+1=as'
p39
aS'w+1=au'
p40
aS'w+1=chair'
p41
aS'w+1=chairman'
p42
aS'w+1=chairmanship'
p43
aS'w+1=crop'
p44
aS'w+1=eupresidency'
p45
aS'w+1=force'
p46
aS'w+1=from'
p47
aS'w+1=he'
p48
aS'w+1=it'
p49
aS'w+1=its'
p50
aS'w+1=joint'
p51
aS'w+1=leadership'
p52
aS'w+1=one'
p53
aS'w+1=presidency'
p54
aS'w+1=the'
p55
aS'w+1=through'
p56
aS'w+1=troops'
p57
aS'w+1=wheel'
p58
aS'w+2=,'
p59
aS'w+2=.'
p60
aS'w+2=129'
p61
aS'w+2=1800'
p62
aS'w+2=Council'
p63
aS'w+2=Union'
p64
aS'w+2=and'
p65
aS'w+2=around'
p66
aS'w+2=between'
p67
aS'w+2=chairmanship'
p68
aS'w+2=could'
p69
aS'w+2=crew'
p70
aS'w+2=for'
p71
aS'w+2=head'
p72
aS'w+2=in'
p73
aS'w+2=next'
p74
aS'w+2=of'
p75
aS'w+2=out'
p76
aS'w+2=presidency'
p77
aS'w+2=table'
p78
aS'w+2=theater'
p79
aS'w+2=this'
p80
aS'w+2=to'
p81
aS"w-1='s"
p82
aS'w-1=,'
p83
aS'w-1=-lrb-'
p84
aS'w-1=E.U.'
p85
aS'w-1=EU'
p86
aS'w-1=a'
p87
aS'w-1=and'
p88
aS'w-1=be'
p89
aS'w-1=current'
p90
aS'w-1=g8'
p91
aS'w-1=guy'
p92
aS'w-1=he'
p93
aS'w-1=high-speed'
p94
aS'w-1=it'
p95
aS'w-1=its'
p96
aS'w-1=party'
p97
aS'w-1=six-month'
p98
aS'w-1=that'
p99
aS'w-1=the'
p100
aS'w-1=to'
p101
aS'w-1=you'
p102
aS"w-2=''"
p103
aS'w-2=,'
p104
aS'w-2=.'
p105
aS'w-2=ASEAN'
p106
aS'w-2=Council'
p107
aS'w-2=Italy'
p108
aS'w-2=Union'
p109
aS'w-2=a'
p110
aS'w-2=agreement'
p111
aS'w-2=and'
p112
aS'w-2=assume'
p113
aS'w-2=become'
p114
aS'w-2=bloc'
p115
aS'w-2=commander'
p116
aS'w-2=hold'
p117
aS'w-2=lever'
p118
aS'w-2=of'
p119
aS'w-2=over'
p120
aS'w-2=rival'
p121
aS'w-2=so'
p122
aS'w-2=station'
p123
aS'w-2=takesover'
p124
aS'w-2=the'
p125
aS'w-2=which'
p126
asS'dtype'
p127
cnumpy
float64
p128
sS'vocabulary_'
p129
(dp130
g9
I0
sg78
I69
sg86
I77
sg91
I82
sg38
I29
sg101
I92
sg46
I37
sg122
I113
sg118
I109
sg114
I105
sg58
I49
sg74
I65
sg117
I108
sg28
I19
sg94
I85
sg51
I42
sg80
I71
sg26
I17
sg119
I110
sg115
I106
sg70
I61
sg126
I117
sg76
I67
sg65
I56
sg112
I103
sg83
I74
sg15
I6
sg13
I4
sg121
I112
sg113
I104
sg61
I52
sg34
I25
sg116
I107
sg39
I30
sg40
I31
sg123
I114
sg104
I95
sg108
I99
sg105
I96
sg48
I39
sg89
I80
sg77
I68
sg125
I116
sg107
I98
sg43
I34
sg24
I15
sg56
I47
sg30
I21
sg44
I35
sg52
I43
sg81
I72
sg68
I59
sg110
I101
sg53
I44
sg87
I78
sg96
I87
sg16
I7
sg21
I12
sg106
I97
sg98
I89
sg54
I45
sg84
I75
sg73
I64
sg93
I84
sg111
I102
sg63
I54
sg47
I38
sg11
I2
sg67
I58
sg82
I73
sg64
I55
sg69
I60
sg97
I88
sg66
I57
sg42
I33
sg36
I27
sg102
I93
sg10
I1
sg120
I111
sg20
I11
sg62
I53
sg90
I81
sg37
I28
sg17
I8
sg27
I18
sg50
I41
sg45
I36
sg49
I40
sg22
I13
sg19
I10
sg79
I70
sg31
I22
sg41
I32
sg14
I5
sg18
I9
sg103
I94
sg33
I24
sg75
I66
sg60
I51
sg59
I50
sg71
I62
sg55
I46
sg57
I48
sg92
I83
sg25
I16
sg95
I86
sg88
I79
sg109
I100
sg29
I20
sg124
I115
sg72
I63
sg35
I26
sg23
I14
sg85
I76
sg100
I91
sg99
I90
sg32
I23
sg12
I3
ssS'separator'
p131
S'='
sS'sparse'
p132
I01
sb.