ccopy_reg
_reconstructor
p1
(csklearn.feature_extraction.dict_vectorizer
DictVectorizer
p2
c__builtin__
object
p3
NtRp4
(dp5
S'sort'
p6
I01
sS'feature_names_'
p7
(lp8
S'advmod=still'
p9
aS'aux=be'
p10
aS'nsubj=pace'
p11
aS'prep=at'
p12
aS'w+1=,'
p13
aS'w+1=at'
p14
aS'w+2=Sea'
p15
aS'w+2=which'
p16
aS'w-1=pace'
p17
aS'w-1=still'
p18
aS'w-2=be'
p19
aS'w-2=the'
p20
asS'dtype'
p21
cnumpy
float64
p22
sS'vocabulary_'
p23
(dp24
g11
I2
sg19
I10
sg9
I0
sg14
I5
sg15
I6
sg13
I4
sg17
I8
sg10
I1
sg16
I7
sg12
I3
sg18
I9
sg20
I11
ssS'separator'
p25
S'='
sS'sparse'
p26
I01
sb.