ccopy_reg
_reconstructor
p1
(csklearn.feature_extraction.dict_vectorizer
DictVectorizer
p2
c__builtin__
object
p3
NtRp4
(dp5
S'sort'
p6
I01
sS'feature_names_'
p7
(lp8
S'advcl=be'
p9
aS'advmod=also'
p10
aS'advmod=on'
p11
aS'amod=fancy'
p12
aS'amod=ongoing'
p13
aS'amod=potential'
p14
aS'amod=technological'
p15
aS'aux=be'
p16
aS'aux=do'
p17
aS'aux=have'
p18
aS'aux=must'
p19
aS'aux=to'
p20
aS'auxpass=be'
p21
aS'cc=and'
p22
aS'cc=but'
p23
aS'conj=be'
p24
aS'conj=build'
p25
aS'conj=provide'
p26
aS'dep=relationship'
p27
aS'det=a'
p28
aS'det=the'
p29
aS'dobj=access'
p30
aS'dobj=airport'
p31
aS'dobj=clinic'
p32
aS'dobj=defens'
p33
aS'dobj=facility'
p34
aS'dobj=force'
p35
aS'dobj=infrastructure'
p36
aS'dobj=level'
p37
aS'dobj=network'
p38
aS'dobj=organization'
p39
aS'dobj=port'
p40
aS'dobj=quality'
p41
aS'dobj=rating'
p42
aS'dobj=skill'
p43
aS'dobj=system'
p44
aS'mark=if'
p45
aS'neg=not'
p46
aS'nn=defense'
p47
aS'nn=infrastructure'
p48
aS'nn=room'
p49
aS'nn=security'
p50
aS'nsubj=Congo'
p51
aS'nsubj=city'
p52
aS'nsubj=country'
p53
aS'nsubjpass=airport'
p54
aS'nsubjpass=dam'
p55
aS'nsubjpass=infrastructure'
p56
aS'nsubjpass=military'
p57
aS'prep=around'
p58
aS'prep=for'
p59
aS'prep=in'
p60
aS'prep=include'
p61
aS'prep=of'
p62
aS'prep=to'
p63
aS"w+1=''"
p64
aS'w+1=,'
p65
aS'w+1=.'
p66
aS'w+1=Britain'
p67
aS'w+1=Darfur'
p68
aS'w+1=Nigeria'
p69
aS'w+1=and'
p70
aS'w+1=could'
p71
aS'w+1=diplomatic'
p72
aS'w+1=for'
p73
aS'w+1=force'
p74
aS'w+1=if'
p75
aS'w+1=internet'
p76
aS'w+1=its'
p77
aS'w+1=local'
p78
aS'w+1=medical'
p79
aS'w+1=mining'
p80
aS'w+1=missile'
p81
aS'w+1=nuclear'
p82
aS'w+1=of'
p83
aS'w+1=road'
p84
aS'w+1=social'
p85
aS'w+1=the'
p86
aS'w+1=they'
p87
aS'w+1=to'
p88
aS'w+1=transportation'
p89
aS'w+1=you'
p90
aS"w+2=''"
p91
aS"w+2='s"
p92
aS'w+2=America'
p93
aS'w+2=Britain'
p94
aS'w+2=North'
p95
aS'w+2=Poland'
p96
aS'w+2=U.S.'
p97
aS'w+2=access'
p98
aS'w+2=air'
p99
aS'w+2=airport'
p100
aS'w+2=and'
p101
aS'w+2=clinic'
p102
aS'w+2=cost'
p103
aS'w+2=country'
p104
aS'w+2=defense'
p105
aS'w+2=exist'
p106
aS'w+2=five'
p107
aS'w+2=force'
p108
aS'w+2=infrastructure'
p109
aS'w+2=level'
p110
aS'w+2=loyal'
p111
aS'w+2=match'
p112
aS'w+2=missile'
p113
aS'w+2=network'
p114
aS'w+2=old'
p115
aS'w+2=plan'
p116
aS'w+2=port'
p117
aS'w+2=quality'
p118
aS'w+2=sanitation'
p119
aS'w+2=security'
p120
aS'w+2=service'
p121
aS'w+2=skill'
p122
aS'w+2=soldier'
p123
aS'w+2=spend'
p124
aS'w+2=they'
p125
aS'w+2=this'
p126
aS'w+2=tie'
p127
aS"w-1=''"
p128
aS'w-1=,'
p129
aS'w-1=a'
p130
aS'w-1=against'
p131
aS'w-1=and'
p132
aS'w-1=be'
p133
aS'w-1=behind'
p134
aS'w-1=by'
p135
aS'w-1=consider'
p136
aS'w-1=defense'
p137
aS'w-1=despite'
p138
aS'w-1=fancy'
p139
aS'w-1=help'
p140
aS'w-1=in'
p141
aS'w-1=infrastructure'
p142
aS'w-1=military'
p143
aS'w-1=not'
p144
aS'w-1=of'
p145
aS'w-1=ongoing'
p146
aS'w-1=or'
p147
aS'w-1=potential'
p148
aS'w-1=room'
p149
aS'w-1=say'
p150
aS'w-1=security'
p151
aS'w-1=technological'
p152
aS'w-1=the'
p153
aS'w-1=to'
p154
aS'w-1=visit'
p155
aS'w-2=,'
p156
aS'w-2=Congo'
p157
aS'w-2=Dayton'
p158
aS'w-2=a'
p159
aS'w-2=air'
p160
aS'w-2=also'
p161
aS'w-2=and'
p162
aS'w-2=around'
p163
aS'w-2=be'
p164
aS'w-2=billion'
p165
aS'w-2=building'
p166
aS'w-2=can'
p167
aS'w-2=city'
p168
aS'w-2=company'
p169
aS'w-2=contend'
p170
aS'w-2=decide'
p171
aS'w-2=deploy'
p172
aS'w-2=do'
p173
aS'w-2=dollar'
p174
aS'w-2=expert'
p175
aS'w-2=for'
p176
aS'w-2=form'
p177
aS'w-2=have'
p178
aS'w-2=help'
p179
aS'w-2=hotel'
p180
aS'w-2=invest'
p181
aS'w-2=must'
p182
aS'w-2=not'
p183
aS'w-2=of'
p184
aS'w-2=on'
p185
aS'w-2=poverty'
p186
aS'w-2=promise'
p187
aS'w-2=relief'
p188
aS'w-2=russian'
p189
aS'w-2=the'
p190
aS'w-2=those'
p191
aS'w-2=to'
p192
aS'w-2=well'
p193
aS'w-2=will'
p194
aS'xcomp=exist'
p195
aS'xcomp=loyal'
p196
aS'xcomp=match'
p197
aS'xcomp=reflect'
p198
asS'dtype'
p199
cnumpy
float64
p200
sS'vocabulary_'
p201
(dp202
g123
I114
sg165
I156
sg80
I71
sg145
I136
sg197
I188
sg65
I56
sg47
I38
sg78
I69
sg14
I5
sg136
I127
sg44
I35
sg40
I31
sg29
I20
sg189
I180
sg95
I86
sg111
I102
sg54
I45
sg61
I52
sg147
I138
sg72
I63
sg119
I110
sg126
I117
sg112
I103
sg184
I175
sg12
I3
sg115
I106
sg185
I176
sg154
I145
sg172
I163
sg192
I183
sg101
I92
sg162
I153
sg129
I120
sg175
I166
sg155
I146
sg41
I32
sg173
I164
sg93
I84
sg170
I161
sg150
I141
sg90
I81
sg196
I187
sg34
I25
sg38
I29
sg37
I28
sg143
I134
sg50
I41
sg161
I152
sg110
I101
sg174
I165
sg56
I47
sg33
I24
sg73
I64
sg177
I168
sg194
I185
sg131
I122
sg156
I147
sg132
I123
sg68
I59
sg108
I99
sg48
I39
sg49
I40
sg18
I9
sg135
I126
sg133
I124
sg35
I26
sg25
I16
sg183
I174
sg190
I181
sg42
I33
sg39
I30
sg36
I27
sg32
I23
sg160
I151
sg139
I130
sg15
I6
sg149
I140
sg157
I148
sg118
I109
sg151
I142
sg74
I65
sg127
I118
sg71
I62
sg104
I95
sg83
I74
sg67
I58
sg198
I189
sg122
I113
sg159
I150
sg59
I50
sg28
I19
sg17
I8
sg130
I121
sg96
I87
sg102
I93
sg52
I43
sg91
I82
sg53
I44
sg69
I60
sg120
I111
sg10
I1
sg180
I171
sg51
I42
sg181
I172
sg168
I159
sg21
I12
sg58
I49
sg82
I73
sg125
I116
sg27
I18
sg134
I125
sg178
I169
sg22
I13
sg144
I135
sg9
I0
sg138
I129
sg86
I77
sg11
I2
sg164
I155
sg176
I167
sg182
I173
sg23
I14
sg87
I78
sg137
I128
sg103
I94
sg142
I133
sg116
I107
sg188
I179
sg75
I66
sg60
I51
sg79
I70
sg89
I80
sg77
I68
sg146
I137
sg97
I88
sg109
I100
sg128
I119
sg98
I89
sg117
I108
sg179
I170
sg191
I182
sg76
I67
sg64
I55
sg187
I178
sg63
I54
sg99
I90
sg100
I91
sg20
I11
sg171
I162
sg85
I76
sg195
I186
sg140
I131
sg70
I61
sg30
I21
sg169
I160
sg55
I46
sg66
I57
sg43
I34
sg167
I158
sg57
I48
sg88
I79
sg163
I154
sg46
I37
sg26
I17
sg19
I10
sg114
I105
sg166
I157
sg105
I96
sg186
I177
sg92
I83
sg141
I132
sg121
I112
sg81
I72
sg148
I139
sg124
I115
sg152
I143
sg62
I53
sg24
I15
sg31
I22
sg106
I97
sg153
I144
sg113
I104
sg16
I7
sg158
I149
sg45
I36
sg193
I184
sg13
I4
sg107
I98
sg84
I75
sg94
I85
ssS'separator'
p203
S'='
sS'sparse'
p204
I01
sb.