ccopy_reg
_reconstructor
p1
(csklearn.feature_extraction.dict_vectorizer
DictVectorizer
p2
c__builtin__
object
p3
NtRp4
(dp5
S'sort'
p6
I01
sS'feature_names_'
p7
(lp8
S'acomp=better'
p9
aS'advcl=be'
p10
aS'advcl=cheat'
p11
aS'advcl=stand'
p12
aS'advmod=along'
p13
aS'advmod=around'
p14
aS'advmod=back'
p15
aS'advmod=deeply'
p16
aS'advmod=easily'
p17
aS'advmod=freely'
p18
aS'advmod=gettinga'
p19
aS'advmod=hardly'
p20
aS'advmod=here'
p21
aS'advmod=just'
p22
aS'advmod=nearby'
p23
aS'advmod=next'
p24
aS'advmod=now'
p25
aS'advmod=out'
p26
aS'advmod=outside'
p27
aS'advmod=rarely'
p28
aS'advmod=soundly'
p29
aS'advmod=there'
p30
aS'advmod=well'
p31
aS'advmod=when'
p32
aS'advmod=where'
p33
aS'amod=better'
p34
aS'amod=deep'
p35
aS'amod=gentle'
p36
aS'amod=little'
p37
aS'aux=be'
p38
aS'aux=can'
p39
aS'aux=could'
p40
aS'aux=do'
p41
aS'aux=have'
p42
aS'aux=to'
p43
aS'aux=will'
p44
aS'cc=and'
p45
aS'cc=but'
p46
aS'cc=or'
p47
aS'ccomp=cause'
p48
aS'ccomp=linger'
p49
aS'complm=that'
p50
aS'conj=concentrate'
p51
aS'conj=die'
p52
aS'conj=food'
p53
aS'conj=mood'
p54
aS'conj=sleep'
p55
aS'conj=so'
p56
aS'conj=survive'
p57
aS'conj=work'
p58
aS'cop=be'
p59
aS'dep=nowhere'
p60
aS'dep=on'
p61
aS'dep=with'
p62
aS'det=a'
p63
aS'det=some'
p64
aS'dobj=baby'
p65
aS'dobj=beauty'
p66
aS'dobj=deprivation'
p67
aS'dobj=family'
p68
aS'dobj=more'
p69
aS'dobj=outside'
p70
aS'dobj=pill'
p71
aS'dobj=sickness'
p72
aS'dobj=work'
p73
aS'mark=as'
p74
aS'mark=so'
p75
aS'mark=while'
p76
aS'neg=never'
p77
aS'neg=not'
p78
aS'nn=age'
p79
aS'nsubj=#NUMBER#'
p80
aS'nsubj=#PRP#'
p81
aS'nsubj=Deena'
p82
aS'nsubj=Iskandar'
p83
aS'nsubj=baby'
p84
aS'nsubj=child'
p85
aS'nsubj=crew'
p86
aS'nsubj=dozen'
p87
aS'nsubj=man'
p88
aS'nsubj=people'
p89
aS'nsubj=soldier'
p90
aS'nsubj=that'
p91
aS'nsubj=trader'
p92
aS'nsubj=who'
p93
aS'num=#NUMBER#'
p94
aS'poss=#PRP#'
p95
aS'poss=baby'
p96
aS'poss=boy'
p97
aS'poss=night'
p98
aS'prep=after'
p99
aS'prep=at'
p100
aS'prep=before'
p101
aS'prep=beside'
p102
aS'prep=by'
p103
aS'prep=despite'
p104
aS'prep=during'
p105
aS'prep=for'
p106
aS'prep=in'
p107
aS'prep=on'
p108
aS'prep=to'
p109
aS'prep=under'
p110
aS'prep=with'
p111
aS'prep=without'
p112
aS'prt=out'
p113
aS'tmod=evening'
p114
aS'tmod=night'
p115
aS'w+1=,'
p116
aS'w+1=.'
p117
aS'w+1=?'
p118
aS'w+1=Friday'
p119
aS'w+1=a'
p120
aS'w+1=after'
p121
aS'w+1=along'
p122
aS'w+1=and'
p123
aS'w+1=apnea'
p124
aS'w+1=area'
p125
aS'w+1=around'
p126
aS'w+1=at'
p127
aS'w+1=baby'
p128
aS'w+1=beauty'
p129
aS'w+1=because'
p130
aS'w+1=beside'
p131
aS'w+1=center'
p132
aS'w+1=deprivation'
p133
aS'w+1=disorder'
p134
aS'w+1=each'
p135
aS'w+1=easily'
p136
aS'w+1=for'
p137
aS'w+1=freely'
p138
aS'w+1=health'
p139
aS'w+1=here'
p140
aS'w+1=in'
p141
aS'w+1=increase'
p142
aS'w+1=just'
p143
aS'w+1=laboratory'
p144
aS'w+1=mat'
p145
aS'w+1=more'
p146
aS'w+1=most'
p147
aS'w+1=much'
p148
aS'w+1=next'
p149
aS'w+1=now'
p150
aS'w+1=on'
p151
aS'w+1=or'
p152
aS'w+1=out'
p153
aS'w+1=outside'
p154
aS'w+1=pill'
p155
aS'w+1=problem'
p156
aS'w+1=sickness'
p157
aS'w+1=soundly'
p158
aS'w+1=stage'
p159
aS'w+1=the'
p160
aS'w+1=there'
p161
aS'w+1=to'
p162
aS'w+1=under'
p163
aS'w+1=we'
p164
aS'w+1=well'
p165
aS'w+1=where'
p166
aS'w+1=with'
p167
aS"w+2=''"
p168
aS'w+2=,'
p169
aS'w+2=-'
p170
aS'w+2=--'
p171
aS'w+2=-rrb-'
p172
aS'w+2=.'
p173
aS'w+2=15'
p174
aS'w+2=192'
p175
aS'w+2=a'
p176
aS'w+2=affect'
p177
aS'w+2=and'
p178
aS'w+2=at'
p179
aS'w+2=bank'
p180
aS'w+2=be'
p181
aS'w+2=bed'
p182
aS'w+2=better'
p183
aS'w+2=bunk'
p184
aS'w+2=can'
p185
aS'w+2=center'
p186
aS'w+2=concentrate'
p187
aS'w+2=coordinator'
p188
aS'w+2=diet'
p189
aS'w+2=dream'
p190
aS'w+2=during'
p191
aS'w+2=evening'
p192
aS'w+2=family'
p193
aS'w+2=five'
p194
aS'w+2=food'
p195
aS'w+2=have'
p196
aS'w+2=he'
p197
aS'w+2=in'
p198
aS'w+2=insecticide-treated'
p199
aS'w+2=its'
p200
aS'w+2=mat'
p201
aS'w+2=may'
p202
aS'w+2=medical'
p203
aS'w+2=most'
p204
aS'w+2=my'
p205
aS'w+2=night'
p206
aS'w+2=nowhere'
p207
aS'w+2=parasite'
p208
aS'w+2=people'
p209
aS'w+2=previous'
p210
aS'w+2=receive'
p211
aS'w+2=so'
p212
aS'w+2=soundly'
p213
aS'w+2=stay'
p214
aS'w+2=suggest'
p215
aS'w+2=the'
p216
aS'w+2=they'
p217
aS'w+2=thin'
p218
aS'w+2=this'
p219
aS'w+2=three'
p220
aS'w+2=to'
p221
aS'w+2=try'
p222
aS'w+2=we'
p223
aS'w+2=with'
p224
aS'w+2=wrap'
p225
aS"w-1=''"
p226
aS"w-1='s"
p227
aS'w-1=,'
p228
aS'w-1=-'
p229
aS'w-1=-lrb-'
p230
aS'w-1=.'
p231
aS'w-1=:'
p232
aS'w-1=Deena'
p233
aS'w-1=I'
p234
aS'w-1=Iskandar'
p235
aS'w-1=a'
p236
aS'w-1=adult'
p237
aS'w-1=african'
p238
aS'w-1=and'
p239
aS'w-1=be'
p240
aS'w-1=body'
p241
aS'w-1=boy'
p242
aS'w-1=by'
p243
aS'w-1=can'
p244
aS'w-1=cause'
p245
aS'w-1=child'
p246
aS'w-1=could'
p247
aS'w-1=deep'
p248
aS'w-1=difficulty'
p249
aS'w-1=disrupt'
p250
aS'w-1=fight'
p251
aS'w-1=find'
p252
aS'w-1=five'
p253
aS'w-1=for'
p254
aS'w-1=gentle'
p255
aS'w-1=hardly'
p256
aS'w-1=have'
p257
aS'w-1=he'
p258
aS'w-1=in'
p259
aS'w-1=just'
p260
aS'w-1=little'
p261
aS'w-1=many'
p262
aS'w-1=never'
p263
aS'w-1=not'
p264
aS'w-1=obstructive'
p265
aS'w-1=of'
p266
aS'w-1=people'
p267
aS'w-1=prescription'
p268
aS'w-1=rarely'
p269
aS'w-1=she'
p270
aS'w-1=soldier'
p271
aS'w-1=some'
p272
aS'w-1=soundly'
p273
aS'w-1=such'
p274
aS'w-1=the'
p275
aS'w-1=they'
p276
aS'w-1=to'
p277
aS'w-1=trader'
p278
aS'w-1=trouble'
p279
aS'w-1=two'
p280
aS'w-1=week'
p281
aS'w-1=who'
p282
aS'w-1=will'
p283
aS'w-1=with'
p284
aS'w-2=,'
p285
aS'w-2=.'
p286
aS'w-2=I'
p287
aS'w-2=Nile'
p288
aS'w-2=Timmy'
p289
aS'w-2=White'
p290
aS'w-2=a'
p291
aS'w-2=about'
p292
aS'w-2=age'
p293
aS'w-2=and'
p294
aS'w-2=antibiotic'
p295
aS'w-2=as'
p296
aS'w-2=baby'
p297
aS'w-2=back'
p298
aS'w-2=be'
p299
aS'w-2=bed'
p300
aS'w-2=begin'
p301
aS'w-2=blanket'
p302
aS'w-2=boy'
p303
aS'w-2=but'
p304
aS'w-2=camp'
p305
aS'w-2=can'
p306
aS'w-2=child'
p307
aS'w-2=constantly'
p308
aS'w-2=could'
p309
aS'w-2=cover'
p310
aS'w-2=crew'
p311
aS'w-2=day'
p312
aS'w-2=death'
p313
aS'w-2=decide'
p314
aS'w-2=do'
p315
aS'w-2=during'
p316
aS'w-2=eat'
p317
aS'w-2=fly'
p318
aS'w-2=food'
p319
aS'w-2=force'
p320
aS'w-2=get'
p321
aS'w-2=go'
p322
aS'w-2=have'
p323
aS'w-2=he'
p324
aS'w-2=here'
p325
aS'w-2=home'
p326
aS'w-2=in'
p327
aS'w-2=infected'
p328
aS'w-2=it'
p329
aS'w-2=kid'
p330
aS'w-2=lack'
p331
aS'w-2=like'
p332
aS'w-2=man'
p333
aS'w-2=medicine'
p334
aS'w-2=mile'
p335
aS'w-2=mother'
p336
aS'w-2=night'
p337
aS'w-2=not'
p338
aS'w-2=nowhere'
p339
aS'w-2=of'
p340
aS'w-2=overdose'
p341
aS'w-2=permit'
p342
aS'w-2=place'
p343
aS'w-2=prepared'
p344
aS'w-2=regret'
p345
aS'w-2=risk'
p346
aS'w-2=shuttle'
p347
aS'w-2=so'
p348
aS'w-2=stage'
p349
aS'w-2=subject'
p350
aS'w-2=target'
p351
aS'w-2=that'
p352
aS'w-2=the'
p353
aS'w-2=they'
p354
aS'w-2=think'
p355
aS'w-2=to'
p356
aS'w-2=treatment'
p357
aS'w-2=trypanosomiasis'
p358
aS'w-2=tuberculosis'
p359
aS'w-2=unable'
p360
aS'w-2=use'
p361
aS'w-2=we'
p362
aS'w-2=where'
p363
aS'w-2=while'
p364
aS'w-2=winter'
p365
aS'w-2=with'
p366
aS'w-2=you'
p367
aS'xcomp=receive'
p368
asS'dtype'
p369
cnumpy
float64
p370
sS'vocabulary_'
p371
(dp372
g101
I92
sg86
I77
sg289
I280
sg232
I223
sg349
I340
sg113
I104
sg362
I353
sg154
I145
sg191
I182
sg205
I196
sg85
I76
sg31
I22
sg251
I242
sg126
I117
sg16
I7
sg129
I120
sg174
I165
sg269
I260
sg103
I94
sg238
I229
sg248
I239
sg319
I310
sg244
I235
sg225
I216
sg49
I40
sg177
I168
sg29
I20
sg22
I13
sg365
I356
sg283
I274
sg206
I197
sg243
I234
sg240
I231
sg158
I149
sg353
I344
sg363
I354
sg336
I327
sg81
I72
sg346
I337
sg143
I134
sg221
I212
sg151
I142
sg314
I305
sg152
I143
sg326
I317
sg34
I25
sg255
I246
sg257
I248
sg198
I189
sg213
I204
sg247
I238
sg39
I30
sg50
I41
sg303
I294
sg61
I52
sg150
I141
sg10
I1
sg352
I343
sg160
I151
sg172
I163
sg147
I138
sg181
I172
sg131
I122
sg107
I98
sg156
I147
sg137
I128
sg60
I51
sg66
I57
sg36
I27
sg109
I100
sg83
I74
sg123
I114
sg73
I64
sg69
I60
sg297
I288
sg292
I283
sg91
I82
sg274
I265
sg21
I12
sg360
I351
sg219
I210
sg259
I250
sg223
I214
sg357
I348
sg114
I105
sg71
I62
sg28
I19
sg33
I24
sg207
I198
sg354
I345
sg210
I201
sg184
I175
sg262
I253
sg192
I183
sg288
I279
sg53
I44
sg230
I221
sg179
I170
sg347
I338
sg361
I352
sg155
I146
sg293
I284
sg93
I84
sg340
I331
sg199
I190
sg277
I268
sg317
I308
sg12
I3
sg280
I271
sg358
I349
sg315
I306
sg9
I0
sg51
I42
sg298
I289
sg98
I89
sg90
I81
sg79
I70
sg215
I206
sg185
I176
sg127
I118
sg171
I162
sg212
I203
sg337
I328
sg252
I243
sg300
I291
sg64
I55
sg284
I275
sg220
I211
sg166
I157
sg17
I8
sg32
I23
sg256
I247
sg106
I97
sg13
I4
sg302
I293
sg164
I155
sg351
I342
sg119
I110
sg19
I10
sg104
I95
sg173
I164
sg227
I218
sg96
I87
sg359
I350
sg67
I58
sg18
I9
sg149
I140
sg84
I75
sg161
I152
sg80
I71
sg54
I45
sg305
I296
sg163
I154
sg224
I215
sg203
I194
sg56
I47
sg148
I139
sg97
I88
sg226
I217
sg275
I266
sg339
I330
sg115
I106
sg267
I258
sg62
I53
sg342
I333
sg290
I281
sg162
I153
sg133
I124
sg310
I301
sg197
I188
sg235
I226
sg214
I205
sg112
I103
sg194
I185
sg138
I129
sg313
I304
sg270
I261
sg263
I254
sg182
I173
sg201
I192
sg24
I15
sg202
I193
sg183
I174
sg322
I313
sg130
I121
sg209
I200
sg325
I316
sg218
I209
sg37
I28
sg307
I298
sg30
I21
sg70
I61
sg250
I241
sg76
I67
sg195
I186
sg189
I180
sg41
I32
sg366
I357
sg44
I35
sg89
I80
sg111
I102
sg47
I38
sg180
I171
sg278
I269
sg165
I156
sg268
I259
sg200
I191
sg211
I202
sg125
I116
sg327
I318
sg190
I181
sg312
I303
sg329
I320
sg345
I336
sg20
I11
sg271
I262
sg102
I93
sg344
I335
sg94
I85
sg335
I326
sg253
I244
sg82
I73
sg168
I159
sg242
I233
sg368
I359
sg128
I119
sg52
I43
sg142
I133
sg58
I49
sg92
I83
sg323
I314
sg45
I36
sg110
I101
sg295
I286
sg260
I251
sg281
I272
sg140
I131
sg343
I334
sg141
I132
sg279
I270
sg139
I130
sg334
I325
sg193
I184
sg46
I37
sg95
I86
sg124
I115
sg40
I31
sg68
I59
sg122
I113
sg301
I292
sg15
I6
sg272
I263
sg332
I323
sg330
I321
sg249
I240
sg299
I290
sg222
I213
sg108
I99
sg88
I79
sg309
I300
sg11
I2
sg273
I264
sg204
I195
sg282
I273
sg321
I312
sg246
I237
sg266
I257
sg356
I347
sg178
I169
sg294
I285
sg78
I69
sg59
I50
sg324
I315
sg237
I228
sg146
I137
sg167
I158
sg188
I179
sg25
I16
sg27
I18
sg216
I207
sg100
I91
sg48
I39
sg14
I5
sg318
I309
sg159
I150
sg285
I276
sg286
I277
sg239
I230
sg42
I33
sg304
I295
sg355
I346
sg35
I26
sg231
I222
sg229
I220
sg228
I219
sg338
I329
sg364
I355
sg287
I278
sg208
I199
sg57
I48
sg296
I287
sg333
I324
sg136
I127
sg350
I341
sg234
I225
sg328
I319
sg175
I166
sg291
I282
sg276
I267
sg63
I54
sg236
I227
sg72
I63
sg348
I339
sg74
I65
sg258
I249
sg135
I126
sg261
I252
sg77
I68
sg265
I256
sg341
I332
sg217
I208
sg99
I90
sg132
I123
sg196
I187
sg134
I125
sg316
I307
sg308
I299
sg87
I78
sg245
I236
sg55
I46
sg145
I136
sg233
I224
sg331
I322
sg241
I232
sg26
I17
sg23
I14
sg121
I112
sg43
I34
sg367
I358
sg65
I56
sg157
I148
sg320
I311
sg254
I245
sg116
I107
sg117
I108
sg306
I297
sg169
I160
sg170
I161
sg311
I302
sg75
I66
sg118
I109
sg187
I178
sg105
I96
sg153
I144
sg186
I177
sg120
I111
sg264
I255
sg144
I135
sg38
I29
sg176
I167
ssS'separator'
p373
S'='
sS'sparse'
p374
I01
sb.