ccopy_reg
_reconstructor
p1
(csklearn.feature_extraction.dict_vectorizer
DictVectorizer
p2
c__builtin__
object
p3
NtRp4
(dp5
S'sort'
p6
I01
sS'feature_names_'
p7
(lp8
S'acomp=live'
p9
aS'advcl=abducted'
p10
aS'advcl=be'
p11
aS'advcl=control'
p12
aS'advcl=meet'
p13
aS'advcl=related'
p14
aS'advmod=abroad'
p15
aS'advmod=along'
p16
aS'advmod=also'
p17
aS'advmod=earlier'
p18
aS'advmod=entirely'
p19
aS'advmod=exclusively'
p20
aS'advmod=more'
p21
aS'advmod=nationally'
p22
aS'advmod=nationwide'
p23
aS'advmod=regularly'
p24
aS'advmod=specifically'
p25
aS'advmod=twice'
p26
aS'advmod=worldwide'
p27
aS'amod=anti-kikuyu'
p28
aS'amod=audio'
p29
aS'amod=ban'
p30
aS'amod=cuban'
p31
aS'amod=democratic'
p32
aS'amod=domestic'
p33
aS'amod=face-to-face'
p34
aS'amod=first'
p35
aS'amod=foreign'
p36
aS'amod=hour-long'
p37
aS'amod=illegal'
p38
aS'amod=inaugural'
p39
aS'amod=increase'
p40
aS'amod=independent'
p41
aS'amod=international'
p42
aS'amod=kurdish'
p43
aS'amod=live'
p44
aS'amod=long-distance'
p45
aS'amod=national'
p46
aS'amod=real'
p47
aS'amod=restricted'
p48
aS'amod=special'
p49
aS'amod=year-round'
p50
aS'appos=revenue'
p51
aS'aux=be'
p52
aS'aux=can'
p53
aS'aux=do'
p54
aS'aux=have'
p55
aS'aux=should'
p56
aS'aux=to'
p57
aS'aux=will'
p58
aS'auxpass=be'
p59
aS'cc=and'
p60
aS'cc=but'
p61
aS'cc=nor'
p62
aS'cc=or'
p63
aS'ccomp=fall'
p64
aS'ccomp=occupy'
p65
aS'complm=that'
p66
aS'conj=Portuguese'
p67
aS'conj=cable'
p68
aS'conj=photography'
p69
aS'conj=promote'
p70
aS'conj=release'
p71
aS'conj=service'
p72
aS'conj=several'
p73
aS'conj=to'
p74
aS'conj=urge'
p75
aS'dep=Kaka'
p76
aS'dep=claim'
p77
aS'dep=live'
p78
aS'dep=use'
p79
aS'det=a'
p80
aS'det=all'
p81
aS'det=no'
p82
aS'det=the'
p83
aS'dobj=#NUMBER#'
p84
aS'dobj=call'
p85
aS'dobj=channel'
p86
aS'dobj=comment'
p87
aS'dobj=debate'
p88
aS'dobj=event'
p89
aS'dobj=footage'
p90
aS'dobj=hour'
p91
aS'dobj=image'
p92
aS'dobj=interview'
p93
aS'dobj=message'
p94
aS'dobj=name'
p95
aS'dobj=news'
p96
aS'dobj=opinion'
p97
aS'dobj=picture'
p98
aS'dobj=program'
p99
aS'dobj=propaganda'
p100
aS'dobj=recording'
p101
aS'dobj=report'
p102
aS'dobj=show'
p103
aS'dobj=song'
p104
aS'dobj=special'
p105
aS'dobj=statement'
p106
aS'dobj=station'
p107
aS'dobj=update'
p108
aS'dobj=video'
p109
aS'dobj=view'
p110
aS'mark=after'
p111
aS'mark=as'
p112
aS'mark=with'
p113
aS'neg=not'
p114
aS'nn=America'
p115
aS'nn=CBS'
p116
aS'nn=Easter'
p117
aS'nn=International'
p118
aS'nn=Israel'
p119
aS'nn=Service'
p120
aS'nn=address'
p121
aS'nn=briefing'
p122
aS'nn=conference'
p123
aS'nn=debate'
p124
aS'nn=government'
p125
aS'nn=hd'
p126
aS'nn=interview'
p127
aS'nn=jazz'
p128
aS'nn=language'
p129
aS'nn=media'
p130
aS'nn=meeting'
p131
aS'nn=morning'
p132
aS'nn=music'
p133
aS'nn=news'
p134
aS'nn=operating'
p135
aS'nn=power'
p136
aS'nn=radio'
p137
aS'nn=shortwave'
p138
aS'nn=speech'
p139
aS'nn=station'
p140
aS'nn=tape'
p141
aS'nn=television'
p142
aS'nn=tv'
p143
aS'nsubj=#PRP#'
p144
aS'nsubj=FM'
p145
aS'nsubj=Pikonane'
p146
aS'nsubj=briefing'
p147
aS'nsubj=camera'
p148
aS'nsubj=channel'
p149
aS'nsubj=media'
p150
aS'nsubj=mosque'
p151
aS'nsubj=network'
p152
aS'nsubj=night'
p153
aS'nsubj=organization'
p154
aS'nsubj=radio'
p155
aS'nsubj=station'
p156
aS'nsubj=television'
p157
aS'nsubj=that'
p158
aS'nsubj=way'
p159
aS'nsubj=which'
p160
aS'nsubjpass=Bowl'
p161
aS'nsubjpass=appeal'
p162
aS'nsubjpass=championship'
p163
aS'nsubjpass=comment'
p164
aS'nsubjpass=commercial'
p165
aS'nsubjpass=competition'
p166
aS'nsubjpass=event'
p167
aS'nsubjpass=film'
p168
aS'nsubjpass=forecast'
p169
aS'nsubjpass=inauguration'
p170
aS'nsubjpass=meeting'
p171
aS'nsubjpass=message'
p172
aS'nsubjpass=news'
p173
aS'nsubjpass=photograph'
p174
aS'nsubjpass=program'
p175
aS'nsubjpass=result'
p176
aS'nsubjpass=ruling'
p177
aS'nsubjpass=speech'
p178
aS'nsubjpass=tape'
p179
aS'nsubjpass=that'
p180
aS'nsubjpass=which'
p181
aS'num=#NUMBER#'
p182
aS'partmod=call'
p183
aS'partmod=show'
p184
aS'partmod=start'
p185
aS'partmod=take'
p186
aS'poss=#DATE#'
p187
aS'poss=#PRP#'
p188
aS'poss=day'
p189
aS'poss=journalist'
p190
aS'poss=station'
p191
aS"possessive='s"
p192
aS'prep=Face'
p193
aS'prep=about'
p194
aS'prep=amid'
p195
aS'prep=around'
p196
aS'prep=at'
p197
aS'prep=by'
p198
aS'prep=for'
p199
aS'prep=from'
p200
aS'prep=in'
p201
aS'prep=include'
p202
aS'prep=of'
p203
aS'prep=on'
p204
aS'prep=over'
p205
aS'prep=past'
p206
aS'prep=through'
p207
aS'prep=to'
p208
aS'prep=with'
p209
aS'prep=within'
p210
aS'prep=without'
p211
aS'purpcl=make'
p212
aS'purpcl=mark'
p213
aS'rcmod=annoy'
p214
aS'rcmod=do'
p215
aS'rcmod=incite'
p216
aS'rcmod=live'
p217
aS'rcmod=might'
p218
aS'tmod=#DATE#'
p219
aS'tmod=day'
p220
aS'tmod=morning'
p221
aS'tmod=week'
p222
aS'w+1=,'
p223
aS'w+1=.'
p224
aS'w+1=Face'
p225
aS'w+1=Monday'
p226
aS'w+1=Saturday'
p227
aS'w+1=Sunday'
p228
aS'w+1=Thursday'
p229
aS'w+1=World'
p230
aS'w+1=a'
p231
aS'w+1=about'
p232
aS'w+1=abroad'
p233
aS'w+1=address'
p234
aS'w+1=airway'
p235
aS'w+1=and'
p236
aS'w+1=any'
p237
aS'w+1=as'
p238
aS'w+1=at'
p239
aS'w+1=be'
p240
aS'w+1=board'
p241
aS'w+1=both'
p242
aS'w+1=by'
p243
aS'w+1=call'
p244
aS'w+1=comment'
p245
aS'w+1=contract'
p246
aS'w+1=coverage'
p247
aS'w+1=credible'
p248
aS'w+1=direct'
p249
aS'w+1=each'
p250
aS'w+1=entertainment'
p251
aS'w+1=entirely'
p252
aS'w+1=exclusively'
p253
aS'w+1=footage'
p254
aS'w+1=for'
p255
aS'w+1=frequent'
p256
aS'w+1=from'
p257
aS'w+1=government'
p258
aS'w+1=grainy'
p259
aS'w+1=have'
p260
aS'w+1=image'
p261
aS'w+1=in'
p262
aS'w+1=include'
p263
aS'w+1=industry'
p264
aS'w+1=interview'
p265
aS'w+1=irresponsible'
p266
aS'w+1=its'
p267
aS'w+1=journalist'
p268
aS'w+1=late'
p269
aS'w+1=licens'
p270
aS'w+1=license'
p271
aS'w+1=live'
p272
aS'w+1=matter'
p273
aS'w+1=media'
p274
aS'w+1=message'
p275
aS'w+1=more'
p276
aS'w+1=music'
p277
aS'w+1=national'
p278
aS'w+1=nationwide'
p279
aS'w+1=need'
p280
aS'w+1=network'
p281
aS'w+1=news'
p282
aS'w+1=non-stop'
p283
aS'w+1=of'
p284
aS'w+1=off'
p285
aS'w+1=on'
p286
aS'w+1=operation'
p287
aS'w+1=opposition'
p288
aS'w+1=or'
p289
aS'w+1=organization'
p290
aS'w+1=outlet'
p291
aS'w+1=program'
p292
aS'w+1=reach'
p293
aS'w+1=remain'
p294
aS'w+1=sermon'
p295
aS'w+1=service'
p296
aS'w+1=song'
p297
aS'w+1=special'
p298
aS'w+1=speech'
p299
aS'w+1=start'
p300
aS'w+1=technology'
p301
aS'w+1=television'
p302
aS'w+1=that'
p303
aS'w+1=the'
p304
aS'w+1=they'
p305
aS'w+1=this'
p306
aS'w+1=through'
p307
aS'w+1=to'
p308
aS'w+1=use'
p309
aS'w+1=without'
p310
aS'w+1=worldwide'
p311
aS"w+2=''"
p312
aS'w+2=,'
p313
aS'w+2=.'
p314
aS'w+2=1938'
p315
aS'w+2=1st'
p316
aS'w+2=ABC'
p317
aS'w+2=Bahasa'
p318
aS'w+2=Brazil'
p319
aS'w+2=Buckingham'
p320
aS'w+2=CNN'
p321
aS'w+2=Cup'
p322
aS'w+2=EuroNews'
p323
aS'w+2=France'
p324
aS'w+2=Friday'
p325
aS'w+2=Holland'
p326
aS'w+2=Israel'
p327
aS'w+2=Kurdish'
p328
aS'w+2=MSNBC'
p329
aS'w+2=Michele'
p330
aS'w+2=Monday'
p331
aS'w+2=Montgomery'
p332
aS'w+2=National'
p333
aS'w+2=Netherlands'
p334
aS'w+2=North'
p335
aS'w+2=President'
p336
aS'w+2=Radio'
p337
aS'w+2=Ramallah'
p338
aS'w+2=Russian'
p339
aS'w+2=Saturday'
p340
aS'w+2=Wednesday'
p341
aS'w+2=a'
p342
aS'w+2=about'
p343
aS'w+2=across'
p344
aS'w+2=advance'
p345
aS'w+2=advocate'
p346
aS'w+2=american'
p347
aS'w+2=and'
p348
aS'w+2=anything'
p349
aS'w+2=around'
p350
aS'w+2=as'
p351
aS'w+2=astronaut'
p352
aS'w+2=be'
p353
aS'w+2=but'
p354
aS'w+2=by'
p355
aS'w+2=cable'
p356
aS'w+2=chinese'
p357
aS'w+2=comment'
p358
aS'w+2=concern'
p359
aS'w+2=conference'
p360
aS'w+2=coverage'
p361
aS'w+2=day'
p362
aS'w+2=debate'
p363
aS'w+2=discourage'
p364
aS'w+2=do'
p365
aS'w+2=economic'
p366
aS'w+2=either'
p367
aS'w+2=especially'
p368
aS'w+2=fee'
p369
aS'w+2=for'
p370
aS'w+2=from'
p371
aS'w+2=go'
p372
aS'w+2=hate'
p373
aS'w+2=hd'
p374
aS'w+2=he'
p375
aS'w+2=hour'
p376
aS'w+2=image'
p377
aS'w+2=in'
p378
aS'w+2=incite'
p379
aS'w+2=include'
p380
aS'w+2=interview'
p381
aS'w+2=it'
p382
aS'w+2=kenyan'
p383
aS'w+2=lead'
p384
aS'w+2=local'
p385
aS'w+2=major'
p386
aS'w+2=midnight'
p387
aS'w+2=might'
p388
aS'w+2=miss'
p389
aS'w+2=morning'
p390
aS'w+2=name'
p391
aS'w+2=national'
p392
aS'w+2=news'
p393
aS'w+2=no'
p394
aS'w+2=of'
p395
aS'w+2=off'
p396
aS'w+2=official'
p397
aS'w+2=old'
p398
aS'w+2=on'
p399
aS'w+2=one'
p400
aS'w+2=online'
p401
aS'w+2=opinion'
p402
aS'w+2=photography'
p403
aS'w+2=picture'
p404
aS'w+2=political'
p405
aS'w+2=provider'
p406
aS'w+2=radio'
p407
aS'w+2=rare'
p408
aS'w+2=record'
p409
aS'w+2=recording'
p410
aS'w+2=report'
p411
aS'w+2=schedule'
p412
aS'w+2=send'
p413
aS'w+2=senegalese'
p414
aS'w+2=shortwave'
p415
aS'w+2=specifically'
p416
aS'w+2=state'
p417
aS'w+2=statement'
p418
aS'w+2=station'
p419
aS'w+2=strictly'
p420
aS'w+2=talk'
p421
aS'w+2=that'
p422
aS'w+2=the'
p423
aS'w+2=theater'
p424
aS'w+2=they'
p425
aS'w+2=through'
p426
aS'w+2=to'
p427
aS'w+2=traditional'
p428
aS'w+2=tribal'
p429
aS'w+2=update'
p430
aS'w+2=various'
p431
aS'w+2=video'
p432
aS'w+2=view'
p433
aS'w+2=warn'
p434
aS'w+2=week'
p435
aS'w+2=will'
p436
aS"w-1='"
p437
aS"w-1=''"
p438
aS"w-1='s"
p439
aS'w-1=,'
p440
aS'w-1=1939'
p441
aS'w-1=America'
p442
aS'w-1=CBS'
p443
aS'w-1=Easter'
p444
aS'w-1=International'
p445
aS'w-1=Israel'
p446
aS'w-1=Service'
p447
aS'w-1=U.S.'
p448
aS'w-1=a'
p449
aS'w-1=address'
p450
aS'w-1=all'
p451
aS'w-1=also'
p452
aS'w-1=american'
p453
aS'w-1=and'
p454
aS'w-1=anti-kikuyu'
p455
aS'w-1=as'
p456
aS'w-1=avoid'
p457
aS'w-1=be'
p458
aS'w-1=begin'
p459
aS'w-1=briefing'
p460
aS'w-1=candidate'
p461
aS'w-1=channel'
p462
aS'w-1=comment'
p463
aS'w-1=conference'
p464
aS'w-1=continue'
p465
aS'w-1=debate'
p466
aS'w-1=disrupt'
p467
aS'w-1=domestic'
p468
aS'w-1=eliminate'
p469
aS'w-1=first'
p470
aS'w-1=for'
p471
aS'w-1=from'
p472
aS'w-1=government'
p473
aS'w-1=government-controlled'
p474
aS'w-1=gypsy'
p475
aS'w-1=haitian'
p476
aS'w-1=have'
p477
aS'w-1=hd'
p478
aS'w-1=he'
p479
aS'w-1=illegal'
p480
aS'w-1=inaugural'
p481
aS'w-1=include'
p482
aS'w-1=increase'
p483
aS'w-1=independent'
p484
aS'w-1=international'
p485
aS'w-1=interview'
p486
aS'w-1=it'
p487
aS'w-1=its'
p488
aS'w-1=jazz'
p489
aS'w-1=language'
p490
aS'w-1=live'
p491
aS'w-1=media'
p492
aS'w-1=meeting'
p493
aS'w-1=morning'
p494
aS'w-1=music'
p495
aS'w-1=nationally'
p496
aS'w-1=network'
p497
aS'w-1=new'
p498
aS'w-1=news'
p499
aS'w-1=no'
p500
aS'w-1=not'
p501
aS'w-1=operating'
p502
aS'w-1=or'
p503
aS'w-1=out'
p504
aS'w-1=power'
p505
aS'w-1=private'
p506
aS'w-1=program'
p507
aS'w-1=radio'
p508
aS'w-1=regularly'
p509
aS'w-1=remark'
p510
aS'w-1=reporter'
p511
aS'w-1=restricted'
p512
aS'w-1=result'
p513
aS'w-1=right'
p514
aS'w-1=say'
p515
aS'w-1=service'
p516
aS'w-1=shortwave'
p517
aS'w-1=speech'
p518
aS'w-1=start'
p519
aS'w-1=station'
p520
aS'w-1=stop'
p521
aS'w-1=suspend'
p522
aS'w-1=tape'
p523
aS'w-1=television'
p524
aS'w-1=that'
p525
aS'w-1=the'
p526
aS'w-1=through'
p527
aS'w-1=to'
p528
aS'w-1=tv'
p529
aS'w-1=twice'
p530
aS'w-1=where'
p531
aS'w-1=which'
p532
aS'w-1=widely'
p533
aS'w-1=will'
p534
aS'w-1=with'
p535
aS'w-1=year-round'
p536
aS"w-2='s"
p537
aS'w-2=,'
p538
aS'w-2=-'
p539
aS'w-2=.'
p540
aS'w-2=ABC'
p541
aS'w-2=Africa'
p542
aS'w-2=Al-Arabiya'
p543
aS'w-2=CPJ'
p544
aS'w-2=English'
p545
aS'w-2=FM'
p546
aS'w-2=France'
p547
aS'w-2=Hour'
p548
aS'w-2=Israel'
p549
aS'w-2=Liberte'
p550
aS'w-2=Mandarin'
p551
aS'w-2=Maulana'
p552
aS'w-2=Persian'
p553
aS'w-2=Pikonane'
p554
aS'w-2=Scotland'
p555
aS'w-2=State'
p556
aS'w-2=Television'
p557
aS'w-2=Thursday'
p558
aS'w-2=U.S.'
p559
aS'w-2=a'
p560
aS'w-2=affect'
p561
aS'w-2=against'
p562
aS'w-2=all'
p563
aS'w-2=and'
p564
aS'w-2=anyone'
p565
aS'w-2=audio'
p566
aS'w-2=award-winning'
p567
aS'w-2=ban'
p568
aS'w-2=be'
p569
aS'w-2=call'
p570
aS'w-2=camera'
p571
aS'w-2=can'
p572
aS'w-2=channel'
p573
aS'w-2=close'
p574
aS'w-2=comment'
p575
aS'w-2=continue'
p576
aS'w-2=day'
p577
aS'w-2=democratic'
p578
aS'w-2=directly'
p579
aS'w-2=do'
p580
aS'w-2=down'
p581
aS'w-2=egyptian'
p582
aS'w-2=even'
p583
aS'w-2=event'
p584
aS'w-2=expert'
p585
aS'w-2=face-to-face'
p586
aS'w-2=film'
p587
aS'w-2=filmmaker'
p588
aS'w-2=fm'
p589
aS'w-2=footage'
p590
aS'w-2=for'
p591
aS'w-2=forecast'
p592
aS'w-2=foreign'
p593
aS'w-2=fund'
p594
aS'w-2=have'
p595
aS'w-2=he'
p596
aS'w-2=hour-long'
p597
aS'w-2=in'
p598
aS'w-2=inauguration'
p599
aS'w-2=independent'
p600
aS'w-2=internet'
p601
aS'w-2=iraqi'
p602
aS'w-2=its'
p603
aS'w-2=jam'
p604
aS'w-2=journalist'
p605
aS'w-2=kurdish'
p606
aS'w-2=language'
p607
aS'w-2=live'
p608
aS'w-2=long-distance'
p609
aS'w-2=make'
p610
aS'w-2=media'
p611
aS'w-2=meeting'
p612
aS'w-2=message'
p613
aS'w-2=mosque'
p614
aS'w-2=most'
p615
aS'w-2=national'
p616
aS'w-2=network'
p617
aS'w-2=news'
p618
aS'w-2=newspaper'
p619
aS'w-2=of'
p620
aS'w-2=offer'
p621
aS'w-2=on'
p622
aS'w-2=operator'
p623
aS'w-2=or'
p624
aS'w-2=order'
p625
aS'w-2=package'
p626
aS'w-2=people'
p627
aS'w-2=platform'
p628
aS'w-2=political'
p629
aS'w-2=print'
p630
aS'w-2=radio'
p631
aS'w-2=recently'
p632
aS'w-2=release'
p633
aS'w-2=renew'
p634
aS'w-2=resource'
p635
aS'w-2=ruling'
p636
aS'w-2=say'
p637
aS'w-2=schedule'
p638
aS'w-2=sea'
p639
aS'w-2=send'
p640
aS'w-2=service'
p641
aS'w-2=should'
p642
aS'w-2=show'
p643
aS'w-2=special'
p644
aS'w-2=state'
p645
aS'w-2=station'
p646
aS'w-2=tape'
p647
aS'w-2=target'
p648
aS'w-2=television'
p649
aS'w-2=temporarily'
p650
aS'w-2=that'
p651
aS'w-2=the'
p652
aS'w-2=they'
p653
aS'w-2=through'
p654
aS'w-2=to'
p655
aS'w-2=tv'
p656
aS'w-2=u.s'
p657
aS'w-2=unofficial'
p658
aS'w-2=use'
p659
aS'w-2=watch'
p660
aS'w-2=which'
p661
aS'w-2=will'
p662
aS'w-2=with'
p663
aS'w-2=world'
p664
aS'w-2=write'
p665
aS'xcomp=air'
p666
aS'xcomp=counteract'
p667
aS'xcomp=destroy'
p668
aS'xcomp=proclaim'
p669
aS'xcomp=wide'
p670
asS'dtype'
p671
cnumpy
float64
p672
sS'vocabulary_'
p673
(dp674
g305
I296
sg369
I360
sg21
I12
sg82
I73
sg43
I34
sg509
I500
sg627
I618
sg141
I132
sg354
I345
sg545
I536
sg371
I362
sg621
I612
sg381
I372
sg557
I548
sg442
I433
sg317
I308
sg81
I72
sg653
I644
sg410
I401
sg198
I189
sg377
I368
sg210
I201
sg303
I294
sg213
I204
sg13
I4
sg268
I259
sg325
I316
sg575
I566
sg515
I506
sg611
I602
sg156
I147
sg498
I489
sg344
I335
sg255
I246
sg62
I53
sg534
I525
sg432
I423
sg173
I164
sg461
I452
sg79
I70
sg458
I449
sg108
I99
sg292
I283
sg553
I544
sg652
I643
sg457
I448
sg520
I511
sg148
I139
sg103
I94
sg415
I406
sg307
I298
sg635
I626
sg441
I432
sg668
I659
sg162
I153
sg284
I275
sg221
I212
sg427
I418
sg286
I277
sg101
I92
sg618
I609
sg349
I340
sg527
I518
sg289
I280
sg488
I479
sg477
I468
sg295
I286
sg491
I482
sg218
I209
sg378
I369
sg434
I425
sg163
I154
sg382
I373
sg400
I391
sg563
I554
sg665
I656
sg288
I279
sg194
I185
sg532
I523
sg66
I57
sg196
I187
sg28
I19
sg69
I60
sg549
I540
sg137
I128
sg408
I399
sg124
I115
sg153
I144
sg436
I427
sg483
I474
sg472
I463
sg336
I327
sg258
I249
sg261
I252
sg11
I2
sg131
I122
sg651
I642
sg277
I268
sg304
I295
sg154
I145
sg591
I582
sg353
I344
sg190
I181
sg608
I599
sg87
I78
sg265
I256
sg356
I347
sg116
I107
sg9
I0
sg143
I134
sg65
I56
sg512
I503
sg104
I95
sg50
I41
sg518
I509
sg44
I35
sg248
I239
sg252
I243
sg297
I288
sg195
I186
sg357
I348
sg424
I415
sg208
I199
sg99
I90
sg216
I207
sg409
I400
sg405
I396
sg406
I397
sg511
I502
sg533
I524
sg612
I603
sg236
I227
sg48
I39
sg464
I455
sg118
I109
sg324
I315
sg121
I112
sg370
I361
sg237
I228
sg16
I7
sg625
I616
sg158
I149
sg487
I478
sg119
I110
sg568
I559
sg623
I614
sg644
I635
sg389
I380
sg420
I411
sg135
I126
sg187
I178
sg606
I597
sg556
I547
sg47
I38
sg526
I517
sg300
I291
sg397
I388
sg523
I514
sg20
I11
sg640
I631
sg445
I436
sg35
I26
sg645
I636
sg270
I261
sg89
I80
sg133
I124
sg476
I467
sg285
I276
sg631
I622
sg96
I87
sg552
I543
sg41
I32
sg260
I251
sg159
I150
sg392
I383
sg88
I79
sg83
I74
sg524
I515
sg659
I650
sg311
I302
sg654
I645
sg202
I193
sg206
I197
sg529
I520
sg404
I395
sg624
I615
sg643
I634
sg242
I233
sg474
I465
sg462
I453
sg168
I159
sg620
I611
sg315
I306
sg398
I389
sg622
I613
sg528
I519
sg25
I16
sg167
I158
sg585
I576
sg412
I403
sg559
I550
sg547
I538
sg507
I498
sg580
I571
sg225
I216
sg128
I119
sg117
I108
sg666
I657
sg278
I269
sg453
I444
sg574
I565
sg481
I472
sg517
I508
sg634
I625
sg429
I420
sg244
I235
sg227
I218
sg390
I381
sg205
I196
sg238
I229
sg239
I230
sg363
I354
sg72
I63
sg254
I245
sg180
I171
sg22
I13
sg166
I157
sg531
I522
sg619
I610
sg373
I364
sg626
I617
sg275
I266
sg67
I58
sg18
I9
sg496
I487
sg592
I583
sg535
I526
sg576
I567
sg383
I374
sg632
I623
sg266
I257
sg199
I190
sg64
I55
sg183
I174
sg499
I490
sg601
I592
sg648
I639
sg583
I574
sg650
I641
sg340
I331
sg421
I412
sg603
I594
sg658
I649
sg150
I141
sg351
I342
sg418
I409
sg380
I371
sg417
I408
sg37
I28
sg59
I50
sg127
I118
sg447
I438
sg279
I270
sg439
I430
sg663
I654
sg15
I6
sg578
I569
sg309
I300
sg339
I330
sg667
I658
sg230
I221
sg554
I545
sg203
I194
sg407
I398
sg571
I562
sg267
I258
sg604
I595
sg438
I429
sg633
I624
sg597
I588
sg86
I77
sg147
I138
sg333
I324
sg327
I318
sg161
I152
sg77
I68
sg615
I606
sg460
I451
sg500
I491
sg629
I620
sg444
I435
sg443
I434
sg395
I386
sg565
I556
sg34
I25
sg169
I160
sg399
I390
sg308
I299
sg375
I366
sg374
I365
sg95
I86
sg414
I405
sg73
I64
sg233
I224
sg388
I379
sg302
I293
sg263
I254
sg211
I202
sg217
I208
sg256
I247
sg347
I338
sg70
I61
sg246
I237
sg537
I528
sg320
I311
sg160
I151
sg282
I273
sg469
I460
sg551
I542
sg510
I501
sg115
I106
sg331
I322
sg607
I598
sg361
I352
sg319
I310
sg492
I483
sg513
I504
sg98
I89
sg27
I18
sg102
I93
sg178
I169
sg660
I651
sg152
I143
sg220
I211
sg366
I357
sg413
I404
sg352
I343
sg107
I98
sg362
I353
sg661
I652
sg403
I394
sg145
I136
sg411
I402
sg494
I485
sg599
I590
sg490
I481
sg467
I458
sg29
I20
sg234
I225
sg51
I42
sg54
I45
sg228
I219
sg385
I376
sg393
I384
sg609
I600
sg157
I148
sg541
I532
sg58
I49
sg617
I608
sg503
I494
sg149
I140
sg134
I125
sg646
I637
sg670
I661
sg387
I378
sg209
I200
sg63
I54
sg287
I278
sg97
I88
sg567
I558
sg122
I113
sg301
I292
sg291
I282
sg605
I596
sg32
I23
sg602
I593
sg90
I81
sg75
I66
sg396
I387
sg433
I424
sg598
I589
sg577
I568
sg142
I133
sg290
I281
sg468
I459
sg338
I329
sg614
I605
sg584
I575
sg530
I521
sg649
I640
sg641
I632
sg330
I321
sg298
I289
sg189
I180
sg105
I96
sg522
I513
sg435
I426
sg502
I493
sg46
I37
sg214
I205
sg40
I31
sg182
I173
sg536
I527
sg296
I287
sg312
I303
sg346
I337
sg345
I336
sg365
I356
sg337
I328
sg419
I410
sg186
I177
sg450
I441
sg548
I539
sg588
I579
sg475
I466
sg508
I499
sg335
I326
sg570
I561
sg184
I175
sg125
I116
sg595
I586
sg281
I272
sg60
I51
sg566
I557
sg140
I131
sg426
I417
sg276
I267
sg243
I234
sg489
I480
sg155
I146
sg493
I484
sg316
I307
sg132
I123
sg586
I577
sg176
I167
sg283
I274
sg262
I253
sg594
I585
sg38
I29
sg144
I135
sg232
I223
sg185
I176
sg600
I591
sg386
I377
sg486
I477
sg372
I363
sg639
I630
sg428
I419
sg402
I393
sg61
I52
sg130
I121
sg384
I375
sg174
I165
sg188
I179
sg84
I75
sg638
I629
sg514
I505
sg656
I647
sg241
I232
sg92
I83
sg636
I627
sg91
I82
sg376
I367
sg106
I97
sg201
I192
sg192
I183
sg359
I350
sg581
I572
sg274
I265
sg76
I67
sg582
I573
sg613
I604
sg569
I560
sg542
I533
sg85
I76
sg593
I584
sg329
I320
sg204
I195
sg111
I102
sg332
I323
sg193
I184
sg31
I22
sg23
I14
sg222
I213
sg10
I1
sg555
I546
sg24
I15
sg42
I33
sg100
I91
sg326
I317
sg628
I619
sg310
I301
sg126
I117
sg422
I413
sg669
I660
sg360
I351
sg562
I553
sg572
I563
sg129
I120
sg506
I497
sg123
I114
sg12
I3
sg136
I127
sg521
I512
sg590
I581
sg516
I507
sg165
I156
sg561
I552
sg430
I421
sg497
I488
sg151
I142
sg293
I284
sg655
I646
sg348
I339
sg219
I210
sg564
I555
sg253
I244
sg546
I537
sg519
I510
sg616
I607
sg271
I262
sg343
I334
sg323
I314
sg191
I182
sg306
I297
sg17
I8
sg657
I648
sg596
I587
sg448
I439
sg229
I220
sg466
I457
sg664
I655
sg364
I355
sg269
I260
sg78
I69
sg637
I628
sg322
I313
sg249
I240
sg423
I414
sg197
I188
sg662
I653
sg235
I226
sg538
I529
sg539
I530
sg540
I531
sg454
I445
sg55
I46
sg437
I428
sg294
I285
sg109
I100
sg579
I570
sg440
I431
sg259
I250
sg94
I85
sg334
I325
sg299
I290
sg68
I59
sg164
I155
sg49
I40
sg264
I255
sg452
I443
sg207
I198
sg341
I332
sg505
I496
sg53
I44
sg170
I161
sg573
I564
sg587
I578
sg56
I47
sg272
I263
sg589
I580
sg484
I475
sg45
I36
sg560
I551
sg379
I370
sg446
I437
sg80
I71
sg449
I440
sg273
I264
sg39
I30
sg181
I172
sg110
I101
sg610
I601
sg112
I103
sg478
I469
sg479
I470
sg250
I241
sg495
I486
sg226
I217
sg550
I541
sg257
I248
sg19
I10
sg139
I130
sg425
I416
sg543
I534
sg431
I422
sg350
I341
sg504
I495
sg367
I358
sg647
I638
sg318
I309
sg394
I385
sg321
I312
sg93
I84
sg251
I242
sg459
I450
sg30
I21
sg247
I238
sg401
I392
sg71
I62
sg544
I535
sg36
I27
sg473
I464
sg14
I5
sg451
I442
sg470
I461
sg200
I191
sg33
I24
sg57
I48
sg642
I633
sg358
I349
sg328
I319
sg146
I137
sg171
I162
sg391
I382
sg280
I271
sg215
I206
sg26
I17
sg74
I65
sg471
I462
sg223
I214
sg224
I215
sg355
I346
sg314
I305
sg313
I304
sg120
I111
sg138
I129
sg175
I166
sg114
I105
sg463
I454
sg245
I236
sg177
I168
sg485
I476
sg179
I170
sg558
I549
sg172
I163
sg113
I104
sg465
I456
sg231
I222
sg501
I492
sg368
I359
sg630
I621
sg240
I231
sg456
I447
sg482
I473
sg212
I203
sg525
I516
sg52
I43
sg455
I446
sg480
I471
sg342
I333
sg416
I407
ssS'separator'
p675
S'='
sS'sparse'
p676
I01
sb.