ccopy_reg
_reconstructor
p1
(csklearn.feature_extraction.dict_vectorizer
DictVectorizer
p2
c__builtin__
object
p3
NtRp4
(dp5
S'sort'
p6
I01
sS'feature_names_'
p7
(lp8
S'acomp=resistant'
p9
aS'advcl=show'
p10
aS'advcl=undergo'
p11
aS'advmod=ago'
p12
aS'advmod=also'
p13
aS'advmod=early'
p14
aS'advmod=easily'
p15
aS'advmod=immediately'
p16
aS'advmod=now'
p17
aS'advmod=often'
p18
aS'advmod=quickly'
p19
aS'advmod=rapidly'
p20
aS'advmod=when'
p21
aS'advmod=where'
p22
aS'aux=can'
p23
aS'aux=could'
p24
aS'aux=do'
p25
aS'aux=have'
p26
aS'aux=to'
p27
aS'aux=will'
p28
aS'auxpass=be'
p29
aS'cc=and'
p30
aS'cc=but'
p31
aS'cc=nor'
p32
aS'ccomp=challenge'
p33
aS'ccomp=do'
p34
aS'ccomp=resistant'
p35
aS'ccomp=tricky'
p36
aS'complm=that'
p37
aS'conj=alert'
p38
aS'conj=confirm'
p39
aS'conj=confiscate'
p40
aS'conj=defend'
p41
aS'conj=deliver'
p42
aS'conj=disrupt'
p43
aS'conj=eliminate'
p44
aS'conj=have'
p45
aS'conj=respond'
p46
aS'conj=treat'
p47
aS'dep=flammable'
p48
aS'dobj=#NUMBER#'
p49
aS'dobj=#PRP#'
p50
aS'dobj=Town'
p51
aS'dobj=aneurysm'
p52
aS'dobj=behavior'
p53
aS'dobj=cancer'
p54
aS'dobj=case'
p55
aS'dobj=cell'
p56
aS'dobj=deviation'
p57
aS'dobj=difference'
p58
aS'dobj=disease'
p59
aS'dobj=drug'
p60
aS'dobj=entry'
p61
aS'dobj=explosive'
p62
aS'dobj=failure'
p63
aS'dobj=fingerprint'
p64
aS'dobj=gap'
p65
aS'dobj=heart'
p66
aS'dobj=individual'
p67
aS'dobj=missile'
p68
aS'dobj=nt-probnp'
p69
aS'dobj=oscillation'
p70
aS'dobj=outbreak'
p71
aS'dobj=presence'
p72
aS'dobj=response'
p73
aS'dobj=spirit'
p74
aS'dobj=stage'
p75
aS'dobj=tcdd'
p76
aS'dobj=threat'
p77
aS'dobj=tuberculosis'
p78
aS'dobj=use'
p79
aS'dobj=virus'
p80
aS'mark=although'
p81
aS'mark=because'
p82
aS'mark=if'
p83
aS'neg=never'
p84
aS'neg=not'
p85
aS'nsubj=#PRP#'
p86
aS'nsubj=Consultants'
p87
aS'nsubj=Hubble'
p88
aS'nsubj=agency'
p89
aS'nsubj=doctor'
p90
aS'nsubj=group'
p91
aS'nsubj=officer'
p92
aS'nsubj=scientist'
p93
aS'nsubj=telescope'
p94
aS'nsubj=test'
p95
aS'nsubj=that'
p96
aS'nsubjpass=#PRP#'
p97
aS'nsubjpass=B'
p98
aS'nsubjpass=aneurysm'
p99
aS'nsubjpass=cancer'
p100
aS'nsubjpass=condition'
p101
aS'nsubjpass=contaminant'
p102
aS'nsubjpass=flu'
p103
aS'nsubjpass=presence'
p104
aS'nsubjpass=sign'
p105
aS'nsubjpass=that'
p106
aS'nsubjpass=transmission'
p107
aS'nsubjpass=virus'
p108
aS'nsubjpass=wind'
p109
aS'nsubjpass=worldwide'
p110
aS'nsubjpass=year'
p111
aS'prep=across'
p112
aS'prep=against'
p113
aS'prep=among'
p114
aS'prep=at'
p115
aS'prep=by'
p116
aS'prep=during'
p117
aS'prep=from'
p118
aS'prep=in'
p119
aS'prep=inside'
p120
aS'prep=like'
p121
aS'prep=on'
p122
aS'prep=over'
p123
aS'prep=through'
p124
aS'prep=to'
p125
aS'prep=with'
p126
aS'prep=within'
p127
aS'prt=off'
p128
aS'rcmod=broker'
p129
aS'tmod=year'
p130
aS'w+1=,'
p131
aS'w+1=.'
p132
aS'w+1=a'
p133
aS'w+1=among'
p134
aS'w+1=and'
p135
aS'w+1=any'
p136
aS'w+1=at'
p137
aS'w+1=ban'
p138
aS'w+1=by'
p139
aS'w+1=cancer'
p140
aS'w+1=dangerous'
p141
aS'w+1=deceit'
p142
aS'w+1=during'
p143
aS'w+1=earlier'
p144
aS'w+1=early'
p145
aS'w+1=even'
p146
aS'w+1=he'
p147
aS'w+1=homemade'
p148
aS'w+1=how'
p149
aS'w+1=human'
p150
aS'w+1=illegal'
p151
aS'w+1=in'
p152
aS'w+1=iranian'
p153
aS'w+1=it'
p154
aS'w+1=new'
p155
aS'w+1=no'
p156
aS'w+1=nt-probnp'
p157
aS'w+1=off'
p158
aS'w+1=oscillation'
p159
aS'w+1=resistant'
p160
aS'w+1=tcdd'
p161
aS'w+1=that'
p162
aS'w+1=the'
p163
aS'w+1=they'
p164
aS'w+1=through'
p165
aS'w+1=treatment'
p166
aS'w+1=tuberculosis'
p167
aS'w+1=whether'
p168
aS"w+2=''"
p169
aS'w+2=,'
p170
aS'w+2=.'
p171
aS'w+2=2015'
p172
aS'w+2=30'
p173
aS'w+2=Cape'
p174
aS'w+2=Drake'
p175
aS'w+2=Nigeria'
p176
aS'w+2=a'
p177
aS'w+2=active'
p178
aS'w+2=and'
p179
aS'w+2=aneurysm'
p180
aS'w+2=as'
p181
aS'w+2=be'
p182
aS'w+2=broker'
p183
aS'w+2=can'
p184
aS'w+2=cancer'
p185
aS'w+2=confiscate'
p186
aS'w+2=confuse'
p187
aS'w+2=defend'
p188
aS'w+2=difference'
p189
aS'w+2=disease'
p190
aS'w+2=dope'
p191
aS'w+2=drug'
p192
aS'w+2=early'
p193
aS'w+2=eliminate'
p194
aS'w+2=entry'
p195
aS'w+2=erratic'
p196
aS'w+2=explosive'
p197
aS'w+2=failure'
p198
aS'w+2=from'
p199
aS'w+2=gap'
p200
aS'w+2=heart'
p201
aS'w+2=heparin'
p202
aS'w+2=immunity'
p203
aS'w+2=in'
p204
aS'w+2=individual'
p205
aS'w+2=last'
p206
aS'w+2=marburg'
p207
aS'w+2=missile'
p208
aS'w+2=on'
p209
aS'w+2=or'
p210
aS'w+2=organic'
p211
aS'w+2=outbreak'
p212
aS'w+2=patient'
p213
aS'w+2=prevent'
p214
aS'w+2=respond'
p215
aS'w+2=single'
p216
aS'w+2=spirit'
p217
aS'w+2=stage'
p218
aS'w+2=strain'
p219
aS'w+2=tb'
p220
aS'w+2=the'
p221
aS'w+2=then'
p222
aS'w+2=there'
p223
aS'w+2=they'
p224
aS'w+2=threat'
p225
aS'w+2=treat'
p226
aS'w+2=use'
p227
aS'w+2=well'
p228
aS'w+2=x-ray'
p229
aS'w-1=Consultants'
p230
aS'w-1=Hubble'
p231
aS'w-1=also'
p232
aS'w-1=as'
p233
aS'w-1=at'
p234
aS'w-1=be'
p235
aS'w-1=can'
p236
aS'w-1=could'
p237
aS'w-1=do'
p238
aS'w-1=doctor'
p239
aS'w-1=easily'
p240
aS'w-1=first'
p241
aS'w-1=hardly'
p242
aS'w-1=have'
p243
aS'w-1=he'
p244
aS'w-1=help'
p245
aS'w-1=if'
p246
aS'w-1=never'
p247
aS'w-1=not'
p248
aS'w-1=now'
p249
aS'w-1=of'
p250
aS'w-1=often'
p251
aS'w-1=quickly'
p252
aS'w-1=rapidly'
p253
aS'w-1=rather'
p254
aS'w-1=say'
p255
aS'w-1=that'
p256
aS'w-1=to'
p257
aS'w-1=when'
p258
aS"w-2='s"
p259
aS'w-2=,'
p260
aS'w-2=.'
p261
aS'w-2=Hatfield'
p262
aS'w-2=ability'
p263
aS'w-2=able'
p264
aS'w-2=also'
p265
aS'w-2=application'
p266
aS'w-2=at'
p267
aS'w-2=athlete'
p268
aS'w-2=be'
p269
aS'w-2=breast'
p270
aS'w-2=but'
p271
aS'w-2=can'
p272
aS'w-2=cancer'
p273
aS'w-2=could'
p274
aS'w-2=day'
p275
aS'w-2=do'
p276
aS'w-2=failure'
p277
aS'w-2=gene'
p278
aS'w-2=hard'
p279
aS'w-2=have'
p280
aS'w-2=method'
p281
aS'w-2=not'
p282
aS'w-2=now'
p283
aS'w-2=nt-probnp'
p284
aS'w-2=officer'
p285
aS'w-2=scientist'
p286
aS'w-2=smear'
p287
aS'w-2=solely'
p288
aS'w-2=specialist'
p289
aS'w-2=study'
p290
aS'w-2=such'
p291
aS'w-2=surveillance'
p292
aS'w-2=system'
p293
aS'w-2=take'
p294
aS'w-2=test'
p295
aS'w-2=that'
p296
aS'w-2=they'
p297
aS'w-2=to'
p298
aS'w-2=train'
p299
aS'w-2=up'
p300
aS'w-2=vital'
p301
aS'w-2=way'
p302
aS'w-2=we'
p303
aS'w-2=when'
p304
aS'w-2=will'
p305
aS'xcomp=confuse'
p306
asS'dtype'
p307
cnumpy
float64
p308
sS'vocabulary_'
p309
(dp310
g172
I163
sg94
I85
sg247
I238
sg198
I189
sg44
I35
sg199
I190
sg250
I241
sg109
I100
sg239
I230
sg134
I125
sg144
I135
sg158
I149
sg208
I199
sg215
I206
sg303
I294
sg161
I152
sg73
I64
sg229
I220
sg18
I9
sg142
I133
sg155
I146
sg277
I268
sg268
I259
sg40
I31
sg279
I270
sg173
I164
sg295
I286
sg183
I174
sg298
I289
sg98
I89
sg201
I192
sg272
I263
sg207
I198
sg79
I70
sg108
I99
sg88
I79
sg19
I10
sg153
I144
sg22
I13
sg227
I218
sg80
I71
sg123
I114
sg141
I132
sg230
I221
sg288
I279
sg75
I66
sg284
I275
sg293
I284
sg193
I184
sg60
I51
sg274
I265
sg273
I264
sg257
I248
sg116
I107
sg179
I170
sg127
I118
sg241
I232
sg43
I34
sg292
I283
sg148
I139
sg90
I81
sg162
I153
sg51
I42
sg50
I41
sg112
I103
sg136
I127
sg104
I95
sg52
I43
sg72
I63
sg102
I93
sg255
I246
sg223
I214
sg195
I186
sg178
I169
sg125
I116
sg286
I277
sg240
I231
sg263
I254
sg216
I207
sg265
I256
sg28
I19
sg196
I187
sg53
I44
sg17
I8
sg228
I219
sg42
I33
sg78
I69
sg231
I222
sg221
I212
sg32
I23
sg305
I296
sg137
I128
sg260
I251
sg261
I252
sg188
I179
sg110
I101
sg147
I138
sg105
I96
sg200
I191
sg26
I17
sg89
I80
sg271
I262
sg41
I32
sg149
I140
sg100
I91
sg235
I226
sg217
I208
sg189
I180
sg140
I131
sg114
I105
sg39
I30
sg282
I273
sg283
I274
sg236
I227
sg151
I142
sg190
I181
sg264
I255
sg117
I108
sg275
I266
sg267
I258
sg211
I202
sg165
I156
sg253
I244
sg159
I150
sg138
I129
sg232
I223
sg301
I292
sg205
I196
sg291
I282
sg266
I257
sg82
I73
sg9
I0
sg15
I6
sg21
I12
sg14
I5
sg220
I211
sg242
I233
sg54
I45
sg168
I159
sg287
I278
sg218
I209
sg150
I141
sg206
I197
sg289
I280
sg111
I102
sg93
I84
sg191
I182
sg25
I16
sg258
I249
sg47
I38
sg306
I297
sg243
I234
sg130
I121
sg124
I115
sg212
I203
sg57
I48
sg226
I217
sg213
I204
sg169
I160
sg204
I195
sg285
I276
sg244
I235
sg181
I172
sg219
I210
sg66
I57
sg103
I94
sg63
I54
sg99
I90
sg16
I7
sg192
I183
sg270
I261
sg84
I75
sg81
I72
sg237
I228
sg33
I24
sg92
I83
sg29
I20
sg23
I14
sg37
I28
sg146
I137
sg294
I285
sg156
I147
sg224
I215
sg69
I60
sg184
I175
sg225
I216
sg297
I288
sg101
I92
sg222
I213
sg280
I271
sg197
I188
sg30
I21
sg145
I136
sg194
I185
sg278
I269
sg166
I157
sg143
I134
sg296
I287
sg163
I154
sg113
I104
sg107
I98
sg269
I260
sg31
I22
sg177
I168
sg182
I173
sg106
I97
sg164
I155
sg186
I177
sg77
I68
sg48
I39
sg300
I291
sg304
I295
sg174
I165
sg70
I61
sg97
I88
sg38
I29
sg214
I205
sg119
I110
sg58
I49
sg299
I290
sg152
I143
sg154
I145
sg86
I77
sg118
I109
sg238
I229
sg34
I25
sg10
I1
sg11
I2
sg128
I119
sg13
I4
sg157
I148
sg59
I50
sg129
I120
sg27
I18
sg290
I281
sg180
I171
sg122
I113
sg176
I167
sg67
I58
sg12
I3
sg115
I106
sg49
I40
sg245
I236
sg135
I126
sg64
I55
sg61
I52
sg210
I201
sg167
I158
sg24
I15
sg121
I112
sg131
I122
sg46
I37
sg132
I123
sg68
I59
sg302
I293
sg171
I162
sg175
I166
sg170
I161
sg251
I242
sg209
I200
sg203
I194
sg85
I76
sg254
I245
sg71
I62
sg56
I47
sg96
I87
sg256
I247
sg185
I176
sg252
I243
sg76
I67
sg20
I11
sg87
I78
sg139
I130
sg45
I36
sg246
I237
sg126
I117
sg95
I86
sg262
I253
sg35
I26
sg36
I27
sg133
I124
sg249
I240
sg248
I239
sg91
I82
sg62
I53
sg187
I178
sg234
I225
sg233
I224
sg281
I272
sg65
I56
sg55
I46
sg74
I65
sg83
I74
sg160
I151
sg120
I111
sg202
I193
sg276
I267
sg259
I250
ssS'separator'
p311
S'='
sS'sparse'
p312
I01
sb.