ccopy_reg
_reconstructor
p1
(csklearn.feature_extraction.dict_vectorizer
DictVectorizer
p2
c__builtin__
object
p3
NtRp4
(dp5
S'vocabulary_'
p6
(dp7
S'w-2=ball'
p8
I597
sS'w+1=multiple'
p9
I345
sS'w-1=which'
p10
I569
sS'w+2=turnout'
p11
I510
sS'dobj=information'
p12
I121
sS'w+2=fiscal'
p13
I437
sS'dep=do'
p14
I70
sS'w+2=secrecy'
p15
I489
sS'w+1=dead'
p16
I313
sS'dobj=anything'
p17
I82
sS'w+2=during'
p18
I427
sS'dobj=much'
p19
I134
sS'w-1=badly'
p20
I532
sS'nsubj=visitor'
p21
I232
sS'mark=like'
p22
I186
sS'advmod=well'
p23
I39
sS'w+2=very'
p24
I512
sS'w-1=should'
p25
I562
sS'conj=responsibility'
p26
I67
sS'prep=that'
p27
I273
sS'dobj=pressure'
p28
I142
sS'w+1=terrorist'
p29
I370
sS'w-2=they'
p30
I678
sS'prep=than'
p31
I272
sS'nsubj=port'
p32
I221
sS'prep=by'
p33
I261
sS'w-2=country'
p34
I610
sS'w+1=that'
p35
I371
sS'w-2=refuse'
p36
I661
sS'nsubj=wife'
p37
I235
sS'nsubj=government'
p38
I215
sS'w-1=normally'
p39
I549
sS'ccomp=know'
p40
I53
sS'w-2=toothpaste'
p41
I680
sS'w+2=worst'
p42
I520
sS'w+1=snow'
p43
I366
sS'nsubj=station'
p44
I229
sS'dobj=duty'
p45
I107
sS'w-2=refinery'
p46
I660
sS'w+2=meltdown'
p47
I460
sS'w+2=volume'
p48
I513
sS'advmod=really'
p49
I33
sS'w+2=problem'
p50
I478
sS'w-2=way'
p51
I687
sS'advmod=better'
p52
I13
sS'w-1=will'
p53
I572
sS'w+2=crude'
p54
I420
sS'w-2=task'
p55
I672
sS'dobj=turnout'
p56
I177
sS'w-2=Congress'
p57
I581
sS'w-1=completely'
p58
I537
sS'xcomp=war'
p59
I703
sS'w-1=be'
p60
I533
sS'w+2=environmental'
p61
I433
sS'nsubj=Sims'
p62
I199
sS'dobj=tanker'
p63
I166
sS'w-2=the'
p64
I676
sS'w+1=case'
p65
I307
sS'advmod=poorly'
p66
I30
sS'w+2=inquiry'
p67
I449
sS'advcl=come'
p68
I3
sS'dobj=talk'
p69
I165
sS'xcomp=criminal'
p70
I699
sS'mark=because'
p71
I183
sS'w+1=terrorism'
p72
I369
sS'w+2=form'
p73
I439
sS'w+2=sale'
p74
I487
sS'dobj=disaster'
p75
I106
sS'w-2=infrastructure'
p76
I632
sS'dobj=aid'
p77
I80
sS'w+2=first'
p78
I436
sS'dobj=incident'
p79
I119
sS'advmod=legally'
p80
I27
sS'dobj=astronaut'
p81
I85
sS'w-2=Clay'
p82
I580
sS'w+2=day-to-day'
p83
I421
sS'w-1=have'
p84
I543
sS'ccomp=say'
p85
I55
sS'w+2=payload'
p86
I472
sS'w-2=Red'
p87
I586
sS'w+2=core'
p88
I417
sS'w+2=-lrb-'
p89
I385
sS'w+2=in'
p90
I446
sS'dobj=statistics'
p91
I158
sS'w-2=prepare'
p92
I655
sS'advcl=meeting'
p93
I7
sS'w+2=who'
p94
I517
sS'dobj=surface'
p95
I161
sS'w-2=official'
p96
I647
sS'w+2=criminal'
p97
I418
sS'w-2=agency'
p98
I593
sS'w-1=also'
p99
I529
sS'aux=can'
p100
I42
sS'complm=that'
p101
I57
sS'w+1=people'
p102
I356
sS'dobj=matter'
p103
I131
sS'w+2=next'
p104
I465
sS'w+2=ball'
p105
I404
sS'w-2=Britain'
p106
I577
sS'w-2=strategy'
p107
I670
sS'w+2=deployment'
p108
I424
sS'w-1=you'
p109
I573
sS'w+1=agriculture'
p110
I293
sS'acomp=out'
p111
I0
sS'nsubjpass=percent'
p112
I248
sS'w-1=government'
p113
I542
sS'nsubj=person'
p114
I219
sS'aux=should'
p115
I45
sS'advcl=be'
p116
I1
sS'w+2=complexity'
p117
I413
sS'dobj=arrest'
p118
I83
sS'w+1=national'
p119
I346
sS'w+2=be'
p120
I405
sS'w+1=they'
p121
I373
sS'w-2=how'
p122
I628
sS'dobj=volume'
p123
I178
sS'w-2=capacity'
p124
I603
sS'dobj=pandemic'
p125
I138
sS'w+1=those'
p126
I376
sS'w+2=bulk'
p127
I407
sS'nsubjpass=#PRP#'
p128
I237
sS'w-1=please'
p129
I556
sS'prep=in'
p130
I265
sS'w-1=properly'
p131
I560
sS'dobj=constraint'
p132
I97
sS'dobj=inflation'
p133
I120
sS'w+2=conflict'
p134
I416
sS'dobj=thing'
p135
I171
sS'w+1=arm'
p136
I299
sS'w+1=classify'
p137
I309
sS'w+2=emotion'
p138
I431
sS'prep=during'
p139
I262
sS'w+1=badly'
p140
I303
sS'w+2=of'
p141
I466
sS'w-2=each'
p142
I615
sS'prep=to'
p143
I274
sS'dobj=threat'
p144
I173
sS'w+1=properly'
p145
I359
sS'dobj=the'
p146
I170
sS'w+2=arrest'
p147
I400
sS'w-1=towards'
p148
I567
sS'w+1=and'
p149
I295
sS'nsubj=Liberia'
p150
I196
sS'nsubjpass=negotiation'
p151
I247
sS'w+2=deal'
p152
I422
sS'dobj=more'
p153
I133
sS'dobj=burden'
p154
I88
sS'w+2=for'
p155
I438
sS'w+1=other'
p156
I354
sS'w+1=any'
p157
I296
sS'advmod=enough'
p158
I19
sS'w-2=order'
p159
I649
sS'nsubj=that'
p160
I231
sS'w-1=it'
p161
I547
sS'w+1=issue'
p162
I332
sS'w-1=a'
p163
I528
sS'w-2=government'
p164
I623
sS'w+1=inside'
p165
I330
sS'w-2=unable'
p166
I683
sS'w-2=special'
p167
I665
sS'w-1=if'
p168
I545
sS'dobj=tape'
p169
I167
sS'dobj=justice'
p170
I125
sS'w-1=in'
p171
I546
sS'conj=choose'
p172
I61
sS'dobj=all'
p173
I81
sS'w+1=like'
p174
I337
sS'nsubj=Gonzales'
p175
I195
sS'w+2=issue'
p176
I451
sS'advcl=for'
p177
I5
sS'mark=if'
p178
I185
sS'w-2=capable'
p179
I602
sS'w+1=asylum'
p180
I300
sS'w-2=find'
p181
I619
sS'w+2=likely'
p182
I456
sS'advmod=directly'
p183
I17
sS'dobj=mom'
p184
I132
sS'dobj=growth'
p185
I118
sS'advmod=where'
p186
I40
sS'nsubj=Britain'
p187
I191
sS'w+2=effect'
p188
I430
sS'w-2=court'
p189
I611
sS'dobj=permit'
p190
I141
sS'dobj=ball'
p191
I86
sS'w+2=talk'
p192
I498
sS'dobj=debate'
p193
I103
sS'w-1=wife'
p194
I571
sS'w-2=Pyongyang'
p195
I585
sS'conj=become'
p196
I59
sS'w+2=crisis'
p197
I419
sS'nsubj=McClellan'
p198
I197
sS'dobj=people'
p199
I140
sS'dobj=support'
p200
I160
sS'nsubj=who'
p201
I234
sS'conj=stay'
p202
I68
sS'w-2=where'
p203
I690
sS'dobj=queue-line'
p204
I146
sS'w+1=industrial-relation'
p205
I328
sS'dobj=issue'
p206
I124
sS'nsubjpass=vote'
p207
I255
sS'dobj=inquiry'
p208
I122
sS'w+2=sex'
p209
I492
sS'dobj=chicken'
p210
I92
sS'advmod=especially'
p211
I20
sS'advmod=instead'
p212
I26
sS'w-2=we'
p213
I688
sS'w-2=term'
p214
I674
sS'w+2=suspect'
p215
I497
sS'dobj=#PRP#'
p216
I73
sS'w+2=diplomatic'
p217
I425
sS'nsubj=authority'
p218
I206
sS'w+1=completely'
p219
I310
sS'advmod=completely'
p220
I14
sS'w+2=war'
p221
I514
sS'nsubj=facility'
p222
I213
sS'dobj=rest'
p223
I149
sS'w-2=ability'
p224
I590
sS'dobj=livestock'
p225
I128
sS'nsubj=Musharraf'
p226
I198
sS'w-2=highly-secretive'
p227
I627
sS'nsubj=consumer'
p228
I208
sS'dobj=task'
p229
I168
sS'w+2=complicated'
p230
I414
sS'w-1=and'
p231
I530
sS'prep=over'
p232
I270
sS'w+2=againstsuspected'
p233
I398
sS'w+2=like'
p234
I455
sS'w+1=at'
p235
I301
sS'w+1=expeditiously'
p236
I317
sS'w+2=against'
p237
I397
sS'w+1=he'
p238
I324
sS'w+1=separately'
p239
I364
sS'nsubj=committee'
p240
I207
sS'nsubj=scandal'
p241
I225
sS'xcomp=attend'
p242
I697
sS'w-2=staff'
p243
I667
sS'w+2=financial'
p244
I435
sS'w-1=can'
p245
I536
sS'dobj=many'
p246
I130
sS'dobj=assignment'
p247
I84
sS'w+2=case'
p248
I411
sS'w-2=able'
p249
I591
sS'w+1=through'
p250
I377
sS'nsubjpass=dismissal'
p251
I241
sS'nsubjpass=issue'
p252
I244
sS'w-2=Bush'
p253
I578
sS'w+1=explosive'
p254
I318
sS'w-2=incapable'
p255
I631
sS'w+1=Afghanistan'
p256
I286
sS'w+2=own'
p257
I471
sS'nsubj=Church'
p258
I193
sS'dep=pregnant'
p259
I72
sS'w-2=health'
p260
I626
sS'w-2=ready'
p261
I659
sS'conj=handle'
p262
I64
sS'w-2=McClellan'
p263
I583
sS'w-2=Church'
p264
I579
sS'prep=for'
p265
I263
sS'advmod=along'
p266
I8
sS'nsubjpass=justice'
p267
I245
sS'nsubj=force'
p268
I214
sS'w-2=standby'
p269
I669
sS'w+2=legislation'
p270
I453
sS'advmod=normally'
p271
I28
sS'nsubj=Bush'
p272
I192
sS'dobj=investigation'
p273
I123
sS'w+2=accuse'
p274
I395
sS'nsubj=refinery'
p275
I223
sS'w-2=create'
p276
I612
sS'auxpass=be'
p277
I48
sS'advcl=challenge'
p278
I2
sS'ccomp=improve'
p279
I52
sS'w-2=continue'
p280
I608
sS'w+1=the'
p281
I372
sS'w-2=manage'
p282
I640
sS'w-2=he'
p283
I625
sS'dobj=business'
p284
I89
sS'dobj=deal'
p285
I102
sS'advmod=still'
p286
I37
sS'nsubj=president'
p287
I222
sS'w+1=rifle'
p288
I361
sS'ccomp=leader'
p289
I54
sS'w+2=sar'
p290
I488
sS'w-2=dismissal'
p291
I614
sS'nsubj=state'
p292
I228
sS'w+1=seizure'
p293
I363
sS'w+2=humanitarian'
p294
I445
sS'w+2=assignment'
p295
I401
sS'w+1=its'
p296
I334
sS'w+1=operation'
p297
I353
sS'w+2=question'
p298
I481
sS'w+1=much'
p299
I344
sS"w-1=''"
p300
I521
sS'w+2=port'
p301
I476
sS'w-2=up'
p302
I685
sS'w+2=burden'
p303
I408
sS'nsubj=Crescent'
p304
I194
sS'w+1=nuclear-related'
p305
I349
sS'w-2=place'
p306
I652
sS'w-2=that'
p307
I675
sS'conj=do'
p308
I62
sS'w+2=affair'
p309
I396
sS'w+1=grave'
p310
I322
sS'w-2=allow'
p311
I594
sS'w+2=or'
p312
I469
sS'w-2=inadequate'
p313
I630
sS'w-2=company'
p314
I607
sS'w+1=graciously'
p315
I321
sS'w+2=on'
p316
I468
sS'dobj=accident'
p317
I78
sS'nsubjpass=conflict'
p318
I239
sS'advmod=appropriately'
p319
I10
sS'advmod=firmly'
p320
I22
sS'advmod=best'
p321
I12
sS'w+2=surface'
p322
I496
sS'w+2=duty'
p323
I428
sS'w+2=grow'
p324
I443
sS'w-2=there'
p325
I677
sS'w+2=debt'
p326
I423
sS'nsubjpass=question'
p327
I251
sS'prep=without'
p328
I276
sS'advmod=expeditiously'
p329
I21
sS'dobj=case'
p330
I90
sS'advmod=improperly'
p331
I25
sS'prep=inside'
p332
I266
sS'w-2=matter'
p333
I642
sS'w-1=she'
p334
I561
sS'dobj=Nkunda'
p335
I77
sS'dobj=datum'
p336
I101
sS'w+2=from'
p337
I440
sS'dobj=those'
p338
I172
sS'w-2=tactic'
p339
I671
sS'w-1=turn'
p340
I568
sS'dobj=crowd'
p341
I100
sS'w+1=Nkunda'
p342
I289
sS'w+1=thing'
p343
I374
sS'w+2=task'
p344
I500
sS'advcl=in'
p345
I6
sS'w-1=president'
p346
I559
sS'dobj=transaction'
p347
I174
sS'w-2=port'
p348
I654
sS'w+1=international'
p349
I331
sS'w+1=over'
p350
I355
sS'w-2=would'
p351
I695
sS'w+2=much'
p352
I462
sS'dobj=transfer'
p353
I175
sS'w+2=those'
p354
I505
sS'w+2=this'
p355
I504
sS'dobj=concern'
p356
I95
sS'w+2=Afghan'
p357
I389
sS'w+2=astronaut'
p358
I402
sS'w+2=multi-million'
p359
I463
sS'w-2=which'
p360
I691
sS'w-2=stand-by'
p361
I668
sS'w-1=official'
p362
I552
sS'w+2=massive'
p363
I458
sS'w+1=directly'
p364
I315
sS'nsubj=court'
p365
I210
sS'dobj=affair'
p366
I79
sS'advmod=there'
p367
I38
sS'dobj=delivery'
p368
I104
sS'w+2=legally'
p369
I452
sS'w-2=international'
p370
I633
sS'mark=while'
p371
I187
sS'advmod=how'
p372
I24
sS'w-2=also'
p373
I595
sS'aux=will'
p374
I47
sS'w-2=weapon'
p375
I689
sS'advmod=differently'
p376
I16
sS'w+1=back'
p377
I302
sS'w+2=new'
p378
I464
sS'w+2=when'
p379
I515
sS'w-2=university'
p380
I684
sS'w-2=know'
p381
I637
sS'nsubjpass=this'
p382
I253
sS'nsubj=States'
p383
I200
sS'prep=with'
p384
I275
sS'w+2=load'
p385
I457
sS'w+1=only'
p386
I352
sS'dobj=emotion'
p387
I110
sS'w+1=well'
p388
I380
sS'dobj=relation'
p389
I147
sS'nsubj=agency'
p390
I204
sS'w-2=school'
p391
I662
sS'nsubjpass=process'
p392
I250
sS'advcl=complete'
p393
I4
sS'w-2=Uribe'
p394
I587
sS'w+2=people'
p395
I473
sS'dobj=change'
p396
I91
sS'w-2=plan'
p397
I653
sS'w+2=with'
p398
I519
sS'advmod=efficiently'
p399
I18
sS'w-1=poorly'
p400
I558
sS'w-1=Sims'
p401
I527
sS'w+2=red'
p402
I484
sS'w+2=disaster'
p403
I426
sS'w-2=president'
p404
I657
sS'w-2=Zardari'
p405
I589
sS'w-2=willing'
p406
I693
sS'w+2=accident'
p407
I394
sS'w+1=oil'
p408
I350
sS'dobj=payload'
p409
I139
sS'dobj=problem'
p410
I143
sS'dobj=workload'
p411
I181
sS'w+1=politically'
p412
I358
sS'w+1=various'
p413
I378
sS'w+1=delivery'
p414
I314
sS'w+2=100,000'
p415
I387
sS'w+2=unruly'
p416
I511
sS'w-2=it'
p417
I635
sS'w-1=matter'
p418
I548
sS'w-2=person'
p419
I651
sS'dobj=bulk'
p420
I87
sS'w-2=prepared'
p421
I656
sS'nsubj=Zardari'
p422
I202
sS"w+2=''"
p423
I382
sS'nsubj=country'
p424
I209
sS'w+2=office'
p425
I467
sS'advmod=also'
p426
I9
sS'nsubj=Brazil'
p427
I190
sS'nsubjpass=case'
p428
I238
sS'nsubj=lawyer'
p429
I216
sS'nsubjpass=incident'
p430
I243
sS'w+1=six'
p431
I365
sS'w-2=woman'
p432
I694
sS'w+1=natural'
p433
I347
sS'w+2=investigation'
p434
I450
sS'w-2=economy'
p435
I616
sS'w+2=threat'
p436
I506
sS'w+2=tsunami'
p437
I509
sS'w+2=leopard'
p438
I454
sS'w+2=queue-line'
p439
I482
sS'dobj=end'
p440
I111
sS'w+2=will'
p441
I518
sS'w-2=Vlore'
p442
I588
sS'xcomp=take'
p443
I702
sS'cc=and'
p444
I49
sS'w+1=statistics'
p445
I367
sS'advmod=currently'
p446
I15
sS'dobj=oil'
p447
I136
sS'w+1=by'
p448
I306
sS'w+1=Egypt'
p449
I287
sS'nsubjpass=war'
p450
I256
sS'w+2=seeker'
p451
I491
sS'nsubj=a'
p452
I203
sS'nsubjpass=way'
p453
I257
sS'w+2=subsidy'
p454
I494
sS"w+2='s"
p455
I383
sS'w+1=Ireland'
p456
I288
sS'w-2=team'
p457
I673
sS'w+1=inflation'
p458
I329
sS'w+2=matter'
p459
I459
sS'nsubj=official'
p460
I218
sS'w+2=economy'
p461
I429
sS'w+1=in'
p462
I327
sS'w-2=however'
p463
I629
sS'w+1=-lrb-'
p464
I283
sS'w+1=it'
p465
I333
sS'dobj=that'
p466
I169
sS'w+1=on'
p467
I351
sS'nsubj=#PRP#'
p468
I189
sS'w-1=facility'
p469
I540
sS'dobj=sale'
p470
I152
sS'w+1=justice'
p471
I335
sS'w+2=chicken'
p472
I412
sS"w+1=''"
p473
I281
sS'cc=but'
p474
I50
sS'xcomp=pack'
p475
I701
sS'dobj=complexity'
p476
I93
sS'w+2=substantial'
p477
I495
sS'w-2=specialist'
p478
I666
sS'dobj=surge'
p479
I162
sS'rel=in'
p480
I278
sS'aux=could'
p481
I43
sS'prep=like'
p482
I267
sS'w-1=court'
p483
I538
sS'conj=guard'
p484
I63
sS'w-2=firing'
p485
I620
sS'w-2=Pakistan'
p486
I584
sS'w+1=complication'
p487
I311
sS'mark=before'
p488
I184
sS'dobj=music'
p489
I135
sS'w-2=center'
p490
I604
sS'w+2=rest'
p491
I485
sS'w-2=like'
p492
I639
sS'dobj=explosive'
p493
I113
sS'w+2=concern'
p494
I415
sS'w+2=incident'
p495
I447
sS'advmod=single-handedly'
p496
I36
sS'nsubjpass=resettlement'
p497
I252
sS'w+2=which'
p498
I516
sS'dobj=grievance'
p499
I117
sS'xcomp=economic'
p500
I700
sS'nsubj=Uribe'
p501
I201
sS'w+1=heavy'
p502
I325
sS'w+1=appropriately'
p503
I298
sS'w-2=be'
p504
I598
sS'w-1=Liberia'
p505
I526
sS'prep=of'
p506
I268
sS'w+1=mathematical'
p507
I341
sS'w-1=Gonzales'
p508
I525
sS'prep=on'
p509
I269
sS'w+1=improperly'
p510
I326
sS'w-2=get'
p511
I622
sS'w-2=equip'
p512
I618
sS'nsubj=embassy'
p513
I212
sS'nsubj=which'
p514
I233
sS'dobj=question'
p515
I145
sS'w+2=migration'
p516
I461
sS'w-1=for'
p517
I541
sS'nsubj=size'
p518
I226
sS'dobj=security'
p519
I154
sS'conj=allow'
p520
I58
sS'advmod=badly'
p521
I11
sS'dobj=rifle'
p522
I150
sS'w+2=and'
p523
I399
sS'w+1=permit'
p524
I357
sS'w+2=great'
p525
I442
sS'w+2=fund'
p526
I441
sS'w+1=all'
p527
I294
sS'w-1=to'
p528
I566
sS'dobj=system'
p529
I164
sS'dobj=conflict'
p530
I96
sS'nsubj=woman'
p531
I236
sS'w+2=out'
p532
I470
sS'w+2=Gambia'
p533
I390
sS'w+2=that'
p534
I501
sS'nsubj=and'
p535
I205
sS'w-2=can'
p536
I601
sS'conj=punish'
p537
I66
sS'w-1=who'
p538
I570
sS'w+2=information'
p539
I448
sS'w-1=or'
p540
I554
sS'w+1=large'
p541
I336
sS'parataxis=insist'
p542
I258
sS'dobj=form'
p543
I115
sS'dobj=situation'
p544
I156
sS'w-2=committee'
p545
I606
sS'nsubjpass=firing'
p546
I242
sS'w+2=fight'
p547
I434
sS'advmod=separately'
p548
I35
sS'w-2=to'
p549
I679
sS'dobj=process'
p550
I144
sS'w-2=and'
p551
I596
sS'w+2=end'
p552
I432
sS'w+2=about'
p553
I393
sS'w+2=real'
p554
I483
sS'prt=back'
p555
I277
sS'w+1=this'
p556
I375
sS'w-2=enough'
p557
I617
sS'advmod=obviously'
p558
I29
sS'prep=since'
p559
I271
sS'w+1=more'
p560
I343
sS'w+1=with'
p561
I381
sS'w+1=crisis'
p562
I312
sS'w+2=process'
p563
I479
sS'dobj=Afghanistan'
p564
I74
sS'w-2=only'
p565
I648
sS'dobj=economy'
p566
I108
sS'w+2=the'
p567
I502
sS'prep=at'
p568
I260
sS'w-2=will'
p569
I692
sS'prep=as'
p570
I259
sS'w-2=,'
p571
I574
sS'w-2=-'
p572
I575
sS'w-2=.'
p573
I576
sS'advmod=securely'
p574
I34
sS'dobj=exodus'
p575
I112
sS'w-2=try'
p576
I682
sS'w+2=Iraq'
p577
I391
sS'aux=have'
p578
I44
sS'w-1=physically'
p579
I555
sS'w-2=but'
p580
I600
sS'dobj=suspect'
p581
I163
sS'w+2=personal'
p582
I474
sS'w-1=.'
p583
I523
sS'w-1=,'
p584
I522
sS'w-2=not'
p585
I646
sS'w+1=african'
p586
I292
sS'xcomp=better'
p587
I698
sS'w-2=I'
p588
I582
sS'dobj=leadership'
p589
I126
sS'w+2=political'
p590
I475
sS'w-2=decision'
p591
I613
sS'w-1=authority'
p592
I531
sS'dobj=fund'
p593
I116
sS'advmod=graciously'
p594
I23
sS'w+1=security'
p595
I362
sS'w+2=growth'
p596
I444
sS'dobj=Gambia'
p597
I76
sS'w+1=live'
p598
I338
sS'w-1=system'
p599
I563
sS'w+1=change'
p600
I308
sS'w+1=grievance'
p601
I323
sS'w-1=of'
p602
I551
sS'nsubj=strategy'
p603
I230
sS'w-1=they'
p604
I565
sS'conj=bring'
p605
I60
sS'dobj=deployment'
p606
I105
sS'w-2=job'
p607
I636
sS'w-1=best'
p608
I534
sS'dobj=crisis'
p609
I99
sS'w+2=transfer'
p610
I508
sS'dobj=effect'
p611
I109
sS'w+1=livestock'
p612
I339
sS'w+2=rise'
p613
I486
sS'w-2=so'
p614
I664
sS'w+2=tanker'
p615
I499
sS'mark=as'
p616
I182
sS'w-1=he'
p617
I544
sS'w+2=security'
p618
I490
sS'w+1=many'
p619
I340
sS'nsubj=reporter'
p620
I224
sS'w+1=economic'
p621
I316
sS'w+2=there'
p622
I503
sS'w+1=anything'
p623
I297
sS'w-1=Crescent'
p624
I524
sS'w+1=relation'
p625
I360
sS'w-2=very'
p626
I686
sS'nsubj=plan'
p627
I220
sS'dobj=subsidy'
p628
I159
sS'w-2=mark'
p629
I641
sS'dobj=complication'
p630
I94
sS'w-2=issue'
p631
I634
sS'nsubjpass=crisis'
p632
I240
sS'w+2=transaction'
p633
I507
sS'w+2=situation'
p634
I493
sS'w-1=police'
p635
I557
sS'w-2=force'
p636
I621
sS'w-2=year'
p637
I696
sS'dobj=vote'
p638
I179
sS'w+1=extended'
p639
I319
sS'w+1=bigger'
p640
I305
sS'w-2=raise'
p641
I658
sS'dobj=troops'
p642
I176
sS'nsubjpass=matter'
p643
I246
sS'w-2=chinese'
p644
I605
sS'dobj=seeker'
p645
I155
sS'dep=on'
p646
I71
sS'dobj=responsibility'
p647
I148
sS'nsubj=mark'
p648
I217
sS'dobj=container'
p649
I98
sS'ccomp=capture'
p650
I51
sS'dobj=fight'
p651
I114
sS'conj=tackle'
p652
I69
sS'w-2=have'
p653
I624
sS'w-2=aftermath'
p654
I592
sS'dobj=legislation'
p655
I127
sS'w-2=lawyer'
p656
I638
sS'prep=from'
p657
I264
sS'dobj=rise'
p658
I151
sS'w+2=book'
p659
I406
sS'w+1=firmly'
p660
I320
sS'conj=present'
p661
I65
sS'aux=to'
p662
I46
sS'w+1=basic'
p663
I304
sS'w-2=should'
p664
I663
sS'nsubjpass=trial'
p665
I254
sS'w-2=measure'
p666
I643
sS'w-2=method'
p667
I644
sS'dobj=scandal'
p668
I153
sS'w+1=such'
p669
I368
sS'advmod=prudently'
p670
I32
sS'w+1=new'
p671
I348
sS'dobj=Egypt'
p672
I75
sS'w-2=brain'
p673
I599
sS'w+2=?'
p674
I388
sS'nsubjpass=problem'
p675
I249
sS'w-1=that'
p676
I564
sS'tmod=week'
p677
I280
sS'w+1=,'
p678
I282
sS'w+1=.'
p679
I284
sS'w+2=by'
p680
I410
sS'w+2=.'
p681
I386
sS'w+2=,'
p682
I384
sS'w+2=prosecution'
p683
I480
sS'w-2=past'
p684
I650
sS'tmod=physically'
p685
I279
sS'neg=not'
p686
I188
sS'w+1=?'
p687
I285
sS'dobj=operation'
p688
I137
sS'dobj=war'
p689
I180
sS'dobj=staff'
p690
I157
sS'w-2=could'
p691
I609
sS'dobj=load'
p692
I129
sS'w+1=mom'
p693
I342
sS'w-1=on'
p694
I553
sS'nsubj=cue'
p695
I211
sS'w+1=a'
p696
I291
sS'w-1=not'
p697
I550
sS'w+2=away'
p698
I403
sS'w-2=trade'
p699
I681
sS'w+1=U.S.'
p700
I290
sS'ccomp=see'
p701
I56
sS'w+2=business'
p702
I409
sS'w+1=vote'
p703
I379
sS'w+2=pressure'
p704
I477
sS'aux=be'
p705
I41
sS'w-2=mistake'
p706
I645
sS'w-1=currently'
p707
I539
sS'w-1=broom'
p708
I535
sS'nsubj=somebody'
p709
I227
sS'w+2=a'
p710
I392
sS'advmod=properly'
p711
I31
ssS'dtype'
p712
cnumpy
float64
p713
sS'feature_names_'
p714
(lp715
g111
ag116
ag278
ag68
ag393
ag177
ag345
ag93
ag266
ag426
ag319
ag521
ag321
ag52
ag220
ag446
ag376
ag183
ag399
ag158
ag211
ag329
ag320
ag594
ag372
ag331
ag212
ag80
ag271
ag558
ag66
ag711
ag670
ag49
ag574
ag548
ag496
ag286
ag367
ag23
ag186
ag705
ag100
ag481
ag578
ag115
ag662
ag374
ag277
ag444
ag474
ag650
ag279
ag40
ag289
ag85
ag701
ag101
ag520
ag196
ag605
ag172
ag308
ag484
ag262
ag661
ag537
ag26
ag202
ag652
ag14
ag646
ag259
ag216
ag564
ag672
ag597
ag335
ag317
ag366
ag77
ag173
ag17
ag118
ag247
ag81
ag191
ag420
ag154
ag284
ag330
ag396
ag210
ag476
ag630
ag356
ag530
ag132
ag649
ag609
ag341
ag336
ag285
ag193
ag368
ag606
ag75
ag45
ag566
ag611
ag387
ag440
ag575
ag493
ag651
ag543
ag593
ag499
ag185
ag79
ag133
ag12
ag208
ag273
ag206
ag170
ag589
ag655
ag225
ag692
ag246
ag103
ag184
ag153
ag19
ag489
ag447
ag688
ag125
ag409
ag199
ag190
ag28
ag410
ag550
ag515
ag204
ag389
ag647
ag223
ag522
ag658
ag470
ag668
ag519
ag645
ag544
ag690
ag91
ag628
ag200
ag95
ag479
ag581
ag529
ag69
ag63
ag169
ag229
ag466
ag146
ag135
ag338
ag144
ag347
ag353
ag642
ag56
ag123
ag638
ag689
ag411
ag616
ag71
ag488
ag178
ag22
ag371
ag686
ag468
ag427
ag187
ag272
ag258
ag304
ag175
ag150
ag198
ag226
ag62
ag383
ag501
ag422
ag452
ag390
ag535
ag218
ag240
ag228
ag424
ag365
ag695
ag513
ag222
ag268
ag38
ag429
ag648
ag460
ag114
ag627
ag32
ag287
ag275
ag620
ag241
ag518
ag709
ag292
ag44
ag603
ag160
ag21
ag514
ag201
ag37
ag531
ag128
ag428
ag318
ag632
ag251
ag546
ag430
ag252
ag267
ag643
ag151
ag112
ag675
ag392
ag327
ag497
ag382
ag665
ag207
ag450
ag453
ag542
ag570
ag568
ag33
ag139
ag265
ag657
ag130
ag332
ag482
ag506
ag509
ag232
ag559
ag31
ag27
ag143
ag384
ag328
ag555
ag480
ag685
ag677
ag473
ag678
ag464
ag679
ag687
ag256
ag449
ag456
ag342
ag700
ag696
ag586
ag110
ag527
ag149
ag157
ag623
ag503
ag136
ag180
ag235
ag377
ag140
ag663
ag640
ag448
ag65
ag600
ag137
ag219
ag487
ag562
ag16
ag414
ag364
ag621
ag236
ag254
ag639
ag660
ag315
ag310
ag601
ag238
ag502
ag510
ag462
ag205
ag458
ag165
ag349
ag162
ag465
ag296
ag471
ag541
ag174
ag598
ag612
ag619
ag507
ag693
ag560
ag299
ag9
ag119
ag433
ag671
ag305
ag408
ag467
ag386
ag297
ag156
ag350
ag102
ag524
ag412
ag145
ag625
ag288
ag595
ag293
ag239
ag431
ag43
ag445
ag669
ag72
ag29
ag35
ag281
ag121
ag343
ag556
ag126
ag250
ag413
ag703
ag388
ag561
ag423
ag455
ag682
ag89
ag681
ag415
ag674
ag357
ag533
ag577
ag710
ag553
ag407
ag274
ag309
ag237
ag233
ag523
ag147
ag295
ag358
ag698
ag105
ag120
ag659
ag127
ag303
ag702
ag680
ag248
ag472
ag117
ag230
ag494
ag134
ag88
ag97
ag197
ag54
ag83
ag152
ag326
ag108
ag217
ag403
ag18
ag323
ag461
ag188
ag138
ag552
ag61
ag547
ag244
ag78
ag13
ag155
ag73
ag337
ag526
ag525
ag324
ag596
ag294
ag90
ag495
ag539
ag67
ag434
ag176
ag369
ag270
ag438
ag234
ag182
ag385
ag363
ag459
ag47
ag516
ag352
ag359
ag378
ag104
ag141
ag425
ag316
ag312
ag532
ag257
ag86
ag395
ag582
ag590
ag301
ag704
ag50
ag563
ag683
ag298
ag439
ag554
ag402
ag491
ag613
ag74
ag290
ag15
ag618
ag451
ag209
ag634
ag454
ag477
ag322
ag215
ag192
ag615
ag344
ag534
ag567
ag622
ag355
ag354
ag436
ag633
ag610
ag437
ag11
ag416
ag24
ag48
ag221
ag379
ag498
ag94
ag441
ag398
ag42
ag300
ag584
ag583
ag624
ag508
ag505
ag401
ag163
ag99
ag231
ag592
ag20
ag60
ag608
ag708
ag245
ag58
ag483
ag707
ag469
ag517
ag113
ag84
ag617
ag168
ag171
ag161
ag418
ag39
ag697
ag602
ag362
ag694
ag540
ag579
ag129
ag635
ag400
ag346
ag131
ag334
ag25
ag599
ag676
ag604
ag528
ag148
ag340
ag10
ag538
ag194
ag53
ag109
ag571
ag572
ag573
ag106
ag253
ag264
ag82
ag57
ag588
ag263
ag486
ag195
ag87
ag394
ag442
ag405
ag224
ag249
ag654
ag98
ag311
ag373
ag551
ag8
ag504
ag673
ag580
ag536
ag179
ag124
ag490
ag644
ag545
ag314
ag280
ag691
ag34
ag189
ag276
ag591
ag291
ag142
ag435
ag557
ag512
ag181
ag485
ag636
ag511
ag164
ag653
ag283
ag260
ag227
ag122
ag463
ag313
ag255
ag76
ag370
ag631
ag417
ag607
ag381
ag656
ag492
ag282
ag629
ag333
ag666
ag667
ag706
ag585
ag96
ag565
ag159
ag684
ag419
ag306
ag397
ag348
ag92
ag421
ag404
ag641
ag261
ag46
ag36
ag391
ag664
ag614
ag167
ag478
ag243
ag361
ag269
ag107
ag339
ag55
ag457
ag214
ag307
ag64
ag325
ag30
ag549
ag41
ag699
ag576
ag166
ag380
ag302
ag626
ag51
ag213
ag375
ag203
ag360
ag569
ag406
ag432
ag351
ag637
ag242
ag587
ag70
ag500
ag475
ag443
ag59
asS'separator'
p716
S'='
sS'sparse'
p717
I01
sb.