ccopy_reg
_reconstructor
p1
(csklearn.feature_extraction.dict_vectorizer
DictVectorizer
p2
c__builtin__
object
p3
NtRp4
(dp5
S'sort'
p6
I01
sS'feature_names_'
p7
(lp8
S'advcl=care'
p9
aS'advcl=continue'
p10
aS'advcl=convinced'
p11
aS'advcl=receive'
p12
aS'advmod=ago'
p13
aS'advmod=all'
p14
aS'advmod=already'
p15
aS'advmod=also'
p16
aS'advmod=generously'
p17
aS'advmod=only'
p18
aS'advmod=too'
p19
aS'advmod=when'
p20
aS'advmod=where'
p21
aS'aux=be'
p22
aS'aux=can'
p23
aS'aux=have'
p24
aS'aux=to'
p25
aS'aux=will'
p26
aS'aux=would'
p27
aS'auxpass=be'
p28
aS'cc=and'
p29
aS'cc=but'
p30
aS'ccomp=meet'
p31
aS'ccomp=restore'
p32
aS'ccomp=wanted'
p33
aS'complm=that'
p34
aS'conj=adopt'
p35
aS'conj=help'
p36
aS'conj=pitch'
p37
aS'conj=provide'
p38
aS'conj=small'
p39
aS'dep=#PRP#'
p40
aS'dep=if'
p41
aS'dobj=#NUMBER#'
p42
aS'dobj=$'
p43
aS'dobj=Park'
p44
aS'dobj=album'
p45
aS'dobj=all'
p46
aS'dobj=amount'
p47
aS'dobj=bear'
p48
aS'dobj=blood'
p49
aS'dobj=clothes'
p50
aS'dobj=collection'
p51
aS'dobj=contraceptive'
p52
aS'dobj=equipment'
p53
aS'dobj=first'
p54
aS'dobj=food'
p55
aS'dobj=goods'
p56
aS'dobj=grocery'
p57
aS'dobj=item'
p58
aS'dobj=kidney'
p59
aS'dobj=money'
p60
aS'dobj=percent'
p61
aS'dobj=portion'
p62
aS'dobj=revenue'
p63
aS'dobj=rights'
p64
aS'dobj=space'
p65
aS'dobj=supplies'
p66
aS'dobj=tapestry'
p67
aS'dobj=that'
p68
aS'dobj=time'
p69
aS'dobj=tissue'
p70
aS'dobj=ton'
p71
aS'dobj=two-third'
p72
aS'dobj=vehicle'
p73
aS'nsubj=#PRP#'
p74
aS'nsubj=Arabia'
p75
aS'nsubj=Authority'
p76
aS'nsubj=Compean'
p77
aS'nsubj=Jr.'
p78
aS'nsubj=Kenyans'
p79
aS'nsubj=Nations'
p80
aS'nsubj=Nickelback'
p81
aS'nsubj=Sills'
p82
aS'nsubj=Sobel'
p83
aS'nsubj=States'
p84
aS'nsubj=citizen'
p85
aS'nsubj=coach'
p86
aS'nsubj=company'
p87
aS'nsubj=dozen'
p88
aS'nsubj=entrepreneur'
p89
aS'nsubj=everyone'
p90
aS'nsubj=kidney'
p91
aS'nsubj=needle'
p92
aS'nsubj=owner'
p93
aS'nsubj=people'
p94
aS'nsubj=shopper'
p95
aS'nsubj=someone'
p96
aS'nsubj=store'
p97
aS'nsubj=surgery'
p98
aS'nsubj=which'
p99
aS'nsubj=who'
p100
aS'nsubjpass=#PRP#'
p101
aS'nsubjpass=all'
p102
aS'nsubjpass=body'
p103
aS'nsubjpass=lot'
p104
aS'nsubjpass=most'
p105
aS'nsubjpass=organ'
p106
aS'nsubjpass=proceeds'
p107
aS'nsubjpass=quality'
p108
aS'nsubjpass=that'
p109
aS'nsubjpass=what'
p110
aS'nsubjpass=which'
p111
aS'prep=by'
p112
aS'prep=during'
p113
aS'prep=for'
p114
aS'prep=from'
p115
aS'prep=in'
p116
aS'prep=provide'
p117
aS'prep=than'
p118
aS'prep=to'
p119
aS'prep=towards'
p120
aS'prep=upon'
p121
aS'prt=up'
p122
aS'tmod=morning'
p123
aS'w+1=$'
p124
aS'w+1=-lrb-'
p125
aS'w+1=.'
p126
aS'w+1=10'
p127
aS'w+1=90,000'
p128
aS'w+1=Pumalin'
p129
aS'w+1=a'
p130
aS'w+1=all'
p131
aS'w+1=blood'
p132
aS'w+1=building'
p133
aS'w+1=by'
p134
aS'w+1=contraceptive'
p135
aS'w+1=drug'
p136
aS'w+1=equipment'
p137
aS'w+1=food'
p138
aS'w+1=for'
p139
aS'w+1=from'
p140
aS'w+1=fund'
p141
aS'w+1=generous'
p142
aS'w+1=generously'
p143
aS'w+1=goods'
p144
aS'w+1=grocery'
p145
aS'w+1=hundred'
p146
aS'w+1=in'
p147
aS'w+1=its'
p148
aS'w+1=kidney'
p149
aS'w+1=money'
p150
aS'w+1=more'
p151
aS'w+1=nearly'
p152
aS'w+1=one'
p153
aS'w+1=she'
p154
aS'w+1=some'
p155
aS'w+1=space'
p156
aS'w+1=teddy'
p157
aS'w+1=the'
p158
aS'w+1=they'
p159
aS'w+1=this'
p160
aS'w+1=to'
p161
aS'w+1=two'
p162
aS'w+1=two-third'
p163
aS'w+1=up'
p164
aS'w+1=upon'
p165
aS'w+1=uterus'
p166
aS'w+1=vehicle'
p167
aS'w+1=what'
p168
aS'w+1=will'
p169
aS'w+2=$'
p170
aS'w+2=,'
p171
aS'w+2=.'
p172
aS'w+2=100,000'
p173
aS'w+2=120'
p174
aS'w+2=20'
p175
aS'w+2=3.25'
p176
aS'w+2=31'
p177
aS'w+2=Canada'
p178
aS'w+2=Cozy'
p179
aS'w+2=Fox-Movietone'
p180
aS'w+2=Kuwait'
p181
aS'w+2=New'
p182
aS'w+2=Park'
p183
aS'w+2=Saturday'
p184
aS'w+2=UNICEF'
p185
aS'w+2=a'
p186
aS'w+2=album'
p187
aS'w+2=amount'
p188
aS'w+2=and'
p189
aS'w+2=be'
p190
aS'w+2=bear'
p191
aS'w+2=because'
p192
aS'w+2=brain'
p193
aS'w+2=case'
p194
aS'w+2=come'
p195
aS'w+2=depend'
p196
aS'w+2=entire'
p197
aS'w+2=first'
p198
aS'w+2=for'
p199
aS'w+2=goods'
p200
aS'w+2=gym'
p201
aS'w+2=help'
p202
aS'w+2=in'
p203
aS'w+2=kidney'
p204
aS'w+2=metric'
p205
aS'w+2=money'
p206
aS'w+2=of'
p207
aS'w+2=organ'
p208
aS'w+2=organization'
p209
aS'w+2=other'
p210
aS'w+2=percent'
p211
aS'w+2=politician'
p212
aS'w+2=portion'
p213
aS'w+2=private'
p214
aS'w+2=put'
p215
aS'w+2=restaurant'
p216
aS'w+2=revenue'
p217
aS'w+2=rights'
p218
aS'w+2=so'
p219
aS'w+2=such'
p220
aS'w+2=supplies'
p221
aS'w+2=taint'
p222
aS'w+2=tapestry'
p223
aS'w+2=the'
p224
aS'w+2=they'
p225
aS'w+2=time'
p226
aS'w+2=to'
p227
aS'w+2=unwanted'
p228
aS'w+2=upon'
p229
aS'w+2=we'
p230
aS'w+2=will'
p231
aS'w+2=would'
p232
aS"w-1=''"
p233
aS'w-1=,'
p234
aS'w-1=-'
p235
aS'w-1=-rrb-'
p236
aS'w-1=800'
p237
aS'w-1=Authority'
p238
aS'w-1=Edsel'
p239
aS'w-1=Fox'
p240
aS'w-1=Jr.'
p241
aS'w-1=Kenyans'
p242
aS'w-1=Sills'
p243
aS'w-1=Sobel'
p244
aS'w-1=a'
p245
aS'w-1=already'
p246
aS'w-1=also'
p247
aS'w-1=amount'
p248
aS'w-1=and'
p249
aS'w-1=be'
p250
aS'w-1=biscuit'
p251
aS'w-1=by'
p252
aS'w-1=can'
p253
aS'w-1=classroom'
p254
aS'w-1=come'
p255
aS'w-1=consider'
p256
aS'w-1=corporation'
p257
aS'w-1=distribute'
p258
aS'w-1=get'
p259
aS'w-1=have'
p260
aS'w-1=he'
p261
aS'w-1=in'
p262
aS'w-1=needle'
p263
aS'w-1=oil'
p264
aS'w-1=or'
p265
aS'w-1=people'
p266
aS'w-1=provide'
p267
aS'w-1=receive'
p268
aS'w-1=room'
p269
aS'w-1=say'
p270
aS'w-1=the'
p271
aS'w-1=to'
p272
aS'w-1=volunteer'
p273
aS'w-1=while'
p274
aS'w-1=who'
p275
aS'w-1=whose'
p276
aS'w-1=will'
p277
aS'w-1=would'
p278
aS'w-2=,'
p279
aS'w-2=.'
p280
aS'w-2=...'
p281
aS'w-2=60,000'
p282
aS'w-2=80,000'
p283
aS'w-2=Adams'
p284
aS'w-2=Airports'
p285
aS'w-2=Alliance'
p286
aS'w-2=Century'
p287
aS'w-2=Compean'
p288
aS'w-2=Fielding'
p289
aS'w-2=Nickelback'
p290
aS'w-2=Robert'
p291
aS'w-2=States'
p292
aS'w-2=U.S.'
p293
aS'w-2=Washington'
p294
aS'w-2=afford'
p295
aS'w-2=all'
p296
aS'w-2=also'
p297
aS'w-2=and'
p298
aS'w-2=ask'
p299
aS'w-2=barrier'
p300
aS'w-2=be'
p301
aS'w-2=billion'
p302
aS'w-2=can'
p303
aS'w-2=chip'
p304
aS'w-2=company'
p305
aS'w-2=country'
p306
aS'w-2=day'
p307
aS'w-2=decision'
p308
aS'w-2=exhibit'
p309
aS'w-2=five'
p310
aS'w-2=for'
p311
aS'w-2=from'
p312
aS'w-2=have'
p313
aS'w-2=he'
p314
aS'w-2=high-protein'
p315
aS'w-2=in'
p316
aS'w-2=it'
p317
aS'w-2=man'
p318
aS'w-2=many'
p319
aS'w-2=may'
p320
aS'w-2=member'
p321
aS'w-2=million'
p322
aS'w-2=motivate'
p323
aS'w-2=on'
p324
aS'w-2=or'
p325
aS'w-2=organ'
p326
aS'w-2=owner'
p327
aS'w-2=people'
p328
aS'w-2=plan'
p329
aS'w-2=pledge'
p330
aS'w-2=professional'
p331
aS'w-2=promise'
p332
aS'w-2=sector'
p333
aS'w-2=sell'
p334
aS'w-2=shopper'
p335
aS'w-2=slow'
p336
aS'w-2=soldier'
p337
aS'w-2=temporary'
p338
aS'w-2=that'
p339
aS'w-2=the'
p340
aS'w-2=they'
p341
aS'w-2=those'
p342
aS'w-2=to'
p343
aS'w-2=upon'
p344
aS'w-2=violence'
p345
aS'w-2=when'
p346
aS'w-2=which'
p347
aS'w-2=who'
p348
aS'w-2=will'
p349
aS'xcomp=assemble'
p350
aS'xcomp=distribute'
p351
aS'xcomp=finance'
p352
aS'xcomp=fund'
p353
aS'xcomp=get'
p354
aS'xcomp=help'
p355
aS'xcomp=purchase'
p356
asS'dtype'
p357
cnumpy
float64
p358
sS'vocabulary_'
p359
(dp360
g96
I87
sg302
I293
sg219
I210
sg326
I317
sg328
I319
sg61
I52
sg200
I191
sg51
I42
sg323
I314
sg75
I66
sg32
I23
sg341
I332
sg118
I109
sg157
I148
sg81
I72
sg112
I103
sg244
I235
sg291
I282
sg306
I297
sg338
I329
sg300
I291
sg278
I269
sg270
I261
sg191
I182
sg23
I14
sg133
I124
sg312
I303
sg121
I112
sg147
I138
sg283
I274
sg277
I268
sg252
I243
sg104
I95
sg250
I241
sg243
I234
sg340
I331
sg154
I145
sg256
I247
sg315
I306
sg348
I339
sg31
I22
sg123
I114
sg227
I218
sg327
I318
sg319
I310
sg198
I189
sg289
I280
sg260
I251
sg258
I249
sg150
I141
sg203
I194
sg285
I276
sg62
I53
sg296
I287
sg155
I146
sg228
I219
sg247
I238
sg17
I8
sg34
I25
sg229
I220
sg49
I40
sg138
I129
sg231
I222
sg276
I267
sg339
I330
sg158
I149
sg167
I158
sg18
I9
sg190
I181
sg159
I150
sg176
I167
sg9
I0
sg246
I237
sg101
I92
sg19
I10
sg116
I107
sg27
I18
sg181
I172
sg139
I130
sg287
I278
sg208
I199
sg336
I327
sg119
I110
sg209
I200
sg195
I186
sg13
I4
sg166
I157
sg71
I62
sg12
I3
sg199
I190
sg122
I113
sg188
I179
sg59
I50
sg262
I253
sg77
I68
sg46
I37
sg271
I262
sg230
I221
sg106
I97
sg21
I12
sg344
I335
sg333
I324
sg174
I165
sg216
I207
sg177
I168
sg108
I99
sg325
I316
sg100
I91
sg324
I315
sg272
I263
sg240
I231
sg165
I156
sg218
I209
sg52
I43
sg87
I78
sg254
I245
sg67
I58
sg152
I143
sg109
I100
sg253
I244
sg194
I185
sg192
I183
sg162
I153
sg237
I228
sg20
I11
sg226
I217
sg40
I31
sg114
I105
sg211
I202
sg308
I299
sg185
I176
sg337
I328
sg163
I154
sg184
I175
sg83
I74
sg293
I284
sg268
I259
sg239
I230
sg172
I163
sg28
I19
sg141
I132
sg72
I63
sg241
I232
sg205
I196
sg352
I343
sg148
I139
sg186
I177
sg182
I173
sg65
I56
sg129
I120
sg233
I224
sg342
I333
sg11
I2
sg10
I1
sg266
I257
sg331
I322
sg73
I64
sg215
I206
sg345
I336
sg93
I84
sg105
I96
sg305
I296
sg207
I198
sg161
I152
sg249
I240
sg274
I265
sg255
I246
sg196
I187
sg221
I212
sg282
I273
sg355
I346
sg206
I197
sg57
I48
sg79
I70
sg22
I13
sg91
I82
sg197
I188
sg47
I38
sg288
I279
sg347
I338
sg310
I301
sg175
I166
sg322
I313
sg82
I73
sg58
I49
sg54
I45
sg297
I288
sg26
I17
sg15
I6
sg76
I67
sg84
I75
sg94
I85
sg70
I61
sg329
I320
sg316
I307
sg307
I298
sg98
I89
sg317
I308
sg149
I140
sg173
I164
sg153
I144
sg214
I205
sg304
I295
sg202
I193
sg33
I24
sg16
I7
sg204
I195
sg50
I41
sg183
I174
sg269
I260
sg136
I127
sg89
I80
sg292
I283
sg86
I77
sg63
I54
sg313
I304
sg354
I345
sg29
I20
sg299
I290
sg169
I160
sg212
I203
sg145
I136
sg346
I337
sg335
I326
sg80
I71
sg275
I266
sg125
I116
sg68
I59
sg74
I65
sg178
I169
sg334
I325
sg92
I83
sg332
I323
sg30
I21
sg187
I178
sg42
I33
sg286
I277
sg41
I32
sg38
I29
sg356
I347
sg14
I5
sg156
I147
sg110
I101
sg128
I119
sg301
I292
sg217
I208
sg135
I126
sg99
I90
sg225
I216
sg120
I111
sg56
I47
sg90
I81
sg43
I34
sg85
I76
sg131
I122
sg107
I98
sg330
I321
sg303
I294
sg132
I123
sg265
I256
sg298
I289
sg179
I170
sg44
I35
sg343
I334
sg189
I180
sg251
I242
sg117
I108
sg222
I213
sg164
I155
sg127
I118
sg223
I214
sg160
I151
sg314
I305
sg295
I286
sg284
I275
sg257
I248
sg224
I215
sg349
I340
sg279
I270
sg280
I271
sg168
I159
sg24
I15
sg78
I69
sg235
I226
sg234
I225
sg248
I239
sg55
I46
sg144
I135
sg318
I309
sg137
I128
sg36
I27
sg320
I311
sg64
I55
sg290
I281
sg69
I60
sg220
I211
sg264
I255
sg273
I264
sg245
I236
sg111
I102
sg103
I94
sg45
I36
sg261
I252
sg39
I30
sg213
I204
sg321
I312
sg66
I57
sg236
I227
sg60
I51
sg140
I131
sg242
I233
sg151
I142
sg35
I26
sg263
I254
sg180
I171
sg48
I39
sg88
I79
sg95
I86
sg37
I28
sg115
I106
sg309
I300
sg210
I201
sg53
I44
sg353
I344
sg25
I16
sg201
I192
sg259
I250
sg124
I115
sg351
I342
sg142
I133
sg143
I134
sg126
I117
sg350
I341
sg238
I229
sg171
I162
sg281
I272
sg170
I161
sg113
I104
sg193
I184
sg134
I125
sg267
I258
sg97
I88
sg130
I121
sg146
I137
sg102
I93
sg311
I302
sg232
I223
sg294
I285
ssS'separator'
p361
S'='
sS'sparse'
p362
I01
sb.