ccopy_reg
_reconstructor
p1
(csklearn.feature_extraction.dict_vectorizer
DictVectorizer
p2
c__builtin__
object
p3
NtRp4
(dp5
S'vocabulary_'
p6
(dp7
S'w-1=she'
p8
I233
sS'nsubj=blast'
p9
I95
sS'w-1=town'
p10
I239
sS'w-1=after'
p11
I208
sS'dobj=foundation'
p12
I69
sS'w-1=for'
p13
I220
sS'nsubjpass=economy'
p14
I112
sS'w-2=would'
p15
I309
sS'advmod=badly'
p16
I11
sS'nsubj=fact'
p17
I101
sS'w+1=off'
p18
I149
sS'dobj=crowd'
p19
I64
sS'w-1=Brahms'
p20
I206
sS'w-1=bit'
p21
I215
sS'dobj=wall'
p22
I82
sS'w+2=and'
p23
I168
sS'w+1=.'
p24
I130
sS'w-2=leader'
p25
I277
sS'w+1=Perino'
p26
I131
sS'dobj=city'
p27
I61
sS'ccomp=want'
p28
I34
sS'w-1=:'
p29
I205
sS'nsubj=woman'
p30
I107
sS'nsubj=violence'
p31
I106
sS'w-1=badly'
p32
I213
sS'w-2=ruling'
p33
I293
sS'det=the'
p34
I49
sS'w-2=.'
p35
I245
sS'w-1=even'
p36
I219
sS'dobj=confidence'
p37
I62
sS'prep=by'
p38
I118
sS'w+2=hand'
p39
I182
sS'nsubj=and'
p40
I93
sS'w+2=.'
p41
I161
sS'dobj=head'
p42
I71
sS'prep=not'
p43
I120
sS'dobj=society'
p44
I81
sS'w-2=want'
p45
I305
sS'dobj=race'
p46
I78
sS'w-2=market'
p47
I280
sS'w+2=,'
p48
I160
sS'w+2=new'
p49
I188
sS'advcl=touch'
p50
I9
sS'w-2=suburb'
p51
I298
sS'w+1=confidence'
p52
I142
sS'nsubj=attack'
p53
I94
sS'w-2=of'
p54
I284
sS'w+2=merchant'
p55
I187
sS'nn=building'
p56
I87
sS'w-1=.'
p57
I204
sS'w-2=little'
p58
I279
sS'w-2=country'
p59
I261
sS'w-2=will'
p60
I307
sS'nsubj=flurry'
p61
I102
sS'dobj=country'
p62
I63
sS'w+1=up'
p63
I155
sS'ccomp=vigilant'
p64
I33
sS'dobj=President'
p65
I52
sS'w-1=,'
p66
I203
sS'w+2=Catholic'
p67
I164
sS'advmod=even'
p68
I12
sS'w-2=at'
p69
I254
sS'w-2=refuse'
p70
I291
sS'dobj=world'
p71
I83
sS'dobj=#PRP#'
p72
I50
sS'dobj=Church'
p73
I51
sS'w+1=any'
p74
I137
sS'prep=in'
p75
I119
sS'w+2=only'
p76
I190
sS'w-1=market'
p77
I228
sS'w+2=shiver'
p78
I195
sS'dobj=market'
p79
I75
sS'dobj=home'
p80
I72
sS'w-1=Perelevsky'
p81
I207
sS'w-2=crowded'
p82
I262
sS'dep=for'
p83
I47
sS'w-2=eye'
p84
I270
sS'w-2=he'
p85
I272
sS'w+2=basket'
p86
I171
sS'w-2=public'
p87
I290
sS'w+2=resolve'
p88
I192
sS'nsubjpass=Bhutto'
p89
I109
sS'dobj=Tirana'
p90
I53
sS'aux=will'
p91
I26
sS'advcl=announce'
p92
I1
sS'w-2=Bhutto'
p93
I247
sS'w+1=building'
p94
I140
sS'advmod=so'
p95
I19
sS'advmod=roughly'
p96
I18
sS'w-2=blasting'
p97
I257
sS'w-2=do'
p98
I266
sS'dobj=car'
p99
I59
sS'advmod=just'
p100
I15
sS'dobj=capital'
p101
I58
sS'w+2=the'
p102
I196
sS'prep=at'
p103
I116
sS'w+1=hand'
p104
I144
sS'w+1=at'
p105
I138
sS'w-2=I'
p106
I248
sS'nsubj=event'
p107
I100
sS'prep=with'
p108
I124
sS'cc=or'
p109
I32
sS'w+1=he'
p110
I145
sS'w-2=two'
p111
I304
sS'conj=lead'
p112
I38
sS'aux=have'
p113
I24
sS'w-2=describe'
p114
I264
sS'nsubjpass=that'
p115
I113
sS'w-1=and'
p116
I210
sS'w-1=they'
p117
I237
sS'w+2=to'
p118
I197
sS'w-2=try'
p119
I303
sS'w-1=violent'
p120
I240
sS'conj=express'
p121
I36
sS'mark=although'
p122
I84
sS'w-1=death'
p123
I217
sS'w-2=the'
p124
I300
sS'w-2=able'
p125
I252
sS'w+1=she'
p126
I151
sS'w-2=other'
p127
I285
sS'nsubjpass=SWAPO'
p128
I110
sS'w-1=be'
p129
I214
sS'prep=while'
p130
I123
sS'advcl=come'
p131
I5
sS'w-1=building'
p132
I216
sS'w+1=Rajasthan'
p133
I133
sS'w-1=to'
p134
I238
sS'w-2=continue'
p135
I260
sS'w-1=woman'
p136
I242
sS'w+1=just'
p137
I146
sS'w-2=event'
p138
I268
sS'nsubj=Sharif'
p139
I91
sS'nsubj=demonstration'
p140
I99
sS'mark=because'
p141
I85
sS'w+1=two'
p142
I154
sS'w+2=country'
p143
I177
sS'nsubjpass=country'
p144
I111
sS'advmod=when'
p145
I21
sS'dobj=lineup'
p146
I74
sS'xcomp=seal'
p147
I312
sS'dobj=belief'
p148
I56
sS"w+2=shi'ite"
p149
I194
sS'advmod=really'
p150
I17
sS'w+1=down'
p151
I143
sS'w+1=on'
p152
I150
sS'advcl=explode'
p153
I6
sS'w-2=a'
p154
I251
sS'nsubj=airplane'
p155
I92
sS'w+2=Bush'
p156
I163
sS'w-2=nothing'
p157
I282
sS'advmod=literally'
p158
I16
sS'w-2=powerful'
p159
I289
sS'aux=do'
p160
I23
sS'w+1=yourself'
p161
I158
sS'w-2=how'
p162
I275
sS'w+1=we'
p163
I157
sS'nsubj=force'
p164
I103
sS'w-1=have'
p165
I221
sS'w-1=appear'
p166
I212
sS'dobj=sector'
p167
I80
sS'nsubj=Perelevsky'
p168
I90
sS'w-1=visibly'
p169
I241
sS'w-1=organization'
p170
I230
sS'w+2=at'
p171
I170
sS'w+2=in'
p172
I185
sS'dobj=resolve'
p173
I79
sS'w-1=he'
p174
I222
sS'w-2=hope'
p175
I274
sS'advmod=visibly'
p176
I20
sS'conj=pose'
p177
I41
sS'w+2=fly'
p178
I179
sS'w+2=who'
p179
I200
sS'w-1=demonstration'
p180
I218
sS'w-2=appear'
p181
I253
sS'dobj=charge'
p182
I60
sS'w+2=belief'
p183
I173
sS'w-2=be'
p184
I255
sS'dep=#NUMBER#'
p185
I45
sS'nsubj=Brahms'
p186
I89
sS'dobj=basket'
p187
I55
sS'w-2=point'
p188
I287
sS'auxpass=be'
p189
I29
sS'xcomp=kill'
p190
I311
sS'complm=that'
p191
I35
sS'w-2=Nepal'
p192
I249
sS'auxpass=appear'
p193
I28
sS'w-1=really'
p194
I232
sS'w-2=son'
p195
I296
sS'nsubj=bombing'
p196
I96
sS'dobj=army'
p197
I54
sS'w+1=President'
p198
I132
sS'w-1=out'
p199
I231
sS'w-2=there'
p200
I301
sS'dobj=merchant'
p201
I77
sS'w-2=to'
p202
I302
sS'conj=lift'
p203
I39
sS'prep=before'
p204
I117
sS'w+2=but'
p205
I174
sS'cc=and'
p206
I30
sS'dobj=building'
p207
I57
sS'w-1=literally'
p208
I225
sS'advcl=be'
p209
I3
sS'dobj=landscape'
p210
I73
sS'nsubj=death'
p211
I98
sS'w+1=the'
p212
I152
sS'advcl=judiciary'
p213
I7
sS'w+2=a'
p214
I167
sS'w+2=home'
p215
I184
sS'aux=to'
p216
I25
sS'w+1=they'
p217
I153
sS'w+2=will'
p218
I201
sS'w-1=airplane'
p219
I209
sS'w-2=you'
p220
I310
sS"w+2='s"
p221
I159
sS'w-2=when'
p222
I306
sS'w+2=foundation'
p223
I180
sS'dobj=field'
p224
I66
sS'nsubjpass=#PRP#'
p225
I108
sS'conj=move'
p226
I40
sS'w+2=head'
p227
I183
sS'conj=say'
p228
I42
sS'advmod=how'
p229
I14
sS'aux=would'
p230
I27
sS'w-2=light'
p231
I278
sS'conj=intimidate'
p232
I37
sS'w+2=U.S.'
p233
I166
sS'w+1=wall'
p234
I156
sS'w+2=New'
p235
I165
sS'w-2=have'
p236
I271
sS'w-1=so'
p237
I234
sS'w+2=with'
p238
I202
sS'w-2=seem'
p239
I295
sS'nsubj=#PRP#'
p240
I88
sS'partmod=stop'
p241
I115
sS'w-2=desire'
p242
I265
sS'w-2=heart'
p243
I273
sS'advmod=for'
p244
I13
sS'dobj=hand'
p245
I70
sS'w-2=start'
p246
I297
sS'w+1=not'
p247
I148
sS'w+1=after'
p248
I135
sS'w+1=my'
p249
I147
sS'prt=off'
p250
I126
sS'w+2=confidence'
p251
I176
sS'prep=to'
p252
I122
sS'w+2=traditional'
p253
I198
sS'cc=but'
p254
I31
sS'w+1=before'
p255
I139
sS'w+2=political'
p256
I191
sS'w+2=army'
p257
I169
sS'w-2=that'
p258
I299
sS'advmod=ago'
p259
I10
sS'conj=shiver'
p260
I43
sS'w+2=week'
p261
I199
sS'w-2=deal'
p262
I263
sS'w+1=and'
p263
I136
sS'w+2=;'
p264
I162
sS'w+2=before'
p265
I172
sS'acomp=very'
p266
I0
sS'w-2=potential'
p267
I288
sS'advcl=applaud'
p268
I2
sS'w-2=objective'
p269
I283
sS"w-2=''"
p270
I243
sS'tmod=week'
p271
I128
sS'w+1=,'
p272
I129
sS'partmod=occur'
p273
I114
sS'w-1=strong'
p274
I235
sS'w-2=out'
p275
I286
sS'conj=touch'
p276
I44
sS'w-2=laugh'
p277
I276
sS'dobj=disappointment'
p278
I65
sS'w+1=by'
p279
I141
sS'dobj=fist'
p280
I67
sS'w+2=on'
p281
I189
sS'w-1=local'
p282
I226
sS'w-2=SWAPO'
p283
I250
sS'neg=not'
p284
I86
sS'dobj=fly'
p285
I68
sS'w-2=explosion'
p286
I269
sS'nsubj=that'
p287
I105
sS'w+2=car'
p288
I175
sS'det=any'
p289
I48
sS'prt=up'
p290
I127
sS'w-2=Alexei'
p291
I246
sS'dep=at'
p292
I46
sS'w+2=roughly'
p293
I193
sS'nsubj=clergy'
p294
I97
sS'w-2=bombing'
p295
I258
sS'w+2=fist'
p296
I178
sS'w-2=scandal'
p297
I294
sS'w-2=begin'
p298
I256
sS'advcl=break'
p299
I4
sS'w-1=in'
p300
I223
sS'w-1=any'
p301
I211
sS'w-2=window'
p302
I308
sS'advcl=sentence'
p303
I8
sS'w-1=not'
p304
I229
sS'prt=down'
p305
I125
sS'w-2=minute'
p306
I281
sS'w+2=global'
p307
I181
sS'w-2=election'
p308
I267
sS'w+2=indian'
p309
I186
sS'dobj=medal'
p310
I76
sS'w-1=include'
p311
I224
sS'prep=on'
p312
I121
sS'w-1=that'
p313
I236
sS'aux=be'
p314
I22
sS'nsubj=man'
p315
I104
sS'w-2=rights'
p316
I292
sS'w+1=Tirana'
p317
I134
sS'w-1=man'
p318
I227
sS'w-2=by'
p319
I259
sS"w-2='s"
p320
I244
ssS'dtype'
p321
cnumpy
float64
p322
sS'feature_names_'
p323
(lp324
g266
ag92
ag268
ag209
ag299
ag131
ag153
ag213
ag303
ag50
ag259
ag16
ag68
ag244
ag229
ag100
ag158
ag150
ag96
ag95
ag176
ag145
ag314
ag160
ag113
ag216
ag91
ag230
ag193
ag189
ag206
ag254
ag109
ag64
ag28
ag191
ag121
ag232
ag112
ag203
ag226
ag177
ag228
ag260
ag276
ag185
ag292
ag83
ag289
ag34
ag72
ag73
ag65
ag90
ag197
ag187
ag148
ag207
ag101
ag99
ag182
ag27
ag37
ag62
ag19
ag278
ag224
ag280
ag285
ag12
ag245
ag42
ag80
ag210
ag146
ag79
ag310
ag201
ag46
ag173
ag167
ag44
ag22
ag71
ag122
ag141
ag284
ag56
ag240
ag186
ag168
ag139
ag155
ag40
ag53
ag9
ag196
ag294
ag211
ag140
ag107
ag17
ag61
ag164
ag315
ag287
ag31
ag30
ag225
ag89
ag128
ag144
ag14
ag115
ag273
ag241
ag103
ag204
ag38
ag75
ag43
ag312
ag252
ag130
ag108
ag305
ag250
ag290
ag271
ag272
ag24
ag26
ag198
ag133
ag317
ag248
ag263
ag74
ag105
ag255
ag94
ag279
ag52
ag151
ag104
ag110
ag137
ag249
ag247
ag18
ag152
ag126
ag212
ag217
ag142
ag63
ag234
ag163
ag161
ag221
ag48
ag41
ag264
ag156
ag67
ag235
ag233
ag214
ag23
ag257
ag171
ag86
ag265
ag183
ag205
ag288
ag251
ag143
ag296
ag178
ag223
ag307
ag39
ag227
ag215
ag172
ag309
ag55
ag49
ag281
ag76
ag256
ag88
ag293
ag149
ag78
ag102
ag118
ag253
ag261
ag179
ag218
ag238
ag66
ag57
ag29
ag20
ag81
ag11
ag219
ag116
ag301
ag166
ag32
ag129
ag21
ag132
ag123
ag180
ag36
ag13
ag165
ag174
ag300
ag311
ag208
ag282
ag318
ag77
ag304
ag170
ag199
ag194
ag8
ag237
ag274
ag313
ag117
ag134
ag10
ag120
ag169
ag136
ag270
ag320
ag35
ag291
ag93
ag106
ag192
ag283
ag154
ag125
ag181
ag69
ag184
ag298
ag97
ag295
ag319
ag135
ag59
ag82
ag262
ag114
ag242
ag98
ag308
ag138
ag286
ag84
ag236
ag85
ag243
ag175
ag162
ag277
ag25
ag231
ag58
ag47
ag306
ag157
ag269
ag54
ag127
ag275
ag188
ag267
ag159
ag87
ag70
ag316
ag33
ag297
ag239
ag195
ag246
ag51
ag258
ag124
ag200
ag202
ag119
ag111
ag45
ag222
ag60
ag302
ag15
ag220
ag190
ag147
asS'separator'
p325
S'='
sS'sparse'
p326
I01
sb.