ccopy_reg
_reconstructor
p1
(csklearn.feature_extraction.dict_vectorizer
DictVectorizer
p2
c__builtin__
object
p3
NtRp4
(dp5
S'vocabulary_'
p6
(dp7
S'w-2=outrageous'
p8
I132
sS'prep=before'
p9
I31
sS'w+2=upstream'
p10
I91
sS'dep=do'
p11
I16
sS'w+1=intent'
p12
I53
sS'w+1=foot-dragging'
p13
I50
sS'w+2=during'
p14
I76
sS'w+2=less'
p15
I81
sS'w+1=strategy'
p16
I61
sS'w+2=retreat'
p17
I85
sS'w+2=that'
p18
I87
sS'w-2=concentrated'
p19
I121
sS'w-2=would'
p20
I141
sS'w+1=poisoning'
p21
I57
sS'w-2=story'
p22
I135
sS'w-2=or'
p23
I131
sS'dobj=funding'
p24
I18
sS'w+1=haste'
p25
I52
sS'w+2=inside'
p26
I80
sS'w-2=of'
p27
I130
sS'w-1=of'
p28
I105
sS'nsubj=failure'
p29
I26
sS'w-1=to'
p30
I108
sS'w-2=to'
p31
I138
sS'w+2=and'
p32
I71
sS'w-1=,'
p33
I93
sS'w-1=start'
p34
I106
sS'w-2=emphasize'
p35
I123
sS'w+2=Pentagon'
p36
I70
sS'w-2=do'
p37
I122
sS'w-2=these'
p38
I137
sS'w+1=policy'
p39
I58
sS'w-2=expect'
p40
I124
sS'mark=while'
p41
I21
sS'cop=be'
p42
I15
sS'w+2=over'
p43
I84
sS'w-2=complaint'
p44
I120
sS'w+1=scheme'
p45
I59
sS'nsubj=that'
p46
I29
sS'w+2=month'
p47
I82
sS'w+2=unprovoked'
p48
I90
sS'w+1=way'
p49
I66
sS'w+2=the'
p50
I88
sS'w+1=war'
p51
I65
sS'w-2=,'
p52
I111
sS'cc=or'
p53
I8
sS'aux=have'
p54
I4
sS'w-1=by'
p55
I102
sS'w-1=be'
p56
I101
sS'w-2=judge'
p57
I127
sS'amod=concentrated'
p58
I2
sS'nsubj=Congress'
p59
I24
sS'w-2=in'
p60
I126
sS'w+2=case'
p61
I75
sS'w-2=as'
p62
I116
sS'w+1=act'
p63
I41
sS'w+1=attempt'
p64
I44
sS'advmod=when'
p65
I0
sS'w-2=case'
p66
I119
sS'w+2=to'
p67
I89
sS'w+1=on'
p68
I55
sS'w+2=funding'
p69
I78
sS'w-2=recent'
p70
I134
sS'w-2=a'
p71
I115
sS'w-1=Miami'
p72
I95
sS'purpcl=try'
p73
I35
sS'nsubj=executive'
p74
I25
sS'prep=for'
p75
I32
sS'w+1=or'
p76
I56
sS'w-1=a'
p77
I97
sS'w-1=`'
p78
I96
sS'w-2=justify'
p79
I129
sS'w-1=have'
p80
I103
sS'w-1=Congress'
p81
I94
sS"w+2=''"
p82
I67
sS'w+1=targeting'
p83
I64
sS'w+2=inadvertent'
p84
I79
sS'w+2=four'
p85
I77
sS'w+2=approach'
p86
I72
sS'w+1=campaign'
p87
I47
sS'nsubj=lapse'
p88
I28
sS'w-2=authority'
p89
I117
sS'nsubj=jury'
p90
I27
sS'w-2=with'
p91
I140
sS'conj=inadvertent'
p92
I12
sS'conj=reach'
p93
I14
sS'conj=operate'
p94
I13
sS'conj=haste'
p95
I11
sS'w-2=have'
p96
I125
sS'cc=and'
p97
I7
sS'w+2=by'
p98
I73
sS'w-2=be'
p99
I118
sS'ccomp=refuse'
p100
I9
sS'w+1=be'
p101
I45
sS'w+1=mutilation'
p102
I54
sS'w+2=careful'
p103
I74
sS'w-2=when'
p104
I139
sS'w+1=blow'
p105
I46
sS'w+1=slander'
p106
I60
sS'w+2=than'
p107
I86
sS'prep=in'
p108
I33
sS'w+1=taking'
p109
I63
sS'aux=would'
p110
I6
sS'w+1=for'
p111
I51
sS'w-1=all'
p112
I98
sS'nsubj=#PRP#'
p113
I23
sS'w+1=attack'
p114
I43
sS"w-1=''"
p115
I92
sS'w-2=jury'
p116
I128
sS"w+1=''"
p117
I37
sS'amod=apparent'
p118
I1
sS'w-1=we'
p119
I109
sS'aux=to'
p120
I5
sS'w-2=pursue'
p121
I133
sS'w-1=apparent'
p122
I100
sS'w+1=and'
p123
I42
sS"w+1='"
p124
I36
sS'dobj=case'
p125
I17
sS'w+1=control'
p126
I49
sS"w-2=''"
p127
I110
sS'w+1=,'
p128
I38
sS'w+1=.'
p129
I39
sS'w+2=of'
p130
I83
sS'w-2=that'
p131
I136
sS'w+2=.'
p132
I69
sS'w+2=,'
p133
I68
sS'w-2=Litvinenko'
p134
I113
sS'neg=not'
p135
I22
sS'nsubj=thing'
p136
I30
sS'w-1=and'
p137
I99
sS'w+1=tactical'
p138
I62
sS'w-2=Monday'
p139
I114
sS'w+1=a'
p140
I40
sS'w-1=not'
p141
I104
sS'w-2=-rrb-'
p142
I112
sS'w-1=the'
p143
I107
sS'prep=on'
p144
I34
sS'mark=after'
p145
I19
sS'conj=careful'
p146
I10
sS'aux=be'
p147
I3
sS'mark=if'
p148
I20
sS'w+1=contamination'
p149
I48
ssS'dtype'
p150
cnumpy
float64
p151
sS'feature_names_'
p152
(lp153
g65
ag118
ag58
ag147
ag54
ag120
ag110
ag97
ag53
ag100
ag146
ag95
ag92
ag94
ag93
ag42
ag11
ag125
ag24
ag145
ag148
ag41
ag135
ag113
ag59
ag74
ag29
ag90
ag88
ag46
ag136
ag9
ag75
ag108
ag144
ag73
ag124
ag117
ag128
ag129
ag140
ag63
ag123
ag114
ag64
ag101
ag105
ag87
ag149
ag126
ag13
ag111
ag25
ag12
ag102
ag68
ag76
ag21
ag39
ag45
ag106
ag16
ag138
ag109
ag83
ag51
ag49
ag82
ag133
ag132
ag36
ag32
ag86
ag98
ag103
ag61
ag14
ag85
ag69
ag84
ag26
ag15
ag47
ag130
ag43
ag17
ag107
ag18
ag50
ag67
ag48
ag10
ag115
ag33
ag81
ag72
ag78
ag77
ag112
ag137
ag122
ag56
ag55
ag80
ag141
ag28
ag34
ag143
ag30
ag119
ag127
ag52
ag142
ag134
ag139
ag71
ag62
ag89
ag99
ag66
ag44
ag19
ag37
ag35
ag40
ag96
ag60
ag57
ag116
ag79
ag27
ag23
ag8
ag121
ag70
ag22
ag131
ag38
ag31
ag104
ag91
ag20
asS'separator'
p154
S'='
sS'sparse'
p155
I01
sb.