ccopy_reg
_reconstructor
p1
(csklearn.feature_extraction.dict_vectorizer
DictVectorizer
p2
c__builtin__
object
p3
NtRp4
(dp5
S'sort'
p6
I01
sS'feature_names_'
p7
(lp8
S'acomp=wet'
p9
aS'advmod=only'
p10
aS'aux=be'
p11
aS'ccomp=#NUMBER#'
p12
aS'dobj=sewage'
p13
aS'nsubj=who'
p14
aS'prep=with'
p15
aS'w+1=feed'
p16
aS'w+1=irrigation'
p17
aS'w+1=sewage'
p18
aS'w+1=wet'
p19
aS'w+1=with'
p20
aS'w+2=,'
p21
aS'w+2=.'
p22
aS'w+2=be'
p23
aS'w+2=equipment'
p24
aS'w+2=from'
p25
aS'w+2=not'
p26
aS'w+2=of'
p27
aS'w+2=river'
p28
aS'w+2=system'
p29
aS'w+2=will'
p30
aS'w-1=.'
p31
aS'w-1=and'
p32
aS'w-1=be'
p33
aS'w-1=because'
p34
aS'w-1=face'
p35
aS'w-1=hope'
p36
aS'w-1=same'
p37
aS'w-1=that'
p38
aS'w-1=the'
p39
aS'w-1=these'
p40
aS'w-1=through'
p41
aS'w-2=,'
p42
aS'w-2=College'
p43
aS'w-2=agriculture-it'
p44
aS'w-2=country'
p45
aS'w-2=he'
p46
aS'w-2=keep'
p47
aS'w-2=of'
p48
aS'w-2=plant'
p49
aS'w-2=pump'
p50
aS'w-2=skin'
p51
aS'w-2=the'
p52
aS'w-2=who'
p53
asS'dtype'
p54
cnumpy
float64
p55
sS'vocabulary_'
p56
(dp57
g29
I20
sg46
I37
sg9
I0
sg12
I3
sg19
I10
sg25
I16
sg20
I11
sg51
I42
sg44
I35
sg36
I27
sg42
I33
sg15
I6
sg16
I7
sg34
I25
sg26
I17
sg27
I18
sg28
I19
sg33
I24
sg22
I13
sg21
I12
sg31
I22
sg40
I31
sg47
I38
sg39
I30
sg52
I43
sg43
I34
sg41
I32
sg32
I23
sg14
I5
sg35
I26
sg48
I39
sg10
I1
sg23
I14
sg30
I21
sg50
I41
sg53
I44
sg45
I36
sg24
I15
sg49
I40
sg37
I28
sg18
I9
sg38
I29
sg11
I2
sg17
I8
sg13
I4
ssS'separator'
p58
S'='
sS'sparse'
p59
I01
sb.