ccopy_reg
_reconstructor
p1
(csklearn.feature_extraction.dict_vectorizer
DictVectorizer
p2
c__builtin__
object
p3
NtRp4
(dp5
S'sort'
p6
I01
sS'feature_names_'
p7
(lp8
S'advcl=be'
p9
aS'advcl=believe'
p10
aS'advcl=call'
p11
aS'advcl=delay'
p12
aS'advcl=independent'
p13
aS'advcl=lecture'
p14
aS'advcl=make'
p15
aS'advcl=note'
p16
aS'advcl=put'
p17
aS'advcl=reap'
p18
aS'advcl=reluctant'
p19
aS'advcl=say'
p20
aS'advmod=also'
p21
aS'advmod=consistently'
p22
aS'advmod=especially'
p23
aS'advmod=even'
p24
aS'advmod=far'
p25
aS'advmod=how'
p26
aS'advmod=however'
p27
aS'advmod=initially'
p28
aS'advmod=long'
p29
aS'advmod=really'
p30
aS'advmod=repeatedly'
p31
aS'advmod=still'
p32
aS'aux=be'
p33
aS'aux=can'
p34
aS'aux=could'
p35
aS'aux=do'
p36
aS'aux=have'
p37
aS'aux=must'
p38
aS'aux=to'
p39
aS'aux=will'
p40
aS'auxpass=be'
p41
aS'cc=and'
p42
aS'cc=but'
p43
aS'ccomp=believe'
p44
aS'ccomp=deploy'
p45
aS'ccomp=give'
p46
aS'ccomp=irrelevant'
p47
aS'ccomp=say'
p48
aS'complm=that'
p49
aS'conj=blame'
p50
aS'conj=deny'
p51
aS'conj=know'
p52
aS'conj=preserve'
p53
aS'conj=say'
p54
aS'conj=settle'
p55
aS'conj=strengthen'
p56
aS'conj=work'
p57
aS'dep=attack'
p58
aS'dep=demand'
p59
aS'dep=empire'
p60
aS'dep=hard'
p61
aS'dep=lead'
p62
aS'dep=leave'
p63
aS'dep=see'
p64
aS'dep=that'
p65
aS'dep=will'
p66
aS'dobj=#PRP#'
p67
aS'dobj=Council'
p68
aS'dobj=U.N.'
p69
aS'dobj=action'
p70
aS'dobj=allure'
p71
aS'dobj=appeal'
p72
aS'dobj=arrest'
p73
aS'dobj=attempt'
p74
aS'dobj=authority'
p75
aS'dobj=ban'
p76
aS'dobj=behavior'
p77
aS'dobj=call'
p78
aS'dobj=captivity'
p79
aS'dobj=change'
p80
aS'dobj=communism'
p81
aS'dobj=control'
p82
aS'dobj=convention'
p83
aS'dobj=coup'
p84
aS'dobj=crack'
p85
aS'dobj=culling'
p86
aS'dobj=deadline'
p87
aS'dobj=deal'
p88
aS'dobj=demand'
p89
aS'dobj=discussion'
p90
aS'dobj=dismissal'
p91
aS'dobj=drug'
p92
aS'dobj=effort'
p93
aS'dobj=fighter'
p94
aS'dobj=government'
p95
aS'dobj=hijacker'
p96
aS'dobj=hour'
p97
aS'dobj=idea'
p98
aS'dobj=interference'
p99
aS'dobj=jab'
p100
aS'dobj=lure'
p101
aS'dobj=occupation'
p102
aS'dobj=oppression'
p103
aS'dobj=phase'
p104
aS'dobj=plan'
p105
aS'dobj=pressure'
p106
aS'dobj=project'
p107
aS'dobj=proposal'
p108
aS'dobj=reform'
p109
aS'dobj=removal'
p110
aS'dobj=request'
p111
aS'dobj=resettlement'
p112
aS'dobj=role'
p113
aS'dobj=sanction'
p114
aS'dobj=statement'
p115
aS'dobj=subpoena'
p116
aS'dobj=suggestion'
p117
aS'dobj=temptation'
p118
aS'dobj=term'
p119
aS'dobj=this'
p120
aS'dobj=threat'
p121
aS'dobj=treatment'
p122
aS'dobj=trend'
p123
aS'dobj=will'
p124
aS'mark=although'
p125
aS'mark=because'
p126
aS'mark=for'
p127
aS'mark=though'
p128
aS'mark=while'
p129
aS'neg=not'
p130
aS'nsubj=#PRP#'
p131
aS'nsubj=Africa'
p132
aS'nsubj=Army'
p133
aS'nsubj=BOJ'
p134
aS'nsubj=Burnett'
p135
aS'nsubj=Bush'
p136
aS'nsubj=Castro'
p137
aS'nsubj=Chad'
p138
aS'nsubj=China'
p139
aS'nsubj=Clinton'
p140
aS'nsubj=Ethiopia'
p141
aS'nsubj=Gonzales'
p142
aS'nsubj=Havana'
p143
aS'nsubj=India'
p144
aS'nsubj=Japan'
p145
aS'nsubj=Khartoum'
p146
aS'nsubj=Korea'
p147
aS'nsubj=Lebanon'
p148
aS'nsubj=Mai'
p149
aS'nsubj=Moscow'
p150
aS'nsubj=Musharraf'
p151
aS'nsubj=Ossetia'
p152
aS'nsubj=Pakistan'
p153
aS'nsubj=Russia'
p154
aS'nsubj=Satterfield'
p155
aS'nsubj=States'
p156
aS'nsubj=Sudan'
p157
aS'nsubj=al-Bashir'
p158
aS'nsubj=bishop'
p159
aS'nsubj=cartel'
p160
aS'nsubj=client'
p161
aS'nsubj=company'
p162
aS'nsubj=country'
p163
aS'nsubj=decade'
p164
aS'nsubj=deputy'
p165
aS'nsubj=elite'
p166
aS'nsubj=generation'
p167
aS'nsubj=government'
p168
aS'nsubj=leader'
p169
aS'nsubj=librarian'
p170
aS'nsubj=member'
p171
aS'nsubj=minister'
p172
aS'nsubj=opposition'
p173
aS'nsubj=people'
p174
aS'nsubj=politician'
p175
aS'nsubj=president'
p176
aS'nsubj=prosecutor'
p177
aS'nsubj=regime'
p178
aS'nsubj=speaker'
p179
aS'nsubj=that'
p180
aS'nsubj=villager'
p181
aS'nsubj=which'
p182
aS'nsubj=who'
p183
aS'nsubjpass=kind'
p184
aS'partmod=argue'
p185
aS'partmod=insist'
p186
aS'partmod=pledge'
p187
aS'partmod=say'
p188
aS'prep=after'
p189
aS'prep=against'
p190
aS'prep=at'
p191
aS'prep=by'
p192
aS'prep=despite'
p193
aS'prep=for'
p194
aS'prep=from'
p195
aS'prep=in'
p196
aS'prep=of'
p197
aS'prep=on'
p198
aS'prep=since'
p199
aS'prep=to'
p200
aS'prep=unlike'
p201
aS'prep=until'
p202
aS"w+1=''"
p203
aS'w+1=,'
p204
aS'w+1=.'
p205
aS'w+1=Poland'
p206
aS'w+1=U.S.'
p207
aS'w+1=a'
p208
aS'w+1=and'
p209
aS'w+1=any'
p210
aS'w+1=arrest'
p211
aS'w+1=at'
p212
aS'w+1=attempt'
p213
aS'w+1=be'
p214
aS'w+1=call'
p215
aS'w+1=captivity'
p216
aS'w+1=central'
p217
aS'w+1=change'
p218
aS'w+1=climate'
p219
aS'w+1=communism'
p220
aS'w+1=congressional'
p221
aS'w+1=control'
p222
aS'w+1=crack'
p223
aS'w+1=deployment'
p224
aS'w+1=drug'
p225
aS'w+1=effort'
p226
aS'w+1=fewer'
p227
aS'w+1=for'
p228
aS'w+1=foreign'
p229
aS'w+1=further'
p230
aS'w+1=give'
p231
aS'w+1=government'
p232
aS'w+1=he'
p233
aS'w+1=in'
p234
aS'w+1=international'
p235
aS'w+1=it'
p236
aS'w+1=make'
p237
aS'w+1=most'
p238
aS'w+1=occupation'
p239
aS'w+1=oppression'
p240
aS'w+1=permanent'
p241
aS'w+1=pressure'
p242
aS'w+1=propose'
p243
aS'w+1=provocative'
p244
aS'w+1=public'
p245
aS'w+1=reform'
p246
aS'w+1=request'
p247
aS'w+1=say'
p248
aS'w+1=she'
p249
aS'w+1=such'
p250
aS'w+1=suggestion'
p251
aS'w+1=surf'
p252
aS'w+1=that'
p253
aS'w+1=the'
p254
aS'w+1=these'
p255
aS'w+1=they'
p256
aS'w+1=this'
p257
aS'w+1=tougher'
p258
aS'w+1=what'
p259
aS"w+2=''"
p260
aS"w+2='s"
p261
aS'w+2=,'
p262
aS'w+2=-lrb-'
p263
aS'w+2=.'
p264
aS'w+2=Afghan'
p265
aS'w+2=Khartoum'
p266
aS'w+2=Security'
p267
aS'w+2=UN'
p268
aS'w+2=a'
p269
aS'w+2=action'
p270
aS'w+2=all'
p271
aS'w+2=allure'
p272
aS'w+2=and'
p273
aS'w+2=any'
p274
aS'w+2=appeal'
p275
aS'w+2=as'
p276
aS'w+2=at'
p277
aS'w+2=attempted'
p278
aS'w+2=authority'
p279
aS'w+2=ban'
p280
aS'w+2=barbarian'
p281
aS'w+2=but'
p282
aS'w+2=by'
p283
aS'w+2=call'
p284
aS'w+2=change'
p285
aS'w+2=costly'
p286
aS'w+2=culling'
p287
aS'w+2=deal'
p288
aS'w+2=deeper'
p289
aS'w+2=demand'
p290
aS'w+2=discussion'
p291
aS'w+2=draft'
p292
aS'w+2=drug'
p293
aS'w+2=effort'
p294
aS'w+2=either'
p295
aS'w+2=especially'
p296
aS'w+2=first'
p297
aS'w+2=for'
p298
aS'w+2=from'
p299
aS'w+2=government'
p300
aS'w+2=hijacker'
p301
aS'w+2=hour'
p302
aS'w+2=idea'
p303
aS'w+2=immediate'
p304
aS'w+2=in'
p305
aS'w+2=interference'
p306
aS'w+2=islamic'
p307
aS'w+2=israeli'
p308
aS'w+2=lure'
p309
aS'w+2=not'
p310
aS'w+2=of'
p311
aS'w+2=or'
p312
aS'w+2=partisan'
p313
aS'w+2=pressure'
p314
aS'w+2=removal'
p315
aS'w+2=resettlement'
p316
aS'w+2=role'
p317
aS'w+2=say'
p318
aS'w+2=she'
p319
aS'w+2=so-called'
p320
aS'w+2=subpoena'
p321
aS'w+2=temptation'
p322
aS'w+2=term'
p323
aS'w+2=that'
p324
aS'w+2=the'
p325
aS'w+2=they'
p326
aS'w+2=third'
p327
aS'w+2=threat'
p328
aS'w+2=to'
p329
aS'w+2=trend'
p330
aS'w+2=troop'
p331
aS'w+2=two'
p332
aS'w+2=u.s.-backed'
p333
aS'w+2=vice'
p334
aS'w+2=warn'
p335
aS'w+2=what'
p336
aS'w+2=will'
p337
aS'w-1=,'
p338
aS'w-1=.'
p339
aS'w-1=Americans'
p340
aS'w-1=BOJ'
p341
aS'w-1=Castro'
p342
aS'w-1=Havana'
p343
aS'w-1=India'
p344
aS'w-1=Korea'
p345
aS'w-1=Lebanon'
p346
aS'w-1=Mai'
p347
aS'w-1=Satterfield'
p348
aS'w-1=after'
p349
aS'w-1=also'
p350
aS'w-1=and'
p351
aS'w-1=be'
p352
aS'w-1=by'
p353
aS'w-1=can'
p354
aS'w-1=company'
p355
aS'w-1=consistently'
p356
aS'w-1=could'
p357
aS'w-1=date'
p358
aS'w-1=decade'
p359
aS'w-1=far'
p360
aS'w-1=for'
p361
aS'w-1=have'
p362
aS'w-1=he'
p363
aS'w-1=help'
p364
aS'w-1=in'
p365
aS'w-1=initially'
p366
aS'w-1=leader'
p367
aS'w-1=long'
p368
aS'w-1=not'
p369
aS'w-1=now'
p370
aS'w-1=of'
p371
aS'w-1=on'
p372
aS'w-1=passenger'
p373
aS'w-1=people'
p374
aS'w-1=prosecutor'
p375
aS'w-1=really'
p376
aS'w-1=repeatedly'
p377
aS'w-1=she'
p378
aS'w-1=still'
p379
aS'w-1=that'
p380
aS'w-1=they'
p381
aS'w-1=those'
p382
aS'w-1=to'
p383
aS'w-1=villager'
p384
aS'w-1=while'
p385
aS'w-1=who'
p386
aS'w-1=will'
p387
aS"w-2=''"
p388
aS'w-2=,'
p389
aS'w-2=.'
p390
aS'w-2=Ambassador'
p391
aS'w-2=Army'
p392
aS'w-2=Bush'
p393
aS'w-2=Chad'
p394
aS'w-2=China'
p395
aS'w-2=House'
p396
aS'w-2=I'
p397
aS'w-2=India'
p398
aS'w-2=Japan'
p399
aS'w-2=Khartoum'
p400
aS'w-2=Mai'
p401
aS'w-2=Moscow'
p402
aS'w-2=Mr.'
p403
aS'w-2=Musharraf'
p404
aS'w-2=North'
p405
aS'w-2=States'
p406
aS'w-2=Sudan'
p407
aS'w-2=able'
p408
aS'w-2=also'
p409
aS'w-2=and'
p410
aS'w-2=authority'
p411
aS'w-2=be'
p412
aS'w-2=calm'
p413
aS'w-2=client'
p414
aS'w-2=community'
p415
aS'w-2=continue'
p416
aS'w-2=could'
p417
aS'w-2=determination'
p418
aS'w-2=determine'
p419
aS'w-2=do'
p420
aS'w-2=drug'
p421
aS'w-2=enemy'
p422
aS'w-2=expect'
p423
aS'w-2=far'
p424
aS'w-2=fellow'
p425
aS'w-2=for'
p426
aS'w-2=force'
p427
aS'w-2=form'
p428
aS'w-2=government'
p429
aS'w-2=hard'
p430
aS'w-2=have'
p431
aS'w-2=he'
p432
aS'w-2=help'
p433
aS'w-2=human'
p434
aS'w-2=interest'
p435
aS'w-2=it'
p436
aS'w-2=jail'
p437
aS'w-2=leader'
p438
aS'w-2=likely'
p439
aS'w-2=member'
p440
aS'w-2=million'
p441
aS'w-2=must'
p442
aS'w-2=nationalism'
p443
aS'w-2=of'
p444
aS'w-2=oil'
p445
aS'w-2=panel'
p446
aS'w-2=people'
p447
aS'w-2=politician'
p448
aS'w-2=powerful'
p449
aS'w-2=powerless'
p450
aS'w-2=president'
p451
aS'w-2=religious'
p452
aS'w-2=resource'
p453
aS'w-2=right'
p454
aS'w-2=say'
p455
aS'w-2=she'
p456
aS'w-2=so'
p457
aS'w-2=some'
p458
aS'w-2=start'
p459
aS'w-2=success'
p460
aS'w-2=tend'
p461
aS'w-2=that'
p462
aS'w-2=the'
p463
aS'w-2=those'
p464
aS'w-2=to'
p465
aS'w-2=try'
p466
aS'w-2=until'
p467
aS'w-2=victory'
p468
aS'w-2=villager'
p469
aS'w-2=vow'
p470
aS'w-2=way'
p471
aS'w-2=week'
p472
aS'w-2=which'
p473
aS'w-2=who'
p474
aS'w-2=will'
p475
aS'w-2=wish'
p476
aS'w-2=with'
p477
aS'w-2=year'
p478
aS'xcomp=boost'
p479
aS'xcomp=bring'
p480
aS'xcomp=change'
p481
aS'xcomp=end'
p482
aS'xcomp=force'
p483
aS'xcomp=get'
p484
aS'xcomp=give'
p485
aS'xcomp=have'
p486
aS'xcomp=include'
p487
aS'xcomp=influence'
p488
aS'xcomp=intervene'
p489
aS'xcomp=make'
p490
aS'xcomp=reverse'
p491
aS'xcomp=say'
p492
aS'xcomp=send'
p493
aS'xcomp=shift'
p494
aS'xcomp=surf'
p495
asS'dtype'
p496
cnumpy
float64
p497
sS'vocabulary_'
p498
(dp499
g242
I233
sg321
I312
sg90
I81
sg422
I413
sg447
I438
sg158
I149
sg494
I485
sg186
I177
sg59
I50
sg282
I273
sg70
I61
sg402
I393
sg146
I137
sg344
I335
sg106
I97
sg480
I471
sg192
I183
sg223
I214
sg253
I244
sg168
I159
sg482
I473
sg285
I276
sg405
I396
sg470
I461
sg68
I59
sg231
I222
sg255
I246
sg366
I357
sg184
I175
sg428
I419
sg471
I462
sg387
I378
sg93
I84
sg14
I5
sg22
I13
sg340
I331
sg178
I169
sg139
I130
sg352
I343
sg463
I454
sg249
I240
sg485
I476
sg169
I160
sg453
I444
sg206
I197
sg126
I117
sg474
I465
sg160
I151
sg329
I320
sg152
I143
sg56
I47
sg297
I288
sg115
I106
sg437
I428
sg495
I486
sg320
I311
sg362
I353
sg48
I39
sg263
I254
sg224
I215
sg60
I51
sg472
I463
sg335
I326
sg336
I327
sg47
I38
sg246
I237
sg357
I348
sg350
I341
sg34
I25
sg49
I40
sg376
I367
sg460
I451
sg64
I55
sg295
I286
sg122
I113
sg337
I328
sg232
I223
sg9
I0
sg157
I148
sg73
I64
sg254
I245
sg238
I229
sg334
I325
sg15
I6
sg256
I247
sg119
I110
sg300
I291
sg196
I187
sg71
I62
sg228
I219
sg148
I139
sg438
I429
sg19
I10
sg258
I249
sg211
I202
sg66
I57
sg313
I304
sg200
I191
sg373
I364
sg11
I2
sg121
I112
sg159
I150
sg170
I161
sg141
I132
sg469
I460
sg379
I370
sg209
I200
sg381
I372
sg111
I102
sg105
I96
sg128
I119
sg219
I210
sg194
I185
sg315
I306
sg171
I162
sg187
I178
sg210
I201
sg117
I108
sg180
I171
sg429
I420
sg365
I356
sg100
I91
sg252
I243
sg142
I133
sg251
I242
sg113
I104
sg91
I82
sg310
I301
sg133
I124
sg153
I144
sg185
I176
sg284
I275
sg221
I212
sg415
I406
sg291
I282
sg377
I368
sg183
I174
sg307
I298
sg393
I384
sg444
I435
sg298
I289
sg16
I7
sg383
I374
sg394
I385
sg23
I14
sg483
I474
sg67
I58
sg420
I411
sg145
I136
sg151
I142
sg120
I111
sg46
I37
sg215
I206
sg27
I18
sg294
I285
sg154
I145
sg270
I261
sg162
I153
sg233
I224
sg314
I305
sg271
I262
sg404
I395
sg127
I118
sg486
I477
sg354
I345
sg237
I228
sg155
I146
sg408
I399
sg41
I32
sg416
I407
sg110
I101
sg382
I373
sg317
I308
sg240
I231
sg31
I22
sg292
I283
sg172
I163
sg288
I279
sg75
I66
sg65
I56
sg492
I483
sg136
I127
sg277
I268
sg276
I267
sg175
I166
sg193
I184
sg403
I394
sg345
I336
sg468
I459
sg358
I349
sg28
I19
sg368
I359
sg118
I109
sg63
I54
sg356
I347
sg348
I339
sg29
I20
sg45
I36
sg88
I79
sg272
I263
sg32
I23
sg176
I167
sg147
I138
sg58
I49
sg318
I309
sg103
I94
sg226
I217
sg77
I68
sg227
I218
sg52
I43
sg479
I470
sg30
I21
sg239
I230
sg165
I156
sg464
I455
sg85
I76
sg144
I135
sg374
I365
sg116
I107
sg462
I453
sg425
I416
sg312
I303
sg388
I379
sg95
I86
sg311
I302
sg445
I436
sg316
I307
sg134
I125
sg18
I9
sg351
I342
sg266
I257
sg174
I165
sg104
I95
sg12
I3
sg385
I376
sg421
I412
sg488
I479
sg25
I16
sg435
I426
sg450
I441
sg216
I207
sg124
I115
sg378
I369
sg213
I204
sg392
I383
sg299
I290
sg332
I323
sg399
I390
sg247
I238
sg301
I292
sg353
I344
sg149
I140
sg330
I321
sg102
I93
sg235
I226
sg248
I239
sg489
I480
sg322
I313
sg55
I46
sg50
I41
sg265
I256
sg473
I464
sg69
I60
sg53
I44
sg177
I168
sg202
I193
sg24
I15
sg441
I432
sg423
I414
sg92
I83
sg129
I120
sg446
I437
sg36
I27
sg477
I468
sg409
I400
sg40
I31
sg44
I35
sg454
I445
sg137
I128
sg135
I126
sg156
I147
sg161
I152
sg401
I392
sg201
I192
sg267
I258
sg80
I71
sg286
I277
sg398
I389
sg395
I386
sg451
I442
sg309
I300
sg436
I427
sg241
I232
sg10
I1
sg150
I141
sg98
I89
sg229
I220
sg101
I92
sg419
I410
sg13
I4
sg349
I340
sg143
I134
sg289
I280
sg260
I251
sg163
I154
sg400
I391
sg76
I67
sg21
I12
sg167
I158
sg125
I116
sg430
I421
sg220
I211
sg491
I482
sg225
I216
sg328
I319
sg406
I397
sg62
I53
sg413
I404
sg57
I48
sg431
I422
sg484
I475
sg42
I33
sg140
I131
sg275
I266
sg214
I205
sg261
I252
sg487
I478
sg458
I449
sg54
I45
sg234
I225
sg418
I409
sg236
I227
sg131
I122
sg203
I194
sg43
I34
sg181
I172
sg268
I259
sg230
I221
sg244
I235
sg490
I481
sg364
I355
sg327
I318
sg35
I26
sg355
I346
sg375
I366
sg97
I88
sg302
I293
sg38
I29
sg123
I114
sg449
I440
sg319
I310
sg347
I338
sg411
I402
sg412
I403
sg78
I69
sg197
I188
sg448
I439
sg280
I271
sg442
I433
sg198
I189
sg222
I213
sg179
I170
sg182
I173
sg360
I351
sg417
I408
sg278
I269
sg306
I297
sg331
I322
sg424
I415
sg342
I333
sg341
I332
sg324
I315
sg372
I363
sg386
I377
sg138
I129
sg274
I265
sg367
I358
sg20
I11
sg371
I362
sg112
I103
sg465
I456
sg273
I264
sg410
I401
sg164
I155
sg466
I457
sg74
I65
sg257
I248
sg305
I296
sg456
I447
sg476
I467
sg432
I423
sg199
I190
sg455
I446
sg84
I75
sg325
I316
sg191
I182
sg475
I466
sg389
I380
sg390
I381
sg114
I105
sg259
I250
sg37
I28
sg89
I80
sg339
I330
sg338
I329
sg188
I179
sg397
I388
sg86
I77
sg303
I294
sg308
I299
sg108
I99
sg434
I425
sg87
I78
sg218
I209
sg414
I405
sg467
I458
sg391
I382
sg212
I203
sg457
I448
sg396
I387
sg363
I354
sg17
I8
sg440
I431
sg293
I284
sg461
I452
sg333
I324
sg326
I317
sg99
I90
sg343
I334
sg189
I180
sg173
I164
sg304
I295
sg94
I85
sg478
I469
sg481
I472
sg190
I181
sg132
I123
sg384
I375
sg452
I443
sg493
I484
sg439
I430
sg443
I434
sg109
I100
sg26
I17
sg166
I157
sg279
I270
sg195
I186
sg245
I236
sg323
I314
sg459
I450
sg433
I424
sg346
I337
sg281
I272
sg79
I70
sg39
I30
sg81
I72
sg250
I241
sg380
I371
sg96
I87
sg361
I352
sg204
I195
sg205
I196
sg283
I274
sg264
I255
sg262
I253
sg130
I121
sg243
I234
sg72
I63
sg82
I73
sg208
I199
sg370
I361
sg369
I360
sg296
I287
sg83
I74
sg290
I281
sg359
I350
sg287
I278
sg207
I198
sg61
I52
sg427
I418
sg33
I24
sg426
I417
sg51
I42
sg269
I260
sg217
I208
sg407
I398
sg107
I98
ssS'separator'
p500
S'='
sS'sparse'
p501
I01
sb.