ccopy_reg
_reconstructor
p1
(csklearn.feature_extraction.dict_vectorizer
DictVectorizer
p2
c__builtin__
object
p3
NtRp4
(dp5
S'sort'
p6
I01
sS'feature_names_'
p7
(lp8
S'advcl=consider'
p9
aS'advcl=flock'
p10
aS'advcl=get'
p11
aS'advcl=hit'
p12
aS'advcl=regain'
p13
aS'advcl=report'
p14
aS'advcl=say'
p15
aS'advcl=sign'
p16
aS'advmod=ago'
p17
aS'advmod=already'
p18
aS'advmod=better'
p19
aS'advmod=certainly'
p20
aS'advmod=eagerly'
p21
aS'advmod=highly'
p22
aS'advmod=however'
p23
aS'advmod=longer'
p24
aS'advmod=more'
p25
aS'advmod=perhaps'
p26
aS'advmod=quite'
p27
aS'advmod=widely'
p28
aS'advmod=year'
p29
aS'aux=be'
p30
aS'aux=can'
p31
aS'aux=do'
p32
aS'aux=have'
p33
aS'aux=to'
p34
aS'aux=will'
p35
aS'aux=would'
p36
aS'auxpass=be'
p37
aS'cc=and'
p38
aS'cc=but'
p39
aS'ccomp=able'
p40
aS'ccomp=be'
p41
aS'ccomp=cooperative'
p42
aS'ccomp=double'
p43
aS'ccomp=happen'
p44
aS'ccomp=have'
p45
aS'ccomp=increase'
p46
aS'ccomp=move'
p47
aS'ccomp=produce'
p48
aS'ccomp=receive'
p49
aS'ccomp=require'
p50
aS'complm=that'
p51
aS'conj=echo'
p52
aS'conj=fall'
p53
aS'conj=first'
p54
aS'conj=go'
p55
aS'dep=and'
p56
aS'dep=both'
p57
aS'dep=choose'
p58
aS'dep=not'
p59
aS'dobj=arrival'
p60
aS'dobj=attack'
p61
aS'dobj=continuity'
p62
aS'dobj=cooperation'
p63
aS'dobj=decision'
p64
aS'dobj=degree'
p65
aS'dobj=difficulty'
p66
aS'dobj=drop'
p67
aS'dobj=event'
p68
aS'dobj=impediment'
p69
aS'dobj=increase'
p70
aS'dobj=loss'
p71
aS'dobj=magnitude'
p72
aS'dobj=move'
p73
aS'dobj=outbreak'
p74
aS'dobj=period'
p75
aS'dobj=relaxation'
p76
aS'dobj=season'
p77
aS'dobj=that'
p78
aS'dobj=thing'
p79
aS'dobj=use'
p80
aS'dobj=violence'
p81
aS'dobj=what'
p82
aS'dobj=wintercrop'
p83
aS'dobj=year'
p84
aS'mark=although'
p85
aS'mark=as'
p86
aS'mark=because'
p87
aS'mark=so'
p88
aS'mark=than'
p89
aS'neg=not'
p90
aS'nsubj=#PRP#'
p91
aS'nsubj=Kosovars'
p92
aS'nsubj=Robertson'
p93
aS'nsubj=agency'
p94
aS'nsubj=economist'
p95
aS'nsubj=exporter'
p96
aS'nsubj=government'
p97
aS'nsubj=investor'
p98
aS'nsubj=many'
p99
aS'nsubj=market'
p100
aS'nsubj=recommendation'
p101
aS'nsubj=resident'
p102
aS'nsubj=scientist'
p103
aS'nsubjpass=#PRP#'
p104
aS'nsubjpass=apology'
p105
aS'nsubjpass=margin'
p106
aS'nsubjpass=meeting'
p107
aS'nsubjpass=move'
p108
aS'nsubjpass=rainfall'
p109
aS'nsubjpass=release'
p110
aS'nsubjpass=resignation'
p111
aS'nsubjpass=that'
p112
aS'parataxis=such'
p113
aS'prep=by'
p114
aS'prep=for'
p115
aS'prep=from'
p116
aS'prep=in'
p117
aS'prep=over'
p118
aS'prep=to'
p119
aS'prep=under'
p120
aS'tmod=#DATE#'
p121
aS'tmod=Yar'
p122
aS'tmod=report'
p123
aS'tmod=time'
p124
aS'tmod=year'
p125
aS"w+1=''"
p126
aS'w+1=,'
p127
aS'w+1=.'
p128
aS'w+1=President'
p129
aS'w+1=September'
p130
aS'w+1=a'
p131
aS'w+1=and'
p132
aS'w+1=any'
p133
aS'w+1=baby'
p134
aS'w+1=begin'
p135
aS'w+1=closer'
p136
aS'w+1=continued'
p137
aS'w+1=democratic'
p138
aS'w+1=disease'
p139
aS'w+1=each'
p140
aS'w+1=far'
p141
aS'w+1=for'
p142
aS'w+1=from'
p143
aS'w+1=go'
p144
aS'w+1=in'
p145
aS'w+1=just'
p146
aS'w+1=many'
p147
aS'w+1=meeting'
p148
aS'w+1=more'
p149
aS'w+1=next'
p150
aS'w+1=no'
p151
aS'w+1=over'
p152
aS'w+1=price'
p153
aS'w+1=sale'
p154
aS'w+1=since'
p155
aS'w+1=such'
p156
aS'w+1=that'
p157
aS'w+1=the'
p158
aS'w+1=thing'
p159
aS'w+1=to'
p160
aS'w+1=violence'
p161
aS'w+1=what'
p162
aS'w+1=when'
p163
aS'w+1=will'
p164
aS"w+2=''"
p165
aS'w+2=,'
p166
aS'w+2=.'
p167
aS'w+2=110,000'
p168
aS'w+2=30'
p169
aS'w+2=Gbagbo'
p170
aS'w+2=Yar'
p171
aS'w+2=additional'
p172
aS'w+2=and'
p173
aS'w+2=as'
p174
aS'w+2=attack'
p175
aS'w+2=between'
p176
aS'w+2=but'
p177
aS'w+2=continue'
p178
aS'w+2=continuity'
p179
aS'w+2=cooperation'
p180
aS'w+2=could'
p181
aS'w+2=crisis'
p182
aS'w+2=decision'
p183
aS'w+2=degree'
p184
aS'w+2=deploy'
p185
aS'w+2=difficulty'
p186
aS'w+2=dramatic'
p187
aS'w+2=drop'
p188
aS'w+2=echo'
p189
aS'w+2=fewer'
p190
aS'w+2=forward'
p191
aS'w+2=good'
p192
aS'w+2=have'
p193
aS'w+2=he'
p194
aS'w+2=impediment'
p195
aS'w+2=in'
p196
aS'w+2=include'
p197
aS'w+2=magnitude'
p198
aS'w+2=make'
p199
aS'w+2=might'
p200
aS'w+2=month'
p201
aS'w+2=more'
p202
aS'w+2=my'
p203
aS'w+2=new'
p204
aS'w+2=not'
p205
aS'w+2=of'
p206
aS'w+2=other'
p207
aS'w+2=outbreak'
p208
aS'w+2=race'
p209
aS'w+2=rainy'
p210
aS'w+2=real'
p211
aS'w+2=report'
p212
aS'w+2=soon'
p213
aS'w+2=the'
p214
aS'w+2=there'
p215
aS'w+2=they'
p216
aS'w+2=thing'
p217
aS'w+2=this'
p218
aS'w+2=to'
p219
aS'w+2=use'
p220
aS'w+2=very'
p221
aS'w+2=we'
p222
aS'w+2=week'
p223
aS'w+2=when'
p224
aS'w+2=year'
p225
aS'w-1=,'
p226
aS'w-1=I'
p227
aS'w-1=Robertson'
p228
aS'w-1=already'
p229
aS'w-1=be'
p230
aS'w-1=better'
p231
aS'w-1=both'
p232
aS'w-1=by'
p233
aS'w-1=certainly'
p234
aS'w-1=eagerly'
p235
aS'w-1=government'
p236
aS'w-1=have'
p237
aS'w-1=he'
p238
aS'w-1=highly'
p239
aS'w-1=investor'
p240
aS'w-1=it'
p241
aS'w-1=like'
p242
aS'w-1=longer'
p243
aS'w-1=not'
p244
aS'w-1=people'
p245
aS'w-1=quite'
p246
aS'w-1=reasonably'
p247
aS'w-1=she'
p248
aS'w-1=than'
p249
aS'w-1=they'
p250
aS'w-1=to'
p251
aS'w-1=we'
p252
aS'w-1=widely'
p253
aS'w-1=will'
p254
aS'w-1=would'
p255
aS"w-2=''"
p256
aS'w-2=,'
p257
aS'w-2=.'
p258
aS'w-2=I'
p259
aS'w-2=a'
p260
aS'w-2=agency'
p261
aS'w-2=also'
p262
aS'w-2=and'
p263
aS'w-2=be'
p264
aS'w-2=because'
p265
aS'w-2=best'
p266
aS'w-2=but'
p267
aS'w-2=can'
p268
aS'w-2=difficult'
p269
aS'w-2=do'
p270
aS'w-2=economist'
p271
aS'w-2=fail'
p272
aS'w-2=have'
p273
aS'w-2=however'
p274
aS'w-2=israeli'
p275
aS'w-2=less'
p276
aS'w-2=longer'
p277
aS'w-2=many'
p278
aS'w-2=month'
p279
aS'w-2=most'
p280
aS'w-2=no'
p281
aS'w-2=not'
p282
aS'w-2=rainfall'
p283
aS'w-2=say'
p284
aS'w-2=scientist'
p285
aS'w-2=than'
p286
aS'w-2=that'
p287
aS'w-2=the'
p288
aS'w-2=they'
p289
aS'w-2=try'
p290
aS'w-2=unison'
p291
aS'w-2=we'
p292
aS'w-2=worse'
p293
aS'w-2=would'
p294
aS'xcomp=#PRP#'
p295
aS'xcomp=begin'
p296
aS'xcomp=cause'
p297
aS'xcomp=continue'
p298
aS'xcomp=go'
p299
aS'xcomp=have'
p300
aS'xcomp=include'
p301
asS'dtype'
p302
cnumpy
float64
p303
sS'vocabulary_'
p304
(dp305
g144
I135
sg248
I239
sg148
I139
sg189
I180
sg170
I161
sg62
I53
sg154
I145
sg68
I59
sg59
I50
sg20
I11
sg60
I51
sg224
I215
sg29
I20
sg267
I258
sg246
I237
sg76
I67
sg271
I262
sg251
I242
sg48
I39
sg106
I97
sg203
I194
sg96
I87
sg205
I196
sg89
I80
sg190
I181
sg176
I167
sg47
I38
sg112
I103
sg182
I173
sg177
I168
sg195
I186
sg167
I158
sg152
I143
sg294
I285
sg80
I71
sg99
I90
sg135
I126
sg220
I211
sg212
I203
sg27
I18
sg281
I272
sg291
I282
sg210
I201
sg111
I102
sg64
I55
sg297
I288
sg15
I6
sg151
I142
sg289
I280
sg155
I146
sg69
I60
sg114
I105
sg173
I164
sg121
I112
sg263
I254
sg77
I68
sg232
I223
sg202
I193
sg157
I148
sg71
I62
sg65
I56
sg275
I266
sg97
I88
sg90
I81
sg221
I212
sg290
I281
sg255
I246
sg43
I34
sg124
I115
sg32
I23
sg70
I61
sg285
I276
sg92
I83
sg149
I140
sg262
I253
sg35
I26
sg280
I271
sg201
I192
sg93
I84
sg284
I275
sg299
I290
sg270
I261
sg23
I14
sg292
I283
sg123
I114
sg214
I205
sg145
I136
sg179
I170
sg254
I245
sg257
I248
sg63
I54
sg73
I64
sg161
I152
sg198
I189
sg211
I202
sg21
I12
sg25
I16
sg183
I174
sg171
I162
sg33
I24
sg94
I85
sg233
I224
sg45
I36
sg230
I221
sg300
I291
sg226
I217
sg55
I46
sg282
I273
sg178
I169
sg288
I279
sg134
I125
sg61
I52
sg259
I250
sg266
I257
sg18
I9
sg41
I32
sg136
I127
sg72
I63
sg81
I72
sg272
I263
sg146
I137
sg9
I0
sg87
I78
sg227
I218
sg109
I100
sg141
I132
sg56
I47
sg296
I287
sg82
I73
sg113
I104
sg66
I57
sg159
I150
sg278
I269
sg138
I129
sg247
I238
sg260
I251
sg168
I159
sg250
I241
sg153
I144
sg115
I106
sg58
I49
sg223
I214
sg199
I190
sg108
I99
sg11
I2
sg237
I228
sg125
I116
sg140
I131
sg13
I4
sg67
I58
sg105
I96
sg75
I66
sg53
I44
sg196
I187
sg86
I77
sg238
I229
sg174
I165
sg147
I138
sg215
I206
sg185
I176
sg175
I166
sg28
I19
sg143
I134
sg277
I268
sg85
I76
sg261
I252
sg22
I13
sg37
I28
sg31
I22
sg51
I42
sg162
I153
sg103
I94
sg88
I79
sg216
I207
sg169
I160
sg129
I120
sg243
I234
sg197
I188
sg234
I225
sg24
I15
sg273
I264
sg38
I29
sg240
I231
sg12
I3
sg120
I111
sg150
I141
sg287
I278
sg137
I128
sg158
I149
sg298
I289
sg264
I255
sg84
I75
sg295
I286
sg293
I284
sg286
I277
sg83
I74
sg39
I30
sg181
I172
sg200
I191
sg301
I292
sg49
I40
sg229
I220
sg104
I95
sg165
I156
sg217
I208
sg245
I236
sg117
I108
sg36
I27
sg204
I195
sg142
I133
sg236
I227
sg274
I265
sg219
I210
sg57
I48
sg186
I177
sg78
I69
sg91
I82
sg79
I70
sg116
I107
sg16
I7
sg207
I198
sg95
I86
sg163
I154
sg50
I41
sg126
I117
sg119
I110
sg252
I243
sg10
I1
sg34
I25
sg191
I182
sg107
I98
sg208
I199
sg193
I184
sg225
I216
sg118
I109
sg253
I244
sg156
I147
sg101
I92
sg17
I8
sg132
I123
sg279
I270
sg172
I163
sg187
I178
sg283
I274
sg192
I183
sg40
I31
sg256
I247
sg127
I118
sg128
I119
sg206
I197
sg239
I230
sg242
I233
sg26
I17
sg268
I259
sg166
I157
sg160
I151
sg228
I219
sg133
I124
sg74
I65
sg19
I10
sg241
I232
sg194
I185
sg54
I45
sg46
I37
sg188
I179
sg184
I175
sg258
I249
sg218
I209
sg235
I226
sg231
I222
sg102
I93
sg100
I91
sg110
I101
sg139
I130
sg209
I200
sg131
I122
sg164
I155
sg244
I235
sg44
I35
sg269
I260
sg249
I240
sg213
I204
sg265
I256
sg42
I33
sg130
I121
sg30
I21
sg14
I5
sg180
I171
sg122
I113
sg276
I267
sg98
I89
sg222
I213
sg52
I43
ssS'separator'
p306
S'='
sS'sparse'
p307
I01
sb.