ccopy_reg
_reconstructor
p1
(csklearn.feature_extraction.dict_vectorizer
DictVectorizer
p2
c__builtin__
object
p3
NtRp4
(dp5
S'sort'
p6
I01
sS'feature_names_'
p7
(lp8
S'advcl=arrive'
p9
aS'advcl=help'
p10
aS'advcl=kind'
p11
aS'advcl=part'
p12
aS'advcl=see'
p13
aS'advcl=time'
p14
aS'advmod=all'
p15
aS'advmod=also'
p16
aS'advmod=as'
p17
aS'advmod=definitely'
p18
aS'advmod=here'
p19
aS'advmod=increasingly'
p20
aS'advmod=just'
p21
aS'advmod=longer'
p22
aS'advmod=now'
p23
aS'advmod=overly'
p24
aS'advmod=quickly'
p25
aS'advmod=quite'
p26
aS'advmod=real'
p27
aS'advmod=really'
p28
aS'advmod=still'
p29
aS'advmod=too'
p30
aS'advmod=very'
p31
aS'aux=have'
p32
aS'aux=to'
p33
aS'aux=would'
p34
aS'auxpass=be'
p35
aS'auxpass=get'
p36
aS'auxpass=seem'
p37
aS'cc=and'
p38
aS'cc=but'
p39
aS'ccomp=bring'
p40
aS'ccomp=excite'
p41
aS'ccomp=get'
p42
aS'ccomp=walk'
p43
aS'complm=that'
p44
aS'conj=invigorate'
p45
aS'conj=question'
p46
aS'conj=say'
p47
aS'dep=as'
p48
aS'dep=because'
p49
aS'dep=excite'
p50
aS'dep=oh'
p51
aS'dep=scholar'
p52
aS'dep=so'
p53
aS'dep=sure'
p54
aS'dep=who'
p55
aS'dobj=#PRP#'
p56
aS'dobj=Colvin'
p57
aS'dobj=astronaut'
p58
aS'dobj=curiosity'
p59
aS'dobj=support'
p60
aS'expl=there'
p61
aS'mark=if'
p62
aS'mark=so'
p63
aS'neg=not'
p64
aS'nsubj=#PRP#'
p65
aS'nsubj=possibility'
p66
aS'nsubj=that'
p67
aS'nsubj=which'
p68
aS'nsubjpass=#PRP#'
p69
aS'nsubjpass=Burke'
p70
aS'nsubjpass=Bush'
p71
aS'nsubjpass=Kenyana'
p72
aS'nsubjpass=Leoneans'
p73
aS'nsubjpass=Mickelson'
p74
aS'nsubjpass=Wichman'
p75
aS'nsubjpass=community'
p76
aS'nsubjpass=crew'
p77
aS'nsubjpass=meeting'
p78
aS'nsubjpass=nobody'
p79
aS'nsubjpass=people'
p80
aS'nsubjpass=player'
p81
aS'nsubjpass=president'
p82
aS'nsubjpass=teacher'
p83
aS'prep=about'
p84
aS'prep=after'
p85
aS'prep=as'
p86
aS'prep=at'
p87
aS'prep=by'
p88
aS'prep=for'
p89
aS'prep=from'
p90
aS'prep=on'
p91
aS'prep=than'
p92
aS'prep=that'
p93
aS'w+1=,'
p94
aS'w+1=-rrb-'
p95
aS'w+1=.'
p96
aS'w+1=Emily'
p97
aS'w+1=about'
p98
aS'w+1=and'
p99
aS'w+1=any'
p100
aS'w+1=as'
p101
aS'w+1=at'
p102
aS'w+1=because'
p103
aS'w+1=by'
p104
aS'w+1=enthusiastic'
p105
aS'w+1=for'
p106
aS'w+1=former'
p107
aS'w+1=once'
p108
aS'w+1=rather'
p109
aS'w+1=she'
p110
aS'w+1=that'
p111
aS'w+1=to'
p112
aS'w+1=we'
p113
aS'w+1=when'
p114
aS"w+2=''"
p115
aS'w+2=.'
p116
aS'w+2=?'
p117
aS'w+2=Africa'
p118
aS'w+2=Colvin'
p119
aS'w+2=I'
p120
aS'w+2=Obama'
p121
aS'w+2=a'
p122
aS'w+2=astronaut'
p123
aS'w+2=be'
p124
aS'w+2=biotechnology'
p125
aS'w+2=check'
p126
aS'w+2=curiosity'
p127
aS'w+2=everyone'
p128
aS'w+2=exercise'
p129
aS'w+2=get'
p130
aS'w+2=have'
p131
aS'w+2=he'
p132
aS'w+2=help'
p133
aS'w+2=invigorate'
p134
aS'w+2=it'
p135
aS'w+2=leave'
p136
aS'w+2=longer'
p137
aS'w+2=oh'
p138
aS'w+2=one'
p139
aS'w+2=see'
p140
aS'w+2=she'
p141
aS'w+2=stand'
p142
aS'w+2=support'
p143
aS'w+2=than'
p144
aS'w+2=that'
p145
aS'w+2=the'
p146
aS'w+2=they'
p147
aS'w+2=this'
p148
aS'w+2=too'
p149
aS'w+2=vote'
p150
aS'w+2=we'
p151
aS'w-1=,'
p152
aS'w-1=-lrb-'
p153
aS'w-1=all'
p154
aS'w-1=also'
p155
aS'w-1=and'
p156
aS'w-1=as'
p157
aS'w-1=be'
p158
aS'w-1=definitely'
p159
aS'w-1=get'
p160
aS'w-1=have'
p161
aS'w-1=increasingly'
p162
aS'w-1=just'
p163
aS'w-1=now'
p164
aS'w-1=overly'
p165
aS'w-1=possibility'
p166
aS'w-1=quite'
p167
aS'w-1=real'
p168
aS'w-1=really'
p169
aS'w-1=scholar'
p170
aS'w-1=seem'
p171
aS'w-1=still'
p172
aS'w-1=that'
p173
aS'w-1=too'
p174
aS'w-1=very'
p175
aS'w-1=which'
p176
aS'w-1=you'
p177
aS'w-2=,'
p178
aS'w-2=Burke'
p179
aS'w-2=Hendra'
p180
aS'w-2=I'
p181
aS'w-2=Kenyana'
p182
aS'w-2=and'
p183
aS'w-2=be'
p184
aS'w-2=engage'
p185
aS'w-2=get'
p186
aS'w-2=he'
p187
aS'w-2=it'
p188
aS'w-2=just'
p189
aS'w-2=make'
p190
aS'w-2=nobody'
p191
aS'w-2=place'
p192
aS'w-2=player'
p193
aS'w-2=she'
p194
aS'w-2=subject'
p195
aS'w-2=teacher'
p196
aS'w-2=the'
p197
aS'w-2=they'
p198
aS'w-2=to'
p199
aS'w-2=we'
p200
aS'xcomp=able'
p201
aS'xcomp=be'
p202
aS'xcomp=check'
p203
aS'xcomp=coach'
p204
aS'xcomp=exercise'
p205
aS'xcomp=have'
p206
aS'xcomp=home'
p207
aS'xcomp=see'
p208
aS'xcomp=select'
p209
aS'xcomp=stand'
p210
aS'xcomp=vote'
p211
asS'dtype'
p212
cnumpy
float64
p213
sS'vocabulary_'
p214
(dp215
g68
I59
sg96
I87
sg45
I36
sg43
I34
sg55
I46
sg81
I72
sg204
I195
sg200
I191
sg95
I86
sg26
I17
sg20
I11
sg58
I49
sg80
I71
sg72
I63
sg149
I140
sg193
I184
sg108
I99
sg144
I135
sg103
I94
sg145
I136
sg88
I79
sg40
I31
sg190
I181
sg75
I66
sg186
I177
sg174
I165
sg171
I162
sg140
I131
sg14
I5
sg60
I51
sg79
I70
sg189
I180
sg148
I139
sg123
I114
sg198
I189
sg92
I83
sg199
I190
sg166
I157
sg183
I174
sg141
I132
sg111
I102
sg77
I68
sg56
I47
sg63
I54
sg160
I151
sg66
I57
sg205
I196
sg210
I201
sg203
I194
sg196
I187
sg195
I186
sg53
I44
sg97
I88
sg187
I178
sg50
I41
sg67
I58
sg23
I14
sg82
I73
sg28
I19
sg21
I12
sg132
I123
sg146
I137
sg87
I78
sg49
I40
sg102
I93
sg110
I101
sg178
I169
sg18
I9
sg54
I45
sg143
I134
sg101
I92
sg105
I96
sg32
I23
sg59
I50
sg158
I149
sg136
I127
sg73
I64
sg206
I197
sg152
I143
sg197
I188
sg181
I172
sg170
I161
sg107
I98
sg134
I125
sg188
I179
sg84
I75
sg179
I170
sg22
I13
sg176
I167
sg98
I89
sg44
I35
sg201
I192
sg74
I65
sg52
I43
sg125
I116
sg11
I2
sg194
I185
sg126
I117
sg89
I80
sg165
I156
sg100
I91
sg113
I104
sg161
I152
sg70
I61
sg153
I144
sg115
I106
sg109
I100
sg139
I130
sg208
I199
sg16
I7
sg168
I159
sg37
I28
sg191
I182
sg83
I74
sg35
I26
sg185
I176
sg167
I158
sg13
I4
sg169
I160
sg147
I138
sg135
I126
sg85
I76
sg150
I141
sg17
I8
sg86
I77
sg119
I110
sg129
I120
sg24
I15
sg51
I42
sg38
I29
sg131
I122
sg29
I20
sg9
I0
sg159
I150
sg104
I95
sg163
I154
sg177
I168
sg124
I115
sg33
I24
sg142
I133
sg25
I16
sg42
I33
sg69
I60
sg30
I21
sg27
I18
sg47
I38
sg62
I53
sg34
I25
sg192
I183
sg106
I97
sg154
I145
sg133
I124
sg127
I118
sg65
I56
sg76
I67
sg90
I81
sg57
I48
sg93
I84
sg114
I105
sg46
I37
sg175
I166
sg180
I171
sg39
I30
sg10
I1
sg130
I121
sg78
I69
sg211
I202
sg118
I109
sg121
I112
sg162
I153
sg117
I108
sg94
I85
sg172
I163
sg116
I107
sg71
I62
sg155
I146
sg112
I103
sg61
I52
sg137
I128
sg64
I55
sg138
I129
sg99
I90
sg128
I119
sg15
I6
sg156
I147
sg48
I39
sg19
I10
sg41
I32
sg31
I22
sg36
I27
sg202
I193
sg12
I3
sg120
I111
sg151
I142
sg164
I155
sg184
I175
sg182
I173
sg157
I148
sg91
I82
sg173
I164
sg209
I200
sg207
I198
sg122
I113
ssS'separator'
p216
S'='
sS'sparse'
p217
I01
sb.