ccopy_reg
_reconstructor
p1
(csklearn.feature_extraction.dict_vectorizer
DictVectorizer
p2
c__builtin__
object
p3
NtRp4
(dp5
S'vocabulary_'
p6
(dp7
S'w-2=help'
p8
I46
sS'w-1=she'
p9
I38
sS"w+2=''"
p10
I26
sS'aux=will'
p11
I3
sS'w+1=with'
p12
I25
sS'aux=to'
p13
I2
sS'w+1=,'
p14
I20
sS'w+2=month'
p15
I29
sS'w+2=often'
p16
I30
sS'w+2=the'
p17
I31
sS'poss=#PRP#'
p18
I14
sS'w-1=Mani'
p19
I34
sS'prep=at'
p20
I15
sS'advmod=often'
p21
I0
sS'prep=with'
p22
I19
sS'w-2=Hadizatou'
p23
I41
sS'w+2=they'
p24
I32
sS'w-2=President'
p25
I42
sS'aux=have'
p26
I1
sS'w+1=.'
p27
I21
sS'w-2=way'
p28
I50
sS'w-1=will'
p29
I40
sS'nsubj=Calder'
p30
I9
sS'w-2=diligent'
p31
I45
sS'ccomp=attend'
p32
I5
sS'cc=and'
p33
I4
sS'w-2=able'
p34
I43
sS'nsubj=president'
p35
I13
sS'nsubj=Medvedev'
p36
I10
sS'w-2=president'
p37
I48
sS'nsubj=lead'
p38
I11
sS'w+1=through'
p39
I24
sS'conj=have'
p40
I6
sS'w-2=lead'
p41
I47
sS'prep=through'
p42
I18
sS'conj=help'
p43
I7
sS'w-1=in'
p44
I37
sS'w-1=to'
p45
I39
sS'w+2=and'
p46
I27
sS'nsubj=master'
p47
I12
sS'prep=in'
p48
I17
sS'w-1=Calder'
p49
I33
sS'w-1=Medvedev'
p50
I35
sS'w+1=for'
p51
I22
sS'w+1=in'
p52
I23
sS'w+2=gain'
p53
I28
sS'w-2=try'
p54
I49
sS'prep=for'
p55
I16
sS'dep=whether'
p56
I8
sS'w-1=have'
p57
I36
sS'w-2=but'
p58
I44
ssS'dtype'
p59
cnumpy
float64
p60
sS'feature_names_'
p61
(lp62
g21
ag26
ag13
ag11
ag33
ag32
ag40
ag43
ag56
ag30
ag36
ag38
ag47
ag35
ag18
ag20
ag55
ag48
ag42
ag22
ag14
ag27
ag51
ag52
ag39
ag12
ag10
ag46
ag53
ag15
ag16
ag17
ag24
ag49
ag19
ag50
ag57
ag44
ag9
ag45
ag29
ag23
ag25
ag34
ag58
ag31
ag8
ag41
ag37
ag54
ag28
asS'separator'
p63
S'='
sS'sparse'
p64
I01
sb.