ccopy_reg
_reconstructor
p1
(csklearn.feature_extraction.dict_vectorizer
DictVectorizer
p2
c__builtin__
object
p3
NtRp4
(dp5
S'vocabulary_'
p6
(dp7
S'w+1=they'
p8
I22
sS'w+2=stigmatize'
p9
I26
sS'w+2=family'
p10
I25
sS"w+2=''"
p11
I23
sS'w-1=socially'
p12
I30
sS'w-2=community'
p13
I35
sS'w+2=the'
p14
I27
sS'nsubjpass=India'
p15
I13
sS'auxpass=be'
p16
I3
sS'aux=can'
p17
I2
sS'cc=or'
p18
I5
sS'w-1=teacher'
p19
I31
sS'w+1=,'
p20
I18
sS'w+1=.'
p21
I19
sS'w-1=be'
p22
I29
sS'w+2=.'
p23
I24
sS'conj=stigmatize'
p24
I7
sS'w-1=,'
p25
I28
sS'cc=and'
p26
I4
sS'nsubj=student'
p27
I11
sS'w-2=India'
p28
I32
sS'w+1=by'
p29
I20
sS'nsubjpass=those'
p30
I15
sS'w-2=can'
p31
I34
sS'mark=because'
p32
I10
sS'prep=by'
p33
I16
sS'w-2=be'
p34
I33
sS'nsubjpass=#PRP#'
p35
I12
sS'dobj=#PRP#'
p36
I8
sS'aux=be'
p37
I1
sS'prep=for'
p38
I17
sS'w+1=or'
p39
I21
sS'dobj=that'
p40
I9
sS'conj=find'
p41
I6
sS'nsubjpass=anyone'
p42
I14
sS'advmod=socially'
p43
I0
sS'w-2=even'
p44
I36
ssS'dtype'
p45
cnumpy
float64
p46
sS'feature_names_'
p47
(lp48
g43
ag37
ag17
ag16
ag26
ag18
ag41
ag24
ag36
ag40
ag32
ag27
ag35
ag15
ag42
ag30
ag33
ag38
ag20
ag21
ag29
ag39
ag8
ag11
ag23
ag10
ag9
ag14
ag25
ag22
ag12
ag19
ag28
ag34
ag31
ag13
ag44
asS'separator'
p49
S'='
sS'sparse'
p50
I01
sb.