ccopy_reg
_reconstructor
p1
(csklearn.feature_extraction.dict_vectorizer
DictVectorizer
p2
c__builtin__
object
p3
NtRp4
(dp5
S'sort'
p6
I01
sS'feature_names_'
p7
(lp8
S'acomp=due'
p9
aS'acomp=high'
p10
aS'acomp=higher'
p11
aS'advcl=accumulate'
p12
aS'advcl=accuse'
p13
aS'advcl=afloat'
p14
aS'advcl=annul'
p15
aS'advcl=arrive'
p16
aS'advcl=begin'
p17
aS'advcl=cancel'
p18
aS'advcl=carry'
p19
aS'advcl=cause'
p20
aS'advcl=close'
p21
aS'advcl=closed'
p22
aS'advcl=come'
p23
aS'advcl=continue'
p24
aS'advcl=discover'
p25
aS'advcl=do'
p26
aS'advcl=drag'
p27
aS'advcl=drive'
p28
aS'advcl=ease'
p29
aS'advcl=erupt'
p30
aS'advcl=expect'
p31
aS'advcl=fall'
p32
aS'advcl=feel'
p33
aS'advcl=gain'
p34
aS'advcl=grow'
p35
aS'advcl=happen'
p36
aS'advcl=implement'
p37
aS'advcl=improve'
p38
aS'advcl=in'
p39
aS'advcl=kill'
p40
aS'advcl=live'
p41
aS'advcl=lower'
p42
aS'advcl=mediate'
p43
aS'advcl=near'
p44
aS'advcl=open'
p45
aS'advcl=pour'
p46
aS'advcl=powerhouse'
p47
aS'advcl=prepare'
p48
aS'advcl=rage'
p49
aS'advcl=raise'
p50
aS'advcl=react'
p51
aS'advcl=recede'
p52
aS'advcl=remain'
p53
aS'advcl=remove'
p54
aS'advcl=report'
p55
aS'advcl=resign'
p56
aS'advcl=return'
p57
aS'advcl=say'
p58
aS'advcl=seek'
p59
aS'advcl=set'
p60
aS'advcl=shoot'
p61
aS'advcl=slow'
p62
aS'advcl=start'
p63
aS'advcl=struggle'
p64
aS'advcl=suspend'
p65
aS'advcl=take'
p66
aS'advcl=visible'
p67
aS'advcl=weaken'
p68
aS'advcl=win'
p69
aS'advcl=work'
p70
aS'advmod=again'
p71
aS'advmod=ago'
p72
aS'advmod=ahead'
p73
aS'advmod=alone'
p74
aS'advmod=along'
p75
aS'advmod=also'
p76
aS'advmod=annually'
p77
aS'advmod=as'
p78
aS'advmod=at'
p79
aS'advmod=considerably'
p80
aS'advmod=continuously'
p81
aS'advmod=daily'
p82
aS'advmod=dramatically'
p83
aS'advmod=early'
p84
aS'advmod=easily'
p85
aS'advmod=even'
p86
aS'advmod=fast'
p87
aS'advmod=faster'
p88
aS'advmod=first'
p89
aS'advmod=frequently'
p90
aS'advmod=further'
p91
aS'advmod=globally'
p92
aS'advmod=gradually'
p93
aS'advmod=greatly'
p94
aS'advmod=here'
p95
aS'advmod=immediately'
p96
aS'advmod=increasingly'
p97
aS'advmod=incrementally'
p98
aS'advmod=just'
p99
aS'advmod=later'
p100
aS'advmod=likely'
p101
aS'advmod=miraculously'
p102
aS'advmod=more'
p103
aS'advmod=much'
p104
aS'advmod=now'
p105
aS'advmod=once'
p106
aS'advmod=only'
p107
aS'advmod=out'
p108
aS'advmod=particularly'
p109
aS'advmod=quickly'
p110
aS'advmod=rapidly'
p111
aS'advmod=rarely'
p112
aS'advmod=really'
p113
aS'advmod=recently'
p114
aS'advmod=sharply'
p115
aS'advmod=significantly'
p116
aS'advmod=sizably'
p117
aS'advmod=slightly'
p118
aS'advmod=slowly'
p119
aS'advmod=so'
p120
aS'advmod=steadily'
p121
aS'advmod=steeply'
p122
aS'advmod=still'
p123
aS'advmod=substantially'
p124
aS'advmod=too'
p125
aS'advmod=up'
p126
aS'advmod=well'
p127
aS'advmod=when'
p128
aS'advmod=where'
p129
aS'advmod=worldwide'
p130
aS'advmod=yet'
p131
aS'amod=alarming'
p132
aS'amod=big'
p133
aS'amod=biggest'
p134
aS'amod=continuous'
p135
aS'amod=current'
p136
aS'amod=dramatic'
p137
aS'amod=expect'
p138
aS'amod=extraordinary'
p139
aS'amod=frightening'
p140
aS'amod=global'
p141
aS'amod=high'
p142
aS'amod=largest'
p143
aS'amod=long-term'
p144
aS'amod=massive'
p145
aS'amod=meteoric'
p146
aS'amod=military'
p147
aS'amod=monthly'
p148
aS'amod=one-meter'
p149
aS'amod=peaceful'
p150
aS'amod=possible'
p151
aS'amod=recent'
p152
aS'amod=relentless'
p153
aS'amod=sea-level'
p154
aS'amod=secure'
p155
aS'amod=sharp'
p156
aS'amod=significant'
p157
aS'amod=similar'
p158
aS'amod=single-day'
p159
aS'amod=six-meter'
p160
aS'amod=slight'
p161
aS'amod=smallest'
p162
aS'amod=steady'
p163
aS'amod=steep'
p164
aS'amod=substantial'
p165
aS'amod=surprising'
p166
aS'amod=sustained'
p167
aS'amod=two-degree'
p168
aS'amod=unprecedented'
p169
aS'amod=worldwide'
p170
aS'amod=worrying'
p171
aS'appos=latest'
p172
aS'appos=lot'
p173
aS'attr=footprint'
p174
aS'aux=be'
p175
aS'aux=can'
p176
aS'aux=could'
p177
aS'aux=do'
p178
aS'aux=have'
p179
aS'aux=may'
p180
aS'aux=must'
p181
aS'aux=should'
p182
aS'aux=to'
p183
aS'aux=will'
p184
aS'aux=would'
p185
aS'auxpass=be'
p186
aS'cc=and'
p187
aS'cc=but'
p188
aS'cc=or'
p189
aS'ccomp=begin'
p190
aS'ccomp=fall'
p191
aS'ccomp=feel'
p192
aS'ccomp=gain'
p193
aS'ccomp=get'
p194
aS'ccomp=harm'
p195
aS'ccomp=increase'
p196
aS'ccomp=phase'
p197
aS'ccomp=post'
p198
aS'ccomp=report'
p199
aS'ccomp=result'
p200
aS'ccomp=say'
p201
aS'ccomp=tax'
p202
aS'ccomp=warn'
p203
aS'complm=that'
p204
aS'conj=anticipate'
p205
aS'conj=ask'
p206
aS'conj=be'
p207
aS'conj=begin'
p208
aS'conj=believe'
p209
aS'conj=come'
p210
aS'conj=committed'
p211
aS'conj=complain'
p212
aS'conj=condition'
p213
aS'conj=continue'
p214
aS'conj=describe'
p215
aS'conj=discover'
p216
aS'conj=earn'
p217
aS'conj=fall'
p218
aS'conj=fear'
p219
aS'conj=focus'
p220
aS'conj=fuel'
p221
aS'conj=gain'
p222
aS'conj=give'
p223
aS'conj=grow'
p224
aS'conj=growth'
p225
aS'conj=high'
p226
aS'conj=higher'
p227
aS'conj=issue'
p228
aS'conj=just'
p229
aS'conj=keep'
p230
aS'conj=kill'
p231
aS'conj=live'
p232
aS'conj=make'
p233
aS'conj=need'
p234
aS'conj=order'
p235
aS'conj=push'
p236
aS'conj=reach'
p237
aS'conj=replace'
p238
aS'conj=rocket'
p239
aS'conj=say'
p240
aS'conj=set'
p241
aS'conj=stand'
p242
aS'conj=story'
p243
aS'conj=take'
p244
aS'conj=threaten'
p245
aS'conj=tighten'
p246
aS'conj=tower'
p247
aS'conj=transform'
p248
aS'conj=transmit'
p249
aS'conj=try'
p250
aS'conj=work'
p251
aS'conj=year'
p252
aS'cop=be'
p253
aS'csubj=add'
p254
aS'csubj=describe'
p255
aS'csubj=intersperse'
p256
aS'csubj=look'
p257
aS'csubj=work'
p258
aS'dep=a'
p259
aS'dep=again'
p260
aS'dep=agree'
p261
aS'dep=as'
p262
aS'dep=be'
p263
aS'dep=frustrate'
p264
aS'dep=leave'
p265
aS'dep=located'
p266
aS'dep=mean'
p267
aS'dep=possible'
p268
aS'dep=record'
p269
aS'dep=say'
p270
aS'dep=talk'
p271
aS'dep=time'
p272
aS'dep=to'
p273
aS'det=a'
p274
aS'det=another'
p275
aS'det=any'
p276
aS'det=the'
p277
aS'det=this'
p278
aS'dobj=Americans'
p279
aS'dobj=Randy'
p280
aS'dobj=all'
p281
aS'dobj=anger'
p282
aS'dobj=class'
p283
aS'dobj=cost'
p284
aS'dobj=criticism'
p285
aS'dobj=daily'
p286
aS'dobj=debt'
p287
aS'dobj=degree'
p288
aS'dobj=demand'
p289
aS'dobj=economy'
p290
aS'dobj=fear'
p291
aS'dobj=figure'
p292
aS'dobj=foot'
p293
aS'dobj=foreclosure'
p294
aS'dobj=full'
p295
aS'dobj=heavyweight'
p296
aS'dobj=higher'
p297
aS'dobj=immigration'
p298
aS'dobj=impunity'
p299
aS'dobj=inflation'
p300
aS'dobj=level'
p301
aS'dobj=market'
p302
aS'dobj=meter'
p303
aS'dobj=militancy'
p304
aS'dobj=most'
p305
aS'dobj=nationalism'
p306
aS'dobj=opposition'
p307
aS'dobj=pace'
p308
aS'dobj=percent'
p309
aS'dobj=petal'
p310
aS'dobj=point'
p311
aS'dobj=pressure'
p312
aS'dobj=price'
p313
aS'dobj=rate'
p314
aS'dobj=sentiment'
p315
aS'dobj=shortage'
p316
aS'dobj=star'
p317
aS'dobj=story'
p318
aS'dobj=temperature'
p319
aS'dobj=tension'
p320
aS'dobj=terrorism'
p321
aS'dobj=that'
p322
aS'dobj=the'
p323
aS'dobj=toll'
p324
aS'dobj=trend'
p325
aS'dobj=unemployment'
p326
aS'dobj=year'
p327
aS'expl=there'
p328
aS'infmod=halt'
p329
aS'mark=after'
p330
aS'mark=although'
p331
aS'mark=as'
p332
aS'mark=because'
p333
aS'mark=before'
p334
aS'mark=for'
p335
aS'mark=if'
p336
aS'mark=since'
p337
aS'mark=so'
p338
aS'mark=though'
p339
aS'mark=while'
p340
aS'neg=never'
p341
aS'neg=not'
p342
aS'nn=Celsius'
p343
aS'nn=consumption'
p344
aS'nn=demand'
p345
aS'nn=everything'
p346
aS'nn=influence'
p347
aS'nn=level'
p348
aS'nn=pay'
p349
aS'nn=percent'
p350
aS'nn=point'
p351
aS'nn=price'
p352
aS'nn=rate'
p353
aS'nn=record'
p354
aS'nn=sea'
p355
aS'nn=temperature'
p356
aS'nn=town'
p357
aS'nsubj=#NUMBER#'
p358
aS'nsubj=#PRP#'
p359
aS'nsubj=Africa'
p360
aS'nsubj=Americans'
p361
aS'nsubj=Arab'
p362
aS'nsubj=Army'
p363
aS'nsubj=Association'
p364
aS'nsubj=Average'
p365
aS'nsubj=Brecker'
p366
aS'nsubj=Chernomyrdin'
p367
aS'nsubj=China'
p368
aS'nsubj=Friends'
p369
aS'nsubj=Hannibal'
p370
aS'nsubj=Holiday'
p371
aS'nsubj=Hutus'
p372
aS'nsubj=Index'
p373
aS'nsubj=KOSPI'
p374
aS'nsubj=Ko'
p375
aS'nsubj=Korea'
p376
aS'nsubj=Lee'
p377
aS'nsubj=Liberians'
p378
aS'nsubj=Manuel'
p379
aS'nsubj=Medvedev'
p380
aS'nsubj=Minnawi'
p381
aS'nsubj=NASDAQ'
p382
aS'nsubj=NATO'
p383
aS'nsubj=Republicans'
p384
aS'nsubj=Seng'
p385
aS'nsubj=Trade'
p386
aS'nsubj=Union'
p387
aS'nsubj=abduction'
p388
aS'nsubj=addiction'
p389
aS'nsubj=admission'
p390
aS'nsubj=advertising'
p391
aS'nsubj=african'
p392
aS'nsubj=amount'
p393
aS'nsubj=anger'
p394
aS'nsubj=anxiety'
p395
aS'nsubj=application'
p396
aS'nsubj=arrival'
p397
aS'nsubj=attack'
p398
aS'nsubj=attendance'
p399
aS'nsubj=bridge'
p400
aS'nsubj=brutality'
p401
aS'nsubj=candidate'
p402
aS'nsubj=church'
p403
aS'nsubj=city'
p404
aS'nsubj=civilian'
p405
aS'nsubj=cloud'
p406
aS'nsubj=concern'
p407
aS'nsubj=confidence'
p408
aS'nsubj=cost'
p409
aS'nsubj=country'
p410
aS'nsubj=currency'
p411
aS'nsubj=danger'
p412
aS'nsubj=death'
p413
aS'nsubj=debt'
p414
aS'nsubj=demand'
p415
aS'nsubj=disaster'
p416
aS'nsubj=dollar'
p417
aS'nsubj=drug-resistance'
p418
aS'nsubj=emission'
p419
aS'nsubj=exporter'
p420
aS'nsubj=father'
p421
aS'nsubj=fear'
p422
aS'nsubj=feeling'
p423
aS'nsubj=figure'
p424
aS'nsubj=force'
p425
aS'nsubj=frequency'
p426
aS'nsubj=frustration'
p427
aS'nsubj=future'
p428
aS'nsubj=gap'
p429
aS'nsubj=homophobia'
p430
aS'nsubj=hope'
p431
aS'nsubj=immigration'
p432
aS'nsubj=impact'
p433
aS'nsubj=import'
p434
aS'nsubj=incentive'
p435
aS'nsubj=income'
p436
aS'nsubj=index'
p437
aS'nsubj=inflation'
p438
aS'nsubj=initiative'
p439
aS'nsubj=insurgency'
p440
aS'nsubj=interdiction'
p441
aS'nsubj=introduction'
p442
aS'nsubj=investment'
p443
aS'nsubj=issue'
p444
aS'nsubj=kenyan'
p445
aS'nsubj=koran'
p446
aS'nsubj=legacy'
p447
aS'nsubj=level'
p448
aS'nsubj=light'
p449
aS'nsubj=malnutrition'
p450
aS'nsubj=man'
p451
aS'nsubj=market'
p452
aS'nsubj=mercury'
p453
aS'nsubj=militant'
p454
aS'nsubj=mistrust'
p455
aS'nsubj=most'
p456
aS'nsubj=music'
p457
aS'nsubj=nation'
p458
aS'nsubj=need'
p459
aS'nsubj=number'
p460
aS'nsubj=opposition'
p461
aS'nsubj=panel'
p462
aS'nsubj=payment'
p463
aS'nsubj=people'
p464
aS'nsubj=percentage'
p465
aS'nsubj=player'
p466
aS'nsubj=plume'
p467
aS'nsubj=police'
p468
aS'nsubj=poll'
p469
aS'nsubj=population'
p470
aS'nsubj=president'
p471
aS'nsubj=pressure'
p472
aS'nsubj=price'
p473
aS'nsubj=production'
p474
aS'nsubj=profit'
p475
aS'nsubj=purchase'
p476
aS'nsubj=rate'
p477
aS'nsubj=rating'
p478
aS'nsubj=rebel'
p479
aS'nsubj=recruiter'
p480
aS'nsubj=restaurant'
p481
aS'nsubj=result'
p482
aS'nsubj=ringgit'
p483
aS'nsubj=risk'
p484
aS'nsubj=river'
p485
aS'nsubj=ruble'
p486
aS'nsubj=salary'
p487
aS'nsubj=sale'
p488
aS'nsubj=savings'
p489
aS'nsubj=sentiment'
p490
aS'nsubj=share'
p491
aS'nsubj=skyscraper'
p492
aS'nsubj=smoke'
p493
aS'nsubj=smuggling'
p494
aS'nsubj=speculation'
p495
aS'nsubj=spending'
p496
aS'nsubj=stake'
p497
aS'nsubj=steel'
p498
aS'nsubj=stock'
p499
aS'nsubj=subscriber'
p500
aS'nsubj=sun'
p501
aS'nsubj=tariff'
p502
aS'nsubj=temperature'
p503
aS'nsubj=tension'
p504
aS'nsubj=that'
p505
aS'nsubj=theme'
p506
aS'nsubj=thing'
p507
aS'nsubj=this'
p508
aS'nsubj=toll'
p509
aS'nsubj=tourism'
p510
aS'nsubj=trafficking'
p511
aS'nsubj=unemployment'
p512
aS'nsubj=unprofitable'
p513
aS'nsubj=unrest'
p514
aS'nsubj=use'
p515
aS'nsubj=value'
p516
aS'nsubj=violence'
p517
aS'nsubj=voice'
p518
aS'nsubj=volatility'
p519
aS'nsubj=voter'
p520
aS'nsubj=wages'
p521
aS'nsubj=wealth'
p522
aS'nsubj=which'
p523
aS'nsubj=whites'
p524
aS'nsubj=who'
p525
aS'nsubj=woman'
p526
aS'nsubj=world'
p527
aS'nsubj=worry'
p528
aS'nsubj=year'
p529
aS'nsubj=yen'
p530
aS'nsubj=yield'
p531
aS'nsubjpass=Christ'
p532
aS'num=#NUMBER#'
p533
aS'parataxis=assume'
p534
aS'parataxis=issue'
p535
aS'parataxis=preserve'
p536
aS'parataxis=say'
p537
aS'parataxis=throw'
p538
aS'partmod=bear'
p539
aS'partmod=create'
p540
aS'partmod=form'
p541
aS'partmod=lead'
p542
aS'partmod=release'
p543
aS'poss=#PRP#'
p544
aS'poss=Asia'
p545
aS'poss=China'
p546
aS'poss=Huckabee'
p547
aS'poss=Iran'
p548
aS'poss=Kirchner'
p549
aS'poss=Stars'
p550
aS'poss=Zuma'
p551
aS'poss=yen'
p552
aS'predet=such'
p553
aS'prep=about'
p554
aS'prep=above'
p555
aS'prep=across'
p556
aS'prep=after'
p557
aS'prep=against'
p558
aS'prep=along'
p559
aS'prep=amid'
p560
aS'prep=among'
p561
aS'prep=around'
p562
aS'prep=as'
p563
aS'prep=at'
p564
aS'prep=before'
p565
aS'prep=by'
p566
aS'prep=compare'
p567
aS'prep=despite'
p568
aS'prep=during'
p569
aS'prep=follow'
p570
aS'prep=for'
p571
aS'prep=from'
p572
aS'prep=in'
p573
aS'prep=into'
p574
aS'prep=like'
p575
aS'prep=of'
p576
aS'prep=off'
p577
aS'prep=on'
p578
aS'prep=over'
p579
aS'prep=since'
p580
aS'prep=than'
p581
aS'prep=through'
p582
aS'prep=throughout'
p583
aS'prep=to'
p584
aS'prep=with'
p585
aS'prep=within'
p586
aS'prep=without'
p587
aS'prt=out'
p588
aS'prt=up'
p589
aS'rcmod=accompany'
p590
aS'rcmod=argue'
p591
aS'rcmod=continue'
p592
aS'rcmod=design'
p593
aS'rcmod=go'
p594
aS'rcmod=kill'
p595
aS'rel=in'
p596
aS'tmod=#DATE#'
p597
aS'tmod=day'
p598
aS'tmod=liter'
p599
aS'tmod=month'
p600
aS'tmod=today'
p601
aS'tmod=week'
p602
aS'tmod=year'
p603
aS'w+1=!'
p604
aS"w+1=''"
p605
aS'w+1=,'
p606
aS'w+1=-'
p607
aS'w+1=-lrb-'
p608
aS'w+1=.'
p609
aS'w+1=0.3'
p610
aS'w+1=10'
p611
aS'w+1=139'
p612
aS'w+1=16'
p613
aS'w+1=17'
p614
aS'w+1=185'
p615
aS'w+1=2.5'
p616
aS'w+1=20'
p617
aS'w+1=22'
p618
aS'w+1=25'
p619
aS'w+1=3.6'
p620
aS'w+1=37'
p621
aS'w+1=5.2'
p622
aS'w+1=53'
p623
aS'w+1=6'
p624
aS'w+1=70'
p625
aS'w+1=77'
p626
aS'w+1=:'
p627
aS'w+1=Monday'
p628
aS'w+1=Thursday'
p629
aS'w+1=U.S.'
p630
aS'w+1=Wednesday'
p631
aS'w+1=a'
p632
aS'w+1=about'
p633
aS'w+1=above'
p634
aS'w+1=acidity'
p635
aS'w+1=across'
p636
aS'w+1=affluence'
p637
aS'w+1=after'
p638
aS'w+1=again'
p639
aS'w+1=against'
p640
aS'w+1=ahead'
p641
aS'w+1=all'
p642
aS'w+1=almost'
p643
aS'w+1=along'
p644
aS'w+1=also'
p645
aS'w+1=amid'
p646
aS'w+1=among'
p647
aS'w+1=and'
p648
aS'w+1=anger'
p649
aS'w+1=anti-american'
p650
aS'w+1=around'
p651
aS'w+1=as'
p652
aS'w+1=at'
p653
aS'w+1=be'
p654
aS'w+1=because'
p655
aS'w+1=begin'
p656
aS'w+1=black'
p657
aS'w+1=blues'
p658
aS'w+1=british'
p659
aS'w+1=budget'
p660
aS'w+1=by'
p661
aS'w+1=come'
p662
aS'w+1=commodity'
p663
aS'w+1=communal'
p664
aS'w+1=concern'
p665
aS'w+1=considerably'
p666
aS'w+1=consumer'
p667
aS'w+1=consumption'
p668
aS'w+1=cost'
p669
aS'w+1=crime'
p670
aS'w+1=criticism'
p671
aS'w+1=crop'
p672
aS'w+1=culture'
p673
aS'w+1=currency'
p674
aS'w+1=daily'
p675
aS'w+1=death'
p676
aS'w+1=debt'
p677
aS'w+1=demand'
p678
aS'w+1=discontent'
p679
aS'w+1=disparity'
p680
aS'w+1=divorce'
p681
aS'w+1=dramatically'
p682
aS'w+1=due'
p683
aS'w+1=during'
p684
aS'w+1=early'
p685
aS'w+1=economy'
p686
aS'w+1=educate'
p687
aS'w+1=energy'
p688
aS'w+1=even'
p689
aS'w+1=ever'
p690
aS'w+1=every'
p691
aS'w+1=everywhere'
p692
aS'w+1=export'
p693
aS'w+1=far'
p694
aS'w+1=fast'
p695
aS'w+1=faster'
p696
aS'w+1=fear'
p697
aS'w+1=five'
p698
aS'w+1=food'
p699
aS'w+1=for'
p700
aS'w+1=foreclosure'
p701
aS'w+1=four'
p702
aS'w+1=from'
p703
aS'w+1=fuel'
p704
aS'w+1=full'
p705
aS'w+1=further'
p706
aS'w+1=gas'
p707
aS'w+1=gasoline'
p708
aS'w+1=global'
p709
aS'w+1=go'
p710
aS'w+1=gold'
p711
aS'w+1=grassroot'
p712
aS'w+1=health'
p713
aS'w+1=heavyweight'
p714
aS'w+1=hiv'
p715
aS'w+1=home'
p716
aS'w+1=if'
p717
aS'w+1=immediately'
p718
aS'w+1=immigration'
p719
aS'w+1=impunity'
p720
aS'w+1=in'
p721
aS'w+1=income'
p722
aS'w+1=incrementally'
p723
aS'w+1=index'
p724
aS'w+1=inflation'
p725
aS'w+1=inflationary'
p726
aS'w+1=influence'
p727
aS'w+1=insecurity'
p728
aS'w+1=insurgency'
p729
aS'w+1=interest'
p730
aS'w+1=international'
p731
aS'w+1=into'
p732
aS'w+1=islamic'
p733
aS'w+1=it'
p734
aS'w+1=last'
p735
aS'w+1=later'
p736
aS'w+1=level'
p737
aS'w+1=living'
p738
aS'w+1=market'
p739
aS'w+1=middle'
p740
aS'w+1=middle-class'
p741
aS'w+1=militancy'
p742
aS'w+1=militant'
p743
aS'w+1=more'
p744
aS'w+1=much'
p745
aS'w+1=nearly'
p746
aS'w+1=no'
p747
aS'w+1=number'
p748
aS'w+1=ocean'
p749
aS'w+1=of'
p750
aS'w+1=off'
p751
aS'w+1=oil'
p752
aS'w+1=on'
p753
aS'w+1=one'
p754
aS'w+1=operating'
p755
aS'w+1=opposition'
p756
aS'w+1=out'
p757
aS'w+1=over'
p758
aS'w+1=peso'
p759
aS'w+1=petal'
p760
aS'w+1=phenomenon'
p761
aS'w+1=polarization'
p762
aS'w+1=political'
p763
aS'w+1=popular'
p764
aS'w+1=popularity'
p765
aS'w+1=population'
p766
aS'w+1=poverty'
p767
aS'w+1=price'
p768
aS'w+1=prominence'
p769
aS'w+1=protest'
p770
aS'w+1=public'
p771
aS'w+1=quickly'
p772
aS'w+1=rapidly'
p773
aS'w+1=rate'
p774
aS'w+1=readership'
p775
aS'w+1=recently'
p776
aS'w+1=resentment'
p777
aS'w+1=roughly'
p778
aS'w+1=rupee'
p779
aS'w+1=sea'
p780
aS'w+1=sea-level'
p781
aS'w+1=share'
p782
aS'w+1=sharply'
p783
aS'w+1=significantly'
p784
aS'w+1=since'
p785
aS'w+1=six'
p786
aS'w+1=sizably'
p787
aS'w+1=slightly'
p788
aS'w+1=slowly'
p789
aS'w+1=social'
p790
aS'w+1=spending'
p791
aS'w+1=star'
p792
aS'w+1=steadily'
p793
aS'w+1=steeply'
p794
aS'w+1=stock'
p795
aS'w+1=strategic'
p796
aS'w+1=substantially'
p797
aS'w+1=suicide'
p798
aS'w+1=tax'
p799
aS'w+1=temperature'
p800
aS'w+1=tension'
p801
aS'w+1=terror'
p802
aS'w+1=terrorism'
p803
aS'w+1=that'
p804
aS'w+1=the'
p805
aS'w+1=there'
p806
aS'w+1=this'
p807
aS'w+1=through'
p808
aS'w+1=throughout'
p809
aS'w+1=tide'
p810
aS'w+1=to'
p811
aS'w+1=too'
p812
aS'w+1=trend'
p813
aS'w+1=tuition'
p814
aS'w+1=two'
p815
aS'w+1=under'
p816
aS'w+1=unemployment'
p817
aS'w+1=up'
p818
aS'w+1=very'
p819
aS'w+1=vietnamese'
p820
aS'w+1=violence'
p821
aS'w+1=wages'
p822
aS'w+1=water'
p823
aS'w+1=we'
p824
aS'w+1=will'
p825
aS'w+1=with'
p826
aS'w+1=world'
p827
aS'w+1=worldwide'
p828
aS'w+1=would'
p829
aS'w+1=young'
p830
aS'w+2=$'
p831
aS"w+2=''"
p832
aS'w+2=,'
p833
aS'w+2=-'
p834
aS'w+2=--'
p835
aS'w+2=-rrb-'
p836
aS'w+2=.'
p837
aS'w+2=.5'
p838
aS'w+2=11.4'
p839
aS'w+2=120'
p840
aS'w+2=14'
p841
aS'w+2=15'
p842
aS'w+2=16'
p843
aS'w+2=18'
p844
aS'w+2=19'
p845
aS'w+2=2'
p846
aS'w+2=2.7'
p847
aS'w+2=20'
p848
aS'w+2=200'
p849
aS'w+2=2002'
p850
aS'w+2=22'
p851
aS'w+2=29percent'
p852
aS'w+2=3.9'
p853
aS'w+2=32,000'
p854
aS'w+2=4,000'
p855
aS'w+2=40'
p856
aS'w+2=418'
p857
aS'w+2=45'
p858
aS'w+2=47-year-old'
p859
aS'w+2=478,000'
p860
aS'w+2=5,000'
p861
aS'w+2=5.1'
p862
aS'w+2=50'
p863
aS'w+2=70'
p864
aS'w+2=700'
p865
aS'w+2=8.3'
p866
aS'w+2=82'
p867
aS'w+2=9.5'
p868
aS'w+2=:'
p869
aS'w+2=Americans'
p870
aS'w+2=Asia'
p871
aS'w+2=Astou'
p872
aS'w+2=Bhutto'
p873
aS'w+2=Cambodia'
p874
aS'w+2=China'
p875
aS'w+2=Conakry'
p876
aS'w+2=Darfur'
p877
aS'w+2=Democratic'
p878
aS'w+2=Dizzy'
p879
aS'w+2=Durban'
p880
aS'w+2=Friday'
p881
aS'w+2=Greenland'
p882
aS'w+2=India'
p883
aS'w+2=Islamism'
p884
aS'w+2=JP'
p885
aS'w+2=June'
p886
aS'w+2=Kano'
p887
aS'w+2=Khartoum'
p888
aS'w+2=Number'
p889
aS'w+2=Pakistan'
p890
aS'w+2=President'
p891
aS'w+2=Soup'
p892
aS'w+2=Sudan'
p893
aS'w+2=Taleban'
p894
aS'w+2=Vietnam'
p895
aS'w+2=Zimbabwe'
p896
aS'w+2=`'
p897
aS'w+2=a'
p898
aS'w+2=about'
p899
aS'w+2=accuse'
p900
aS'w+2=achieve'
p901
aS'w+2=activity'
p902
aS'w+2=add'
p903
aS'w+2=after'
p904
aS'w+2=against'
p905
aS'w+2=ahead'
p906
aS'w+2=all'
p907
aS'w+2=allergy'
p908
aS'w+2=almost'
p909
aS'w+2=also'
p910
aS'w+2=although'
p911
aS'w+2=among'
p912
aS'w+2=and'
p913
aS'w+2=anger'
p914
aS'w+2=another'
p915
aS'w+2=anti'
p916
aS'w+2=anti-semitismalthough'
p917
aS'w+2=application'
p918
aS'w+2=as'
p919
aS'w+2=asian'
p920
aS'w+2=ask'
p921
aS'w+2=at'
p922
aS'w+2=attack'
p923
aS'w+2=back'
p924
aS'w+2=bank'
p925
aS'w+2=basic'
p926
aS'w+2=be'
p927
aS'w+2=because'
p928
aS'w+2=become'
p929
aS'w+2=better'
p930
aS'w+2=between'
p931
aS'w+2=bilateral'
p932
aS'w+2=boat'
p933
aS'w+2=bomb'
p934
aS'w+2=both'
p935
aS'w+2=bring'
p936
aS'w+2=build'
p937
aS'w+2=but'
p938
aS'w+2=by'
p939
aS'w+2=can'
p940
aS'w+2=capture'
p941
aS'w+2=care'
p942
aS'w+2=casualty'
p943
aS'w+2=cause'
p944
aS'w+2=cereal'
p945
aS'w+2=charge'
p946
aS'w+2=chief'
p947
aS'w+2=class'
p948
aS'w+2=climate'
p949
aS'w+2=come'
p950
aS'w+2=commodity'
p951
aS'w+2=consumption'
p952
aS'w+2=continue'
p953
aS'w+2=cost'
p954
aS'w+2=could'
p955
aS'w+2=country'
p956
aS'w+2=create'
p957
aS'w+2=crew'
p958
aS'w+2=criticism'
p959
aS'w+2=cross'
p960
aS'w+2=daily'
p961
aS'w+2=day'
p962
aS'w+2=default'
p963
aS'w+2=deficit'
p964
aS'w+2=degree'
p965
aS'w+2=demand'
p966
aS'w+2=democracy'
p967
aS'w+2=deportation'
p968
aS'w+2=deter'
p969
aS'w+2=disease'
p970
aS'w+2=displaced'
p971
aS'w+2=do'
p972
aS'w+2=due'
p973
aS'w+2=eight'
p974
aS'w+2=emergency'
p975
aS'w+2=energy'
p976
aS'w+2=especially'
p977
aS'w+2=eviction'
p978
aS'w+2=extreme'
p979
aS'w+2=extremism'
p980
aS'w+2=fall'
p981
aS'w+2=fame'
p982
aS'w+2=faster'
p983
aS'w+2=feature'
p984
aS'w+2=fee'
p985
aS'w+2=five'
p986
aS'w+2=follow'
p987
aS'w+2=food'
p988
aS'w+2=for'
p989
aS'w+2=foreclosure'
p990
aS'w+2=foreign'
p991
aS'w+2=four'
p992
aS'w+2=free'
p993
aS'w+2=from'
p994
aS'w+2=full'
p995
aS'w+2=further'
p996
aS'w+2=future'
p997
aS'w+2=general'
p998
aS'w+2=get'
p999
aS'w+2=global'
p1000
aS'w+2=hatred'
p1001
aS'w+2=have'
p1002
aS'w+2=hdtv'
p1003
aS'w+2=he'
p1004
aS'w+2=high'
p1005
aS'w+2=higher'
p1006
aS'w+2=hijacking'
p1007
aS'w+2=hit'
p1008
aS'w+2=house'
p1009
aS'w+2=import'
p1010
aS'w+2=importance'
p1011
aS'w+2=in'
p1012
aS'w+2=income'
p1013
aS'w+2=increase'
p1014
aS'w+2=inequality'
p1015
aS'w+2=infection'
p1016
aS'w+2=inflation'
p1017
aS'w+2=information'
p1018
aS'w+2=inside'
p1019
aS'w+2=insurgent'
p1020
aS'w+2=interest'
p1021
aS'w+2=international'
p1022
aS'w+2=islamic'
p1023
aS'w+2=it'
p1024
aS'w+2=its'
p1025
aS'w+2=last'
p1026
aS'w+2=lead'
p1027
aS'w+2=less'
p1028
aS'w+2=level'
p1029
aS'w+2=lie'
p1030
aS'w+2=link'
p1031
aS'w+2=make'
p1032
aS'w+2=many'
p1033
aS'w+2=market'
p1034
aS'w+2=mean'
p1035
aS'w+2=meter'
p1036
aS'w+2=middle'
p1037
aS'w+2=militancy'
p1038
aS'w+2=militant'
p1039
aS'w+2=military'
p1040
aS'w+2=month'
p1041
aS'w+2=more'
p1042
aS'w+2=most'
p1043
aS'w+2=much'
p1044
aS'w+2=national'
p1045
aS'w+2=nationalism'
p1046
aS'w+2=natural'
p1047
aS'w+2=nearly'
p1048
aS'w+2=need'
p1049
aS'w+2=new'
p1050
aS'w+2=next'
p1051
aS'w+2=nine'
p1052
aS'w+2=no'
p1053
aS'w+2=normal'
p1054
aS'w+2=northern'
p1055
aS'w+2=not'
p1056
aS'w+2=of'
p1057
aS'w+2=offer'
p1058
aS'w+2=office'
p1059
aS'w+2=oil'
p1060
aS'w+2=on'
p1061
aS'w+2=one'
p1062
aS'w+2=opposition'
p1063
aS'w+2=other'
p1064
aS'w+2=out'
p1065
aS'w+2=over'
p1066
aS'w+2=particularly'
p1067
aS'w+2=partisan'
p1068
aS'w+2=partisanship'
p1069
aS'w+2=partly'
p1070
aS'w+2=people'
p1071
aS'w+2=percent'
p1072
aS'w+2=percentage'
p1073
aS'w+2=piracy'
p1074
aS'w+2=pirate'
p1075
aS'w+2=point'
p1076
aS'w+2=police'
p1077
aS'w+2=politc'
p1078
aS'w+2=political'
p1079
aS'w+2=poll'
p1080
aS'w+2=popularity'
p1081
aS'w+2=population'
p1082
aS'w+2=power'
p1083
aS'w+2=pressure'
p1084
aS'w+2=price'
p1085
aS'w+2=prominence'
p1086
aS'w+2=property'
p1087
aS'w+2=punk-rock'
p1088
aS'w+2=racial'
p1089
aS'w+2=radical'
p1090
aS'w+2=ransom'
p1091
aS'w+2=rate'
p1092
aS'w+2=reach'
p1093
aS'w+2=recent'
p1094
aS'w+2=recently'
p1095
aS'w+2=record'
p1096
aS'w+2=refugee'
p1097
aS'w+2=remain'
p1098
aS'w+2=renew'
p1099
aS'w+2=rent'
p1100
aS'w+2=report'
p1101
aS'w+2=resentment'
p1102
aS'w+2=result'
p1103
aS'w+2=retail'
p1104
aS'w+2=rich'
p1105
aS'w+2=say'
p1106
aS'w+2=sectarian'
p1107
aS'w+2=sentiment'
p1108
aS'w+2=share'
p1109
aS'w+2=shortage'
p1110
aS'w+2=show'
p1111
aS'w+2=similar'
p1112
aS'w+2=since'
p1113
aS'w+2=six'
p1114
aS'w+2=society'
p1115
aS'w+2=soft'
p1116
aS'w+2=some'
p1117
aS'w+2=something'
p1118
aS'w+2=speak'
p1119
aS'w+2=standard'
p1120
aS'w+2=star'
p1121
aS'w+2=stardom'
p1122
aS'w+2=stock'
p1123
aS'w+2=story'
p1124
aS'w+2=street'
p1125
aS'w+2=substance'
p1126
aS'w+2=support'
p1127
aS'w+2=temperature'
p1128
aS'w+2=tension'
p1129
aS'w+2=term'
p1130
aS'w+2=terrorism'
p1131
aS'w+2=terrorist'
p1132
aS'w+2=textile'
p1133
aS'w+2=than'
p1134
aS'w+2=that'
p1135
aS'w+2=the'
p1136
aS'w+2=thecountry'
p1137
aS'w+2=there'
p1138
aS'w+2=they'
p1139
aS'w+2=this'
p1140
aS'w+2=those'
p1141
aS'w+2=three'
p1142
aS'w+2=throughout'
p1143
aS'w+2=to'
p1144
aS'w+2=toll'
p1145
aS'w+2=too'
p1146
aS'w+2=trade'
p1147
aS'w+2=tragedy'
p1148
aS'w+2=two'
p1149
aS'w+2=unemployment'
p1150
aS'w+2=unison'
p1151
aS'w+2=unpleasant'
p1152
aS'w+2=up'
p1153
aS'w+2=violence'
p1154
aS'w+2=violent'
p1155
aS'w+2=we'
p1156
aS'w+2=well'
p1157
aS'w+2=what'
p1158
aS'w+2=where'
p1159
aS'w+2=which'
p1160
aS'w+2=while'
p1161
aS'w+2=will'
p1162
aS'w+2=wind'
p1163
aS'w+2=wireless'
p1164
aS'w+2=with'
p1165
aS'w+2=worldwide'
p1166
aS'w+2=year'
p1167
aS"w-1='"
p1168
aS"w-1=''"
p1169
aS"w-1='s"
p1170
aS'w-1=,'
p1171
aS'w-1=-'
p1172
aS'w-1=-lrb-'
p1173
aS'w-1=-rrb-'
p1174
aS'w-1=.'
p1175
aS'w-1=2007'
p1176
aS'w-1=:'
p1177
aS'w-1=;'
p1178
aS'w-1=Army'
p1179
aS'w-1=Average'
p1180
aS'w-1=Brecker'
p1181
aS'w-1=Celsius'
p1182
aS'w-1=Chernomyrdin'
p1183
aS'w-1=China'
p1184
aS'w-1=Coast'
p1185
aS'w-1=Darfur'
p1186
aS'w-1=Hannibal'
p1187
aS'w-1=Index'
p1188
aS'w-1=KOSPI'
p1189
aS'w-1=Lee'
p1190
aS'w-1=May'
p1191
aS'w-1=Medvedev'
p1192
aS'w-1=Ministry'
p1193
aS'w-1=Minnawi'
p1194
aS'w-1=NASDAQ'
p1195
aS'w-1=Republicans'
p1196
aS'w-1=Seng'
p1197
aS'w-1=Union'
p1198
aS'w-1=Vietnam'
p1199
aS'w-1=Yi'
p1200
aS'w-1=a'
p1201
aS'w-1=about'
p1202
aS'w-1=address'
p1203
aS'w-1=after'
p1204
aS'w-1=against'
p1205
aS'w-1=alarming'
p1206
aS'w-1=also'
p1207
aS'w-1=amid'
p1208
aS'w-1=and'
p1209
aS'w-1=any'
p1210
aS'w-1=as'
p1211
aS'w-1=attack'
p1212
aS'w-1=back'
p1213
aS'w-1=battle'
p1214
aS'w-1=be'
p1215
aS'w-1=because'
p1216
aS'w-1=begin'
p1217
aS'w-1=behind'
p1218
aS'w-1=benefit'
p1219
aS'w-1=between'
p1220
aS'w-1=big'
p1221
aS'w-1=biggest'
p1222
aS'w-1=border'
p1223
aS'w-1=bridge'
p1224
aS'w-1=but'
p1225
aS'w-1=by'
p1226
aS'w-1=calm'
p1227
aS'w-1=check'
p1228
aS'w-1=cite'
p1229
aS'w-1=city'
p1230
aS'w-1=combat'
p1231
aS'w-1=competitor'
p1232
aS'w-1=concern'
p1233
aS'w-1=conflict'
p1234
aS'w-1=consumer'
p1235
aS'w-1=consumption'
p1236
aS'w-1=contain'
p1237
aS'w-1=continuous'
p1238
aS'w-1=continuously'
p1239
aS'w-1=control'
p1240
aS'w-1=core'
p1241
aS'w-1=cost'
p1242
aS'w-1=could'
p1243
aS'w-1=counter'
p1244
aS'w-1=country'
p1245
aS'w-1=cover'
p1246
aS'w-1=curb'
p1247
aS'w-1=current'
p1248
aS'w-1=demand'
p1249
aS'w-1=despite'
p1250
aS'w-1=discuss'
p1251
aS'w-1=dollar'
p1252
aS'w-1=dramatic'
p1253
aS'w-1=dramatically'
p1254
aS'w-1=earnings'
p1255
aS'w-1=ease'
p1256
aS'w-1=easily'
p1257
aS'w-1=eventually'
p1258
aS'w-1=everything'
p1259
aS'w-1=expect'
p1260
aS'w-1=exporter'
p1261
aS'w-1=extraordinary'
p1262
aS'w-1=face'
p1263
aS'w-1=father'
p1264
aS'w-1=fear'
p1265
aS'w-1=fight'
p1266
aS'w-1=figure'
p1267
aS'w-1=first'
p1268
aS'w-1=for'
p1269
aS'w-1=frequently'
p1270
aS'w-1=frightening'
p1271
aS'w-1=from'
p1272
aS'w-1=fuel'
p1273
aS'w-1=future'
p1274
aS'w-1=give'
p1275
aS'w-1=global'
p1276
aS'w-1=globally'
p1277
aS'w-1=gradually'
p1278
aS'w-1=have'
p1279
aS'w-1=he'
p1280
aS'w-1=high'
p1281
aS'w-1=identify'
p1282
aS'w-1=if'
p1283
aS'w-1=in'
p1284
aS'w-1=incense'
p1285
aS'w-1=include'
p1286
aS'w-1=income'
p1287
aS'w-1=increase'
p1288
aS'w-1=increasingly'
p1289
aS'w-1=index'
p1290
aS'w-1=inflation'
p1291
aS'w-1=influence'
p1292
aS'w-1=institution'
p1293
aS'w-1=insurgency'
p1294
aS'w-1=into'
p1295
aS'w-1=investment'
p1296
aS'w-1=it'
p1297
aS'w-1=its'
p1298
aS'w-1=just'
p1299
aS'w-1=keep'
p1300
aS'w-1=kill'
p1301
aS'w-1=largest'
p1302
aS'w-1=level'
p1303
aS'w-1=like'
p1304
aS'w-1=likely'
p1305
aS'w-1=long-term'
p1306
aS'w-1=market'
p1307
aS'w-1=massive'
p1308
aS'w-1=may'
p1309
aS'w-1=meet'
p1310
aS'w-1=mercury'
p1311
aS'w-1=meteoric'
p1312
aS'w-1=military'
p1313
aS'w-1=monthly'
p1314
aS'w-1=must'
p1315
aS'w-1=need'
p1316
aS'w-1=not'
p1317
aS'w-1=now'
p1318
aS'w-1=number'
p1319
aS'w-1=of'
p1320
aS'w-1=offset'
p1321
aS'w-1=oil'
p1322
aS'w-1=one-meter'
p1323
aS'w-1=only'
p1324
aS'w-1=over'
p1325
aS'w-1=particularly'
p1326
aS'w-1=pay'
p1327
aS'w-1=peaceful'
p1328
aS'w-1=people'
p1329
aS'w-1=percent'
p1330
aS'w-1=player'
p1331
aS'w-1=point'
p1332
aS'w-1=police'
p1333
aS'w-1=poll'
p1334
aS'w-1=population'
p1335
aS'w-1=possible'
p1336
aS'w-1=predict'
p1337
aS'w-1=president'
p1338
aS'w-1=price'
p1339
aS'w-1=profit'
p1340
aS'w-1=progressively'
p1341
aS'w-1=prompt'
p1342
aS'w-1=protest'
p1343
aS'w-1=purchase'
p1344
aS'w-1=question'
p1345
aS'w-1=quickly'
p1346
aS'w-1=rapidly'
p1347
aS'w-1=rarely'
p1348
aS'w-1=rate'
p1349
aS'w-1=really'
p1350
aS'w-1=rebel'
p1351
aS'w-1=recent'
p1352
aS'w-1=record'
p1353
aS'w-1=recruiter'
p1354
aS'w-1=refugee'
p1355
aS'w-1=relentless'
p1356
aS'w-1=river'
p1357
aS'w-1=room'
p1358
aS'w-1=sale'
p1359
aS'w-1=say'
p1360
aS'w-1=sea'
p1361
aS'w-1=sea-level'
p1362
aS'w-1=see'
p1363
aS'w-1=sharp'
p1364
aS'w-1=sharply'
p1365
aS'w-1=shortagesand'
p1366
aS'w-1=should'
p1367
aS'w-1=significant'
p1368
aS'w-1=similar'
p1369
aS'w-1=six-meter'
p1370
aS'w-1=slight'
p1371
aS'w-1=smallest'
p1372
aS'w-1=smoke'
p1373
aS'w-1=south'
p1374
aS'w-1=sprinkling'
p1375
aS'w-1=stabilize'
p1376
aS'w-1=steadily'
p1377
aS'w-1=steady'
p1378
aS'w-1=steep'
p1379
aS'w-1=steeply'
p1380
aS'w-1=stem'
p1381
aS'w-1=still'
p1382
aS'w-1=stock'
p1383
aS'w-1=subscriber'
p1384
aS'w-1=substantial'
p1385
aS'w-1=sun'
p1386
aS'w-1=surprising'
p1387
aS'w-1=sustained'
p1388
aS'w-1=temperature'
p1389
aS'w-1=tension'
p1390
aS'w-1=that'
p1391
aS'w-1=the'
p1392
aS'w-1=they'
p1393
aS'w-1=this'
p1394
aS'w-1=though'
p1395
aS'w-1=three'
p1396
aS'w-1=through'
p1397
aS'w-1=throw'
p1398
aS'w-1=to'
p1399
aS'w-1=toll'
p1400
aS'w-1=tourism'
p1401
aS'w-1=town'
p1402
aS'w-1=under'
p1403
aS'w-1=unemployment'
p1404
aS'w-1=university'
p1405
aS'w-1=unprecedented'
p1406
aS'w-1=victim'
p1407
aS'w-1=violence'
p1408
aS'w-1=we'
p1409
aS'w-1=which'
p1410
aS'w-1=who'
p1411
aS'w-1=will'
p1412
aS'w-1=with'
p1413
aS'w-1=woman'
p1414
aS'w-1=worldwide'
p1415
aS'w-1=worry'
p1416
aS'w-1=worrying'
p1417
aS'w-1=would'
p1418
aS'w-1=year'
p1419
aS"w-2=''"
p1420
aS"w-2='s"
p1421
aS'w-2=,'
p1422
aS'w-2=-'
p1423
aS'w-2=-rrb-'
p1424
aS'w-2=.'
p1425
aS'w-2=10'
p1426
aS'w-2=160-meter-long'
p1427
aS'w-2=2006'
p1428
aS'w-2=2012'
p1429
aS'w-2=43'
p1430
aS'w-2=45'
p1431
aS'w-2=5.1'
p1432
aS'w-2=Affairs'
p1433
aS'w-2=Africa'
p1434
aS'w-2=Americans'
p1435
aS'w-2=Angry'
p1436
aS'w-2=Asia'
p1437
aS'w-2=Australia'
p1438
aS'w-2=Bangladesh'
p1439
aS'w-2=CIA'
p1440
aS'w-2=China'
p1441
aS'w-2=Christ'
p1442
aS'w-2=Courts'
p1443
aS'w-2=Delhi'
p1444
aS'w-2=East'
p1445
aS'w-2=Food'
p1446
aS'w-2=Foreign'
p1447
aS'w-2=Friday'
p1448
aS'w-2=Haiti'
p1449
aS'w-2=Hang'
p1450
aS'w-2=Huckabee'
p1451
aS'w-2=Hutus'
p1452
aS'w-2=Ike'
p1453
aS'w-2=India'
p1454
aS'w-2=Industrial'
p1455
aS'w-2=Iran'
p1456
aS'w-2=Ivory'
p1457
aS'w-2=Japan'
p1458
aS'w-2=July'
p1459
aS'w-2=Kenya'
p1460
aS'w-2=Kirchner'
p1461
aS'w-2=Kospi'
p1462
aS'w-2=Liberation'
p1463
aS'w-2=Liberians'
p1464
aS'w-2=Maryland'
p1465
aS'w-2=Michael'
p1466
aS'w-2=Minni'
p1467
aS'w-2=Mr.'
p1468
aS'w-2=Musharraf'
p1469
aS'w-2=NATO'
p1470
aS'w-2=Nikkei'
p1471
aS'w-2=October'
p1472
aS'w-2=Pakistanis'
p1473
aS'w-2=Party'
p1474
aS'w-2=President'
p1475
aS'w-2=Pungue'
p1476
aS'w-2=Smokey'
p1477
aS'w-2=Stars'
p1478
aS'w-2=Thailand'
p1479
aS'w-2=Thursday'
p1480
aS'w-2=U.S'
p1481
aS'w-2=U.S.'
p1482
aS'w-2=York'
p1483
aS'w-2=Zuma'
p1484
aS'w-2=``'
p1485
aS'w-2=a'
p1486
aS'w-2=able'
p1487
aS'w-2=about'
p1488
aS'w-2=accommodate'
p1489
aS'w-2=addiction'
p1490
aS'w-2=address'
p1491
aS'w-2=affect'
p1492
aS'w-2=african'
p1493
aS'w-2=again'
p1494
aS'w-2=against'
p1495
aS'w-2=ago'
p1496
aS'w-2=all'
p1497
aS'w-2=allow'
p1498
aS'w-2=also'
p1499
aS'w-2=american'
p1500
aS'w-2=amid'
p1501
aS'w-2=amidst'
p1502
aS'w-2=among'
p1503
aS'w-2=amount'
p1504
aS'w-2=and'
p1505
aS'w-2=another'
p1506
aS'w-2=anxiety'
p1507
aS'w-2=argue'
p1508
aS'w-2=arrival'
p1509
aS'w-2=as'
p1510
aS'w-2=asian'
p1511
aS'w-2=assassination'
p1512
aS'w-2=assistance'
p1513
aS'w-2=at'
p1514
aS'w-2=attack'
p1515
aS'w-2=attendance'
p1516
aS'w-2=attribute'
p1517
aS'w-2=average'
p1518
aS'w-2=backdrop'
p1519
aS'w-2=background'
p1520
aS'w-2=baht'
p1521
aS'w-2=battle'
p1522
aS'w-2=be'
p1523
aS'w-2=because'
p1524
aS'w-2=begin'
p1525
aS'w-2=benefit'
p1526
aS'w-2=big'
p1527
aS'w-2=biggest'
p1528
aS'w-2=black'
p1529
aS'w-2=blame'
p1530
aS'w-2=bomber'
p1531
aS'w-2=brutality'
p1532
aS'w-2=burden'
p1533
aS'w-2=but'
p1534
aS'w-2=by'
p1535
aS'w-2=camp'
p1536
aS'w-2=campus'
p1537
aS'w-2=can'
p1538
aS'w-2=candidate'
p1539
aS'w-2=car'
p1540
aS'w-2=carpeting'
p1541
aS'w-2=cartel'
p1542
aS'w-2=casualty'
p1543
aS'w-2=cause'
p1544
aS'w-2=challenge'
p1545
aS'w-2=check'
p1546
aS'w-2=child'
p1547
aS'w-2=church'
p1548
aS'w-2=cite'
p1549
aS'w-2=civilian'
p1550
aS'w-2=coincide'
p1551
aS'w-2=combat'
p1552
aS'w-2=come'
p1553
aS'w-2=commander'
p1554
aS'w-2=complain'
p1555
aS'w-2=composite'
p1556
aS'w-2=concern'
p1557
aS'w-2=condition'
p1558
aS'w-2=confidence'
p1559
aS'w-2=conflict'
p1560
aS'w-2=congressman'
p1561
aS'w-2=consequence'
p1562
aS'w-2=constraint'
p1563
aS'w-2=continue'
p1564
aS'w-2=continued'
p1565
aS'w-2=contribute'
p1566
aS'w-2=control'
p1567
aS'w-2=cope'
p1568
aS'w-2=corruption'
p1569
aS'w-2=cost'
p1570
aS'w-2=could'
p1571
aS'w-2=country'
p1572
aS'w-2=crime'
p1573
aS'w-2=crisis'
p1574
aS'w-2=crop'
p1575
aS'w-2=curb'
p1576
aS'w-2=currency'
p1577
aS'w-2=cycle'
p1578
aS'w-2=dark'
p1579
aS'w-2=deal'
p1580
aS'w-2=death'
p1581
aS'w-2=debt'
p1582
aS'w-2=degree'
p1583
aS'w-2=demand'
p1584
aS'w-2=demonstration'
p1585
aS'w-2=describe'
p1586
aS'w-2=despite'
p1587
aS'w-2=determination'
p1588
aS'w-2=developed'
p1589
aS'w-2=die'
p1590
aS'w-2=direct'
p1591
aS'w-2=disaster'
p1592
aS'w-2=disease'
p1593
aS'w-2=do'
p1594
aS'w-2=donation'
p1595
aS'w-2=dong'
p1596
aS'w-2=drought'
p1597
aS'w-2=drug-resistance'
p1598
aS'w-2=due'
p1599
aS'w-2=during'
p1600
aS'w-2=ease'
p1601
aS'w-2=economist'
p1602
aS'w-2=economy'
p1603
aS'w-2=education'
p1604
aS'w-2=effect'
p1605
aS'w-2=egg'
p1606
aS'w-2=elsewhere'
p1607
aS'w-2=emergency'
p1608
aS'w-2=emission'
p1609
aS'w-2=energy'
p1610
aS'w-2=enrollment'
p1611
aS'w-2=ethnic'
p1612
aS'w-2=even'
p1613
aS'w-2=event'
p1614
aS'w-2=everything'
p1615
aS'w-2=evidence'
p1616
aS'w-2=expect'
p1617
aS'w-2=extinction'
p1618
aS'w-2=face'
p1619
aS'w-2=fail'
p1620
aS'w-2=farmer'
p1621
aS'w-2=fear'
p1622
aS'w-2=feeling'
p1623
aS'w-2=fight'
p1624
aS'w-2=figure'
p1625
aS'w-2=financial'
p1626
aS'w-2=firewood'
p1627
aS'w-2=firm'
p1628
aS'w-2=five'
p1629
aS'w-2=flood'
p1630
aS'w-2=floodwater'
p1631
aS'w-2=follow'
p1632
aS'w-2=food'
p1633
aS'w-2=footprint'
p1634
aS'w-2=for'
p1635
aS'w-2=force'
p1636
aS'w-2=fortune'
p1637
aS'w-2=from'
p1638
aS'w-2=frustrate'
p1639
aS'w-2=frustration'
p1640
aS'w-2=fuel'
p1641
aS'w-2=fund'
p1642
aS'w-2=gap'
p1643
aS'w-2=gathering'
p1644
aS'w-2=generate'
p1645
aS'w-2=get'
p1646
aS'w-2=ghg'
p1647
aS'w-2=glacier'
p1648
aS'w-2=global'
p1649
aS'w-2=government'
p1650
aS'w-2=grow'
p1651
aS'w-2=growth'
p1652
aS'w-2=halt'
p1653
aS'w-2=hammer'
p1654
aS'w-2=handle'
p1655
aS'w-2=hard'
p1656
aS'w-2=harvest'
p1657
aS'w-2=have'
p1658
aS'w-2=he'
p1659
aS'w-2=headway'
p1660
aS'w-2=help'
p1661
aS'w-2=here'
p1662
aS'w-2=heroin'
p1663
aS'w-2=hike'
p1664
aS'w-2=hold'
p1665
aS'w-2=hope'
p1666
aS'w-2=hsbc'
p1667
aS'w-2=hurricane'
p1668
aS'w-2=hurt'
p1669
aS'w-2=if'
p1670
aS'w-2=impact'
p1671
aS'w-2=import'
p1672
aS'w-2=in'
p1673
aS'w-2=income'
p1674
aS'w-2=index'
p1675
aS'w-2=indicative'
p1676
aS'w-2=industrialize'
p1677
aS'w-2=inevitably'
p1678
aS'w-2=infection'
p1679
aS'w-2=inflation'
p1680
aS'w-2=injury'
p1681
aS'w-2=insider'
p1682
aS'w-2=instead'
p1683
aS'w-2=interest'
p1684
aS'w-2=international'
p1685
aS'w-2=intersection'
p1686
aS'w-2=inundate'
p1687
aS'w-2=investment'
p1688
aS'w-2=islamic'
p1689
aS'w-2=issue'
p1690
aS'w-2=it'
p1691
aS'w-2=item'
p1692
aS'w-2=its'
p1693
aS'w-2=job'
p1694
aS'w-2=jobless'
p1695
aS'w-2=joy'
p1696
aS'w-2=just'
p1697
aS'w-2=kenyan'
p1698
aS'w-2=labor'
p1699
aS'w-2=largely'
p1700
aS'w-2=last'
p1701
aS'w-2=lead'
p1702
aS'w-2=leader'
p1703
aS'w-2=lessrainfall'
p1704
aS'w-2=level'
p1705
aS'w-2=likely'
p1706
aS'w-2=link'
p1707
aS'w-2=market'
p1708
aS'w-2=massive'
p1709
aS'w-2=may'
p1710
aS'w-2=meet'
p1711
aS'w-2=militant'
p1712
aS'w-2=million'
p1713
aS'w-2=mistrust'
p1714
aS'w-2=mix'
p1715
aS'w-2=month'
p1716
aS'w-2=mortgage'
p1717
aS'w-2=mostvulnerable'
p1718
aS'w-2=music'
p1719
aS'w-2=muslim'
p1720
aS'w-2=nation'
p1721
aS'w-2=need'
p1722
aS'w-2=no'
p1723
aS'w-2=note'
p1724
aS'w-2=number'
p1725
aS'w-2=of'
p1726
aS'w-2=official'
p1727
aS'w-2=oil'
p1728
aS'w-2=on'
p1729
aS'w-2=only'
p1730
aS'w-2=over'
p1731
aS'w-2=overshadow'
p1732
aS'w-2=pain'
p1733
aS'w-2=particularly'
p1734
aS'w-2=people'
p1735
aS'w-2=percent'
p1736
aS'w-2=percentage'
p1737
aS'w-2=point'
p1738
aS'w-2=policy'
p1739
aS'w-2=poor'
p1740
aS'w-2=population'
p1741
aS'w-2=poultry'
p1742
aS'w-2=predict'
p1743
aS'w-2=prescription'
p1744
aS'w-2=president'
p1745
aS'w-2=pressure'
p1746
aS'w-2=price'
p1747
aS'w-2=primarily'
p1748
aS'w-2=produce'
p1749
aS'w-2=production'
p1750
aS'w-2=protest'
p1751
aS'w-2=rate'
p1752
aS'w-2=rating'
p1753
aS'w-2=ready'
p1754
aS'w-2=reason'
p1755
aS'w-2=recruitment'
p1756
aS'w-2=reflect'
p1757
aS'w-2=rein'
p1758
aS'w-2=relation'
p1759
aS'w-2=release'
p1760
aS'w-2=report'
p1761
aS'w-2=respond'
p1762
aS'w-2=responsible'
p1763
aS'w-2=result'
p1764
aS'w-2=retail'
p1765
aS'w-2=rice'
p1766
aS'w-2=ringgit'
p1767
aS'w-2=rule'
p1768
aS'w-2=salary'
p1769
aS'w-2=sale'
p1770
aS'w-2=say'
p1771
aS'w-2=scan'
p1772
aS'w-2=scanner'
p1773
aS'w-2=scientist'
p1774
aS'w-2=sea'
p1775
aS'w-2=see'
p1776
aS'w-2=sentiment'
p1777
aS'w-2=set'
p1778
aS'w-2=sharp'
p1779
aS'w-2=shield'
p1780
aS'w-2=shortage'
p1781
aS'w-2=should'
p1782
aS'w-2=show'
p1783
aS'w-2=since'
p1784
aS'w-2=single-day'
p1785
aS'w-2=skyscraper'
p1786
aS'w-2=slow'
p1787
aS'w-2=smaller'
p1788
aS'w-2=smoke'
p1789
aS'w-2=smuggling'
p1790
aS'w-2=some'
p1791
aS'w-2=speculation'
p1792
aS'w-2=spending'
p1793
aS'w-2=stake'
p1794
aS'w-2=staple'
p1795
aS'w-2=start'
p1796
aS'w-2=steel'
p1797
aS'w-2=stem'
p1798
aS'w-2=stock'
p1799
aS'w-2=stop'
p1800
aS'w-2=strike'
p1801
aS'w-2=strong'
p1802
aS'w-2=struggle'
p1803
aS'w-2=submerge'
p1804
aS'w-2=such'
p1805
aS'w-2=suffer'
p1806
aS'w-2=suggest'
p1807
aS'w-2=sun'
p1808
aS'w-2=supplies'
p1809
aS'w-2=support'
p1810
aS'w-2=suppose'
p1811
aS'w-2=tackle'
p1812
aS'w-2=tap'
p1813
aS'w-2=tariff'
p1814
aS'w-2=temperature'
p1815
aS'w-2=tension'
p1816
aS'w-2=term'
p1817
aS'w-2=than'
p1818
aS'w-2=that'
p1819
aS'w-2=the'
p1820
aS'w-2=then'
p1821
aS'w-2=there'
p1822
aS'w-2=they'
p1823
aS'w-2=think'
p1824
aS'w-2=this'
p1825
aS'w-2=those'
p1826
aS'w-2=time'
p1827
aS'w-2=to'
p1828
aS'w-2=toll'
p1829
aS'w-2=trafficking'
p1830
aS'w-2=travel'
p1831
aS'w-2=trillion'
p1832
aS'w-2=turmoil'
p1833
aS'w-2=two-degree'
p1834
aS'w-2=uncertainty'
p1835
aS'w-2=understand'
p1836
aS'w-2=unemployment'
p1837
aS'w-2=university'
p1838
aS'w-2=unless'
p1839
aS'w-2=unrest'
p1840
aS'w-2=up'
p1841
aS'w-2=upward'
p1842
aS'w-2=very'
p1843
aS'w-2=victim'
p1844
aS'w-2=violence'
p1845
aS'w-2=volatility'
p1846
aS'w-2=vulnerable'
p1847
aS'w-2=wages'
p1848
aS'w-2=wake'
p1849
aS'w-2=want'
p1850
aS'w-2=warm'
p1851
aS'w-2=warn'
p1852
aS'w-2=water'
p1853
aS'w-2=way'
p1854
aS'w-2=we'
p1855
aS'w-2=weekly'
p1856
aS'w-2=well-wisher'
p1857
aS'w-2=when'
p1858
aS'w-2=where'
p1859
aS'w-2=which'
p1860
aS'w-2=whites'
p1861
aS'w-2=will'
p1862
aS'w-2=with'
p1863
aS'w-2=witness'
p1864
aS'w-2=word'
p1865
aS'w-2=work'
p1866
aS'w-2=worker'
p1867
aS'w-2=world'
p1868
aS'w-2=worry'
p1869
aS'w-2=would'
p1870
aS'w-2=year'
p1871
aS'w-2=yen'
p1872
aS'w-2=yet'
p1873
aS'w-2=young'
p1874
aS'xcomp=Gillespie'
p1875
aS'xcomp=about'
p1876
aS'xcomp=accuse'
p1877
aS'xcomp=achieve'
p1878
aS'xcomp=ask'
p1879
aS'xcomp=complain'
p1880
aS'xcomp=defeat'
p1881
aS'xcomp=expose'
p1882
aS'xcomp=fight'
p1883
aS'xcomp=follow'
p1884
aS'xcomp=force'
p1885
aS'xcomp=foreman'
p1886
aS'xcomp=head'
p1887
aS'xcomp=hit'
p1888
aS'xcomp=increase'
p1889
aS'xcomp=meet'
p1890
aS'xcomp=minister'
p1891
aS'xcomp=nominee'
p1892
aS'xcomp=pass'
p1893
aS'xcomp=post'
p1894
aS'xcomp=reach'
p1895
aS'xcomp=represent'
p1896
aS'xcomp=reverse'
p1897
aS'xcomp=say'
p1898
aS'xcomp=seek'
p1899
aS'xcomp=solve'
p1900
aS'xcomp=speak'
p1901
aS'xcomp=suggest'
p1902
aS'xcomp=take'
p1903
asS'dtype'
p1904
cnumpy
float64
p1905
sS'vocabulary_'
p1906
(dp1907
g1879
I1870
sg122
I113
sg321
I312
sg103
I94
sg1469
I1460
sg469
I460
sg309
I300
sg57
I48
sg1448
I1439
sg517
I508
sg496
I487
sg1336
I1327
sg985
I976
sg1705
I1696
sg938
I929
sg1648
I1639
sg1840
I1831
sg480
I471
sg1369
I1360
sg1038
I1029
sg1722
I1713
sg958
I949
sg1304
I1295
sg839
I830
sg479
I470
sg53
I44
sg1651
I1642
sg1791
I1782
sg1328
I1319
sg481
I472
sg427
I418
sg1212
I1203
sg1889
I1880
sg1094
I1085
sg192
I183
sg660
I651
sg1900
I1891
sg1854
I1845
sg1412
I1403
sg866
I857
sg1588
I1579
sg460
I451
sg291
I282
sg1503
I1494
sg239
I230
sg1439
I1430
sg1827
I1818
sg1859
I1850
sg622
I613
sg686
I677
sg1740
I1731
sg672
I663
sg1377
I1368
sg750
I741
sg1340
I1331
sg1428
I1419
sg753
I744
sg350
I341
sg944
I935
sg1026
I1017
sg1833
I1824
sg1759
I1750
sg401
I392
sg621
I612
sg1434
I1425
sg121
I112
sg531
I522
sg974
I965
sg1294
I1285
sg1285
I1276
sg1497
I1488
sg1730
I1721
sg1243
I1234
sg562
I553
sg216
I207
sg699
I690
sg1883
I1874
sg1081
I1072
sg374
I365
sg1761
I1752
sg1819
I1810
sg805
I796
sg836
I827
sg1244
I1235
sg1818
I1809
sg446
I437
sg1657
I1648
sg296
I287
sg1841
I1832
sg1851
I1842
sg1725
I1716
sg1089
I1080
sg1755
I1746
sg300
I291
sg1703
I1694
sg1022
I1013
sg148
I139
sg999
I990
sg996
I987
sg859
I850
sg1474
I1465
sg997
I988
sg1096
I1087
sg1699
I1690
sg651
I642
sg1765
I1756
sg146
I137
sg1356
I1347
sg1194
I1185
sg1449
I1440
sg736
I727
sg422
I413
sg1367
I1358
sg505
I496
sg91
I82
sg1893
I1884
sg1116
I1107
sg95
I86
sg27
I18
sg1491
I1482
sg224
I215
sg794
I785
sg164
I155
sg1113
I1104
sg207
I198
sg626
I617
sg625
I616
sg542
I533
sg1083
I1074
sg129
I120
sg80
I71
sg1768
I1759
sg363
I354
sg817
I808
sg1371
I1362
sg1739
I1730
sg1753
I1744
sg478
I469
sg392
I383
sg960
I951
sg828
I819
sg431
I422
sg893
I884
sg1193
I1184
sg206
I197
sg1399
I1390
sg414
I405
sg1268
I1259
sg1861
I1852
sg1885
I1876
sg1678
I1669
sg1482
I1473
sg1594
I1585
sg307
I298
sg145
I136
sg874
I865
sg1738
I1729
sg428
I419
sg852
I843
sg1037
I1028
sg1876
I1867
sg142
I133
sg522
I513
sg1895
I1886
sg1127
I1118
sg907
I898
sg26
I17
sg1307
I1298
sg1380
I1371
sg808
I799
sg61
I52
sg1219
I1210
sg928
I919
sg959
I950
sg1504
I1495
sg419
I410
sg384
I375
sg802
I793
sg1398
I1389
sg44
I35
sg1072
I1063
sg1898
I1889
sg555
I546
sg326
I317
sg933
I924
sg1159
I1150
sg955
I946
sg208
I199
sg568
I559
sg711
I702
sg232
I223
sg1131
I1122
sg780
I771
sg793
I784
sg631
I622
sg304
I295
sg1132
I1123
sg918
I909
sg1476
I1467
sg471
I462
sg376
I367
sg43
I34
sg261
I252
sg1479
I1470
sg1679
I1670
sg1224
I1215
sg987
I978
sg252
I243
sg1624
I1615
sg448
I439
sg1111
I1102
sg77
I68
sg924
I915
sg1598
I1589
sg1826
I1817
sg1671
I1662
sg41
I32
sg1563
I1554
sg1799
I1790
sg225
I216
sg349
I340
sg485
I476
sg1508
I1499
sg1728
I1719
sg418
I409
sg1344
I1335
sg276
I267
sg262
I253
sg969
I960
sg441
I432
sg1527
I1518
sg68
I59
sg408
I399
sg664
I655
sg763
I754
sg1714
I1705
sg1005
I996
sg386
I377
sg1550
I1541
sg779
I770
sg497
I488
sg126
I117
sg1874
I1865
sg1683
I1674
sg1890
I1881
sg1338
I1329
sg500
I491
sg420
I411
sg1582
I1573
sg133
I124
sg499
I490
sg1870
I1861
sg163
I154
sg42
I33
sg1140
I1131
sg288
I279
sg1831
I1822
sg1290
I1281
sg109
I100
sg666
I657
sg357
I348
sg848
I839
sg1713
I1704
sg851
I842
sg1685
I1676
sg1688
I1679
sg1617
I1608
sg340
I331
sg317
I308
sg191
I182
sg1641
I1632
sg1372
I1363
sg437
I428
sg1863
I1854
sg1499
I1490
sg1166
I1157
sg1050
I1041
sg1455
I1446
sg1205
I1196
sg189
I180
sg1040
I1031
sg92
I83
sg1262
I1253
sg1622
I1613
sg1030
I1021
sg1886
I1877
sg567
I558
sg853
I844
sg1673
I1664
sg1691
I1682
sg169
I160
sg1614
I1605
sg967
I958
sg548
I539
sg694
I685
sg1048
I1039
sg1715
I1706
sg526
I517
sg797
I788
sg1711
I1702
sg511
I502
sg1869
I1860
sg76
I67
sg1593
I1584
sg1314
I1305
sg331
I322
sg199
I190
sg1358
I1349
sg367
I358
sg1208
I1199
sg921
I912
sg1080
I1071
sg1658
I1649
sg1311
I1302
sg951
I942
sg1200
I1191
sg825
I816
sg1270
I1261
sg1463
I1454
sg1098
I1089
sg162
I153
sg725
I716
sg717
I708
sg721
I712
sg734
I725
sg322
I313
sg359
I350
sg633
I624
sg1272
I1263
sg372
I363
sg434
I425
sg73
I64
sg20
I11
sg544
I535
sg637
I628
sg1221
I1212
sg1520
I1511
sg963
I954
sg329
I320
sg674
I665
sg1325
I1316
sg1542
I1533
sg134
I125
sg1240
I1231
sg1672
I1663
sg1182
I1173
sg1836
I1827
sg1265
I1256
sg1781
I1772
sg201
I192
sg330
I321
sg1039
I1030
sg447
I438
sg28
I19
sg247
I238
sg530
I521
sg210
I201
sg1258
I1249
sg1602
I1593
sg383
I374
sg823
I814
sg456
I447
sg403
I394
sg739
I730
sg1397
I1388
sg1537
I1528
sg1505
I1496
sg271
I262
sg1615
I1606
sg209
I200
sg1065
I1056
sg1828
I1819
sg263
I254
sg1467
I1458
sg611
I602
sg614
I605
sg613
I604
sg1085
I1076
sg1601
I1592
sg612
I603
sg1867
I1858
sg1659
I1650
sg680
I671
sg580
I571
sg656
I647
sg782
I773
sg1548
I1539
sg1300
I1291
sg1181
I1172
sg290
I281
sg33
I24
sg532
I523
sg1452
I1443
sg719
I710
sg1292
I1283
sg981
I972
sg289
I280
sg844
I835
sg845
I836
sg47
I38
sg841
I832
sg842
I833
sg1184
I1175
sg391
I382
sg1724
I1715
sg991
I982
sg1259
I1250
sg182
I173
sg1565
I1556
sg1197
I1188
sg1087
I1078
sg1737
I1728
sg1393
I1384
sg1664
I1655
sg1281
I1272
sg1902
I1893
sg528
I519
sg1173
I1164
sg1873
I1864
sg1256
I1247
sg1500
I1491
sg628
I619
sg215
I206
sg470
I461
sg1794
I1785
sg1843
I1834
sg1405
I1396
sg1347
I1338
sg1155
I1146
sg634
I625
sg1260
I1251
sg1690
I1681
sg557
I548
sg12
I3
sg405
I396
sg501
I492
sg324
I315
sg413
I404
sg15
I6
sg558
I549
sg766
I757
sg36
I27
sg34
I25
sg1185
I1176
sg1343
I1334
sg889
I880
sg1478
I1469
sg213
I204
sg941
I932
sg430
I421
sg771
I762
sg1064
I1055
sg1797
I1788
sg196
I187
sg1782
I1773
sg31
I22
sg458
I449
sg861
I852
sg1543
I1534
sg56
I47
sg1798
I1789
sg1540
I1531
sg279
I270
sg757
I748
sg1599
I1590
sg1321
I1312
sg854
I845
sg254
I245
sg687
I678
sg1660
I1651
sg1359
I1350
sg1489
I1480
sg1507
I1498
sg685
I676
sg977
I968
sg1103
I1094
sg986
I977
sg205
I196
sg220
I211
sg1137
I1128
sg235
I226
sg669
I660
sg1345
I1336
sg442
I433
sg1855
I1846
sg1416
I1407
sg1036
I1027
sg371
I362
sg390
I381
sg1229
I1220
sg1555
I1546
sg931
I922
sg1051
I1042
sg1266
I1257
sg1230
I1221
sg1742
I1733
sg1809
I1800
sg398
I389
sg312
I303
sg1784
I1775
sg843
I834
sg586
I577
sg804
I795
sg1899
I1890
sg93
I84
sg1712
I1703
sg1360
I1351
sg964
I955
sg667
I658
sg1408
I1399
sg1029
I1020
sg120
I111
sg1351
I1342
sg617
I608
sg1554
I1545
sg99
I90
sg911
I902
sg776
I767
sg1202
I1193
sg16
I7
sg755
I746
sg315
I306
sg180
I171
sg1086
I1077
sg663
I654
sg368
I359
sg1570
I1561
sg94
I85
sg1820
I1811
sg132
I123
sg1007
I998
sg23
I14
sg937
I928
sg514
I505
sg399
I390
sg1233
I1224
sg749
I740
sg22
I13
sg510
I501
sg1052
I1043
sg1279
I1270
sg1241
I1232
sg1607
I1598
sg1012
I1003
sg509
I500
sg620
I611
sg1559
I1550
sg353
I344
sg467
I458
sg1207
I1198
sg176
I167
sg79
I70
sg78
I69
sg1878
I1869
sg1250
I1241
sg684
I675
sg1884
I1875
sg107
I98
sg1864
I1855
sg117
I108
sg52
I43
sg257
I248
sg791
I782
sg173
I164
sg524
I515
sg700
I691
sg1597
I1588
sg1644
I1635
sg1076
I1067
sg1015
I1006
sg1276
I1267
sg772
I763
sg415
I406
sg1150
I1141
sg294
I285
sg233
I224
sg1382
I1373
sg1341
I1332
sg1443
I1434
sg1014
I1005
sg1385
I1376
sg1115
I1106
sg989
I980
sg231
I222
sg1488
I1479
sg25
I16
sg1832
I1823
sg1837
I1828
sg1108
I1099
sg1446
I1437
sg1156
I1147
sg1567
I1558
sg161
I152
sg1424
I1415
sg362
I353
sg1736
I1727
sg1009
I1000
sg1011
I1002
sg1274
I1265
sg1401
I1392
sg1152
I1143
sg1655
I1646
sg112
I103
sg144
I135
sg1544
I1535
sg751
I742
sg195
I186
sg696
I687
sg1426
I1417
sg1146
I1137
sg591
I582
sg1045
I1036
sg1460
I1451
sg277
I268
sg819
I810
sg876
I867
sg423
I414
sg596
I587
sg714
I705
sg1483
I1474
sg1519
I1510
sg1817
I1808
sg914
I905
sg1312
I1303
sg810
I801
sg592
I583
sg1041
I1032
sg1558
I1549
sg657
I648
sg579
I570
sg865
I856
sg1078
I1069
sg830
I821
sg1084
I1075
sg1242
I1233
sg242
I233
sg223
I214
sg770
I761
sg520
I511
sg953
I944
sg1541
I1532
sg1447
I1438
sg1487
I1478
sg1413
I1404
sg1564
I1555
sg1195
I1186
sg1521
I1512
sg1283
I1274
sg539
I530
sg238
I229
sg75
I66
sg74
I65
sg1247
I1238
sg1180
I1171
sg543
I534
sg292
I283
sg1693
I1684
sg218
I209
sg1053
I1044
sg537
I528
sg900
I891
sg1143
I1134
sg1161
I1152
sg284
I275
sg599
I590
sg1189
I1180
sg1355
I1346
sg796
I787
sg1731
I1722
sg957
I948
sg1720
I1711
sg1609
I1600
sg394
I385
sg762
I753
sg1106
I1097
sg1576
I1567
sg18
I9
sg1901
I1892
sg1415
I1406
sg1746
I1737
sg1020
I1011
sg816
I807
sg1580
I1571
sg1282
I1273
sg926
I917
sg1528
I1519
sg255
I246
sg1167
I1158
sg1396
I1387
sg1498
I1489
sg1846
I1837
sg319
I310
sg1834
I1825
sg811
I802
sg139
I130
sg658
I649
sg1440
I1431
sg988
I979
sg551
I542
sg1803
I1794
sg487
I478
sg979
I970
sg1210
I1201
sg19
I10
sg89
I80
sg1121
I1112
sg1327
I1318
sg1717
I1708
sg249
I240
sg1684
I1675
sg1331
I1322
sg116
I107
sg1707
I1698
sg1649
I1640
sg39
I30
sg930
I921
sg868
I859
sg156
I147
sg1848
I1839
sg978
I969
sg130
I121
sg1141
I1132
sg466
I457
sg598
I589
sg1278
I1269
sg222
I213
sg962
I953
sg785
I776
sg1629
I1620
sg486
I477
sg102
I93
sg647
I638
sg1719
I1710
sg272
I263
sg212
I203
sg433
I424
sg1066
I1057
sg1093
I1084
sg1033
I1024
sg1892
I1883
sg649
I640
sg141
I132
sg821
I812
sg219
I210
sg521
I512
sg513
I504
sg1595
I1586
sg1025
I1016
sg1163
I1154
sg1441
I1432
sg527
I518
sg1539
I1530
sg432
I423
sg1857
I1848
sg752
I743
sg788
I779
sg454
I445
sg463
I454
sg389
I380
sg1054
I1045
sg1681
I1672
sg1553
I1544
sg1055
I1046
sg1264
I1255
sg1814
I1805
sg888
I879
sg1254
I1245
sg214
I205
sg1400
I1391
sg1183
I1174
sg488
I479
sg1897
I1888
sg1663
I1654
sg1296
I1287
sg1557
I1548
sg1643
I1634
sg920
I911
sg1587
I1578
sg1829
I1820
sg298
I289
sg671
I662
sg260
I251
sg492
I483
sg1199
I1190
sg48
I39
sg838
I829
sg60
I51
sg1047
I1038
sg1117
I1108
sg1698
I1689
sg1532
I1523
sg1501
I1492
sg590
I581
sg84
I75
sg541
I532
sg998
I989
sg188
I179
sg1585
I1576
sg1027
I1018
sg1477
I1468
sg706
I697
sg1365
I1356
sg1591
I1582
sg1566
I1557
sg1389
I1380
sg644
I635
sg1806
I1797
sg1525
I1516
sg662
I653
sg682
I673
sg69
I60
sg1606
I1597
sg325
I316
sg1160
I1151
sg1003
I994
sg1419
I1410
sg1584
I1575
sg98
I89
sg451
I442
sg1176
I1167
sg710
I701
sg523
I514
sg38
I29
sg244
I235
sg765
I756
sg935
I926
sg1569
I1560
sg1352
I1343
sg1287
I1278
sg114
I105
sg1378
I1369
sg1608
I1599
sg1028
I1019
sg1656
I1647
sg1665
I1656
sg1538
I1529
sg455
I446
sg1411
I1402
sg436
I427
sg1153
I1144
sg1702
I1693
sg1571
I1562
sg13
I4
sg818
I809
sg756
I747
sg556
I547
sg342
I333
sg1573
I1564
sg827
I818
sg46
I37
sg1795
I1786
sg301
I292
sg778
I769
sg744
I735
sg194
I185
sg1323
I1314
sg1868
I1859
sg1653
I1644
sg882
I873
sg495
I486
sg316
I307
sg775
I766
sg1222
I1213
sg1422
I1413
sg1423
I1414
sg1438
I1429
sg318
I309
sg179
I170
sg1824
I1815
sg1877
I1868
sg1092
I1083
sg970
I961
sg1556
I1547
sg250
I241
sg1235
I1226
sg1632
I1623
sg1619
I1610
sg1560
I1551
sg151
I142
sg881
I872
sg1021
I1012
sg1686
I1677
sg1486
I1477
sg704
I695
sg990
I981
sg1133
I1124
sg1694
I1685
sg266
I257
sg1077
I1068
sg1120
I1111
sg1280
I1271
sg445
I436
sg547
I538
sg703
I694
sg341
I332
sg1218
I1209
sg474
I465
sg1773
I1764
sg435
I426
sg1549
I1540
sg715
I706
sg1600
I1591
sg697
I688
sg360
I351
sg1049
I1040
sg1016
I1007
sg1190
I1181
sg1706
I1697
sg1302
I1293
sg1825
I1816
sg337
I328
sg311
I302
sg1109
I1100
sg673
I664
sg1362
I1353
sg1130
I1121
sg946
I937
sg515
I506
sg119
I110
sg1462
I1453
sg1301
I1292
sg1063
I1054
sg604
I595
sg595
I586
sg1388
I1379
sg607
I598
sg606
I597
sg609
I600
sg1805
I1796
sg624
I615
sg627
I618
sg835
I826
sg50
I41
sg379
I370
sg1346
I1337
sg1480
I1471
sg1718
I1709
sg1830
I1821
sg632
I623
sg1568
I1559
sg268
I259
sg966
I957
sg1291
I1282
sg630
I621
sg1875
I1866
sg1286
I1277
sg1524
I1515
sg1391
I1382
sg1102
I1093
sg1387
I1378
sg1757
I1748
sg688
I679
sg1402
I1393
sg493
I484
sg1637
I1628
sg424
I415
sg1735
I1726
sg97
I88
sg912
I903
sg411
I402
sg877
I868
sg1225
I1216
sg100
I91
sg759
I750
sg737
I728
sg1125
I1116
sg1858
I1849
sg1267
I1258
sg1223
I1214
sg168
I159
sg1605
I1596
sg465
I456
sg1418
I1409
sg352
I343
sg1749
I1740
sg635
I626
sg1638
I1629
sg1157
I1148
sg346
I337
sg137
I128
sg1747
I1738
sg1237
I1228
sg1436
I1427
sg1151
I1142
sg1119
I1110
sg892
I883
sg742
I733
sg518
I509
sg306
I297
sg975
I966
sg1275
I1266
sg10
I1
sg1654
I1645
sg66
I57
sg956
I947
sg1682
I1673
sg1561
I1552
sg1144
I1135
sg1234
I1225
sg406
I397
sg1708
I1699
sg1298
I1289
sg1674
I1665
sg308
I299
sg351
I342
sg855
I846
sg1186
I1177
sg473
I464
sg498
I489
sg923
I914
sg1807
I1798
sg1623
I1614
sg476
I467
sg204
I195
sg154
I145
sg1350
I1341
sg600
I591
sg799
I790
sg1231
I1222
sg1530
I1521
sg1872
I1863
sg929
I920
sg1162
I1153
sg698
I689
sg891
I882
sg1373
I1364
sg128
I119
sg1635
I1626
sg1472
I1463
sg1800
I1791
sg110
I101
sg822
I813
sg82
I73
sg573
I564
sg287
I278
sg1611
I1602
sg1363
I1354
sg440
I431
sg1361
I1352
sg1330
I1321
sg131
I122
sg560
I551
sg1787
I1778
sg1099
I1090
sg1079
I1070
sg1652
I1643
sg720
I711
sg1777
I1768
sg1552
I1543
sg1526
I1517
sg1577
I1568
sg1297
I1288
sg1650
I1641
sg135
I126
sg948
I939
sg1529
I1520
sg1337
I1328
sg278
I269
sg1284
I1275
sg1457
I1448
sg936
I927
sg1392
I1383
sg101
I92
sg336
I327
sg909
I900
sg310
I301
sg1866
I1857
sg1128
I1119
sg1056
I1047
sg1865
I1856
sg593
I584
sg733
I724
sg1370
I1361
sg1348
I1339
sg1364
I1355
sg545
I536
sg840
I831
sg270
I261
sg1118
I1109
sg1006
I997
sg370
I361
sg1903
I1894
sg444
I435
sg1618
I1609
sg1129
I1120
sg1625
I1616
sg559
I550
sg525
I516
sg295
I286
sg1450
I1441
sg887
I878
sg1023
I1014
sg1726
I1717
sg1610
I1601
sg1729
I1720
sg11
I2
sg1880
I1871
sg264
I255
sg227
I218
sg334
I325
sg1849
I1840
sg1583
I1574
sg1236
I1227
sg1515
I1506
sg140
I131
sg940
I931
sg1209
I1200
sg652
I643
sg1506
I1497
sg653
I644
sg1104
I1095
sg1574
I1565
sg1767
I1758
sg1494
I1485
sg335
I326
sg90
I81
sg884
I875
sg1251
I1242
sg1727
I1718
sg412
I403
sg795
I786
sg546
I537
sg1305
I1296
sg813
I804
sg553
I544
sg85
I76
sg269
I260
sg1881
I1872
sg1810
I1801
sg1249
I1240
sg1032
I1023
sg824
I815
sg1762
I1753
sg1613
I1604
sg1060
I1051
sg449
I440
sg668
I659
sg1687
I1678
sg777
I768
sg265
I256
sg186
I177
sg1533
I1524
sg1170
I1161
sg1316
I1307
sg904
I895
sg1701
I1692
sg1188
I1179
sg123
I114
sg459
I450
sg536
I527
sg1239
I1230
sg806
I797
sg64
I55
sg1332
I1323
sg1793
I1784
sg1253
I1244
sg358
I349
sg198
I189
sg619
I610
sg980
I971
sg1626
I1617
sg1169
I1160
sg1760
I1751
sg618
I609
sg1145
I1136
sg636
I627
sg1420
I1411
sg508
I499
sg702
I693
sg1743
I1734
sg1395
I1386
sg400
I391
sg1124
I1115
sg743
I734
sg1822
I1813
sg248
I239
sg320
I311
sg1464
I1455
sg115
I106
sg1432
I1423
sg708
I699
sg1421
I1412
sg1516
I1507
sg961
I952
sg1067
I1058
sg1723
I1714
sg730
I721
sg1105
I1096
sg273
I264
sg984
I975
sg655
I646
sg1812
I1803
sg246
I237
sg1383
I1374
sg1645
I1636
sg258
I249
sg234
I225
sg339
I330
sg157
I148
sg695
I686
sg1816
I1807
sg348
I339
sg1860
I1851
sg917
I908
sg305
I296
sg1752
I1743
sg1214
I1205
sg86
I77
sg1604
I1595
sg993
I984
sg1835
I1826
sg1891
I1882
sg583
I574
sg1536
I1527
sg381
I372
sg81
I72
sg886
I877
sg894
I885
sg723
I714
sg1187
I1178
sg942
I933
sg184
I175
sg1802
I1793
sg616
I607
sg1575
I1566
sg489
I480
sg585
I576
sg475
I466
sg343
I334
sg1756
I1747
sg1232
I1223
sg1220
I1211
sg903
I894
sg1811
I1802
sg1454
I1445
sg1004
I995
sg1745
I1736
sg1844
I1835
sg972
I963
sg678
I669
sg1562
I1553
sg1766
I1757
sg1213
I1204
sg1813
I1804
sg1271
I1262
sg193
I184
sg1204
I1195
sg549
I540
sg1261
I1252
sg709
I700
sg136
I127
sg1758
I1749
sg769
I760
sg814
I805
sg1453
I1444
sg1017
I1008
sg1386
I1377
sg679
I670
sg1887
I1878
sg354
I345
sg187
I178
sg1430
I1421
sg1431
I1422
sg661
I652
sg283
I274
sg654
I645
sg240
I231
sg472
I463
sg603
I594
sg608
I599
sg1069
I1060
sg713
I704
sg1642
I1633
sg1628
I1619
sg1154
I1145
sg1776
I1767
sg1493
I1484
sg1775
I1766
sg732
I723
sg792
I783
sg949
I940
sg1778
I1769
sg790
I781
sg366
I357
sg177
I168
sg575
I566
sg1475
I1466
sg1484
I1475
sg490
I481
sg1680
I1671
sg297
I288
sg875
I866
sg217
I208
sg576
I567
sg1596
I1587
sg578
I569
sg453
I444
sg1123
I1114
sg1481
I1472
sg1733
I1724
sg1839
I1830
sg952
I943
sg402
I393
sg1579
I1570
sg1134
I1125
sg1216
I1207
sg1804
I1795
sg1135
I1126
sg910
I901
sg913
I904
sg1646
I1637
sg597
I588
sg1433
I1424
sg1303
I1294
sg1492
I1483
sg519
I510
sg58
I49
sg701
I692
sg1320
I1311
sg468
I459
sg529
I520
sg70
I61
sg1024
I1015
sg1666
I1657
sg1252
I1243
sg1126
I1117
sg67
I58
sg491
I482
sg807
I798
sg867
I858
sg124
I115
sg105
I96
sg1764
I1755
sg862
I853
sg1342
I1333
sg1862
I1853
sg870
I861
sg1551
I1542
sg314
I305
sg1010
I1001
sg561
I552
sg767
I758
sg1514
I1505
sg1510
I1501
sg1206
I1197
sg259
I250
sg293
I284
sg554
I545
sg32
I23
sg1710
I1701
sg683
I674
sg729
I720
sg764
I755
sg118
I109
sg677
I668
sg783
I774
sg1842
I1833
sg1322
I1313
sg450
I441
sg274
I265
sg1709
I1700
sg712
I703
sg483
I474
sg1138
I1129
sg1179
I1170
sg96
I87
sg285
I276
sg1888
I1879
sg149
I140
sg973
I964
sg1375
I1366
sg789
I780
sg1333
I1324
sg1315
I1306
sg150
I141
sg1002
I993
sg741
I732
sg826
I817
sg1263
I1254
sg1751
I1742
sg1404
I1395
sg160
I151
sg1417
I1408
sg693
I684
sg880
I871
sg183
I174
sg1198
I1189
sg385
I376
sg1616
I1607
sg1896
I1887
sg14
I5
sg976
I967
sg1013
I1004
sg302
I293
sg1269
I1260
sg421
I412
sg1043
I1034
sg236
I227
sg369
I360
sg1070
I1061
sg899
I890
sg62
I53
sg1621
I1612
sg569
I560
sg1255
I1246
sg147
I138
sg1445
I1436
sg965
I956
sg1425
I1416
sg1035
I1026
sg550
I541
sg1466
I1457
sg1357
I1348
sg1318
I1309
sg1317
I1308
sg1217
I1208
sg438
I429
sg1636
I1627
sg175
I166
sg1640
I1631
sg1273
I1264
sg565
I556
sg502
I493
sg995
I986
sg30
I21
sg1178
I1169
sg787
I778
sg760
I751
sg83
I74
sg1631
I1622
sg1882
I1873
sg820
I811
sg65
I56
sg1100
I1091
sg670
I661
sg365
I356
sg982
I973
sg127
I118
sg1732
I1723
sg1697
I1688
sg1821
I1812
sg1196
I1187
sg1823
I1814
sg581
I572
sg1856
I1847
sg1172
I1163
sg566
I557
sg1572
I1563
sg417
I408
sg722
I713
sg407
I398
sg1374
I1365
sg1633
I1624
sg185
I176
sg1647
I1638
sg570
I561
sg462
I453
sg113
I104
sg1082
I1073
sg409
I400
sg1792
I1783
sg1531
I1522
sg691
I682
sg1485
I1476
sg932
I923
sg1368
I1359
sg1091
I1082
sg860
I851
sg1226
I1217
sg1586
I1577
sg355
I346
sg1215
I1206
sg1339
I1330
sg902
I893
sg650
I641
sg864
I855
sg1095
I1086
sg333
I324
sg1639
I1630
sg313
I304
sg901
I892
sg1789
I1780
sg731
I722
sg356
I347
sg812
I803
sg1786
I1777
sg1158
I1149
sg1612
I1603
sg849
I840
sg968
I959
sg106
I97
sg1410
I1401
sg798
I789
sg230
I221
sg1451
I1442
sg692
I683
sg1471
I1462
sg1459
I1450
sg1288
I1279
sg584
I575
sg1324
I1315
sg939
I930
sg847
I838
sg393
I384
sg927
I918
sg484
I475
sg125
I116
sg1676
I1667
sg516
I507
sg1044
I1035
sg37
I28
sg803
I794
sg1308
I1299
sg494
I485
sg286
I277
sg718
I709
sg1442
I1433
sg1068
I1059
sg1696
I1687
sg890
I881
sg426
I417
sg1335
I1326
sg323
I314
sg87
I78
sg950
I941
sg72
I63
sg648
I639
sg726
I717
sg166
I157
sg1058
I1049
sg589
I580
sg21
I12
sg643
I634
sg1435
I1426
sg1031
I1022
sg1704
I1695
sg1512
I1503
sg1692
I1683
sg256
I247
sg934
I925
sg155
I146
sg1461
I1452
sg1734
I1725
sg245
I236
sg1496
I1487
sg1112
I1103
sg332
I323
sg850
I841
sg1101
I1092
sg1783
I1774
sg1406
I1397
sg229
I220
sg1042
I1033
sg540
I531
sg1808
I1799
sg1310
I1301
sg167
I158
sg1257
I1248
sg375
I366
sg1164
I1155
sg1174
I1165
sg9
I0
sg345
I336
sg1546
I1537
sg1444
I1435
sg905
I896
sg373
I364
sg746
I737
sg588
I579
sg1147
I1138
sg1245
I1236
sg1353
I1344
sg200
I191
sg1545
I1536
sg615
I606
sg601
I592
sg1227
I1218
sg1142
I1133
sg1675
I1666
sg815
I806
sg871
I862
sg267
I258
sg1754
I1745
sg51
I42
sg482
I473
sg571
I562
sg641
I632
sg1379
I1370
sg425
I416
sg158
I149
sg1074
I1065
sg1788
I1779
sg922
I913
sg171
I162
sg919
I910
sg1437
I1428
sg1468
I1459
sg829
I820
sg1354
I1345
sg1838
I1829
sg1894
I1885
sg281
I272
sg237
I228
sg883
I874
sg63
I54
sg49
I40
sg104
I95
sg1122
I1113
sg159
I150
sg174
I165
sg202
I193
sg943
I934
sg1376
I1367
sg378
I369
sg503
I494
sg203
I194
sg878
I869
sg1001
I992
sg1165
I1156
sg801
I792
sg745
I736
sg534
I525
sg800
I791
sg1748
I1739
sg577
I568
sg24
I15
sg1329
I1320
sg681
I672
sg1490
I1481
sg138
I129
sg1845
I1836
sg1716
I1707
sg1057
I1048
sg1509
I1500
sg1034
I1025
sg1061
I1052
sg506
I497
sg1744
I1735
sg574
I565
sg947
I938
sg228
I219
sg1801
I1792
sg748
I739
sg587
I578
sg1669
I1660
sg857
I848
sg1772
I1763
sg1517
I1508
sg1502
I1493
sg1581
I1572
sg439
I430
sg994
I985
sg1149
I1140
sg1458
I1449
sg429
I420
sg954
I945
sg1763
I1754
sg1620
I1611
sg299
I290
sg275
I266
sg535
I526
sg1277
I1268
sg758
I749
sg1592
I1583
sg1456
I1447
sg646
I637
sg1662
I1653
sg1769
I1760
sg676
I667
sg1627
I1618
sg416
I407
sg221
I212
sg1547
I1538
sg707
I698
sg1589
I1580
sg1090
I1081
sg178
I169
sg1670
I1661
sg1790
I1781
sg1700
I1691
sg1390
I1381
sg1518
I1509
sg328
I319
sg915
I906
sg464
I455
sg925
I916
sg1319
I1310
sg659
I650
sg1071
I1062
sg88
I79
sg916
I907
sg388
I379
sg1578
I1569
sg1407
I1398
sg170
I161
sg1721
I1712
sg879
I870
sg1414
I1405
sg572
I563
sg761
I752
sg784
I775
sg754
I745
sg1779
I1770
sg1677
I1668
sg533
I524
sg45
I36
sg675
I666
sg1293
I1284
sg832
I823
sg410
I401
sg1059
I1050
sg1511
I1502
sg1394
I1385
sg992
I983
sg724
I715
sg610
I601
sg689
I680
sg690
I681
sg1114
I1105
sg251
I242
sg552
I543
sg1334
I1325
sg380
I371
sg863
I854
sg645
I636
sg1630
I1621
sg280
I271
sg396
I387
sg344
I335
sg1110
I1101
sg243
I234
sg303
I294
sg623
I614
sg716
I707
sg1192
I1183
sg873
I864
sg1366
I1357
sg605
I596
sg165
I156
sg768
I759
sg377
I368
sg40
I31
sg640
I631
sg945
I936
sg594
I585
sg382
I373
sg1770
I1761
sg197
I188
sg1513
I1504
sg153
I144
sg71
I62
sg869
I860
sg507
I498
sg181
I172
sg1191
I1182
sg452
I443
sg1295
I1286
sg1523
I1514
sg1000
I991
sg397
I388
sg1785
I1776
sg1535
I1526
sg1228
I1219
sg17
I8
sg1148
I1139
sg602
I593
sg504
I495
sg1246
I1237
sg1403
I1394
sg774
I765
sg786
I777
sg190
I181
sg642
I633
sg54
I45
sg1603
I1594
sg1522
I1513
sg1495
I1486
sg1018
I1009
sg1850
I1841
sg1019
I1010
sg747
I738
sg241
I232
sg1780
I1771
sg361
I352
sg1075
I1066
sg364
I355
sg347
I338
sg1634
I1625
sg282
I273
sg1465
I1456
sg226
I217
sg738
I729
sg253
I244
sg908
I899
sg1774
I1765
sg1668
I1659
sg629
I620
sg1313
I1304
sg1695
I1686
sg1088
I1079
sg1852
I1843
sg1771
I1762
sg1046
I1037
sg1136
I1127
sg564
I555
sg563
I554
sg172
I163
sg1073
I1064
sg1590
I1581
sg1429
I1420
sg1177
I1168
sg1534
I1525
sg1168
I1159
sg781
I772
sg143
I134
sg1175
I1166
sg512
I503
sg1171
I1162
sg1470
I1461
sg1750
I1741
sg1306
I1297
sg1349
I1340
sg457
I448
sg582
I573
sg1062
I1053
sg705
I696
sg152
I143
sg885
I876
sg1815
I1806
sg35
I26
sg1201
I1192
sg443
I434
sg665
I656
sg404
I395
sg477
I468
sg387
I378
sg59
I50
sg971
I962
sg639
I630
sg1008
I999
sg1326
I1317
sg1139
I1130
sg773
I764
sg395
I386
sg461
I452
sg538
I529
sg1871
I1862
sg1097
I1088
sg983
I974
sg327
I318
sg1384
I1375
sg29
I20
sg735
I726
sg1847
I1838
sg1248
I1239
sg740
I731
sg906
I897
sg728
I719
sg1238
I1229
sg872
I863
sg108
I99
sg1427
I1418
sg1796
I1787
sg1661
I1652
sg638
I629
sg1203
I1194
sg1409
I1400
sg1689
I1680
sg1667
I1658
sg1473
I1464
sg1289
I1280
sg846
I837
sg55
I46
sg1741
I1732
sg837
I828
sg833
I824
sg834
I825
sg338
I329
sg831
I822
sg1381
I1372
sg111
I102
sg211
I202
sg896
I887
sg1107
I1098
sg1299
I1290
sg1853
I1844
sg895
I886
sg1309
I1300
sg809
I800
sg1211
I1202
sg858
I849
sg856
I847
sg897
I888
sg898
I889
sg727
I718
ssS'separator'
p1908
S'='
sS'sparse'
p1909
I01
sb.