ccopy_reg
_reconstructor
p1
(csklearn.feature_extraction.dict_vectorizer
DictVectorizer
p2
c__builtin__
object
p3
NtRp4
(dp5
S'sort'
p6
I01
sS'feature_names_'
p7
(lp8
S'advcl=allow'
p9
aS'advcl=drive'
p10
aS'advcl=end'
p11
aS'advcl=expect'
p12
aS'advcl=independent'
p13
aS'advcl=intervene'
p14
aS'advmod=correctly'
p15
aS'advmod=effectively'
p16
aS'advmod=federally'
p17
aS'advmod=often'
p18
aS'advmod=really'
p19
aS'advmod=together'
p20
aS'advmod=when'
p21
aS'advmod=worldwide'
p22
aS'aux=be'
p23
aS'aux=have'
p24
aS'aux=must'
p25
aS'aux=should'
p26
aS'aux=to'
p27
aS'aux=will'
p28
aS'auxpass=be'
p29
aS'cc=but'
p30
aS'ccomp=drop'
p31
aS'ccomp=take'
p32
aS'ccomp=violate'
p33
aS'complm=that'
p34
aS'conj=dispute'
p35
aS'dobj=Kashmir'
p36
aS'dobj=Kosovo'
p37
aS'dobj=Puntland'
p38
aS'dobj=Timor'
p39
aS'dobj=antibiotic'
p40
aS'dobj=area'
p41
aS'dobj=border'
p42
aS'dobj=dose'
p43
aS'dobj=drop'
p44
aS'dobj=drug'
p45
aS'dobj=grant'
p46
aS'dobj=oath'
p47
aS'dobj=program'
p48
aS'dobj=province'
p49
aS'dobj=relief'
p50
aS'dobj=site'
p51
aS'dobj=swearing-in'
p52
aS'dobj=territory'
p53
aS'dobj=that'
p54
aS'dobj=vaccine'
p55
aS'dobj=variety'
p56
aS'mark=as'
p57
aS'mark=if'
p58
aS'neg=not'
p59
aS'nsubj=Musharraf'
p60
aS'nsubj=Nations'
p61
aS'nsubj=Roberts'
p62
aS'nsubj=USDA'
p63
aS'nsubj=authority'
p64
aS'nsubj=president'
p65
aS'nsubj=that'
p66
aS'nsubj=which'
p67
aS'nsubj=worker'
p68
aS'nsubjpass=#NUMBER#'
p69
aS'nsubjpass=#PRP#'
p70
aS'nsubjpass=Kosovo'
p71
aS'nsubjpass=dose'
p72
aS'nsubjpass=drug'
p73
aS'nsubjpass=program'
p74
aS'nsubjpass=province'
p75
aS'nsubjpass=sentence'
p76
aS'nsubjpass=vaccination'
p77
aS'nsubjpass=vaccine'
p78
aS'nsubjpass=which'
p79
aS'prep=after'
p80
aS'prep=at'
p81
aS'prep=by'
p82
aS'prep=from'
p83
aS'prep=in'
p84
aS'prep=on'
p85
aS'prep=onto'
p86
aS'prep=since'
p87
aS'prep=to'
p88
aS'prep=under'
p89
aS'prep=with'
p90
aS'prep=without'
p91
aS'tmod=week'
p92
aS'w+1=,'
p93
aS'w+1=.'
p94
aS'w+1=East'
p95
aS'w+1=Kashmir'
p96
aS'w+1=Kosovo'
p97
aS'w+1=Puntland'
p98
aS'w+1=Tribal'
p99
aS'w+1=a'
p100
aS'w+1=antibiotic'
p101
aS'w+1=by'
p102
aS'w+1=effectively'
p103
aS'w+1=emergency'
p104
aS'w+1=in'
p105
aS'w+1=on'
p106
aS'w+1=polio'
p107
aS'w+1=southern'
p108
aS'w+1=the'
p109
aS'w+1=to'
p110
aS'w+1=together'
p111
aS'w+1=tribal'
p112
aS'w+1=two'
p113
aS'w+1=under'
p114
aS'w+1=with'
p115
aS'w+1=without'
p116
aS'w+2=,'
p117
aS'w+2=.'
p118
aS'w+2=Abdul'
p119
aS'w+2=Agencies'
p120
aS'w+2=Muslims'
p121
aS'w+2=Timor'
p122
aS'w+2=a'
p123
aS'w+2=after'
p124
aS'w+2=and'
p125
aS'w+2=area'
p126
aS'w+2=be'
p127
aS'w+2=border'
p128
aS'w+2=but'
p129
aS'w+2=ceremonial'
p130
aS'w+2=child'
p131
aS'w+2=death'
p132
aS'w+2=drop'
p133
aS'w+2=drug'
p134
aS'w+2=grant'
p135
aS'w+2=in'
p136
aS'w+2=iv'
p137
aS'w+2=just'
p138
aS'w+2=last'
p139
aS'w+2=oath'
p140
aS'w+2=on'
p141
aS'w+2=polio'
p142
aS'w+2=program'
p143
aS'w+2=province'
p144
aS'w+2=relief'
p145
aS'w+2=say'
p146
aS'w+2=since'
p147
aS'w+2=site'
p148
aS'w+2=stronger'
p149
aS'w+2=take'
p150
aS'w+2=territory'
p151
aS'w+2=the'
p152
aS'w+2=they'
p153
aS'w+2=to'
p154
aS'w+2=untrained'
p155
aS'w+2=vaccination'
p156
aS'w+2=variety'
p157
aS'w-1=,'
p158
aS'w-1=Indian'
p159
aS'w-1=Musharraf'
p160
aS'w-1=Nations'
p161
aS'w-1=Roberts'
p162
aS'w-1=USDA'
p163
aS'w-1=after'
p164
aS'w-1=and'
p165
aS'w-1=be'
p166
aS'w-1=correctly'
p167
aS'w-1=federally'
p168
aS'w-1=have'
p169
aS'w-1=in'
p170
aS'w-1=indian'
p171
aS'w-1=inindian'
p172
aS'w-1=oath'
p173
aS'w-1=of'
p174
aS'w-1=often'
p175
aS'w-1=president'
p176
aS'w-1=province'
p177
aS'w-1=really'
p178
aS'w-1=that'
p179
aS'w-1=to'
p180
aS'w-1=which'
p181
aS'w-2=,'
p182
aS'w-2=-lrb-'
p183
aS'w-2=Fatah'
p184
aS'w-2=Fed'
p185
aS'w-2=Hamas'
p186
aS'w-2=Initiative'
p187
aS'w-2=John'
p188
aS'w-2=Nations'
p189
aS'w-2=Pervez'
p190
aS'w-2=Serbian'
p191
aS'w-2=Trust'
p192
aS'w-2=United'
p193
aS'w-2=authority'
p194
aS'w-2=be'
p195
aS'w-2=consist'
p196
aS'w-2=damage'
p197
aS'w-2=government'
p198
aS'w-2=have'
p199
aS'w-2=in'
p200
aS'w-2=injection'
p201
aS'w-2=managing'
p202
aS'w-2=must'
p203
aS'w-2=not'
p204
aS'w-2=of'
p205
aS'w-2=one'
p206
aS'w-2=program'
p207
aS'w-2=right'
p208
aS'w-2=role'
p209
aS'w-2=should'
p210
aS'w-2=shrine'
p211
aS'w-2=that'
p212
aS'w-2=the'
p213
aS'w-2=these'
p214
aS'w-2=they'
p215
aS'w-2=to'
p216
aS'w-2=vaccination'
p217
aS'w-2=way'
p218
aS'w-2=which'
p219
aS'w-2=will'
p220
aS'w-2=worker'
p221
asS'dtype'
p222
cnumpy
float64
p223
sS'vocabulary_'
p224
(dp225
g167
I158
sg67
I58
sg173
I164
sg42
I33
sg168
I159
sg10
I1
sg174
I165
sg190
I181
sg33
I24
sg202
I193
sg40
I31
sg156
I147
sg18
I9
sg56
I47
sg219
I210
sg89
I80
sg36
I27
sg157
I148
sg38
I29
sg148
I139
sg129
I120
sg22
I13
sg55
I46
sg186
I177
sg96
I87
sg16
I7
sg112
I103
sg95
I86
sg187
I178
sg175
I166
sg141
I132
sg205
I196
sg14
I5
sg199
I190
sg197
I188
sg161
I152
sg215
I206
sg180
I171
sg82
I73
sg125
I116
sg158
I149
sg177
I168
sg188
I179
sg73
I64
sg75
I66
sg204
I195
sg211
I202
sg120
I111
sg32
I23
sg206
I197
sg45
I36
sg221
I212
sg131
I122
sg103
I94
sg87
I78
sg60
I51
sg28
I19
sg115
I106
sg52
I43
sg208
I199
sg69
I60
sg53
I44
sg152
I143
sg81
I72
sg72
I63
sg39
I30
sg182
I173
sg99
I90
sg90
I81
sg37
I28
sg64
I55
sg24
I15
sg166
I157
sg104
I95
sg15
I6
sg185
I176
sg144
I135
sg216
I207
sg213
I204
sg116
I107
sg130
I121
sg172
I163
sg200
I191
sg114
I105
sg201
I192
sg184
I175
sg176
I167
sg214
I205
sg113
I104
sg26
I17
sg21
I12
sg154
I145
sg106
I97
sg145
I136
sg139
I130
sg17
I8
sg159
I150
sg77
I68
sg13
I4
sg169
I160
sg111
I102
sg143
I134
sg164
I155
sg44
I35
sg142
I133
sg162
I153
sg132
I123
sg105
I96
sg136
I127
sg57
I48
sg189
I180
sg137
I128
sg207
I198
sg30
I21
sg121
I112
sg149
I140
sg134
I125
sg191
I182
sg151
I142
sg29
I20
sg181
I172
sg34
I25
sg43
I34
sg62
I53
sg178
I169
sg153
I144
sg41
I32
sg80
I71
sg124
I115
sg193
I184
sg31
I22
sg63
I54
sg107
I98
sg65
I56
sg212
I203
sg128
I119
sg109
I100
sg150
I141
sg102
I93
sg146
I137
sg71
I62
sg203
I194
sg140
I131
sg70
I61
sg61
I52
sg108
I99
sg19
I10
sg218
I209
sg50
I41
sg54
I45
sg83
I74
sg11
I2
sg101
I92
sg78
I69
sg51
I42
sg88
I79
sg163
I154
sg48
I39
sg27
I18
sg209
I200
sg210
I201
sg171
I162
sg9
I0
sg12
I3
sg76
I67
sg119
I110
sg194
I185
sg86
I77
sg220
I211
sg68
I59
sg127
I118
sg92
I83
sg93
I84
sg94
I85
sg118
I109
sg117
I108
sg49
I40
sg183
I174
sg110
I101
sg74
I65
sg98
I89
sg59
I50
sg84
I75
sg66
I57
sg25
I16
sg165
I156
sg198
I189
sg133
I124
sg196
I187
sg155
I146
sg47
I38
sg160
I151
sg97
I88
sg170
I161
sg138
I129
sg217
I208
sg126
I117
sg100
I91
sg195
I186
sg20
I11
sg147
I138
sg91
I82
sg122
I113
sg85
I76
sg179
I170
sg23
I14
sg46
I37
sg79
I70
sg58
I49
sg135
I126
sg123
I114
sg192
I183
sg35
I26
ssS'separator'
p226
S'='
sS'sparse'
p227
I01
sb.