ccopy_reg
_reconstructor
p1
(csklearn.feature_extraction.dict_vectorizer
DictVectorizer
p2
c__builtin__
object
p3
NtRp4
(dp5
S'sort'
p6
I01
sS'feature_names_'
p7
(lp8
S'advmod=again'
p9
aS'advmod=fully'
p10
aS'advmod=how'
p11
aS'advmod=so'
p12
aS'advmod=where'
p13
aS'aux=be'
p14
aS'aux=can'
p15
aS'aux=have'
p16
aS'aux=to'
p17
aS'aux=would'
p18
aS'auxpass=be'
p19
aS'cc=and'
p20
aS'cc=or'
p21
aS'ccomp=smuggle'
p22
aS'complm=that'
p23
aS'conj=can'
p24
aS'conj=defeat'
p25
aS'conj=exploit'
p26
aS'dobj=camp'
p27
aS'dobj=force'
p28
aS'dobj=fund'
p29
aS'dobj=influence'
p30
aS'dobj=knowledge'
p31
aS'dobj=leverage'
p32
aS'dobj=man'
p33
aS'dobj=militant'
p34
aS'dobj=model'
p35
aS'dobj=most'
p36
aS'dobj=percentage'
p37
aS'dobj=place'
p38
aS'dobj=report'
p39
aS'dobj=resource'
p40
aS'dobj=sensor'
p41
aS'dobj=technology'
p42
aS'dobj=transmission'
p43
aS'dobj=water'
p44
aS'neg=not'
p45
aS'nsubj=#PRP#'
p46
aS'nsubj=Kenya'
p47
aS'nsubj=Nigeria'
p48
aS'nsubj=approach'
p49
aS'nsubj=country'
p50
aS'nsubj=group'
p51
aS'nsubj=that'
p52
aS'nsubjpass=#PRP#'
p53
aS'nsubjpass=that'
p54
aS'nsubjpass=which'
p55
aS'prep=along'
p56
aS'prep=by'
p57
aS'prep=from'
p58
aS'prep=in'
p59
aS'prep=on'
p60
aS'prep=to'
p61
aS'prep=with'
p62
aS'tmod=term'
p63
aS'w+1=.'
p64
aS'w+1=a'
p65
aS'w+1=business'
p66
aS'w+1=by'
p67
aS'w+1=foreign'
p68
aS'w+1=from'
p69
aS'w+1=high'
p70
aS'w+1=it'
p71
aS'w+1=its'
p72
aS'w+1=liquid'
p73
aS'w+1=long'
p74
aS'w+1=military'
p75
aS'w+1=most'
p76
aS'w+1=new'
p77
aS'w+1=non-grain'
p78
aS'w+1=or'
p79
aS'w+1=recycled'
p80
aS'w+1=shortwave'
p81
aS'w+1=the'
p82
aS'w+1=this'
p83
aS'w+1=you'
p84
aS'w+1=young'
p85
aS'w+2=,'
p86
aS'w+2=a'
p87
aS'w+2=appreciable'
p88
aS'w+2=census'
p89
aS'w+2=considerable'
p90
aS'w+2=exploit'
p91
aS'w+2=explosive'
p92
aS'w+2=feedstock'
p93
aS'w+2=force'
p94
aS'w+2=fund'
p95
aS'w+2=knowledge'
p96
aS'w+2=leverage'
p97
aS'w+2=man'
p98
aS'w+2=media'
p99
aS'w+2=militant'
p100
aS'w+2=model'
p101
aS'w+2=new'
p102
aS'w+2=of'
p103
aS'w+2=place'
p104
aS'w+2=radio'
p105
aS'w+2=resource'
p106
aS'w+2=technology'
p107
aS'w+2=term'
p108
aS'w+2=to'
p109
aS'w+2=training'
p110
aS'w+2=valuable'
p111
aS'w+2=water'
p112
aS"w-1=''"
p113
aS'w-1=,'
p114
aS'w-1=and'
p115
aS'w-1=approach'
p116
aS'w-1=be'
p117
aS'w-1=can'
p118
aS'w-1=fully'
p119
aS'w-1=group'
p120
aS'w-1=have'
p121
aS'w-1=of'
p122
aS'w-1=start'
p123
aS'w-1=that'
p124
aS'w-1=to'
p125
aS'w-1=video'
p126
aS'w-2=Joseph'
p127
aS'w-2=Kenya'
p128
aS'w-2=Thursday'
p129
aS'w-2=and'
p130
aS'w-2=be'
p131
aS'w-2=can'
p132
aS'w-2=conscious'
p133
aS'w-2=continue'
p134
aS'w-2=country'
p135
aS'w-2=de-marginalization'
p136
aS'w-2=develop'
p137
aS'w-2=economy'
p138
aS'w-2=fence'
p139
aS'w-2=hand'
p140
aS'w-2=have'
p141
aS'w-2=how'
p142
aS'w-2=into'
p143
aS'w-2=investment'
p144
aS'w-2=not'
p145
aS'w-2=organization'
p146
aS'w-2=plan'
p147
aS'w-2=she'
p148
aS'w-2=the'
p149
aS'w-2=they'
p150
aS'w-2=to'
p151
aS'w-2=way'
p152
aS'w-2=you'
p153
aS'xcomp=ensure'
p154
aS'xcomp=have'
p155
aS'xcomp=produce'
p156
aS'xcomp=shine'
p157
aS'xcomp=strengthen'
p158
asS'dtype'
p159
cnumpy
float64
p160
sS'vocabulary_'
p161
(dp162
g157
I148
sg37
I28
sg48
I39
sg80
I71
sg13
I4
sg98
I89
sg31
I22
sg30
I21
sg32
I23
sg78
I69
sg146
I137
sg95
I86
sg127
I118
sg133
I124
sg128
I119
sg74
I65
sg34
I25
sg138
I129
sg54
I45
sg151
I142
sg39
I30
sg116
I107
sg44
I35
sg143
I134
sg88
I79
sg56
I47
sg24
I15
sg25
I16
sg122
I113
sg150
I141
sg125
I116
sg147
I138
sg57
I48
sg36
I27
sg130
I121
sg135
I126
sg123
I114
sg107
I98
sg83
I74
sg84
I75
sg149
I140
sg91
I82
sg66
I57
sg38
I29
sg12
I3
sg102
I93
sg10
I1
sg62
I53
sg41
I32
sg94
I85
sg90
I81
sg16
I7
sg85
I76
sg117
I108
sg28
I19
sg155
I146
sg114
I105
sg145
I136
sg144
I135
sg118
I109
sg42
I33
sg73
I64
sg75
I66
sg126
I117
sg154
I145
sg35
I26
sg134
I125
sg29
I20
sg68
I59
sg96
I87
sg136
I127
sg148
I139
sg79
I70
sg142
I133
sg121
I112
sg55
I46
sg70
I61
sg104
I95
sg63
I54
sg26
I17
sg50
I41
sg139
I130
sg69
I60
sg93
I84
sg19
I10
sg15
I6
sg23
I14
sg89
I80
sg99
I90
sg137
I128
sg141
I132
sg92
I83
sg20
I11
sg49
I40
sg110
I101
sg82
I73
sg119
I110
sg67
I58
sg76
I67
sg140
I131
sg43
I34
sg111
I102
sg53
I44
sg105
I96
sg59
I50
sg11
I2
sg18
I9
sg72
I63
sg152
I143
sg109
I100
sg71
I62
sg46
I37
sg58
I49
sg101
I92
sg113
I104
sg108
I99
sg81
I72
sg158
I149
sg61
I52
sg97
I88
sg17
I8
sg153
I144
sg33
I24
sg77
I68
sg100
I91
sg64
I55
sg103
I94
sg112
I103
sg132
I123
sg86
I77
sg27
I18
sg45
I36
sg9
I0
sg52
I43
sg40
I31
sg115
I106
sg129
I120
sg156
I147
sg106
I97
sg47
I38
sg120
I111
sg21
I12
sg65
I56
sg131
I122
sg51
I42
sg22
I13
sg60
I51
sg124
I115
sg14
I5
sg87
I78
ssS'separator'
p163
S'='
sS'sparse'
p164
I01
sb.