ccopy_reg
_reconstructor
p1
(csklearn.feature_extraction.dict_vectorizer
DictVectorizer
p2
c__builtin__
object
p3
NtRp4
(dp5
S'vocabulary_'
p6
(dp7
S'poss=children'
p8
I35
sS'w+2=not'
p9
I90
sS'w-1=for'
p10
I119
sS'w+2=two'
p11
I106
sS'w-2=knowledge'
p12
I157
sS'w+1=narh'
p13
I55
sS'det=no'
p14
I20
sS'dep=have'
p15
I17
sS'dobj=family'
p16
I24
sS'w+1=zone'
p17
I65
sS'w-2=best'
p18
I145
sS'w+1=have'
p19
I52
sS'w-1=whatever'
p20
I135
sS'det=the'
p21
I22
sS'w-2=altogether'
p22
I140
sS'conj=support'
p23
I14
sS'w-2=offer'
p24
I162
sS'w-2=live'
p25
I158
sS'w-2=campus'
p26
I147
sS'w-2=and'
p27
I142
sS'w-2=of'
p28
I161
sS'amod=little'
p29
I4
sS'advcl=say'
p30
I0
sS'w-2=the'
p31
I169
sS'w-2=they'
p32
I170
sS'w+2=crew'
p33
I78
sS'w-1=to'
p34
I133
sS'w-2=to'
p35
I171
sS'w+2=and'
p36
I74
sS'w-1=ship'
p37
I127
sS'w-1=little'
p38
I122
sS'dep=ship'
p39
I18
sS'conj=Mercy'
p40
I10
sS'w-1=suburban'
p41
I129
sS'w+2=passenger'
p42
I93
sS'w+1=that'
p43
I57
sS'dobj=#PRP#'
p44
I23
sS'w+2=doctor'
p45
I81
sS'amod=best'
p46
I2
sS'w+1=visit'
p47
I63
sS'cop=be'
p48
I15
sS'w-1=find'
p49
I118
sS'w-2=she'
p50
I165
sS'w-2=close'
p51
I150
sS'w-1=same'
p52
I126
sS'dep=those'
p53
I19
sS'w-2=so-called'
p54
I167
sS'w-1=it'
p55
I121
sS'w+2=population'
p56
I95
sS'w-2=take'
p57
I168
sS'w-2=much'
p58
I160
sS'w+2=the'
p59
I102
sS'w+1=as'
p60
I49
sS'prep=as'
p61
I37
sS'w-2=,'
p62
I136
sS'w-2=.'
p63
I137
sS'w+2=support'
p64
I101
sS'w+1=he'
p65
I53
sS'w+2=all'
p66
I73
sS'w+1=themselves'
p67
I59
sS'w-2=but'
p68
I146
sS"w-1='"
p69
I108
sS'w-1=be'
p70
I115
sS'w+2=routine'
p71
I96
sS'w+2=latest'
p72
I87
sS'w+2=people'
p73
I94
sS'w-1=.'
p74
I110
sS'amod=suburban'
p75
I6
sS'w-2=children'
p76
I149
sS'w-1=can'
p77
I116
sS'w-2=shelter'
p78
I166
sS'w-1=my'
p79
I123
sS'w-2=have'
p80
I155
sS'w-1=false'
p81
I117
sS'w-2=day'
p82
I151
sS'w-2=where'
p83
I172
sS'det=some'
p84
I21
sS'w+2=do'
p85
I80
sS'w-2=other'
p86
I163
sS'w+1=of'
p87
I56
sS'w-2=God'
p88
I138
sS'w+2=to'
p89
I105
sS'w-2=woman'
p90
I173
sS'w-1=they'
p91
I131
sS'prep=for'
p92
I39
sS'w-1=some'
p93
I128
sS'w-2=authorize'
p94
I143
sS'nn=U.S.S.'
p95
I26
sS'w+2=Peru'
p96
I69
sS'nn=ship'
p97
I28
sS'w-1=provide'
p98
I125
sS'conj=need'
p99
I12
sS'w+2=at'
p100
I76
sS"w+2=''"
p101
I66
sS'w-2=say'
p102
I164
sS'w-1=this'
p103
I132
sS'w-1=USNS'
p104
I112
sS'advmod=#PRP#'
p105
I1
sS'w-2=american'
p106
I141
sS'w+2=who'
p107
I107
sS'w+2=.'
p108
I68
sS'w-1=no'
p109
I124
sS'w+2=strength'
p110
I100
sS'auxpass=be'
p111
I7
sS'w+2=grow'
p112
I84
sS'w+2=they'
p113
I103
sS'w-2=hospital'
p114
I156
sS'infmod=have'
p115
I25
sS'w+2=mission'
p116
I89
sS'cc=and'
p117
I8
sS'w+1=the'
p118
I58
sS'w+2=current'
p119
I79
sS'w+1=be'
p120
I50
sS'w-2=for'
p121
I152
sS'w+2=be'
p122
I77
sS'w+1=they'
p123
I60
sS'w+1=those'
p124
I61
sS'w+2=appeasement'
p125
I75
sS'w+2=Sandy'
p126
I70
sS'prep=in'
p127
I40
sS'w+2=some'
p128
I99
sS'nsubjpass=#PRP#'
p129
I33
sS'w+1=for'
p130
I51
sS'w+1=in'
p131
I54
sS'w-2=from'
p132
I153
sS'prep=at'
p133
I38
sS'nsubj=#PRP#'
p134
I29
sS'w+2=medical'
p135
I88
sS"w-1=''"
p136
I109
sS'w+2=other'
p137
I91
sS'w+2=endure'
p138
I82
sS'w+2=family'
p139
I83
sS'w-1=the'
p140
I130
sS'prep=to'
p141
I42
sS'w+1=Rey'
p142
I47
sS'w-1=we'
p143
I134
sS'cc=but'
p144
I9
sS'nn=USNS'
p145
I27
sS'poss=#PRP#'
p146
I34
sS'w-2=addiction'
p147
I139
sS'w+2=aid'
p148
I72
sS'w+1=and'
p149
I48
sS'w-2=can'
p150
I148
sS'w+2=sister'
p151
I98
sS'w+1=-'
p152
I45
sS'w+1=,'
p153
I44
sS'w+1=.'
p154
I46
sS'w-2=give'
p155
I154
sS'w+2=home'
p156
I85
sS'w+2=,'
p157
I67
sS'w+1=to'
p158
I62
sS'amod=same'
p159
I5
sS'nsubj=that'
p160
I31
sS'w+1=woman'
p161
I64
sS"possessive='s"
p162
I36
sS'w-1=U.S.S.'
p163
I111
sS'w-1=and'
p164
I113
sS'w+2=time'
p165
I104
sS'conj=aid'
p166
I11
sS'w+2=pack'
p167
I92
sS'w-1=in'
p168
I120
sS"w+1='s"
p169
I43
sS'w-2=be'
p170
I144
sS'prep=of'
p171
I41
sS'w+2=say'
p172
I97
sS'nsubj=this'
p173
I32
sS'w-1=as'
p174
I114
sS'conj=strength'
p175
I13
sS'w-2=lose'
p176
I159
sS'amod=false'
p177
I3
sS'nsubj=man'
p178
I30
sS'w+2=know'
p179
I86
sS'w+2=a'
p180
I71
sS'dep=daughter'
p181
I16
ssS'dtype'
p182
cnumpy
float64
p183
sS'feature_names_'
p184
(lp185
g30
ag105
ag46
ag177
ag29
ag159
ag75
ag111
ag117
ag144
ag40
ag166
ag99
ag175
ag23
ag48
ag181
ag15
ag39
ag53
ag14
ag84
ag21
ag44
ag16
ag115
ag95
ag145
ag97
ag134
ag178
ag160
ag173
ag129
ag146
ag8
ag162
ag61
ag133
ag92
ag127
ag171
ag141
ag169
ag153
ag152
ag154
ag142
ag149
ag60
ag120
ag130
ag19
ag65
ag131
ag13
ag87
ag43
ag118
ag67
ag123
ag124
ag158
ag47
ag161
ag17
ag101
ag157
ag108
ag96
ag126
ag180
ag148
ag66
ag36
ag125
ag100
ag122
ag33
ag119
ag85
ag45
ag138
ag139
ag112
ag156
ag179
ag72
ag135
ag116
ag9
ag137
ag167
ag42
ag73
ag56
ag71
ag172
ag151
ag128
ag110
ag64
ag59
ag113
ag165
ag89
ag11
ag107
ag69
ag136
ag74
ag163
ag104
ag164
ag174
ag70
ag77
ag81
ag49
ag10
ag168
ag55
ag38
ag79
ag109
ag98
ag52
ag37
ag93
ag41
ag140
ag91
ag103
ag34
ag143
ag20
ag62
ag63
ag88
ag147
ag22
ag106
ag27
ag94
ag170
ag18
ag68
ag26
ag150
ag76
ag51
ag82
ag121
ag132
ag155
ag80
ag114
ag12
ag25
ag176
ag58
ag28
ag24
ag86
ag102
ag50
ag78
ag54
ag57
ag31
ag32
ag35
ag83
ag90
asS'separator'
p186
S'='
sS'sparse'
p187
I01
sb.