ccopy_reg
_reconstructor
p1
(csklearn.feature_extraction.dict_vectorizer
DictVectorizer
p2
c__builtin__
object
p3
NtRp4
(dp5
S'sort'
p6
I01
sS'feature_names_'
p7
(lp8
S'acomp=due'
p9
aS'advcl=be'
p10
aS'advcl=break'
p11
aS'advcl=charge'
p12
aS'advcl=cooperate'
p13
aS'advcl=fear'
p14
aS'advcl=of'
p15
aS'advcl=refuse'
p16
aS'advcl=say'
p17
aS'advcl=strand'
p18
aS'advmod=abruptly'
p19
aS'advmod=almost'
p20
aS'advmod=already'
p21
aS'advmod=also'
p22
aS'advmod=and'
p23
aS'advmod=automatically'
p24
aS'advmod=first'
p25
aS'advmod=immediately'
p26
aS'advmod=moreover'
p27
aS'advmod=so'
p28
aS'advmod=there'
p29
aS'advmod=where'
p30
aS'advmod=why'
p31
aS'aux=be'
p32
aS'aux=could'
p33
aS'aux=have'
p34
aS'aux=should'
p35
aS'aux=to'
p36
aS'aux=will'
p37
aS'aux=would'
p38
aS'auxpass=be'
p39
aS'cc=and'
p40
aS'cc=but'
p41
aS'ccomp=install'
p42
aS'ccomp=send'
p43
aS'ccomp=show'
p44
aS'ccomp=strand'
p45
aS'complm=that'
p46
aS'conj=can'
p47
aS'conj=fire'
p48
aS'conj=force'
p49
aS'conj=hope'
p50
aS'conj=leave'
p51
aS'conj=petition'
p52
aS'conj=say'
p53
aS'conj=strand'
p54
aS'conj=take'
p55
aS'dep=be'
p56
aS'dep=date'
p57
aS'dep=read'
p58
aS'dep=schedule'
p59
aS'dobj=#NUMBER#'
p60
aS'dobj=$'
p61
aS'dobj=agreement'
p62
aS'dobj=allotment'
p63
aS'dobj=appearance'
p64
aS'dobj=appointment'
p65
aS'dobj=booking'
p66
aS'dobj=class'
p67
aS'dobj=concert'
p68
aS'dobj=contract'
p69
aS'dobj=deal'
p70
aS'dobj=election'
p71
aS'dobj=exercise'
p72
aS'dobj=film'
p73
aS'dobj=flight'
p74
aS'dobj=gathering'
p75
aS'dobj=invitation'
p76
aS'dobj=leg'
p77
aS'dobj=meeting'
p78
aS'dobj=plan'
p79
aS'dobj=practice'
p80
aS'dobj=progress'
p81
aS'dobj=promise'
p82
aS'dobj=race'
p83
aS'dobj=rally'
p84
aS'dobj=remainder'
p85
aS'dobj=sale'
p86
aS'dobj=screening'
p87
aS'dobj=section'
p88
aS'dobj=show'
p89
aS'dobj=string'
p90
aS'dobj=subsidy'
p91
aS'dobj=tour'
p92
aS'dobj=trip'
p93
aS'dobj=upcomingvisit'
p94
aS'dobj=vacation'
p95
aS'dobj=visa'
p96
aS'dobj=visit'
p97
aS'dobj=warrant'
p98
aS'mark=about'
p99
aS'mark=after'
p100
aS'mark=as'
p101
aS'mark=if'
p102
aS'mark=since'
p103
aS'mark=unless'
p104
aS'neg=not'
p105
aS'nsubj=#DATE#'
p106
aS'nsubj=#PRP#'
p107
aS'nsubj=Abbas'
p108
aS'nsubj=Airlines'
p109
aS'nsubj=Columbia'
p110
aS'nsubj=Delanoe'
p111
aS'nsubj=Gaga'
p112
aS'nsubj=Garuda'
p113
aS'nsubj=Gates'
p114
aS'nsubj=Haniyeh'
p115
aS'nsubj=Kelly'
p116
aS'nsubj=Moo-hyun'
p117
aS'nsubj=NATO'
p118
aS'nsubj=Rice'
p119
aS'nsubj=Russia'
p120
aS'nsubj=clause'
p121
aS'nsubj=flight'
p122
aS'nsubj=government'
p123
aS'nsubj=month'
p124
aS'nsubj=network'
p125
aS'nsubj=organizer'
p126
aS'nsubj=other'
p127
aS'nsubj=outweigh'
p128
aS'nsubj=price'
p129
aS'nsubj=school'
p130
aS'nsubj=team'
p131
aS'nsubj=vehicle'
p132
aS'nsubjpass=#NUMBER#'
p133
aS'nsubjpass=#PRP#'
p134
aS'nsubjpass=$'
p135
aS'nsubjpass=Guantanamo'
p136
aS'nsubjpass=Run'
p137
aS'nsubjpass=activity'
p138
aS'nsubjpass=conference'
p139
aS'nsubjpass=debt'
p140
aS'nsubjpass=domestic'
p141
aS'nsubjpass=election'
p142
aS'nsubjpass=event'
p143
aS'nsubjpass=exhibit'
p144
aS'nsubjpass=flight'
p145
aS'nsubjpass=operation'
p146
aS'nsubjpass=result'
p147
aS'nsubjpass=review'
p148
aS'nsubjpass=session'
p149
aS'nsubjpass=summit'
p150
aS'nsubjpass=tour'
p151
aS'nsubjpass=visa'
p152
aS'nsubjpass=vote'
p153
aS'nsubjpass=voting'
p154
aS'partmod=keep'
p155
aS'partmod=say'
p156
aS'prep=after'
p157
aS'prep=against'
p158
aS'prep=around'
p159
aS'prep=at'
p160
aS'prep=because'
p161
aS'prep=by'
p162
aS'prep=follow'
p163
aS'prep=for'
p164
aS'prep=in'
p165
aS'prep=include'
p166
aS'prep=of'
p167
aS'prep=over'
p168
aS'prep=to'
p169
aS'prep=with'
p170
aS'tmod=#DATE#'
p171
aS'tmod=conference'
p172
aS'tmod=today'
p173
aS'tmod=tour'
p174
aS'tmod=week'
p175
aS'tmod=year'
p176
aS'w+1=$'
p177
aS'w+1=,'
p178
aS'w+1=.'
p179
aS'w+1=Haneef'
p180
aS'w+1=a'
p181
aS'w+1=about'
p182
aS'w+1=after'
p183
aS'w+1=at'
p184
aS'w+1=be'
p185
aS'w+1=because'
p186
aS'w+1=booking'
p187
aS'w+1=campaign'
p188
aS'w+1=class'
p189
aS'w+1=contract'
p190
aS'w+1=diplomatic'
p191
aS'w+1=due'
p192
aS'w+1=flight'
p193
aS'w+1=follow'
p194
aS'w+1=he'
p195
aS'w+1=hundred'
p196
aS'w+1=in'
p197
aS'w+1=its'
p198
aS'w+1=meeting'
p199
aS'w+1=national'
p200
aS'w+1=or'
p201
aS'w+1=outstanding'
p202
aS'w+1=plan'
p203
aS'w+1=previous'
p204
aS'w+1=progress'
p205
aS'w+1=public'
p206
aS'w+1=she'
p207
aS'w+1=some'
p208
aS'w+1=that'
p209
aS'w+1=the'
p210
aS'w+1=there'
p211
aS'w+1=they'
p212
aS'w+1=this'
p213
aS'w+1=today'
p214
aS'w+1=travel'
p215
aS'w+1=trip'
p216
aS"w+2=''"
p217
aS"w+2='s"
p218
aS'w+2=,'
p219
aS'w+2=.'
p220
aS'w+2=200'
p221
aS'w+2=2005'
p222
aS'w+2=2010'
p223
aS'w+2=40'
p224
aS'w+2=Dakar'
p225
aS'w+2=Moscow'
p226
aS'w+2=Olympic'
p227
aS'w+2=Tibet'
p228
aS'w+2=Tuesday'
p229
aS'w+2=U.S.'
p230
aS'w+2=advance'
p231
aS'w+2=after'
p232
aS'w+2=agreement'
p233
aS'w+2=and'
p234
aS'w+2=appearance'
p235
aS'w+2=appointment'
p236
aS'w+2=arrest'
p237
aS'w+2=because'
p238
aS'w+2=border'
p239
aS'w+2=but'
p240
aS'w+2=contract'
p241
aS'w+2=deal'
p242
aS'w+2=debt'
p243
aS'w+2=delay'
p244
aS'w+2=either'
p245
aS'w+2=election'
p246
aS'w+2=exercise'
p247
aS'w+2=film'
p248
aS'w+2=flight'
p249
aS'w+2=gathering'
p250
aS'w+2=he'
p251
aS'w+2=in'
p252
aS'w+2=indian'
p253
aS'w+2=invitation'
p254
aS'w+2=land'
p255
aS'w+2=make'
p256
aS'w+2=meeting'
p257
aS'w+2=month'
p258
aS'w+2=move'
p259
aS'w+2=much-anticipated'
p260
aS'w+2=nearly'
p261
aS'w+2=objection'
p262
aS'w+2=of'
p263
aS'w+2=plan'
p264
aS'w+2=planned'
p265
aS'w+2=popular'
p266
aS'w+2=promise'
p267
aS'w+2=race'
p268
aS'w+2=remainder'
p269
aS'w+2=sale'
p270
aS'w+2=schedule'
p271
aS'w+2=screening'
p272
aS'w+2=section'
p273
aS'w+2=string'
p274
aS'w+2=subsidy'
p275
aS'w+2=the'
p276
aS'w+2=to'
p277
aS'w+2=tour'
p278
aS'w+2=trip'
p279
aS'w+2=upcome'
p280
aS'w+2=upcomingvisit'
p281
aS'w+2=visit'
p282
aS'w+2=vote'
p283
aS'w+2=weekend'
p284
aS'w+2=with'
p285
aS'w-1=,'
p286
aS'w-1=Abbas'
p287
aS'w-1=Airlines'
p288
aS'w-1=Columbia'
p289
aS'w-1=Gaga'
p290
aS'w-1=Garuda'
p291
aS'w-1=Hamas'
p292
aS'w-1=NATO'
p293
aS'w-1=Rice'
p294
aS'w-1=Russia'
p295
aS'w-1=abruptly'
p296
aS'w-1=almost'
p297
aS'w-1=also'
p298
aS'w-1=and'
p299
aS'w-1=automatically'
p300
aS'w-1=be'
p301
aS'w-1=but'
p302
aS'w-1=by'
p303
aS'w-1=could'
p304
aS'w-1=delay'
p305
aS'w-1=first'
p306
aS'w-1=flight'
p307
aS'w-1=for'
p308
aS'w-1=government'
p309
aS'w-1=have'
p310
aS'w-1=he'
p311
aS'w-1=immediately'
p312
aS'w-1=leave'
p313
aS'w-1=network'
p314
aS'w-1=not'
p315
aS'w-1=of'
p316
aS'w-1=or'
p317
aS'w-1=organizer'
p318
aS'w-1=outweigh'
p319
aS'w-1=program'
p320
aS'w-1=say'
p321
aS'w-1=team'
p322
aS'w-1=than'
p323
aS'w-1=they'
p324
aS'w-1=to'
p325
aS'w-1=will'
p326
aS'w-2=,'
p327
aS'w-2=.'
p328
aS'w-2=American'
p329
aS'w-2=Committee'
p330
aS'w-2=Delanoe'
p331
aS'w-2=Gates'
p332
aS'w-2=Guantanamo'
p333
aS'w-2=Kelly'
p334
aS'w-2=Lady'
p335
aS'w-2=Mahmoud'
p336
aS'w-2=Moo-hyun'
p337
aS'w-2=Musharraf'
p338
aS'w-2=Rally'
p339
aS'w-2=Russia'
p340
aS'w-2=System'
p341
aS'w-2=Tuesday'
p342
aS'w-2=U.S.'
p343
aS'w-2=activity'
p344
aS'w-2=agree'
p345
aS'w-2=airline'
p346
aS'w-2=alliance'
p347
aS'w-2=already'
p348
aS'w-2=ambassador'
p349
aS'w-2=and'
p350
aS'w-2=army-backed'
p351
aS'w-2=be'
p352
aS'w-2=because'
p353
aS'w-2=carrier'
p354
aS'w-2=civilian'
p355
aS'w-2=concern'
p356
aS'w-2=could'
p357
aS'w-2=delay'
p358
aS'w-2=effort'
p359
aS'w-2=election'
p360
aS'w-2=entertainment'
p361
aS'w-2=entrant'
p362
aS'w-2=far'
p363
aS'w-2=flight'
p364
aS'w-2=force'
p365
aS'w-2=government'
p366
aS'w-2=group'
p367
aS'w-2=have'
p368
aS'w-2=he'
p369
aS'w-2=if'
p370
aS'w-2=it'
p371
aS'w-2=nation'
p372
aS'w-2=not'
p373
aS'w-2=of'
p374
aS'w-2=official'
p375
aS'w-2=other'
p376
aS'w-2=philippine'
p377
aS'w-2=poll'
p378
aS'w-2=price'
p379
aS'w-2=rather'
p380
aS'w-2=reason'
p381
aS'w-2=request'
p382
aS'w-2=reroute'
p383
aS'w-2=responsibility'
p384
aS'w-2=retaliate'
p385
aS'w-2=review'
p386
aS'w-2=say'
p387
aS'w-2=school'
p388
aS'w-2=scramble'
p389
aS'w-2=should'
p390
aS'w-2=talk'
p391
aS'w-2=team'
p392
aS'w-2=that'
p393
aS'w-2=the'
p394
aS'w-2=they'
p395
aS'w-2=tour'
p396
aS'w-2=trust'
p397
aS'w-2=vehicle'
p398
aS'w-2=visa'
p399
aS'w-2=weather-related'
p400
aS'w-2=will'
p401
aS'w-2=would'
p402
aS'xcomp=address'
p403
aS'xcomp=cite'
p404
aS'xcomp=deploy'
p405
aS'xcomp=follow'
p406
aS'xcomp=leave'
p407
aS'xcomp=remain'
p408
aS'xcomp=speak'
p409
aS'xcomp=work'
p410
asS'dtype'
p411
cnumpy
float64
p412
sS'vocabulary_'
p413
(dp414
g223
I214
sg288
I279
sg334
I325
sg109
I100
sg85
I76
sg240
I231
sg360
I351
sg131
I122
sg386
I377
sg191
I182
sg114
I105
sg145
I136
sg395
I386
sg162
I153
sg209
I200
sg123
I114
sg69
I60
sg137
I128
sg329
I320
sg122
I113
sg321
I312
sg399
I390
sg322
I313
sg63
I54
sg108
I99
sg28
I19
sg78
I69
sg133
I124
sg197
I188
sg326
I317
sg379
I370
sg272
I263
sg303
I294
sg301
I292
sg394
I385
sg93
I84
sg207
I198
sg361
I352
sg270
I261
sg294
I285
sg277
I268
sg201
I192
sg310
I301
sg215
I206
sg129
I120
sg252
I243
sg90
I81
sg221
I212
sg110
I101
sg304
I295
sg298
I289
sg46
I37
sg159
I150
sg284
I275
sg48
I39
sg330
I321
sg245
I236
sg283
I274
sg309
I300
sg359
I350
sg10
I1
sg393
I384
sg210
I201
sg406
I397
sg96
I87
sg281
I272
sg212
I203
sg367
I358
sg228
I219
sg112
I103
sg134
I125
sg165
I156
sg99
I90
sg38
I29
sg381
I372
sg138
I129
sg255
I246
sg378
I369
sg169
I160
sg295
I286
sg237
I228
sg400
I391
sg79
I70
sg346
I337
sg155
I146
sg202
I193
sg148
I139
sg164
I155
sg339
I330
sg241
I232
sg293
I284
sg366
I357
sg151
I142
sg291
I282
sg43
I34
sg71
I62
sg77
I68
sg102
I93
sg52
I43
sg119
I110
sg30
I21
sg345
I336
sg82
I73
sg50
I41
sg333
I324
sg297
I288
sg166
I157
sg98
I89
sg222
I213
sg23
I14
sg81
I72
sg404
I395
sg88
I79
sg57
I48
sg374
I365
sg153
I144
sg325
I316
sg143
I134
sg15
I6
sg271
I262
sg397
I388
sg13
I4
sg320
I311
sg75
I66
sg280
I271
sg59
I50
sg358
I349
sg342
I333
sg258
I249
sg9
I0
sg168
I159
sg120
I111
sg184
I175
sg195
I186
sg405
I396
sg338
I329
sg332
I323
sg375
I366
sg340
I331
sg173
I164
sg140
I131
sg238
I229
sg94
I85
sg58
I49
sg76
I67
sg313
I304
sg19
I10
sg242
I233
sg144
I135
sg87
I78
sg225
I216
sg249
I240
sg343
I334
sg205
I196
sg139
I130
sg39
I30
sg232
I223
sg193
I184
sg70
I61
sg377
I368
sg211
I202
sg163
I154
sg124
I115
sg409
I400
sg264
I255
sg198
I189
sg285
I276
sg259
I250
sg410
I401
sg64
I55
sg72
I63
sg111
I102
sg408
I399
sg130
I121
sg407
I398
sg263
I254
sg341
I332
sg312
I303
sg251
I242
sg256
I247
sg200
I191
sg106
I97
sg152
I143
sg174
I165
sg25
I16
sg260
I251
sg92
I83
sg190
I181
sg355
I346
sg278
I269
sg351
I342
sg265
I256
sg24
I15
sg186
I177
sg402
I393
sg128
I119
sg83
I74
sg125
I116
sg68
I59
sg117
I108
sg233
I224
sg47
I38
sg347
I338
sg113
I104
sg142
I133
sg314
I305
sg318
I309
sg29
I20
sg296
I287
sg385
I376
sg37
I28
sg132
I123
sg21
I12
sg170
I161
sg243
I234
sg246
I237
sg84
I75
sg370
I361
sg54
I45
sg289
I280
sg372
I363
sg371
I362
sg262
I253
sg161
I152
sg247
I238
sg398
I389
sg236
I227
sg274
I265
sg229
I220
sg348
I339
sg73
I64
sg80
I71
sg217
I208
sg231
I222
sg22
I13
sg41
I32
sg266
I257
sg115
I106
sg188
I179
sg194
I185
sg74
I65
sg336
I327
sg356
I347
sg31
I22
sg368
I359
sg40
I31
sg20
I11
sg67
I58
sg185
I176
sg226
I217
sg261
I252
sg302
I293
sg218
I209
sg104
I95
sg392
I383
sg227
I218
sg269
I260
sg319
I310
sg53
I44
sg42
I33
sg147
I138
sg176
I167
sg89
I80
sg107
I98
sg182
I173
sg335
I326
sg86
I77
sg149
I140
sg51
I42
sg14
I5
sg331
I322
sg254
I245
sg244
I235
sg248
I239
sg60
I51
sg384
I375
sg383
I374
sg33
I24
sg279
I270
sg172
I163
sg66
I57
sg27
I18
sg396
I387
sg214
I205
sg282
I273
sg154
I145
sg235
I226
sg352
I343
sg167
I158
sg305
I296
sg100
I91
sg12
I3
sg203
I194
sg267
I258
sg199
I190
sg308
I299
sg55
I46
sg61
I52
sg95
I86
sg388
I379
sg118
I109
sg391
I382
sg44
I35
sg354
I345
sg208
I199
sg317
I308
sg56
I47
sg135
I126
sg287
I278
sg17
I8
sg357
I348
sg307
I298
sg189
I180
sg234
I225
sg171
I162
sg350
I341
sg126
I117
sg364
I355
sg213
I204
sg292
I283
sg362
I353
sg204
I195
sg369
I360
sg389
I380
sg62
I53
sg349
I340
sg387
I378
sg216
I207
sg276
I267
sg160
I151
sg401
I392
sg327
I318
sg328
I319
sg299
I290
sg34
I25
sg150
I141
sg121
I112
sg286
I277
sg156
I147
sg373
I364
sg97
I88
sg376
I367
sg192
I183
sg35
I26
sg316
I307
sg324
I315
sg136
I127
sg187
I178
sg101
I92
sg311
I302
sg250
I241
sg26
I17
sg382
I373
sg91
I82
sg65
I56
sg300
I291
sg127
I118
sg157
I148
sg290
I281
sg403
I394
sg45
I36
sg18
I9
sg16
I7
sg239
I230
sg158
I149
sg337
I328
sg380
I371
sg103
I94
sg230
I221
sg49
I40
sg306
I297
sg206
I197
sg183
I174
sg344
I335
sg180
I171
sg36
I27
sg275
I266
sg390
I381
sg116
I107
sg141
I132
sg177
I168
sg175
I166
sg178
I169
sg179
I170
sg363
I354
sg220
I211
sg273
I264
sg219
I210
sg105
I96
sg146
I137
sg257
I248
sg11
I2
sg268
I259
sg181
I172
sg315
I306
sg196
I187
sg253
I244
sg323
I314
sg353
I344
sg365
I356
sg32
I23
sg224
I215
ssS'separator'
p415
S'='
sS'sparse'
p416
I01
sb.