ccopy_reg
_reconstructor
p1
(csklearn.feature_extraction.dict_vectorizer
DictVectorizer
p2
c__builtin__
object
p3
NtRp4
(dp5
S'vocabulary_'
p6
(dp7
S'w+2=other'
p8
I16
sS'prep=since'
p9
I10
sS'w+1=more'
p10
I12
sS'w-2=week'
p11
I27
sS'advmod=more'
p12
I0
sS'nsubj=Saheed'
p13
I5
sS'prep=over'
p14
I9
sS'w+2=the'
p15
I17
sS'w-1=also'
p16
I20
sS'w-2=passenger'
p17
I25
sS'w-2=Biola'
p18
I23
sS'nsubj=passenger'
p19
I6
sS'w-1=be'
p20
I21
sS'w+2=for'
p21
I15
sS'w+1=over'
p22
I13
sS'w-2=have'
p23
I24
sS'w-2=the'
p24
I26
sS'cc=and'
p25
I2
sS'w-1=.'
p26
I18
sS'conj=set'
p27
I3
sS'w+1=since'
p28
I14
sS'prep=in'
p29
I8
sS'w-1=political'
p30
I22
sS'w+1=in'
p31
I11
sS'aux=be'
p32
I1
sS'prep=for'
p33
I7
sS'w-1=Saheed'
p34
I19
sS'nsubj=#PRP#'
p35
I4
ssS'dtype'
p36
cnumpy
float64
p37
sS'feature_names_'
p38
(lp39
g12
ag32
ag25
ag27
ag35
ag13
ag19
ag33
ag29
ag14
ag9
ag31
ag10
ag22
ag28
ag21
ag8
ag15
ag26
ag34
ag16
ag20
ag30
ag18
ag23
ag17
ag24
ag11
asS'separator'
p40
S'='
sS'sparse'
p41
I01
sb.