ccopy_reg
_reconstructor
p1
(csklearn.feature_extraction.dict_vectorizer
DictVectorizer
p2
c__builtin__
object
p3
NtRp4
(dp5
S'sort'
p6
I01
sS'feature_names_'
p7
(lp8
S'advcl=come'
p9
aS'advcl=get'
p10
aS'advcl=have'
p11
aS'advmod=ago'
p12
aS'advmod=at'
p13
aS'advmod=away'
p14
aS'advmod=back'
p15
aS'advmod=constantly'
p16
aS'advmod=entirely'
p17
aS'advmod=further'
p18
aS'advmod=later'
p19
aS'advmod=now'
p20
aS'advmod=reportedly'
p21
aS'advmod=simply'
p22
aS'advmod=suddenly'
p23
aS'advmod=then'
p24
aS'advmod=when'
p25
aS'advmod=where'
p26
aS'amod=air-conditioning'
p27
aS'aux=be'
p28
aS'aux=have'
p29
aS'aux=might'
p30
aS'aux=must'
p31
aS'aux=should'
p32
aS'aux=to'
p33
aS'aux=would'
p34
aS'auxpass=be'
p35
aS'cc=and'
p36
aS'cc=but'
p37
aS'ccomp=Mehta'
p38
aS'complm=that'
p39
aS'conj=conserve'
p40
aS'conj=disarm'
p41
aS'conj=present'
p42
aS'conj=replace'
p43
aS'cop=be'
p44
aS'dep=if'
p45
aS'det=a'
p46
aS'det=another'
p47
aS'det=that'
p48
aS'det=the'
p49
aS'dobj=#PRP#'
p50
aS'dobj=allegiance'
p51
aS'dobj=bag'
p52
aS'dobj=gear'
p53
aS'dobj=language'
p54
aS'dobj=light'
p55
aS'dobj=place'
p56
aS'dobj=point'
p57
aS'dobj=position'
p58
aS'dobj=screen'
p59
aS'dobj=side'
p60
aS'dobj=some'
p61
aS'dobj=support'
p62
aS'mark=as'
p63
aS'mark=for'
p64
aS'mark=while'
p65
aS'nn=master'
p66
aS'nn=party'
p67
aS'nsubj=#PRP#'
p68
aS'nsubj=Australians'
p69
aS'nsubj=China'
p70
aS'nsubj=Margaret'
p71
aS'nsubj=carriage-maker'
p72
aS'nsubj=chief'
p73
aS'nsubj=country'
p74
aS'nsubj=fisherman'
p75
aS'nsubj=handful'
p76
aS'nsubj=household'
p77
aS'nsubj=lawmaker'
p78
aS'nsubj=leader'
p79
aS'nsubj=nation'
p80
aS'nsubj=participant'
p81
aS'nsubj=sheikh'
p82
aS'nsubj=speaker'
p83
aS'nsubj=supporter'
p84
aS'nsubj=who'
p85
aS'nsubj=woman'
p86
aS'nsubj=world'
p87
aS'nsubjpass=bulb'
p88
aS'nsubjpass=coverage'
p89
aS'nsubjpass=light'
p90
aS'nsubjpass=phone'
p91
aS'nsubjpass=that'
p92
aS'parataxis=lead'
p93
aS'poss=#PRP#'
p94
aS'prep=after'
p95
aS'prep=at'
p96
aS'prep=by'
p97
aS'prep=for'
p98
aS'prep=from'
p99
aS'prep=in'
p100
aS'prep=include'
p101
aS'prep=on'
p102
aS'prep=over'
p103
aS'prep=to'
p104
aS'prt=off'
p105
aS'prt=over'
p106
aS'rel=who'
p107
aS'tmod=today'
p108
aS'tmod=year'
p109
aS"w+1='"
p110
aS'w+1=,'
p111
aS'w+1=.'
p112
aS'w+1=away'
p113
aS'w+1=back'
p114
aS'w+1=be'
p115
aS'w+1=economic'
p116
aS'w+1=entirely'
p117
aS'w+1=from'
p118
aS'w+1=gear'
p119
aS'w+1=grass'
p120
aS'w+1=he'
p121
aS'w+1=in'
p122
aS'w+1=it'
p123
aS'w+1=language'
p124
aS'w+1=off'
p125
aS'w+1=on'
p126
aS'w+1=over'
p127
aS'w+1=party'
p128
aS'w+1=position'
p129
aS'w+1=side'
p130
aS'w+1=support'
p131
aS'w+1=the'
p132
aS'w+1=they'
p133
aS'w+1=to'
p134
aS'w+2=,'
p135
aS'w+2=.'
p136
aS'w+2=Universal'
p137
aS'w+2=a'
p138
aS'w+2=allegiance'
p139
aS'w+2=alternative'
p140
aS'w+2=and'
p141
aS'w+2=another'
p142
aS'w+2=at'
p143
aS'w+2=bass'
p144
aS'w+2=better'
p145
aS'w+2=clean'
p146
aS'w+2=coal-fired'
p147
aS'w+2=compact'
p148
aS'w+2=cooking'
p149
aS'w+2=democratic'
p150
aS'w+2=for'
p151
aS'w+2=fossil'
p152
aS'w+2=from'
p153
aS'w+2=greater'
p154
aS'w+2=in'
p155
aS'w+2=make'
p156
aS'w+2=mid-grade'
p157
aS'w+2=more'
p158
aS'w+2=move'
p159
aS'w+2=now'
p160
aS'w+2=of'
p161
aS'w+2=off'
p162
aS'w+2=on'
p163
aS'w+2=or'
p164
aS'w+2=over'
p165
aS'w+2=place'
p166
aS'w+2=point'
p167
aS'w+2=politics'
p168
aS'w+2=produce'
p169
aS'w+2=renewable'
p170
aS'w+2=scenic'
p171
aS'w+2=screen'
p172
aS'w+2=sell'
p173
aS'w+2=some'
p174
aS'w+2=support'
p175
aS'w+2=that'
p176
aS'w+2=the'
p177
aS'w+2=these'
p178
aS'w+2=they'
p179
aS'w+2=this'
p180
aS'w+2=to'
p181
aS'w+2=today'
p182
aS'w+2=travel'
p183
aS'w+2=until'
p184
aS'w+2=will'
p185
aS'w+2=wine'
p186
aS'w-1=,'
p187
aS'w-1=Australians'
p188
aS'w-1=Russia'
p189
aS'w-1=a'
p190
aS'w-1=air-conditioning'
p191
aS'w-1=and'
p192
aS'w-1=another'
p193
aS'w-1=as'
p194
aS'w-1=be'
p195
aS'w-1=but'
p196
aS'w-1=by'
p197
aS'w-1=city'
p198
aS'w-1=constantly'
p199
aS'w-1=country'
p200
aS'w-1=for'
p201
aS'w-1=from'
p202
aS'w-1=genuinely'
p203
aS'w-1=have'
p204
aS'w-1=later'
p205
aS'w-1=master'
p206
aS'w-1=might'
p207
aS'w-1=must'
p208
aS'w-1=of'
p209
aS'w-1=on'
p210
aS'w-1=or'
p211
aS'w-1=party'
p212
aS'w-1=reportedly'
p213
aS'w-1=say'
p214
aS'w-1=she'
p215
aS'w-1=sheikh'
p216
aS'w-1=should'
p217
aS'w-1=simply'
p218
aS'w-1=speaker'
p219
aS'w-1=suddenly'
p220
aS'w-1=that'
p221
aS'w-1=the'
p222
aS'w-1=then'
p223
aS'w-1=to'
p224
aS'w-1=use'
p225
aS'w-1=who'
p226
aS'w-1=world'
p227
aS'w-1=would'
p228
aS"w-2=''"
p229
aS'w-2=,'
p230
aS'w-2=.'
p231
aS'w-2=Africa'
p232
aS'w-2=Bridge'
p233
aS'w-2=Clinton'
p234
aS'w-2=Mehta'
p235
aS'w-2=Representatives'
p236
aS'w-2=Sunni'
p237
aS'w-2=Tower'
p238
aS'w-2=`'
p239
aS'w-2=a'
p240
aS'w-2=act'
p241
aS'w-2=addition'
p242
aS'w-2=and'
p243
aS'w-2=be'
p244
aS'w-2=begin'
p245
aS'w-2=bulb'
p246
aS'w-2=but'
p247
aS'w-2=can'
p248
aS'w-2=carriage-maker'
p249
aS'w-2=chief'
p250
aS'w-2=chip'
p251
aS'w-2=company'
p252
aS'w-2=country'
p253
aS'w-2=decide'
p254
aS'w-2=decision'
p255
aS'w-2=delegate'
p256
aS'w-2=develop'
p257
aS'w-2=fisherman'
p258
aS'w-2=have'
p259
aS'w-2=hawker'
p260
aS'w-2=he'
p261
aS'w-2=household'
p262
aS'w-2=incentive'
p263
aS'w-2=it'
p264
aS'w-2=large'
p265
aS'w-2=lawmaker'
p266
aS'w-2=leader'
p267
aS'w-2=make'
p268
aS'w-2=mid-remark'
p269
aS'w-2=must'
p270
aS'w-2=need'
p271
aS'w-2=official'
p272
aS'w-2=participant'
p273
aS'w-2=patient'
p274
aS'w-2=phone'
p275
aS'w-2=possession'
p276
aS'w-2=prepare'
p277
aS'w-2=proposal'
p278
aS'w-2=shopkeeper'
p279
aS'w-2=sort'
p280
aS'w-2=speaker'
p281
aS'w-2=such'
p282
aS'w-2=supporter'
p283
aS'w-2=that'
p284
aS'w-2=the'
p285
aS'w-2=they'
p286
aS'w-2=try'
p287
aS'w-2=turn'
p288
aS'w-2=vote'
p289
aS'w-2=want'
p290
aS'w-2=we'
p291
aS'w-2=whole'
p292
aS'w-2=willing'
p293
aS'w-2=with'
p294
aS'w-2=you'
p295
aS'xcomp=gain'
p296
aS'xcomp=give'
p297
aS'xcomp=mid-grade'
p298
asS'dtype'
p299
cnumpy
float64
p300
sS'vocabulary_'
p301
(dp302
g24
I15
sg276
I267
sg215
I206
sg160
I151
sg11
I2
sg153
I144
sg157
I148
sg26
I17
sg150
I141
sg135
I126
sg125
I116
sg16
I7
sg286
I277
sg139
I130
sg197
I188
sg199
I190
sg145
I136
sg43
I34
sg281
I272
sg236
I227
sg47
I38
sg19
I10
sg263
I254
sg49
I40
sg154
I145
sg92
I83
sg168
I159
sg248
I239
sg127
I118
sg242
I233
sg249
I240
sg155
I146
sg93
I84
sg198
I189
sg290
I281
sg211
I202
sg62
I53
sg265
I256
sg85
I76
sg45
I36
sg180
I171
sg235
I226
sg56
I47
sg71
I62
sg72
I63
sg271
I262
sg83
I74
sg209
I200
sg229
I220
sg73
I64
sg224
I215
sg27
I18
sg97
I88
sg141
I132
sg243
I234
sg187
I178
sg53
I44
sg158
I149
sg144
I135
sg289
I280
sg50
I41
sg130
I121
sg216
I207
sg262
I253
sg287
I278
sg277
I268
sg228
I219
sg233
I224
sg275
I266
sg65
I56
sg188
I179
sg285
I276
sg247
I238
sg89
I80
sg165
I156
sg261
I252
sg40
I31
sg294
I285
sg206
I197
sg237
I228
sg22
I13
sg67
I58
sg20
I11
sg205
I196
sg274
I265
sg77
I68
sg291
I282
sg192
I183
sg177
I168
sg96
I87
sg122
I113
sg178
I169
sg230
I221
sg142
I133
sg231
I222
sg12
I3
sg175
I166
sg161
I152
sg121
I112
sg54
I45
sg29
I20
sg70
I61
sg171
I162
sg64
I55
sg227
I218
sg195
I186
sg296
I287
sg186
I177
sg279
I270
sg108
I99
sg184
I175
sg123
I114
sg272
I263
sg162
I153
sg87
I78
sg297
I288
sg173
I164
sg183
I174
sg79
I70
sg9
I0
sg214
I205
sg264
I255
sg17
I8
sg176
I167
sg213
I204
sg60
I51
sg23
I14
sg14
I5
sg32
I23
sg25
I16
sg39
I30
sg280
I271
sg223
I214
sg181
I172
sg126
I117
sg15
I6
sg240
I231
sg152
I143
sg86
I77
sg98
I89
sg46
I37
sg190
I181
sg10
I1
sg203
I194
sg288
I279
sg232
I223
sg204
I195
sg109
I100
sg137
I128
sg140
I131
sg220
I211
sg166
I157
sg129
I120
sg52
I43
sg143
I134
sg268
I259
sg74
I65
sg63
I54
sg219
I210
sg58
I49
sg116
I107
sg278
I269
sg37
I28
sg118
I109
sg117
I108
sg172
I163
sg241
I232
sg35
I26
sg239
I230
sg90
I81
sg179
I170
sg95
I86
sg30
I21
sg13
I4
sg226
I217
sg212
I203
sg257
I248
sg258
I249
sg256
I247
sg36
I27
sg88
I79
sg284
I275
sg149
I140
sg113
I104
sg128
I119
sg147
I138
sg169
I160
sg115
I106
sg55
I46
sg120
I111
sg270
I261
sg191
I182
sg133
I124
sg107
I98
sg189
I180
sg196
I187
sg101
I92
sg124
I115
sg81
I72
sg76
I67
sg66
I57
sg182
I173
sg100
I91
sg174
I165
sg34
I25
sg114
I105
sg259
I250
sg267
I258
sg167
I158
sg119
I110
sg218
I209
sg68
I59
sg159
I150
sg99
I90
sg202
I193
sg253
I244
sg59
I50
sg254
I245
sg105
I96
sg238
I229
sg42
I33
sg194
I185
sg104
I95
sg51
I42
sg33
I24
sg295
I286
sg131
I122
sg185
I176
sg146
I137
sg103
I94
sg273
I264
sg94
I85
sg266
I257
sg246
I237
sg298
I289
sg80
I71
sg260
I251
sg69
I60
sg164
I155
sg61
I52
sg110
I101
sg82
I73
sg44
I35
sg252
I243
sg201
I192
sg111
I102
sg112
I103
sg151
I142
sg78
I69
sg136
I127
sg269
I260
sg282
I273
sg75
I66
sg163
I154
sg134
I125
sg48
I39
sg132
I123
sg217
I208
sg245
I236
sg250
I241
sg31
I22
sg293
I284
sg18
I9
sg156
I147
sg193
I184
sg84
I75
sg255
I246
sg38
I29
sg200
I191
sg207
I198
sg251
I242
sg292
I283
sg210
I201
sg170
I161
sg57
I48
sg244
I235
sg283
I274
sg208
I199
sg106
I97
sg21
I12
sg222
I213
sg102
I93
sg225
I216
sg221
I212
sg28
I19
sg148
I139
sg41
I32
sg234
I225
sg138
I129
sg91
I82
ssS'separator'
p303
S'='
sS'sparse'
p304
I01
sb.