ccopy_reg
_reconstructor
p1
(csklearn.feature_extraction.dict_vectorizer
DictVectorizer
p2
c__builtin__
object
p3
NtRp4
(dp5
S'vocabulary_'
p6
(dp7
S'advmod=up'
p8
I8
sS'advmod=randomly'
p9
I4
sS'dobj=issue'
p10
I29
sS'xcomp=integrate'
p11
I194
sS'w+1=,'
p12
I71
sS'w-1=unit'
p13
I151
sS'w+1=Vice'
p14
I73
sS'w-2=we'
p15
I186
sS'nsubjpass=Badkhen'
p16
I48
sS'w-2=school'
p17
I181
sS'nsubjpass=expert'
p18
I52
sS'w-2=11'
p19
I154
sS'w-1=to'
p20
I150
sS'w-2=rating'
p21
I177
sS'w-1=official'
p22
I145
sS'w+1=very'
p23
I90
sS'w-1=be'
p24
I134
sS'dobj=date'
p25
I25
sS'prep=include'
p26
I66
sS'w-2=race'
p27
I176
sS'w-1=force'
p28
I139
sS'w-2=new'
p29
I172
sS'xcomp=combat'
p30
I190
sS'w+1=until'
p31
I89
sS'w-1=randomly'
p32
I147
sS'w+2=religious'
p33
I117
sS'xcomp=provide'
p34
I195
sS'w+2=each'
p35
I103
sS'w+2=cover'
p36
I102
sS'w-2=then'
p37
I184
sS'nsubjpass=those'
p38
I56
sS'w+1=no'
p39
I81
sS'dobj=frequency'
p40
I26
sS'w-2=they'
p41
I185
sS'w+2=what'
p42
I125
sS'w-1=-'
p43
I126
sS'prep=by'
p44
I63
sS'advmod=specifically'
p45
I6
sS'w+2=frequency'
p46
I106
sS'advcl=of'
p47
I1
sS'w-2=reporting'
p48
I179
sS'w+2=more'
p49
I112
sS'dobj=group'
p50
I28
sS'w+2=Somalia'
p51
I96
sS'w+1=responsibility'
p52
I83
sS'w+2=jurisdiction'
p53
I111
sS'w-2=not'
p54
I174
sS'w-2=anti-terrorism'
p55
I161
sS'w+2=Interpol'
p56
I94
sS'nsubjpass=unit'
p57
I57
sS'mark=while'
p58
I39
sS'w-1=can'
p59
I135
sS'w-2=American'
p60
I156
sS'w-2=he'
p61
I169
sS'dobj=grade'
p62
I27
sS'dobj=#PRP#'
p63
I22
sS'aux=will'
p64
I14
sS'xcomp=add'
p65
I188
sS'ccomp=get'
p66
I17
sS'advmod=so'
p67
I5
sS'advmod=permanently'
p68
I3
sS'nsubj=Constitution'
p69
I43
sS'w-2=do'
p70
I165
sS'w-2=reluctance'
p71
I178
sS'w+2=the'
p72
I122
sS'xcomp=cover'
p73
I191
sS'w-1=agency'
p74
I131
sS'w-2=,'
p75
I152
sS'w-1=permanently'
p76
I146
sS'prep=with'
p77
I69
sS'dobj=Corps'
p78
I23
sS'w+2=all'
p79
I99
sS'w-1=;'
p80
I128
sS'aux=have'
p81
I11
sS'nsubjpass=that'
p82
I55
sS'dobj=jurisdiction'
p83
I30
sS'parataxis=take'
p84
I61
sS'w-1=adviser'
p85
I130
sS'xcomp=role'
p86
I196
sS'w-2=Council'
p87
I158
sS'conj=discuss'
p88
I20
sS'nsubjpass=Jason'
p89
I49
sS'w-2=resource'
p90
I180
sS'xcomp=supervise'
p91
I197
sS'w+2=portfolio'
p92
I115
sS'nsubj=Act'
p93
I42
sS'w-2=Badkhen'
p94
I157
sS'w+1=two'
p95
I88
sS'aux=should'
p96
I12
sS'advmod=when'
p97
I9
sS'w+2=to'
p98
I124
sS'w-1=they'
p99
I149
sS'prep=for'
p100
I64
sS'nsubj=constitution'
p101
I45
sS'dep=that'
p102
I21
sS'dobj=student'
p103
I35
sS'w-1=have'
p104
I140
sS'dobj=Interpol'
p105
I24
sS'w+2=assess'
p106
I100
sS'w-2=Act'
p107
I155
sS'advmod=normally'
p108
I2
sS'nsubjpass=blame'
p109
I50
sS"w+2=''"
p110
I91
sS'w+2=in'
p111
I110
sS'dobj=leader'
p112
I31
sS'w-1=he'
p113
I141
sS'nsubjpass=seat'
p114
I53
sS'w-2=U.S.'
p115
I160
sS'nsubjpass=team'
p116
I54
sS'advcl=know'
p117
I0
sS'auxpass=be'
p118
I15
sS'aux=can'
p119
I10
sS'complm=that'
p120
I18
sS'xcomp=go'
p121
I193
sS'w+2=they'
p122
I123
sS'xcomp=assess'
p123
I189
sS'w-2=blame'
p124
I163
sS'prep=after'
p125
I62
sS'dobj=term'
p126
I36
sS'w+2=five-year'
p127
I105
sS'nsubjpass=who'
p128
I58
sS'w+1=five'
p129
I76
sS'w-2=have'
p130
I168
sS'w+2=President'
p131
I95
sS'xcomp=get'
p132
I192
sS'cc=and'
p133
I16
sS'w-2=FBI'
p134
I159
sS'advmod=still'
p135
I7
sS'w-2=federal'
p136
I167
sS'w-2=that'
p137
I183
sS'w+1=the'
p138
I85
sS'w+1=by'
p139
I75
sS'w+1=student'
p140
I84
sS'w+1=investigative'
p141
I79
sS'w+1=they'
p142
I86
sS'w+2=combat'
p143
I101
sS'dobj=responsibility'
p144
I33
sS'w-2=enforcement'
p145
I166
sS'nsubjpass=#PRP#'
p146
I47
sS'w-1=agent'
p147
I132
sS'w+2=she'
p148
I118
sS'prep=in'
p149
I65
sS'w+2=some'
p150
I120
sS'w+1=frequency'
p151
I77
sS'w+2=U.S.'
p152
I97
sS'w-2=task'
p153
I182
sS'w-1=specifically'
p154
I148
sS'w+1=it'
p155
I80
sS'w-1=constitution'
p156
I137
sS'nsubj=#PRP#'
p157
I41
sS'w-1=exercise'
p158
I138
sS'w+2=group'
p159
I109
sS'w+2=go'
p160
I108
sS'w-2=neutral'
p161
I171
sS'prep=to'
p162
I68
sS'aux=to'
p163
I13
sS'w+2=get'
p164
I107
sS'prep=on'
p165
I67
sS'w-1=judge'
p166
I143
sS'w-2=parent'
p167
I175
sS'w+2=opposition'
p168
I114
sS'w+2=exact'
p169
I104
sS'w-2=military'
p170
I170
sS'w-1=company'
p171
I136
sS'nsubj=question'
p172
I46
sS'w+1=.'
p173
I72
sS'w+2=provide'
p174
I116
sS'w+2=.'
p175
I92
sS'nsubjpass=woman'
p176
I59
sS'w+2=on'
p177
I113
sS'w+1=to'
p178
I87
sS'neg=not'
p179
I40
sS'mark=before'
p180
I38
sS'w-1=and'
p181
I133
sS'w+2=soft'
p182
I119
sS'dobj=portfolio'
p183
I32
sS'w-2=come'
p184
I164
sS'w-2=.'
p185
I153
sS'w+2=specific'
p186
I121
sS'dobj=year'
p187
I37
sS'nsubjpass=experience'
p188
I51
sS'w-1=Constitution'
p189
I129
sS'w-1=in'
p190
I142
sS'w-1=lawyer'
p191
I144
sS'nsubj=company'
p192
I44
sS'w+1=a'
p193
I74
sS'parataxis=preside'
p194
I60
sS'w-2=be'
p195
I162
sS'w-2=normally'
p196
I173
sS'prep=without'
p197
I70
sS'w+2=Basra'
p198
I93
sS'w+1=o'
p199
I82
sS'w+1=grade'
p200
I78
sS'conj=cast'
p201
I19
sS'w-2=well'
p202
I187
sS'w+2=a'
p203
I98
sS'dobj=role'
p204
I34
sS'w-1=2007'
p205
I127
ssS'dtype'
p206
cnumpy
float64
p207
sS'feature_names_'
p208
(lp209
g117
ag47
ag108
ag68
ag9
ag67
ag45
ag135
ag8
ag97
ag119
ag81
ag96
ag163
ag64
ag118
ag133
ag66
ag120
ag201
ag88
ag102
ag63
ag78
ag105
ag25
ag40
ag62
ag50
ag10
ag83
ag112
ag183
ag144
ag204
ag103
ag126
ag187
ag180
ag58
ag179
ag157
ag93
ag69
ag192
ag101
ag172
ag146
ag16
ag89
ag109
ag188
ag18
ag114
ag116
ag82
ag38
ag57
ag128
ag176
ag194
ag84
ag125
ag44
ag100
ag149
ag26
ag165
ag162
ag77
ag197
ag12
ag173
ag14
ag193
ag139
ag129
ag151
ag200
ag141
ag155
ag39
ag199
ag52
ag140
ag138
ag142
ag178
ag95
ag31
ag23
ag110
ag175
ag198
ag56
ag131
ag51
ag152
ag203
ag79
ag106
ag143
ag36
ag35
ag169
ag127
ag46
ag164
ag160
ag159
ag111
ag53
ag49
ag177
ag168
ag92
ag174
ag33
ag148
ag182
ag150
ag186
ag72
ag122
ag98
ag42
ag43
ag205
ag80
ag189
ag85
ag74
ag147
ag181
ag24
ag59
ag171
ag156
ag158
ag28
ag104
ag113
ag190
ag166
ag191
ag22
ag76
ag32
ag154
ag99
ag20
ag13
ag75
ag185
ag19
ag107
ag60
ag94
ag87
ag134
ag115
ag55
ag195
ag124
ag184
ag70
ag145
ag136
ag130
ag61
ag170
ag161
ag29
ag196
ag54
ag167
ag27
ag21
ag71
ag48
ag90
ag17
ag153
ag137
ag37
ag41
ag15
ag202
ag65
ag123
ag30
ag73
ag132
ag121
ag11
ag34
ag86
ag91
asS'separator'
p210
S'='
sS'sparse'
p211
I01
sb.