ccopy_reg
_reconstructor
p1
(csklearn.feature_extraction.dict_vectorizer
DictVectorizer
p2
c__builtin__
object
p3
NtRp4
(dp5
S'vocabulary_'
p6
(dp7
S'amod=first'
p8
I4
sS'w-2=first'
p9
I188
sS'nn=soil'
p10
I31
sS'w-2=mean'
p11
I200
sS'w+2=from'
p12
I93
sS'w-2=CDC'
p13
I174
sS'w-2=might'
p14
I201
sS'amod=genetic'
p15
I5
sS'w+1=available'
p16
I51
sS'w+1=group'
p17
I58
sS'w+1=local'
p18
I60
sS'w-2=on'
p19
I205
sS'amod=#NUMBER#'
p20
I2
sS'w+2=of'
p21
I101
sS'predet=all'
p22
I42
sS'nn=dna'
p23
I25
sS'det=another'
p24
I16
sS'w+2=not'
p25
I100
sS'det=the'
p26
I18
sS'w-2=its'
p27
I198
sS'w-2=say'
p28
I211
sS'dobj=people'
p29
I19
sS"w+2=''"
p30
I74
sS'w-2=invitation'
p31
I197
sS'w-1=on'
p32
I147
sS'w-2=consult'
p33
I183
sS'poss=CDC'
p34
I41
sS'w+2=1940'
p35
I77
sS'w-1=100-gram'
p36
I125
sS'w+2=plant'
p37
I106
sS'w-2=lab'
p38
I199
sS'w+2=variety'
p39
I119
sS'w+1=can'
p40
I53
sS'nn=#NUMBER#'
p41
I21
sS'w-2=they'
p42
I216
sS'nn=uranium'
p43
I33
sS'w-1=to'
p44
I164
sS'w+2=out'
p45
I104
sS'w-2=to'
p46
I217
sS'w+2=and'
p47
I81
sS'w-2=and'
p48
I178
sS'nn=corn'
p49
I24
sS'nn=influenza'
p50
I27
sS'w+2=more'
p51
I99
sS'w+1=that'
p52
I67
sS'w+2=seemingly'
p53
I110
sS'det=each'
p54
I17
sS'prep=across'
p55
I43
sS'nn=core'
p56
I23
sS'w-1=ring'
p57
I154
sS'w+2=only'
p58
I103
sS'partmod=send'
p59
I38
sS'w-1=random'
p60
I152
sS'w-2=music'
p61
I202
sS'w-1=say'
p62
I155
sS'appos=#NUMBER#'
p63
I10
sS'w+1=could'
p64
I54
sS'w-1=influenza'
p65
I141
sS'w+2=across'
p66
I80
sS'amod=second'
p67
I9
sS'w+1=with'
p68
I73
sS'w+1=give'
p69
I57
sS'nn=ring'
p70
I30
sS'w-2=flu'
p71
I189
sS'w-1=soil'
p72
I158
sS'w-2=take'
p73
I214
sS'w+2=hundred'
p74
I97
sS'w+2=the'
p75
I114
sS'w-2=another'
p76
I179
sS'w+2=food'
p77
I90
sS'w-2=,'
p78
I171
sS'w-2=.'
p79
I172
sS'w-1=malaria'
p80
I146
sS'w-1=pour'
p81
I151
sS'w-1=be'
p82
I130
sS'amod=representative'
p83
I8
sS'w+2=people'
p84
I105
sS'w-2=share'
p85
I212
sS'nn=tissue'
p86
I32
sS'w-1=,'
p87
I124
sS'w-2=not'
p88
I204
sS'w-2=the'
p89
I215
sS'w+2=scientist'
p90
I109
sS'w-1=second'
p91
I156
sS'w-1=whether'
p92
I168
sS'w-2=you'
p93
I222
sS'w-2=in'
p94
I196
sS'w+2=relative'
p95
I107
sS'w-2=neighborhood'
p96
I203
sS'w+2=too'
p97
I118
sS'w+2=blood'
p98
I85
sS'w+2=because'
p99
I84
sS'w+2=one'
p100
I102
sS'nn=virus'
p101
I34
sS'w-1=representative'
p102
I153
sS'w+1=of'
p103
I61
sS'w-2=will'
p104
I221
sS'w+1=have'
p105
I59
sS'w+2=to'
p106
I117
sS'w-1=with'
p107
I169
sS'w-2=she'
p108
I213
sS'w-1=tissue'
p109
I163
sS'det=a'
p110
I15
sS'w-1=a'
p111
I127
sS'conj=find'
p112
I14
sS'w-2=gather'
p113
I192
sS'w-2=process'
p114
I207
sS'w-2=currently'
p115
I185
sS'w+2=freeze'
p116
I92
sS'w-1=core'
p117
I133
sS'amod=avian'
p118
I3
sS'num=#NUMBER#'
p119
I37
sS'tmod=month'
p120
I46
sS'w+2=eight'
p121
I88
sS'w+2=14,000'
p122
I76
sS'advmod=abroad'
p123
I1
sS'w+2=in'
p124
I98
sS'w-1=genetic'
p125
I139
sS'partmod=take'
p126
I39
sS'nn=doping'
p127
I26
sS'w+1=from'
p128
I56
sS'w-1=could'
p129
I135
sS'auxpass=be'
p130
I12
sS'aux=can'
p131
I11
sS'w+2=gather'
p132
I94
sS'w+2=villager'
p133
I120
sS'w-1=one'
p134
I148
sS"w-1='s"
p135
I123
sS'w+1=openly'
p136
I62
sS'w+1=premium'
p137
I63
sS'w-1=each'
p138
I138
sS'w+1=wholesome'
p139
I71
sS'w-1=out'
p140
I149
sS'w-2=contain'
p141
I184
sS'w-2=call'
p142
I182
sS'w+2=around'
p143
I82
sS'w-1=virus'
p144
I167
sS'w-2=have'
p145
I194
sS'w-2=Thompson'
p146
I175
sS'cc=and'
p147
I13
sS'w-2=over'
p148
I206
sS'w+2=collect'
p149
I86
sS'w+2=have'
p150
I95
sS'w-1=polling'
p151
I150
sS'w-1=large'
p152
I143
sS'w+2=farm'
p153
I89
sS'w+1=the'
p154
I68
sS'w-2=use'
p155
I220
sS'w+1=will'
p156
I72
sS'w+1=be'
p157
I52
sS'w-2=dry'
p158
I186
sS'w+2=be'
p159
I83
sS'amod=large'
p160
I6
sS'nn=malaria'
p161
I28
sS'amod=random'
p162
I7
sS'w-2=500'
p163
I173
sS'w+2=they'
p164
I115
sS'w+1=send'
p165
I64
sS'w-2=proudly'
p166
I208
sS'w+2=some'
p167
I113
sS'w-2=ice'
p168
I195
sS'w-2=from'
p169
I191
sS'nsubjpass=product'
p170
I36
sS'w-2=examine'
p171
I187
sS'nsubj=#PRP#'
p172
I35
sS'prep=from'
p173
I44
sS'w-1=analyze'
p174
I128
sS'nn=polling'
p175
I29
sS'w-2=up'
p176
I219
sS'w-2=rely'
p177
I210
sS'w-1=the'
p178
I161
sS'w-1=dna'
p179
I136
sS'w-2=a'
p180
I176
sS'w+2=high-grade'
p181
I96
sS'w-1=doping'
p182
I137
sS'w-1=contribute'
p183
I132
sS'w+2=year'
p184
I122
sS'w-1=withhold'
p185
I170
sS'poss=#PRP#'
p186
I40
sS'w+2=soil'
p187
I112
sS'w-1=three'
p188
I162
sS'w+1=and'
p189
I50
sS'w-1=limited'
p190
I144
sS'w-2=brain'
p191
I181
sS'w+2=thousand'
p192
I116
sS'w+1=,'
p193
I47
sS'w+1=.'
p194
I48
sS'w+2=for'
p195
I91
sS'w-2=real'
p196
I209
sS'w+2=,'
p197
I75
sS'w+1=size'
p198
I65
sS'w+1=to'
p199
I70
sS'w-1=share'
p200
I157
sS'neg=not'
p201
I20
sS'w+2=roadside'
p202
I108
sS'advcl=ban'
p203
I0
sS'w-2=all'
p204
I177
sS'w-1=it'
p205
I142
sS'w-1=h5n1'
p206
I140
sS'w+1=take'
p207
I66
sS'w-1=and'
p208
I129
sS'nn=blood'
p209
I22
sS'w+1=do'
p210
I55
sS'w+2=drop'
p211
I87
sS'w+2=University'
p212
I78
sS'w-1=make'
p213
I145
sS'w-2=tree'
p214
I218
sS'w-1=20'
p215
I126
sS'w-1=blood'
p216
I131
sS'w+2=we'
p217
I121
sS'w+1=abroad'
p218
I49
sS'w-1=test'
p219
I159
sS'w-2=be'
p220
I180
sS'w-1=corn'
p221
I134
sS'prep=of'
p222
I45
sS'w+2=signature'
p223
I111
sS'w+1=three'
p224
I69
sS'w-1=use'
p225
I166
sS'w-1=that'
p226
I160
sS'w-2=for'
p227
I190
sS'w-2=hand'
p228
I193
sS'w+2=a'
p229
I79
sS'w-1=uranium'
p230
I165
ssS'dtype'
p231
cnumpy
float64
p232
sS'feature_names_'
p233
(lp234
g203
ag123
ag20
ag118
ag8
ag15
ag160
ag162
ag83
ag67
ag63
ag131
ag130
ag147
ag112
ag110
ag24
ag54
ag26
ag29
ag201
ag41
ag209
ag56
ag49
ag23
ag127
ag50
ag161
ag175
ag70
ag10
ag86
ag43
ag101
ag172
ag170
ag119
ag59
ag126
ag186
ag34
ag22
ag55
ag173
ag222
ag120
ag193
ag194
ag218
ag189
ag16
ag157
ag40
ag64
ag210
ag128
ag69
ag17
ag105
ag18
ag103
ag136
ag137
ag165
ag198
ag207
ag52
ag154
ag224
ag199
ag139
ag156
ag68
ag30
ag197
ag122
ag35
ag212
ag229
ag66
ag47
ag143
ag159
ag99
ag98
ag149
ag211
ag121
ag153
ag77
ag195
ag116
ag12
ag132
ag150
ag181
ag74
ag124
ag51
ag25
ag21
ag100
ag58
ag45
ag84
ag37
ag95
ag202
ag90
ag53
ag223
ag187
ag167
ag75
ag164
ag192
ag106
ag97
ag39
ag133
ag217
ag184
ag135
ag87
ag36
ag215
ag111
ag174
ag208
ag82
ag216
ag183
ag117
ag221
ag129
ag179
ag182
ag138
ag125
ag206
ag65
ag205
ag152
ag190
ag213
ag80
ag32
ag134
ag140
ag151
ag81
ag60
ag102
ag57
ag62
ag91
ag200
ag72
ag219
ag226
ag178
ag188
ag109
ag44
ag230
ag225
ag144
ag92
ag107
ag185
ag78
ag79
ag163
ag13
ag146
ag180
ag204
ag48
ag76
ag220
ag191
ag142
ag33
ag141
ag115
ag158
ag171
ag9
ag71
ag227
ag169
ag113
ag228
ag145
ag168
ag94
ag31
ag27
ag38
ag11
ag14
ag61
ag96
ag88
ag19
ag148
ag114
ag166
ag196
ag177
ag28
ag85
ag108
ag73
ag89
ag42
ag46
ag214
ag176
ag155
ag104
ag93
asS'separator'
p235
S'='
sS'sparse'
p236
I01
sb.