ccopy_reg
_reconstructor
p1
(csklearn.feature_extraction.dict_vectorizer
DictVectorizer
p2
c__builtin__
object
p3
NtRp4
(dp5
S'sort'
p6
I01
sS'feature_names_'
p7
(lp8
S'acomp=due'
p9
aS'advcl=able'
p10
aS'advcl=after'
p11
aS'advcl=attempt'
p12
aS'advcl=complain'
p13
aS'advcl=complete'
p14
aS'advcl=consider'
p15
aS'advcl=convene'
p16
aS'advcl=expensive'
p17
aS'advcl=fail'
p18
aS'advcl=helicopter'
p19
aS'advcl=hold'
p20
aS'advcl=kill'
p21
aS'advcl=make'
p22
aS'advcl=murder'
p23
aS'advcl=release'
p24
aS'advcl=respond'
p25
aS'advcl=riot'
p26
aS'advcl=run'
p27
aS'advcl=split'
p28
aS'advcl=talk'
p29
aS'advmod=again'
p30
aS'advmod=already'
p31
aS'advmod=also'
p32
aS'advmod=at'
p33
aS'advmod=effectively'
p34
aS'advmod=first'
p35
aS'advmod=however'
p36
aS'advmod=indefinitely'
p37
aS'advmod=likely'
p38
aS'advmod=long'
p39
aS'advmod=meanwhile'
p40
aS'advmod=only'
p41
aS'advmod=repeatedly'
p42
aS'advmod=then'
p43
aS'advmod=therefore'
p44
aS'advmod=twice'
p45
aS'advmod=when'
p46
aS'aux=be'
p47
aS'aux=could'
p48
aS'aux=have'
p49
aS'aux=may'
p50
aS'aux=might'
p51
aS'aux=should'
p52
aS'aux=to'
p53
aS'aux=will'
p54
aS'aux=would'
p55
aS'auxpass=be'
p56
aS'cc=and'
p57
aS'cc=but'
p58
aS'cc=or'
p59
aS'ccomp=be'
p60
aS'ccomp=defuse'
p61
aS'ccomp=foresee'
p62
aS'ccomp=like'
p63
aS'ccomp=re-elect'
p64
aS'complm=that'
p65
aS'complm=whether'
p66
aS'conj=aim'
p67
aS'conj=determine'
p68
aS'conj=disrespect'
p69
aS'conj=hope'
p70
aS'conj=impose'
p71
aS'conj=injure'
p72
aS'conj=want'
p73
aS'csubjpass=crucial'
p74
aS'dep=move'
p75
aS'dobj=#PRP#'
p76
aS'dobj=Champions'
p77
aS'dobj=action'
p78
aS'dobj=address'
p79
aS'dobj=attempt'
p80
aS'dobj=ballot'
p81
aS'dobj=case'
p82
aS'dobj=conference'
p83
aS'dobj=consideration'
p84
aS'dobj=constitution'
p85
aS'dobj=creation'
p86
aS'dobj=date'
p87
aS'dobj=dialogue'
p88
aS'dobj=disaster'
p89
aS'dobj=election'
p90
aS'dobj=exam'
p91
aS'dobj=hearing'
p92
aS'dobj=inspection'
p93
aS'dobj=installment'
p94
aS'dobj=issue'
p95
aS'dobj=kind'
p96
aS'dobj=lift-off'
p97
aS'dobj=meeting'
p98
aS'dobj=negotiation'
p99
aS'dobj=plan'
p100
aS'dobj=poll'
p101
aS'dobj=proceedings'
p102
aS'dobj=process'
p103
aS'dobj=referendum'
p104
aS'dobj=repair'
p105
aS'dobj=return'
p106
aS'dobj=session'
p107
aS'dobj=summit'
p108
aS'dobj=talk'
p109
aS'dobj=target'
p110
aS'dobj=time'
p111
aS'dobj=today'
p112
aS'dobj=trial'
p113
aS'dobj=trip'
p114
aS'dobj=verification'
p115
aS'dobj=visit'
p116
aS'dobj=vote'
p117
aS'dobj=voting'
p118
aS'mark=after'
p119
aS'mark=as'
p120
aS'mark=if'
p121
aS'neg=not'
p122
aS'nsubj=#PRP#'
p123
aS'nsubj=Association'
p124
aS'nsubj=Council'
p125
aS'nsubj=DreamWorks'
p126
aS'nsubj=Euromoney'
p127
aS'nsubj=Hamas'
p128
aS'nsubj=Maoists'
p129
aS'nsubj=McConnell'
p130
aS'nsubj=Musharraf'
p131
aS'nsubj=Putin'
p132
aS'nsubj=Tsvangirai'
p133
aS'nsubj=Union'
p134
aS'nsubj=ballot'
p135
aS'nsubj=bill'
p136
aS'nsubj=country'
p137
aS'nsubj=court'
p138
aS'nsubj=decision'
p139
aS'nsubj=election'
p140
aS'nsubj=front'
p141
aS'nsubj=government'
p142
aS'nsubj=judge'
p143
aS'nsubj=lawmaker'
p144
aS'nsubj=measure'
p145
aS'nsubj=mediator'
p146
aS'nsubj=ministry'
p147
aS'nsubj=parliament'
p148
aS'nsubj=people'
p149
aS'nsubj=rebel'
p150
aS'nsubj=violence'
p151
aS'nsubj=vote'
p152
aS'nsubj=who'
p153
aS'nsubjpass=#PRP#'
p154
aS'nsubjpass=Congress'
p155
aS'nsubjpass=conference'
p156
aS'nsubjpass=date'
p157
aS'nsubjpass=decision'
p158
aS'nsubjpass=election'
p159
aS'nsubjpass=festivity'
p160
aS'nsubjpass=growth'
p161
aS'nsubjpass=legislative'
p162
aS'nsubjpass=opening'
p163
aS'nsubjpass=plan'
p164
aS'nsubjpass=poll'
p165
aS'nsubjpass=polling'
p166
aS'nsubjpass=proposal'
p167
aS'nsubjpass=question'
p168
aS'nsubjpass=session'
p169
aS'nsubjpass=suit'
p170
aS'nsubjpass=summit'
p171
aS'nsubjpass=talk'
p172
aS'nsubjpass=trip'
p173
aS'nsubjpass=visit'
p174
aS'nsubjpass=vote'
p175
aS'nsubjpass=which'
p176
aS'prep=amid'
p177
aS'prep=as'
p178
aS'prep=base'
p179
aS'prep=because'
p180
aS'prep=before'
p181
aS'prep=by'
p182
aS'prep=despite'
p183
aS'prep=during'
p184
aS'prep=follow'
p185
aS'prep=for'
p186
aS'prep=from'
p187
aS'prep=in'
p188
aS'prep=of'
p189
aS'prep=on'
p190
aS'prep=since'
p191
aS'prep=through'
p192
aS'prep=to'
p193
aS'prep=until'
p194
aS'prep=with'
p195
aS'purpcl=attend'
p196
aS'purpcl=give'
p197
aS'tmod=election'
p198
aS'tmod=hearing'
p199
aS'tmod=march'
p200
aS'tmod=month'
p201
aS'tmod=time'
p202
aS'tmod=week'
p203
aS'w+1=,'
p204
aS'w+1=.'
p205
aS'w+1=19'
p206
aS'w+1=?'
p207
aS'w+1=Endeavour'
p208
aS'w+1=Friday'
p209
aS'w+1=Mr.'
p210
aS'w+1=Saturday'
p211
aS'w+1=September'
p212
aS'w+1=Tuesday'
p213
aS'w+1=a'
p214
aS'w+1=action'
p215
aS'w+1=after'
p216
aS'w+1=again'
p217
aS'w+1=amid'
p218
aS'w+1=and'
p219
aS'w+1=as'
p220
aS'w+1=at'
p221
aS'w+1=base'
p222
aS'w+1=because'
p223
aS'w+1=but'
p224
aS'w+1=by'
p225
aS'w+1=consideration'
p226
aS'w+1=deploy'
p227
aS'w+1=disaster'
p228
aS'w+1=due'
p229
aS'w+1=eight'
p230
aS'w+1=election'
p231
aS'w+1=expansion'
p232
aS'w+1=follow'
p233
aS'w+1=for'
p234
aS'w+1=four'
p235
aS'w+1=he'
p236
aS'w+1=in'
p237
aS'w+1=indefinitely'
p238
aS'w+1=inevitable'
p239
aS'w+1=installment'
p240
aS'w+1=issue'
p241
aS'w+1=it'
p242
aS'w+1=its'
p243
aS'w+1=just'
p244
aS'w+1=legislative'
p245
aS'w+1=mid-term'
p246
aS'w+1=national'
p247
aS'w+1=negotiation'
p248
aS'w+1=next'
p249
aS'w+1=nine'
p250
aS'w+1=nuclear'
p251
aS'w+1=numerous'
p252
aS'w+1=parliament'
p253
aS'w+1=presidential'
p254
aS'w+1=purchase'
p255
aS'w+1=reform'
p256
aS'w+1=repeatedly'
p257
aS'w+1=scheduled'
p258
aS'w+1=several'
p259
aS'w+1=the'
p260
aS'w+1=they'
p261
aS'w+1=thorny'
p262
aS'w+1=three'
p263
aS'w+1=through'
p264
aS'w+1=to'
p265
aS'w+1=twice'
p266
aS'w+1=two'
p267
aS'w+1=until'
p268
aS'w+1=what'
p269
aS"w+2=''"
p270
aS"w+2='s"
p271
aS'w+2=,'
p272
aS'w+2=.'
p273
aS'w+2=February'
p274
aS'w+2=Friday'
p275
aS'w+2=January'
p276
aS'w+2=July'
p277
aS'w+2=June'
p278
aS'w+2=May'
p279
aS'w+2=October'
p280
aS'w+2=Triet'
p281
aS'w+2=U.N.'
p282
aS'w+2=Wednesday'
p283
aS'w+2=a'
p284
aS'w+2=accommodate'
p285
aS'w+2=after'
p286
aS'w+2=allow'
p287
aS'w+2=annual'
p288
aS'w+2=at'
p289
aS'w+2=ballot'
p290
aS'w+2=be'
p291
aS'w+2=because'
p292
aS'w+2=biofuel'
p293
aS'w+2=but'
p294
aS'w+2=by'
p295
aS'w+2=conference'
p296
aS'w+2=constitutional'
p297
aS'w+2=creation'
p298
aS'w+2=day'
p299
aS'w+2=disrespect'
p300
aS'w+2=election'
p301
aS'w+2=electoral'
p302
aS'w+2=exam'
p303
aS'w+2=for'
p304
aS'w+2=further'
p305
aS'w+2=he'
p306
aS'w+2=hearing'
p307
aS'w+2=key'
p308
aS'w+2=late'
p309
aS'w+2=later'
p310
aS'w+2=least'
p311
aS'w+2=local'
p312
aS'w+2=march'
p313
aS'w+2=massive'
p314
aS'w+2=mediation'
p315
aS'w+2=meeting'
p316
aS'w+2=negotiation'
p317
aS'w+2=new'
p318
aS'w+2=next'
p319
aS'w+2=ninth'
p320
aS'w+2=of'
p321
aS'w+2=on'
p322
aS'w+2=plan'
p323
aS'w+2=poll'
p324
aS'w+2=proceedings'
p325
aS'w+2=process'
p326
aS'w+2=quarantine'
p327
aS'w+2=release'
p328
aS'w+2=repair'
p329
aS'w+2=return'
p330
aS'w+2=second-round'
p331
aS'w+2=several'
p332
aS'w+2=should'
p333
aS'w+2=so'
p334
aS'w+2=sometimes'
p335
aS'w+2=street'
p336
aS'w+2=suggest'
p337
aS'w+2=summit'
p338
aS'w+2=talk'
p339
aS'w+2=tax'
p340
aS'w+2=that'
p341
aS'w+2=the'
p342
aS'w+2=they'
p343
aS'w+2=three'
p344
aS'w+2=through'
p345
aS'w+2=time'
p346
aS'w+2=to'
p347
aS'w+2=trial'
p348
aS'w+2=trip'
p349
aS'w+2=until'
p350
aS'w+2=verification'
p351
aS'w+2=vote'
p352
aS'w+2=voting'
p353
aS'w+2=we'
p354
aS'w+2=week'
p355
aS'w+2=will'
p356
aS'w+2=yet'
p357
aS'w-1=,'
p358
aS'w-1=-rrb-'
p359
aS'w-1=Putin'
p360
aS'w-1=Tsvangirai'
p361
aS'w-1=about'
p362
aS'w-1=already'
p363
aS'w-1=also'
p364
aS'w-1=and'
p365
aS'w-1=ballot'
p366
aS'w-1=be'
p367
aS'w-1=but'
p368
aS'w-1=consider'
p369
aS'w-1=could'
p370
aS'w-1=court'
p371
aS'w-1=effectively'
p372
aS'w-1=election'
p373
aS'w-1=first'
p374
aS'w-1=for'
p375
aS'w-1=government'
p376
aS'w-1=have'
p377
aS'w-1=indefinitely'
p378
aS'w-1=it'
p379
aS'w-1=keep'
p380
aS'w-1=lawmaker'
p381
aS'w-1=likely'
p382
aS'w-1=long'
p383
aS'w-1=mediator'
p384
aS'w-1=might'
p385
aS'w-1=not'
p386
aS'w-1=only'
p387
aS'w-1=or'
p388
aS'w-1=repeatedly'
p389
aS'w-1=stop'
p390
aS'w-1=supporter'
p391
aS'w-1=the'
p392
aS'w-1=then'
p393
aS'w-1=therefore'
p394
aS'w-1=they'
p395
aS'w-1=to'
p396
aS'w-1=twice'
p397
aS'w-1=vote'
p398
aS'w-1=who'
p399
aS'w-1=will'
p400
aS'w-1=would'
p401
aS'w-2=,'
p402
aS'w-2=.'
p403
aS'w-2=Berri'
p404
aS'w-2=Conde'
p405
aS'w-2=Florida'
p406
aS'w-2=House'
p407
aS'w-2=Kenya'
p408
aS'w-2=Maoists'
p409
aS'w-2=Mr.'
p410
aS'w-2=Musharraf'
p411
aS'w-2=Nations'
p412
aS'w-2=Putin'
p413
aS'w-2=Thai'
p414
aS'w-2=Union'
p415
aS'w-2=Vladimir'
p416
aS'w-2=agree'
p417
aS'w-2=already'
p418
aS'w-2=be'
p419
aS'w-2=bill'
p420
aS'w-2=boycott'
p421
aS'w-2=but'
p422
aS'w-2=call'
p423
aS'w-2=campaign'
p424
aS'w-2=chairman'
p425
aS'w-2=commission'
p426
aS'w-2=continue'
p427
aS'w-2=country'
p428
aS'w-2=court'
p429
aS'w-2=date'
p430
aS'w-2=decision'
p431
aS'w-2=either'
p432
aS'w-2=election'
p433
aS'w-2=festivity'
p434
aS'w-2=film'
p435
aS'w-2=force'
p436
aS'w-2=go'
p437
aS'w-2=government'
p438
aS'w-2=have'
p439
aS'w-2=he'
p440
aS'w-2=icc'
p441
aS'w-2=introduce'
p442
aS'w-2=it'
p443
aS'w-2=judge'
p444
aS'w-2=leader'
p445
aS'w-2=legislature'
p446
aS'w-2=lift-off'
p447
aS'w-2=may'
p448
aS'w-2=measure'
p449
aS'w-2=ministry'
p450
aS'w-2=move'
p451
aS'w-2=not'
p452
aS'w-2=opening'
p453
aS'w-2=opposition'
p454
aS'w-2=party'
p455
aS'w-2=people'
p456
aS'w-2=plan'
p457
aS'w-2=poll'
p458
aS'w-2=polling'
p459
aS'w-2=president'
p460
aS'w-2=prevent'
p461
aS'w-2=proposal'
p462
aS'w-2=question'
p463
aS'w-2=reason'
p464
aS'w-2=rebel'
p465
aS'w-2=say'
p466
aS'w-2=should'
p467
aS'w-2=summit'
p468
aS'w-2=talk'
p469
aS'w-2=the'
p470
aS'w-2=they'
p471
aS'w-2=threaten'
p472
aS'w-2=to'
p473
aS'w-2=trip'
p474
aS'w-2=try'
p475
aS'w-2=twice'
p476
aS'w-2=visit'
p477
aS'w-2=want'
p478
aS'w-2=we'
p479
aS'w-2=whether'
p480
aS'w-2=will'
p481
aS'w-2=would'
p482
aS'xcomp=#PRP#'
p483
aS'xcomp=accommodate'
p484
aS'xcomp=allow'
p485
aS'xcomp=assassinate'
p486
aS'xcomp=attend'
p487
aS'xcomp=block'
p488
aS'xcomp=follow'
p489
aS'xcomp=hold'
p490
aS'xcomp=issue'
p491
aS'xcomp=protect'
p492
aS'xcomp=say'
p493
asS'dtype'
p494
cnumpy
float64
p495
sS'vocabulary_'
p496
(dp497
g43
I34
sg181
I172
sg118
I109
sg334
I325
sg97
I88
sg420
I411
sg479
I470
sg456
I447
sg369
I360
sg298
I289
sg151
I142
sg319
I310
sg222
I213
sg434
I425
sg433
I424
sg162
I153
sg78
I69
sg336
I327
sg268
I259
sg164
I155
sg471
I462
sg182
I173
sg150
I141
sg358
I349
sg428
I419
sg142
I133
sg401
I392
sg252
I243
sg193
I184
sg185
I176
sg360
I351
sg98
I89
sg332
I323
sg237
I228
sg400
I391
sg105
I96
sg152
I143
sg86
I77
sg25
I16
sg93
I84
sg424
I415
sg445
I436
sg367
I358
sg71
I62
sg470
I461
sg114
I105
sg384
I375
sg474
I465
sg102
I93
sg109
I100
sg244
I235
sg15
I6
sg51
I42
sg277
I268
sg347
I338
sg101
I92
sg73
I64
sg450
I441
sg463
I454
sg427
I418
sg377
I368
sg14
I5
sg381
I372
sg165
I156
sg13
I4
sg462
I453
sg256
I247
sg370
I361
sg364
I355
sg435
I426
sg251
I242
sg201
I192
sg33
I24
sg491
I482
sg352
I343
sg356
I347
sg376
I367
sg294
I285
sg387
I378
sg295
I286
sg247
I238
sg307
I298
sg489
I480
sg483
I474
sg41
I32
sg291
I282
sg261
I252
sg363
I354
sg154
I145
sg188
I179
sg55
I46
sg464
I455
sg234
I225
sg362
I353
sg84
I75
sg245
I236
sg305
I296
sg177
I168
sg285
I276
sg458
I449
sg34
I25
sg18
I9
sg219
I210
sg63
I54
sg144
I135
sg199
I190
sg167
I158
sg304
I295
sg226
I217
sg26
I17
sg241
I232
sg438
I429
sg100
I91
sg354
I345
sg90
I81
sg392
I383
sg38
I29
sg69
I60
sg121
I112
sg333
I324
sg351
I342
sg299
I290
sg417
I408
sg429
I420
sg70
I61
sg408
I399
sg416
I407
sg345
I336
sg300
I291
sg389
I380
sg485
I476
sg174
I165
sg153
I144
sg40
I31
sg95
I86
sg175
I166
sg335
I326
sg396
I387
sg94
I85
sg391
I382
sg328
I319
sg472
I463
sg76
I67
sg297
I288
sg99
I90
sg134
I125
sg131
I122
sg287
I278
sg337
I328
sg379
I370
sg211
I202
sg36
I27
sg9
I0
sg446
I437
sg220
I211
sg221
I212
sg236
I227
sg156
I147
sg411
I402
sg240
I231
sg414
I405
sg161
I152
sg309
I300
sg140
I131
sg217
I208
sg92
I83
sg444
I435
sg264
I255
sg425
I416
sg292
I283
sg344
I335
sg398
I389
sg267
I258
sg340
I331
sg46
I37
sg27
I18
sg42
I33
sg228
I219
sg477
I468
sg186
I177
sg459
I450
sg493
I484
sg279
I270
sg366
I357
sg209
I200
sg339
I330
sg289
I280
sg183
I174
sg410
I401
sg208
I199
sg330
I321
sg383
I374
sg331
I322
sg56
I47
sg141
I132
sg136
I127
sg39
I30
sg286
I277
sg130
I121
sg404
I395
sg132
I123
sg249
I240
sg148
I139
sg421
I412
sg158
I149
sg323
I314
sg83
I74
sg476
I467
sg290
I281
sg243
I234
sg254
I245
sg190
I181
sg488
I479
sg212
I203
sg113
I104
sg235
I226
sg288
I279
sg357
I348
sg322
I313
sg265
I256
sg430
I421
sg106
I97
sg365
I356
sg302
I293
sg266
I257
sg68
I59
sg64
I55
sg85
I76
sg311
I302
sg406
I397
sg168
I159
sg82
I73
sg50
I41
sg79
I70
sg281
I272
sg486
I477
sg147
I138
sg372
I363
sg437
I428
sg223
I214
sg413
I404
sg248
I239
sg253
I244
sg87
I78
sg482
I473
sg484
I475
sg442
I433
sg128
I119
sg126
I117
sg159
I150
sg259
I250
sg44
I35
sg29
I20
sg194
I185
sg138
I129
sg487
I478
sg127
I118
sg282
I273
sg278
I269
sg308
I299
sg492
I483
sg312
I303
sg54
I45
sg31
I22
sg318
I309
sg108
I99
sg139
I130
sg125
I116
sg77
I68
sg149
I140
sg195
I186
sg59
I50
sg250
I241
sg115
I106
sg315
I306
sg457
I448
sg361
I352
sg239
I230
sg350
I341
sg325
I316
sg460
I451
sg443
I434
sg432
I423
sg180
I171
sg397
I388
sg129
I120
sg24
I15
sg418
I409
sg355
I346
sg172
I163
sg276
I267
sg270
I261
sg137
I128
sg124
I115
sg216
I207
sg32
I23
sg405
I396
sg233
I224
sg107
I98
sg81
I72
sg135
I126
sg423
I414
sg324
I315
sg439
I430
sg57
I48
sg274
I265
sg225
I216
sg133
I124
sg468
I459
sg255
I246
sg368
I359
sg271
I262
sg74
I65
sg72
I63
sg28
I19
sg327
I318
sg441
I432
sg62
I53
sg242
I233
sg123
I114
sg89
I80
sg378
I369
sg169
I160
sg58
I49
sg21
I12
sg455
I446
sg166
I157
sg35
I26
sg48
I39
sg349
I340
sg203
I194
sg371
I362
sg317
I308
sg490
I481
sg88
I79
sg30
I21
sg200
I191
sg303
I294
sg346
I337
sg385
I376
sg196
I187
sg419
I410
sg189
I180
sg263
I254
sg260
I251
sg119
I110
sg37
I28
sg213
I204
sg257
I248
sg353
I344
sg301
I292
sg321
I312
sg75
I66
sg91
I82
sg232
I223
sg310
I301
sg469
I460
sg341
I332
sg16
I7
sg296
I287
sg173
I164
sg179
I170
sg399
I390
sg478
I469
sg388
I379
sg390
I381
sg374
I365
sg61
I52
sg412
I403
sg473
I464
sg103
I94
sg206
I197
sg262
I253
sg23
I14
sg320
I311
sg475
I466
sg80
I71
sg110
I101
sg202
I193
sg440
I431
sg191
I182
sg326
I317
sg466
I457
sg380
I371
sg342
I333
sg481
I472
sg178
I169
sg402
I393
sg403
I394
sg409
I400
sg306
I297
sg146
I137
sg269
I260
sg49
I40
sg422
I413
sg171
I162
sg96
I87
sg452
I443
sg238
I229
sg116
I107
sg426
I417
sg431
I422
sg313
I304
sg192
I183
sg283
I274
sg448
I439
sg229
I220
sg65
I56
sg52
I43
sg22
I13
sg246
I237
sg275
I266
sg393
I384
sg111
I102
sg395
I386
sg316
I307
sg329
I320
sg104
I95
sg112
I103
sg176
I167
sg157
I148
sg120
I111
sg407
I398
sg17
I8
sg359
I350
sg145
I136
sg480
I471
sg453
I444
sg170
I161
sg447
I438
sg66
I57
sg343
I334
sg348
I339
sg163
I154
sg117
I108
sg60
I51
sg454
I445
sg451
I442
sg10
I1
sg293
I284
sg20
I11
sg218
I209
sg198
I189
sg314
I305
sg461
I452
sg230
I221
sg338
I329
sg187
I178
sg155
I146
sg258
I249
sg394
I385
sg382
I373
sg53
I44
sg467
I458
sg465
I456
sg449
I440
sg280
I271
sg373
I364
sg197
I188
sg45
I36
sg375
I366
sg204
I195
sg205
I196
sg273
I264
sg231
I222
sg272
I263
sg160
I151
sg11
I2
sg122
I113
sg207
I198
sg184
I175
sg12
I3
sg215
I206
sg415
I406
sg210
I201
sg143
I134
sg67
I58
sg214
I205
sg386
I377
sg224
I215
sg227
I218
sg19
I10
sg436
I427
sg47
I38
sg284
I275
ssS'separator'
p498
S'='
sS'sparse'
p499
I01
sb.