ccopy_reg
_reconstructor
p1
(csklearn.feature_extraction.dict_vectorizer
DictVectorizer
p2
c__builtin__
object
p3
NtRp4
(dp5
S'sort'
p6
I01
sS'feature_names_'
p7
(lp8
S'acomp=go'
p9
aS'acomp=happier'
p10
aS'advcl=able'
p11
aS'advcl=answer'
p12
aS'advcl=believe'
p13
aS'advcl=contribute'
p14
aS'advcl=copy'
p15
aS'advcl=decide'
p16
aS'advcl=feel'
p17
aS'advcl=general'
p18
aS'advcl=good'
p19
aS'advcl=have'
p20
aS'advcl=hear'
p21
aS'advcl=introduce'
p22
aS'advcl=know'
p23
aS'advcl=learn'
p24
aS'advcl=move'
p25
aS'advcl=preserve'
p26
aS'advcl=return'
p27
aS'advcl=time'
p28
aS'advcl=wish'
p29
aS'advmod=also'
p30
aS'advmod=equally'
p31
aS'advmod=extremely'
p32
aS'advmod=first'
p33
aS'advmod=generally'
p34
aS'advmod=in'
p35
aS'advmod=indeed'
p36
aS'advmod=just'
p37
aS'advmod=longer'
p38
aS'advmod=much'
p39
aS'advmod=now'
p40
aS'advmod=particularly'
p41
aS'advmod=pretty'
p42
aS'advmod=quite'
p43
aS'advmod=really'
p44
aS'advmod=reasonably'
p45
aS'advmod=so'
p46
aS'advmod=still'
p47
aS'advmod=than'
p48
aS'advmod=too'
p49
aS'advmod=unashamedly'
p50
aS'advmod=very'
p51
aS"aux='ll"
p52
aS'aux=do'
p53
aS'aux=have'
p54
aS'aux=may'
p55
aS'aux=to'
p56
aS'aux=will'
p57
aS'aux=would'
p58
aS'cc=also'
p59
aS'cc=and'
p60
aS'cc=but'
p61
aS'cc=or'
p62
aS'ccomp=able'
p63
aS'ccomp=adhere'
p64
aS'ccomp=be'
p65
aS'ccomp=believe'
p66
aS'ccomp=bring'
p67
aS'ccomp=change'
p68
aS'ccomp=come'
p69
aS'ccomp=do'
p70
aS'ccomp=enjoy'
p71
aS'ccomp=have'
p72
aS'ccomp=head'
p73
aS'ccomp=hold'
p74
aS'ccomp=identify'
p75
aS'ccomp=influence'
p76
aS'ccomp=kill'
p77
aS'ccomp=move'
p78
aS'ccomp=pay'
p79
aS'ccomp=ravage'
p80
aS'ccomp=release'
p81
aS'ccomp=remark'
p82
aS'ccomp=restore'
p83
aS'ccomp=say'
p84
aS'ccomp=successful'
p85
aS'ccomp=tell'
p86
aS'ccomp=tend'
p87
aS'ccomp=tick'
p88
aS'ccomp=time'
p89
aS'ccomp=trio'
p90
aS'ccomp=try'
p91
aS'ccomp=visit'
p92
aS'ccomp=want'
p93
aS'ccomp=win'
p94
aS'ccomp=work'
p95
aS'complm=that'
p96
aS'conj=#NUMBER#'
p97
aS'conj=be'
p98
aS'conj=continue'
p99
aS'conj=cry'
p100
aS'conj=expect'
p101
aS'conj=for'
p102
aS'conj=have'
p103
aS'conj=healthy'
p104
aS'conj=hope'
p105
aS'conj=hopeful'
p106
aS'conj=keep'
p107
aS'conj=leave'
p108
aS'conj=like'
p109
aS'conj=mean'
p110
aS'conj=proud'
p111
aS'conj=say'
p112
aS'conj=song'
p113
aS'conj=supportive'
p114
aS'conj=think'
p115
aS'conj=tired'
p116
aS'conj=unhappy'
p117
aS'cop=be'
p118
aS'cop=seem'
p119
aS'dep=a'
p120
aS'dep=be'
p121
aS'dep=environment'
p122
aS'dep=in'
p123
aS'dep=prove'
p124
aS'dep=satisfied'
p125
aS'dep=say'
p126
aS'dep=so'
p127
aS'dep=that'
p128
aS'dep=time'
p129
aS'det=a'
p130
aS'det=the'
p131
aS'dobj=what'
p132
aS'mark=because'
p133
aS'mark=if'
p134
aS'mark=so'
p135
aS'mark=while'
p136
aS'neg=not'
p137
aS'npadvmod=all'
p138
aS'npadvmod=movie'
p139
aS'nsubj=#NUMBER#'
p140
aS'nsubj=#PRP#'
p141
aS'nsubj=Affoue'
p142
aS'nsubj=Basescu'
p143
aS'nsubj=City'
p144
aS'nsubj=Democrats'
p145
aS'nsubj=Fatimah'
p146
aS'nsubj=Hispanics'
p147
aS'nsubj=Italy'
p148
aS'nsubj=Kenyans'
p149
aS'nsubj=Kislers'
p150
aS'nsubj=Mancini'
p151
aS'nsubj=Obama'
p152
aS'nsubj=Pakistanis'
p153
aS'nsubj=Senegal'
p154
aS'nsubj=States'
p155
aS'nsubj=Tisdel'
p156
aS'nsubj=Tutankhamun'
p157
aS'nsubj=activist'
p158
aS'nsubj=american'
p159
aS'nsubj=animal'
p160
aS'nsubj=child'
p161
aS'nsubj=client'
p162
aS'nsubj=company'
p163
aS'nsubj=everybody'
p164
aS'nsubj=everyone'
p165
aS'nsubj=family'
p166
aS'nsubj=farmer'
p167
aS'nsubj=folk'
p168
aS'nsubj=government'
p169
aS'nsubj=governor'
p170
aS'nsubj=leader'
p171
aS'nsubj=majority'
p172
aS'nsubj=man'
p173
aS'nsubj=most'
p174
aS'nsubj=official'
p175
aS'nsubj=party'
p176
aS'nsubj=people'
p177
aS'nsubj=percent'
p178
aS'nsubj=producer'
p179
aS'nsubj=public'
p180
aS'nsubj=some'
p181
aS'nsubj=sound'
p182
aS'nsubj=tutor'
p183
aS'nsubj=who'
p184
aS'nsubj=wife'
p185
aS'num=#NUMBER#'
p186
aS'parataxis=indicate'
p187
aS'parataxis=move'
p188
aS'prep=about'
p189
aS'prep=after'
p190
aS'prep=at'
p191
aS'prep=because'
p192
aS'prep=for'
p193
aS'prep=in'
p194
aS'prep=of'
p195
aS'prep=over'
p196
aS'prep=with'
p197
aS'tmod=#DATE#'
p198
aS'tmod=month'
p199
aS'tmod=today'
p200
aS"w+1=''"
p201
aS'w+1=,'
p202
aS'w+1=-'
p203
aS'w+1=.'
p204
aS'w+1=Easter'
p205
aS'w+1=Feet'
p206
aS'w+1=Mr.'
p207
aS'w+1=Prime'
p208
aS'w+1=Ramadan'
p209
aS'w+1=Thanksgiving'
p210
aS'w+1=Valley'
p211
aS'w+1=`'
p212
aS'w+1=about'
p213
aS'w+1=all'
p214
aS'w+1=and'
p215
aS'w+1=as'
p216
aS'w+1=at'
p217
aS'w+1=be'
p218
aS'w+1=because'
p219
aS'w+1=birthday'
p220
aS'w+1=but'
p221
aS'w+1=child'
p222
aS'w+1=childhood'
p223
aS'w+1=circumstance'
p224
aS'w+1=day'
p225
aS'w+1=end'
p226
aS'w+1=ending'
p227
aS'w+1=face'
p228
aS'w+1=family'
p229
aS'w+1=for'
p230
aS'w+1=he'
p231
aS'w+1=house'
p232
aS'w+1=if'
p233
aS'w+1=in'
p234
aS'w+1=indeed'
p235
aS'w+1=just'
p236
aS'w+1=life'
p237
aS'w+1=living'
p238
aS'w+1=marriage'
p239
aS'w+1=medium'
p240
aS'w+1=memory'
p241
aS'w+1=moment'
p242
aS'w+1=new'
p243
aS'w+1=news'
p244
aS'w+1=now'
p245
aS'w+1=reunion'
p246
aS'w+1=so'
p247
aS'w+1=song'
p248
aS'w+1=talk'
p249
aS'w+1=that'
p250
aS'w+1=the'
p251
aS'w+1=they'
p252
aS'w+1=time'
p253
aS'w+1=to'
p254
aS'w+1=today'
p255
aS'w+1=we'
p256
aS'w+1=when'
p257
aS'w+1=with'
p258
aS"w+2='"
p259
aS"w+2=''"
p260
aS'w+2=,'
p261
aS'w+2=-lrb-'
p262
aS'w+2=.'
p263
aS'w+2=Abu'
p264
aS'w+2=Barrack'
p265
aS'w+2=Brooklyn'
p266
aS'w+2=I'
p267
aS'w+2=Lucy'
p268
aS'w+2=Micky'
p269
aS'w+2=Minister'
p270
aS'w+2=Senator'
p271
aS'w+2=Taylor'
p272
aS'w+2=U.S.'
p273
aS'w+2=a'
p274
aS'w+2=all'
p275
aS'w+2=at'
p276
aS'w+2=attend'
p277
aS'w+2=be'
p278
aS'w+2=because'
p279
aS'w+2=between'
p280
aS'w+2=but'
p281
aS'w+2=buy'
p282
aS'w+2=collaborate'
p283
aS'w+2=commission'
p284
aS'w+2=could'
p285
aS'w+2=cut'
p286
aS'w+2=do'
p287
aS'w+2=document'
p288
aS'w+2=due'
p289
aS'w+2=enjoy'
p290
aS'w+2=every'
p291
aS'w+2=fill'
p292
aS'w+2=first'
p293
aS'w+2=focus'
p294
aS'w+2=for'
p295
aS'w+2=franchise'
p296
aS'w+2=get'
p297
aS'w+2=go'
p298
aS'w+2=greeting'
p299
aS'w+2=have'
p300
aS'w+2=he'
p301
aS'w+2=healthy'
p302
aS'w+2=hear'
p303
aS'w+2=home'
p304
aS'w+2=hopeful'
p305
aS'w+2=how'
p306
aS'w+2=important'
p307
aS'w+2=in'
p308
aS'w+2=inform'
p309
aS'w+2=it'
p310
aS'w+2=its'
p311
aS'w+2=just'
p312
aS'w+2=know'
p313
aS'w+2=let'
p314
aS'w+2=live'
p315
aS'w+2=make'
p316
aS'w+2=meet'
p317
aS'w+2=much'
p318
aS'w+2=my'
p319
aS'w+2=myself'
p320
aS'w+2=national'
p321
aS'w+2=negotiate'
p322
aS'w+2=normal'
p323
aS'w+2=not'
p324
aS'w+2=now'
p325
aS'w+2=of'
p326
aS'w+2=offer'
p327
aS'w+2=or'
p328
aS'w+2=over'
p329
aS'w+2=people'
p330
aS'w+2=poor'
p331
aS'w+2=productive'
p332
aS'w+2=program'
p333
aS'w+2=promote'
p334
aS'w+2=religion'
p335
aS'w+2=rule'
p336
aS'w+2=satisfied'
p337
aS'w+2=say'
p338
aS'w+2=see'
p339
aS'w+2=sell'
p340
aS'w+2=share'
p341
aS'w+2=she'
p342
aS'w+2=singing'
p343
aS'w+2=some'
p344
aS'w+2=tell'
p345
aS'w+2=that'
p346
aS'w+2=the'
p347
aS'w+2=they'
p348
aS'w+2=this'
p349
aS'w+2=tired'
p350
aS'w+2=to'
p351
aS'w+2=u.s.-pakistani'
p352
aS'w+2=unhappy'
p353
aS'w+2=uplifting'
p354
aS'w+2=visit'
p355
aS'w+2=way'
p356
aS'w+2=we'
p357
aS'w+2=well'
p358
aS'w+2=what'
p359
aS'w+2=where'
p360
aS'w+2=who'
p361
aS'w+2=with'
p362
aS'w+2=write'
p363
aS'w+2=year'
p364
aS'w+2=you'
p365
aS'w-1=!'
p366
aS"w-1=''"
p367
aS"w-1='s"
p368
aS'w-1=,'
p369
aS'w-1=-rrb-'
p370
aS'w-1=:'
p371
aS'w-1=I'
p372
aS'w-1=`'
p373
aS'w-1=a'
p374
aS'w-1=all'
p375
aS'w-1=also'
p376
aS'w-1=and'
p377
aS'w-1=be'
p378
aS'w-1=but'
p379
aS'w-1=case'
p380
aS'w-1=child'
p381
aS'w-1=environment'
p382
aS'w-1=equally'
p383
aS'w-1=extremely'
p384
aS'w-1=family'
p385
aS'w-1=feel'
p386
aS'w-1=generally'
p387
aS'w-1=issue'
p388
aS'w-1=just'
p389
aS'w-1=longer'
p390
aS'w-1=look'
p391
aS'w-1=movie'
p392
aS'w-1=not'
p393
aS'w-1=particularly'
p394
aS'w-1=party'
p395
aS'w-1=people'
p396
aS'w-1=pretty'
p397
aS'w-1=quite'
p398
aS'w-1=really'
p399
aS'w-1=reasonably'
p400
aS'w-1=seem'
p401
aS'w-1=sing'
p402
aS'w-1=so'
p403
aS'w-1=still'
p404
aS'w-1=than'
p405
aS'w-1=the'
p406
aS'w-1=they'
p407
aS'w-1=this'
p408
aS'w-1=those'
p409
aS'w-1=though'
p410
aS'w-1=too'
p411
aS'w-1=unashamedly'
p412
aS'w-1=very'
p413
aS'w-1=we'
p414
aS"w-2=''"
p415
aS'w-2=,'
p416
aS'w-2=-rrb-'
p417
aS'w-2=.'
p418
aS'w-2=Americans'
p419
aS'w-2=Bridge'
p420
aS'w-2=Christmas'
p421
aS'w-2=Fatimah'
p422
aS'w-2=Hispanics'
p423
aS'w-2=House'
p424
aS'w-2=I'
p425
aS'w-2=Jane'
p426
aS'w-2=Kislers'
p427
aS'w-2=League'
p428
aS'w-2=Mancini'
p429
aS'w-2=Obama'
p430
aS'w-2=Tisdel'
p431
aS'w-2=a'
p432
aS'w-2=also'
p433
aS'w-2=always'
p434
aS'w-2=american'
p435
aS'w-2=among'
p436
aS'w-2=and'
p437
aS'w-2=any'
p438
aS'w-2=as'
p439
aS'w-2=be'
p440
aS'w-2=both'
p441
aS'w-2=company'
p442
aS'w-2=course'
p443
aS'w-2=crowded'
p444
aS'w-2=dub'
p445
aS'w-2=ease'
p446
aS'w-2=everybody'
p447
aS'w-2=everyone'
p448
aS'w-2=farmer'
p449
aS'w-2=feel'
p450
aS'w-2=find'
p451
aS'w-2=get'
p452
aS'w-2=government'
p453
aS'w-2=guy'
p454
aS'w-2=have'
p455
aS'w-2=he'
p456
aS'w-2=healthy'
p457
aS'w-2=homeless'
p458
aS'w-2=in'
p459
aS'w-2=it'
p460
aS'w-2=just'
p461
aS'w-2=landowner'
p462
aS'w-2=leave'
p463
aS'w-2=live'
p464
aS'w-2=make'
p465
aS'w-2=man'
p466
aS'w-2=more'
p467
aS'w-2=most'
p468
aS'w-2=no'
p469
aS'w-2=not'
p470
aS'w-2=of'
p471
aS'w-2=official'
p472
aS'w-2=on'
p473
aS'w-2=one'
p474
aS'w-2=other'
p475
aS'w-2=people'
p476
aS'w-2=pleased'
p477
aS'w-2=pontiff'
p478
aS'w-2=proud'
p479
aS'w-2=resident'
p480
aS'w-2=say'
p481
aS'w-2=secure'
p482
aS'w-2=she'
p483
aS'w-2=still'
p484
aS'w-2=supporter'
p485
aS'w-2=takeover'
p486
aS'w-2=the'
p487
aS'w-2=there'
p488
aS'w-2=they'
p489
aS'w-2=this'
p490
aS'w-2=to'
p491
aS'w-2=we'
p492
aS'w-2=will'
p493
aS'w-2=world'
p494
aS'w-2=would'
p495
aS'w-2=you'
p496
aS'xcomp=attend'
p497
aS'xcomp=battle'
p498
aS'xcomp=be'
p499
aS'xcomp=buy'
p500
aS'xcomp=champion'
p501
aS'xcomp=collaborate'
p502
aS'xcomp=do'
p503
aS'xcomp=focus'
p504
aS'xcomp=franchise'
p505
aS'xcomp=get'
p506
aS'xcomp=go'
p507
aS'xcomp=have'
p508
aS'xcomp=hear'
p509
aS'xcomp=home'
p510
aS'xcomp=host'
p511
aS'xcomp=inform'
p512
aS'xcomp=know'
p513
aS'xcomp=let'
p514
aS'xcomp=live'
p515
aS'xcomp=meet'
p516
aS'xcomp=negotiate'
p517
aS'xcomp=offer'
p518
aS'xcomp=promote'
p519
aS'xcomp=reassure'
p520
aS'xcomp=rescue'
p521
aS'xcomp=see'
p522
aS'xcomp=sell'
p523
aS'xcomp=share'
p524
aS'xcomp=tell'
p525
aS'xcomp=welcome'
p526
aS'xcomp=write'
p527
aS'xcomp=wrong'
p528
asS'dtype'
p529
cnumpy
float64
p530
sS'vocabulary_'
p531
(dp532
g45
I36
sg147
I138
sg54
I45
sg269
I260
sg206
I197
sg492
I483
sg264
I255
sg476
I467
sg27
I18
sg34
I25
sg319
I310
sg88
I79
sg161
I152
sg513
I504
sg281
I272
sg244
I235
sg282
I273
sg411
I402
sg401
I392
sg82
I73
sg461
I452
sg83
I74
sg160
I151
sg489
I480
sg104
I95
sg228
I219
sg232
I223
sg528
I519
sg250
I241
sg185
I176
sg169
I160
sg124
I115
sg516
I507
sg46
I37
sg44
I35
sg358
I349
sg443
I434
sg37
I28
sg77
I68
sg265
I256
sg55
I46
sg378
I369
sg436
I427
sg305
I296
sg229
I220
sg487
I478
sg334
I325
sg317
I308
sg340
I331
sg266
I257
sg299
I290
sg141
I132
sg386
I377
sg236
I227
sg133
I124
sg85
I76
sg351
I342
sg293
I284
sg16
I7
sg341
I332
sg84
I75
sg42
I33
sg262
I253
sg308
I299
sg359
I350
sg310
I301
sg522
I513
sg361
I352
sg249
I240
sg72
I63
sg280
I271
sg376
I367
sg96
I87
sg162
I153
sg399
I390
sg139
I130
sg71
I62
sg107
I98
sg205
I196
sg413
I404
sg245
I236
sg251
I242
sg271
I262
sg503
I494
sg434
I425
sg391
I382
sg278
I269
sg252
I243
sg384
I375
sg49
I40
sg194
I185
sg58
I49
sg116
I107
sg230
I221
sg10
I1
sg248
I239
sg208
I199
sg519
I510
sg226
I217
sg86
I77
sg29
I20
sg392
I383
sg122
I113
sg390
I381
sg404
I395
sg363
I354
sg215
I206
sg101
I92
sg75
I66
sg306
I297
sg222
I213
sg385
I376
sg295
I286
sg327
I318
sg36
I27
sg220
I211
sg24
I15
sg419
I410
sg153
I144
sg357
I348
sg100
I91
sg106
I97
sg485
I476
sg95
I86
sg98
I89
sg417
I408
sg406
I397
sg307
I298
sg80
I71
sg134
I125
sg309
I300
sg225
I216
sg454
I445
sg325
I316
sg324
I315
sg210
I201
sg74
I65
sg14
I5
sg93
I84
sg105
I96
sg321
I312
sg131
I122
sg78
I69
sg514
I505
sg339
I330
sg184
I175
sg31
I22
sg102
I93
sg471
I462
sg473
I464
sg178
I169
sg176
I167
sg167
I158
sg388
I379
sg196
I187
sg216
I207
sg350
I341
sg217
I208
sg146
I137
sg163
I154
sg231
I222
sg144
I135
sg275
I266
sg463
I454
sg148
I139
sg453
I444
sg508
I499
sg472
I463
sg22
I13
sg227
I218
sg200
I191
sg65
I56
sg32
I23
sg237
I228
sg279
I270
sg504
I495
sg183
I174
sg409
I400
sg527
I518
sg515
I506
sg431
I422
sg483
I474
sg117
I108
sg193
I184
sg114
I105
sg128
I119
sg256
I247
sg429
I420
sg276
I267
sg360
I351
sg448
I439
sg315
I306
sg115
I106
sg345
I336
sg398
I389
sg387
I378
sg368
I359
sg285
I276
sg395
I386
sg294
I285
sg38
I29
sg428
I419
sg402
I393
sg380
I371
sg47
I38
sg39
I30
sg12
I3
sg338
I329
sg246
I237
sg140
I131
sg296
I287
sg331
I322
sg342
I333
sg332
I323
sg482
I473
sg143
I134
sg362
I353
sg132
I123
sg367
I358
sg383
I374
sg43
I34
sg396
I387
sg468
I459
sg50
I41
sg364
I355
sg501
I492
sg328
I319
sg113
I104
sg111
I102
sg89
I80
sg442
I433
sg326
I317
sg90
I81
sg254
I245
sg73
I64
sg290
I281
sg377
I368
sg316
I307
sg157
I148
sg410
I401
sg523
I514
sg272
I263
sg168
I159
sg303
I294
sg312
I303
sg68
I59
sg488
I479
sg479
I470
sg33
I24
sg510
I501
sg240
I231
sg20
I11
sg235
I226
sg188
I179
sg224
I215
sg430
I421
sg480
I471
sg149
I140
sg469
I460
sg477
I468
sg268
I259
sg219
I210
sg291
I282
sg283
I274
sg67
I58
sg495
I486
sg318
I309
sg320
I311
sg330
I321
sg352
I343
sg349
I340
sg159
I150
sg41
I32
sg397
I388
sg444
I435
sg518
I509
sg181
I172
sg129
I120
sg97
I88
sg497
I488
sg420
I411
sg136
I127
sg151
I142
sg127
I118
sg53
I44
sg329
I320
sg457
I448
sg433
I424
sg57
I48
sg66
I57
sg79
I70
sg166
I157
sg502
I493
sg155
I146
sg177
I168
sg197
I188
sg62
I53
sg9
I0
sg484
I475
sg311
I302
sg76
I67
sg353
I344
sg336
I327
sg459
I450
sg171
I162
sg25
I16
sg109
I100
sg126
I117
sg447
I438
sg460
I451
sg13
I4
sg287
I278
sg164
I155
sg192
I183
sg91
I82
sg59
I50
sg152
I143
sg400
I391
sg323
I314
sg81
I72
sg142
I133
sg94
I85
sg186
I177
sg87
I78
sg260
I251
sg154
I145
sg408
I399
sg99
I90
sg30
I21
sg26
I17
sg509
I500
sg242
I233
sg455
I446
sg506
I497
sg60
I51
sg145
I136
sg389
I380
sg218
I209
sg313
I304
sg379
I370
sg233
I224
sg112
I103
sg344
I335
sg175
I166
sg234
I225
sg284
I275
sg213
I204
sg298
I289
sg464
I455
sg201
I192
sg108
I99
sg187
I178
sg61
I52
sg297
I288
sg110
I101
sg498
I489
sg292
I283
sg63
I54
sg451
I442
sg458
I449
sg286
I277
sg450
I441
sg356
I347
sg241
I232
sg123
I114
sg255
I246
sg355
I346
sg499
I490
sg211
I202
sg440
I431
sg182
I173
sg195
I186
sg500
I491
sg512
I503
sg209
I200
sg156
I147
sg505
I496
sg173
I164
sg172
I163
sg415
I406
sg517
I508
sg526
I517
sg165
I156
sg520
I511
sg119
I110
sg214
I205
sg521
I512
sg354
I345
sg239
I230
sg346
I337
sg174
I165
sg263
I254
sg452
I443
sg381
I372
sg28
I19
sg261
I252
sg437
I428
sg21
I12
sg382
I373
sg18
I9
sg467
I458
sg491
I482
sg198
I189
sg121
I112
sg170
I161
sg446
I437
sg259
I250
sg474
I465
sg238
I229
sg118
I109
sg438
I429
sg456
I447
sg138
I129
sg403
I394
sg258
I249
sg40
I31
sg150
I141
sg507
I498
sg17
I8
sg191
I182
sg493
I484
sg449
I440
sg418
I409
sg301
I292
sg525
I516
sg371
I362
sg423
I414
sg366
I357
sg369
I360
sg470
I461
sg524
I515
sg425
I416
sg247
I238
sg412
I403
sg439
I430
sg466
I457
sg51
I42
sg120
I111
sg189
I180
sg277
I268
sg475
I466
sg511
I502
sg372
I363
sg365
I356
sg103
I94
sg486
I477
sg270
I261
sg337
I328
sg432
I423
sg426
I417
sg407
I398
sg130
I121
sg125
I116
sg374
I365
sg373
I364
sg253
I244
sg333
I324
sg199
I190
sg19
I10
sg465
I456
sg424
I415
sg435
I426
sg370
I361
sg478
I469
sg23
I14
sg343
I334
sg180
I171
sg394
I385
sg348
I339
sg427
I418
sg289
I280
sg190
I181
sg48
I39
sg422
I413
sg70
I61
sg300
I291
sg494
I485
sg11
I2
sg35
I26
sg92
I83
sg441
I432
sg302
I293
sg179
I170
sg490
I481
sg137
I128
sg273
I264
sg481
I472
sg375
I366
sg257
I248
sg314
I305
sg52
I43
sg64
I55
sg414
I405
sg223
I214
sg56
I47
sg496
I487
sg347
I338
sg243
I234
sg203
I194
sg202
I193
sg204
I195
sg15
I6
sg445
I436
sg304
I295
sg158
I149
sg135
I126
sg416
I407
sg335
I326
sg322
I313
sg207
I198
sg267
I258
sg69
I60
sg462
I453
sg421
I412
sg212
I203
sg393
I384
sg221
I212
sg405
I396
sg288
I279
sg274
I265
ssS'separator'
p533
S'='
sS'sparse'
p534
I01
sb.