ccopy_reg
_reconstructor
p1
(csklearn.feature_extraction.dict_vectorizer
DictVectorizer
p2
c__builtin__
object
p3
NtRp4
(dp5
S'vocabulary_'
p6
(dp7
S'w+2=armed'
p8
I214
sS'w+2=driver'
p9
I224
sS'aux=have'
p10
I14
sS'ccomp=call'
p11
I25
sS'w+2=among'
p12
I212
sS'advmod=generally'
p13
I7
sS'dobj=displacement'
p14
I62
sS'dobj=non-parliamentarian'
p15
I78
sS'w+2=use'
p16
I257
sS'w+2=alcohol'
p17
I211
sS'w-2=Weapons'
p18
I316
sS'w-2=they'
p19
I346
sS'dobj=country'
p20
I56
sS'w+1=member'
p21
I183
sS'w-1=would'
p22
I296
sS'w-2=defense'
p23
I327
sS'w-1=legislation'
p24
I282
sS'dobj=increase'
p25
I71
sS'w+1=give'
p26
I172
sS'w-2=citizen'
p27
I324
sS'advmod=just'
p28
I8
sS'cc=nor'
p29
I23
sS'w-1=will'
p30
I295
sS'w+1=unlicensed'
p31
I196
sS'aux=may'
p32
I15
sS'w-1=be'
p33
I271
sS'w+2=run'
p34
I250
sS'dobj=mutilation'
p35
I77
sS'xcomp=give'
p36
I354
sS'nsubj=leader'
p37
I107
sS'w+1=just'
p38
I178
sS'mark=because'
p39
I93
sS'w+2=country'
p40
I219
sS'w-2=Anwar'
p41
I303
sS'w+2=nuclear'
p42
I240
sS'dobj=aid'
p43
I50
sS'w-1=have'
p44
I278
sS'w+2=cruel'
p45
I221
sS'dobj=lawmaker'
p46
I74
sS'nsubj=change'
p47
I104
sS'w+2=in'
p48
I233
sS'nsubjpass=citizen'
p49
I122
sS'w+1=item'
p50
I176
sS'w+2=attack'
p51
I215
sS'nsubj=Shaw'
p52
I100
sS'nsubj=call'
p53
I103
sS'ccomp=have'
p54
I26
sS'prep=about'
p55
I130
sS'w-1=which'
p56
I293
sS'complm=that'
p57
I29
sS'w+2=San'
p58
I206
sS'conj=signatory'
p59
I36
sS'w+2=munitions'
p60
I239
sS'w+2=export'
p61
I225
sS'w-2=Habib'
p62
I306
sS'dobj=Americans'
p63
I42
sS'w-2=that'
p64
I344
sS'w+1=the'
p65
I190
sS'w+2=take'
p66
I252
sS'w+2=be'
p67
I216
sS'w+1=they'
p68
I191
sS'w+2=president'
p69
I247
sS'nsubjpass=#PRP#'
p70
I117
sS'nsubj=Islam'
p71
I99
sS'prep=in'
p72
I138
sS'aux=would'
p73
I18
sS'w+1=for'
p74
I167
sS'w+1=Aung'
p75
I149
sS'w+1=attack'
p76
I156
sS'w-2=U.N.'
p77
I314
sS'prep=to'
p78
I141
sS'advmod=ago'
p79
I5
sS'w+1=until'
p80
I197
sS'w-2=Field'
p81
I305
sS'w+2=increase'
p82
I234
sS'advmod=strictly'
p83
I10
sS'w+2=for'
p84
I228
sS'w+1=any'
p85
I155
sS'csubjpass=solicit'
p86
I38
sS'nsubj=that'
p87
I113
sS'w-1=it'
p88
I280
sS'dobj=attack'
p89
I52
sS'dep=and'
p90
I39
sS'w+1=soda'
p91
I188
sS'w-1=Shaw'
p92
I266
sS'advcl=develop'
p93
I2
sS'w-2=-rrb-'
p94
I300
sS'w+2=official'
p95
I243
sS'w+2=issue'
p96
I237
sS'dep=whose'
p97
I40
sS'w-2=change'
p98
I323
sS'w+2=Parliament'
p99
I203
sS'w+2=company'
p100
I217
sS'w-2=rule'
p101
I341
sS'w-2=agree'
p102
I319
sS'dobj=launch'
p103
I73
sS'nsubjpass=use'
p104
I127
sS'w-2=use'
p105
I349
sS'nsubj=Convention'
p106
I97
sS'w+2=host'
p107
I231
sS'dobj=activity'
p108
I48
sS'w-2=of'
p109
I337
sS'w-1=to'
p110
I290
sS'dobj=Japan'
p111
I43
sS'nsubjpass=drug'
p112
I123
sS'w-2=World'
p113
I317
sS'nsubjpass=horse'
p114
I124
sS'w+1=dealings'
p115
I161
sS'w-1=deal'
p116
I275
sS'conj=offer'
p117
I33
sS'ccomp=violate'
p118
I28
sS'w+1=drinking'
p119
I164
sS'w-1=Manual'
p120
I265
sS'w+2=like'
p121
I238
sS'dobj=official'
p122
I79
sS'w+2=against'
p123
I209
sS'w+1=from'
p124
I170
sS'nsubjpass=that'
p125
I126
sS'auxpass=become'
p126
I20
sS'w-2=portuguese'
p127
I338
sS'nsubjpass=States'
p128
I120
sS'prep=for'
p129
I136
sS'w+1=we'
p130
I199
sS'w+1=iranian'
p131
I174
sS'w+1=cluster'
p132
I159
sS'dobj=Parliament'
p133
I45
sS'nsubj=amendment'
p134
I102
sS'w-2=its'
p135
I334
sS'w-1=weather'
p136
I292
sS'w+1=polygamy'
p137
I186
sS'w-2=U.S.'
p138
I315
sS'w-1=ago'
p139
I267
sS'w+2=state'
p140
I251
sS'auxpass=be'
p141
I19
sS'w-1=generally'
p142
I277
sS'dobj=term'
p143
I86
sS'dobj=company'
p144
I55
sS'w+1=non-humanitarian'
p145
I184
sS'w+1=use'
p146
I198
sS'nsubj=president'
p147
I110
sS'w-2=drug'
p148
I329
sS'w+1=american'
p149
I154
sS'w-2=1995'
p150
I302
sS'nsubj=treaty'
p151
I115
sS'w+1=its'
p152
I177
sS'nsubj=agreement'
p153
I101
sS'w+1=under'
p154
I195
sS'w+2=with'
p155
I259
sS'w+1=Americans'
p156
I148
sS'dobj=personnel'
p157
I80
sS'w+2=or'
p158
I245
sS'w+2=of'
p159
I241
sS'dobj=weapon'
p160
I92
sS'w+1=extradition'
p161
I165
sS'w+2=on'
p162
I244
sS'w-1=and'
p163
I270
sS'w-1=while'
p164
I294
sS'w-2=INF'
p165
I307
sS'w+2=Putin'
p166
I205
sS'w-1=measure'
p167
I284
sS'w+2=genital'
p168
I230
sS'w-1=Bank'
p169
I261
sS"w-2='s"
p170
I297
sS'w+1=medium'
p171
I182
sS'w+2=from'
p172
I229
sS'w-2=islamic'
p173
I332
sS'conj=return'
p174
I35
sS'dobj=Kyi'
p175
I44
sS'w+1=bail'
p176
I157
sS'w+2=coverage'
p177
I220
sS'w+1=taxi'
p178
I189
sS'w-2=Putin'
p179
I311
sS'w-2=would'
p180
I351
sS'dobj=use'
p181
I91
sS'w+1=trade'
p182
I194
sS'dobj=transfer'
p183
I89
sS'w-2=December'
p184
I304
sS'w-2=Khartoum'
p185
I310
sS'w+1=dangerous'
p186
I160
sS'dobj=alcohol'
p187
I51
sS'w+1=female'
p188
I166
sS'dobj=Putin'
p189
I47
sS'w-2=which'
p190
I350
sS'w+2=Pentagon'
p191
I204
sS'w-2=the'
p192
I345
sS'aux=do'
p193
I13
sS'dobj=item'
p194
I72
sS'advcl=obstruct'
p195
I3
sS'aux=will'
p196
I17
sS'w-2=three'
p197
I347
sS'dobj=summit'
p198
I85
sS'dobj=development'
p199
I60
sS'prep=with'
p200
I143
sS'cc=or'
p201
I24
sS'dobj=relation'
p202
I83
sS'dobj=force'
p203
I67
sS'w+1=developed'
p204
I162
sS'w+2=view'
p205
I258
sS'w-2=it'
p206
I333
sS'dobj=member'
p207
I75
sS'dobj=munitions'
p208
I76
sS'dobj=freedom'
p209
I68
sS'w+2=consecutive'
p210
I218
sS'rel=on'
p211
I144
sS'w+1=romantic'
p212
I187
sS'dobj=polygamy'
p213
I81
sS'w+1=totally'
p214
I193
sS'w-2=prostitution'
p215
I339
sS'advmod=also'
p216
I6
sS'nsubj=tradition'
p217
I114
sS'w-2=institution'
p218
I331
sS'dobj=dealings'
p219
I58
sS'ccomp=report'
p220
I27
sS'dobj=flight'
p221
I66
sS'w-2=Joyce'
p222
I309
sS'w+1=lawmaker'
p223
I180
sS'w-2=States'
p224
I312
sS'w-1=Bourguiba'
p225
I262
sS'w-2=call'
p226
I322
sS'w-2=have'
p227
I330
sS'w-1=directive'
p228
I276
sS'prep=under'
p229
I142
sS'w-1=Convention'
p230
I263
sS'w+1=by'
p231
I158
sS'nsubjpass=politician'
p232
I125
sS'nsubj=law'
p233
I106
sS'w-2=russian'
p234
I342
sS'w-1=law'
p235
I281
sS'w+1=in'
p236
I173
sS'w+1=it'
p237
I175
sS'dobj=that'
p238
I87
sS'w-1=constitution'
p239
I274
sS'nsubj=#PRP#'
p240
I95
sS'dobj=extradition'
p241
I65
sS'dobj=type'
p242
I90
sS"w+1=''"
p243
I145
sS'cc=but'
p244
I22
sS'w+1=further'
p245
I171
sS'w+2=aid'
p246
I210
sS'w-1=amendment'
p247
I269
sS'aux=could'
p248
I12
sS'advcl=determine'
p249
I1
sS'prep=like'
p250
I139
sS'w-2=sale'
p251
I343
sS'prep=beyond'
p252
I134
sS'nsubjpass=Putin'
p253
I119
sS'conj=provide'
p254
I34
sS'w+2=displacement'
p255
I223
sS'w+1=media'
p256
I181
sS'w+1=non-parliamentarian'
p257
I185
sS'nsubj=program'
p258
I111
sS'w-2=be'
p259
I321
sS'w+1=three'
p260
I192
sS'dobj=discrimination'
p261
I61
sS'nsubj=Bank'
p262
I96
sS'w+2=range'
p263
I248
sS'dobj=import'
p264
I70
sS'nsubj=which'
p265
I116
sS'w+1=,'
p266
I146
sS'w+2=offensive'
p267
I242
sS'w+1=all'
p268
I153
sS'nsubjpass=aid'
p269
I121
sS'w-2=provision'
p270
I340
sS'dobj=president'
p271
I82
sS'nsubj=policy'
p272
I109
sS'xcomp=run'
p273
I355
sS'w-2=could'
p274
I325
sS'w-1=Islam'
p275
I264
sS'w-2=law'
p276
I335
sS'w-2=to'
p277
I348
sS'w+2=and'
p278
I213
sS'w-2=and'
p279
I320
sS'w+2=field'
p280
I227
sS'advcl=adopt'
p281
I0
sS'w+2=transfer'
p282
I255
sS'dobj=#PRP#'
p283
I41
sS'dobj=agreement'
p284
I49
sS'advmod=now'
p285
I9
sS'w-2=do'
p286
I328
sS'w+2=into'
p287
I236
sS'dobj=guard'
p288
I69
sS'nsubjpass=weapon'
p289
I128
sS'prep=as'
p290
I133
sS'w-2=,'
p291
I298
sS'conj=include'
p292
I32
sS'w-2=.'
p293
I301
sS'w+1=what'
p294
I200
sS'w+2=development'
p295
I222
sS'w+2=extradition'
p296
I226
sS'dobj=coverage'
p297
I57
sS'w+2=import'
p298
I232
sS'dobj=bank'
p299
I54
sS'prep=among'
p300
I132
sS'w-1=,'
p301
I260
sS'w-2=now'
p302
I336
sS'w-2=ISA'
p303
I308
sS'nsubj=resolution'
p304
I112
sS'w+1=Japan'
p305
I150
sS'w-1=also'
p306
I268
sS'prep=through'
p307
I140
sS'w-1=become'
p308
I272
sS'nsubjpass=Anwar'
p309
I118
sS'dobj=trade'
p310
I88
sS'w-2=a'
p311
I318
sS'nsubj=constitution'
p312
I105
sS'dobj=deployment'
p313
I59
sS'w-1=carry'
p314
I273
sS'nsubjpass=which'
p315
I129
sS'w+2=personnel'
p316
I246
sS'nsubj=measure'
p317
I108
sS'dobj=driver'
p318
I63
sS'w-1=policy'
p319
I287
sS'w+1=President'
p320
I151
sS'nsubj=ISA'
p321
I98
sS'w-2=year'
p322
I352
sS'w+2=relation'
p323
I249
sS'prep=against'
p324
I131
sS'dobj=export'
p325
I64
sS'w+1=discrimination'
p326
I163
sS'dobj=bail'
p327
I53
sS'conj=travel'
p328
I37
sS'xcomp=commit'
p329
I353
sS'w+2=U.S.'
p330
I207
sS'prep=from'
p331
I137
sS'w+1=U.S.'
p332
I152
sS'w+1=launch'
p333
I179
sS'cc=and'
p334
I21
sS'advcl=show'
p335
I4
sS'w+1=freedom'
p336
I169
sS'dobj=Pentagon'
p337
I46
sS'aux=to'
p338
I16
sS'w+2=the'
p339
I253
sS'w-2=current'
p340
I326
sS'w+2=Islam'
p341
I202
sS'w+2=type'
p342
I256
sS'w+1=forced'
p343
I168
sS'w+2=training'
p344
I254
sS'conj=freeze'
p345
I31
sS'w+1=.'
p346
I147
sS'w+2=.'
p347
I201
sS'neg=not'
p348
I94
sS'w-2=-'
p349
I299
sS'prep=by'
p350
I135
sS'w-1=strictly'
p351
I288
sS'w-1=now'
p352
I286
sS'w-1=not'
p353
I285
sS'conj=affect'
p354
I30
sS'w-1=may'
p355
I283
sS'w+2=intelligence'
p356
I235
sS'w-1=include'
p357
I279
sS'w-1=that'
p358
I289
sS'aux=be'
p359
I11
sS'dobj=soda'
p360
I84
sS'w-1=treaty'
p361
I291
sS'w+2=a'
p362
I208
sS'w-2=Sudan'
p363
I313
ssS'dtype'
p364
cnumpy
float64
p365
sS'feature_names_'
p366
(lp367
g281
ag249
ag93
ag195
ag335
ag79
ag216
ag13
ag28
ag285
ag83
ag359
ag248
ag193
ag10
ag32
ag338
ag196
ag73
ag141
ag126
ag334
ag244
ag29
ag201
ag11
ag54
ag220
ag118
ag57
ag354
ag345
ag292
ag117
ag254
ag174
ag59
ag328
ag86
ag90
ag97
ag283
ag63
ag111
ag175
ag133
ag337
ag189
ag108
ag284
ag43
ag187
ag89
ag327
ag299
ag144
ag20
ag297
ag219
ag313
ag199
ag261
ag14
ag318
ag325
ag241
ag221
ag203
ag209
ag288
ag264
ag25
ag194
ag103
ag46
ag207
ag208
ag35
ag15
ag122
ag157
ag213
ag271
ag202
ag360
ag198
ag143
ag238
ag310
ag183
ag242
ag181
ag160
ag39
ag348
ag240
ag262
ag106
ag321
ag71
ag52
ag153
ag134
ag53
ag47
ag312
ag233
ag37
ag317
ag272
ag147
ag258
ag304
ag87
ag217
ag151
ag265
ag70
ag309
ag253
ag128
ag269
ag49
ag112
ag114
ag232
ag125
ag104
ag289
ag315
ag55
ag324
ag300
ag290
ag252
ag350
ag129
ag331
ag72
ag250
ag307
ag78
ag229
ag200
ag211
ag243
ag266
ag346
ag156
ag75
ag305
ag320
ag332
ag268
ag149
ag85
ag76
ag176
ag231
ag132
ag186
ag115
ag204
ag326
ag119
ag161
ag188
ag74
ag343
ag336
ag124
ag245
ag26
ag236
ag131
ag237
ag50
ag152
ag38
ag333
ag223
ag256
ag171
ag21
ag145
ag257
ag137
ag212
ag91
ag178
ag65
ag68
ag260
ag214
ag182
ag154
ag31
ag80
ag146
ag130
ag294
ag347
ag341
ag99
ag191
ag166
ag58
ag330
ag362
ag123
ag246
ag17
ag12
ag278
ag8
ag51
ag67
ag100
ag210
ag40
ag177
ag45
ag295
ag255
ag9
ag61
ag296
ag280
ag84
ag172
ag168
ag107
ag298
ag48
ag82
ag356
ag287
ag96
ag121
ag60
ag42
ag159
ag267
ag95
ag162
ag158
ag316
ag69
ag263
ag323
ag34
ag140
ag66
ag339
ag344
ag282
ag342
ag16
ag205
ag155
ag301
ag169
ag225
ag230
ag275
ag120
ag92
ag139
ag306
ag247
ag163
ag33
ag308
ag314
ag239
ag116
ag228
ag142
ag44
ag357
ag88
ag235
ag24
ag355
ag167
ag353
ag352
ag319
ag351
ag358
ag110
ag361
ag136
ag56
ag164
ag30
ag22
ag170
ag291
ag349
ag94
ag293
ag150
ag41
ag184
ag81
ag62
ag165
ag303
ag222
ag185
ag179
ag224
ag363
ag77
ag138
ag18
ag113
ag311
ag102
ag279
ag259
ag226
ag98
ag27
ag274
ag340
ag23
ag286
ag148
ag227
ag218
ag173
ag206
ag135
ag276
ag302
ag109
ag127
ag215
ag270
ag101
ag234
ag251
ag64
ag192
ag19
ag197
ag277
ag105
ag190
ag180
ag322
ag329
ag36
ag273
asS'separator'
p368
S'='
sS'sparse'
p369
I01
sb.