ccopy_reg
_reconstructor
p1
(csklearn.feature_extraction.dict_vectorizer
DictVectorizer
p2
c__builtin__
object
p3
NtRp4
(dp5
S'vocabulary_'
p6
(dp7
S'nsubjpass=man'
p8
I8
sS"w+1=''"
p9
I14
sS'w+2=they'
p10
I21
sS'prep=to'
p11
I13
sS'w+2=onto'
p12
I18
sS'w-2=suit'
p13
I32
sS'w+2=the'
p14
I20
sS'prep=at'
p15
I11
sS'w-2=people'
p16
I31
sS'nsubj=distaste'
p17
I7
sS'auxpass=be'
p18
I2
sS'w+1=hold'
p19
I15
sS'det=the'
p20
I5
sS'w+2=bind'
p21
I17
sS'w-1=be'
p22
I25
sS'advcl=try'
p23
I0
sS'w+1=to'
p24
I16
sS'partmod=hold'
p25
I9
sS'w-2=the'
p26
I33
sS'w-1=and'
p27
I24
sS'w-2=as'
p28
I29
sS'w-1=main'
p29
I26
sS'amod=main'
p30
I1
sS'w-2=glass'
p31
I30
sS'w+2=snap'
p32
I19
sS'prep=of'
p33
I12
sS'mark=since'
p34
I6
sS'xcomp=root'
p35
I34
sS'w-1=sit'
p36
I27
sS'poss=parasite'
p37
I10
sS'det=a'
p38
I4
sS'w-1=a'
p39
I23
sS'cop=be'
p40
I3
sS"w-1=''"
p41
I22
sS"w-2='s"
p42
I28
ssS'dtype'
p43
cnumpy
float64
p44
sS'feature_names_'
p45
(lp46
g23
ag30
ag18
ag40
ag38
ag20
ag34
ag17
ag8
ag25
ag37
ag15
ag33
ag11
ag9
ag19
ag24
ag21
ag12
ag32
ag14
ag10
ag41
ag39
ag27
ag22
ag29
ag36
ag42
ag28
ag31
ag16
ag13
ag26
ag35
asS'separator'
p47
S'='
sS'sparse'
p48
I01
sb.