ccopy_reg
_reconstructor
p1
(csklearn.feature_extraction.dict_vectorizer
DictVectorizer
p2
c__builtin__
object
p3
NtRp4
(dp5
S'vocabulary_'
p6
(dp7
S'nsubj=which'
p8
I47
sS'w+2=two'
p9
I92
sS'nsubj=show'
p10
I42
sS'nsubj=entertainment'
p11
I31
sS'nsubj=park'
p12
I38
sS'w-2=give'
p13
I142
sS'conj=center'
p14
I17
sS'nsubj=package'
p15
I37
sS'nsubj=violence'
p16
I46
sS'w-1=organization'
p17
I114
sS'w-2=Sleepwalkers'
p18
I136
sS'w+2=30'
p19
I62
sS'w-1=country'
p20
I101
sS'nsubj=most'
p21
I34
sS'w+2=.'
p22
I59
sS'nsubj=team'
p23
I44
sS'w-2=would'
p24
I164
sS'w-2=new'
p25
I147
sS'w-1=world'
p26
I126
sS'w-1=device'
p27
I104
sS'nsubj=Sleepwalkers'
p28
I24
sS'w-2=show'
p29
I158
sS'w-2=site'
p30
I159
sS'w-2=of'
p31
I150
sS'w+2=Egyptians'
p32
I65
sS'w-1=month'
p33
I113
sS'w-2=they'
p34
I161
sS'w-1=to'
p35
I122
sS'nsubj=deterrent'
p36
I28
sS'w+2=bronze'
p37
I69
sS'w-2=and'
p38
I137
sS'nsubj=much'
p39
I35
sS'w+2=multiple'
p40
I78
sS'advmod=actually'
p41
I1
sS'w+1=solely'
p42
I57
sS'w+2=numerous'
p43
I79
sS'w+2=only'
p44
I82
sS'w-1=would'
p45
I127
sS'w+2=27'
p46
I61
sS'dep=project'
p47
I19
sS'nsubj=party'
p48
I39
sS'aux=do'
p49
I10
sS'advmod=home'
p50
I2
sS'w-2=operational'
p51
I151
sS'nsubj=Union'
p52
I25
sS'nsubj=site'
p53
I43
sS'w+2=single'
p54
I88
sS'advcl=clear'
p55
I0
sS'aux=will'
p56
I13
sS'advmod=now'
p57
I4
sS'advmod=just'
p58
I3
sS'w+2=the'
p59
I91
sS'w-1=probably'
p60
I117
sS'w-1=actually'
p61
I99
sS'w-1=will'
p62
I125
sS'w-2=,'
p63
I129
sS'w-2=-'
p64
I130
sS'w-2=.'
p65
I131
sS'w+2=184'
p66
I60
sS'w-1=usually'
p67
I123
sS'w-2=12'
p68
I132
sS'aux=have'
p69
I11
sS'w+2=loan'
p70
I76
sS'w-2=session'
p71
I157
sS'nsubj=exhibit'
p72
I32
sS'w-1=,'
p73
I94
sS'w-1=deterrent'
p74
I103
sS'w-2=not'
p75
I148
sS'w-2=the'
p76
I160
sS'w-2=package'
p77
I152
sS'w-1=likely'
p78
I112
sS'xcomp=honor'
p79
I165
sS'w-2=poor'
p80
I155
sS'xcomp=review'
p81
I166
sS'conj=help'
p82
I18
sS'tmod=change'
p83
I55
sS'mark=because'
p84
I21
sS'w+2=country'
p85
I70
sS'w+1=of'
p86
I56
sS'w-1=hoof'
p87
I109
sS'w-1=region'
p88
I119
sS'w-1=act'
p89
I98
sS'w+2=police'
p90
I83
sS'w+2=eight'
p91
I71
sS'w-2=its'
p92
I143
sS"w+2=''"
p93
I58
sS'w-1=force'
p94
I106
sS'w-1=assistance'
p95
I100
sS'w+2=select'
p96
I87
sS'w+2=four'
p97
I75
sS'dobj=each'
p98
I20
sS'nsubj=plan'
p99
I40
sS'w-1=which'
p100
I124
sS'complm=that'
p101
I16
sS'prep=around'
p102
I48
sS'w-2=program'
p103
I156
sS'nsubj=region'
p104
I41
sS'w-1=party'
p105
I115
sS'nsubj=device'
p106
I29
sS'w-2=develop'
p107
I140
sS'w+2=Russia'
p108
I66
sS'cc=and'
p109
I15
sS'w-2=Pagume'
p110
I135
sS'prep=under'
p111
I53
sS'advmod=when'
p112
I8
sS'w+2=take'
p113
I90
sS'nsubj=organization'
p114
I36
sS'w+2=food-importing'
p115
I74
sS'w+2=rice'
p116
I86
sS'prep=include'
p117
I51
sS'w-2=when'
p118
I163
sS'w-2=nuclear'
p119
I149
sS'w-1=people'
p120
I116
sS'prep=in'
p121
I50
sS'w+2=some'
p122
I89
sS'aux=would'
p123
I14
sS'w-1=entertainment'
p124
I105
sS'nsubj=#PRP#'
p125
I23
sS'prep=from'
p126
I49
sS"w-1=''"
p127
I93
sS'nsubj=method'
p128
I33
sS'w-2=each'
p129
I141
sS'w-1=ration'
p130
I118
sS'aux=to'
p131
I12
sS'w+2=recitation'
p132
I85
sS'advmod=solely'
p133
I6
sS'w-1=Union'
p134
I97
sS'w-2=Fernando'
p135
I134
sS'w-2=mostly'
p136
I145
sS'w-1=team'
p137
I120
sS'nsubj=democracy'
p138
I27
sS'w+2=random'
p139
I84
sS'w-1=Botero'
p140
I96
sS'w-2=political'
p141
I154
sS'w-2=violence'
p142
I162
sS'w-1=form'
p143
I107
sS'nsubj=dress'
p144
I30
sS"w-2=''"
p145
I128
sS'aux=be'
p146
I9
sS'w+2=of'
p147
I80
sS'w-2=bird'
p148
I139
sS'advmod=probably'
p149
I5
sS'neg=not'
p150
I22
sS'w-2=negotiate'
p151
I146
sS'nsubj=that'
p152
I45
sS'w-1=it'
p153
I110
sS'w+2=food'
p154
I73
sS'w-1=have'
p155
I108
sS'w-1=--'
p156
I95
sS'advmod=usually'
p157
I7
sS'w-1=just'
p158
I111
sS'w-2=be'
p159
I138
sS'prep=of'
p160
I52
sS'w-2=park'
p161
I153
sS'nsubj=crime'
p162
I26
sS'w+2=administer'
p163
I68
sS'rel=what'
p164
I54
sS'w+2=315'
p165
I63
sS'w-2=method'
p166
I144
sS'w-1=that'
p167
I121
sS'w+2=official'
p168
I81
sS'w-1=crime'
p169
I102
sS'w+2=maize'
p170
I77
sS'w+2=40'
p171
I64
sS'w+2=a'
p172
I67
sS'w-2=European'
p173
I133
sS'w+2=five'
p174
I72
ssS'dtype'
p175
cnumpy
float64
p176
sS'feature_names_'
p177
(lp178
g55
ag41
ag50
ag58
ag57
ag149
ag133
ag157
ag112
ag146
ag49
ag69
ag131
ag56
ag123
ag109
ag101
ag14
ag82
ag47
ag98
ag84
ag150
ag125
ag28
ag52
ag162
ag138
ag36
ag106
ag144
ag11
ag72
ag128
ag21
ag39
ag114
ag15
ag12
ag48
ag99
ag104
ag10
ag53
ag23
ag152
ag16
ag8
ag102
ag126
ag121
ag117
ag160
ag111
ag164
ag83
ag86
ag42
ag93
ag22
ag66
ag46
ag19
ag165
ag171
ag32
ag108
ag172
ag163
ag37
ag85
ag91
ag174
ag154
ag115
ag97
ag70
ag170
ag40
ag43
ag147
ag168
ag44
ag90
ag139
ag132
ag116
ag96
ag54
ag122
ag113
ag59
ag9
ag127
ag73
ag156
ag140
ag134
ag89
ag61
ag95
ag20
ag169
ag74
ag27
ag124
ag94
ag143
ag155
ag87
ag153
ag158
ag78
ag33
ag17
ag105
ag120
ag60
ag130
ag88
ag137
ag167
ag35
ag67
ag100
ag62
ag26
ag45
ag145
ag63
ag64
ag65
ag68
ag173
ag135
ag110
ag18
ag38
ag159
ag148
ag107
ag129
ag13
ag92
ag166
ag136
ag151
ag25
ag75
ag119
ag31
ag51
ag77
ag161
ag141
ag80
ag103
ag71
ag29
ag30
ag76
ag34
ag142
ag118
ag24
ag79
ag81
asS'separator'
p179
S'='
sS'sparse'
p180
I01
sb.