ccopy_reg
_reconstructor
p1
(csklearn.feature_extraction.dict_vectorizer
DictVectorizer
p2
c__builtin__
object
p3
NtRp4
(dp5
S'sort'
p6
I01
sS'feature_names_'
p7
(lp8
S'advcl=know'
p9
aS'advcl=visit'
p10
aS'advmod=also'
p11
aS'advmod=culturally'
p12
aS'advmod=currently'
p13
aS'advmod=enough'
p14
aS'advmod=fully'
p15
aS'advmod=illegally'
p16
aS'advmod=mostly'
p17
aS'advmod=now'
p18
aS'advmod=poorly'
p19
aS'advmod=recently'
p20
aS'advmod=specially'
p21
aS'advmod=there'
p22
aS'advmod=well'
p23
aS'advmod=when'
p24
aS'advmod=why'
p25
aS'amod=social'
p26
aS'aux=be'
p27
aS'aux=can'
p28
aS'aux=do'
p29
aS'aux=have'
p30
aS'aux=to'
p31
aS'aux=would'
p32
aS'auxpass=be'
p33
aS'cc=and'
p34
aS'cc=or'
p35
aS'ccomp=call'
p36
aS'ccomp=give'
p37
aS'complm=that'
p38
aS'conj=break'
p39
aS'conj=build'
p40
aS'conj=launch'
p41
aS'conj=live'
p42
aS'conj=revitalize'
p43
aS'conj=topple'
p44
aS'dep=difficult'
p45
aS'dep=that'
p46
aS'det=the'
p47
aS'dobj=assumption'
p48
aS'dobj=barrier'
p49
aS'dobj=bit'
p50
aS'dobj=bomb'
p51
aS'dobj=camp'
p52
aS'dobj=classroom'
p53
aS'dobj=future'
p54
aS'dobj=home'
p55
aS'dobj=house'
p56
aS'dobj=pipeline'
p57
aS'dobj=program'
p58
aS'dobj=refinery'
p59
aS'dobj=representative'
p60
aS'dobj=road'
p61
aS'dobj=shelter'
p62
aS'dobj=ship'
p63
aS'dobj=story'
p64
aS'dobj=strategy'
p65
aS'dobj=well'
p66
aS'dobj=what'
p67
aS'mark=so'
p68
aS'neg=not'
p69
aS'nsubj=#PRP#'
p70
aS'nsubj=Israel'
p71
aS'nsubj=U.S.'
p72
aS'nsubj=UNHCR'
p73
aS'nsubj=institution'
p74
aS'nsubj=soldier'
p75
aS'nsubjpass=#PRP#'
p76
aS'nsubjpass=barrier'
p77
aS'nsubjpass=building'
p78
aS'nsubjpass=camp'
p79
aS'nsubjpass=church'
p80
aS'nsubjpass=dam'
p81
aS'nsubjpass=highway'
p82
aS'nsubjpass=latrine'
p83
aS'nsubjpass=plant'
p84
aS'nsubjpass=program'
p85
aS'nsubjpass=project'
p86
aS'nsubjpass=stadium'
p87
aS'nsubjpass=system'
p88
aS'nsubjpass=that'
p89
aS'nsubjpass=venue'
p90
aS'nsubjpass=wall'
p91
aS'prep=among'
p92
aS'prep=at'
p93
aS'prep=by'
p94
aS'prep=for'
p95
aS'prep=from'
p96
aS'prep=in'
p97
aS'prep=like'
p98
aS'prep=of'
p99
aS'prep=out'
p100
aS'prep=since'
p101
aS'prep=through'
p102
aS'prep=to'
p103
aS'prep=under'
p104
aS'prep=with'
p105
aS'prt=out'
p106
aS'tmod=center'
p107
aS'w+1=,'
p108
aS'w+1=.'
p109
aS'w+1=2,000'
p110
aS'w+1=a'
p111
aS'w+1=and'
p112
aS'w+1=another'
p113
aS'w+1=as'
p114
aS'w+1=assumption'
p115
aS'w+1=at'
p116
aS'w+1=by'
p117
aS'w+1=canoe'
p118
aS'w+1=day'
p119
aS'w+1=device'
p120
aS'w+1=display'
p121
aS'w+1=for'
p122
aS'w+1=from'
p123
aS'w+1=hospital'
p124
aS'w+1=house'
p125
aS'w+1=in'
p126
aS'w+1=mosque'
p127
aS'w+1=mostly'
p128
aS'w+1=new'
p129
aS'w+1=of'
p130
aS'w+1=or'
p131
aS'w+1=out'
p132
aS'w+1=public'
p133
aS'w+1=road'
p134
aS'w+1=since'
p135
aS'w+1=some'
p136
aS'w+1=the'
p137
aS'w+1=there'
p138
aS'w+1=to'
p139
aS'w+1=under'
p140
aS'w+1=we'
p141
aS'w+1=well'
p142
aS'w+1=what'
p143
aS'w+1=with'
p144
aS"w+2=''"
p145
aS'w+2=,'
p146
aS'w+2=-lrb-'
p147
aS'w+2=.'
p148
aS'w+2=1410'
p149
aS'w+2=2001'
p150
aS'w+2=Chaoyang'
p151
aS'w+2=Iraq'
p152
aS'w+2=Lake'
p153
aS'w+2=a'
p154
aS'w+2=adequate'
p155
aS'w+2=barrier'
p156
aS'w+2=be'
p157
aS'w+2=build'
p158
aS'w+2=care'
p159
aS'w+2=classroom'
p160
aS'w+2=common'
p161
aS'w+2=deep'
p162
aS'w+2=good'
p163
aS'w+2=he'
p164
aS'w+2=home'
p165
aS'w+2=house'
p166
aS'w+2=in'
p167
aS'w+2=indivisible'
p168
aS'w+2=israeli'
p169
aS'w+2=keep'
p170
aS'w+2=largest'
p171
aS'w+2=late'
p172
aS'w+2=little'
p173
aS'w+2=market'
p174
aS'w+2=material'
p175
aS'w+2=of'
p176
aS'w+2=or'
p177
aS'w+2=own'
p178
aS'w+2=pipeline'
p179
aS'w+2=plant'
p180
aS'w+2=representative'
p181
aS'w+2=resident'
p182
aS'w+2=revitalize'
p183
aS'w+2=shelter'
p184
aS'w+2=ship'
p185
aS'w+2=some'
p186
aS'w+2=strategy'
p187
aS'w+2=the'
p188
aS'w+2=this'
p189
aS'w+2=three-meter-high'
p190
aS'w+2=to'
p191
aS'w+2=with'
p192
aS'w+2=year'
p193
aS'w-1=,'
p194
aS'w-1=--'
p195
aS'w-1=Ghana'
p196
aS'w-1=I'
p197
aS'w-1=Mehret'
p198
aS'w-1=also'
p199
aS'w-1=and'
p200
aS'w-1=as'
p201
aS'w-1=be'
p202
aS'w-1=begin'
p203
aS'w-1=culturally'
p204
aS'w-1=fully'
p205
aS'w-1=have'
p206
aS'w-1=home'
p207
aS'w-1=illegally'
p208
aS'w-1=in'
p209
aS'w-1=not'
p210
aS'w-1=or'
p211
aS'w-1=outpost'
p212
aS'w-1=people'
p213
aS'w-1=poorly'
p214
aS'w-1=recently'
p215
aS'w-1=social'
p216
aS'w-1=specially'
p217
aS'w-1=start'
p218
aS'w-1=that'
p219
aS'w-1=to'
p220
aS'w-1=venue'
p221
aS'w-1=well'
p222
aS'w-1=work'
p223
aS'w-2=60,000'
p224
aS'w-2=Bank'
p225
aS'w-2=Israel'
p226
aS'w-2=Kidane'
p227
aS'w-2=U.S.'
p228
aS'w-2=UNHCR'
p229
aS'w-2=a'
p230
aS'w-2=able'
p231
aS'w-2=barrier'
p232
aS'w-2=be'
p233
aS'w-2=building'
p234
aS'w-2=can'
p235
aS'w-2=carry'
p236
aS'w-2=company'
p237
aS'w-2=computer'
p238
aS'w-2=dam'
p239
aS'w-2=demolish'
p240
aS'w-2=do'
p241
aS'w-2=expensive'
p242
aS'w-2=have'
p243
aS'w-2=illegal'
p244
aS'w-2=important'
p245
aS'w-2=in'
p246
aS'w-2=it'
p247
aS'w-2=latrine'
p248
aS'w-2=leader'
p249
aS'w-2=moment'
p250
aS'w-2=nation'
p251
aS'w-2=not'
p252
aS'w-2=now'
p253
aS'w-2=of'
p254
aS'w-2=out'
p255
aS'w-2=plan'
p256
aS'w-2=really'
p257
aS'w-2=refinery'
p258
aS'w-2=rock'
p259
aS'w-2=so'
p260
aS'w-2=soldier'
p261
aS'w-2=sovereign'
p262
aS'w-2=special'
p263
aS'w-2=such'
p264
aS'w-2=the'
p265
aS'w-2=they'
p266
aS'w-2=to'
p267
aS'w-2=too'
p268
aS'w-2=tree'
p269
aS'w-2=wall'
p270
aS'w-2=want'
p271
aS'w-2=would'
p272
aS'xcomp=accommodate'
p273
aS'xcomp=go'
p274
aS'xcomp=harvest'
p275
aS'xcomp=keep'
p276
aS'xcomp=last'
p277
asS'dtype'
p278
cnumpy
float64
p279
sS'vocabulary_'
p280
(dp281
g183
I174
sg261
I252
sg73
I64
sg66
I57
sg124
I115
sg127
I118
sg217
I208
sg81
I72
sg272
I263
sg53
I44
sg36
I27
sg149
I140
sg21
I12
sg132
I123
sg20
I11
sg129
I120
sg220
I211
sg91
I82
sg88
I79
sg229
I220
sg59
I50
sg100
I91
sg54
I45
sg47
I38
sg61
I52
sg89
I80
sg60
I51
sg23
I14
sg182
I173
sg179
I170
sg273
I264
sg271
I262
sg211
I202
sg121
I112
sg150
I141
sg43
I34
sg189
I180
sg262
I253
sg254
I245
sg243
I234
sg139
I130
sg215
I206
sg266
I257
sg135
I126
sg270
I261
sg94
I85
sg62
I53
sg125
I116
sg194
I185
sg218
I209
sg198
I189
sg22
I13
sg241
I232
sg80
I71
sg238
I229
sg64
I55
sg153
I144
sg253
I244
sg55
I46
sg11
I2
sg10
I1
sg187
I178
sg29
I20
sg57
I48
sg86
I77
sg101
I92
sg45
I36
sg151
I142
sg74
I65
sg144
I135
sg75
I66
sg18
I9
sg37
I28
sg79
I70
sg274
I265
sg15
I6
sg12
I3
sg188
I179
sg114
I105
sg140
I131
sg116
I107
sg240
I231
sg105
I96
sg164
I155
sg42
I33
sg143
I134
sg142
I133
sg30
I21
sg106
I97
sg246
I237
sg222
I213
sg202
I193
sg107
I98
sg92
I83
sg172
I163
sg256
I247
sg40
I31
sg252
I243
sg175
I166
sg265
I256
sg214
I205
sg115
I106
sg26
I17
sg259
I250
sg19
I10
sg231
I222
sg169
I160
sg158
I149
sg227
I218
sg251
I242
sg247
I238
sg199
I190
sg102
I93
sg159
I150
sg264
I255
sg239
I230
sg17
I8
sg178
I169
sg174
I165
sg113
I104
sg130
I121
sg63
I54
sg255
I246
sg191
I182
sg225
I216
sg221
I212
sg245
I236
sg95
I86
sg131
I122
sg82
I73
sg46
I37
sg141
I132
sg206
I197
sg87
I78
sg197
I188
sg171
I162
sg195
I186
sg147
I138
sg260
I251
sg145
I136
sg167
I158
sg67
I58
sg228
I219
sg244
I235
sg209
I200
sg216
I207
sg148
I139
sg123
I114
sg65
I56
sg224
I215
sg9
I0
sg250
I241
sg33
I24
sg28
I19
sg38
I29
sg226
I217
sg68
I59
sg223
I214
sg25
I16
sg267
I258
sg168
I159
sg258
I249
sg34
I25
sg210
I201
sg163
I154
sg110
I101
sg277
I268
sg104
I95
sg24
I15
sg13
I4
sg78
I69
sg137
I128
sg205
I196
sg190
I181
sg117
I108
sg165
I156
sg157
I148
sg71
I62
sg203
I194
sg138
I129
sg32
I23
sg268
I259
sg76
I67
sg213
I204
sg97
I88
sg186
I177
sg119
I110
sg204
I195
sg56
I47
sg122
I113
sg126
I117
sg249
I240
sg192
I183
sg77
I68
sg70
I61
sg96
I87
sg133
I124
sg276
I267
sg173
I164
sg275
I266
sg41
I32
sg103
I94
sg58
I49
sg236
I227
sg31
I22
sg230
I221
sg49
I40
sg212
I203
sg196
I187
sg193
I184
sg242
I233
sg93
I84
sg84
I75
sg180
I171
sg112
I103
sg235
I226
sg72
I63
sg177
I168
sg128
I119
sg98
I89
sg237
I228
sg108
I99
sg109
I100
sg176
I167
sg161
I152
sg48
I39
sg184
I175
sg136
I127
sg146
I137
sg248
I239
sg52
I43
sg85
I76
sg208
I199
sg69
I60
sg14
I5
sg120
I111
sg39
I30
sg207
I198
sg200
I191
sg160
I151
sg263
I254
sg90
I81
sg170
I161
sg269
I260
sg181
I172
sg51
I42
sg44
I35
sg257
I248
sg35
I26
sg111
I102
sg156
I147
sg233
I224
sg155
I146
sg83
I74
sg99
I90
sg118
I109
sg201
I192
sg16
I7
sg50
I41
sg232
I223
sg219
I210
sg27
I18
sg162
I153
sg234
I225
sg166
I157
sg154
I145
sg152
I143
sg134
I125
sg185
I176
ssS'separator'
p282
S'='
sS'sparse'
p283
I01
sb.