ccopy_reg
_reconstructor
p1
(csklearn.feature_extraction.dict_vectorizer
DictVectorizer
p2
c__builtin__
object
p3
NtRp4
(dp5
S'sort'
p6
I01
sS'feature_names_'
p7
(lp8
S'acomp=clear'
p9
aS'acomp=japanese'
p10
aS'acomp=loud'
p11
aS'acomp=much'
p12
aS'advcl=able'
p13
aS'advcl=appear'
p14
aS'advcl=be'
p15
aS'advcl=begin'
p16
aS'advcl=believe'
p17
aS'advcl=campaigning'
p18
aS'advcl=citizen'
p19
aS'advcl=come'
p20
aS'advcl=concern'
p21
aS'advcl=cry'
p22
aS'advcl=decide'
p23
aS'advcl=descend'
p24
aS'advcl=describe'
p25
aS'advcl=expand'
p26
aS'advcl=expensive'
p27
aS'advcl=fly'
p28
aS'advcl=go'
p29
aS'advcl=have'
p30
aS'advcl=head'
p31
aS'advcl=issue'
p32
aS'advcl=kid'
p33
aS'advcl=light'
p34
aS'advcl=live'
p35
aS'advcl=make'
p36
aS'advcl=move'
p37
aS'advcl=pass'
p38
aS'advcl=people'
p39
aS'advcl=provide'
p40
aS'advcl=reach'
p41
aS'advcl=release'
p42
aS'advcl=reveal'
p43
aS'advcl=scream'
p44
aS'advcl=seem'
p45
aS'advcl=sing'
p46
aS'advcl=speak'
p47
aS'advcl=suffer'
p48
aS'advcl=take'
p49
aS'advcl=talk'
p50
aS'advcl=think'
p51
aS'advcl=torture'
p52
aS'advcl=travel'
p53
aS'advcl=visit'
p54
aS'advcl=win'
p55
aS'advcl=write'
p56
aS'advmod=#PRP#'
p57
aS'advmod=about'
p58
aS'advmod=actually'
p59
aS'advmod=again'
p60
aS'advmod=ago'
p61
aS'advmod=already'
p62
aS'advmod=also'
p63
aS'advmod=always'
p64
aS'advmod=and'
p65
aS'advmod=away'
p66
aS'advmod=back'
p67
aS'advmod=barely'
p68
aS'advmod=before'
p69
aS'advmod=clearly'
p70
aS'advmod=commonly'
p71
aS'advmod=directly'
p72
aS'advmod=else'
p73
aS'advmod=even'
p74
aS'advmod=eventually'
p75
aS'advmod=ever'
p76
aS'advmod=everywhere'
p77
aS'advmod=first'
p78
aS'advmod=frequently'
p79
aS'advmod=further'
p80
aS'advmod=here'
p81
aS'advmod=impartially'
p82
aS'advmod=increasingly'
p83
aS'advmod=just'
p84
aS'advmod=likewise'
p85
aS'advmod=little'
p86
aS'advmod=long'
p87
aS'advmod=longer'
p88
aS'advmod=loudly'
p89
aS'advmod=more'
p90
aS'advmod=naturally'
p91
aS'advmod=now'
p92
aS'advmod=often'
p93
aS'advmod=only'
p94
aS'advmod=ordinarily'
p95
aS'advmod=otherwise'
p96
aS'advmod=out'
p97
aS'advmod=over'
p98
aS'advmod=probably'
p99
aS'advmod=repeatedly'
p100
aS'advmod=reportedly'
p101
aS'advmod=seldom'
p102
aS'advmod=slowly'
p103
aS'advmod=so'
p104
aS'advmod=sometime'
p105
aS'advmod=soon'
p106
aS'advmod=still'
p107
aS'advmod=then'
p108
aS'advmod=there'
p109
aS'advmod=too'
p110
aS'advmod=usually'
p111
aS'advmod=well'
p112
aS'advmod=whatever'
p113
aS'advmod=when'
p114
aS'advmod=where'
p115
aS'advmod=yet'
p116
aS"aux='ll"
p117
aS'aux=be'
p118
aS'aux=can'
p119
aS'aux=could'
p120
aS'aux=do'
p121
aS'aux=have'
p122
aS'aux=might'
p123
aS'aux=must'
p124
aS'aux=should'
p125
aS'aux=to'
p126
aS'aux=will'
p127
aS'aux=would'
p128
aS'auxpass=be'
p129
aS'auxpass=get'
p130
aS'cc=and'
p131
aS'cc=but'
p132
aS'cc=or'
p133
aS'ccomp=$'
p134
aS'ccomp=Arab'
p135
aS'ccomp=Enough'
p136
aS'ccomp=allow'
p137
aS'ccomp=attack'
p138
aS'ccomp=be'
p139
aS'ccomp=beautiful'
p140
aS'ccomp=call'
p141
aS'ccomp=change'
p142
aS'ccomp=chant'
p143
aS'ccomp=choose'
p144
aS'ccomp=close'
p145
aS'ccomp=closer'
p146
aS'ccomp=come'
p147
aS'ccomp=crime'
p148
aS'ccomp=criticize'
p149
aS'ccomp=cry'
p150
aS'ccomp=dead'
p151
aS'ccomp=deliver'
p152
aS'ccomp=demand'
p153
aS'ccomp=describe'
p154
aS'ccomp=detail'
p155
aS'ccomp=discuss'
p156
aS'ccomp=dispel'
p157
aS'ccomp=do'
p158
aS'ccomp=election'
p159
aS'ccomp=erupt'
p160
aS'ccomp=execute'
p161
aS'ccomp=facilitator'
p162
aS'ccomp=find'
p163
aS'ccomp=firing'
p164
aS'ccomp=flout'
p165
aS'ccomp=give'
p166
aS'ccomp=go'
p167
aS'ccomp=happen'
p168
aS'ccomp=have'
p169
aS'ccomp=hear'
p170
aS'ccomp=hide'
p171
aS'ccomp=kill'
p172
aS'ccomp=lead'
p173
aS'ccomp=learn'
p174
aS'ccomp=love'
p175
aS'ccomp=make'
p176
aS'ccomp=mention'
p177
aS'ccomp=mobilize'
p178
aS'ccomp=move'
p179
aS'ccomp=neglect'
p180
aS'ccomp=not'
p181
aS'ccomp=organize'
p182
aS'ccomp=perform'
p183
aS'ccomp=plan'
p184
aS'ccomp=play'
p185
aS'ccomp=pop'
p186
aS'ccomp=problem'
p187
aS'ccomp=propose'
p188
aS'ccomp=qualify'
p189
aS'ccomp=reach'
p190
aS'ccomp=read'
p191
aS'ccomp=rest'
p192
aS'ccomp=restart'
p193
aS'ccomp=roll'
p194
aS'ccomp=run'
p195
aS'ccomp=say'
p196
aS'ccomp=see'
p197
aS'ccomp=shout'
p198
aS'ccomp=snap'
p199
aS'ccomp=speak'
p200
aS'ccomp=support'
p201
aS'ccomp=supportive'
p202
aS'ccomp=tackle'
p203
aS'ccomp=take'
p204
aS'ccomp=talk'
p205
aS'ccomp=teach'
p206
aS'ccomp=thing'
p207
aS'ccomp=think'
p208
aS'ccomp=transfer'
p209
aS'ccomp=try'
p210
aS'ccomp=unleash'
p211
aS'ccomp=walk'
p212
aS'ccomp=want'
p213
aS'ccomp=work'
p214
aS'complm=that'
p215
aS'conj=Rich'
p216
aS'conj=act'
p217
aS'conj=analyze'
p218
aS'conj=appal'
p219
aS'conj=appear'
p220
aS'conj=be'
p221
aS'conj=bring'
p222
aS'conj=cling'
p223
aS'conj=come'
p224
aS'conj=continue'
p225
aS'conj=deliver'
p226
aS'conj=desperate'
p227
aS'conj=deter'
p228
aS'conj=discuss'
p229
aS'conj=dispute'
p230
aS'conj=do'
p231
aS'conj=find'
p232
aS'conj=give'
p233
aS'conj=go'
p234
aS'conj=have'
p235
aS'conj=hear'
p236
aS'conj=identify'
p237
aS'conj=impress'
p238
aS'conj=know'
p239
aS'conj=listen'
p240
aS'conj=live'
p241
aS'conj=look'
p242
aS'conj=make'
p243
aS'conj=perceive'
p244
aS'conj=plan'
p245
aS'conj=play'
p246
aS'conj=present'
p247
aS'conj=put'
p248
aS'conj=raise'
p249
aS'conj=read'
p250
aS'conj=realize'
p251
aS'conj=recognize'
p252
aS'conj=report'
p253
aS'conj=rule'
p254
aS'conj=say'
p255
aS'conj=see'
p256
aS'conj=send'
p257
aS'conj=sing'
p258
aS'conj=start'
p259
aS'conj=take'
p260
aS'conj=tell'
p261
aS'conj=theme'
p262
aS'conj=thereafter'
p263
aS'conj=think'
p264
aS'conj=true'
p265
aS'conj=try'
p266
aS'conj=turn'
p267
aS'csubj=remember'
p268
aS'csubj=try'
p269
aS'dep=#PRP#'
p270
aS'dep=Fitzgerald'
p271
aS'dep=GIBSON'
p272
aS'dep=Jam'
p273
aS'dep=Participation'
p274
aS'dep=Set'
p275
aS'dep=all'
p276
aS'dep=be'
p277
aS'dep=before'
p278
aS'dep=blast'
p279
aS'dep=copy'
p280
aS'dep=depth'
p281
aS'dep=disappointed'
p282
aS'dep=do'
p283
aS'dep=feature'
p284
aS'dep=hear'
p285
aS'dep=history'
p286
aS'dep=if'
p287
aS'dep=in'
p288
aS'dep=land'
p289
aS'dep=lose'
p290
aS'dep=many'
p291
aS'dep=more'
p292
aS'dep=represent'
p293
aS'dep=say'
p294
aS'dep=sing'
p295
aS'dep=song'
p296
aS'dep=speak'
p297
aS'dep=that'
p298
aS'dep=time'
p299
aS'dep=use'
p300
aS'dep=what'
p301
aS'dep=wire'
p302
aS'dobj=#NUMBER#'
p303
aS'dobj=#PRP#'
p304
aS'dobj=Act'
p305
aS'dobj=English'
p306
aS'dobj=Hornsby'
p307
aS'dobj=IMF'
p308
aS'dobj=Nakba'
p309
aS'dobj=Russians'
p310
aS'dobj=Senate'
p311
aS'dobj=Trane'
p312
aS'dobj=Watson'
p313
aS'dobj=a'
p314
aS'dobj=adult'
p315
aS'dobj=all'
p316
aS'dobj=anger'
p317
aS'dobj=announcement'
p318
aS'dobj=anybody'
p319
aS'dobj=anything'
p320
aS'dobj=appeal'
p321
aS'dobj=application'
p322
aS'dobj=argument'
p323
aS'dobj=artist'
p324
aS'dobj=assessment'
p325
aS'dobj=audio'
p326
aS'dobj=band'
p327
aS'dobj=bluegrass'
p328
aS'dobj=cabinet'
p329
aS'dobj=call'
p330
aS'dobj=case'
p331
aS'dobj=challenge'
p332
aS'dobj=charge'
p333
aS'dobj=child'
p334
aS'dobj=clamor'
p335
aS'dobj=clock'
p336
aS'dobj=comment'
p337
aS'dobj=complaint'
p338
aS'dobj=concern'
p339
aS'dobj=criticism'
p340
aS'dobj=debate'
p341
aS'dobj=decision'
p342
aS'dobj=declaration'
p343
aS'dobj=delusion'
p344
aS'dobj=demand'
p345
aS'dobj=dialect'
p346
aS'dobj=difference'
p347
aS'dobj=dissident'
p348
aS'dobj=enough'
p349
aS'dobj=european'
p350
aS'dobj=everyday'
p351
aS'dobj=everything'
p352
aS'dobj=evidence'
p353
aS'dobj=explanation'
p354
aS'dobj=explosion'
p355
aS'dobj=fanfare'
p356
aS'dobj=filmmaker'
p357
aS'dobj=fire'
p358
aS'dobj=food'
p359
aS'dobj=footstep'
p360
aS'dobj=frequency'
p361
aS'dobj=gunfire'
p362
aS'dobj=gunshot'
p363
aS'dobj=habeas'
p364
aS'dobj=helicopter'
p365
aS'dobj=hop'
p366
aS'dobj=idea'
p367
aS'dobj=inmate'
p368
aS'dobj=jazz'
p369
aS'dobj=jet'
p370
aS'dobj=jingle'
p371
aS'dobj=language'
p372
aS'dobj=leader'
p373
aS'dobj=lot'
p374
aS'dobj=majority'
p375
aS'dobj=many'
p376
aS'dobj=message'
p377
aS'dobj=misconception'
p378
aS'dobj=motion'
p379
aS'dobj=much'
p380
aS'dobj=music'
p381
aS'dobj=name'
p382
aS'dobj=news'
p383
aS'dobj=nightingale'
p384
aS'dobj=noise'
p385
aS'dobj=nothing'
p386
aS'dobj=number'
p387
aS'dobj=opinion'
p388
aS'dobj=opponent'
p389
aS'dobj=opposition'
p390
aS'dobj=outburst'
p391
aS'dobj=outcome'
p392
aS'dobj=people'
p393
aS'dobj=performance'
p394
aS'dobj=perspective'
p395
aS'dobj=petition'
p396
aS'dobj=piece'
p397
aS'dobj=plan'
p398
aS'dobj=play'
p399
aS'dobj=playing'
p400
aS'dobj=politician'
p401
aS'dobj=presentation'
p402
aS'dobj=rationale'
p403
aS'dobj=reading'
p404
aS'dobj=recommendation'
p405
aS'dobj=record'
p406
aS'dobj=recording'
p407
aS'dobj=report'
p408
aS'dobj=response'
p409
aS'dobj=rock'
p410
aS'dobj=rumor'
p411
aS'dobj=sentence'
p412
aS'dobj=shooting'
p413
aS'dobj=signal'
p414
aS'dobj=singer'
p415
aS'dobj=singing'
p416
aS'dobj=skill'
p417
aS'dobj=some'
p418
aS'dobj=something'
p419
aS'dobj=song'
p420
aS'dobj=sort'
p421
aS'dobj=sound'
p422
aS'dobj=speech'
p423
aS'dobj=star'
p424
aS'dobj=statement'
p425
aS'dobj=story'
p426
aS'dobj=tale'
p427
aS'dobj=talk'
p428
aS'dobj=testimony'
p429
aS'dobj=that'
p430
aS'dobj=the'
p431
aS'dobj=thing'
p432
aS'dobj=this'
p433
aS'dobj=threat'
p434
aS'dobj=tone'
p435
aS'dobj=truth'
p436
aS'dobj=tune'
p437
aS'dobj=view'
p438
aS'dobj=vocalist'
p439
aS'dobj=voice'
p440
aS'dobj=voter'
p441
aS'dobj=weaponry'
p442
aS'dobj=what'
p443
aS'dobj=which'
p444
aS'dobj=wish'
p445
aS'dobj=witness'
p446
aS'dobj=word'
p447
aS'mark=after'
p448
aS'mark=as'
p449
aS'mark=because'
p450
aS'mark=for'
p451
aS'mark=if'
p452
aS'mark=since'
p453
aS'mark=so'
p454
aS'mark=until'
p455
aS'neg=never'
p456
aS'neg=not'
p457
aS'nsubj=#NUMBER#'
p458
aS'nsubj=#PRP#'
p459
aS'nsubj=Americans'
p460
aS'nsubj=Chris'
p461
aS'nsubj=Commission'
p462
aS'nsubj=Committee'
p463
aS'nsubj=Congress'
p464
aS'nsubj=Court'
p465
aS'nsubj=Democrats'
p466
aS'nsubj=Eggert'
p467
aS'nsubj=Foster'
p468
aS'nsubj=Horton'
p469
aS'nsubj=Iraqis'
p470
aS'nsubj=Jeanna'
p471
aS'nsubj=Kankuran'
p472
aS'nsubj=Pelosi'
p473
aS'nsubj=Perry'
p474
aS'nsubj=Philadelphians'
p475
aS'nsubj=Rice'
p476
aS'nsubj=Richard'
p477
aS'nsubj=Saheed'
p478
aS'nsubj=Somalians'
p479
aS'nsubj=Tabacaru'
p480
aS'nsubj=Udeogaranya'
p481
aS'nsubj=Vogelaar'
p482
aS'nsubj=album'
p483
aS'nsubj=anyone'
p484
aS'nsubj=appropriation'
p485
aS'nsubj=audience'
p486
aS'nsubj=bird'
p487
aS'nsubj=but'
p488
aS'nsubj=case'
p489
aS'nsubj=committee'
p490
aS'nsubj=conference'
p491
aS'nsubj=court'
p492
aS'nsubj=delegate'
p493
aS'nsubj=delegation'
p494
aS'nsubj=earlier'
p495
aS'nsubj=everybody'
p496
aS'nsubj=everyone'
p497
aS'nsubj=goal'
p498
aS'nsubj=government'
p499
aS'nsubj=hair'
p500
aS'nsubj=justice'
p501
aS'nsubj=lawmaker'
p502
aS'nsubj=listener'
p503
aS'nsubj=look'
p504
aS'nsubj=lot'
p505
aS'nsubj=many'
p506
aS'nsubj=member'
p507
aS'nsubj=message'
p508
aS'nsubj=most'
p509
aS'nsubj=official'
p510
aS'nsubj=panel'
p511
aS'nsubj=parent'
p512
aS'nsubj=patrol'
p513
aS'nsubj=people'
p514
aS'nsubj=president'
p515
aS'nsubj=public'
p516
aS'nsubj=refugee'
p517
aS'nsubj=reporter'
p518
aS'nsubj=satisfaction'
p519
aS'nsubj=technology'
p520
aS'nsubj=that'
p521
aS'nsubj=those'
p522
aS'nsubj=tourist'
p523
aS'nsubj=tribunal'
p524
aS'nsubj=veteran'
p525
aS'nsubj=visitor'
p526
aS'nsubj=voice'
p527
aS'nsubj=voter'
p528
aS'nsubj=war'
p529
aS'nsubj=which'
p530
aS'nsubj=who'
p531
aS'nsubj=witness'
p532
aS'nsubj=worker'
p533
aS'nsubj=world'
p534
aS'nsubjpass=#PRP#'
p535
aS'nsubjpass=Gunfire'
p536
aS'nsubjpass=Otti'
p537
aS'nsubjpass=Passersby'
p538
aS'nsubjpass=Willis'
p539
aS'nsubjpass=appeal'
p540
aS'nsubjpass=appreciation'
p541
aS'nsubjpass=argument'
p542
aS'nsubjpass=bombing'
p543
aS'nsubjpass=call'
p544
aS'nsubjpass=case'
p545
aS'nsubjpass=chain'
p546
aS'nsubjpass=concern'
p547
aS'nsubjpass=criticism'
p548
aS'nsubjpass=crossroads'
p549
aS'nsubjpass=dealer'
p550
aS'nsubjpass=explosion'
p551
aS'nsubjpass=firework'
p552
aS'nsubjpass=gunfire'
p553
aS'nsubjpass=gunshot'
p554
aS'nsubjpass=h'
p555
aS'nsubjpass=horn'
p556
aS'nsubjpass=instrument'
p557
aS'nsubjpass=language'
p558
aS'nsubjpass=many'
p559
aS'nsubjpass=music'
p560
aS'nsubjpass=nothing'
p561
aS'nsubjpass=officer'
p562
aS'nsubjpass=opportunity'
p563
aS'nsubjpass=person'
p564
aS'nsubjpass=petition'
p565
aS'nsubjpass=plea'
p566
aS'nsubjpass=pledge'
p567
aS'nsubjpass=point'
p568
aS'nsubjpass=protestor'
p569
aS'nsubjpass=sentiment'
p570
aS'nsubjpass=shot'
p571
aS'nsubjpass=some'
p572
aS'nsubjpass=sound'
p573
aS'nsubjpass=testimony'
p574
aS'nsubjpass=that'
p575
aS'nsubjpass=voice'
p576
aS'nsubjpass=volley'
p577
aS'nsubjpass=which'
p578
aS'nsubjpass=will'
p579
aS'nsubjpass=woman'
p580
aS'parataxis=fascinate'
p581
aS'parataxis=listen'
p582
aS'parataxis=try'
p583
aS'prep=about'
p584
aS'prep=above'
p585
aS'prep=across'
p586
aS'prep=after'
p587
aS'prep=against'
p588
aS'prep=along'
p589
aS'prep=american'
p590
aS'prep=among'
p591
aS'prep=around'
p592
aS'prep=as'
p593
aS'prep=at'
p594
aS'prep=base'
p595
aS'prep=before'
p596
aS'prep=by'
p597
aS'prep=during'
p598
aS'prep=for'
p599
aS'prep=from'
p600
aS'prep=in'
p601
aS'prep=include'
p602
aS'prep=into'
p603
aS'prep=like'
p604
aS'prep=near'
p605
aS'prep=of'
p606
aS'prep=on'
p607
aS'prep=outside'
p608
aS'prep=over'
p609
aS'prep=since'
p610
aS'prep=that'
p611
aS'prep=through'
p612
aS'prep=throughout'
p613
aS'prep=to'
p614
aS'prep=under'
p615
aS'prep=until'
p616
aS'prep=while'
p617
aS'prep=with'
p618
aS'prep=without'
p619
aS'prt=out'
p620
aS'prt=up'
p621
aS'rel=during'
p622
aS'rel=in'
p623
aS'tmod=#DATE#'
p624
aS'tmod=day'
p625
aS'tmod=month'
p626
aS'tmod=morning'
p627
aS'tmod=night'
p628
aS'tmod=someone'
p629
aS'tmod=time'
p630
aS'tmod=today'
p631
aS'tmod=week'
p632
aS'tmod=yesterday'
p633
aS"w+1=''"
p634
aS'w+1=,'
p635
aS'w+1=-lrb-'
p636
aS'w+1=.'
p637
aS'w+1=10'
p638
aS'w+1=:'
p639
aS'w+1=?'
p640
aS'w+1=Bruce'
p641
aS'w+1=Congress'
p642
aS'w+1=Doc'
p643
aS'w+1=Earle'
p644
aS'w+1=English'
p645
aS'w+1=GM'
p646
aS'w+1=General'
p647
aS'w+1=Hindi'
p648
aS'w+1=I'
p649
aS'w+1=Iraqis'
p650
aS'w+1=Israel'
p651
aS'w+1=Jal'
p652
aS'w+1=Justice'
p653
aS'w+1=King'
p654
aS'w+1=Kym'
p655
aS'w+1=Mr.'
p656
aS'w+1=North'
p657
aS'w+1=President'
p658
aS'w+1=Russians'
p659
aS'w+1=Saddam'
p660
aS'w+1=Serbia'
p661
aS'w+1=Slobodan'
p662
aS'w+1=Thursday'
p663
aS'w+1=Wednesday'
p664
aS'w+1=a'
p665
aS'w+1=about'
p666
aS'w+1=above'
p667
aS'w+1=across'
p668
aS'w+1=adult'
p669
aS'w+1=african'
p670
aS'w+1=again'
p671
aS'w+1=all'
p672
aS'w+1=along'
p673
aS'w+1=already'
p674
aS'w+1=among'
p675
aS'w+1=and'
p676
aS'w+1=angry'
p677
aS'w+1=another'
p678
aS'w+1=any'
p679
aS'w+1=anybody'
p680
aS'w+1=anything'
p681
aS'w+1=appeal'
p682
aS'w+1=applaud'
p683
aS'w+1=argument'
p684
aS'w+1=around'
p685
aS'w+1=as'
p686
aS'w+1=at'
p687
aS'w+1=audio'
p688
aS'w+1=back'
p689
aS'w+1=be'
p690
aS'w+1=before'
p691
aS'w+1=bluegrass'
p692
aS'w+1=bond'
p693
aS'w+1=both'
p694
aS'w+1=by'
p695
aS'w+1=call'
p696
aS'w+1=case'
p697
aS'w+1=certain'
p698
aS'w+1=chant'
p699
aS'w+1=charge'
p700
aS'w+1=child'
p701
aS'w+1=clear'
p702
aS'w+1=comment'
p703
aS'w+1=complaint'
p704
aS'w+1=concern'
p705
aS'w+1=concrete'
p706
aS'w+1=corruption'
p707
aS'w+1=country'
p708
aS'w+1=criticism'
p709
aS'w+1=dialect'
p710
aS'w+1=directly'
p711
aS'w+1=during'
p712
aS'w+1=enough'
p713
aS'w+1=eventually'
p714
aS'w+1=everyday'
p715
aS'w+1=everything'
p716
aS'w+1=explosion'
p717
aS'w+1=filing'
p718
aS'w+1=form'
p719
aS'w+1=from'
p720
aS'w+1=further'
p721
aS'w+1=general'
p722
aS'w+1=gunfire'
p723
aS'w+1=gunshot'
p724
aS'w+1=habeas'
p725
aS'w+1=harsh'
p726
aS'w+1=have'
p727
aS'w+1=he'
p728
aS'w+1=helicopter'
p729
aS'w+1=here'
p730
aS'w+1=high'
p731
aS'w+1=himself'
p732
aS'w+1=how'
p733
aS'w+1=if'
p734
aS'w+1=in'
p735
aS'w+1=increasingly'
p736
aS'w+1=indicate'
p737
aS'w+1=involve'
p738
aS'w+1=it'
p739
aS'w+1=its'
p740
aS'w+1=japanese'
p741
aS'w+1=jazz'
p742
aS'w+1=just'
p743
aS'w+1=last'
p744
aS'w+1=leader'
p745
aS'w+1=legendary'
p746
aS'w+1=little'
p747
aS'w+1=loud'
p748
aS'w+1=major'
p749
aS'w+1=many'
p750
aS'w+1=member'
p751
aS'w+1=more'
p752
aS'w+1=much'
p753
aS'w+1=music'
p754
aS'w+1=my'
p755
aS'w+1=near'
p756
aS'w+1=new'
p757
aS'w+1=no'
p758
aS'w+1=not'
p759
aS'w+1=nothing'
p760
aS'w+1=number'
p761
aS'w+1=of'
p762
aS'w+1=on'
p763
aS'w+1=one'
p764
aS'w+1=only'
p765
aS'w+1=or'
p766
aS'w+1=oral'
p767
aS'w+1=order'
p768
aS'w+1=out'
p769
aS'w+1=outside'
p770
aS'w+1=over'
p771
aS'w+1=people'
p772
aS'w+1=personal'
p773
aS'w+1=petition'
p774
aS'w+1=politician'
p775
aS'w+1=position'
p776
aS'w+1=positive'
p777
aS'w+1=public'
p778
aS'w+1=record'
p779
aS'w+1=report'
p780
aS'w+1=rock'
p781
aS'w+1=rumor'
p782
aS'w+1=say'
p783
aS'w+1=sentence'
p784
aS'w+1=several'
p785
aS'w+1=she'
p786
aS'w+1=shooting'
p787
aS'w+1=shout'
p788
aS'w+1=shutter'
p789
aS'w+1=similar'
p790
aS'w+1=so'
p791
aS'w+1=some'
p792
aS'w+1=somebody'
p793
aS'w+1=something'
p794
aS'w+1=sometime'
p795
aS'w+1=sound'
p796
aS'w+1=speak'
p797
aS'w+1=sporadic'
p798
aS'w+1=story'
p799
aS'w+1=streaming'
p800
aS'w+1=strong'
p801
aS'w+1=such'
p802
aS'w+1=tale'
p803
aS'w+1=talk'
p804
aS'w+1=tell'
p805
aS'w+1=testimony'
p806
aS'w+1=that'
p807
aS'w+1=the'
p808
aS'w+1=there'
p809
aS'w+1=these'
p810
aS'w+1=they'
p811
aS'w+1=thing'
p812
aS'w+1=this'
p813
aS'w+1=those'
p814
aS'w+1=three'
p815
aS'w+1=through'
p816
aS'w+1=throughout'
p817
aS'w+1=to'
p818
aS'w+1=today'
p819
aS'w+1=tree'
p820
aS'w+1=two'
p821
aS'w+1=up'
p822
aS'w+1=very'
p823
aS'w+1=voice'
p824
aS'w+1=well'
p825
aS'w+1=well-respected'
p826
aS'w+1=what'
p827
aS'w+1=when'
p828
aS'w+1=where'
p829
aS'w+1=whether'
p830
aS'w+1=with'
p831
aS'w+1=without'
p832
aS'w+1=witness'
p833
aS'w+1=word'
p834
aS'w+1=you'
p835
aS'w+2=$'
p836
aS"w+2='"
p837
aS"w+2=''"
p838
aS"w+2='s"
p839
aS'w+2=,'
p840
aS'w+2=-'
p841
aS'w+2=.'
p842
aS'w+2=...'
p843
aS'w+2=40-year-old'
p844
aS'w+2=:'
p845
aS'w+2=?'
p846
aS'w+2=Act'
p847
aS'w+2=Beijing'
p848
aS'w+2=Birak'
p849
aS'w+2=Black'
p850
aS'w+2=Bo'
p851
aS'w+2=Bush'
p852
aS'w+2=California'
p853
aS'w+2=Cambodia'
p854
aS'w+2=Capitol'
p855
aS'w+2=Chaudhry'
p856
aS'w+2=Chemical'
p857
aS'w+2=Ciuga'
p858
aS'w+2=Coast'
p859
aS'w+2=DRC'
p860
aS'w+2=David'
p861
aS'w+2=Delta'
p862
aS'w+2=Dube'
p863
aS'w+2=General'
p864
aS'w+2=Guinea'
p865
aS'w+2=Harlem'
p866
aS'w+2=Hornsby'
p867
aS'w+2=I'
p868
aS'w+2=IMF'
p869
aS'w+2=Iggy'
p870
aS'w+2=Iraqis'
p871
aS'w+2=Jackson'
p872
aS'w+2=Jesse'
p873
aS'w+2=Juan'
p874
aS'w+2=Kang'
p875
aS'w+2=Kangerlussuak'
p876
aS'w+2=Keith'
p877
aS'w+2=Korea'
p878
aS'w+2=Kurds'
p879
aS'w+2=Merwin'
p880
aS'w+2=Mike'
p881
aS'w+2=Miles'
p882
aS'w+2=Milsoevic'
p883
aS'w+2=Mozambique'
p884
aS'w+2=Muslims'
p885
aS'w+2=North'
p886
aS'w+2=Obama'
p887
aS'w+2=Petraeus'
p888
aS'w+2=President'
p889
aS'w+2=Prime'
p890
aS'w+2=Puerto'
p891
aS'w+2=Radio'
p892
aS'w+2=Republicans'
p893
aS'w+2=Richard'
p894
aS'w+2=Robert'
p895
aS'w+2=Senator'
p896
aS'w+2=Shabbab'
p897
aS'w+2=Supreme'
p898
aS'w+2=Tendai'
p899
aS'w+2=U.S.'
p900
aS'w+2=Warner'
p901
aS'w+2=Watson'
p902
aS'w+2=Wednesday'
p903
aS'w+2=Youth'
p904
aS'w+2=`'
p905
aS'w+2=a'
p906
aS'w+2=about'
p907
aS'w+2=admiral'
p908
aS'w+2=after'
p909
aS'w+2=afternoon'
p910
aS'w+2=again'
p911
aS'w+2=alarm'
p912
aS'w+2=all'
p913
aS'w+2=along'
p914
aS'w+2=alumnus'
p915
aS'w+2=ambitious'
p916
aS'w+2=american'
p917
aS'w+2=and'
p918
aS'w+2=anger'
p919
aS'w+2=any'
p920
aS'w+2=appeal'
p921
aS'w+2=argument'
p922
aS'w+2=as'
p923
aS'w+2=assessment'
p924
aS'w+2=at'
p925
aS'w+2=atrocity'
p926
aS'w+2=attack'
p927
aS'w+2=band'
p928
aS'w+2=base'
p929
aS'w+2=be'
p930
aS'w+2=because'
p931
aS'w+2=before'
p932
aS'w+2=between'
p933
aS'w+2=big'
p934
aS'w+2=bird'
p935
aS'w+2=blast'
p936
aS'w+2=bloodcurdle'
p937
aS'w+2=bomb'
p938
aS'w+2=both'
p939
aS'w+2=bring'
p940
aS'w+2=british'
p941
aS'w+2=burma'
p942
aS'w+2=but'
p943
aS'w+2=by'
p944
aS'w+2=cabinet'
p945
aS'w+2=call'
p946
aS'w+2=case'
p947
aS'w+2=challenge'
p948
aS'w+2=chant'
p949
aS'w+2=charge'
p950
aS'w+2=child'
p951
aS'w+2=clamor'
p952
aS'w+2=clear'
p953
aS'w+2=clearly'
p954
aS'w+2=close'
p955
aS'w+2=closure'
p956
aS'w+2=come'
p957
aS'w+2=commander'
p958
aS'w+2=comment'
p959
aS'w+2=commission'
p960
aS'w+2=complaint'
p961
aS'w+2=completely'
p962
aS'w+2=concern'
p963
aS'w+2=concrete'
p964
aS'w+2=conflict'
p965
aS'w+2=consider'
p966
aS'w+2=corpus'
p967
aS'w+2=correspondent'
p968
aS'w+2=country'
p969
aS'w+2=court'
p970
aS'w+2=criticism'
p971
aS'w+2=criticize'
p972
aS'w+2=cry'
p973
aS'w+2=debate'
p974
aS'w+2=deliver'
p975
aS'w+2=demand'
p976
aS'w+2=describe'
p977
aS'w+2=determine'
p978
aS'w+2=difference'
p979
aS'w+2=difficulty'
p980
aS'w+2=diplomat'
p981
aS'w+2=directly'
p982
aS'w+2=dissident'
p983
aS'w+2=distorted'
p984
aS'w+2=do'
p985
aS'w+2=down'
p986
aS'w+2=duo'
p987
aS'w+2=during'
p988
aS'w+2=election'
p989
aS'w+2=european'
p990
aS'w+2=even'
p991
aS'w+2=evidence'
p992
aS'w+2=expert'
p993
aS'w+2=explosion'
p994
aS'w+2=express'
p995
aS'w+2=fanfare'
p996
aS'w+2=fervent'
p997
aS'w+2=few'
p998
aS'w+2=file'
p999
aS'w+2=filmmaker'
p1000
aS'w+2=first'
p1001
aS'w+2=foolish'
p1002
aS'w+2=for'
p1003
aS'w+2=former'
p1004
aS'w+2=french'
p1005
aS'w+2=frequency'
p1006
aS'w+2=from'
p1007
aS'w+2=german'
p1008
aS'w+2=ghost'
p1009
aS'w+2=gospel'
p1010
aS'w+2=government'
p1011
aS'w+2=group'
p1012
aS'w+2=gunshot'
p1013
aS'w+2=habeas'
p1014
aS'w+2=have'
p1015
aS'w+2=he'
p1016
aS'w+2=heavy'
p1017
aS'w+2=here'
p1018
aS'w+2=how'
p1019
aS'w+2=idea'
p1020
aS'w+2=if'
p1021
aS'w+2=in'
p1022
aS'w+2=inmate'
p1023
aS'w+2=inside'
p1024
aS'w+2=insurgent'
p1025
aS'w+2=intense'
p1026
aS'w+2=into'
p1027
aS'w+2=iraqi'
p1028
aS'w+2=it'
p1029
aS'w+2=jet'
p1030
aS'w+2=lead'
p1031
aS'w+2=leader'
p1032
aS'w+2=less'
p1033
aS'w+2=lesson'
p1034
aS'w+2=like'
p1035
aS'w+2=listen'
p1036
aS'w+2=lot'
p1037
aS'w+2=loud'
p1038
aS'w+2=loudly'
p1039
aS'w+2=mainstream'
p1040
aS'w+2=majority'
p1041
aS'w+2=make'
p1042
aS'w+2=many'
p1043
aS'w+2=message'
p1044
aS'w+2=more'
p1045
aS'w+2=morning'
p1046
aS'w+2=most'
p1047
aS'w+2=much'
p1048
aS'w+2=music'
p1049
aS'w+2=name'
p1050
aS'w+2=near'
p1051
aS'w+2=nearly'
p1052
aS'w+2=negative'
p1053
aS'w+2=new'
p1054
aS'w+2=news'
p1055
aS'w+2=night'
p1056
aS'w+2=nightingale'
p1057
aS'w+2=now'
p1058
aS'w+2=of'
p1059
aS'w+2=official'
p1060
aS'w+2=old'
p1061
aS'w+2=on'
p1062
aS'w+2=one'
p1063
aS'w+2=only'
p1064
aS'w+2=opinion'
p1065
aS'w+2=opponent'
p1066
aS'w+2=opposition'
p1067
aS'w+2=or'
p1068
aS'w+2=other'
p1069
aS'w+2=out'
p1070
aS'w+2=outcome'
p1071
aS'w+2=overrule'
p1072
aS'w+2=parent'
p1073
aS'w+2=parliament'
p1074
aS'w+2=passersby'
p1075
aS'w+2=past'
p1076
aS'w+2=people'
p1077
aS'w+2=perform'
p1078
aS'w+2=perspective'
p1079
aS'w+2=piece'
p1080
aS'w+2=plan'
p1081
aS'w+2=play'
p1082
aS'w+2=politician'
p1083
aS'w+2=pop'
p1084
aS'w+2=pope'
p1085
aS'w+2=pretty'
p1086
aS'w+2=prime'
p1087
aS'w+2=public'
p1088
aS'w+2=quality'
p1089
aS'w+2=queen'
p1090
aS'w+2=radio'
p1091
aS'w+2=rattle'
p1092
aS'w+2=read'
p1093
aS'w+2=really'
p1094
aS'w+2=recommendation'
p1095
aS'w+2=record'
p1096
aS'w+2=recording'
p1097
aS'w+2=report'
p1098
aS'w+2=research'
p1099
aS'w+2=resident'
p1100
aS'w+2=rule'
p1101
aS'w+2=russian'
p1102
aS'w+2=same'
p1103
aS'w+2=say'
p1104
aS'w+2=school'
p1105
aS'w+2=secretary'
p1106
aS'w+2=secretary-general'
p1107
aS'w+2=see'
p1108
aS'w+2=senegalese'
p1109
aS'w+2=separate'
p1110
aS'w+2=several'
p1111
aS'w+2=she'
p1112
aS'w+2=signal'
p1113
aS'w+2=since'
p1114
aS'w+2=singing'
p1115
aS'w+2=small'
p1116
aS'w+2=snap'
p1117
aS'w+2=solution'
p1118
aS'w+2=some'
p1119
aS'w+2=someone'
p1120
aS'w+2=somewhere'
p1121
aS'w+2=song'
p1122
aS'w+2=sort'
p1123
aS'w+2=sound'
p1124
aS'w+2=speak'
p1125
aS'w+2=speech'
p1126
aS'w+2=star'
p1127
aS'w+2=statement'
p1128
aS'w+2=story'
p1129
aS'w+2=such'
p1130
aS'w+2=taunt'
p1131
aS'w+2=that'
p1132
aS'w+2=the'
p1133
aS'w+2=there'
p1134
aS'w+2=these'
p1135
aS'w+2=they'
p1136
aS'w+2=thing'
p1137
aS'w+2=this'
p1138
aS'w+2=those'
p1139
aS'w+2=threat'
p1140
aS'w+2=three-hour'
p1141
aS'w+2=through'
p1142
aS'w+2=to'
p1143
aS'w+2=today'
p1144
aS'w+2=tone'
p1145
aS'w+2=transfer'
p1146
aS'w+2=true'
p1147
aS'w+2=truth'
p1148
aS'w+2=try'
p1149
aS'w+2=tune'
p1150
aS'w+2=turkish'
p1151
aS'w+2=two'
p1152
aS'w+2=ultimate'
p1153
aS'w+2=urgent'
p1154
aS'w+2=very'
p1155
aS'w+2=view'
p1156
aS'w+2=vocalist'
p1157
aS'w+2=voice'
p1158
aS'w+2=voter'
p1159
aS'w+2=we'
p1160
aS'w+2=week'
p1161
aS'w+2=well'
p1162
aS'w+2=whatever'
p1163
aS'w+2=when'
p1164
aS'w+2=where'
p1165
aS'w+2=whites'
p1166
aS'w+2=who'
p1167
aS'w+2=will'
p1168
aS'w+2=wish'
p1169
aS'w+2=with'
p1170
aS'w+2=without'
p1171
aS'w+2=word'
p1172
aS'w+2=world'
p1173
aS'w+2=worry'
p1174
aS'w+2=would'
p1175
aS'w+2=you'
p1176
aS"w-1=''"
p1177
aS"w-1='ll"
p1178
aS'w-1=,'
p1179
aS'w-1=-'
p1180
aS'w-1=.'
p1181
aS'w-1=:'
p1182
aS'w-1=Americans'
p1183
aS'w-1=Committee'
p1184
aS'w-1=Democrats'
p1185
aS'w-1=Foster'
p1186
aS'w-1=Hill'
p1187
aS'w-1=Horton'
p1188
aS'w-1=I'
p1189
aS'w-1=Jeanna'
p1190
aS'w-1=Kankuran'
p1191
aS'w-1=Representatives'
p1192
aS'w-1=Review'
p1193
aS'w-1=Rice'
p1194
aS'w-1=Richard'
p1195
aS'w-1=Subcommittee'
p1196
aS'w-1=Tabacaru'
p1197
aS'w-1=actually'
p1198
aS'w-1=after'
p1199
aS'w-1=all'
p1200
aS'w-1=already'
p1201
aS'w-1=also'
p1202
aS'w-1=always'
p1203
aS'w-1=and'
p1204
aS'w-1=appropriation'
p1205
aS'w-1=at'
p1206
aS'w-1=barely'
p1207
aS'w-1=be'
p1208
aS'w-1=begin'
p1209
aS'w-1=bird'
p1210
aS'w-1=both'
p1211
aS'w-1=can'
p1212
aS'w-1=case'
p1213
aS'w-1=committee'
p1214
aS'w-1=commonly'
p1215
aS'w-1=could'
p1216
aS'w-1=council'
p1217
aS'w-1=delegation'
p1218
aS'w-1=do'
p1219
aS'w-1=elephant'
p1220
aS'w-1=even'
p1221
aS'w-1=ever'
p1222
aS'w-1=fiddle'
p1223
aS'w-1=fire'
p1224
aS'w-1=first'
p1225
aS'w-1=frequently'
p1226
aS'w-1=from'
p1227
aS'w-1=get'
p1228
aS'w-1=have'
p1229
aS'w-1=he'
p1230
aS'w-1=ignore'
p1231
aS'w-1=in'
p1232
aS'w-1=increasingly'
p1233
aS'w-1=influence'
p1234
aS'w-1=judge'
p1235
aS'w-1=just'
p1236
aS'w-1=justice'
p1237
aS'w-1=keep'
p1238
aS'w-1=lawmaker'
p1239
aS'w-1=listener'
p1240
aS'w-1=longer'
p1241
aS'w-1=member'
p1242
aS'w-1=music'
p1243
aS'w-1=must'
p1244
aS'w-1=never'
p1245
aS'w-1=nor'
p1246
aS'w-1=not'
p1247
aS'w-1=of'
p1248
aS'w-1=often'
p1249
aS'w-1=one'
p1250
aS'w-1=only'
p1251
aS'w-1=or'
p1252
aS'w-1=ordinarily'
p1253
aS'w-1=otherwise'
p1254
aS'w-1=panel'
p1255
aS'w-1=patrol'
p1256
aS'w-1=people'
p1257
aS'w-1=president'
p1258
aS'w-1=public'
p1259
aS'w-1=repeatedly'
p1260
aS'w-1=report'
p1261
aS'w-1=reportedly'
p1262
aS'w-1=say'
p1263
aS'w-1=seldom'
p1264
aS'w-1=she'
p1265
aS'w-1=should'
p1266
aS'w-1=slowly'
p1267
aS'w-1=start'
p1268
aS'w-1=that'
p1269
aS'w-1=themselves'
p1270
aS'w-1=they'
p1271
aS'w-1=time'
p1272
aS'w-1=to'
p1273
aS'w-1=trial'
p1274
aS'w-1=until'
p1275
aS'w-1=usually'
p1276
aS'w-1=visitor'
p1277
aS'w-1=voice'
p1278
aS'w-1=war'
p1279
aS'w-1=we'
p1280
aS'w-1=which'
p1281
aS'w-1=who'
p1282
aS'w-1=will'
p1283
aS'w-1=witness'
p1284
aS'w-1=worker'
p1285
aS'w-1=world'
p1286
aS'w-1=would'
p1287
aS'w-1=you'
p1288
aS'w-2=!'
p1289
aS"w-2='"
p1290
aS"w-2=''"
p1291
aS"w-2='s"
p1292
aS'w-2=,'
p1293
aS'w-2=-rrb-'
p1294
aS'w-2=.'
p1295
aS'w-2=1977'
p1296
aS'w-2=:'
p1297
aS'w-2=;'
p1298
aS'w-2=?'
p1299
aS'w-2=Abuja'
p1300
aS'w-2=Affairs'
p1301
aS'w-2=Americans'
p1302
aS'w-2=Appropriations'
p1303
aS'w-2=Arafat'
p1304
aS'w-2=Beijing'
p1305
aS'w-2=Bhutto'
p1306
aS'w-2=Capitol'
p1307
aS'w-2=Catinca'
p1308
aS'w-2=Commission'
p1309
aS'w-2=Committee'
p1310
aS'w-2=Congress'
p1311
aS'w-2=Court'
p1312
aS'w-2=Democrats'
p1313
aS'w-2=Hamburg'
p1314
aS'w-2=House'
p1315
aS'w-2=I'
p1316
aS'w-2=Iraq'
p1317
aS'w-2=Iraqis'
p1318
aS'w-2=Judiciary'
p1319
aS'w-2=Kouchner'
p1320
aS'w-2=Koukou'
p1321
aS'w-2=Le'
p1322
aS'w-2=Paolo'
p1323
aS'w-2=Philadelphians'
p1324
aS'w-2=Pierre'
p1325
aS'w-2=Preservation'
p1326
aS'w-2=Rice'
p1327
aS'w-2=Saheed'
p1328
aS'w-2=Sarkozy'
p1329
aS'w-2=Sawa'
p1330
aS'w-2=Senate'
p1331
aS'w-2=September'
p1332
aS'w-2=Status'
p1333
aS'w-2=Thursday'
p1334
aS'w-2=Trio'
p1335
aS'w-2=Tuesday'
p1336
aS'w-2=Udeogaranya'
p1337
aS'w-2=Vogelaar'
p1338
aS'w-2=Wednesday'
p1339
aS'w-2=``'
p1340
aS'w-2=a'
p1341
aS'w-2=ability'
p1342
aS'w-2=after'
p1343
aS'w-2=agree'
p1344
aS'w-2=also'
p1345
aS'w-2=american'
p1346
aS'w-2=and'
p1347
aS'w-2=appal'
p1348
aS'w-2=appreciation'
p1349
aS'w-2=approach'
p1350
aS'w-2=as'
p1351
aS'w-2=ashamed'
p1352
aS'w-2=association'
p1353
aS'w-2=audience'
p1354
aS'w-2=back'
p1355
aS'w-2=ban'
p1356
aS'w-2=be'
p1357
aS'w-2=bear'
p1358
aS'w-2=because'
p1359
aS'w-2=begin'
p1360
aS'w-2=believe'
p1361
aS'w-2=both'
p1362
aS'w-2=boycott'
p1363
aS'w-2=building'
p1364
aS'w-2=but'
p1365
aS'w-2=by'
p1366
aS'w-2=camel'
p1367
aS'w-2=can'
p1368
aS'w-2=case'
p1369
aS'w-2=chinese'
p1370
aS'w-2=clearly'
p1371
aS'w-2=click'
p1372
aS'w-2=come'
p1373
aS'w-2=comment'
p1374
aS'w-2=commission'
p1375
aS'w-2=committee'
p1376
aS'w-2=concern'
p1377
aS'w-2=conference'
p1378
aS'w-2=congressional'
p1379
aS'w-2=continue'
p1380
aS'w-2=convene'
p1381
aS'w-2=converge'
p1382
aS'w-2=could'
p1383
aS'w-2=counter-productive'
p1384
aS'w-2=country'
p1385
aS'w-2=court'
p1386
aS'w-2=day'
p1387
aS'w-2=declaration'
p1388
aS'w-2=deeper'
p1389
aS'w-2=delegate'
p1390
aS'w-2=difficult'
p1391
aS'w-2=do'
p1392
aS'w-2=document'
p1393
aS'w-2=e'
p1394
aS'w-2=easy'
p1395
aS'w-2=encourage'
p1396
aS'w-2=especially'
p1397
aS'w-2=everybody'
p1398
aS'w-2=everyone'
p1399
aS'w-2=evidence'
p1400
aS'w-2=expect'
p1401
aS'w-2=experience'
p1402
aS'w-2=explosion'
p1403
aS'w-2=forward'
p1404
aS'w-2=free'
p1405
aS'w-2=from'
p1406
aS'w-2=gather'
p1407
aS'w-2=get'
p1408
aS'w-2=glad'
p1409
aS'w-2=go'
p1410
aS'w-2=government'
p1411
aS'w-2=gratifying'
p1412
aS'w-2=gunshot'
p1413
aS'w-2=h'
p1414
aS'w-2=happy'
p1415
aS'w-2=hard'
p1416
aS'w-2=harder'
p1417
aS'w-2=have'
p1418
aS'w-2=he'
p1419
aS'w-2=heat'
p1420
aS'w-2=herder'
p1421
aS'w-2=hope'
p1422
aS'w-2=if'
p1423
aS'w-2=incoming'
p1424
aS'w-2=increasingly'
p1425
aS'w-2=interested'
p1426
aS'w-2=interesting'
p1427
aS'w-2=it'
p1428
aS'w-2=jazz'
p1429
aS'w-2=judge'
p1430
aS'w-2=lawmaker'
p1431
aS'w-2=liberation'
p1432
aS'w-2=like'
p1433
aS'w-2=likely'
p1434
aS'w-2=list'
p1435
aS'w-2=listen'
p1436
aS'w-2=live'
p1437
aS'w-2=love'
p1438
aS'w-2=make'
p1439
aS'w-2=mantra'
p1440
aS'w-2=many'
p1441
aS'w-2=may'
p1442
aS'w-2=mean'
p1443
aS'w-2=message'
p1444
aS'w-2=might'
p1445
aS'w-2=minute'
p1446
aS'w-2=mission'
p1447
aS'w-2=month'
p1448
aS'w-2=more'
p1449
aS'w-2=morning'
p1450
aS'w-2=most'
p1451
aS'w-2=music'
p1452
aS'w-2=musical'
p1453
aS'w-2=musician'
p1454
aS'w-2=must'
p1455
aS'w-2=my'
p1456
aS'w-2=nearby'
p1457
aS'w-2=need'
p1458
aS'w-2=neighborhood'
p1459
aS'w-2=never'
p1460
aS'w-2=no'
p1461
aS'w-2=not'
p1462
aS'w-2=nothing'
p1463
aS'w-2=now'
p1464
aS'w-2=observer'
p1465
aS'w-2=of'
p1466
aS'w-2=officer'
p1467
aS'w-2=often'
p1468
aS'w-2=one'
p1469
aS'w-2=other'
p1470
aS'w-2=ours'
p1471
aS'w-2=ourselves'
p1472
aS'w-2=overdue'
p1473
aS'w-2=people'
p1474
aS'w-2=petition'
p1475
aS'w-2=phone'
p1476
aS'w-2=pleased'
p1477
aS'w-2=pleasure'
p1478
aS'w-2=post'
p1479
aS'w-2=president'
p1480
aS'w-2=probably'
p1481
aS'w-2=problem'
p1482
aS'w-2=proceedings'
p1483
aS'w-2=radio'
p1484
aS'w-2=read'
p1485
aS'w-2=ready'
p1486
aS'w-2=refuse'
p1487
aS'w-2=reporter'
p1488
aS'w-2=rescue'
p1489
aS'w-2=sad'
p1490
aS'w-2=sadden'
p1491
aS'w-2=satisfaction'
p1492
aS'w-2=say'
p1493
aS'w-2=see'
p1494
aS'w-2=she'
p1495
aS'w-2=shell'
p1496
aS'w-2=shot'
p1497
aS'w-2=should'
p1498
aS'w-2=so'
p1499
aS'w-2=some'
p1500
aS'w-2=spot'
p1501
aS'w-2=square'
p1502
aS'w-2=stalwart'
p1503
aS'w-2=start'
p1504
aS'w-2=still'
p1505
aS'w-2=story'
p1506
aS'w-2=sudden'
p1507
aS'w-2=surprise'
p1508
aS'w-2=technology'
p1509
aS'w-2=that'
p1510
aS'w-2=the'
p1511
aS'w-2=then'
p1512
aS'w-2=they'
p1513
aS'w-2=thing'
p1514
aS'w-2=this'
p1515
aS'w-2=time'
p1516
aS'w-2=tired'
p1517
aS'w-2=to'
p1518
aS'w-2=tourist'
p1519
aS'w-2=try'
p1520
aS'w-2=tune'
p1521
aS'w-2=until'
p1522
aS'w-2=unusual'
p1523
aS'w-2=use'
p1524
aS'w-2=view'
p1525
aS'w-2=voice'
p1526
aS'w-2=voter'
p1527
aS'w-2=wait'
p1528
aS'w-2=wake'
p1529
aS'w-2=want'
p1530
aS'w-2=we'
p1531
aS'w-2=week'
p1532
aS'w-2=what'
p1533
aS'w-2=when'
p1534
aS'w-2=where'
p1535
aS'w-2=which'
p1536
aS'w-2=who'
p1537
aS'w-2=will'
p1538
aS'w-2=witness'
p1539
aS'w-2=woman'
p1540
aS'w-2=word'
p1541
aS'w-2=world'
p1542
aS'w-2=yesterday'
p1543
aS'w-2=you'
p1544
aS'xcomp=Miles'
p1545
aS'xcomp=able'
p1546
aS'xcomp=all'
p1547
aS'xcomp=applaud'
p1548
aS'xcomp=begin'
p1549
aS'xcomp=chant'
p1550
aS'xcomp=close'
p1551
aS'xcomp=consider'
p1552
aS'xcomp=convince'
p1553
aS'xcomp=cut'
p1554
aS'xcomp=deck'
p1555
aS'xcomp=determine'
p1556
aS'xcomp=engage'
p1557
aS'xcomp=get'
p1558
aS'xcomp=go'
p1559
aS'xcomp=greedy'
p1560
aS'xcomp=involve'
p1561
aS'xcomp=loud'
p1562
aS'xcomp=open'
p1563
aS'xcomp=rattle'
p1564
aS'xcomp=return'
p1565
aS'xcomp=save'
p1566
aS'xcomp=say'
p1567
aS'xcomp=tell'
p1568
aS'xcomp=trade'
p1569
aS'xcomp=yell'
p1570
asS'dtype'
p1571
cnumpy
float64
p1572
sS'vocabulary_'
p1573
(dp1574
g90
I81
sg384
I375
sg998
I989
sg1118
I1109
sg958
I949
sg943
I934
sg685
I676
sg1415
I1406
sg1468
I1459
sg1458
I1449
sg532
I523
sg1006
I997
sg734
I725
sg568
I559
sg1034
I1025
sg1374
I1365
sg942
I933
sg193
I184
sg1080
I1071
sg655
I646
sg1111
I1102
sg1283
I1274
sg636
I627
sg262
I253
sg760
I751
sg300
I291
sg493
I484
sg1126
I1117
sg739
I730
sg786
I777
sg1516
I1507
sg1535
I1526
sg459
I450
sg1089
I1080
sg494
I485
sg1537
I1528
sg540
I531
sg762
I753
sg763
I754
sg1085
I1076
sg1105
I1096
sg766
I757
sg196
I187
sg803
I794
sg804
I795
sg169
I160
sg1216
I1207
sg1176
I1167
sg592
I583
sg821
I812
sg1288
I1279
sg805
I796
sg15
I6
sg1510
I1501
sg808
I799
sg1201
I1192
sg1567
I1558
sg684
I675
sg781
I772
sg34
I25
sg98
I89
sg794
I785
sg155
I146
sg350
I341
sg18
I9
sg936
I927
sg1096
I1087
sg843
I834
sg447
I438
sg701
I692
sg346
I337
sg507
I498
sg227
I218
sg1266
I1257
sg521
I512
sg80
I71
sg81
I72
sg1220
I1211
sg410
I401
sg564
I555
sg1114
I1105
sg221
I212
sg385
I376
sg315
I306
sg604
I595
sg993
I984
sg654
I645
sg115
I106
sg1344
I1335
sg877
I868
sg1004
I995
sg1164
I1155
sg946
I937
sg529
I520
sg1335
I1326
sg602
I593
sg1108
I1099
sg212
I203
sg694
I685
sg683
I674
sg856
I847
sg1272
I1263
sg1273
I1264
sg1141
I1132
sg1225
I1216
sg318
I309
sg304
I295
sg1392
I1383
sg390
I381
sg263
I254
sg854
I845
sg835
I826
sg12
I3
sg1336
I1327
sg1046
I1037
sg1300
I1291
sg1198
I1189
sg1547
I1538
sg728
I719
sg913
I904
sg561
I552
sg682
I673
sg527
I518
sg1079
I1070
sg931
I922
sg477
I468
sg971
I962
sg1425
I1416
sg1564
I1555
sg176
I167
sg270
I261
sg375
I366
sg1250
I1241
sg940
I931
sg585
I576
sg1165
I1156
sg1457
I1448
sg241
I232
sg674
I665
sg96
I87
sg664
I655
sg1350
I1341
sg170
I161
sg515
I506
sg468
I459
sg662
I653
sg102
I93
sg1284
I1275
sg1363
I1354
sg280
I271
sg1110
I1101
sg415
I406
sg1090
I1081
sg756
I747
sg419
I410
sg226
I217
sg1318
I1309
sg252
I243
sg1088
I1079
sg607
I598
sg35
I26
sg351
I342
sg257
I248
sg1005
I996
sg914
I905
sg136
I127
sg268
I259
sg1245
I1236
sg282
I273
sg1477
I1468
sg776
I767
sg1410
I1401
sg405
I396
sg470
I461
sg1543
I1534
sg1447
I1438
sg570
I561
sg563
I554
sg1138
I1129
sg445
I436
sg1098
I1089
sg1094
I1085
sg492
I483
sg332
I323
sg888
I879
sg797
I788
sg1144
I1135
sg851
I842
sg1401
I1392
sg424
I415
sg538
I529
sg386
I377
sg1345
I1336
sg1054
I1045
sg608
I599
sg133
I124
sg825
I816
sg1505
I1496
sg1041
I1032
sg1423
I1414
sg1101
I1092
sg37
I28
sg1185
I1176
sg1428
I1419
sg17
I8
sg496
I487
sg363
I354
sg1052
I1043
sg475
I466
sg487
I478
sg981
I972
sg137
I128
sg1103
I1094
sg482
I473
sg177
I168
sg63
I54
sg1560
I1551
sg333
I324
sg1393
I1384
sg886
I877
sg953
I944
sg1319
I1310
sg1418
I1409
sg1421
I1412
sg26
I17
sg1236
I1227
sg56
I47
sg183
I174
sg1271
I1262
sg878
I869
sg1500
I1491
sg735
I726
sg325
I316
sg430
I421
sg960
I951
sg666
I657
sg1320
I1311
sg787
I778
sg1252
I1243
sg303
I294
sg641
I632
sg1121
I1112
sg307
I298
sg1433
I1424
sg1153
I1144
sg1270
I1261
sg330
I321
sg33
I24
sg448
I439
sg48
I39
sg1296
I1287
sg348
I339
sg290
I281
sg824
I815
sg1219
I1210
sg224
I215
sg801
I792
sg159
I150
sg1503
I1494
sg479
I470
sg979
I970
sg1087
I1078
sg217
I208
sg1097
I1088
sg904
I895
sg509
I500
sg1533
I1524
sg238
I229
sg646
I637
sg1347
I1338
sg41
I32
sg1327
I1318
sg188
I179
sg276
I267
sg429
I420
sg1070
I1061
sg1518
I1509
sg277
I268
sg1395
I1386
sg638
I629
sg73
I64
sg1469
I1460
sg1476
I1467
sg630
I621
sg71
I62
sg1146
I1137
sg378
I369
sg356
I347
sg826
I817
sg89
I80
sg489
I480
sg885
I876
sg1238
I1229
sg1175
I1166
sg439
I430
sg295
I286
sg1204
I1195
sg1234
I1225
sg345
I336
sg1092
I1083
sg1349
I1340
sg544
I535
sg791
I782
sg1020
I1011
sg106
I97
sg23
I14
sg1470
I1461
sg125
I116
sg1011
I1002
sg326
I317
sg1409
I1400
sg1407
I1398
sg1419
I1410
sg742
I733
sg539
I530
sg1369
I1360
sg1346
I1337
sg660
I651
sg272
I263
sg218
I209
sg610
I601
sg667
I658
sg643
I634
sg761
I752
sg587
I578
sg292
I283
sg362
I353
sg28
I19
sg1095
I1086
sg588
I579
sg1254
I1245
sg13
I4
sg501
I492
sg69
I60
sg1420
I1411
sg870
I861
sg1014
I1005
sg1200
I1191
sg778
I769
sg1069
I1060
sg220
I211
sg247
I238
sg1454
I1445
sg691
I682
sg1498
I1489
sg154
I145
sg959
I950
sg29
I20
sg162
I153
sg1197
I1188
sg236
I227
sg140
I131
sg1548
I1539
sg1166
I1157
sg461
I452
sg769
I760
sg1368
I1359
sg457
I448
sg703
I694
sg656
I647
sg334
I325
sg1417
I1408
sg471
I462
sg365
I356
sg1322
I1313
sg1036
I1027
sg1485
I1476
sg827
I818
sg108
I99
sg1190
I1181
sg322
I313
sg1531
I1522
sg770
I761
sg719
I710
sg873
I864
sg446
I437
sg1384
I1375
sg174
I165
sg421
I412
sg380
I371
sg933
I924
sg1488
I1479
sg275
I266
sg962
I953
sg1484
I1475
sg990
I981
sg506
I497
sg978
I969
sg1117
I1108
sg807
I798
sg1313
I1304
sg1263
I1254
sg571
I562
sg1209
I1200
sg929
I920
sg163
I154
sg104
I95
sg84
I75
sg1372
I1363
sg1030
I1021
sg1056
I1047
sg1276
I1267
sg495
I486
sg733
I724
sg338
I329
sg464
I455
sg1511
I1502
sg697
I688
sg22
I13
sg20
I11
sg746
I737
sg1351
I1342
sg893
I884
sg743
I734
sg921
I912
sg1194
I1185
sg1441
I1432
sg1001
I992
sg523
I514
sg301
I292
sg1229
I1220
sg1099
I1090
sg1331
I1322
sg1021
I1012
sg1333
I1324
sg1022
I1013
sg1532
I1523
sg1172
I1163
sg57
I48
sg1422
I1413
sg1078
I1069
sg852
I843
sg584
I575
sg119
I110
sg454
I445
sg783
I774
sg1259
I1250
sg833
I824
sg806
I797
sg94
I85
sg1107
I1098
sg194
I185
sg751
I742
sg420
I411
sg1183
I1174
sg1492
I1483
sg980
I971
sg402
I393
sg883
I874
sg614
I605
sg754
I745
sg1527
I1518
sg871
I862
sg1431
I1422
sg243
I234
sg991
I982
sg398
I389
sg983
I974
sg1019
I1010
sg502
I493
sg399
I390
sg1371
I1362
sg1003
I994
sg10
I1
sg1379
I1370
sg935
I926
sg444
I435
sg1160
I1151
sg316
I307
sg1294
I1285
sg271
I262
sg1060
I1051
sg1432
I1423
sg47
I38
sg113
I104
sg1507
I1498
sg409
I400
sg1386
I1377
sg1430
I1421
sg341
I332
sg1120
I1111
sg173
I164
sg393
I384
sg1142
I1133
sg1260
I1251
sg1506
I1497
sg623
I614
sg65
I56
sg1285
I1276
sg1084
I1075
sg541
I532
sg834
I825
sg1453
I1444
sg1038
I1029
sg467
I458
sg1148
I1139
sg1018
I1009
sg1355
I1346
sg250
I241
sg860
I851
sg908
I899
sg696
I687
sg203
I194
sg1255
I1246
sg609
I600
sg1074
I1065
sg1203
I1194
sg233
I224
sg575
I566
sg528
I519
sg370
I361
sg139
I130
sg1017
I1008
sg148
I139
sg1380
I1371
sg847
I838
sg100
I91
sg187
I178
sg1352
I1343
sg1495
I1486
sg520
I511
sg1275
I1266
sg1262
I1253
sg1496
I1487
sg134
I125
sg1128
I1119
sg581
I572
sg1526
I1517
sg157
I148
sg1169
I1160
sg264
I255
sg657
I648
sg1186
I1177
sg1213
I1204
sg895
I886
sg1104
I1095
sg472
I463
sg1091
I1082
sg1025
I1016
sg1214
I1205
sg251
I242
sg278
I269
sg374
I365
sg566
I557
sg669
I660
sg397
I388
sg789
I780
sg1491
I1482
sg949
I940
sg258
I249
sg265
I256
sg1343
I1334
sg580
I571
sg818
I809
sg955
I946
sg1557
I1548
sg414
I405
sg435
I426
sg558
I549
sg715
I706
sg68
I59
sg389
I380
sg853
I844
sg211
I202
sg78
I69
sg1127
I1118
sg1274
I1265
sg525
I516
sg331
I322
sg186
I177
sg775
I766
sg1412
I1403
sg1155
I1146
sg1483
I1474
sg1471
I1462
sg542
I533
sg246
I237
sg219
I210
sg1178
I1169
sg43
I34
sg245
I236
sg1139
I1130
sg799
I790
sg950
I941
sg625
I616
sg130
I121
sg413
I404
sg711
I702
sg919
I910
sg1452
I1443
sg281
I272
sg109
I100
sg299
I290
sg866
I857
sg569
I560
sg1043
I1034
sg1039
I1030
sg722
I713
sg416
I407
sg144
I135
sg388
I379
sg552
I543
sg534
I525
sg1207
I1198
sg1387
I1378
sg1398
I1389
sg248
I239
sg401
I392
sg1402
I1393
sg367
I358
sg210
I201
sg986
I977
sg145
I136
sg42
I33
sg1373
I1364
sg156
I147
sg884
I875
sg225
I216
sg545
I536
sg648
I639
sg1377
I1368
sg66
I57
sg524
I515
sg1390
I1381
sg466
I457
sg1267
I1258
sg975
I966
sg709
I700
sg1544
I1535
sg462
I453
sg730
I721
sg311
I302
sg1119
I1110
sg510
I501
sg862
I853
sg132
I123
sg1031
I1022
sg512
I503
sg590
I581
sg718
I709
sg253
I244
sg1264
I1255
sg1517
I1508
sg1360
I1351
sg536
I527
sg55
I46
sg757
I748
sg819
I810
sg1332
I1323
sg1456
I1447
sg394
I385
sg1444
I1435
sg95
I86
sg1466
I1457
sg161
I152
sg1205
I1196
sg530
I521
sg704
I695
sg260
I251
sg1528
I1519
sg267
I258
sg555
I546
sg1215
I1206
sg1033
I1024
sg1416
I1407
sg968
I959
sg551
I542
sg1193
I1184
sg595
I586
sg1282
I1273
sg1065
I1056
sg725
I716
sg773
I764
sg369
I360
sg355
I346
sg1381
I1372
sg171
I162
sg822
I813
sg1268
I1259
sg586
I577
sg1520
I1511
sg1307
I1298
sg284
I275
sg752
I743
sg831
I822
sg1559
I1550
sg198
I189
sg1293
I1284
sg1295
I1286
sg1290
I1281
sg387
I378
sg1289
I1280
sg180
I171
sg1299
I1290
sg1297
I1288
sg1298
I1289
sg327
I318
sg216
I207
sg172
I163
sg463
I454
sg1540
I1531
sg39
I30
sg741
I732
sg903
I894
sg644
I635
sg1414
I1405
sg1394
I1385
sg795
I786
sg1341
I1332
sg1305
I1296
sg199
I190
sg731
I722
sg1145
I1136
sg967
I958
sg1439
I1430
sg1475
I1466
sg27
I18
sg661
I652
sg1521
I1512
sg681
I672
sg52
I43
sg720
I711
sg456
I447
sg1435
I1426
sg1508
I1499
sg158
I149
sg713
I704
sg1370
I1361
sg749
I740
sg1246
I1237
sg948
I939
sg1434
I1425
sg1515
I1506
sg453
I444
sg1424
I1415
sg1222
I1213
sg900
I891
sg1221
I1212
sg574
I565
sg1397
I1388
sg600
I591
sg269
I260
sg952
I943
sg828
I819
sg1196
I1187
sg573
I564
sg103
I94
sg642
I633
sg996
I987
sg441
I432
sg418
I409
sg708
I699
sg632
I623
sg635
I626
sg637
I628
sg324
I315
sg639
I630
sg640
I631
sg261
I252
sg796
I787
sg321
I312
sg649
I640
sg1334
I1325
sg259
I250
sg665
I656
sg976
I967
sg101
I92
sg1359
I1350
sg1269
I1260
sg1525
I1516
sg559
I550
sg881
I872
sg517
I508
sg966
I957
sg1474
I1465
sg83
I74
sg483
I474
sg988
I979
sg379
I370
sg291
I282
sg354
I345
sg872
I863
sg549
I540
sg36
I27
sg312
I303
sg1064
I1055
sg1287
I1278
sg956
I947
sg951
I942
sg810
I801
sg765
I756
sg1406
I1397
sg1162
I1153
sg800
I791
sg1218
I1209
sg24
I15
sg947
I938
sg1125
I1116
sg1338
I1329
sg427
I418
sg816
I807
sg428
I419
sg352
I343
sg49
I40
sg969
I960
sg1012
I1003
sg627
I618
sg1143
I1134
sg729
I720
sg407
I398
sg1044
I1035
sg143
I134
sg167
I158
sg927
I918
sg1167
I1158
sg1072
I1063
sg308
I299
sg876
I867
sg215
I206
sg1028
I1019
sg626
I617
sg480
I471
sg1310
I1301
sg912
I903
sg1173
I1164
sg1168
I1159
sg404
I395
sg889
I880
sg759
I750
sg422
I413
sg811
I802
sg633
I624
sg814
I805
sg406
I397
sg601
I592
sg973
I964
sg1187
I1178
sg999
I990
sg1174
I1165
sg116
I107
sg849
I840
sg152
I143
sg434
I425
sg343
I334
sg1235
I1226
sg721
I712
sg254
I245
sg859
I850
sg788
I779
sg1411
I1402
sg1356
I1347
sg902
I893
sg1000
I991
sg736
I727
sg1232
I1223
sg562
I553
sg688
I679
sg214
I205
sg32
I23
sg77
I68
sg452
I443
sg1367
I1358
sg160
I151
sg1058
I1049
sg286
I277
sg513
I504
sg1541
I1532
sg1304
I1295
sg1037
I1028
sg383
I374
sg1049
I1040
sg294
I285
sg1361
I1352
sg179
I170
sg182
I173
sg875
I866
sg589
I580
sg531
I522
sg1279
I1270
sg848
I839
sg361
I352
sg850
I841
sg673
I664
sg941
I932
sg426
I417
sg381
I372
sg1529
I1520
sg1342
I1333
sg1403
I1394
sg433
I424
sg124
I115
sg686
I677
sg1035
I1026
sg687
I678
sg974
I965
sg651
I642
sg451
I442
sg79
I70
sg1212
I1203
sg716
I707
sg1239
I1230
sg829
I820
sg297
I288
sg114
I105
sg1546
I1537
sg1278
I1269
sg279
I270
sg175
I166
sg1463
I1454
sg1314
I1305
sg40
I31
sg488
I479
sg129
I120
sg1309
I1300
sg1241
I1232
sg909
I900
sg1465
I1456
sg1328
I1319
sg897
I888
sg107
I98
sg809
I800
sg1455
I1446
sg400
I391
sg458
I449
sg1137
I1128
sg740
I731
sg560
I551
sg937
I928
sg443
I434
sg1177
I1168
sg647
I638
sg1040
I1031
sg693
I684
sg628
I619
sg1563
I1554
sg1451
I1442
sg1481
I1472
sg231
I222
sg553
I544
sg1122
I1113
sg820
I811
sg668
I659
sg1291
I1282
sg9
I0
sg945
I936
sg437
I428
sg1042
I1033
sg1157
I1148
sg1109
I1100
sg235
I226
sg46
I37
sg1129
I1120
sg550
I541
sg237
I228
sg242
I233
sg917
I908
sg1292
I1283
sg865
I856
sg30
I21
sg652
I643
sg548
I539
sg423
I414
sg1324
I1315
sg1461
I1452
sg1023
I1014
sg879
I870
sg1051
I1042
sg408
I399
sg702
I693
sg1163
I1154
sg353
I344
sg1116
I1107
sg366
I357
sg339
I330
sg1536
I1527
sg342
I333
sg891
I882
sg74
I65
sg1556
I1547
sg613
I604
sg617
I608
sg76
I67
sg1323
I1314
sg915
I906
sg1426
I1417
sg127
I118
sg579
I570
sg289
I280
sg25
I16
sg618
I609
sg997
I988
sg1147
I1138
sg706
I697
sg51
I42
sg229
I220
sg1480
I1471
sg985
I976
sg692
I683
sg1151
I1142
sg436
I427
sg274
I265
sg1199
I1190
sg1552
I1543
sg1478
I1469
sg887
I878
sg474
I465
sg1330
I1321
sg972
I963
sg131
I122
sg695
I686
sg547
I538
sg690
I681
sg699
I690
sg255
I246
sg347
I338
sg1311
I1302
sg812
I803
sg1253
I1244
sg565
I556
sg747
I738
sg1494
I1485
sg1530
I1521
sg519
I510
sg965
I956
sg874
I865
sg120
I111
sg319
I310
sg1303
I1294
sg1473
I1464
sg287
I278
sg1202
I1193
sg861
I852
sg288
I279
sg963
I954
sg1131
I1122
sg582
I573
sg209
I200
sg606
I597
sg1149
I1140
sg368
I359
sg869
I860
sg1057
I1048
sg314
I305
sg890
I881
sg1550
I1541
sg503
I494
sg1383
I1374
sg1438
I1429
sg497
I488
sg989
I980
sg1460
I1451
sg190
I181
sg992
I983
sg543
I534
sg832
I823
sg1132
I1123
sg1570
I1561
sg918
I909
sg1408
I1399
sg1437
I1428
sg205
I196
sg1083
I1074
sg1301
I1292
sg230
I221
sg1248
I1239
sg1449
I1440
sg234
I225
sg31
I22
sg1029
I1020
sg59
I50
sg813
I804
sg1093
I1084
sg313
I304
sg1010
I1001
sg92
I83
sg1389
I1380
sg1027
I1018
sg522
I513
sg1538
I1529
sg1032
I1023
sg1509
I1500
sg192
I183
sg591
I582
sg1462
I1453
sg1464
I1455
sg670
I661
sg995
I986
sg359
I350
sg153
I144
sg554
I545
sg1353
I1344
sg1375
I1366
sg723
I714
sg732
I723
sg1429
I1420
sg1472
I1463
sg1442
I1433
sg395
I386
sg982
I973
sg712
I703
sg1549
I1540
sg1539
I1530
sg1210
I1201
sg1522
I1513
sg222
I213
sg336
I327
sg1312
I1303
sg916
I907
sg1134
I1125
sg302
I293
sg340
I331
sg987
I978
sg663
I654
sg1115
I1106
sg516
I507
sg465
I456
sg1106
I1097
sg1231
I1222
sg1244
I1235
sg473
I464
sg1015
I1006
sg491
I482
sg892
I883
sg1171
I1162
sg1542
I1533
sg1337
I1328
sg508
I499
sg1237
I1228
sg1555
I1546
sg138
I129
sg293
I284
sg1519
I1510
sg178
I169
sg117
I108
sg126
I117
sg567
I558
sg1251
I1242
sg1050
I1041
sg745
I736
sg310
I301
sg82
I73
sg1047
I1038
sg659
I650
sg907
I898
sg598
I589
sg1188
I1179
sg939
I930
sg1247
I1238
sg1321
I1312
sg537
I528
sg1391
I1382
sg197
I188
sg118
I109
sg1150
I1141
sg596
I587
sg784
I775
sg1308
I1299
sg122
I113
sg181
I172
sg141
I132
sg283
I274
sg994
I985
sg777
I768
sg320
I311
sg91
I82
sg469
I460
sg526
I517
sg112
I103
sg611
I602
sg653
I644
sg329
I320
sg1512
I1503
sg1514
I1505
sg546
I537
sg1513
I1504
sg1450
I1441
sg597
I588
sg358
I349
sg344
I335
sg1179
I1170
sg1385
I1376
sg1487
I1478
sg499
I490
sg680
I671
sg1066
I1057
sg511
I502
sg1223
I1214
sg1340
I1331
sg1316
I1307
sg240
I231
sg372
I363
sg1489
I1480
sg1208
I1199
sg75
I66
sg922
I913
sg105
I96
sg1258
I1249
sg450
I441
sg123
I114
sg830
I821
sg924
I915
sg1026
I1017
sg425
I416
sg232
I223
sg244
I235
sg165
I156
sg1561
I1552
sg412
I403
sg1501
I1492
sg1281
I1272
sg772
I763
sg486
I477
sg1189
I1180
sg1227
I1218
sg1154
I1145
sg1400
I1391
sg944
I935
sg896
I887
sg930
I921
sg337
I328
sg323
I314
sg1002
I993
sg535
I526
sg110
I101
sg1102
I1093
sg1326
I1317
sg128
I119
sg1048
I1039
sg1459
I1450
sg432
I423
sg675
I666
sg431
I422
sg882
I873
sg957
I948
sg61
I52
sg676
I667
sg1008
I999
sg1545
I1536
sg1224
I1215
sg99
I90
sg679
I670
sg1329
I1320
sg621
I612
sg1396
I1387
sg1302
I1293
sg1135
I1126
sg645
I636
sg1364
I1355
sg1053
I1044
sg938
I929
sg476
I467
sg1009
I1000
sg726
I717
sg213
I204
sg727
I718
sg1499
I1490
sg1524
I1515
sg1100
I1091
sg964
I955
sg1286
I1277
sg1315
I1306
sg1497
I1488
sg1230
I1221
sg583
I574
sg1061
I1052
sg189
I180
sg1045
I1036
sg750
I741
sg518
I509
sg790
I781
sg135
I126
sg717
I708
sg208
I199
sg166
I157
sg1016
I1007
sg417
I408
sg151
I142
sg844
I835
sg490
I481
sg620
I611
sg1256
I1247
sg1211
I1202
sg376
I367
sg631
I622
sg484
I475
sg1486
I1477
sg228
I219
sg599
I590
sg298
I289
sg505
I496
sg984
I975
sg925
I916
sg373
I364
sg923
I914
sg1399
I1390
sg392
I383
sg658
I649
sg87
I78
sg64
I55
sg223
I214
sg1382
I1373
sg576
I567
sg1565
I1556
sg1446
I1437
sg1081
I1072
sg1112
I1103
sg689
I680
sg1170
I1161
sg1082
I1073
sg753
I744
sg698
I689
sg755
I746
sg1257
I1248
sg38
I29
sg793
I784
sg1448
I1439
sg1068
I1059
sg1339
I1330
sg1059
I1050
sg954
I945
sg1062
I1053
sg1404
I1395
sg382
I373
sg603
I594
sg1073
I1064
sg867
I858
sg142
I133
sg894
I885
sg619
I610
sg335
I326
sg19
I10
sg1261
I1252
sg150
I141
sg1158
I1149
sg1265
I1256
sg1443
I1434
sg1007
I998
sg1152
I1143
sg200
I191
sg1569
I1560
sg93
I84
sg85
I76
sg677
I668
sg72
I63
sg771
I762
sg1551
I1542
sg1436
I1427
sg201
I192
sg768
I759
sg1184
I1175
sg785
I776
sg1317
I1308
sg50
I41
sg616
I607
sg1354
I1345
sg1388
I1379
sg864
I855
sg349
I340
sg44
I35
sg146
I137
sg121
I112
sg1482
I1473
sg1055
I1046
sg195
I186
sg1159
I1150
sg1306
I1297
sg62
I53
sg855
I846
sg1413
I1404
sg514
I505
sg1123
I1114
sg1192
I1183
sg928
I919
sg1077
I1068
sg782
I773
sg1156
I1147
sg1440
I1431
sg88
I79
sg86
I77
sg1195
I1186
sg1348
I1339
sg764
I755
sg1161
I1152
sg58
I49
sg838
I829
sg557
I548
sg1191
I1182
sg1502
I1493
sg823
I814
sg266
I257
sg880
I871
sg1140
I1131
sg774
I765
sg442
I433
sg202
I193
sg1558
I1549
sg1240
I1231
sg615
I606
sg1280
I1271
sg1523
I1514
sg839
I830
sg1534
I1525
sg440
I431
sg1554
I1545
sg306
I297
sg1562
I1553
sg629
I620
sg504
I495
sg455
I446
sg273
I264
sg364
I355
sg634
I625
sg485
I476
sg411
I402
sg738
I729
sg1076
I1067
sg932
I923
sg1566
I1557
sg1067
I1058
sg60
I51
sg67
I58
sg714
I705
sg1427
I1418
sg857
I848
sg191
I182
sg1358
I1349
sg533
I524
sg21
I12
sg1357
I1348
sg1124
I1115
sg901
I892
sg239
I230
sg780
I771
sg910
I901
sg815
I806
sg1086
I1077
sg572
I563
sg403
I394
sg1366
I1357
sg16
I7
sg285
I276
sg1445
I1436
sg70
I61
sg478
I469
sg672
I663
sg1325
I1316
sg926
I917
sg249
I240
sg622
I613
sg842
I833
sg1071
I1062
sg650
I641
sg920
I911
sg256
I247
sg841
I832
sg1024
I1015
sg1376
I1367
sg149
I140
sg758
I749
sg1378
I1369
sg460
I451
sg624
I615
sg371
I362
sg1553
I1544
sg1277
I1268
sg837
I828
sg317
I308
sg204
I195
sg14
I5
sg54
I45
sg1075
I1066
sg911
I902
sg961
I952
sg1490
I1481
sg1493
I1484
sg1133
I1124
sg594
I585
sg593
I584
sg798
I789
sg1217
I1208
sg1568
I1559
sg700
I691
sg357
I348
sg1182
I1173
sg1365
I1356
sg1181
I1172
sg1180
I1171
sg168
I159
sg377
I368
sg863
I854
sg724
I715
sg612
I603
sg1063
I1054
sg898
I889
sg678
I669
sg1405
I1396
sg391
I382
sg296
I287
sg1130
I1121
sg578
I569
sg438
I429
sg705
I696
sg737
I728
sg449
I440
sg1467
I1458
sg1243
I1234
sg45
I36
sg481
I472
sg899
I890
sg207
I198
sg671
I662
sg977
I968
sg1136
I1127
sg164
I155
sg206
I197
sg1113
I1104
sg328
I319
sg1013
I1004
sg744
I735
sg1362
I1353
sg970
I961
sg97
I88
sg1242
I1233
sg1504
I1495
sg1479
I1470
sg817
I808
sg305
I296
sg767
I758
sg185
I176
sg360
I351
sg707
I698
sg184
I175
sg802
I793
sg53
I44
sg1228
I1219
sg845
I836
sg1233
I1224
sg846
I837
sg396
I387
sg577
I568
sg11
I2
sg792
I783
sg840
I831
sg1249
I1240
sg309
I300
sg605
I596
sg836
I827
sg556
I547
sg858
I849
sg779
I770
sg868
I859
sg498
I489
sg147
I138
sg111
I102
sg934
I925
sg710
I701
sg1206
I1197
sg1226
I1217
sg905
I896
sg906
I897
sg748
I739
sg500
I491
ssS'separator'
p1575
S'='
sS'sparse'
p1576
I01
sb.