ccopy_reg
_reconstructor
p1
(csklearn.feature_extraction.dict_vectorizer
DictVectorizer
p2
c__builtin__
object
p3
NtRp4
(dp5
S'vocabulary_'
p6
(dp7
S'w+2=penalty'
p8
I1690
sS'nsubjpass=sight'
p9
I1064
sS'partmod=prompt'
p10
I1110
sS'nsubjpass=factory'
p11
I1002
sS'w-1=rock'
p12
I2195
sS'w+2=strategy'
p13
I1786
sS'advmod=more'
p14
I93
sS'dobj=terrorist'
p15
I611
sS'det=no'
p16
I371
sS'advmod=certainly'
p17
I71
sS'w-1=resolution'
p18
I2191
sS'w-1=winter'
p19
I2285
sS'w+2=earlier'
p20
I1524
sS'dobj=groundwork'
p21
I482
sS'w-2=runoff'
p22
I2807
sS'advcl=commander'
p23
I11
sS'nsubj=poll'
p24
I870
sS'dobj=orphanage'
p25
I523
sS'dobj=percent'
p26
I531
sS'w-2=civilization'
p27
I2527
sS'advcl=return'
p28
I38
sS'w+2=data-ready'
p29
I1506
sS'w-2=Friday'
p30
I2354
sS'dobj=direction'
p31
I447
sS'dobj=ablaze'
p32
I392
sS'w-2=W.'
p33
I2437
sS'w-1=crisis'
p34
I2025
sS'w-1=certainly'
p35
I1996
sS'w+2=but'
p36
I1460
sS'parataxis=get'
p37
I1096
sS'w+2=buy'
p38
I1461
sS'nsubj=team'
p39
I907
sS'w-2=Texas'
p40
I2427
sS'w+2=target'
p41
I1801
sS'w+2=international'
p42
I1606
sS'w-1=seem'
p43
I2204
sS'w-1=nation'
p44
I2136
sS'nsubjpass=Mayweather'
p45
I953
sS'dobj=condition'
p46
I436
sS'w-2=police'
p47
I2762
sS'amod=three-disc'
p48
I175
sS'w-2=administrative'
p49
I2455
sS'w+2=camp'
p50
I1463
sS'w-2=need'
p51
I2720
sS'nsubjpass=flight'
p52
I1006
sS'w+2=hard'
p53
I1587
sS'nsubj=rebel'
p54
I878
sS'w-2=kind'
p55
I2670
sS'w-1=Kong'
p56
I1915
sS'conj=call'
p57
I249
sS'xcomp=travel'
p58
I3105
sS'w-1=belatedly'
p59
I1969
sS'nsubj=Nations'
p60
I734
sS'w+2=December'
p61
I1372
sS'w-1=unique'
p62
I2270
sS'w-2=City'
p63
I2335
sS'w-1=new'
p64
I2141
sS'xcomp=increase'
p65
I3029
sS'w+2=station'
p66
I1782
sS'w+1=Togo'
p67
I1205
sS'w+2=recent'
p68
I1723
sS'nsubj=Abbas'
p69
I686
sS'w+1=building'
p70
I1227
sS'ccomp=feel'
p71
I217
sS'w-1=initially'
p72
I2101
sS'w-2=bargaining'
p73
I2492
sS'dobj=entity'
p74
I457
sS'conj=deliver'
p75
I257
sS'w+2=several'
p76
I1756
sS'w-1=Seeger'
p77
I1928
sS'ccomp=suspect'
p78
I231
sS'xcomp=declare'
p79
I2988
sS'w-1=will'
p80
I2284
sS'w-2=find'
p81
I2615
sS'w-2=fake'
p82
I2610
sS'w+2=proposal'
p83
I1715
sS'advmod=un-traditionally'
p84
I119
sS'w-2=kidnapper'
p85
I2669
sS'w-2=Barack'
p86
I2328
sS'w+2=environmental'
p87
I1538
sS'nsubj=Indonesia'
p88
I715
sS'w+2=pay'
p89
I1689
sS'w+2=command'
p90
I1486
sS'w-1=tent'
p91
I2246
sS'nsubj=wius'
p92
I927
sS'w+2=tough'
p93
I1824
sS'w+1=she'
p94
I1302
sS'w-2=complex'
p95
I2544
sS'w+2=meet'
p96
I1635
sS'w-2=fire'
p97
I2616
sS'nsubjpass=split'
p98
I1069
sS'w+2=commission'
p99
I1487
sS'w+2=partisanship'
p100
I1687
sS'w-2=who'
p101
I2928
sS'nsubjpass=House'
p102
I948
sS'nsubjpass=#DATE#'
p103
I935
sS'w+1=of'
p104
I1278
sS'w+2=skill'
p105
I1766
sS'w-2=2006'
p106
I2311
sS'w+1=on'
p107
I1280
sS'w+2=cause'
p108
I1468
sS'w+2=last'
p109
I1616
sS'conj=strengthen'
p110
I309
sS'rcmod=turn'
p111
I1183
sS'w-2=priority'
p112
I2773
sS'w+1=or'
p113
I1283
sS'nsubj=brutality'
p114
I788
sS'w-2=process'
p115
I2778
sS'w-2=Africa'
p116
I2319
sS'w-2=seat'
p117
I2816
sS'ccomp=say'
p118
I227
sS'w-2=Red'
p119
I2410
sS'amod=right'
p120
I160
sS'w+2=three'
p121
I1815
sS'advcl=score'
p122
I40
sS'dobj=position'
p123
I540
sS'w-2=aim'
p124
I2464
sS'w-2=only'
p125
I2734
sS'w-1=music'
p126
I2132
sS'w-1=assassination'
p127
I1961
sS'dobj=sign'
p128
I589
sS'w+1=foot'
p129
I1247
sS'w-1=trading'
p130
I2262
sS'w-2=on'
p131
I2732
sS'w+2=you'
p132
I1871
sS'prep=around'
p133
I1125
sS'xcomp=prove'
p134
I3060
sS'amod=straight'
p135
I171
sS'nsubjpass=board'
p136
I975
sS'w-2=japanese'
p137
I2667
sS'w-2=promise'
p138
I2782
sS'w-1=you'
p139
I2294
sS'w-1=hope'
p140
I2095
sS'w-2=farmer'
p141
I2612
sS'nsubjpass=percent'
p142
I1037
sS'w-2=abroad'
p143
I2449
sS'w-2=Hamid'
p144
I2358
sS'xcomp=point'
p145
I3053
sS'partmod=follow'
p146
I1107
sS'advcl=be'
p147
I4
sS'nsubjpass=agreement'
p148
I970
sS'w-2=that'
p149
I2873
sS'w+1=the'
p150
I1317
sS'w-2=stone'
p151
I2849
sS'w-2=registry'
p152
I2793
sS'w-2=than'
p153
I2872
sS'w-1=bombing'
p154
I1982
sS'dobj=orchard'
p155
I521
sS'nsubjpass=Obama'
p156
I958
sS'w-1=already'
p157
I1951
sS'amod=indian'
p158
I151
sS'w+1=limit'
p159
I1270
sS'nsubj=these'
p160
I912
sS'nsubj=Kaczynski'
p161
I721
sS'conj=without'
p162
I319
sS'dobj=consideration'
p163
I438
sS'w+1=tougher'
p164
I1328
sS'w+2=get'
p165
I1575
sS'w+2=further'
p166
I1574
sS'nsubj=U.N.'
p167
I759
sS'w+2=Tony'
p168
I1396
sS'w-2=new'
p169
I2725
sS'w-2=record'
p170
I2789
sS'w-2=differently'
p171
I2579
sS'nsubj=result'
p172
I883
sS'w+2=record'
p173
I1727
sS'xcomp=deprive'
p174
I2992
sS'w-2=despair'
p175
I2576
sS'w+2=reconvene'
p176
I1726
sS'conj=buy'
p177
I248
sS'conj=expect'
p178
I266
sS'amod=design'
p179
I139
sS'dobj=transition'
p180
I621
sS'w-1=man'
p181
I2118
sS'w-1=conference'
p182
I2013
sS'w-2=run-off'
p183
I2806
sS'nsubj=member'
p184
I842
sS'nsubj=standoff'
p185
I899
sS'w-1=should'
p186
I2209
sS'conj=law'
p187
I279
sS'nsubj=that'
p188
I910
sS'w-2=insurgent'
p189
I2663
sS'advmod=here'
p190
I83
sS'w+2=heart'
p191
I1590
sS'nsubjpass=Morgan'
p192
I956
sS'xcomp=year'
p193
I3116
sS'nsubjpass=station'
p194
I1071
sS'w+2=stall'
p195
I1779
sS'w-1=ECOWAS'
p196
I1896
sS'nsubj=Joel'
p197
I719
sS'w-2=screen'
p198
I2814
sS'ccomp=send'
p199
I228
sS'w+2=since'
p200
I1764
sS'w+1=tire'
p201
I1325
sS'conj=be'
p202
I243
sS'tmod=evening'
p203
I1189
sS'w-1=Senate'
p204
I1929
sS'w-2=together'
p205
I2889
sS'w-2=profile'
p206
I2780
sS'w-1=worst'
p207
I2291
sS'w-1=vessel'
p208
I2273
sS'w-2=position'
p209
I2767
sS'conj=drag'
p210
I262
sS'advmod=where'
p211
I122
sS'w-1=section'
p212
I2203
sS'w+2=incentive'
p213
I1598
sS'xcomp=commodity'
p214
I2974
sS'conj=draw'
p215
I263
sS'w+2=reform'
p216
I1728
sS'nsubjpass=revolution'
p217
I1053
sS'nsubj=Roests'
p218
I747
sS'xcomp=stop'
p219
I3092
sS'xcomp=reopen'
p220
I3072
sS'w+2=objection'
p221
I1663
sS'nsubj=Shiloh'
p222
I751
sS'conj=chase'
p223
I251
sS'w-1=booth'
p224
I1983
sS'prep=out'
p225
I1147
sS'nsubjpass=harvest'
p226
I1013
sS'w+1=Bangladesh'
p227
I1200
sS'nsubj=youth'
p228
I933
sS'w+2=earphone'
p229
I1527
sS'w-2=community'
p230
I2543
sS'w+2=institution'
p231
I1603
sS'w+2=London'
p232
I1381
sS'dobj=plant'
p233
I536
sS'dobj=mission'
p234
I508
sS'w-2=border'
p235
I2502
sS'nsubj=declaration'
p236
I813
sS'w-1=tv'
p237
I2266
sS'w+1=annual'
p238
I1217
sS'conj=create'
p239
I255
sS'w-1=one-way'
p240
I2151
sS'nsubj=charity'
p241
I793
sS'w+2=Sudan'
p242
I1395
sS'nsubj=ruling'
p243
I886
sS'xcomp=cite'
p244
I2967
sS'w-2=advertising'
p245
I2457
sS'advcl=promote'
p246
I32
sS'xcomp=intercept'
p247
I3030
sS'w-2=Wade'
p248
I2438
sS'w+2=age'
p249
I1413
sS'w-1=to'
p250
I2260
sS'rcmod=end'
p251
I1175
sS'w-1=solution'
p252
I2215
sS'dobj=fuel'
p253
I477
sS'w-1=spokesperson'
p254
I2220
sS'w-2=violate'
p255
I2909
sS'xcomp=solidify'
p256
I3088
sS'w+2=regulation'
p257
I1731
sS'w-2=legislation'
p258
I2677
sS'nsubj=ZANU-PF'
p259
I765
sS'dobj=#PRP#'
p260
I375
sS'w+2=strengthen'
p261
I1788
sS'w-2=do'
p262
I2583
sS'prt=aside'
p263
I1158
sS'w-2=technical'
p264
I2868
sS'advmod=completely'
p265
I72
sS'w+2=constitutional'
p266
I1496
sS'appos=#NUMBER#'
p267
I181
sS'w+1=you'
p268
I1340
sS'nsubjpass=City'
p269
I940
sS'conj=vote'
p270
I316
sS'dep=give'
p271
I345
sS'w-2=everything'
p272
I2603
sS'xcomp=purchase'
p273
I3062
sS'w+2=solar'
p274
I1771
sS'w+2=3-6'
p275
I1354
sS'w-2=delay'
p276
I2569
sS'amod=high'
p277
I150
sS'dobj=franc'
p278
I476
sS'nsubj=line'
p279
I837
sS'nsubj=assassination'
p280
I776
sS'w+2=effort'
p281
I1531
sS'w+2=underneath'
p282
I1838
sS'w+2=room'
p283
I1744
sS'w-1=colleague'
p284
I2005
sS'xcomp=reach'
p285
I3065
sS'nsubj=company'
p286
I799
sS'w+1=he'
p287
I1257
sS'w-2=two'
p288
I2901
sS'xcomp=deploy'
p289
I2991
sS'w+2=under'
p290
I1837
sS'advcl=do'
p291
I14
sS'w-2=Abbas'
p292
I2316
sS'nn=sun'
p293
I681
sS'nsubj=attacker'
p294
I778
sS'nsubjpass=plan'
p295
I1038
sS'amod=narrow'
p296
I155
sS'dobj=passage'
p297
I529
sS'dep=census'
p298
I335
sS'w+2=broader'
p299
I1457
sS'w-2=footstep'
p300
I2622
sS'w-2=scene'
p301
I2811
sS'w+2=broaden'
p302
I1456
sS'w+2=face-to-face'
p303
I1551
sS'advmod=most'
p304
I94
sS'w-1=kitchen'
p305
I2110
sS'w-2=Ethan'
p306
I2348
sS'amod=fifth'
p307
I144
sS'w-2=hearing'
p308
I2647
sS'w-2=Ford'
p309
I2352
sS'w+2=6-4'
p310
I1360
sS'w-2=Guinea'
p311
I2357
sS'w+2=6-3'
p312
I1359
sS'w+2=6-2'
p313
I1358
sS'xcomp=prepare'
p314
I3054
sS'prep=above'
p315
I1119
sS'w-2=Ismail'
p316
I2369
sS'w-2=target'
p317
I2866
sS'nsubjpass=approach'
p318
I971
sS'w+2=Saturday'
p319
I1391
sS'w-1=force'
p320
I2074
sS'conj=begin'
p321
I244
sS'prep=despite'
p322
I1134
sS'w-2=clash'
p323
I2528
sS'dobj=disqualification'
p324
I448
sS'w-2=Mr.'
p325
I2389
sS'amod=musical'
p326
I154
sS'dobj=commission'
p327
I430
sS'amod=strategic'
p328
I172
sS'nsubjpass=frame'
p329
I1009
sS'advmod=abroad'
p330
I54
sS'advcl=before'
p331
I5
sS'w-1=party'
p332
I2163
sS'advmod=otherwise'
p333
I104
sS'dobj=community'
p334
I433
sS'w-1=Kaczynski'
p335
I1912
sS'conj=costume'
p336
I254
sS'w-2=deadline'
p337
I2563
sS'w+2=terrorist'
p338
I1808
sS'partmod=face'
p339
I1106
sS'w-2=League'
p340
I2377
sS'dobj=precept'
p341
I544
sS'w-1=three-disc'
p342
I2258
sS'nsubj=president'
p343
I871
sS'w-1=spark'
p344
I2218
sS'w-1=Iowa'
p345
I1908
sS'w-2=relief'
p346
I2795
sS'w-2=ballot'
p347
I2490
sS'nsubjpass=president'
p348
I1043
sS'nsubj=to'
p349
I915
sS'w-2=negotiator'
p350
I2723
sS'w-2=refusal'
p351
I2791
sS'w+2=New'
p352
I1385
sS'xcomp=show'
p353
I3086
sS'w+2=back'
p354
I1439
sS'w-2=Iraqis'
p355
I2368
sS'nsubj=India'
p356
I714
sS'conj=refuse'
p357
I296
sS'w-1=case'
p358
I1992
sS'dobj=quota'
p359
I555
sS'w-2=wife'
p360
I2932
sS'xcomp=announce'
p361
I2950
sS'dobj=vehicle'
p362
I627
sS'w-1=project'
p363
I2178
sS'nsubjpass=plant'
p364
I1039
sS'w-2=1974'
p365
I2308
sS'w-2=attacker'
p366
I2485
sS'conj=destroy'
p367
I258
sS'nsubj=boat'
p368
I784
sS'w-2=whaling'
p369
I2922
sS'w+2=symptom'
p370
I1797
sS'w+2=ourselves'
p371
I1678
sS'csubj=recognize'
p372
I322
sS'rcmod=implement'
p373
I1178
sS'w-2=agent'
p374
I2461
sS'nsubjpass=military'
p375
I1023
sS'w-2=argue'
p376
I2479
sS'nsubj=year'
p377
I932
sS'nsubjpass=nominee'
p378
I1030
sS'advmod=aside'
p379
I67
sS'nsubjpass=book'
p380
I978
sS'w-1=Odyssey'
p381
I1921
sS'w-2=route'
p382
I2804
sS'det=any'
p383
I369
sS'dep=as'
p384
I329
sS'conj=send'
p385
I304
sS'w-2=Kassindja'
p386
I2374
sS'advcl=undergo'
p387
I47
sS'xcomp=fill'
p388
I3010
sS'w-2=bring'
p389
I2503
sS'w-2=University'
p390
I2436
sS'w+2=duty'
p391
I1523
sS'xcomp=visit'
p392
I3110
sS'w-2=mark'
p393
I2693
sS'dobj=Gaza'
p394
I382
sS'w+2=window'
p395
I1861
sS'w-1=Lakers'
p396
I1917
sS'dobj=spreadsheet'
p397
I592
sS'xcomp=preserve'
p398
I3056
sS'w-2=network'
p399
I2724
sS'w-2=angry'
p400
I2473
sS'w-2=coin'
p401
I2534
sS'w-2=Jett'
p402
I2371
sS'w-2=attempt'
p403
I2486
sS'ccomp=demoralize'
p404
I213
sS'nsubj=military'
p405
I843
sS'w-2=important'
p406
I2654
sS'advmod=far'
p407
I78
sS'w+1=political'
p408
I1288
sS'w-1=curfew'
p409
I2029
sS'nsubj=screen'
p410
I888
sS'w-1=fifth'
p411
I2065
sS'nsubj=Nigeria'
p412
I735
sS'nsubjpass=force'
p413
I1007
sS'w-1=play'
p414
I2167
sS'w-2=nationwide'
p415
I2718
sS'w+2=money'
p416
I1647
sS'w+2=order'
p417
I1673
sS'xcomp=meet'
p418
I3041
sS'w-2=Scott'
p419
I2416
sS'nsubj=regulator'
p420
I880
sS'xcomp=shoot'
p421
I3085
sS'w+2=task'
p422
I1802
sS'w+1=shop'
p423
I1303
sS'xcomp=coincide'
p424
I2971
sS'w-1=president'
p425
I2172
sS'w-2=budget'
p426
I2506
sS'nsubj=Iraqis'
p427
I717
sS'nsubj=Militants'
p428
I730
sS'w-1=center'
p429
I1994
sS'nsubj=state'
p430
I901
sS'nsubj=John'
p431
I720
sS'cc=plus'
p432
I201
sS'w-2=Lech'
p433
I2379
sS'dobj=date'
p434
I442
sS'w-2=would'
p435
I2940
sS'w-1=funding'
p436
I2078
sS'ccomp=ablaze'
p437
I203
sS'nsubj=Islamists'
p438
I718
sS'w+1=aggressive'
p439
I1213
sS'w+2=this'
p440
I1813
sS'w-2=different'
p441
I2578
sS'nsubj=insurgent'
p442
I832
sS'xcomp=cause'
p443
I2964
sS'w+2=Britain'
p444
I1370
sS'w+2=computer'
p445
I1491
sS'nsubjpass=Discovery'
p446
I944
sS'advmod=right'
p447
I110
sS'xcomp=offer'
p448
I3045
sS'w-2=family'
p449
I2611
sS'w+2=20'
p450
I1350
sS'w-2=million'
p451
I2704
sS'w-1=fleet'
p452
I2072
sS'w-2=international'
p453
I2664
sS'w-2=expect'
p454
I2605
sS'dobj=limit'
p455
I499
sS'mark=while'
p456
I660
sS'dep=so'
p457
I357
sS'amod=new'
p458
I156
sS'amod=long'
p459
I153
sS'w-2=fuel'
p460
I2629
sS'nsubj=ZEC'
p461
I766
sS'w-2=with'
p462
I2934
sS'w-1=controversy'
p463
I2018
sS'w-2=also'
p464
I2467
sS'dobj=perimeter'
p465
I532
sS'ccomp=believe'
p466
I209
sS'w+2=lawmaking'
p467
I1619
sS'w+2=new'
p468
I1657
sS'nsubjpass=bin'
p469
I973
sS'w-2=korean'
p470
I2672
sS'w+2=curtail'
p471
I1504
sS'w-1=blast'
p472
I1978
sS'w-1=against'
p473
I1946
sS'nsubj=client'
p474
I795
sS'cc=or'
p475
I200
sS'w+2=military'
p476
I1640
sS'nsubj=community'
p477
I798
sS'w-1=temporary'
p478
I2245
sS'w+2=ready'
p479
I1721
sS'nsubjpass=process'
p480
I1046
sS'w-2=time'
p481
I2883
sS'w-2=navi-computer'
p482
I2719
sS'w-1=most'
p483
I2130
sS'w+2=otherwise'
p484
I1677
sS'advcl=legalize'
p485
I25
sS'w-1=eventually'
p486
I2058
sS'dep=easy'
p487
I340
sS'w+2=rule'
p488
I1745
sS'nsubjpass=sort'
p489
I1066
sS'xcomp=build'
p490
I2959
sS'w-2=in'
p491
I2656
sS'ccomp=director'
p492
I214
sS'w+2=play'
p493
I1697
sS'dobj=basis'
p494
I410
sS'w-2=where'
p495
I2925
sS'w-1=tale'
p496
I2240
sS'w-2=event'
p497
I2601
sS'nsubjpass=Program'
p498
I962
sS'w-1=States'
p499
I1931
sS'w-2=Faso'
p500
I2350
sS'w-2=private'
p501
I2776
sS'w+2=nearly'
p502
I1654
sS'w+2=hope'
p503
I1595
sS'advmod=down'
p504
I74
sS'w-2=parliament'
p505
I2747
sS'nsubj=Barack'
p506
I692
sS'w-2=mix'
p507
I2708
sS'w+2=fire'
p508
I1560
sS'dobj=schedule'
p509
I579
sS'w-1=appear'
p510
I1957
sS'w+2=framework'
p511
I1569
sS'w-2=tough'
p512
I2890
sS'advmod=also'
p513
I62
sS'w-1=different'
p514
I2045
sS'dobj=charge'
p515
I425
sS'nsubj=anything'
p516
I773
sS'ccomp=report'
p517
I226
sS'w-1=outbreak'
p518
I2156
sS'w+2=concern'
p519
I1492
sS'amod=worst'
p520
I180
sS'nsubjpass=delivery'
p521
I995
sS'nsubjpass=record'
p522
I1050
sS'nsubj=home'
p523
I830
sS'nsubjpass=funding'
p524
I1010
sS'dobj=Iraq'
p525
I383
sS'w-2=States'
p526
I2423
sS'w-2=calm'
p527
I2511
sS'conj=operate'
p528
I285
sS'advmod=why'
p529
I123
sS'dobj=end'
p530
I456
sS'w+2=factor'
p531
I1552
sS'dobj=haven'
p532
I485
sS'nsubj=student'
p533
I904
sS'dobj=headquarters'
p534
I486
sS'xcomp=conclude'
p535
I2975
sS'w-1=soon'
p536
I2216
sS'xcomp=reappear'
p537
I3067
sS'w-2=perform'
p538
I2756
sS'w-1=just'
p539
I2109
sS'w-2=curfew'
p540
I2560
sS'w-1=meeting'
p541
I2123
sS'w+2=student'
p542
I1790
sS'nsubj=law'
p543
I834
sS'xcomp=include'
p544
I3028
sS'w+2=early'
p545
I1525
sS'nsubj=Qaida'
p546
I746
sS'w-2=some'
p547
I2833
sS'w+2=matter'
p548
I1632
sS'w-2=author'
p549
I2487
sS'w-2=let'
p550
I2678
sS'xcomp=recapture'
p551
I3068
sS'w+1=in'
p552
I1262
sS'dobj=shop'
p553
I586
sS'w+2=Wambach'
p554
I1401
sS'dobj=modality'
p555
I509
sS'w+1=it'
p556
I1265
sS'dobj=that'
p557
I613
sS'w-1=village'
p558
I2274
sS'nsubj=#PRP#'
p559
I685
sS'w+1=about'
p560
I1209
sS'w-2=independent'
p561
I2659
sS'w-1=principle'
p562
I2174
sS'w-1=Charter'
p563
I1887
sS'w+2=year'
p564
I1870
sS'dobj=principle'
p565
I547
sS'w+2=traditional'
p566
I1826
sS'w-2=Uncle'
p567
I2433
sS'w+2=forward'
p568
I1567
sS'nsubj=outbreak'
p569
I857
sS'advmod=ahead'
p570
I57
sS'advcl=cause'
p571
I9
sS'w+2=permanent'
p572
I1691
sS'poss=#PRP#'
p573
I1114
sS'dobj=#NUMBER#'
p574
I374
sS'w-1=boat'
p575
I1979
sS'w-1=several'
p576
I2207
sS'w-2=ruling'
p577
I2805
sS'w+2=way'
p578
I1852
sS'xcomp=hold'
p579
I3024
sS'w-1=without'
p580
I2287
sS'conj=provide'
p581
I292
sS'dobj=cell'
p582
I421
sS'advmod=all'
p583
I58
sS'dobj=confrontation'
p584
I437
sS'dobj=tribunal'
p585
I624
sS'w-2=down'
p586
I2585
sS'dobj=zone'
p587
I644
sS'w-2=force-generating'
p588
I2625
sS'nsubjpass=but'
p589
I980
sS'w-1=group'
p590
I2087
sS'w+2=aside'
p591
I1434
sS'conj=sentence'
p592
I305
sS'w-1=themselves'
p593
I2251
sS'dobj=firestorm'
p594
I471
sS'w-1=vote'
p595
I2276
sS'conj=appearance'
p596
I241
sS'xcomp=buy'
p597
I2960
sS'w-2=shortage'
p598
I2825
sS'nsubjpass=committee'
p599
I987
sS'mark=after'
p600
I646
sS'rcmod=conclude'
p601
I1174
sS'w-1=delicate'
p602
I2040
sS'nn=computer'
p603
I669
sS'nsubjpass=bomber'
p604
I977
sS'w-2=street'
p605
I2850
sS'w-2=1979'
p606
I2309
sS'w-1=month'
p607
I2128
sS'w-1=House'
p608
I1904
sS'w+2=false'
p609
I1553
sS'xcomp=look'
p610
I3036
sS'w+2=groundwork'
p611
I1583
sS'w-1=Friday'
p612
I1901
sS'w+2=Annapolis'
p613
I1366
sS'w-2=alternative'
p614
I2468
sS'xcomp=devastate'
p615
I2994
sS'w+2=democratic'
p616
I1513
sS'w-2=Kurdistan'
p617
I2376
sS'nsubj=passage'
p618
I864
sS'w+2=monetary'
p619
I1646
sS'conj=come'
p620
I252
sS'w+1=strong'
p621
I1309
sS'nsubjpass=court'
p622
I992
sS'nsubj=bookstore'
p623
I787
sS'w+2=efficiency'
p624
I1530
sS'w-2=school'
p625
I2813
sS'advcl=agree'
p626
I2
sS'prep=compare'
p627
I1133
sS'w-2=safety'
p628
I2808
sS'w+2=of'
p629
I1666
sS'nsubj=NATO'
p630
I733
sS'w-2=discussion'
p631
I2580
sS'dobj=road'
p632
I574
sS'nsubjpass=Kelly'
p633
I950
sS'w-2=Europe'
p634
I2349
sS'w+1=binding'
p635
I1226
sS'advcl=work'
p636
I51
sS'dobj=precedent'
p637
I543
sS'nsubj=most'
p638
I848
sS'w-1=decision'
p639
I2037
sS'w-1=on'
p640
I2149
sS'rel=which'
p641
I1185
sS'w-1=3d'
p642
I1880
sS'w-2=operation'
p643
I2735
sS'w-2=campus'
p644
I2513
sS'w+2=loose'
p645
I1627
sS'xcomp=transfer'
p646
I3103
sS'w-1=order'
p647
I2153
sS'nsubj=chairman'
p648
I792
sS'w+2=out'
p649
I1679
sS'w-2=to'
p650
I2887
sS'w-2=and'
p651
I2471
sS'nsubj=governor'
p652
I827
sS'w-2=east'
p653
I2591
sS'xcomp=pay'
p654
I3051
sS'xcomp=loose'
p655
I3037
sS'w+2=price'
p656
I1708
sS'w-2=article'
p657
I2483
sS'w-2=fiction'
p658
I2613
sS'w+2=safe'
p659
I1748
sS'w-2=phone'
p660
I2757
sS'nsubj=McDonald'
p661
I728
sS'w-2=worker'
p662
I2938
sS'w-2=he'
p663
I2645
sS'nsubj=withdrawal'
p664
I926
sS'w-2=all'
p665
I2465
sS'nsubj=case'
p666
I791
sS'w-2=looting'
p667
I2683
sS'w+2=process'
p668
I1713
sS'w-2=church'
p669
I2526
sS'nsubj=seating'
p670
I889
sS'dobj=economy'
p671
I450
sS'w+2=would'
p672
I1869
sS'w+2=UNHCR'
p673
I1399
sS'advcl=smoker'
p674
I42
sS'w+2=March'
p675
I1382
sS'nsubj=conduct'
p676
I800
sS'w-1=and'
p677
I1953
sS'xcomp=capture'
p678
I2961
sS'w+2=dominate'
p679
I1520
sS'nsubj=mistake'
p680
I845
sS'w-1=China'
p681
I1888
sS'w+2=10'
p682
I1347
sS'w-2=threat'
p683
I2879
sS'nsubj=solution'
p684
I894
sS'w-1=could'
p685
I2021
sS'w-2=one'
p686
I2733
sS'w+2=reopen'
p687
I1733
sS'xcomp=convert'
p688
I2980
sS'dobj=timetable'
p689
I616
sS'xcomp=ensure'
p690
I3002
sS'advmod=soon'
p691
I113
sS'amod=special'
p692
I165
sS'w-2=Mbeki'
p693
I2384
sS'dobj=apartment'
p694
I404
sS'w-2=other'
p695
I2741
sS'w-2=film'
p696
I2614
sS'aux=should'
p697
I190
sS'conj=remain'
p698
I297
sS'amod=last'
p699
I152
sS'w-1=then'
p700
I2252
sS'w+1=down'
p701
I1238
sS'w-2=look'
p702
I2682
sS'w-1=agreement'
p703
I1948
sS'w-1=they'
p704
I2253
sS'nsubj=scientist'
p705
I887
sS'w+1=price'
p706
I1292
sS'xcomp=help'
p707
I3022
sS'mark=once'
p708
I655
sS'w-1=best'
p709
I1972
sS'nsubjpass=south'
p710
I1067
sS'nsubjpass=date'
p711
I993
sS'w-2=recovery'
p712
I2790
sS'conj=undermine'
p713
I314
sS'w+2=rise'
p714
I1740
sS'w-2=proposal'
p715
I2783
sS'w-1=broader'
p716
I1986
sS'w-1=Haniyeh'
p717
I1903
sS'dobj=stage'
p718
I594
sS'w+1=each'
p719
I1240
sS'w-1=client'
p720
I2002
sS'dobj=surveillance'
p721
I603
sS'w-1=panel'
p722
I2160
sS'w-2=further'
p723
I2632
sS'nsubjpass=manager'
p724
I1018
sS'w-2=very'
p725
I2907
sS'w-2=whether'
p726
I2926
sS'w-2=strike'
p727
I2851
sS'w+1=above'
p728
I1210
sS'w+2=road'
p729
I1741
sS'w+2=anyway'
p730
I1425
sS'xcomp=roll'
p731
I3078
sS'amod=several'
p732
I163
sS'amod=third'
p733
I174
sS'nsubj=draw'
p734
I819
sS'prep=after'
p735
I1121
sS'w+2=around'
p736
I1429
sS'nsubj=cruise'
p737
I806
sS'w-1=scientist'
p738
I2199
sS'w-1=youth'
p739
I2295
sS'w-1=film'
p740
I2067
sS'nsubj=sun'
p741
I905
sS'dobj=policy'
p742
I538
sS'w+2=recommendation'
p743
I1724
sS'w-2=pristine'
p744
I2775
sS'dobj=Sport'
p745
I387
sS'w-2=pardon'
p746
I2746
sS'xcomp=change'
p747
I2966
sS'prep=against'
p748
I1122
sS'nsubj=conference'
p749
I801
sS'xcomp=expire'
p750
I3006
sS'w+2=become'
p751
I1446
sS'nn=skill'
p752
I678
sS'nsubj=staff'
p753
I897
sS'w+2=500'
p754
I1356
sS'xcomp=advance'
p755
I2947
sS'w-2=resolution'
p756
I2796
sS'w-1=also'
p757
I1952
sS'w-2=industry'
p758
I2661
sS'w-1=all'
p759
I1949
sS'w-2=Gbagbo'
p760
I2355
sS'nsubjpass=Congress'
p761
I941
sS'w+2=other'
p762
I1676
sS'w+2=circumstance'
p763
I1479
sS'w+2=binding'
p764
I1450
sS'w-2=impose'
p765
I2655
sS'w+2=conclude'
p766
I1493
sS'purpcl=provide'
p767
I1169
sS'nsubj=recession'
p768
I879
sS'w-2=should'
p769
I2826
sS'nsubjpass=trial'
p770
I1082
sS'nsubj=those'
p771
I914
sS'nsubjpass=meeting'
p772
I1021
sS'w-2=eminent'
p773
I2597
sS'w-1=election'
p774
I2055
sS'nsubj=nation'
p775
I850
sS'w+1=new'
p776
I1275
sS'w-1=additional'
p777
I1942
sS'parataxis=inform'
p778
I1097
sS'nsubjpass=stage'
p779
I1070
sS'w+1=out'
p780
I1284
sS'w-2=can'
p781
I2514
sS'w-1=connected'
p782
I2014
sS'w-2=step'
p783
I2848
sS'dobj=camp'
p784
I417
sS'neg=not'
p785
I663
sS'dobj=operation'
p786
I519
sS'ccomp=independent'
p787
I220
sS'w+2=millennium'
p788
I1641
sS'w+1=key'
p789
I1267
sS'w+2=campaign'
p790
I1464
sS'w+2=dock'
p791
I1519
sS'w+2=personal'
p792
I1692
sS'w-1=adventure'
p793
I1943
sS'w+2=Women'
p794
I1403
sS'w-2=Elvis'
p795
I2347
sS'nsubj=Karzai'
p796
I722
sS'amod=common'
p797
I132
sS'nsubjpass=foundation'
p798
I1008
sS'w-2=training'
p799
I2892
sS'w+2=interdependent'
p800
I1604
sS'nsubjpass=suspect'
p801
I1073
sS'w+2=anchor'
p802
I1421
sS'w+2=indian'
p803
I1601
sS'w-2=Ryan'
p804
I2414
sS'w+2=business'
p805
I1459
sS'w-2=cholera'
p806
I2525
sS'xcomp=cross'
p807
I2985
sS'conj=focus'
p808
I269
sS'w-1=favor'
p809
I2062
sS'advmod=then'
p810
I117
sS'w+2=mobile'
p811
I1643
sS'rcmod=achieve'
p812
I1170
sS'w-2=makeshift'
p813
I2689
sS'dobj=academy'
p814
I393
sS'w-2=billion'
p815
I2498
sS'rcmod=involve'
p816
I1179
sS'w+2=snow'
p817
I1768
sS'acomp=free'
p818
I0
sS'nsubj=Phelps'
p819
I743
sS'nsubj=approval'
p820
I774
sS'w-1=naturally'
p821
I2137
sS'w-2=harvest'
p822
I2643
sS'w-2=bill'
p823
I2497
sS'nsubjpass=maker'
p824
I1017
sS'partmod=complete'
p825
I1103
sS'w-2=Ahtisaari'
p826
I2320
sS'xcomp=contact'
p827
I2978
sS'dobj=organization'
p828
I522
sS'w-1=consider'
p829
I2015
sS'w-2=recession'
p830
I2788
sS'w+1=strategy'
p831
I1307
sS'conj=require'
p832
I298
sS'w+2=protest'
p833
I1716
sS'w+2=next'
p834
I1658
sS'csubj=set'
p835
I323
sS'w+2=very'
p836
I1844
sS'w-2=displace'
p837
I2581
sS'advmod=quickly'
p838
I107
sS'nsubj=process'
p839
I874
sS'w-2=Goals'
p840
I2356
sS'w-2=supplies'
p841
I2859
sS'w-1=checkpoint'
p842
I1999
sS'w-1=third'
p843
I2254
sS'w-2=document'
p844
I2584
sS'w+2=south'
p845
I1774
sS'w-2=since'
p846
I2830
sS'prep=within'
p847
I1156
sS'w+2=british'
p848
I1455
sS'w+1=that'
p849
I1316
sS'w-1=Organization'
p850
I1923
sS'w-2=consider'
p851
I2549
sS'w-2=Democrats'
p852
I2342
sS'nn=complex'
p853
I668
sS'w-1=each'
p854
I2052
sS'dobj=post'
p855
I541
sS'w-1=try'
p856
I2265
sS'w-1=say'
p857
I2197
sS'w+2=base'
p858
I1442
sS'w-1=violence'
p859
I2275
sS'w+2=approve'
p860
I1427
sS'w+1=known'
p861
I1268
sS'dobj=goal'
p862
I479
sS'nsubj=Europe'
p863
I706
sS'w+2=affect'
p864
I1410
sS'advmod=so'
p865
I111
sS'nsubjpass=camp'
p866
I981
sS'xcomp=monitor'
p867
I3043
sS'w-2=commander'
p868
I2538
sS'advmod=just'
p869
I88
sS'xcomp=open'
p870
I3047
sS'w+2=expectation'
p871
I1546
sS'dobj=effort'
p872
I451
sS'w+2=limit'
p873
I1623
sS'aux=may'
p874
I188
sS'xcomp=olympian'
p875
I3046
sS'w-1=Obama'
p876
I1920
sS'nsubj=China'
p877
I697
sS'w+2=stage'
p878
I1778
sS'w-2=why'
p879
I2930
sS'w+2=lose'
p880
I1628
sS'nsubj=Congress'
p881
I698
sS'w+2=motion'
p882
I1650
sS'w-2=the'
p883
I2874
sS'w-2=anything'
p884
I2475
sS'w+2=in-house'
p885
I1597
sS'nsubj=leader'
p886
I835
sS'w-2=as'
p887
I2484
sS'w-2=factory'
p888
I2606
sS'nsubj=what'
p889
I921
sS'w-2=revolution'
p890
I2799
sS'w-2=train'
p891
I2891
sS'w-1=star'
p892
I2223
sS'w+2=plastic'
p893
I1696
sS'w+1=precondition'
p894
I1291
sS'w+2=technical'
p895
I1803
sS'mark=unless'
p896
I657
sS'w-2=Change'
p897
I2333
sS'nsubjpass=party'
p898
I1036
sS'w-1=six-song'
p899
I2212
sS'w-2=many'
p900
I2692
sS'xcomp=teach'
p901
I3099
sS'w+2=first'
p902
I1562
sS'dobj=residence'
p903
I570
sS'w+2=land'
p904
I1614
sS'w-2=Foundation'
p905
I2353
sS'nsubj=Alipio'
p906
I688
sS'w-2=economic'
p907
I2592
sS'w-1=have'
p908
I2090
sS'w-1=whole'
p909
I2283
sS'w+1=ambitious'
p910
I1214
sS'w-1=core'
p911
I2020
sS'w+2=clinic'
p912
I1482
sS'xcomp=sell'
p913
I3081
sS'dobj=cause'
p914
I419
sS'w+2=in'
p915
I1596
sS'nsubjpass=poll'
p916
I1041
sS'dobj=sight'
p917
I588
sS'dobj=team'
p918
I606
sS'advmod=#PRP#'
p919
I53
sS'dobj=fund'
p920
I478
sS'w+2=completion'
p921
I1490
sS'w-2=may'
p922
I2695
sS'dep=car'
p923
I334
sS'nsubj=call'
p924
I789
sS'w+2=employer'
p925
I1536
sS'w-1=second'
p926
I2202
sS'w-1=specific'
p927
I2219
sS'prep=about'
p928
I1118
sS'aux=can'
p929
I184
sS'dobj=rule'
p930
I577
sS'dobj=area'
p931
I405
sS'advmod=at'
p932
I68
sS'w-1=farmer'
p933
I2061
sS'w+2=either'
p934
I1532
sS'nsubjpass=Court'
p935
I943
sS'w-1=government'
p936
I2084
sS'w+1=government'
p937
I1255
sS'w-2=Baghdad'
p938
I2326
sS'w-2=Trust'
p939
I2429
sS'amod=cooking'
p940
I135
sS'w+2=three-year'
p941
I1816
sS'nsubj=organization'
p942
I855
sS'w-1=look'
p943
I2117
sS'w-1=resume'
p944
I2192
sS'xcomp=supervise'
p945
I3095
sS'nsubjpass=Noriega'
p946
I957
sS'nn=tv'
p947
I683
sS'w+2=dozen'
p948
I1521
sS'dobj=test'
p949
I612
sS'advcl=prosecute'
p950
I33
sS'w+1=for'
p951
I1248
sS'w-1=rioter'
p952
I2194
sS'nsubjpass=shuttle'
p953
I1062
sS'mark=whereas'
p954
I659
sS'xcomp=order'
p955
I3048
sS'dobj=hospital'
p956
I490
sS'xcomp=report'
p957
I3074
sS'nsubj=pakistani'
p958
I859
sS'prep=to'
p959
I1151
sS'dobj=program'
p960
I551
sS'w+2=7-6'
p961
I1362
sS'w-2=voter'
p962
I2910
sS'w-2=Iran'
p963
I2366
sS'w+2=precisely'
p964
I1706
sS'w-2=meeting'
p965
I2699
sS'nsubj=kidnapper'
p966
I833
sS'conj=make'
p967
I280
sS'w-1=still'
p968
I2227
sS'w-2=buck'
p969
I2505
sS'w+2=even'
p970
I1541
sS'conj=Nick'
p971
I236
sS'dobj=plan'
p972
I535
sS'w+2=increase'
p973
I1600
sS'conj=player'
p974
I289
sS'dobj=play'
p975
I537
sS'w-1=clinic'
p976
I2003
sS'w+2=resume'
p977
I1736
sS'w-1=goal'
p978
I2083
sS'dobj=Togo'
p979
I388
sS'w+2=for'
p980
I1566
sS'w-1=sound'
p981
I2217
sS'w+2=emission'
p982
I1535
sS'nn=strife'
p983
I680
sS'parataxis=baby'
p984
I1093
sS'w-1=high'
p985
I2093
sS'w+2=surveillance'
p986
I1795
sS'w+1=date'
p987
I1235
sS'w-2=congressional'
p988
I2548
sS'advmod=of'
p989
I99
sS'w-1=stagewas'
p990
I2221
sS'dobj=which'
p991
I639
sS'w-1=--'
p992
I1877
sS'w+2=we'
p993
I1853
sS'w-2=indian'
p994
I2660
sS'w-2=moment'
p995
I2709
sS'dobj=election'
p996
I453
sS'w-1=best-seller'
p997
I1973
sS'advmod=apart'
p998
I65
sS'advcl=mount'
p999
I27
sS'nsubj=day'
p1000
I809
sS'w-1=passage'
p1001
I2164
sS'w-2=seek'
p1002
I2820
sS'w+1=seven'
p1003
I1300
sS'nsubj=Police'
p1004
I744
sS'nsubjpass=score'
p1005
I1059
sS'dobj=truck'
p1006
I625
sS'dobj=train'
p1007
I620
sS'w-1=big'
p1008
I1975
sS'xcomp=purge'
p1009
I3063
sS'w+1=off'
p1010
I1279
sS'w+1=rule'
p1011
I1296
sS'w-2=14'
p1012
I2307
sS'w-2=court'
p1013
I2554
sS'w-2=10'
p1014
I2305
sS'w-2=11'
p1015
I2306
sS'xcomp=overlook'
p1016
I3049
sS'conj=hope'
p1017
I274
sS'conj=shift'
p1018
I306
sS'w-2=split'
p1019
I2838
sS'det=the'
p1020
I372
sS'w-2=traveller'
p1021
I2893
sS'w-1=insist'
p1022
I2102
sS'advcl=brazen'
p1023
I7
sS'w+2=non-binding'
p1024
I1659
sS'w-1=participation'
p1025
I2162
sS'w+2=through'
p1026
I1817
sS'w-2=prisoner'
p1027
I2774
sS'rel=in'
p1028
I1184
sS'advmod=and'
p1029
I63
sS'dobj=progress'
p1030
I552
sS'advmod=meanwhile'
p1031
I92
sS'dobj=activity'
p1032
I394
sS'w-1=plan'
p1033
I2166
sS'w-2=York'
p1034
I2442
sS'w-2=critic'
p1035
I2558
sS'dobj=inquiry'
p1036
I492
sS'nsubj=Murtha'
p1037
I732
sS'nsubjpass=event'
p1038
I1000
sS'w-2=term'
p1039
I2871
sS'amod=six-song'
p1040
I164
sS'w-2=possible'
p1041
I2768
sS'w+1=completely'
p1042
I1232
sS'w+2=guidepost'
p1043
I1585
sS'w+2=here'
p1044
I1591
sS'dobj=panel'
p1045
I526
sS'w-1=four'
p1046
I2075
sS'w-2=Abyei'
p1047
I2318
sS'w+2=costume'
p1048
I1499
sS'dobj=reception'
p1049
I559
sS'w+2=guideline'
p1050
I1584
sS'dobj=association'
p1051
I407
sS'dep=allow'
p1052
I328
sS'w-2=take'
p1053
I2864
sS'w+1=herder'
p1054
I1258
sS'prep=over'
p1055
I1148
sS'nsubjpass=church'
p1056
I984
sS'dobj=Bangladesh'
p1057
I378
sS'advmod=immediately'
p1058
I85
sS'conj=seek'
p1059
I303
sS'w-2=census'
p1060
I2518
sS'dobj=riot'
p1061
I572
sS'w+2=belief'
p1062
I1448
sS'dobj=room'
p1063
I576
sS'conj=give'
p1064
I270
sS'w-2=Pena'
p1065
I2403
sS'nsubjpass=that'
p1066
I1077
sS'w-2=escalate'
p1067
I2599
sS'w+2=continue'
p1068
I1497
sS'w+1=tiebreaker'
p1069
I1323
sS'nsubj=clinic'
p1070
I796
sS'w+2=late'
p1071
I1617
sS'w-2=able'
p1072
I2448
sS'ccomp=be'
p1073
I207
sS'w-2=Mikhail'
p1074
I2387
sS'w-1=Karzai'
p1075
I1913
sS'w-2=continue'
p1076
I2551
sS'w-1=bomb'
p1077
I1980
sS'w+2=own'
p1078
I1683
sS'w-2=suicide'
p1079
I2855
sS'dobj=wound'
p1080
I643
sS'w-1=democrat'
p1081
I2042
sS'w-2=health'
p1082
I2646
sS'advmod=anyway'
p1083
I64
sS'dobj=herder'
p1084
I488
sS'w+2=devastate'
p1085
I1514
sS'w-1=stellar'
p1086
I2226
sS'xcomp=present'
p1087
I3055
sS'w+2=undock'
p1088
I1839
sS'nsubj=Organization'
p1089
I739
sS'w-2=stagnation'
p1090
I2840
sS'advmod=along'
p1091
I60
sS'w+2=benchmark'
p1092
I1449
sS'advcl=get'
p1093
I19
sS'w-2=turn'
p1094
I2900
sS'w-1=reportedly'
p1095
I2189
sS'w+1=goal'
p1096
I1254
sS'w-2=pontiff'
p1097
I2766
sS'w+2=whole'
p1098
I1859
sS'w+2=talk'
p1099
I1800
sS'conj=fall'
p1100
I267
sS'nsubj=Sobel'
p1101
I753
sS'w-2=issue'
p1102
I2665
sS'w+1=--'
p1103
I1196
sS'xcomp=serve'
p1104
I3083
sS'w-2=Maliki'
p1105
I2382
sS'w-1=long'
p1106
I2116
sS'w-1=cooking'
p1107
I2019
sS'w-2=Children'
p1108
I2334
sS'w-2=life'
p1109
I2679
sS'w-1=involve'
p1110
I2106
sS'conj=think'
p1111
I311
sS'w-1=Roests'
p1112
I1926
sS'w-1=one'
p1113
I2150
sS'w-2=D.R.C.'
p1114
I2340
sS'advcl=can'
p1115
I8
sS'dobj=term'
p1116
I610
sS'w-1=musical'
p1117
I2133
sS'w-2=United'
p1118
I2435
sS'w+2=good'
p1119
I1581
sS'nsubj=relationship'
p1120
I881
sS'w+2=voter'
p1121
I1849
sS'xcomp=continue'
p1122
I2979
sS'parataxis=depart'
p1123
I1094
sS'w-1=color'
p1124
I2006
sS'dobj=sermon'
p1125
I583
sS'nsubj=group'
p1126
I828
sS'conj=ready'
p1127
I293
sS'w-1=insurgent'
p1128
I2105
sS'xcomp=speak'
p1129
I3089
sS'nsubj=effort'
p1130
I820
sS'w-1=eight'
p1131
I2053
sS'w-2=bomb'
p1132
I2501
sS'w-2=Carbon'
p1133
I2332
sS'xcomp=finance'
p1134
I3011
sS'w-2=Nativity'
p1135
I2391
sS'nsubj=agreement'
p1136
I771
sS'dobj=nonpartisan'
p1137
I515
sS'w-1=committee'
p1138
I2007
sS'w+2=question'
p1139
I1717
sS'ccomp=assure'
p1140
I205
sS'w+2=sermon'
p1141
I1753
sS'w-2=Owens'
p1142
I2400
sS'dep=before'
p1143
I330
sS'w-1=difficult'
p1144
I2046
sS'w-2=three'
p1145
I2881
sS'w-1=design'
p1146
I2043
sS'nsubjpass=union'
p1147
I1086
sS'w+2=clear'
p1148
I1480
sS'dobj=framework'
p1149
I475
sS'nsubj=Wright'
p1150
I764
sS'w-2=charge'
p1151
I2523
sS'xcomp=discourage'
p1152
I2995
sS'w+2=procedure'
p1153
I1712
sS'w-2=veto'
p1154
I2908
sS'w+2=basis'
p1155
I1444
sS'nsubjpass=screen'
p1156
I1060
sS'dobj=lifting'
p1157
I498
sS'xcomp=block'
p1158
I2956
sS'w-2=uniquely'
p1159
I2902
sS'w-1=billion'
p1160
I1977
sS'w-1=three'
p1161
I2257
sS'dobj=firecracker'
p1162
I470
sS'w-1=John'
p1163
I1911
sS'w+2=Hamas'
p1164
I1375
sS'w-2=game'
p1165
I2633
sS'dep=emission'
p1166
I342
sS'xcomp=justify'
p1167
I3032
sS'w-2=presidential'
p1168
I2771
sS'w-2=System'
p1169
I2425
sS'w-1=distinctive'
p1170
I2047
sS'dobj=ceiling'
p1171
I420
sS'w+2=cave'
p1172
I1469
sS'w+1=to'
p1173
I1326
sS'w-1=task'
p1174
I2242
sS'w+2=close'
p1175
I1483
sS'nsubjpass=sanction'
p1176
I1057
sS'w-2=negotiate'
p1177
I2721
sS'w-2=Abuja'
p1178
I2317
sS'dobj=tone'
p1179
I618
sS'w+2=he'
p1180
I1588
sS'xcomp=hope'
p1181
I3025
sS'w+2=specific'
p1182
I1777
sS'w+2=foot'
p1183
I1565
sS'w+2=transparent'
p1184
I1829
sS'w-1=charity'
p1185
I1998
sS'w-1=any'
p1186
I1955
sS'w+2=California'
p1187
I1371
sS'w+1=include'
p1188
I1263
sS'dobj=risk'
p1189
I573
sS'advmod=first'
p1190
I80
sS'advmod=nearby'
p1191
I97
sS'w-1=trial'
p1192
I2264
sS'w-2=method'
p1193
I2701
sS'w-1=measure'
p1194
I2120
sS'w-1=scene'
p1195
I2198
sS'xcomp=withdraw'
p1196
I3113
sS'w+2=September'
p1197
I1394
sS'w-2=first'
p1198
I2618
sS'advmod=deliberately'
p1199
I73
sS'w-2=conduct'
p1200
I2545
sS'w-1=hour'
p1201
I2096
sS'w-2=Obama'
p1202
I2397
sS'w-2=although'
p1203
I2469
sS'w+2=now'
p1204
I1661
sS'w-2=global'
p1205
I2637
sS'advmod=if'
p1206
I84
sS'w+1=South'
p1207
I1204
sS'xcomp=worth'
p1208
I3115
sS'w+1=strict'
p1209
I1308
sS'w+1=Gaza'
p1210
I1201
sS"w-1='ll"
p1211
I1874
sS'w-2=build'
p1212
I2507
sS'rcmod=compare'
p1213
I1173
sS'w+2=those'
p1214
I1814
sS'prt=on'
p1215
I1165
sS'w-2=statement'
p1216
I2845
sS'nsubj=Tompkins'
p1217
I758
sS'tmod=day'
p1218
I1188
sS'w+2=economic'
p1219
I1528
sS'auxpass=get'
p1220
I196
sS'dobj=station'
p1221
I597
sS'w-1=militant'
p1222
I2124
sS'nsubjpass=area'
p1223
I972
sS'w+2=retirement'
p1224
I1737
sS'dobj=ambush'
p1225
I401
sS'w-2=Ukrainians'
p1226
I2432
sS'ccomp=quit'
p1227
I224
sS'advmod=there'
p1228
I118
sS'advcl=kidnap'
p1229
I22
sS'amod=best'
p1230
I127
sS'w+2=1970'
p1231
I1348
sS'w+2=temporary'
p1232
I1805
sS'w-2=agree'
p1233
I2462
sS'w-2=Nigeria'
p1234
I2394
sS'dobj=tent'
p1235
I609
sS'w+2=over'
p1236
I1682
sS'w+2=Noun'
p1237
I1386
sS'xcomp=landmark'
p1238
I3033
sS'w+2=straight'
p1239
I1785
sS'w+2=carry'
p1240
I1466
sS'w+2=many'
p1241
I1631
sS'w+1=timetable'
p1242
I1324
sS'conj=spark'
p1243
I307
sS'amod=different'
p1244
I140
sS'nsubj=decision'
p1245
I812
sS'nsubj=States'
p1246
I755
sS'ccomp=stay'
p1247
I230
sS'nn=film'
p1248
I673
sS'dep=come'
p1249
I336
sS'conj=fear'
p1250
I268
sS'w+2=building'
p1251
I1458
sS'dobj=office'
p1252
I518
sS'w-2=play'
p1253
I2760
sS'w-2=mishandle'
p1254
I2706
sS'w+2=its'
p1255
I1609
sS'amod=whole'
p1256
I178
sS'xcomp=release'
p1257
I3071
sS'w-2=plan'
p1258
I2759
sS'nsubj=Project'
p1259
I745
sS'w+1=wise'
p1260
I1336
sS'w-2=clinical'
p1261
I2532
sS'w-2=day'
p1262
I2562
sS'dobj=church'
p1263
I427
sS'nn=solution'
p1264
I679
sS'w-1=screen'
p1265
I2200
sS'w-1=Katrina'
p1266
I1914
sS'nsubjpass=Wade'
p1267
I967
sS'w-2=bolder'
p1268
I2500
sS'w-2=mosque'
p1269
I2714
sS'dobj=member'
p1270
I507
sS'w-1=last'
p1271
I2112
sS'dobj=problem'
p1272
I549
sS'dep=denounce'
p1273
I338
sS'nn=kitchen'
p1274
I675
sS'nsubj=Ford'
p1275
I708
sS'nsubjpass=government'
p1276
I1011
sS'w-2=already'
p1277
I2466
sS'w+2=within'
p1278
I1865
sS'prep=beside'
p1279
I1129
sS'w+2=earn'
p1280
I1526
sS'w-1=astronaut'
p1281
I1962
sS'w+1=standard'
p1282
I1306
sS'nsubj=EU'
p1283
I705
sS'xcomp=raise'
p1284
I3064
sS'w+2=January'
p1285
I1378
sS'conj=continue'
p1286
I253
sS'w-2=flexibility'
p1287
I2620
sS'nsubj=Katrina'
p1288
I723
sS'w-2=Pete'
p1289
I2404
sS'w-1=originally'
p1290
I2155
sS'w+1=Pakistan'
p1291
I1203
sS'w-1=ceremony'
p1292
I1995
sS'w-2=parliamentary'
p1293
I2748
sS'w-1=pact'
p1294
I2159
sS'w-2=conflict'
p1295
I2547
sS'w+2=phone'
p1296
I1693
sS'w+2=priority'
p1297
I1710
sS'xcomp=try'
p1298
I3107
sS'w-1=radio'
p1299
I2183
sS'w+1=design'
p1300
I1237
sS'xcomp=reduce'
p1301
I3070
sS'w-2=clinic'
p1302
I2531
sS'nsubjpass=who'
p1303
I1089
sS'nsubj=tribunal'
p1304
I917
sS'w-2=shuttle'
p1305
I2828
sS'conj=about'
p1306
I239
sS'nsubjpass=mosque'
p1307
I1027
sS'w+2=softer'
p1308
I1770
sS'w-1=webcam'
p1309
I2278
sS'w+2=deliver'
p1310
I1511
sS'dobj=exchange'
p1311
I460
sS'nsubj=a'
p1312
I767
sS'w+1=loss'
p1313
I1272
sS'nsubjpass=market'
p1314
I1020
sS'w-2=you'
p1315
I2943
sS'w-2=trial'
p1316
I2896
sS'dobj=factory'
p1317
I465
sS'nsubjpass=Peace'
p1318
I961
sS'xcomp=treat'
p1319
I3106
sS'dobj=bill'
p1320
I412
sS'w+2=some'
p1321
I1773
sS'nsubj=official'
p1322
I853
sS'w-2=London'
p1323
I2381
sS'w-2=brutality'
p1324
I2504
sS'nsubjpass=result'
p1325
I1052
sS'dobj=standard'
p1326
I596
sS'w+2=wedding'
p1327
I1854
sS'nsubjpass=commission'
p1328
I986
sS'mark=on'
p1329
I654
sS'dobj=U.S.'
p1330
I389
sS'nsubjpass=side'
p1331
I1063
sS'w-2=Cross'
p1332
I2339
sS'xcomp=straight'
p1333
I3093
sS'w-2=standard'
p1334
I2841
sS'w+2=nearby'
p1335
I1653
sS'xcomp=allow'
p1336
I2949
sS'cc=but'
p1337
I199
sS'conj=rush'
p1338
I300
sS'w+2=amendment'
p1339
I1419
sS'amod=own'
p1340
I159
sS'w-1=Indonesia'
p1341
I1907
sS'w+2=fill'
p1342
I1556
sS'w+2=film'
p1343
I1557
sS'xcomp=make'
p1344
I3039
sS'w-1=help'
p1345
I2092
sS'w-2=or'
p1346
I2739
sS'xcomp=clear'
p1347
I2968
sS'advcl=play'
p1348
I30
sS'advcl=follow'
p1349
I18
sS'nsubj=zanu-pf'
p1350
I934
sS'w+2=fighting'
p1351
I1555
sS'w-1=bill'
p1352
I1976
sS'w+2=roadblock'
p1353
I1742
sS'dobj=watch'
p1354
I634
sS'nn=desperation'
p1355
I672
sS'rcmod=bolster'
p1356
I1172
sS'w-2=700'
p1357
I2315
sS'w-2=begin'
p1358
I2494
sS'w-1=limit'
p1359
I2115
sS'w+2=cover'
p1360
I1503
sS'w+1=come'
p1361
I1231
sS'w-2=crisis'
p1362
I2557
sS'w+2=arsonist'
p1363
I1432
sS'w+2=deadline'
p1364
I1509
sS'w+1=today'
p1365
I1327
sS'w+2=exact'
p1366
I1544
sS'w-2=defender'
p1367
I2567
sS'w-2=Sleepwalkers'
p1368
I2420
sS'w+2=which'
p1369
I1858
sS'w-1=trend'
p1370
I2263
sS'w-2=kit'
p1371
I2671
sS'dobj=business'
p1372
I416
sS'w+2=bad'
p1373
I1440
sS'nsubj=sound'
p1374
I896
sS'w-2=demand'
p1375
I2570
sS'w-1=further'
p1376
I2079
sS'w-1=barricade'
p1377
I1966
sS'w+2=wire'
p1378
I1862
sS'w+2=missile'
p1379
I1642
sS'w-2=structure'
p1380
I2853
sS'xcomp=select'
p1381
I3080
sS'w+2=bar'
p1382
I1441
sS'nsubj=man'
p1383
I838
sS'w+2=hold'
p1384
I1592
sS'w+1=go'
p1385
I1253
sS'nsubj=which'
p1386
I922
sS'nsubj=blast'
p1387
I783
sS'w-1=gunman'
p1388
I2089
sS'w-1=for'
p1389
I2073
sS'conj=take'
p1390
I310
sS'dep=day'
p1391
I337
sS'w-2=Program'
p1392
I2407
sS'nsubjpass=group'
p1393
I1012
sS'nsubjpass=target'
p1394
I1076
sS'conj=turn'
p1395
I313
sS'advmod=apparently'
p1396
I66
sS'xcomp=demand'
p1397
I2990
sS'csubj=have'
p1398
I321
sS'advmod=recently'
p1399
I108
sS'nsubjpass=Kibaki'
p1400
I951
sS'w-2=Delaware'
p1401
I2341
sS'w-1=upon'
p1402
I2271
sS'dep=about'
p1403
I325
sS'w-1=institution'
p1404
I2104
sS'w-2=cleanse'
p1405
I2529
sS'w+2=right'
p1406
I1738
sS'w-1=under-25'
p1407
I2268
sS'w-2=hold'
p1408
I2649
sS'nsubjpass=Trust'
p1409
I964
sS'w-1=who'
p1410
I2282
sS'w-2=debate'
p1411
I2564
sS'xcomp=negotiate'
p1412
I3044
sS'w-1=first'
p1413
I2070
sS'w+2=up'
p1414
I1841
sS'nsubj=Supertramp'
p1415
I756
sS'nsubj=negotiator'
p1416
I851
sS'w+1=Islam'
p1417
I1202
sS'nsubjpass=member'
p1418
I1022
sS'w-2=26,000'
p1419
I2313
sS'w-2=law'
p1420
I2674
sS'w+1=withdrawal'
p1421
I1338
sS'w+1=up'
p1422
I1331
sS'w+2=four'
p1423
I1568
sS'w+1=while'
p1424
I1335
sS'w-1=two'
p1425
I2267
sS'w-1=Hampshire'
p1426
I1902
sS'prep=across'
p1427
I1120
sS'xcomp=violate'
p1428
I3109
sS'nsubjpass=center'
p1429
I983
sS'w-2=crime'
p1430
I2556
sS'dobj=target'
p1431
I605
sS'nsubj=minister'
p1432
I844
sS'dep=for'
p1433
I344
sS'advcl=put'
p1434
I34
sS'nsubjpass=resident'
p1435
I1051
sS'amod=effective'
p1436
I143
sS'dobj=wave'
p1437
I636
sS'w-1=debate'
p1438
I2035
sS'w-2=World'
p1439
I2441
sS'w+1=with'
p1440
I1337
sS'partmod=burn'
p1441
I1102
sS'w-2=goal'
p1442
I2639
sS'w-1=program'
p1443
I2177
sS'w-1=nearly'
p1444
I2138
sS'xcomp=go'
p1445
I3019
sS'advmod=outside'
p1446
I105
sS'w+2=face'
p1447
I1550
sS'w-1=agency'
p1448
I1947
sS'w-1=arrangement'
p1449
I1959
sS'w+2=pledge'
p1450
I1699
sS'nsubjpass=ruling'
p1451
I1055
sS'w-2=.'
p1452
I2304
sS'xcomp=ablaze'
p1453
I2945
sS'nsubjpass=moment'
p1454
I1026
sS'nsubj=authority'
p1455
I780
sS'w+2=Iraq'
p1456
I1377
sS'w+2=timetable'
p1457
I1820
sS'dobj=number'
p1458
I517
sS'advmod=south'
p1459
I114
sS'w+2=measurement'
p1460
I1634
sS'w+2=joint'
p1461
I1611
sS'w+2=Iran'
p1462
I1376
sS'dobj=bank'
p1463
I408
sS'w-2=thing'
p1464
I2877
sS'w-2=Smith'
p1465
I2421
sS'w+2=disease'
p1466
I1517
sS'w-2=I'
p1467
I2362
sS'w+2=principle'
p1468
I1709
sS'w-1=choice'
p1469
I2000
sS'w-2=woman'
p1470
I2937
sS'w-2=decision'
p1471
I2565
sS'amod=stagewas'
p1472
I167
sS'w+2=ODM'
p1473
I1388
sS'nsubj=report'
p1474
I882
sS'w-2=ethnic'
p1475
I2600
sS'w-1=summit'
p1476
I2236
sS'w+2=policy'
p1477
I1700
sS'w-2=human'
p1478
I2652
sS'w+2=mid-july'
p1479
I1639
sS'dobj=deadline'
p1480
I444
sS'nsubjpass=exercise'
p1481
I1001
sS'w+2=interest'
p1482
I1605
sS'nn=box'
p1483
I666
sS'w-2=`'
p1484
I2445
sS'w-2=a'
p1485
I2446
sS'w-1=process'
p1486
I2176
sS'nsubjpass=Goals'
p1487
I946
sS'w-2=material'
p1488
I2694
sS'w-2=capital'
p1489
I2515
sS'nsubjpass=Area'
p1490
I938
sS'w+2=ablaze'
p1491
I1405
sS'w-2=four-cd'
p1492
I2627
sS'nsubj=democrat'
p1493
I815
sS'w+2=shelter'
p1494
I1758
sS'w+1=high'
p1495
I1259
sS'w+2=tone'
p1496
I1822
sS'conj=highlight'
p1497
I273
sS'nsubjpass=house'
p1498
I1015
sS'w+2=standard'
p1499
I1780
sS'w-2=table'
p1500
I2862
sS'w-2=make'
p1501
I2687
sS'w+2=novel'
p1502
I1660
sS'w-1=he'
p1503
I2091
sS'nsubj=head'
p1504
I829
sS'dobj=embassy'
p1505
I455
sS'xcomp=broaden'
p1506
I2958
sS'w-2=scale'
p1507
I2810
sS'w-2=member'
p1508
I2700
sS'w-1=mechanism'
p1509
I2121
sS'w+1=from'
p1510
I1252
sS'neg=never'
p1511
I662
sS'xcomp=lose'
p1512
I3038
sS'nsubj=plan'
p1513
I867
sS'w-2=Jude'
p1514
I2372
sS'dobj=novel'
p1515
I516
sS'w+2=center'
p1516
I1471
sS'amod=demand'
p1517
I138
sS'nsubj=other'
p1518
I856
sS'dobj=administration'
p1519
I395
sS'w-2=maker'
p1520
I2688
sS'xcomp=begin'
p1521
I2955
sS'nsubjpass=condition'
p1522
I989
sS'dobj=commitment'
p1523
I431
sS'w+2=certain'
p1524
I1472
sS'w-1=work'
p1525
I2290
sS'dobj=vote'
p1526
I632
sS'xcomp=vote'
p1527
I3111
sS'w-2=political'
p1528
I2763
sS'dobj=republic'
p1529
I567
sS'w-2=during'
p1530
I2589
sS'nsubjpass=Sassou-Nguesso'
p1531
I963
sS'xcomp=symbolize'
p1532
I3097
sS'w-2=yet'
p1533
I2942
sS'xcomp=send'
p1534
I3082
sS'w-2=likely'
p1535
I2680
sS'w-2=Leone'
p1536
I2380
sS'w+2=sight'
p1537
I1759
sS'w-2=this'
p1538
I2878
sS'mark=since'
p1539
I656
sS'dobj=priority'
p1540
I548
sS'dobj=chain-reaction'
p1541
I423
sS'w-1=ever'
p1542
I2059
sS'dobj=hope'
p1543
I489
sS'w-1=even'
p1544
I2057
sS'nsubj=WTO'
p1545
I762
sS'prep=from'
p1546
I1138
sS'w+2=chance'
p1547
I1473
sS'prt=off'
p1548
I1164
sS'ccomp=undermine'
p1549
I232
sS'w+2=charge'
p1550
I1475
sS'w-2=security'
p1551
I2818
sS'w+2=both'
p1552
I1454
sS'w-2=cleric'
p1553
I2530
sS'w+2=stress'
p1554
I1789
sS'w+2=signing'
p1555
I1761
sS'w+2=to'
p1556
I1821
sS'nsubj=bomber'
p1557
I785
sS'xcomp=distribute'
p1558
I2997
sS'w-1=equipment'
p1559
I2056
sS'tmod=week'
p1560
I1192
sS'w+1=,'
p1561
I1195
sS'w+1=.'
p1562
I1199
sS'xcomp=strengthen'
p1563
I3094
sS'dep=after'
p1564
I327
sS'w+2=home'
p1565
I1593
sS'w-2=Ukraine'
p1566
I2431
sS'w+2=tent'
p1567
I1806
sS'nsubj=Pena'
p1568
I741
sS'advcl=after'
p1569
I1
sS'w-2=watchdog'
p1570
I2916
sS'w-1=cap'
p1571
I1991
sS'w-1=quickly'
p1572
I2182
sS'w+2=operate'
p1573
I1671
sS'w-2=Thursday'
p1574
I2428
sS'conj=monitor'
p1575
I283
sS'w-1=today'
p1576
I2261
sS'conj=aim'
p1577
I240
sS'w+2=precise'
p1578
I1705
sS'mark=with'
p1579
I661
sS'nsubjpass=total'
p1580
I1081
sS'w+1=a'
p1581
I1207
sS'w-2=Washington'
p1582
I2439
sS'w+2=demand'
p1583
I1512
sS'w+1=U.S.'
p1584
I1206
sS'nsubj=meeting'
p1585
I841
sS'w+2=woman'
p1586
I1866
sS'w-1=include'
p1587
I2099
sS'w-1=Finance'
p1588
I1899
sS'amod=general'
p1589
I148
sS'w-1=suggest'
p1590
I2235
sS'w-2=lose'
p1591
I2684
sS'w+2=trader'
p1592
I1825
sS'dobj=right'
p1593
I571
sS'nsubjpass=many'
p1594
I1019
sS'xcomp=house'
p1595
I3026
sS'preconj=both'
p1596
I1116
sS'w+2=vehicle'
p1597
I1843
sS'dobj=triangle'
p1598
I623
sS'w-1=benchmark'
p1599
I1971
sS'w-2=stage'
p1600
I2839
sS'ccomp=battle'
p1601
I206
sS'w+2=consider'
p1602
I1495
sS'w+2=headquarters'
p1603
I1589
sS'w-2=people'
p1604
I2755
sS'advmod=lower'
p1605
I91
sS'nsubj=Conte'
p1606
I699
sS'nsubjpass=system'
p1607
I1074
sS'advcl=express'
p1608
I16
sS'nsubjpass=tire'
p1609
I1080
sS'advcl=prepare'
p1610
I31
sS'nsubjpass=discussion'
p1611
I997
sS'w-2=Mogadishu'
p1612
I2388
sS'w+2=street'
p1613
I1787
sS'nsubjpass=panel'
p1614
I1034
sS'partmod=mean'
p1615
I1109
sS'xcomp=combat'
p1616
I2972
sS'advcl=wake'
p1617
I49
sS'xcomp=earn'
p1618
I3000
sS'w-2=arrest'
p1619
I2482
sS'advcl=worry'
p1620
I52
sS'dobj=ideology'
p1621
I491
sS'w+2=agenda'
p1622
I1414
sS'conj=open'
p1623
I284
sS'w-1=Sobel'
p1624
I1930
sS'w-1=african'
p1625
I1944
sS'w-2=413'
p1626
I2314
sS'dobj=group'
p1627
I483
sS'w+1=specific'
p1628
I1305
sS'nsubj=wife'
p1629
I924
sS'w+1=benchmark'
p1630
I1225
sS'w+2=withdrawal'
p1631
I1864
sS'nsubjpass=Guinea'
p1632
I947
sS'w-1=would'
p1633
I2292
sS'xcomp=entrap'
p1634
I3003
sS'w-1=start-up'
p1635
I2225
sS'w-2=peace'
p1636
I2753
sS'w-1=team'
p1637
I2243
sS'w+1=these'
p1638
I1319
sS'w+1=only'
p1639
I1281
sS'dobj=meeting'
p1640
I506
sS'xcomp=conquer'
p1641
I2976
sS'w+2=well'
p1642
I1856
sS'w+2=problem'
p1643
I1711
sS'dobj=ego'
p1644
I452
sS'w-1=beyond'
p1645
I1974
sS'conj=encourage'
p1646
I264
sS'w-2=price'
p1647
I2772
sS'advmod=precisely'
p1648
I106
sS'w-1=zanu-pf'
p1649
I2296
sS'w+2=begin'
p1650
I1447
sS'nsubj=proposal'
p1651
I877
sS'w-2=distribution'
p1652
I2582
sS'dobj=penalty'
p1653
I530
sS'w-1=caucus'
p1654
I1993
sS'w+2=speak'
p1655
I1776
sS'parataxis=take'
p1656
I1099
sS'advmod=straight'
p1657
I116
sS'w-1=avoid'
p1658
I1964
sS'w+2=original'
p1659
I1674
sS'w-2=Council'
p1660
I2338
sS'w-2=21'
p1661
I2312
sS'xcomp=give'
p1662
I3018
sS'xcomp=affect'
p1663
I2948
sS'xcomp=dominate'
p1664
I2999
sS'conj=abduct'
p1665
I238
sS'w-1=five'
p1666
I2071
sS'ccomp=part'
p1667
I223
sS'advcl=take'
p1668
I45
sS'w+2=country'
p1669
I1500
sS'w-2=today'
p1670
I2888
sS'w-2=demonstrator'
p1671
I2573
sS'xcomp=country'
p1672
I2983
sS'purpcl=accommodate'
p1673
I1168
sS'nsubjpass=price'
p1674
I1044
sS'dobj=aid'
p1675
I399
sS'w-2=depart'
p1676
I2574
sS'dobj=course'
p1677
I441
sS'nsubj=Fitzgerald'
p1678
I707
sS'advcl=reintegrate'
p1679
I35
sS'w-2=home'
p1680
I2650
sS'w-1=Islamists'
p1681
I1910
sS'dobj=pace'
p1682
I524
sS'conj=burn'
p1683
I247
sS'w-2=Seahawks'
p1684
I2417
sS'w+2=made-up'
p1685
I1629
sS'w-1=Congress'
p1686
I1890
sS'w+2=NASA'
p1687
I1384
sS'w+2=go'
p1688
I1579
sS'nsubj=price'
p1689
I872
sS'advcl=complain'
p1690
I12
sS'ccomp=go'
p1691
I219
sS'nsubjpass=course'
p1692
I991
sS'w-2=act'
p1693
I2451
sS'w+2=suicide'
p1694
I1792
sS'complm=that'
p1695
I234
sS'dobj=matter'
p1696
I504
sS'tmod=month'
p1697
I1190
sS'nsubj=bombing'
p1698
I786
sS'w+2=legal'
p1699
I1622
sS"w+1=''"
p1700
I1194
sS'w+2=vote'
p1701
I1848
sS'w+2=world'
p1702
I1868
sS'dobj=unit'
p1703
I626
sS'rcmod=lead'
p1704
I1180
sS'dep=on'
p1705
I352
sS'w-2=soldier'
p1706
I2832
sS'dep=order'
p1707
I353
sS'w+1=not'
p1708
I1277
sS'w+2=common'
p1709
I1489
sS'w-2=characteristic'
p1710
I2522
sS'xcomp=do'
p1711
I2998
sS'w-2=for'
p1712
I2623
sS'w+1=they'
p1713
I1320
sS'xcomp=high'
p1714
I3023
sS'w-2=independence'
p1715
I2658
sS'dobj=pandemic'
p1716
I525
sS'dobj=record'
p1717
I561
sS'nsubjpass=Aye'
p1718
I939
sS'w-2=Kristine'
p1719
I2375
sS'conj=reduce'
p1720
I295
sS'w-2=demonstration'
p1721
I2572
sS'prep=in'
p1722
I1139
sS'conj=win'
p1723
I318
sS'w-1=about'
p1724
I1940
sS'w-1=story'
p1725
I2228
sS'w+2=meticulous'
p1726
I1637
sS'w-1=strong'
p1727
I2234
sS'advmod=yet'
p1728
I124
sS'dobj=day'
p1729
I443
sS'w+2=Sembene'
p1730
I1392
sS'w-2=Television'
p1731
I2426
sS'ccomp=deliver'
p1732
I212
sS'w-1=at'
p1733
I1963
sS'w+2=political'
p1734
I1701
sS'w-1=bank'
p1735
I1965
sS'w+1=aside'
p1736
I1221
sS'nsubj=the'
p1737
I911
sS'w+2=anti-terror'
p1738
I1424
sS'w-2=contention'
p1739
I2550
sS'nsubjpass=Lebanon'
p1740
I952
sS'w-1=instead'
p1741
I2103
sS'w-2=Annan'
p1742
I2323
sS'nsubj=Blues'
p1743
I693
sS'nsubjpass=negotiation'
p1744
I1029
sS'w+2=start'
p1745
I1781
sS'nsubjpass=candidate'
p1746
I982
sS'xcomp=come'
p1747
I2973
sS'partmod=work'
p1748
I1113
sS'infmod=meet'
p1749
I645
sS'dobj=benchmark'
p1750
I411
sS'w-2=insist'
p1751
I2662
sS'w-1=it'
p1752
I2107
sS'ccomp=case'
p1753
I211
sS'w-2=government'
p1754
I2640
sS'w+2=tool'
p1755
I1823
sS'w-1=striking'
p1756
I2233
sS'w-1=fighting'
p1757
I2066
sS'w+2=sanction'
p1758
I1750
sS'det=this'
p1759
I373
sS'w+1=monetary'
p1760
I1273
sS'w-1=in'
p1761
I2098
sS'nsubj=curfew'
p1762
I807
sS'xcomp=rule'
p1763
I3079
sS'w-2=youth'
p1764
I2944
sS'w-1=uniform'
p1765
I2269
sS'w-1=fence'
p1766
I2064
sS'w-1=apparently'
p1767
I1956
sS'w-1=the'
p1768
I2250
sS'w-1=crew'
p1769
I2024
sS'nsubj=controversy'
p1770
I803
sS'w+2=disagreement'
p1771
I1515
sS'w+2=issue'
p1772
I1608
sS'w-2=objection'
p1773
I2729
sS'mark=if'
p1774
I652
sS'w+2=coincide'
p1775
I1484
sS'ccomp=adventure'
p1776
I204
sS'mark=in'
p1777
I653
sS'w-1=clear'
p1778
I2001
sS'w-1=allegedly'
p1779
I1950
sS'dobj=close'
p1780
I429
sS'amod=first'
p1781
I146
sS'w+2=itself'
p1782
I1610
sS'w-2=state'
p1783
I2843
sS'nsubj=teammate'
p1784
I908
sS'xcomp=detect'
p1785
I2993
sS'w+2=day'
p1786
I1508
sS'w+1=among'
p1787
I1215
sS'w-1=USA'
p1788
I1935
sS'w-2=they'
p1789
I2876
sS'rcmod=be'
p1790
I1171
sS'amod=#NUMBER#'
p1791
I125
sS'dobj=village'
p1792
I630
sS'dep=say'
p1793
I355
sS'w+2=Afghanistan'
p1794
I1365
sS'w-1=television'
p1795
I2244
sS'w+2=negotiation'
p1796
I1656
sS'dobj=country'
p1797
I440
sS'w+1=condition'
p1798
I1234
sS'w-2=through'
p1799
I2882
sS'w+2=logistical'
p1800
I1626
sS'w+2=regional'
p1801
I1729
sS'w-2=River'
p1802
I2411
sS'prep=along'
p1803
I1123
sS'nsubj=who'
p1804
I923
sS'w+1=car'
p1805
I1229
sS'w-2=decline'
p1806
I2566
sS'dobj=trader'
p1807
I619
sS'w+2=larger'
p1808
I1615
sS'nsubjpass=film'
p1809
I1003
sS'w-2=of'
p1810
I2730
sS'nsubj=bank'
p1811
I781
sS'w-2=country'
p1812
I2553
sS'nsubj=failure'
p1813
I822
sS'rcmod=hold'
p1814
I1177
sS'w-1=precedent'
p1815
I2171
sS'nsubj=party'
p1816
I863
sS'w+2=suspect'
p1817
I1796
sS'dobj=store'
p1818
I598
sS'nn=core'
p1819
I670
sS'w+1=policy'
p1820
I1287
sS'dobj=story'
p1821
I599
sS'nsubj=Annan'
p1822
I690
sS'w-2=prepare'
p1823
I2769
sS'advmod=again'
p1824
I55
sS'w-2=refuse'
p1825
I2792
sS'w-2=Obiang'
p1826
I2398
sS'dobj=negotiation'
p1827
I513
sS'w-2=desire'
p1828
I2575
sS'w+2=transparency'
p1829
I1828
sS'w-2=ability'
p1830
I2447
sS'w-2=agreement'
p1831
I2463
sS'w+2=car'
p1832
I1465
sS'w+2=Bali'
p1833
I1369
sS'conj=Yen-Hsun'
p1834
I237
sS'nsubj=government'
p1835
I826
sS'xcomp=step'
p1836
I3091
sS'aux=must'
p1837
I189
sS'w+1=as'
p1838
I1220
sS'w-2=another'
p1839
I2474
sS'w+1=at'
p1840
I1222
sS'dobj=momentum'
p1841
I510
sS'dep=start'
p1842
I359
sS'nsubj=House'
p1843
I712
sS'ccomp=watch'
p1844
I233
sS'advcl=audition'
p1845
I3
sS'w-1=own'
p1846
I2158
sS'nsubj=arrangement'
p1847
I775
sS'w+2=so'
p1848
I1769
sS'w+2=registration'
p1849
I1730
sS'mark=for'
p1850
I651
sS'nsubjpass=Wilson'
p1851
I968
sS'w-1=Nations'
p1852
I1919
sS'dep=seek'
p1853
I356
sS'w-1=can'
p1854
I1990
sS'w-2=official'
p1855
I2731
sS'w-1=condition'
p1856
I2012
sS'w-2=produce'
p1857
I2779
sS'w+1=target'
p1858
I1312
sS'dep=adpc'
p1859
I326
sS'w+1=everything'
p1860
I1243
sS'w+2=press'
p1861
I1707
sS'w+1=lifting'
p1862
I1269
sS'w-1=Agreement'
p1863
I1882
sS'w-1=venue'
p1864
I2272
sS'nsubjpass=Council'
p1865
I942
sS'w+2=cast'
p1866
I1467
sS'conj=last'
p1867
I278
sS'nsubj=footstep'
p1868
I825
sS'w-1=those'
p1869
I2256
sS'predet=such'
p1870
I1117
sS'advmod=when'
p1871
I121
sS'w-2=ever'
p1872
I2602
sS'nsubj=Olmert'
p1873
I738
sS'w+2=condition'
p1874
I1494
sS'advcl=restore'
p1875
I37
sS'amod=greatest'
p1876
I149
sS'xcomp=deal'
p1877
I2987
sS'w-1=demand'
p1878
I2041
sS'dep=story'
p1879
I360
sS'w-2=maintain'
p1880
I2685
sS'w+2=4-6'
p1881
I1355
sS'w-2=key'
p1882
I2668
sS'w+2=handover'
p1883
I1586
sS'w+1=we'
p1884
I1334
sS'w-2=respond'
p1885
I2797
sS'nsubjpass=timing'
p1886
I1079
sS'w-1=desperation'
p1887
I2044
sS'nsubj=Odyssey'
p1888
I737
sS'w-2=fundamental'
p1889
I2631
sS'w-1=organization'
p1890
I2154
sS'w-2=Rumsfeld'
p1891
I2412
sS'xcomp=resume'
p1892
I3076
sS'w-1=Iraqis'
p1893
I1909
sS'w-1=date'
p1894
I2030
sS'advmod=initially'
p1895
I87
sS'nsubjpass=conference'
p1896
I990
sS'dep=#NUMBER#'
p1897
I324
sS'auxpass=be'
p1898
I195
sS'conj=recruit'
p1899
I294
sS'dobj=watchdog'
p1900
I635
sS'w+2=limitation'
p1901
I1624
sS'w-2=superstar'
p1902
I2858
sS'w-1=year'
p1903
I2293
sS'nsubj=bill'
p1904
I782
sS'w+2=after'
p1905
I1411
sS'w-2=last'
p1906
I2673
sS'conj=introduce'
p1907
I276
sS'dobj=company'
p1908
I434
sS'w+2=expire'
p1909
I1547
sS'w+2=template'
p1910
I1804
sS'advmod=still'
p1911
I115
sS'dobj=itinerary'
p1912
I495
sS'dobj=opposition-in-exile'
p1913
I520
sS'w+1=next'
p1914
I1276
sS'conj=deal'
p1915
I256
sS'w-2=be'
p1916
I2493
sS'prep=include'
p1917
I1140
sS'w-2=must'
p1918
I2716
sS'nsubj=trial'
p1919
I916
sS'w-1=system'
p1920
I2239
sS'nsubj=operation'
p1921
I854
sS'w-1=Fitzgerald'
p1922
I1900
sS'w-1=pirogue'
p1923
I2165
sS'nsubj=#NUMBER#'
p1924
I684
sS'w-1=Tompkins'
p1925
I1932
sS'amod=broader'
p1926
I129
sS'w+2=serve'
p1927
I1754
sS'w-2=1992'
p1928
I2310
sS'w+2=free'
p1929
I1570
sS'nsubj=choice'
p1930
I794
sS'w-2=Syria'
p1931
I2424
sS'w-1=mob'
p1932
I2126
sS'nsubj=rioter'
p1933
I884
sS'w-1=decay'
p1934
I2036
sS'dobj=radio'
p1935
I557
sS"w-1=''"
p1936
I1873
sS'w-2=release'
p1937
I2794
sS'dobj=partisanship'
p1938
I528
sS'w-1=strike'
p1939
I2232
sS'xcomp=work'
p1940
I3114
sS'w-2=foundation'
p1941
I2626
sS'w-2=timetable'
p1942
I2885
sS'nsubjpass=#NUMBER#'
p1943
I936
sS'xcomp=undock'
p1944
I3108
sS'advcl=high'
p1945
I21
sS'w-2=sometimes'
p1946
I2834
sS'parataxis=#NUMBER#'
p1947
I1091
sS'xcomp=transport'
p1948
I3104
sS'w-2=participant'
p1949
I2750
sS'nsubj=Seeger'
p1950
I750
sS'conj=do'
p1951
I261
sS'w-1=procedure'
p1952
I2175
sS'dobj=mass'
p1953
I503
sS'tmod=afternoon'
p1954
I1187
sS'w+1=term'
p1955
I1314
sS"w-2=''"
p1956
I2298
sS'nsubj=this'
p1957
I913
sS'dobj=government'
p1958
I480
sS'dobj=precondition'
p1959
I545
sS'w-2=Odinga'
p1960
I2399
sS'w+1=fiscal'
p1961
I1246
sS'w+2=unofficial'
p1962
I1840
sS'nsubj=fleet'
p1963
I824
sS'w-2=Microsoft'
p1964
I2386
sS'w-1=area'
p1965
I1958
sS'conj=have'
p1966
I272
sS'w-2=part'
p1967
I2749
sS'w-2=Security'
p1968
I2418
sS'dobj=bomb'
p1969
I414
sS'dobj=Unit'
p1970
I390
sS'w+2=win'
p1971
I1860
sS'w-2=general'
p1972
I2635
sS'w+2=story'
p1973
I1784
sS'w+2=ceiling'
p1974
I1470
sS'w-2=murder'
p1975
I2715
sS'w+2=apart'
p1976
I1426
sS'w-2=root'
p1977
I2802
sS'dobj=blueprint'
p1978
I413
sS'w-2=then'
p1979
I2875
sS'w+2=final'
p1980
I1558
sS'w+2=american'
p1981
I1420
sS'w-2=add'
p1982
I2452
sS'w+2=arbitrary'
p1983
I1428
sS'w-2=rate'
p1984
I2786
sS'w+2=mock'
p1985
I1644
sS"w-2='s"
p1986
I2299
sS'w-1=bomber'
p1987
I1981
sS'w+1=yet'
p1988
I1339
sS'amod=distinctive'
p1989
I142
sS'advcl=have'
p1990
I20
sS'dobj=philosophy'
p1991
I534
sS'w-1=nurse'
p1992
I2145
sS'w-1=WTO'
p1993
I1936
sS'w-1=target'
p1994
I2241
sS'w-2=no'
p1995
I2726
sS'w-1=requirement'
p1996
I2190
sS'nsubjpass=complex'
p1997
I988
sS'w-2=but'
p1998
I2509
sS'dobj=seat'
p1999
I581
sS'parataxis=recognize'
p2000
I1098
sS'w+2=near'
p2001
I1652
sS'w-1=money'
p2002
I2127
sS'w+2=politics'
p2003
I1702
sS'dobj=report'
p2004
I566
sS'w+1=clear'
p2005
I1230
sS'nsubjpass=first'
p2006
I1005
sS'w+2=ruthless'
p2007
I1747
sS'w-2=side'
p2008
I2829
sS'w-2=militia'
p2009
I2703
sS'dobj=race'
p2010
I556
sS'rcmod=guide'
p2011
I1176
sS'xcomp=break'
p2012
I2957
sS'nsubj=network'
p2013
I852
sS'w+2=agreement'
p2014
I1415
sS'dobj=concern'
p2015
I435
sS'w-1=rule'
p2016
I2196
sS'nsubj=series'
p2017
I890
sS'nsubjpass=election'
p2018
I999
sS'nsubj=accord'
p2019
I768
sS'w-1=official'
p2020
I2147
sS'w-2=college'
p2021
I2535
sS'xcomp=rise'
p2022
I3077
sS'advmod=even'
p2023
I75
sS'w+2=outer'
p2024
I1680
sS'w+2=reconciliation'
p2025
I1725
sS'ccomp=involve'
p2026
I221
sS'w-2=camp'
p2027
I2512
sS'prep=while'
p2028
I1154
sS'advmod=ever'
p2029
I77
sS'w+2=June'
p2030
I1380
sS'w+2=key'
p2031
I1613
sS'w-2=week'
p2032
I2920
sS'w+2=local'
p2033
I1625
sS'nsubj=stagnation'
p2034
I898
sS'aux=will'
p2035
I192
sS'partmod=protest'
p2036
I1111
sS'w-2=monumental'
p2037
I2712
sS'w-2=strong'
p2038
I2852
sS'nsubjpass=dispute'
p2039
I998
sS'w-2=statehood'
p2040
I2844
sS'dobj=template'
p2041
I608
sS'dobj=summit'
p2042
I602
sS'xcomp=cover'
p2043
I2984
sS'nsubj=Council'
p2044
I700
sS'w-2=place'
p2045
I2758
sS'nsubj=word'
p2046
I929
sS'partmod=delay'
p2047
I1104
sS'prep=with'
p2048
I1155
sS'w-2=Mayweather'
p2049
I2383
sS'w-2=negotiation'
p2050
I2722
sS'w-1=guideline'
p2051
I2088
sS'nsubj=work'
p2052
I930
sS'nsubj=facilitation'
p2053
I821
sS'xcomp=suspend'
p2054
I3096
sS'dobj=force'
p2055
I473
sS'w-2=Aye'
p2056
I2325
sS'w-2=opponent'
p2057
I2736
sS'conj=discuss'
p2058
I260
sS'w-1=recently'
p2059
I2184
sS'w-2=president'
p2060
I2770
sS'dep=year'
p2061
I366
sS'nn=television'
p2062
I682
sS'nsubjpass=prisoner'
p2063
I1045
sS'w-2=little'
p2064
I2681
sS'w+2=do'
p2065
I1518
sS'dobj=system'
p2066
I604
sS'amod=four-cd'
p2067
I147
sS'advcl=old'
p2068
I29
sS'w-2=tag'
p2069
I2863
sS'w+2=step'
p2070
I1783
sS'w+2=transport'
p2071
I1830
sS'w-1=soldier'
p2072
I2214
sS'w-2=Sassou-Nguesso'
p2073
I2415
sS'w-1=crowd'
p2074
I2027
sS'w-1=deadline'
p2075
I2033
sS'w-1=after'
p2076
I1945
sS'nsubj=term'
p2077
I909
sS'xcomp=consider'
p2078
I2977
sS'xcomp=mark'
p2079
I3040
sS'conj=postpone'
p2080
I290
sS'nsubjpass=India'
p2081
I949
sS'w-2=tempt'
p2082
I2870
sS'xcomp=test'
p2083
I3100
sS'nsubj=music'
p2084
I849
sS'nsubj=date'
p2085
I808
sS'w-1=pre-condition'
p2086
I2170
sS'nsubjpass=Mongolia'
p2087
I955
sS'w-1=sun'
p2088
I2237
sS'w-1=common'
p2089
I2008
sS'w-1=Eritrea'
p2090
I1898
sS'nsubjpass=demand'
p2091
I996
sS'ccomp=#PRP#'
p2092
I202
sS'conj=those'
p2093
I312
sS'nsubjpass=official'
p2094
I1032
sS'w+1=by'
p2095
I1228
sS'w+1=be'
p2096
I1224
sS'nsubj=consultant'
p2097
I802
sS'nsubj=Cross'
p2098
I701
sS'advmod=forth'
p2099
I81
sS'nsubjpass=run-off'
p2100
I1056
sS'conj=manage'
p2101
I281
sS'nsubj=money'
p2102
I847
sS'w+2=meaningful'
p2103
I1633
sS'w-2=team'
p2104
I2867
sS'w-1=addition'
p2105
I1941
sS'w-2=war'
p2106
I2914
sS'dobj=age'
p2107
I396
sS'conj=irresponsible'
p2108
I277
sS'w-1=home'
p2109
I2094
sS'conj=say'
p2110
I301
sS'dobj=difference'
p2111
I446
sS'w+2=economy'
p2112
I1529
sS'nsubj=Dama'
p2113
I702
sS'tmod=year'
p2114
I1193
sS'w-1=chair'
p2115
I1997
sS'w+1=-lrb-'
p2116
I1197
sS'w+2=party'
p2117
I1688
sS'xcomp=require'
p2118
I3075
sS'w+1=passage'
p2119
I1286
sS'nsubj=statement'
p2120
I902
sS'w-2=fund'
p2121
I2630
sS'dobj=reserve'
p2122
I569
sS'w-2=see'
p2123
I2819
sS'amod=additional'
p2124
I126
sS'w-2=sea'
p2125
I2815
sS'dobj=Pakistan'
p2126
I386
sS'advcl=vary'
p2127
I48
sS'w+1=into'
p2128
I1264
sS'dobj=chance'
p2129
I424
sS'w-2=role'
p2130
I2801
sS'w+2=climate'
p2131
I1481
sS'w-2=set'
p2132
I2822
sS'w-1=wobbly'
p2133
I2288
sS'nsubj=agent'
p2134
I770
sS'w-2=quickly'
p2135
I2785
sS'w-1=Police'
p2136
I1925
sS'nsubjpass=parliament'
p2137
I1035
sS'w-2=party'
p2138
I2751
sS'w-1=region'
p2139
I2186
sS'nsubjpass=clinic'
p2140
I985
sS'w-2=schedule'
p2141
I2812
sS'w-2=Wilson'
p2142
I2440
sS'aux=could'
p2143
I185
sS'w-1=company'
p2144
I2009
sS'w-2=IOC'
p2145
I2363
sS'prep=like'
p2146
I1142
sS'w-1=leader'
p2147
I2113
sS'w-2=President'
p2148
I2406
sS'w+1=-rrb-'
p2149
I1198
sS'prep=beyond'
p2150
I1131
sS'dep=if'
p2151
I347
sS'w-2=withdrawal'
p2152
I2935
sS'w-2=whatever'
p2153
I2923
sS'xcomp=accomplish'
p2154
I2946
sS'dobj=explosive'
p2155
I463
sS'dobj=politics'
p2156
I539
sS'w-2=ship'
p2157
I2824
sS'dobj=clinic'
p2158
I428
sS'w-1=deliberately'
p2159
I2039
sS'w+2=time'
p2160
I1818
sS'amod=start-up'
p2161
I169
sS'parataxis=find'
p2162
I1095
sS'dobj=campaign'
p2163
I418
sS'nsubj=program'
p2164
I875
sS'w-2=angel'
p2165
I2472
sS'w-1=Dama'
p2166
I1894
sS'prep=of'
p2167
I1144
sS'w+2=try'
p2168
I1835
sS'w-2=propose'
p2169
I2784
sS'w-2=central'
p2170
I2519
sS'dep=spark'
p2171
I358
sS'conj=hour'
p2172
I275
sS'prep=on'
p2173
I1146
sS'w-2=committee'
p2174
I2541
sS'xcomp=prevent'
p2175
I3057
sS'w-1=cruise'
p2176
I2028
sS'w-2=Senate'
p2177
I2419
sS'w-2=now'
p2178
I2728
sS'w+2=system'
p2179
I1798
sS'nsubj=Staff'
p2180
I754
sS'advmod=nationwide'
p2181
I95
sS'xcomp=leave'
p2182
I3034
sS'dobj=explosion'
p2183
I462
sS'w+2=baseball'
p2184
I1443
sS'w-2=Pelosi'
p2185
I2402
sS'nsubjpass=pontiff'
p2186
I1042
sS'w-2=timeline'
p2187
I2884
sS'w+2=nationwide'
p2188
I1651
sS'w-1=governor'
p2189
I2085
sS'dobj=fighting'
p2190
I467
sS'w+2=election'
p2191
I1533
sS'nsubj=candidate'
p2192
I790
sS'w-2=failure'
p2193
I2608
sS'nsubj=woman'
p2194
I928
sS'w-2=talk'
p2195
I2865
sS'w-2=exercise'
p2196
I2604
sS'w-2=grief'
p2197
I2641
sS'w+2=that'
p2198
I1809
sS'partmod=equip'
p2199
I1105
sS'xcomp=discuss'
p2200
I2996
sS'dobj=shelter'
p2201
I585
sS'w+2=blanket'
p2202
I1452
sS'w-2=get'
p2203
I2636
sS'w-1=or'
p2204
I2152
sS'nsubj=policy'
p2205
I869
sS'w+2=monitor'
p2206
I1648
sS'w+2=Gisela'
p2207
I1374
sS'advcl=say'
p2208
I39
sS'w+2=discuss'
p2209
I1516
sS'w-1=of'
p2210
I2146
sS'nsubj=police'
p2211
I868
sS'nsubj=Shmatko'
p2212
I752
sS'w-2=more'
p2213
I2713
sS'conj=go'
p2214
I271
sS'dobj=process'
p2215
I550
sS'xcomp=part'
p2216
I3050
sS'w+2=end'
p2217
I1537
sS'w+2=giant'
p2218
I1576
sS'w-1=regulator'
p2219
I2187
sS'w+1=prove'
p2220
I1293
sS'w-1=start'
p2221
I2224
sS'w+2=reap'
p2222
I1722
sS'prt=back'
p2223
I1159
sS'w-1=sight'
p2224
I2211
sS'w-1=Coen'
p2225
I1889
sS'w+1=this'
p2226
I1321
sS'nsubjpass=office'
p2227
I1031
sS'w-2=date'
p2228
I2561
sS'w-1=believe'
p2229
I1970
sS'w-1=Tuesday'
p2230
I1933
sS'w-2=afford'
p2231
I2459
sS'w+2=everyone'
p2232
I1543
sS'dobj=reflector'
p2233
I562
sS'advmod=now'
p2234
I98
sS'w+1=suggest'
p2235
I1311
sS'w-2=result'
p2236
I2798
sS'dobj=roadblock'
p2237
I575
sS'dobj=registration'
p2238
I564
sS'w-1=document'
p2239
I2048
sS'rcmod=that'
p2240
I1182
sS'w-2=will'
p2241
I2933
sS'w-2=CFE'
p2242
I2331
sS'w-1=Cross'
p2243
I1893
sS'w+2=controversial'
p2244
I1498
sS'dobj=quartet'
p2245
I554
sS'w+2=leader'
p2246
I1620
sS'w-2=technology'
p2247
I2869
sS'dobj=rate'
p2248
I558
sS'xcomp=milestone'
p2249
I3042
sS'amod=controversial'
p2250
I134
sS'prep=among'
p2251
I1124
sS'w+2=victory'
p2252
I1845
sS'dobj=kind'
p2253
I496
sS'partmod=say'
p2254
I1112
sS'w-2=not'
p2255
I2727
sS'w-1=Earl'
p2256
I1897
sS'w-2=detention'
p2257
I2577
sS'dobj=center'
p2258
I422
sS'w-2=commission'
p2259
I2539
sS'w-1=narrow'
p2260
I2135
sS'w-2=man'
p2261
I2690
sS'dobj=foot'
p2262
I472
sS'xcomp=exploit'
p2263
I3007
sS'w+1=himself'
p2264
I1261
sS'nsubj=side'
p2265
I892
sS'w+2=renegotiate'
p2266
I1732
sS'nsubjpass=fire'
p2267
I1004
sS'dep=h'
p2268
I346
sS'w+1=during'
p2269
I1239
sS'w-2=Petraeus'
p2270
I2405
sS'advcl=make'
p2271
I26
sS'nsubj=sort'
p2272
I895
sS'w-2=out'
p2273
I2742
sS'w+2=influence'
p2274
I1602
sS'w-1=strife'
p2275
I2231
sS'amod=connected'
p2276
I133
sS'dobj=site'
p2277
I590
sS'dep=feature'
p2278
I343
sS'conj=bring'
p2279
I246
sS'det=a'
p2280
I367
sS'dep=up'
p2281
I363
sS'dep=want'
p2282
I364
sS'w-1=either'
p2283
I2054
sS'w+2=ambitious'
p2284
I1417
sS'dobj=line'
p2285
I500
sS'w-2=Bush'
p2286
I2330
sS'nsubjpass=Ministry'
p2287
I954
sS'dobj=squad'
p2288
I593
sS'nsubj=mechanism'
p2289
I840
sS'w-2=include'
p2290
I2657
sS'w-1=before'
p2291
I1968
sS'w-2=voting'
p2292
I2911
sS'dobj=money'
p2293
I511
sS'amod=delicate'
p2294
I137
sS'w+2=orphanage'
p2295
I1675
sS'advcl=know'
p2296
I24
sS'xcomp=timeline'
p2297
I3102
sS'w-2=adjust'
p2298
I2454
sS'w-1=policy'
p2299
I2169
sS'nsubjpass=spike'
p2300
I1068
sS'w-2=draft'
p2301
I2587
sS'complm=whether'
p2302
I235
sS'w-2=November'
p2303
I2396
sS'w+2=give'
p2304
I1577
sS'w-2=EU'
p2305
I2344
sS'w-1=police'
p2306
I2168
sS'w-1=must'
p2307
I2134
sS'w+2=explosive'
p2308
I1549
sS'dobj=building'
p2309
I415
sS'w-2=Health'
p2310
I2359
sS'w-2=opposition'
p2311
I2738
sS'w-2=world'
p2312
I2939
sS'w+2=charter'
p2313
I1476
sS'w-2=Project'
p2314
I2408
sS'partmod=add'
p2315
I1101
sS'w-1=protester'
p2316
I2180
sS'nsubjpass=rate'
p2317
I1049
sS'w-2=avenue'
p2318
I2489
sS'w-1=seat'
p2319
I2201
sS'xcomp=funnel'
p2320
I3016
sS'nsubjpass=deadline'
p2321
I994
sS'nsubjpass=schedule'
p2322
I1058
sS'w-2=Kandahar'
p2323
I2373
sS'w+2=player'
p2324
I1698
sS'xcomp=repay'
p2325
I3073
sS'dobj=window'
p2326
I641
sS'w+2=Tuesday'
p2327
I1397
sS'dep=today'
p2328
I362
sS'w-1=box'
p2329
I1985
sS'dobj=Islam'
p2330
I384
sS"aux='ll"
p2331
I182
sS'dobj=groundswell'
p2332
I481
sS'aux=to'
p2333
I191
sS'w-2=measure'
p2334
I2697
sS'w-2=maintenance'
p2335
I2686
sS'w+2=1970s'
p2336
I1349
sS'dobj=part'
p2337
I527
sS'w+1=itself'
p2338
I1266
sS'nsubj=donor'
p2339
I818
sS'w-2=gasoline'
p2340
I2634
sS'dobj=Asians'
p2341
I377
sS'w-2=way'
p2342
I2917
sS'amod=dead'
p2343
I136
sS'w-1=Bank'
p2344
I1884
sS'w-2=crew'
p2345
I2555
sS'w+2=about'
p2346
I1406
sS'w-1=U.S.'
p2347
I1934
sS'w-2=,'
p2348
I2300
sS'prep=during'
p2349
I1135
sS'w-2=-'
p2350
I2301
sS'w-2=East'
p2351
I2345
sS'w+2=take'
p2352
I1799
sS'w+1=sail'
p2353
I1297
sS'prep=by'
p2354
I1132
sS'w+2=negotiate'
p2355
I1655
sS'nsubjpass=navi-computer'
p2356
I1028
sS'w+1=higher'
p2357
I1260
sS'w+2=meeting'
p2358
I1636
sS'w-1=strategic'
p2359
I2230
sS'w-2=whole'
p2360
I2929
sS'w-1=now'
p2361
I2144
sS'w-1=not'
p2362
I2143
sS'xcomp=foster'
p2363
I3014
sS'w+2=example'
p2364
I1545
sS'nsubjpass=quota'
p2365
I1048
sS'w-2=force'
p2366
I2624
sS'aux=be'
p2367
I183
sS'w+2=ambush'
p2368
I1418
sS'ccomp=set'
p2369
I229
sS"w-2='"
p2370
I2297
sS'prep=before'
p2371
I1128
sS'w+1=sentence'
p2372
I1299
sS'dobj=element'
p2373
I454
sS'w-2=rosy'
p2374
I2803
sS'aux=have'
p2375
I187
sS'nsubj=show'
p2376
I891
sS'ccomp=call'
p2377
I210
sS'xcomp=care'
p2378
I2962
sS'dep=do'
p2379
I339
sS'w-2=organization'
p2380
I2740
sS'w+2=explosion'
p2381
I1548
sS'w-1=never'
p2382
I2140
sS"w-1='"
p2383
I1872
sS'conj=prompt'
p2384
I291
sS'w+2=essential'
p2385
I1539
sS'w-2=house'
p2386
I2651
sS'w-2=polluter'
p2387
I2765
sS'w+2=number'
p2388
I1662
sS'advmod=up'
p2389
I120
sS'w-2=election'
p2390
I2595
sS'dobj=sail'
p2391
I578
sS'w-2=addition'
p2392
I2453
sS'xcomp=arrive'
p2393
I2952
sS'prt=forth'
p2394
I1161
sS'w+2=25,000'
p2395
I1353
sS'w-1=mission'
p2396
I2125
sS'w-1=India'
p2397
I1906
sS'prt=forward'
p2398
I1162
sS'nsubjpass=#PRP#'
p2399
I937
sS'w+2=set'
p2400
I1755
sS'w-1=Alipio'
p2401
I1883
sS'w-1=feature'
p2402
I2063
sS'w-2=fleet'
p2403
I2619
sS'w+2=parallel'
p2404
I1685
sS'prep=than'
p2405
I1149
sS'advcl=elect'
p2406
I15
sS'w-1=-'
p2407
I1876
sS'advmod=belatedly'
p2408
I70
sS'dobj=fire'
p2409
I469
sS'prep=between'
p2410
I1130
sS'w-1=,'
p2411
I1875
sS'dobj=Center'
p2412
I379
sS'nsubj=Charter'
p2413
I696
sS'conj=resistant'
p2414
I299
sS'dobj=mosque'
p2415
I512
sS'w-2=firmly'
p2416
I2617
sS'w+2=precedent'
p2417
I1704
sS'w+2=change'
p2418
I1474
sS'nn=showcase'
p2419
I677
sS'w-1=legislation'
p2420
I2114
sS'w-1=than'
p2421
I2248
sS'dobj=wing'
p2422
I642
sS'w-2=ZANU-PF'
p2423
I2444
sS'w-2=vow'
p2424
I2912
sS'prep=follow'
p2425
I1136
sS'w-1=course'
p2426
I2023
sS'nsubj=panel'
p2427
I860
sS'advmod=originally'
p2428
I103
sS'amod=big'
p2429
I128
sS'xcomp=share'
p2430
I3084
sS'w+2=video'
p2431
I1846
sS'nsubj=Amouan'
p2432
I689
sS'w-1=Conte'
p2433
I1891
sS'w+2=travel'
p2434
I1831
sS'w-2=Union'
p2435
I2434
sS'w-1=by'
p2436
I1988
sS'w-1=be'
p2437
I1967
sS'advmod=eventually'
p2438
I76
sS'nsubj=Kurdistan'
p2439
I725
sS'w-1=price'
p2440
I2173
sS'w-1=contemplate'
p2441
I2016
sS'dobj=tire'
p2442
I617
sS'w-2=New'
p2443
I2392
sS'w-2=risk'
p2444
I2800
sS'w-2=go'
p2445
I2638
sS'w-1=Bush'
p2446
I1886
sS'w+2=polling'
p2447
I1703
sS'nsubjpass=talk'
p2448
I1075
sS'dobj=refuge'
p2449
I563
sS'mark=because'
p2450
I649
sS'dobj=series'
p2451
I582
sS'dobj=price'
p2452
I546
sS'xcomp=play'
p2453
I3052
sS'w+1=troop'
p2454
I1330
sS'w-2=without'
p2455
I2936
sS'w+2=July'
p2456
I1379
sS'dobj=removal'
p2457
I565
sS'conj=want'
p2458
I317
sS'dobj=context'
p2459
I439
sS'w-1=final'
p2460
I2068
sS'w-1=with'
p2461
I2286
sS'w+2=front'
p2462
I1572
sS'w+2=treatment'
p2463
I1832
sS'w-2=tire'
p2464
I2886
sS'w-2=Angeles'
p2465
I2322
sS'w-2=ambitious'
p2466
I2470
sS'w+2=Wednesday'
p2467
I1402
sS'nsubjpass=troops'
p2468
I1084
sS'w+2=what'
p2469
I1857
sS'w-2=Lebanon'
p2470
I2378
sS'w+1=deadline'
p2471
I1236
sS'w-1=greatest'
p2472
I2086
sS'xcomp=limit'
p2473
I3035
sS'nsubj=participation'
p2474
I862
sS'w-2=agency'
p2475
I2460
sS'advmod=once'
p2476
I102
sS'poss=Elvis'
p2477
I1115
sS'w-1=which'
p2478
I2281
sS'w+2=homemade'
p2479
I1594
sS'nn=radio'
p2480
I676
sS'w-2=weather'
p2481
I2919
sS'w-2=Britain'
p2482
I2329
sS'dobj=Cup'
p2483
I381
sS'dep=monitor'
p2484
I351
sS'w-2=mission'
p2485
I2707
sS'w-2=commitment'
p2486
I2540
sS'xcomp=counter'
p2487
I2982
sS'w-1=function'
p2488
I2077
sS'w+2=urgent'
p2489
I1842
sS'w+1=screener'
p2490
I1298
sS'w-2=effort'
p2491
I2594
sS'w+2=event'
p2492
I1542
sS'w+2=by'
p2493
I1462
sS'amod=clear'
p2494
I130
sS'w+1=national'
p2495
I1274
sS'w-1=draw'
p2496
I2050
sS'ccomp=match'
p2497
I222
sS'advmod=allegedly'
p2498
I59
sS'xcomp=protest'
p2499
I3059
sS'nsubj=amount'
p2500
I772
sS'w+2=be'
p2501
I1445
sS'w-2=Staff'
p2502
I2422
sS'w-2=group'
p2503
I2642
sS'advmod=naturally'
p2504
I96
sS'w-2=widespread'
p2505
I2931
sS'w+1=terrorist'
p2506
I1315
sS'w+2=Friday'
p2507
I1373
sS'w+2=russian'
p2508
I1746
sS'xcomp=approve'
p2509
I2951
sS'aux=would'
p2510
I193
sS'w-2=Hong'
p2511
I2360
sS'w-2=leader'
p2512
I2675
sS'w-2=democrat'
p2513
I2571
sS'dobj=website'
p2514
I638
sS'w+1=ablaze'
p2515
I1208
sS'nsubjpass=hearing'
p2516
I1014
sS'w-2=poll'
p2517
I2764
sS'w-2=U.N.'
p2518
I2430
sS'xcomp=examine'
p2519
I3005
sS'w+1=forth'
p2520
I1249
sS'nsubj=Agreement'
p2521
I687
sS'w+2=small'
p2522
I1767
sS'xcomp=cordon'
p2523
I2981
sS'w-1=movie'
p2524
I2131
sS'w-2=immediately'
p2525
I2653
sS'w+2=come'
p2526
I1485
sS'conj=usher'
p2527
I315
sS'advmod=ago'
p2528
I56
sS'nsubj=pirogue'
p2529
I866
sS'xcomp=improve'
p2530
I3027
sS'w+1=and'
p2531
I1216
sS'w+2=such'
p2532
I1791
sS'dobj=base'
p2533
I409
sS'w-1=Wright'
p2534
I1938
sS'w-2=treaty'
p2535
I2894
sS'w-2=tribunal'
p2536
I2897
sS'w+2=assume'
p2537
I1435
sS'w-2=approve'
p2538
I2477
sS'w+2=quota'
p2539
I1719
sS'w+2=later'
p2540
I1618
sS'w-2=statue'
p2541
I2847
sS'w+1=any'
p2542
I1219
sS'w-2=peacekeeper'
p2543
I2754
sS'w-1=parliament'
p2544
I2161
sS'advmod=indeed'
p2545
I86
sS'prt=up'
p2546
I1167
sS'dobj=agenda'
p2547
I398
sS'dobj=anchor'
p2548
I403
sS'advcl=close'
p2549
I10
sS'w-2=special'
p2550
I2837
sS'nsubjpass=Turkey'
p2551
I965
sS'w-2=enjoy'
p2552
I2598
sS'w-2=Americans'
p2553
I2321
sS'w+2=these'
p2554
I1811
sS'w+1=forward'
p2555
I1250
sS'w+2=drinking'
p2556
I1522
sS'w-1=Olmert'
p2557
I1922
sS'w-1=support'
p2558
I2238
sS'amod=unique'
p2559
I177
sS'partmod=kill'
p2560
I1108
sS'amod=standard'
p2561
I168
sS'nsubjpass=truck'
p2562
I1085
sS'w-2=building'
p2563
I2508
sS'w+2=series'
p2564
I1752
sS'parataxis=add'
p2565
I1092
sS'w+2=program'
p2566
I1714
sS'w+2=bomb'
p2567
I1453
sS'w-2=downward'
p2568
I2586
sS'w-2=plot'
p2569
I2761
sS'w-2=Conference'
p2570
I2336
sS'conj=speak'
p2571
I308
sS'nsubj=Hill'
p2572
I711
sS'w-1=next'
p2573
I2142
sS'w-1=network'
p2574
I2139
sS'w+2=work'
p2575
I1867
sS'w+1=have'
p2576
I1256
sS'nsubj=Kong'
p2577
I724
sS'w-2=so'
p2578
I2831
sS'w+1=fire'
p2579
I1244
sS'w+2=Wall'
p2580
I1400
sS'nsubj=attempt'
p2581
I779
sS'w+1=ten'
p2582
I1313
sS'w+2=similar'
p2583
I1762
sS'w+1=firm'
p2584
I1245
sS'dobj=guideline'
p2585
I484
sS'xcomp=escape'
p2586
I3004
sS'amod=strong'
p2587
I173
sS'w+2=2004'
p2588
I1351
sS'w-2=sense'
p2589
I2821
sS'w+2=report'
p2590
I1734
sS'w-2=show'
p2591
I2827
sS'xcomp=provide'
p2592
I3061
sS'nsubj=debate'
p2593
I811
sS'w+2=riot'
p2594
I1739
sS'dobj=issue'
p2595
I494
sS'nsubjpass=vote'
p2596
I1087
sS'w+2=security'
p2597
I1751
sS'w-2=use'
p2598
I2905
sS'auxpass=seem'
p2599
I197
sS'advcl=of'
p2600
I28
sS'w+2=more'
p2601
I1649
sS'nsubj=webcam'
p2602
I920
sS'w-2=threaten'
p2603
I2880
sS'det=each'
p2604
I370
sS'dobj=heart'
p2605
I487
sS'w+1=victory'
p2606
I1332
sS'w-1=dead'
p2607
I2032
sS'w-2=big-screen'
p2608
I2496
sS'nsubj=survey'
p2609
I906
sS'w-2=Ecuador'
p2610
I2346
sS'w-1=deal'
p2611
I2034
sS'w-1=meet'
p2612
I2122
sS'nsubjpass=tribunal'
p2613
I1083
sS'dobj=facility'
p2614
I464
sS'nsubj=IOC'
p2615
I713
sS'w+2=observation'
p2616
I1665
sS'nsubj=Union'
p2617
I761
sS'w+2=southern'
p2618
I1775
sS'w+2=residence'
p2619
I1735
sS'w-2=coming-of-age'
p2620
I2536
sS'nsubjpass=minister'
p2621
I1024
sS'ccomp=give'
p2622
I218
sS'w-2=oppose'
p2623
I2737
sS'w-1=completely'
p2624
I2010
sS'advmod=on'
p2625
I101
sS'w-2=survey'
p2626
I2860
sS'w+2=action'
p2627
I1407
sS'nsubj=project'
p2628
I876
sS'w+2=against'
p2629
I1412
sS'w-1=frame'
p2630
I2076
sS'w+2=open'
p2631
I1670
sS'w+1=themselves'
p2632
I1318
sS'prt=out'
p2633
I1166
sS'w-2=Niger'
p2634
I2393
sS'w+2=administrative'
p2635
I1409
sS'w-1=country'
p2636
I2022
sS'w-2=try'
p2637
I2899
sS'w-2=eleven-minute'
p2638
I2596
sS'w-2=military'
p2639
I2702
sS'w-1=both'
p2640
I1984
sS'w+2=momentum'
p2641
I1645
sS'dobj=Commission'
p2642
I380
sS'w+2=solo'
p2643
I1772
sS'w-1=whether'
p2644
I2280
sS'w-1=Brown'
p2645
I1885
sS'dobj=mechanism'
p2646
I505
sS'w-2=package'
p2647
I2743
sS'tmod=today'
p2648
I1191
sS'w-1=Saakashvili'
p2649
I1927
sS'amod=one-way'
p2650
I158
sS'nsubjpass=playgroup'
p2651
I1040
sS'nsubj=Saakashvili'
p2652
I749
sS'w-2=Noriega'
p2653
I2395
sS'advmod=free'
p2654
I82
sS'w-1=Washington'
p2655
I1937
sS'w+2=fertilizer'
p2656
I1554
sS'w-1=McDonald'
p2657
I1918
sS'w-1=seven'
p2658
I2206
sS'advcl=favor'
p2659
I17
sS'dobj=timeframe'
p2660
I614
sS'xcomp=investigate'
p2661
I3031
sS'w-2=Yousouf'
p2662
I2443
sS'xcomp=cast'
p2663
I2963
sS'prep=for'
p2664
I1137
sS'nsubj=role'
p2665
I885
sS'dep=that'
p2666
I361
sS'w+2=May'
p2667
I1383
sS'dobj=marriage'
p2668
I502
sS'nsubj=Microsoft'
p2669
I729
sS'w+2=69'
p2670
I1361
sS'nsubj=Bush'
p2671
I695
sS'w+2=at'
p2672
I1436
sS'w-2=Annapolis'
p2673
I2324
sS'xcomp=protect'
p2674
I3058
sS'w+2=as'
p2675
I1433
sS'xcomp=facilitate'
p2676
I3009
sS'w+2=pace'
p2677
I1684
sS'dep=make'
p2678
I350
sS'w+2=mandatory'
p2679
I1630
sS'w+2=include'
p2680
I1599
sS'w-2=appear'
p2681
I2476
sS'w-2=Qaida'
p2682
I2409
sS'w-2=cashier'
p2683
I2517
sS'dep=block'
p2684
I331
sS'advmod=long'
p2685
I90
sS'w-2=bank'
p2686
I2491
sS'xcomp=reap'
p2687
I3066
sS'w+1=list'
p2688
I1271
sS'advcl=wind'
p2689
I50
sS'nsubj=parliament'
p2690
I861
sS'amod=separate'
p2691
I162
sS'dobj=dozen'
p2692
I449
sS'dobj=requirement'
p2693
I568
sS'nsubj=mob'
p2694
I846
sS'w-2=drum'
p2695
I2588
sS'w+2=decade'
p2696
I1510
sS'w+2=plan'
p2697
I1695
sS'w+2=watch'
p2698
I1851
sS'w+2=she'
p2699
I1757
sS'w+1=back'
p2700
I1223
sS'dobj=showdown'
p2701
I587
sS'w+2=with'
p2702
I1863
sS'conj=enforce'
p2703
I265
sS'amod=specific'
p2704
I166
sS'w-2=body'
p2705
I2499
sS'w-2=-rrb-'
p2706
I2303
sS'dobj=telescope'
p2707
I607
sS'w-1=term'
p2708
I2247
sS'amod=difficult'
p2709
I141
sS'prep=off'
p2710
I1145
sS'w-2=area'
p2711
I2478
sS'w+2=church'
p2712
I1478
sS'w+1=right'
p2713
I1295
sS'w+2=roll'
p2714
I1743
sS'w+2=aid'
p2715
I1416
sS'nsubj=Hampshire'
p2716
I709
sS'w-2=month'
p2717
I2711
sS'w+2=or'
p2718
I1672
sS'w-2=certain'
p2719
I2521
sS'conj=permit'
p2720
I287
sS'w-2=crowd'
p2721
I2559
sS'dobj=timeline'
p2722
I615
sS'dobj=example'
p2723
I459
sS'advmod=sometimes'
p2724
I112
sS'w+2=outside'
p2725
I1681
sS'w-2=style'
p2726
I2854
sS'w+2=on'
p2727
I1668
sS'conj=believe'
p2728
I245
sS'w-1=immediately'
p2729
I2097
sS'w+2=average'
p2730
I1438
sS'w-1=timeline'
p2731
I2259
sS'w+2=checkpoint'
p2732
I1477
sS'w-2=definition'
p2733
I2568
sS'w-2=well'
p2734
I2921
sS'prep=into'
p2735
I1141
sS'dobj=stall'
p2736
I595
sS'w+2=just'
p2737
I1612
sS'w+2=part'
p2738
I1686
sS'advmod=finally'
p2739
I79
sS'w-1=propose'
p2740
I2179
sS'w-1=complex'
p2741
I2011
sS'prep=without'
p2742
I1157
sS'dep=important'
p2743
I348
sS'parataxis=watch'
p2744
I1100
sS'w-1=45-minute'
p2745
I1881
sS'w-1=report'
p2746
I2188
sS'w-2=achieve'
p2747
I2450
sS'w-1=finally'
p2748
I2069
sS'w-2=triage'
p2749
I2895
sS'w+2=five'
p2750
I1563
sS'w-1=Delta'
p2751
I1895
sS'w-1=she'
p2752
I2208
sS'dep=whatever'
p2753
I365
sS'w-2=mean'
p2754
I2696
sS'w+2=from'
p2755
I1571
sS'w+2=two'
p2756
I1836
sS'nsubjpass=shock'
p2757
I1061
sS'w-2=Japan'
p2758
I2370
sS'xcomp=close'
p2759
I2970
sS'w-2=troops'
p2760
I2898
sS'advmod=often'
p2761
I100
sS'w-1=Kosovo'
p2762
I1916
sS'w-2=fail'
p2763
I2607
sS'w-1=showcase'
p2764
I2210
sS'det=another'
p2765
I368
sS'w-1=separate'
p2766
I2205
sS'nsubj=Maliki'
p2767
I726
sS'w+1=over'
p2768
I1285
sS'w+2=mid-January'
p2769
I1638
sS'w+1=onstage'
p2770
I1282
sS'w-2=fair'
p2771
I2609
sS'nsubjpass=Parliament'
p2772
I960
sS'nsubj=Owens'
p2773
I740
sS'dobj=amount'
p2774
I402
sS'xcomp=take'
p2775
I3098
sS'nsubj=Tehran'
p2776
I757
sS'nsubj=independence'
p2777
I831
sS'w+2=rare'
p2778
I1720
sS'w-2=space'
p2779
I2836
sS'w+1=several'
p2780
I1301
sS'w-2=Iraq'
p2781
I2367
sS'nsubj=star'
p2782
I900
sS'w+2=trouble'
p2783
I1834
sS'w-2=Iceland'
p2784
I2364
sS'advcl=talk'
p2785
I46
sS'prep=until'
p2786
I1153
sS'w-1=language'
p2787
I2111
sS'w+1=pollution'
p2788
I1289
sS'w+2=course'
p2789
I1502
sS'aux=do'
p2790
I186
sS'dobj=network'
p2791
I514
sS'w-2=problem'
p2792
I2777
sS'advcl=convict'
p2793
I13
sS'w-2=India'
p2794
I2365
sS'w-1=Council'
p2795
I1892
sS'w-1=camp'
p2796
I1989
sS'w-2=least'
p2797
I2676
sS'nsubjpass=building'
p2798
I979
sS'advmod=already'
p2799
I61
sS'w-1=jet'
p2800
I2108
sS'w+2=atomic'
p2801
I1437
sS'w+2=U.S.'
p2802
I1398
sS'nsubjpass=this'
p2803
I1078
sS'w-2=station'
p2804
I2846
sS'w+2=another'
p2805
I1423
sS'nsubj=people'
p2806
I865
sS'nsubj=winter'
p2807
I925
sS'nsubjpass=Union'
p2808
I966
sS'nsubj=fame'
p2809
I823
sS'w+1=trap'
p2810
I1329
sS'w+2=leave'
p2811
I1621
sS'xcomp=start'
p2812
I3090
sS'xcomp=face'
p2813
I3008
sS'w+2=train'
p2814
I1827
sS'w-2=--'
p2815
I2302
sS'rcmod=say'
p2816
I1181
sS'w-1=quartet'
p2817
I2181
sS'w-2=nation'
p2818
I2717
sS'w-1=woman'
p2819
I2289
sS'amod=stellar'
p2820
I170
sS'w+2=timeline'
p2821
I1819
sS'w+2=countryman'
p2822
I1501
sS'nsubj=Obama'
p2823
I736
sS'xcomp=halt'
p2824
I3020
sS'w+2=interrelationship'
p2825
I1607
sS'nsubj=deal'
p2826
I810
sS'w-2=it'
p2827
I2666
sS'w-2=Congress'
p2828
I2337
sS'w+2=Rwanda'
p2829
I1390
sS'w+2=week'
p2830
I1855
sS'dobj=film'
p2831
I468
sS'nn=jet'
p2832
I674
sS'w+2=term'
p2833
I1807
sS'w-1=clothing'
p2834
I2004
sS'w-2=early'
p2835
I2590
sS'num=#NUMBER#'
p2836
I1090
sS'nsubj=act'
p2837
I769
sS'w+2=committee'
p2838
I1488
sS'w+2=August'
p2839
I1368
sS"w+2=''"
p2840
I1343
sS'nsubj=country'
p2841
I804
sS'w+2=office'
p2842
I1667
sS'w-2=help'
p2843
I2648
sS'w-1=this'
p2844
I2255
sS'advcl=stabilize'
p2845
I43
sS'w+2=November'
p2846
I1387
sS'nsubjpass=Odinga'
p2847
I959
sS'xcomp=sign'
p2848
I3087
sS'nsubj=Haniyeh'
p2849
I710
sS'dobj=assembly'
p2850
I406
sS'dobj=strategy'
p2851
I600
sS'dobj=institution'
p2852
I493
sS'dep=relevant'
p2853
I354
sS'w+1=precedent'
p2854
I1290
sS'auxpass=appear'
p2855
I194
sS'w-1=g-8'
p2856
I2080
sS'conj=oversee'
p2857
I286
sS'w-2=program'
p2858
I2781
sS'w+2=warming'
p2859
I1850
sS'nsubjpass=line'
p2860
I1016
sS'amod=color'
p2861
I131
sS'nn=coin'
p2862
I667
sS'w+2=arrive'
p2863
I1431
sS'nsubjpass=blaze'
p2864
I974
sS'w+2=Asians'
p2865
I1367
sS'dep=camp'
p2866
I333
sS'xcomp=get'
p2867
I3017
sS'w-2=manager'
p2868
I2691
sS'xcomp=tighten'
p2869
I3101
sS'prep=under'
p2870
I1152
sS'w-2=army'
p2871
I2481
sS'w-2=vehicle'
p2872
I2906
sS'w+2=56'
p2873
I1357
sS'w-2=french'
p2874
I2628
sS'w-2=summit'
p2875
I2856
sS'w+2=surround'
p2876
I1794
sS'w-1=but'
p2877
I1987
sS'dep=know'
p2878
I349
sS'w-2=when'
p2879
I2924
sS'w-2=communism'
p2880
I2542
sS'xcomp=cut'
p2881
I2986
sS'w+1=free'
p2882
I1251
sS'w+2=support'
p2883
I1793
sS'mark=until'
p2884
I658
sS'w-2=Festival'
p2885
I2351
sS'nsubj=ECOWAS'
p2886
I704
sS'w+2=grandparent'
p2887
I1582
sS'nsubj=crisis'
p2888
I805
sS'w+2=2005'
p2889
I1352
sS'xcomp=avoid'
p2890
I2954
sS'nn=House'
p2891
I665
sS'ccomp=re-energize'
p2892
I225
sS'advcl=kill'
p2893
I23
sS'w+1=against'
p2894
I1212
sS'w-2=padatlanti'
p2895
I2744
sS'w+2=additional'
p2896
I1408
sS'w-1=right'
p2897
I2193
sS'w-2=could'
p2898
I2552
sS'nsubj=Ministry'
p2899
I731
sS'ccomp=expand'
p2900
I215
sS'w-2=urban'
p2901
I2904
sS'nn=#NUMBER#'
p2902
I664
sS'dobj=dialogue'
p2903
I445
sS'w-2=McCain'
p2904
I2385
sS'mark=before'
p2905
I650
sS'w-2=money'
p2906
I2710
sS'advmod=back'
p2907
I69
sS'w+2=salafist'
p2908
I1749
sS'w-1=declaration'
p2909
I2038
sS'w+2=visit'
p2910
I1847
sS'xcomp=assume'
p2911
I2953
sS'amod=next'
p2912
I157
sS'nsubj=Ryan'
p2913
I748
sS'w-2=authority'
p2914
I2488
sS'nsubjpass=round'
p2915
I1054
sS'dobj=some'
p2916
I591
sS'w-1=datum'
p2917
I2031
sS'w+2=global'
p2918
I1578
sS'nsubj=delay'
p2919
I814
sS'xcomp=challenge'
p2920
I2965
sS'w+2=embassy'
p2921
I1534
sS'nsubj=Bank'
p2922
I691
sS'nsubjpass=some'
p2923
I1065
sS'w-2=adopt'
p2924
I2456
sS'advcl=report'
p2925
I36
sS'w+2=goal'
p2926
I1580
sS'dep=both'
p2927
I332
sS'w-2=by'
p2928
I2510
sS'w-1=factor'
p2929
I2060
sS'advcl=begin'
p2930
I6
sS'nsubj=astronaut'
p2931
I777
sS'dobj=foundation'
p2932
I474
sS'dobj=alarm'
p2933
I400
sS'w+2=six-month'
p2934
I1765
sS'nsubj=Brown'
p2935
I694
sS'w+2=place'
p2936
I1694
sS'nsubjpass=Facebook'
p2937
I945
sS'dobj=$'
p2938
I376
sS'xcomp=win'
p2939
I3112
sS'w-2=Runner'
p2940
I2413
sS'ccomp=begin'
p2941
I208
sS'w+2=troop'
p2942
I1833
sS'nsubj=version'
p2943
I918
sS'w-2=meet'
p2944
I2698
sS'w-2=Discovery'
p2945
I2343
sS'nn=date'
p2946
I671
sS'w-2=edition'
p2947
I2593
sS'w-1=criterion'
p2948
I2026
sS'nsubj=Wade'
p2949
I763
sS'w+1=some'
p2950
I1304
sS'w+2=simple'
p2951
I1763
sS'w-1=controversial'
p2952
I2017
sS'w-2=want'
p2953
I2913
sS'nsubj=vessel'
p2954
I919
sS'conj=see'
p2955
I302
sS'w-1=often'
p2956
I2148
sS'w+2=biofuel'
p2957
I1451
sS'dobj=list'
p2958
I501
sS'xcomp=clinch'
p2959
I2969
sS'w-2=coalition'
p2960
I2533
sS'w-2=which'
p2961
I2927
sS'dobj=a'
p2962
I391
sS'w-2=system'
p2963
I2861
sS'w-2=Nations'
p2964
I2390
sS'dobj=expectation'
p2965
I461
sS'w-2=conference'
p2966
I2546
sS'conj=plant'
p2967
I288
sS'dep=either'
p2968
I341
sS'w+2=and'
p2969
I1422
sS'tmod=#DATE#'
p2970
I1186
sS'conj=model'
p2971
I282
sS'w+2=arrangement'
p2972
I1430
sS'w+2=dangerous'
p2973
I1505
sS'nsubj=problem'
p2974
I873
sS'prep=near'
p2975
I1143
sS'w-1=recommend'
p2976
I2185
sS'advcl=settle'
p2977
I41
sS'w-2=flight'
p2978
I2621
sS'amod=uniform'
p2979
I176
sS'conj=change'
p2980
I250
sS'cop=be'
p2981
I320
sS'xcomp=handle'
p2982
I3021
sS'w-2=she'
p2983
I2823
sS'dobj=protest'
p2984
I553
sS'w-2=minister'
p2985
I2705
sS'amod=second'
p2986
I161
sS'dobj=reconciliation'
p2987
I560
sS'w-2=say'
p2988
I2809
sS'w-2=wary'
p2989
I2915
sS'w+2=the'
p2990
I1810
sS'prep=at'
p2991
I1127
sS'nsubj=U.S.'
p2992
I760
sS'prep=as'
p2993
I1126
sS'dobj=potential'
p2994
I542
sS'nsubjpass=operation'
p2995
I1033
sS'w-1=outrage'
p2996
I2157
sS'w+2=ethiopian'
p2997
I1540
sS'advcl=suspend'
p2998
I44
sS'nsubjpass=summit'
p2999
I1072
sS'nsubj=license'
p3000
I836
sS'w-1=.'
p3001
I1879
sS'dobj=agency'
p3002
I397
sS'mark=although'
p3003
I647
sS'dobj=structure'
p3004
I601
sS'w-1=indeed'
p3005
I2100
sS'w+1=every'
p3006
I1242
sS'xcomp=free'
p3007
I3015
sS'w+2=frosty'
p3008
I1573
sS'xcomp=emerge'
p3009
I3001
sS'w-2=sun'
p3010
I2857
sS'dobj=violence'
p3011
I631
sS'prep=through'
p3012
I1150
sS'w+2=one'
p3013
I1669
sS'dobj=trap'
p3014
I622
sS'w-1=standard'
p3015
I2222
sS'w+1=another'
p3016
I1218
sS'dobj=vigil'
p3017
I629
sS'w-2=case'
p3018
I2516
sS'conj=barricade'
p3019
I242
sS'prt=in'
p3020
I1163
sS'nsubj=pact'
p3021
I858
sS'w-1=a'
p3022
I1939
sS'nsubjpass=which'
p3023
I1088
sS'w-1=Phelps'
p3024
I1924
sS'dobj=period'
p3025
I533
sS'w+2=sign'
p3026
I1760
sS'w+1=concern'
p3027
I1233
sS'dobj=checkpoint'
p3028
I426
sS'mark=as'
p3029
I648
sS'w-2=House'
p3030
I2361
sS'advmod=reportedly'
p3031
I109
sS'conj=disappear'
p3032
I259
sS'dobj=service'
p3033
I584
sS'dobj=land'
p3034
I497
sS'dobj=school'
p3035
I580
sS'w-1=-rrb-'
p3036
I1878
sS'nsubj=demonstrator'
p3037
I816
sS'nsubj=measure'
p3038
I839
sS'w-1=general'
p3039
I2081
sS'xcomp=reconvene'
p3040
I3069
sS'w-2=ceremony'
p3041
I2520
sS'w-2=son'
p3042
I2835
sS'w+2=they'
p3043
I1812
sS'w-2=we'
p3044
I2918
sS'dobj=whole'
p3045
I640
sS'nsubjpass=bomb'
p3046
I976
sS'nsubj=statue'
p3047
I903
sS'w-2=year'
p3048
I2941
sS'xcomp=find'
p3049
I3012
sS'w-1=mosque'
p3050
I2129
sS'nsubjpass=agency'
p3051
I969
sS'nsubj=clothing'
p3052
I797
sS'nsubj=Petraeus'
p3053
I742
sS'dobj=Kenya'
p3054
I385
sS'w-2=Parliament'
p3055
I2401
sS'w-2=standoff'
p3056
I2842
sS'w-2=choice'
p3057
I2524
sS'nsubj=soldier'
p3058
I893
sS'xcomp=follow'
p3059
I3013
sS'w+2=fix'
p3060
I1564
sS'w-1=skill'
p3061
I2213
sS'w-2=armed'
p3062
I2480
sS'w-1=dvd'
p3063
I2051
sS'w+2=date'
p3064
I1507
sS'w-2=rather'
p3065
I2787
sS'w+2=finding'
p3066
I1559
sS'w+2=firecracker'
p3067
I1561
sS'dobj=fight'
p3068
I466
sS'w-1=I'
p3069
I1905
sS'w-2=have'
p3070
I2644
sS'nsubj=Mbeki'
p3071
I727
sS'amod=wobbly'
p3072
I179
sS'ccomp=explain'
p3073
I216
sS'cc=and'
p3074
I198
sS'dobj=equipment'
p3075
I458
sS'w+1=after'
p3076
I1211
sS'w-2=advice'
p3077
I2458
sS'w-2=panic'
p3078
I2745
sS'w-2=command'
p3079
I2537
sS'w-1=we'
p3080
I2277
sS'amod=final'
p3081
I145
sS'w-2=unusual'
p3082
I2903
sS'w+2=quickly'
p3083
I1718
sS'xcomp=deliver'
p3084
I2989
sS'w-2=secret'
p3085
I2817
sS'w-2=Bahrain'
p3086
I2327
sS'w+2=October'
p3087
I1389
sS'w+1=such'
p3088
I1310
sS'w-1=get'
p3089
I2082
sS'w+2=:'
p3090
I1363
sS'w+2=;'
p3091
I1364
sS'w-2=bi-partisan'
p3092
I2495
sS'nsubj=worker'
p3093
I931
sS'w-1=that'
p3094
I2249
sS'nsubj=Iran'
p3095
I716
sS'advmod=later'
p3096
I89
sS'w+2=.'
p3097
I1346
sS'w+1=election'
p3098
I1241
sS'w+2=,'
p3099
I1344
sS'w+2=-'
p3100
I1345
sS'nsubjpass=program'
p3101
I1047
sS'w-2=pass'
p3102
I2752
sS"w+2='"
p3103
I1342
sS'w+2=$'
p3104
I1341
sS'dobj=war'
p3105
I633
sS'nsubj=document'
p3106
I817
sS'dobj=way'
p3107
I637
sS'w-1=another'
p3108
I1954
sS'w+1=record'
p3109
I1294
sS'w+2=objective'
p3110
I1664
sS'w-1=what'
p3111
I2279
sS'prt=down'
p3112
I1160
sS'dobj=committee'
p3113
I432
sS'nsubjpass=mission'
p3114
I1025
sS'w-1=straight'
p3115
I2229
sS'w-1=may'
p3116
I2119
sS'w+1=throughout'
p3117
I1322
sS'w-1=as'
p3118
I1960
sS'w+2=Senate'
p3119
I1393
sS'w-1=drama'
p3120
I2049
sS'dobj=vest'
p3121
I628
sS'nsubj=Dungy'
p3122
I703
sS'w+2=a'
p3123
I1404
sS'w+1=voluntary'
p3124
I1333
ssS'dtype'
p3125
cnumpy
float64
p3126
sS'feature_names_'
p3127
(lp3128
g818
ag1569
ag626
ag1845
ag147
ag331
ag2930
ag1023
ag1115
ag571
ag2549
ag23
ag1690
ag2793
ag291
ag2406
ag1608
ag2659
ag1349
ag1093
ag1990
ag1945
ag1229
ag2893
ag2296
ag485
ag2271
ag999
ag2600
ag2068
ag1348
ag1610
ag246
ag950
ag1434
ag1679
ag2925
ag1875
ag28
ag2208
ag122
ag2977
ag674
ag2845
ag2998
ag1668
ag2785
ag387
ag2127
ag1617
ag2689
ag636
ag1620
ag919
ag330
ag1824
ag2528
ag570
ag583
ag2498
ag1091
ag2799
ag513
ag1029
ag1083
ag998
ag1396
ag379
ag932
ag2907
ag2408
ag17
ag265
ag1199
ag504
ag2023
ag2438
ag2029
ag407
ag2739
ag1190
ag2099
ag2654
ag190
ag1206
ag1058
ag2545
ag1895
ag869
ag3096
ag2685
ag1605
ag1031
ag14
ag304
ag2181
ag2504
ag1191
ag2234
ag989
ag2761
ag2625
ag2476
ag2428
ag333
ag1446
ag1648
ag838
ag1399
ag3031
ag447
ag865
ag2724
ag691
ag1459
ag1911
ag1657
ag810
ag1228
ag84
ag2389
ag1871
ag211
ag529
ag1728
ag1791
ag2124
ag1230
ag2429
ag1926
ag2494
ag2861
ag797
ag2276
ag2250
ag940
ag2343
ag2294
ag1517
ag179
ag1244
ag2709
ag1989
ag1436
ag307
ag3081
ag1781
ag2067
ag1589
ag1876
ag277
ag158
ag699
ag459
ag326
ag296
ag458
ag2912
ag2650
ag1340
ag120
ag2986
ag2691
ag732
ag1040
ag692
ag2704
ag1472
ag2561
ag2161
ag2820
ag135
ag328
ag2587
ag733
ag48
ag2979
ag2559
ag1256
ag3072
ag520
ag267
ag2331
ag2367
ag929
ag2143
ag2790
ag2375
ag874
ag1837
ag697
ag2333
ag2035
ag2510
ag2855
ag1898
ag1220
ag2599
ag3074
ag1337
ag475
ag432
ag2092
ag437
ag1776
ag1140
ag1601
ag1073
ag2941
ag466
ag2377
ag1753
ag1732
ag404
ag492
ag2900
ag3073
ag71
ag2622
ag1691
ag787
ag2026
ag2497
ag1667
ag1227
ag2892
ag517
ag118
ag199
ag2369
ag1247
ag78
ag1549
ag1844
ag1695
ag2302
ag971
ag1834
ag1665
ag1306
ag1577
ag596
ag3019
ag202
ag321
ag2728
ag2279
ag1683
ag177
ag57
ag2980
ag223
ag620
ag1286
ag336
ag239
ag1915
ag75
ag367
ag3032
ag2058
ag1951
ag210
ag215
ag1646
ag2703
ag178
ag1100
ag1250
ag808
ag1064
ag2214
ag1966
ag1497
ag1017
ag2172
ag1907
ag2108
ag1867
ag187
ag967
ag2101
ag2971
ag1575
ag1623
ag528
ag2857
ag2720
ag2967
ag974
ag2080
ag2384
ag581
ag1127
ag1899
ag1720
ag357
ag698
ag832
ag2414
ag1338
ag2110
ag2955
ag1059
ag385
ag592
ag1018
ag1243
ag2571
ag110
ag1390
ag1111
ag2093
ag1395
ag713
ag2527
ag270
ag2458
ag1723
ag162
ag2981
ag1398
ag372
ag835
ag1897
ag1403
ag1859
ag1564
ag1052
ag384
ag1143
ag2684
ag2927
ag2866
ag923
ag298
ag1249
ag1391
ag1273
ag2379
ag487
ag2968
ag1166
ag2278
ag1433
ag271
ag2268
ag2151
ag2743
ag2878
ag2678
ag2484
ag1705
ag1707
ag2853
ag1793
ag1853
ag457
ag2171
ag1842
ag1879
ag2666
ag2328
ag2281
ag2282
ag2753
ag2061
ag2280
ag2765
ag383
ag2604
ag16
ag1020
ag1759
ag574
ag260
ag2938
ag2341
ag1057
ag2412
ag2642
ag2483
ag394
ag525
ag2330
ag3054
ag2126
ag745
ag979
ag1330
ag1970
ag2962
ag32
ag814
ag1032
ag1519
ag2107
ag3002
ag2547
ag1675
ag2933
ag1225
ag2774
ag2548
ag694
ag931
ag2850
ag1051
ag1463
ag2533
ag494
ag1750
ag1320
ag1978
ag1969
ag2309
ag1372
ag784
ag2163
ag914
ag1171
ag582
ag2258
ag1541
ag2129
ag515
ag3028
ag1263
ag2158
ag1780
ag327
ag1523
ag3113
ag334
ag1908
ag2015
ag46
ag584
ag163
ag2459
ag1797
ag1677
ag434
ag1729
ag1480
ag2903
ag2111
ag31
ag324
ag2692
ag671
ag872
ag1644
ag996
ag2373
ag1505
ag530
ag74
ag3075
ag2723
ag1311
ag2965
ag2183
ag2155
ag2614
ag1317
ag3068
ag2190
ag2831
ag2409
ag1162
ag594
ag2262
ag2055
ag2932
ag1149
ag278
ag253
ag920
ag862
ag1958
ag2332
ag21
ag1627
ag2585
ag532
ag534
ag2605
ag1084
ag1543
ag956
ag1621
ag1036
ag2852
ag2595
ag1912
ag2253
ag3034
ag1157
ag455
ag2285
ag2958
ag2668
ag1953
ag1696
ag2646
ag1640
ag1270
ag234
ag555
ag1841
ag2293
ag2415
ag1827
ag2791
ag1137
ag1515
ag1458
ag1252
ag786
ag1913
ag155
ag828
ag25
ag1682
ag1716
ag1045
ag2337
ag1938
ag297
ag1653
ag26
ag465
ag3025
ag1991
ag972
ag233
ag975
ag742
ag2156
ag123
ag855
ag2994
ag637
ag341
ag1959
ag2452
ag565
ag1540
ag1272
ag2215
ag960
ag1030
ag2984
ag2245
ag359
ag2010
ag1935
ag2248
ag1049
ag2987
ag1717
ag2233
ag2449
ag2238
ag2457
ag2004
ag1529
ag2693
ag2122
ag903
ag1593
ag1061
ag1189
ag632
ag2237
ag1063
ag930
ag2391
ag509
ag3035
ag1999
ag2451
ag1125
ag3033
ag2201
ag553
ag2701
ag917
ag128
ag2277
ag2916
ag397
ag2288
ag718
ag2736
ag1326
ag1221
ag1818
ag1821
ag2851
ag3004
ag2042
ag721
ag2066
ag1431
ag918
ag2707
ag2041
ag1235
ag1116
ag15
ag949
ag557
ag2660
ag2722
ag689
ag2442
ag1179
ag1807
ag1007
ag180
ag3014
ag1598
ag585
ag1006
ag1703
ag362
ag3121
ag3017
ag1792
ag3011
ag1526
ag3105
ag1354
ag1900
ag1437
ag3107
ag2514
ag991
ag3045
ag2326
ag2422
ag1080
ag587
ag1749
ag600
ag3003
ag3029
ag2450
ag2905
ag1850
ag1774
ag1777
ag1329
ag708
ag1539
ag896
ag2884
ag954
ag456
ag1579
ag1511
ag785
ag2902
ag2891
ag1483
ag2862
ag853
ag603
ag1819
ag2946
ag1355
ag1248
ag2832
ag1274
ag2480
ag2419
ag752
ag1264
ag983
ag293
ag2062
ag947
ag1924
ag559
ag69
ag2521
ag906
ag2432
ag1822
ag2922
ag506
ag1743
ag2935
ag2671
ag2413
ag877
ag881
ag1606
ag2044
ag2098
ag2113
ag3122
ag2886
ag1283
ag863
ag1678
ag1275
ag2716
ag2849
ag2572
ag1843
ag2615
ag356
ag88
ag3095
ag427
ag438
ag197
ag431
ag161
ag796
ag1288
ag2577
ag2439
ag2767
ag3071
ag661
ag2669
ag428
ag2899
ag1037
ag630
ag60
ag412
ag2823
ag1888
ag1873
ag1089
ag2773
ag1568
ag3053
ag819
ag1004
ag1259
ag546
ag218
ag2913
ag2652
ag1950
ag222
ag2212
ag1101
ag2180
ag1246
ag1415
ag2776
ag1217
ag167
ag2992
ag2617
ag1545
ag2949
ag1150
ag259
ag461
ag1312
ag2019
ag2837
ag2134
ag1136
ag2500
ag516
ag820
ag1847
ag280
ag2931
ag294
ag2581
ag1455
ag1811
ag1904
ag1387
ag368
ag1557
ag1698
ag623
ag114
ag924
ag2192
ag666
ag648
ag241
ag1930
ag474
ag1070
ag3052
ag477
ag286
ag676
ag749
ag2097
ag1770
ag2841
ag2888
ag737
ag1762
ag2085
ag1000
ag2826
ag2593
ag1245
ag236
ag2919
ag1493
ag3037
ag3106
ag2339
ag734
ag1130
ag2053
ag1813
ag2809
ag1963
ag1868
ag1835
ag652
ag1126
ag1504
ag523
ag2777
ag442
ag966
ag543
ag886
ag3000
ag279
ag1383
ag3038
ag2289
ag1585
ag184
ag405
ag1432
ag680
ag2694
ag2102
ag638
ag2084
ag775
ag1416
ag2013
ag1322
ag1921
ag942
ag1518
ag569
ag3021
ag958
ag2427
ag2690
ag2474
ag1816
ag618
ag2806
ag2529
ag1513
ag2211
ag2205
ag24
ag343
ag1689
ag2974
ag839
ag2164
ag2628
ag1651
ag54
ag768
ag420
ag1120
ag1474
ag172
ag1933
ag2665
ag243
ag705
ag410
ag670
ag2017
ag2376
ag2265
ag3058
ag684
ag2272
ag1374
ag753
ag2034
ag185
ag2782
ag430
ag2120
ag3047
ag533
ag741
ag2609
ag39
ag1784
ag2077
ag188
ag1737
ag160
ag1957
ag771
ag349
ag1919
ag1304
ag2943
ag2954
ag2602
ag889
ag1386
ag1804
ag1629
ag2807
ag664
ag92
ag2194
ag2046
ag2052
ag3093
ag377
ag228
ag1350
ag103
ag1943
ag2399
ag1490
ag1718
ag269
ag761
ag1865
ag935
ag446
ag2937
ag1487
ag1632
ag102
ag2081
ag633
ag1400
ag1740
ag45
ag2287
ag2087
ag192
ag946
ag156
ag2847
ag2772
ag1318
ag498
ag1531
ag1409
ag2551
ag2808
ag1267
ag1851
ag3051
ag148
ag318
ag1223
ag469
ag2864
ag136
ag3046
ag604
ag380
ag2798
ag589
ag866
ag1746
ag1429
ag1056
ag2140
ag1328
ag599
ag1997
ag1522
ag1896
ag1692
ag622
ag711
ag2321
ag521
ag2091
ag1611
ag2039
ag2018
ag1038
ag1481
ag11
ag1809
ag2267
ag2006
ag52
ag413
ag798
ag329
ag524
ag1276
ag1393
ag226
ag2516
ag1498
ag2860
ag824
ag724
ag1594
ag1314
ag772
ag1418
ag375
ag2621
ag3114
ag1454
ag1307
ag2356
ag1744
ag378
ag2227
ag2094
ag2995
ag1614
ag2137
ag898
ag142
ag295
ag364
ag2651
ag916
ag2186
ag348
ag1674
ag2063
ag480
ag3101
ag2365
ag2317
ag522
ag1435
ag1325
ag217
ag2915
ag1451
ag2100
ag1176
ag2322
ag1005
ag1156
ag2757
ag953
ag1331
ag9
ag2923
ag489
ag710
ag2300
ag98
ag779
ag194
ag2999
ag801
ag1607
ag2448
ag1394
ag1066
ag2803
ag1886
ag1609
ag1580
ag770
ag2613
ag2468
ag2562
ag1147
ag2596
ag3023
ag1303
ag2836
ag1947
ag2565
ag984
ag1123
ag2162
ag37
ag778
ag2000
ag1656
ag2744
ag2315
ag1441
ag825
ag2047
ag2199
ag339
ag146
ag2560
ag1615
ag10
ag2036
ag2254
ag1748
ag573
ag2477
ag1596
ag1870
ag928
ag315
ag1427
ag735
ag748
ag1803
ag2251
ag133
ag2993
ag2991
ag2371
ag1279
ag2410
ag2150
ag2354
ag627
ag322
ag2349
ag2425
ag2664
ag1546
ag1722
ag1917
ag2735
ag2146
ag2975
ag2167
ag2710
ag2173
ag225
ag1055
ag2405
ag3012
ag959
ag2870
ag2786
ag2028
ag2048
ag847
ag2742
ag263
ag2223
ag3112
ag2394
ag2398
ag3020
ag1548
ag1215
ag2633
ag2546
ag1673
ag767
ag812
ag1790
ag1356
ag1213
ag601
ag251
ag2011
ag1814
ag373
ag816
ag1704
ag2816
ag2240
ag111
ag1028
ag641
ag2970
ag1954
ag1218
ag203
ag1697
ag2648
ag1560
ag2114
ag1700
ag1561
ag1103
ag2116
ag2149
ag1562
ag227
ag1210
ag1417
ag1291
ag1207
ag67
ag1584
ag1581
ag2515
ag560
ag728
ag3076
ag2894
ag439
ag910
ag1787
ag2531
ag238
ag3016
ag2542
ag1838
ag1736
ag1840
ag2700
ag2096
ag1630
ag635
ag70
ag2095
ag1805
ag2005
ag1361
ag1042
ag3027
ag1798
ag987
ag2471
ag1300
ag701
ag2269
ag719
ag3098
ag3006
ag1860
ag2579
ag2584
ag1961
ag129
ag951
ag2520
ag2555
ag2882
ag1510
ag1385
ag1096
ag937
ag2576
ag287
ag1054
ag1495
ag2357
ag2264
ag552
ag1188
ag2128
ag556
ag2338
ag789
ag861
ag1862
ag159
ag2688
ag1313
ag1760
ag2495
ag776
ag1914
ag1708
ag104
ag1010
ag107
ag1639
ag2770
ag113
ag780
ag2768
ag2119
ag1820
ag408
ag2788
ag2854
ag894
ag706
ag2220
ag3109
ag2713
ag1011
ag2353
ag2490
ag2372
ag1003
ag2780
ag94
ag423
ag2950
ag1628
ag1282
ag831
ag1209
ag621
ag3088
ag2235
ag1858
ag2582
ag1955
ag2506
ag849
ag150
ag2632
ag1638
ag1713
ag2226
ag3117
ag1069
ag1242
ag201
ag1173
ag1365
ag164
ag2810
ag2454
ag1422
ag2606
ag3124
ag1884
ag1424
ag1260
ag1440
ag1421
ag1988
ag268
ag3104
ag3103
ag2840
ag3099
ag3100
ag3097
ag682
ag1231
ag2336
ag450
ag2588
ag2889
ag2395
ag275
ag1881
ag754
ag2873
ag313
ag312
ag310
ag2670
ag961
ag3090
ag3091
ag1794
ag613
ag2865
ag2839
ag1833
ag444
ag1187
ag61
ag2507
ag2207
ag1164
ag1462
ag1456
ag1285
ag2456
ag2030
ag232
ag675
ag2667
ag1687
ag352
ag1237
ag2846
ag1473
ag3087
ag2829
ag319
ag1730
ag3119
ag1197
ag242
ag168
ag2327
ag2802
ag673
ag2580
ag554
ag2467
ag794
ag3123
ag1491
ag2346
ag2627
ag2896
ag2635
ag864
ag1905
ag2629
ag249
ag1622
ag2014
ag2715
ag2284
ag2368
ag1339
ag1981
ag802
ag2969
ag2805
ag1738
ag730
ag1976
ag860
ag1983
ag736
ag2972
ag2863
ag1363
ag2675
ag591
ag2537
ag2672
ag2801
ag2730
ag354
ag1373
ag1382
ag858
ag2184
ag1155
ag2501
ag751
ag1650
ag1062
ag1092
ag764
ag2957
ag2202
ag2567
ag1552
ag848
ag302
ag299
ag1251
ag805
ag36
ag38
ag2493
ag50
ag790
ag1832
ag1240
ag1866
ag108
ag1172
ag1974
ag1516
ag1524
ag1547
ag2418
ag1550
ag2313
ag2732
ag2712
ag763
ag1148
ag2131
ag912
ag1175
ag1775
ag2526
ag90
ag99
ag2838
ag1709
ag921
ag445
ag519
ag766
ag1874
ag1602
ag266
ag1068
ag2244
ag1048
ag1669
ag2822
ag2789
ag1360
ag471
ag2973
ag29
ag3064
ag1786
ag1364
ag2696
ag1310
ag1583
ag616
ag1085
ag1771
ag2209
ag1466
ag2065
ag791
ag679
ag948
ag2556
ag391
ag20
ag545
ag1280
ag229
ag1219
ag2112
ag624
ag281
ag934
ag2191
ag2921
ag982
ag925
ag2217
ag87
ag2385
ag2997
ag970
ag2492
ag2232
ag1366
ag2364
ag871
ag1909
ag2381
ag2308
ag1447
ag303
ag531
ag609
ag2656
ag1351
ag1342
ag1343
ag1980
ag3066
ag508
ag3067
ag902
ag2750
ag3060
ag1183
ag980
ag568
ag1423
ag511
ag1929
ag2755
ag2462
ag3008
ag166
ag165
ag2218
ag2304
ag2918
ag1688
ag2926
ag1119
ag2887
ag611
ag1050
ag1043
ag1883
ag53
ag1180
ag1603
ag191
ag1044
ag1384
ag1565
ag2479
ag503
ag915
ag885
ag213
ag2680
ag973
ag803
ag2274
ag231
ag800
ag1482
ag42
ag2825
ag1772
ag1255
ag1782
ag1461
ag2737
ag2031
ag904
ag1808
ag109
ag1071
ag2540
ag467
ag2246
ag2811
ag1699
ag873
ag1901
ag2033
ag1800
ag645
ag880
ag1685
ag2679
ag1241
ag548
ag2103
ag1460
ag96
ag2358
ag1726
ag2769
ag1479
ag476
ag788
ag1379
ag811
ag1985
ag2641
ag619
ag416
ag2206
ag2601
ag882
ag2188
ag2001
ag1335
ag502
ag2355
ag1796
ag468
ag834
ag1024
ag1502
ag1204
ag2388
ag221
ag3110
ag2616
ag629
ag2842
ag2727
ag3013
ag2631
ag1573
ag2718
ag417
ag1659
ag2295
ag762
ag484
ag371
ag649
ag2024
ag2725
ag1236
ag1078
ag2677
ag2404
ag2738
ag100
ag2117
ag89
ag8
ag572
ag792
ag1296
ag2936
ag2697
ag893
ag493
ag2324
ag1450
ag1477
ag1734
ag2003
ag2447
ag2417
ag1578
ag964
ag1861
ag656
ag1468
ag1297
ag1643
ag1153
ag668
ag2566
ag83
ag833
ag1139
ag3083
ag2539
ag2778
ag479
ag2222
ag68
ag743
ag2025
ag176
ag173
ag216
ag1801
ag1849
ag257
ag2266
ag687
ag2590
ag2619
ag977
ag1224
ag1406
ag2594
ag714
ag729
ag1353
ag2714
ag283
ag488
ag2508
ag2007
ag659
ag2908
ag1758
ag2597
ag2564
ag1141
ag1927
ag2400
ag76
ag2699
ag1494
ag1537
ag3026
ag1555
ag2583
ag2951
ag200
ag2934
ag105
ag2522
ag817
ag1848
ag1308
ag274
ag2643
ag1321
ag845
ag2618
ag1655
ag1182
ag878
ag195
ag1499
ag1745
ag66
ag2070
ag1973
ag1239
ag13
ag1613
ag261
ag1554
ag542
ag2532
ag1694
ag2883
ag2876
ag986
ag1817
ag370
ag2179
ag2352
ag1099
ag41
ag422
ag895
ag1910
ag1232
ag1567
ag2833
ag338
ag2198
ag2990
ag2554
ag3043
ag440
ag1214
ag121
ag941
ag1026
ag2160
ag2821
ag1457
ag1556
ag1496
ag1755
ag93
ag1592
ag566
ag2814
ag1829
ag1184
ag2071
ag2434
ag2463
ag2942
ag2783
ag2168
ag2756
ag290
ag282
ag1088
ag1962
ag1414
ag2489
ag1597
ag836
ag2252
ag2431
ag2910
ag1701
ag1121
ag2859
ag2698
ag578
ag993
ag1327
ag2830
ag1642
ag2469
ag1369
ag1098
ag1971
ag395
ag1378
ag2702
ag1631
ag1278
ag1586
ag2575
ag1702
ag672
ag564
ag132
ag2383
ag1936
ag1211
ag2411
ag2407
ag992
ag3036
ag3001
ag642
ag2745
ag1863
ag2401
ag2344
ag2645
ag2446
ag563
ag681
ag2225
ag1686
ag2433
ag2795
ag2243
ag2166
ag2751
ag196
ag2256
ag2090
ag1588
ag1922
ag612
ag1426
ag717
ag608
ag3069
ag2397
ag1341
ag345
ag1893
ag1681
ag1163
ag335
ag1075
ag1266
ag56
ag2762
ag396
ag2657
ag1852
ag876
ag381
ag2557
ag850
ag3024
ag2136
ag1112
ag2649
ag77
ag204
ag1624
ag499
ag1925
ag2230
ag2347
ag1788
ag1993
ag2655
ag2534
ag3022
ag1724
ag2105
ag777
ag793
ag1625
ag2076
ag473
ag1448
ag703
ag759
ag1779
ag157
ag757
ag677
ag3108
ag1186
ag1767
ag510
ag1965
ag1449
ag3118
ag127
ag1281
ag1733
ag1658
ag1735
ag1377
ag2437
ag2291
ag59
ag2229
ag1599
ag709
ag997
ag1645
ag1008
ag1352
ag1160
ag472
ag575
ag1077
ag1987
ag154
ag224
ag2640
ag2329
ag716
ag2877
ag2436
ag2796
ag1854
ag1571
ag358
ag1654
ag429
ag1292
ag35
ag2115
ag1185
ag842
ag1469
ag1778
ag720
ag976
ag2834
ag284
ag1124
ag1138
ag2089
ag2144
ag2624
ag2741
ag1856
ag182
ag782
ag829
ag2441
ag2952
ag463
ag1107
ag911
ag685
ag2636
ag2426
ag1769
ag34
ag2948
ag2074
ag2176
ag409
ag1894
ag2917
ag2607
ag2075
ag2611
ag1438
ag1934
ag639
ag2909
ag2159
ag602
ag1878
ag1081
ag1146
ag1887
ag514
ag1144
ag1170
ag2239
ag3120
ag2496
ag3063
ag854
ag1131
ag2283
ag774
ag1559
ag1544
ag486
ag1542
ag2929
ag933
ag809
ag2402
ag1766
ag411
ag1757
ag740
ag2460
ag2748
ag1413
ag1666
ag452
ag1389
ag320
ag1046
ag2630
ag2488
ag436
ag1376
ag2856
ag3039
ag3089
ag978
ag936
ag2189
ag2472
ag590
ag2051
ag1388
ag908
ag1503
ag1345
ag985
ag2109
ag140
ag1201
ag2729
ag1761
ag1587
ag3005
ag72
ag1022
ag1741
ag1404
ag1128
ag1110
ag1752
ag2800
ag539
ag305
ag2787
ag1271
ag2147
ag2420
ag1359
ag1106
ag943
ag181
ag3116
ag1194
ag1509
ag2612
ag541
ag1222
ag2396
ag1932
ag2002
ag607
ag3050
ag483
ag2524
ag126
ag1117
ag2307
ag2260
ag44
ag821
ag1444
ag2574
ag2382
ag64
ag2573
ag2362
ag2361
ag1992
ag2210
ag2020
ag2956
ag640
ag1113
ag240
ag2204
ag647
ag1890
ag1290
ag518
ag2996
ag1846
ag1294
ag722
ag2544
ag1025
ag332
ag1001
ag1923
ag1033
ag414
ag2306
ag2299
ag2086
ag1815
ag425
ag2440
ag562
ag1952
ag1486
ag1443
ag363
ag2740
ag2316
ag2817
ag1572
ag1299
ag2059
ag2976
ag2139
ag2219
ag2746
ag1095
ag1996
ag18
ag944
ag2897
ag952
ag12
ag2016
ag857
ag1195
ag738
ag1265
ag2319
ag926
ag212
ag43
ag2766
ag2658
ag576
ag2752
ag186
ag2764
ag2224
ag899
ag3061
ag2072
ag252
ag536
ag981
ag344
ag927
ag254
ag990
ag3015
ag892
ag2221
ag1635
ag1086
ag968
ag1725
ag3115
ag2359
ag2275
ag1939
ag1756
ag1727
ag1590
ag1476
ag2088
ag2558
ag1920
ag496
ag1994
ag1174
ag1637
ag1795
ag478
ag91
ag2708
ag2421
ag3094
ag1768
ag593
ag700
ag704
ag843
ag2844
ag1869
ag1161
ag342
ag2731
ag250
ag1576
ag130
ag1370
ag1192
ag856
ag237
ag1425
ag1407
ag1765
ag62
ag1402
ag1864
ag208
ag558
ag859
ag595
ag3080
ag1309
ag3111
ag2644
ag2478
ag1410
ag909
ag80
ag19
ag2461
ag580
ag2133
ag2819
ag1525
ag207
ag1633
ag1903
ag139
ag739
ag1649
ag2370
ag1956
ag1986
ag2348
ag2350
ag2815
ag2706
ag1452
ag1014
ag1015
ag1012
ag365
ag606
ag1928
ag106
ag1661
ag1419
ag1626
ag1357
ag292
ag1178
ag1047
ag116
ag826
ag2553
ag2465
ag1742
ag2673
ag2056
ag938
ag3086
ag86
ag2482
ag2286
ag2242
ag1133
ag897
ag1108
ag63
ag2570
ag2828
ag1660
ag1332
ag1114
ag1401
ag852
ag2945
ag2305
ag2351
ag2610
ag795
ag306
ag634
ag500
ag2885
ag309
ag905
ag30
ag760
ag840
ag311
ag144
ag2310
ag2511
ag3030
ag1467
ag2145
ag2784
ag2794
ag963
ag2781
ag355
ag316
ag2758
ag402
ag1514
ag2323
ag386
ag1719
ag617
ag340
ag2470
ag433
ag1536
ag1323
ag1105
ag2049
ag693
ag2904
ag1964
ag1074
ag1612
ag325
ag2964
ag1135
ag2443
ag2634
ag1234
ag2653
ag2303
ag1202
ag1826
ag1960
ag1142
ag3055
ag2185
ag1065
ag1289
ag2270
ag2148
ag1392
ag2314
ag2682
ag119
ag1802
ag1891
ag2940
ag804
ag2073
ag419
ag1684
ag1968
ag2177
ag1368
ag1465
ag2502
ag526
ag1931
ag1169
ag1731
ag40
ag1574
ag939
ag2518
ag1566
ag1226
ag567
ag2435
ag1118
ag390
ag33
ag248
ag1582
ag2142
ag1439
ag1034
ag2662
ag2423
ag1484
ag1485
ag1830
ag1072
ag143
ag2747
ag1693
ag1982
ag2392
ag2298
ag49
ag2924
ag245
ag3077
ag2231
ag2475
ag374
ag1233
ag1831
ag124
ag665
ag1277
ag464
ag614
ag1203
ag2466
ag651
ag2165
ag400
ag1839
ag884
ag2681
ag2538
ag2711
ag376
ag3062
ag2871
ag1619
ag657
ag887
ag366
ag403
ag549
ag2914
ag2318
ag347
ag2686
ag73
ag1916
ag1358
ag3092
ag2608
ag823
ag815
ag2705
ag1268
ag1132
ag235
ag389
ag1324
ag969
ag426
ag1212
ag2563
ag1998
ag2928
ag527
ag2027
ag644
ag781
ag1489
ag3018
ag2683
ag1060
ag2170
ag3041
ag2719
ag1710
ag1151
ag3057
ag806
ag669
ag27
ag323
ag1405
ag1553
ag1302
ag1261
ag2960
ag401
ag2021
ag2620
ag3079
ag868
ag2259
ag2486
ag2174
ag2880
ag230
ag95
ag1200
ag2966
ag1295
ag988
ag851
ag1739
ag1076
ag2898
ag1812
ag1013
ag2345
ag1430
ag1362
ag1035
ag2721
ag540
ag2228
ag1262
ag337
ag1411
ag1471
ag1806
ag1367
ag2733
ag276
ag1375
ag2513
ag1721
ag1671
ag1676
ag1828
ag175
ag2257
ag441
ag171
ag631
ag837
ag1652
ag262
ag844
ag586
ag2568
ag2301
ag2695
ag1530
ag2835
ag653
ag907
ag2947
ag2491
ag2390
ag2638
ag773
ag2552
ag1067
ag1475
ag497
ag1872
ag272
ag2196
ag454
ag888
ag2763
ag2193
ag2771
ag82
ag449
ag141
ag658
ag696
ag81
ag97
ag2416
ag1198
ag2403
ag1287
ag2978
ag300
ag1712
ag2366
ag588
ag1941
ag1492
ag2874
ag460
ag2121
ag1889
ag723
ag1165
ag2340
ag1972
ag2203
ag1205
ag2445
ag1442
ag1754
ag2197
ag2503
ag822
ag3070
ag663
ag1082
ag308
ag2843
ag1408
ag1680
ag2386
ag1478
ag2525
ag406
ag765
ag491
ag2290
ag1715
ag561
ag994
ag758
ag1751
ag189
ag453
ag1102
ag2827
ag137
ag1882
ag85
ag55
ag1371
ag470
ag1906
ag1420
ag2512
ag2797
ag258
ag550
ag1109
ag1535
ag2064
ag702
ag667
ag1591
ag1880
ag2335
ag1501
ag1520
ag813
ag2261
ag2868
ag900
ag393
ag1488
ag922
ag2754
ag2334
ag2944
ag965
ag1508
ag1193
ag2639
ag2009
ag451
ag2985
ag1254
ag2485
ag507
ag995
ag2906
ag2717
ag2037
ag2213
ag1269
ag1975
ag1918
ag2818
ag415
ag482
ag51
ag1177
ag2050
ag350
ag399
ag169
ag1995
ag2255
ag2178
ag1773
ag1810
ag1855
ag131
ag686
ag125
ag643
ag2057
ag2623
ag2311
ag1346
ag2380
ag695
ag2273
ag2647
ag2895
ag3078
ag746
ag505
ag1293
ag1967
ag1949
ag2138
ag3102
ag1636
ag2543
ag1604
ag538
ag660
ag2045
ag1258
ag1253
ag2569
ag47
ag1528
ag2517
ag2387
ag1097
ag209
ag1041
ag1823
ag2060
ag1168
ag1647
ag112
ag1027
ag744
ag501
ag2792
ag115
ag1857
ag206
ag2858
ag138
ag715
ag2169
ag2135
ag1984
ag3065
ag830
ag170
ag712
ag351
ag1825
ag152
ag1937
ag346
ag756
ag1885
ag2236
ag890
ag2444
ag2130
ag1977
ag2374
ag382
ag577
ag183
ag22
ag628
ag2988
ag1507
ag301
ag2141
ag625
ag198
ag2125
ag117
ag3085
ag1551
ag2123
ag1002
ag2589
ag2132
ag2983
ag2157
ag598
ag769
ag2591
ag1305
ag2008
ag846
ag2578
ag1706
ag547
ag1946
ag3042
ag2779
ag2550
ag1019
ag1600
ag1090
ag1334
ag3056
ag1783
ag2040
ag1216
ag2804
ag2541
ag783
ag151
ag605
ag727
ag2038
ag1380
ag2726
ag1079
ag2875
ag3010
ag1902
ag841
ag2626
ag2963
ag1500
ag2069
ag1053
ag2195
ag317
ag2104
ag264
ag2247
ag2082
ag1039
ag153
ag149
ag883
ag1979
ag1789
ag1464
ag1538
ag683
ag2603
ag1145
ag1799
ag481
ag2187
ag1942
ag2464
ag650
ag1670
ag205
ag512
ag891
ag799
ag1021
ag2535
ag2749
ag1316
ag2536
ag2760
ag2637
ag1094
ag288
ag1159
ag3082
ag2901
ag2598
ag2872
ag725
ag1154
ag255
ag962
ag2292
ag2424
ag2953
ag2106
ag2989
ag1570
ag2342
ag3044
ag2481
ag2032
ag2734
ag369
ag2153
ag2879
ag495
ag726
ag2961
ag101
ag2360
ag879
ag2505
ag360
ag2241
ag462
ag2152
ag2455
ag1470
ag662
ag2312
ag435
ag3048
ag1533
ag1315
ag1764
ag1453
ag2154
ag755
ag1663
ag1336
ag361
ag2509
ag2393
ag2911
ag2890
ag1521
ag1158
ag2012
ag1506
ag490
ag597
ag678
ag2378
ag2663
ag443
ag2920
ag747
ag244
ag1347
ag2959
ag2759
ag424
ag1616
ag1747
ag214
ag535
ag1641
ag2078
ag827
ag1122
ag688
ag2523
ag2487
ag1672
ag2043
ag807
ag2881
ag1877
ag79
ag3084
ag1397
ag289
ag174
ag1785
ag615
ag1152
ag2200
ag1558
ag1711
ag1664
ag1618
ag3009
ag690
ag1634
ag2586
ag2519
ag750
ag2263
ag2813
ag2676
ag388
ag1134
ag3049
ag3059
ag2363
ag3007
ag2320
ag2867
ag1662
ag1445
ag2824
ag2982
ag707
ag1714
ag579
ag1181
ag1595
ag2530
ag544
ag65
ag247
ag2661
ag1167
ag1238
ag2182
ag2473
ag610
ag655
ag1512
ag1344
ag2079
ag418
ag2249
ag867
ag1412
ag448
ag875
ag870
ag955
ag1016
ag2216
ag654
ag2453
ag145
ag314
ag1087
ag398
ag2175
ag2674
ag2499
ag134
ag2592
ag273
ag1009
ag1284
ag285
ag2687
ag537
ag551
ag3040
ag1301
ag1257
ag220
ag2325
ag957
ag2118
ag1892
ag2022
ag731
ag1763
ag1381
ag913
ag1534
ag1104
ag2430
ag421
ag353
ag2848
ag256
ag1129
ag2812
ag1836
ag219
ag1333
ag1563
ag945
ag2054
ag1532
ag2775
ag901
ag2083
ag2869
ag2297
ag646
ag1948
ag58
ag1319
ag1298
ag1944
ag1428
ag392
ag1527
ag2939
ag1196
ag1940
ag1208
ag193
asS'separator'
p3129
S'='
sS'sparse'
p3130
I01
sb.