ccopy_reg
_reconstructor
p1
(csklearn.feature_extraction.dict_vectorizer
DictVectorizer
p2
c__builtin__
object
p3
NtRp4
(dp5
S'sort'
p6
I01
sS'feature_names_'
p7
(lp8
S'advmod=earlier'
p9
aS'advmod=later'
p10
aS'aux=have'
p11
aS'aux=to'
p12
aS'cc=and'
p13
aS'conj=seek'
p14
aS'conj=spark'
p15
aS'dep=find'
p16
aS'dep=flawed'
p17
aS'dobj=concept'
p18
aS'dobj=effort'
p19
aS'dobj=election'
p20
aS'dobj=hour'
p21
aS'dobj=sentence'
p22
aS'dobj=verdict'
p23
aS'mark=if'
p24
aS'nsubj=Graham'
p25
aS'nsubj=Kikwete'
p26
aS'nsubj=OSCE'
p27
aS'nsubj=court'
p28
aS'nsubj=judge'
p29
aS'nsubj=observer'
p30
aS'prep=as'
p31
aS'prep=on'
p32
aS'w+1=as'
p33
aS'w+1=dead'
p34
aS'w+1=it'
p35
aS'w+1=its'
p36
aS'w+1=on'
p37
aS'w+1=sentence'
p38
aS'w+1=the'
p39
aS'w+2=a'
p40
aS'w+2=at'
p41
aS'w+2=dead'
p42
aS'w+2=election'
p43
aS'w+2=just'
p44
aS'w+2=libyan'
p45
aS'w+2=presidential'
p46
aS'w+2=the'
p47
aS'w+2=verdict'
p48
aS'w-1=Graham'
p49
aS'w-1=OSCE'
p50
aS'w-1=and'
p51
aS'w-1=avoid'
p52
aS'w-1=court'
p53
aS'w-1=have'
p54
aS'w-1=judge'
p55
aS'w-1=observer'
p56
aS'w-1=to'
p57
aS'w-2=International'
p58
aS'w-2=Kikwete'
p59
aS'w-2=Lindsey'
p60
aS'w-2=Sunday'
p61
aS'w-2=eager'
p62
aS'w-2=the'
p63
aS'w-2=to'
p64
aS'xcomp=failure'
p65
asS'dtype'
p66
cnumpy
float64
p67
sS'vocabulary_'
p68
(dp69
g13
I4
sg55
I46
sg38
I29
sg41
I32
sg62
I53
sg12
I3
sg30
I21
sg15
I6
sg60
I51
sg47
I38
sg33
I24
sg43
I34
sg31
I22
sg56
I47
sg14
I5
sg57
I48
sg19
I10
sg34
I25
sg27
I18
sg61
I52
sg10
I1
sg11
I2
sg53
I44
sg21
I12
sg39
I30
sg63
I54
sg52
I43
sg45
I36
sg48
I39
sg51
I42
sg65
I56
sg49
I40
sg9
I0
sg17
I8
sg29
I20
sg58
I49
sg46
I37
sg64
I55
sg50
I41
sg22
I13
sg23
I14
sg20
I11
sg44
I35
sg28
I19
sg37
I28
sg36
I27
sg32
I23
sg40
I31
sg59
I50
sg25
I16
sg16
I7
sg35
I26
sg24
I15
sg18
I9
sg42
I33
sg54
I45
sg26
I17
ssS'separator'
p70
S'='
sS'sparse'
p71
I01
sb.