ccopy_reg
_reconstructor
p1
(csklearn.feature_extraction.dict_vectorizer
DictVectorizer
p2
c__builtin__
object
p3
NtRp4
(dp5
S'sort'
p6
I01
sS'feature_names_'
p7
(lp8
S'advcl=give'
p9
aS'advmod=again'
p10
aS'advmod=also'
p11
aS'advmod=exactly'
p12
aS'advmod=most'
p13
aS'advmod=much'
p14
aS'advmod=once'
p15
aS'advmod=only'
p16
aS'advmod=sure'
p17
aS'amod=aggressive'
p18
aS'amod=certain'
p19
aS'amod=common'
p20
aS'amod=conditions-based'
p21
aS'amod=diabetic'
p22
aS'amod=different'
p23
aS'amod=disease-causing'
p24
aS'amod=exact'
p25
aS'amod=feudal'
p26
aS'amod=freakish'
p27
aS'amod=general'
p28
aS'amod=independent'
p29
aS'amod=insidious'
p30
aS'amod=interventionist'
p31
aS'amod=lethal'
p32
aS'amod=major'
p33
aS'amod=many'
p34
aS'amod=monovalent'
p35
aS'amod=new'
p36
aS'amod=normal'
p37
aS'amod=obsessive'
p38
aS'amod=once'
p39
aS'amod=other'
p40
aS'amod=particular'
p41
aS'amod=right'
p42
aS'amod=same'
p43
aS'amod=several'
p44
aS'amod=sexual'
p45
aS'amod=silent'
p46
aS'amod=similar'
p47
aS'amod=specific'
p48
aS'amod=strongest'
p49
aS'amod=such'
p50
aS'amod=terrorist'
p51
aS'amod=unique'
p52
aS'amod=unusual'
p53
aS'amod=varied'
p54
aS'amod=various'
p55
aS'amod=western'
p56
aS'amod=whether'
p57
aS'amod=winner-take-all'
p58
aS'amod=worn'
p59
aS'auxpass=be'
p60
aS'cc=and'
p61
aS'cc=but'
p62
aS'ccomp=comment'
p63
aS'ccomp=expect'
p64
aS'complm=that'
p65
aS'conj=another'
p66
aS'conj=composition'
p67
aS'conj=diabetes'
p68
aS'conj=here'
p69
aS'conj=melanoma'
p70
aS'conj=method'
p71
aS'conj=set'
p72
aS'conj=this'
p73
aS'cop=be'
p74
aS'dep=#NUMBER#'
p75
aS'dep=#PRP#'
p76
aS'dep=diabetes'
p77
aS'dep=empowerment'
p78
aS'dep=everything'
p79
aS'dep=have'
p80
aS'dep=technology'
p81
aS'dep=those'
p82
aS'dep=what'
p83
aS'det=a'
p84
aS'det=all'
p85
aS'det=another'
p86
aS'det=any'
p87
aS'det=both'
p88
aS'det=some'
p89
aS'det=that'
p90
aS'det=the'
p91
aS'det=these'
p92
aS'det=this'
p93
aS'det=those'
p94
aS'det=what'
p95
aS'det=whatever'
p96
aS'dobj=#PRP#'
p97
aS'expl=there'
p98
aS'infmod=do'
p99
aS'infmod=protect'
p100
aS'infmod=take'
p101
aS'mark=because'
p102
aS'neg=never'
p103
aS'neg=not'
p104
aS'nn=Iraq'
p105
aS'nn=Islamiyah'
p106
aS'nn=Union'
p107
aS'nn=blood'
p108
aS'nn=body'
p109
aS'nn=cell'
p110
aS'nn=corner'
p111
aS'nn=franchisee'
p112
aS'nn=hpv'
p113
aS'nn=industry'
p114
aS'nn=maintenance'
p115
aS'nn=mold'
p116
aS'nn=type'
p117
aS'nsubj=#PRP#'
p118
aS'nsubj=Bluegrass'
p119
aS'nsubj=Kalita'
p120
aS'nsubj=acid'
p121
aS'nsubj=cancer'
p122
aS'nsubj=concern'
p123
aS'nsubj=reason'
p124
aS'nsubj=scientist'
p125
aS'nsubj=stuff'
p126
aS'nsubj=these'
p127
aS'nsubj=this'
p128
aS'nsubj=type'
p129
aS'nsubj=what'
p130
aS'nsubj=which'
p131
aS'num=#NUMBER#'
p132
aS'number=#NUMBER#'
p133
aS'partmod=host'
p134
aS'poss=#PRP#'
p135
aS'poss=Algeria'
p136
aS'poss=foreigner'
p137
aS'preconj=both'
p138
aS'prep=as'
p139
aS'prep=in'
p140
aS'prep=into'
p141
aS'prep=of'
p142
aS'rcmod=absorb'
p143
aS'rcmod=address'
p144
aS'rcmod=available'
p145
aS'rcmod=ban'
p146
aS'rcmod=begin'
p147
aS'rcmod=bring'
p148
aS'rcmod=buy'
p149
aS'rcmod=cause'
p150
aS'rcmod=claim'
p151
aS'rcmod=drink'
p152
aS'rcmod=employ'
p153
aS'rcmod=experience'
p154
aS'rcmod=face'
p155
aS'rcmod=have'
p156
aS'rcmod=in'
p157
aS'rcmod=intervene'
p158
aS'rcmod=jeopardize'
p159
aS'rcmod=like'
p160
aS'rcmod=live'
p161
aS'rcmod=make'
p162
aS'rcmod=occur'
p163
aS'rcmod=prefer'
p164
aS'rcmod=pursue'
p165
aS'rcmod=reverse'
p166
aS'rcmod=say'
p167
aS'rcmod=transmit'
p168
aS'rcmod=vulnerable'
p169
aS'rcmod=want'
p170
aS'rcmod=work'
p171
aS'w+1=,'
p172
aS'w+1=-rrb-'
p173
aS'w+1=.'
p174
aS'w+1=1'
p175
aS'w+1=2'
p176
aS'w+1=3'
p177
aS'w+1=B.'
p178
aS'w+1=a'
p179
aS'w+1=act'
p180
aS'w+1=and'
p181
aS'w+1=be'
p182
aS'w+1=campaign'
p183
aS'w+1=can'
p184
aS'w+1=ever'
p185
aS'w+1=for'
p186
aS'w+1=fuel'
p187
aS'w+1=have'
p188
aS'w+1=hope'
p189
aS'w+1=in'
p190
aS'w+1=it'
p191
aS'w+1=of'
p192
aS'w+1=one'
p193
aS'w+1=relationship'
p194
aS'w+1=that'
p195
aS'w+1=they'
p196
aS'w+1=three'
p197
aS'w+1=to'
p198
aS'w+1=two'
p199
aS'w+1=we'
p200
aS'w+1=with'
p201
aS'w+1=worn'
p202
aS"w+2=''"
p203
aS'w+2=,'
p204
aS'w+2=-'
p205
aS'w+2=-rrb-'
p206
aS'w+2=.'
p207
aS'w+2=Asia-Pacific'
p208
aS'w+2=a'
p209
aS'w+2=abuse'
p210
aS'w+2=accident'
p211
aS'w+2=acquisition'
p212
aS'w+2=action'
p213
aS'w+2=activity'
p214
aS'w+2=adequate'
p215
aS'w+2=against'
p216
aS'w+2=aid'
p217
aS'w+2=air'
p218
aS'w+2=aircraft'
p219
aS'w+2=american'
p220
aS'w+2=and'
p221
aS'w+2=arugulum'
p222
aS'w+2=asian'
p223
aS'w+2=assistance'
p224
aS'w+2=attack'
p225
aS'w+2=attitude'
p226
aS'w+2=avalanche'
p227
aS'w+2=b'
p228
aS'w+2=bandage'
p229
aS'w+2=barbaric'
p230
aS'w+2=be'
p231
aS'w+2=beer'
p232
aS'w+2=bird'
p233
aS'w+2=blind'
p234
aS'w+2=blood'
p235
aS'w+2=breadfruit'
p236
aS'w+2=building'
p237
aS'w+2=business'
p238
aS'w+2=but'
p239
aS'w+2=by'
p240
aS'w+2=can'
p241
aS'w+2=cancer'
p242
aS'w+2=candidate'
p243
aS'w+2=car'
p244
aS'w+2=care'
p245
aS'w+2=case'
p246
aS'w+2=cause'
p247
aS'w+2=ceremonial'
p248
aS'w+2=chicken'
p249
aS'w+2=cholera-causing'
p250
aS'w+2=civilian'
p251
aS'w+2=class'
p252
aS'w+2=clothing'
p253
aS'w+2=complex'
p254
aS'w+2=conflict'
p255
aS'w+2=conscientious'
p256
aS'w+2=container'
p257
aS'w+2=contest'
p258
aS'w+2=crime'
p259
aS'w+2=criminal'
p260
aS'w+2=deal'
p261
aS'w+2=debt'
p262
aS'w+2=democracy'
p263
aS'w+2=democratic'
p264
aS'w+2=diabetes'
p265
aS'w+2=diabetic'
p266
aS'w+2=dialogue'
p267
aS'w+2=dialysis'
p268
aS'w+2=distortion'
p269
aS'w+2=do'
p270
aS'w+2=document'
p271
aS'w+2=drastic'
p272
aS'w+2=economy'
p273
aS'w+2=election'
p274
aS'w+2=engagement'
p275
aS'w+2=envelope'
p276
aS'w+2=equipment'
p277
aS'w+2=event'
p278
aS'w+2=experiment'
p279
aS'w+2=explosive'
p280
aS'w+2=fear'
p281
aS'w+2=file'
p282
aS'w+2=financial'
p283
aS'w+2=fish'
p284
aS'w+2=fistula'
p285
aS'w+2=form'
p286
aS'w+2=fruit'
p287
aS'w+2=gene'
p288
aS'w+2=general'
p289
aS'w+2=girl'
p290
aS'w+2=good'
p291
aS'w+2=government'
p292
aS'w+2=government-supported'
p293
aS'w+2=happen'
p294
aS'w+2=have'
p295
aS'w+2=heart'
p296
aS'w+2=help'
p297
aS'w+2=here'
p298
aS'w+2=higher'
p299
aS'w+2=hospital'
p300
aS'w+2=host'
p301
aS'w+2=hurricane'
p302
aS'w+2=identity'
p303
aS'w+2=if'
p304
aS'w+2=ignite'
p305
aS'w+2=immune'
p306
aS'w+2=impact'
p307
aS'w+2=implant'
p308
aS'w+2=in'
p309
aS'w+2=incident'
p310
aS'w+2=influenza'
p311
aS'w+2=initiator'
p312
aS'w+2=injury'
p313
aS'w+2=innovation'
p314
aS'w+2=institution'
p315
aS'w+2=interest'
p316
aS'w+2=intervention'
p317
aS'w+2=into'
p318
aS'w+2=investment'
p319
aS'w+2=involvement'
p320
aS'w+2=iraqi'
p321
aS'w+2=irrigation'
p322
aS'w+2=issue'
p323
aS'w+2=job'
p324
aS'w+2=joint'
p325
aS'w+2=justice'
p326
aS'w+2=land'
p327
aS'w+2=large'
p328
aS'w+2=latrine'
p329
aS'w+2=lead'
p330
aS'w+2=leader'
p331
aS'w+2=leadership'
p332
aS'w+2=legislate'
p333
aS'w+2=lesson'
p334
aS'w+2=level'
p335
aS'w+2=life'
p336
aS'w+2=local'
p337
aS'w+2=luxury'
p338
aS'w+2=madrassa'
p339
aS'w+2=material'
p340
aS'w+2=microsurgery'
p341
aS'w+2=military'
p342
aS'w+2=military-to-military'
p343
aS'w+2=molecule'
p344
aS'w+2=more'
p345
aS'w+2=mortar'
p346
aS'w+2=mosquito'
p347
aS'w+2=movie'
p348
aS'w+2=multilateral'
p349
aS'w+2=music'
p350
aS'w+2=new'
p351
aS'w+2=non-criminal'
p352
aS'w+2=nuclear'
p353
aS'w+2=ocean'
p354
aS'w+2=ocean-going'
p355
aS'w+2=opportunity'
p356
aS'w+2=orchestra'
p357
aS'w+2=orderly'
p358
aS'w+2=packing'
p359
aS'w+2=particularly'
p360
aS'w+2=people'
p361
aS'w+2=perception'
p362
aS'w+2=person'
p363
aS'w+2=phased'
p364
aS'w+2=pickle'
p365
aS'w+2=planning'
p366
aS'w+2=plot'
p367
aS'w+2=polio'
p368
aS'w+2=political'
p369
aS'w+2=prefer'
p370
aS'w+2=problem'
p371
aS'w+2=program'
p372
aS'w+2=programming'
p373
aS'w+2=protection'
p374
aS'w+2=put'
p375
aS'w+2=radiation'
p376
aS'w+2=reader'
p377
aS'w+2=rebel'
p378
aS'w+2=recycle'
p379
aS'w+2=relationship'
p380
aS'w+2=resource'
p381
aS'w+2=response'
p382
aS'w+2=rocket'
p383
aS'w+2=scheme'
p384
aS'w+2=school'
p385
aS'w+2=screening'
p386
aS'w+2=seafood'
p387
aS'w+2=shortfall'
p388
aS'w+2=sink'
p389
aS'w+2=situation'
p390
aS'w+2=ski'
p391
aS'w+2=skill'
p392
aS'w+2=skin'
p393
aS'w+2=slavery'
p394
aS'w+2=solution'
p395
aS'w+2=spacecraft'
p396
aS'w+2=stability'
p397
aS'w+2=statin'
p398
aS'w+2=steroid'
p399
aS'w+2=still'
p400
aS'w+2=stress'
p401
aS'w+2=style'
p402
aS'w+2=success'
p403
aS'w+2=supplies'
p404
aS'w+2=surgery'
p405
aS'w+2=system'
p406
aS'w+2=talk'
p407
aS'w+2=tb'
p408
aS'w+2=team'
p409
aS'w+2=technical'
p410
aS'w+2=technology'
p411
aS'w+2=terrorism'
p412
aS'w+2=the'
p413
aS'w+2=thing'
p414
aS'w+2=three'
p415
aS'w+2=thrush'
p416
aS'w+2=tissue'
p417
aS'w+2=to'
p418
aS'w+2=tobacco'
p419
aS'w+2=tool'
p420
aS'w+2=tourism'
p421
aS'w+2=training'
p422
aS'w+2=treatment'
p423
aS'w+2=trend'
p424
aS'w+2=turbine'
p425
aS'w+2=type'
p426
aS'w+2=ugly'
p427
aS'w+2=unrest'
p428
aS'w+2=vaccine'
p429
aS'w+2=vehicle'
p430
aS'w+2=violence'
p431
aS'w+2=voter'
p432
aS'w+2=war'
p433
aS'w+2=warfare'
p434
aS'w+2=weaponry'
p435
aS'w+2=weather'
p436
aS'w+2=weight-control'
p437
aS'w+2=who'
p438
aS'w+2=wild'
p439
aS'w+2=with'
p440
aS'w+2=woman'
p441
aS'w+2=work'
p442
aS'w+2=workshop'
p443
aS"w-1=''"
p444
aS"w-1='s"
p445
aS'w-1=,'
p446
aS'w-1=-'
p447
aS'w-1=-lrb-'
p448
aS'w-1=.'
p449
aS'w-1=2'
p450
aS'w-1=I'
p451
aS'w-1=Iraq'
p452
aS'w-1=Islamiyah'
p453
aS'w-1=Kennedy'
p454
aS'w-1=Union'
p455
aS'w-1=a'
p456
aS'w-1=against'
p457
aS'w-1=aggressive'
p458
aS'w-1=all'
p459
aS'w-1=and'
p460
aS'w-1=another'
p461
aS'w-1=any'
p462
aS'w-1=blood'
p463
aS'w-1=body'
p464
aS'w-1=both'
p465
aS'w-1=cause'
p466
aS'w-1=cell'
p467
aS'w-1=century'
p468
aS'w-1=certain'
p469
aS'w-1=common'
p470
aS'w-1=commonly'
p471
aS'w-1=conditions-based'
p472
aS'w-1=corner'
p473
aS'w-1=counterinsurgency'
p474
aS'w-1=damaging'
p475
aS'w-1=dangerous'
p476
aS'w-1=describe'
p477
aS'w-1=develop'
p478
aS'w-1=different'
p479
aS'w-1=difficult'
p480
aS'w-1=disease-causing'
p481
aS'w-1=exact'
p482
aS'w-1=feudal'
p483
aS'w-1=for'
p484
aS'w-1=four'
p485
aS'w-1=franchisee'
p486
aS'w-1=freakish'
p487
aS'w-1=have'
p488
aS'w-1=he'
p489
aS'w-1=hpv'
p490
aS'w-1=in'
p491
aS'w-1=independent'
p492
aS'w-1=industry'
p493
aS'w-1=insidious'
p494
aS'w-1=interventionist'
p495
aS'w-1=its'
p496
aS'w-1=maintenance'
p497
aS'w-1=major'
p498
aS'w-1=many'
p499
aS'w-1=monovalent'
p500
aS'w-1=new'
p501
aS'w-1=normal'
p502
aS'w-1=obsessive'
p503
aS'w-1=of'
p504
aS'w-1=other'
p505
aS'w-1=particular'
p506
aS'w-1=right'
p507
aS'w-1=same'
p508
aS'w-1=say'
p509
aS'w-1=several'
p510
aS'w-1=silent'
p511
aS'w-1=similar'
p512
aS'w-1=some'
p513
aS'w-1=specific'
p514
aS'w-1=strongest'
p515
aS'w-1=such'
p516
aS'w-1=teacher'
p517
aS'w-1=terrorist'
p518
aS'w-1=that'
p519
aS'w-1=the'
p520
aS'w-1=these'
p521
aS'w-1=this'
p522
aS'w-1=those'
p523
aS'w-1=three'
p524
aS'w-1=threetype'
p525
aS'w-1=to'
p526
aS'w-1=two'
p527
aS'w-1=unlike'
p528
aS'w-1=unusual'
p529
aS'w-1=various'
p530
aS'w-1=western'
p531
aS'w-1=what'
p532
aS'w-1=whatever'
p533
aS'w-1=winner-take-all'
p534
aS'w-1=with'
p535
aS'w-1=without'
p536
aS'w-1=woody'
p537
aS"w-2=''"
p538
aS"w-2='s"
p539
aS'w-2=,'
p540
aS'w-2=--'
p541
aS'w-2=-lrb-'
p542
aS'w-2=.'
p543
aS'w-2=1'
p544
aS'w-2=14'
p545
aS'w-2=140'
p546
aS'w-2=48'
p547
aS'w-2=Algeria'
p548
aS'w-2=Asia'
p549
aS'w-2=B.'
p550
aS'w-2=European'
p551
aS'w-2=F.'
p552
aS'w-2=Horecky'
p553
aS'w-2=Jemaah'
p554
aS'w-2=a'
p555
aS'w-2=able'
p556
aS'w-2=about'
p557
aS'w-2=accept'
p558
aS'w-2=achieve'
p559
aS'w-2=adolescent'
p560
aS'w-2=and'
p561
aS'w-2=any'
p562
aS'w-2=as'
p563
aS'w-2=avoid'
p564
aS'w-2=be'
p565
aS'w-2=because'
p566
aS'w-2=bring'
p567
aS'w-2=but'
p568
aS'w-2=by'
p569
aS'w-2=cause'
p570
aS'w-2=cell'
p571
aS'w-2=century'
p572
aS'w-2=child'
p573
aS'w-2=commit'
p574
aS'w-2=conclude'
p575
aS'w-2=coordinate'
p576
aS'w-2=cut'
p577
aS'w-2=debate'
p578
aS'w-2=decide'
p579
aS'w-2=demand'
p580
aS'w-2=develop'
p581
aS'w-2=diagnose'
p582
aS'w-2=different'
p583
aS'w-2=discuss'
p584
aS'w-2=disease'
p585
aS'w-2=dissect'
p586
aS'w-2=do'
p587
aS'w-2=document'
p588
aS'w-2=down'
p589
aS'w-2=entertainment'
p590
aS'w-2=exactly'
p591
aS'w-2=expand'
p592
aS'w-2=family'
p593
aS'w-2=favor'
p594
aS'w-2=few'
p595
aS'w-2=find'
p596
aS'w-2=fix'
p597
aS'w-2=follow'
p598
aS'w-2=for'
p599
aS'w-2=formal'
p600
aS'w-2=free'
p601
aS'w-2=from'
p602
aS'w-2=general'
p603
aS'w-2=get'
p604
aS'w-2=give'
p605
aS'w-2=have'
p606
aS'w-2=how'
p607
aS'w-2=if'
p608
aS'w-2=illicit'
p609
aS'w-2=in'
p610
aS'w-2=increase'
p611
aS'w-2=ineffective'
p612
aS'w-2=instead'
p613
aS'w-2=into'
p614
aS'w-2=issue'
p615
aS'w-2=kick-start'
p616
aS'w-2=know'
p617
aS'w-2=let'
p618
aS'w-2=limit'
p619
aS'w-2=live'
p620
aS'w-2=many'
p621
aS'w-2=market'
p622
aS'w-2=mix'
p623
aS'w-2=mold'
p624
aS'w-2=more'
p625
aS'w-2=most'
p626
aS'w-2=mount'
p627
aS'w-2=much'
p628
aS'w-2=not'
p629
aS'w-2=of'
p630
aS'w-2=often'
p631
aS'w-2=on'
p632
aS'w-2=one'
p633
aS'w-2=only'
p634
aS'w-2=or'
p635
aS'w-2=other'
p636
aS'w-2=patient'
p637
aS'w-2=people'
p638
aS'w-2=play'
p639
aS'w-2=prevent'
p640
aS'w-2=preventable'
p641
aS'w-2=prohibit'
p642
aS'w-2=proliferation'
p643
aS'w-2=provide'
p644
aS'w-2=pursue'
p645
aS'w-2=quite'
p646
aS'w-2=receive'
p647
aS'w-2=reduce'
p648
aS'w-2=reignite'
p649
aS'w-2=remain'
p650
aS'w-2=report'
p651
aS'w-2=retard'
p652
aS'w-2=say'
p653
aS'w-2=schedule'
p654
aS'w-2=second-most'
p655
aS'w-2=see'
p656
aS'w-2=several'
p657
aS'w-2=she'
p658
aS'w-2=single'
p659
aS'w-2=so'
p660
aS'w-2=still'
p661
aS'w-2=stop'
p662
aS'w-2=take'
p663
aS'w-2=that'
p664
aS'w-2=the'
p665
aS'w-2=these'
p666
aS'w-2=think'
p667
aS'w-2=this'
p668
aS'w-2=to'
p669
aS'w-2=tolerate'
p670
aS'w-2=two'
p671
aS'w-2=type'
p672
aS'w-2=undergo'
p673
aS'w-2=understand'
p674
aS'w-2=use'
p675
aS'w-2=varied'
p676
aS'w-2=verify'
p677
aS'w-2=want'
p678
aS'w-2=what'
p679
aS'w-2=when'
p680
aS'w-2=with'
p681
asS'dtype'
p682
cnumpy
float64
p683
sS'vocabulary_'
p684
(dp685
g498
I489
sg138
I129
sg430
I421
sg371
I362
sg638
I629
sg395
I386
sg322
I313
sg533
I524
sg398
I389
sg17
I8
sg283
I274
sg239
I230
sg251
I242
sg483
I474
sg189
I180
sg81
I72
sg24
I15
sg594
I585
sg124
I115
sg85
I76
sg354
I345
sg438
I429
sg166
I157
sg277
I268
sg195
I186
sg320
I311
sg529
I520
sg629
I620
sg123
I114
sg334
I325
sg509
I500
sg229
I220
sg501
I492
sg222
I213
sg537
I528
sg335
I326
sg293
I284
sg602
I593
sg511
I502
sg114
I105
sg452
I443
sg672
I663
sg417
I408
sg105
I96
sg386
I377
sg490
I481
sg109
I100
sg647
I638
sg593
I584
sg665
I656
sg409
I400
sg287
I278
sg214
I205
sg674
I665
sg235
I226
sg376
I367
sg102
I93
sg644
I635
sg101
I92
sg294
I285
sg192
I183
sg353
I344
sg410
I401
sg392
I383
sg170
I161
sg621
I612
sg247
I238
sg579
I570
sg66
I57
sg333
I324
sg67
I58
sg622
I613
sg513
I504
sg83
I74
sg160
I151
sg488
I479
sg423
I414
sg304
I295
sg309
I300
sg25
I16
sg303
I294
sg12
I3
sg634
I625
sg260
I251
sg15
I6
sg65
I56
sg321
I312
sg477
I468
sg13
I4
sg281
I272
sg241
I232
sg495
I486
sg439
I430
sg370
I361
sg213
I204
sg427
I418
sg278
I269
sg422
I413
sg664
I655
sg525
I516
sg206
I197
sg435
I426
sg30
I21
sg16
I7
sg231
I222
sg196
I187
sg662
I653
sg478
I469
sg548
I539
sg127
I118
sg140
I131
sg492
I483
sg186
I177
sg400
I391
sg255
I246
sg327
I318
sg369
I360
sg380
I371
sg362
I353
sg181
I172
sg150
I141
sg391
I382
sg481
I472
sg341
I332
sg339
I330
sg557
I548
sg516
I507
sg512
I503
sg108
I99
sg420
I411
sg434
I425
sg458
I449
sg93
I84
sg497
I488
sg491
I482
sg352
I343
sg200
I191
sg378
I369
sg631
I622
sg52
I43
sg405
I396
sg520
I511
sg323
I314
sg510
I501
sg58
I49
sg394
I385
sg437
I428
sg145
I136
sg590
I581
sg153
I144
sg570
I561
sg47
I38
sg609
I600
sg152
I143
sg545
I536
sg173
I164
sg54
I45
sg350
I341
sg29
I20
sg188
I179
sg299
I290
sg448
I439
sg157
I148
sg530
I521
sg92
I83
sg324
I315
sg315
I306
sg675
I666
sg301
I292
sg147
I138
sg635
I626
sg359
I350
sg467
I458
sg77
I68
sg630
I621
sg184
I175
sg202
I193
sg425
I416
sg79
I70
sg632
I623
sg526
I517
sg383
I374
sg146
I137
sg345
I336
sg527
I518
sg387
I378
sg508
I499
sg587
I578
sg536
I527
sg317
I308
sg10
I1
sg298
I289
sg119
I110
sg560
I551
sg485
I476
sg226
I217
sg517
I508
sg244
I235
sg473
I464
sg243
I234
sg534
I525
sg663
I654
sg574
I565
sg476
I467
sg216
I207
sg671
I662
sg627
I618
sg465
I456
sg507
I498
sg314
I305
sg589
I580
sg248
I239
sg246
I237
sg556
I547
sg89
I80
sg535
I526
sg63
I54
sg296
I287
sg415
I406
sg180
I171
sg523
I514
sg199
I190
sg338
I329
sg94
I85
sg655
I646
sg76
I67
sg658
I649
sg261
I252
sg311
I302
sg233
I224
sg116
I107
sg306
I297
sg117
I108
sg453
I444
sg368
I359
sg407
I398
sg73
I64
sg367
I358
sg165
I156
sg500
I491
sg343
I334
sg9
I0
sg95
I86
sg75
I66
sg60
I51
sg347
I338
sg412
I403
sg227
I218
sg445
I436
sg403
I394
sg419
I410
sg133
I124
sg291
I282
sg154
I145
sg14
I5
sg514
I505
sg657
I648
sg329
I320
sg31
I22
sg129
I120
sg121
I112
sg236
I227
sg408
I399
sg659
I650
sg414
I405
sg253
I244
sg351
I342
sg215
I206
sg676
I667
sg440
I431
sg356
I347
sg259
I250
sg48
I39
sg444
I435
sg151
I142
sg480
I471
sg486
I477
sg649
I640
sg218
I209
sg626
I617
sg645
I636
sg169
I160
sg217
I208
sg375
I366
sg374
I365
sg524
I515
sg18
I9
sg538
I529
sg282
I273
sg128
I119
sg208
I199
sg542
I533
sg198
I189
sg90
I81
sg158
I149
sg43
I34
sg33
I24
sg349
I340
sg460
I451
sg670
I661
sg87
I78
sg141
I132
sg559
I550
sg567
I558
sg381
I372
sg389
I380
sg462
I453
sg549
I540
sg332
I323
sg397
I388
sg366
I357
sg640
I631
sg404
I395
sg107
I98
sg582
I573
sg220
I211
sg677
I668
sg539
I530
sg159
I150
sg624
I615
sg156
I147
sg421
I412
sg305
I296
sg613
I604
sg360
I351
sg363
I354
sg424
I415
sg258
I249
sg308
I299
sg86
I77
sg134
I125
sg190
I181
sg650
I641
sg22
I13
sg614
I605
sg288
I279
sg583
I574
sg365
I356
sg266
I257
sg399
I390
sg364
I355
sg616
I607
sg505
I496
sg573
I564
sg21
I12
sg307
I298
sg411
I402
sg36
I27
sg69
I60
sg506
I497
sg112
I103
sg337
I328
sg681
I672
sg382
I373
sg553
I544
sg245
I236
sg432
I423
sg82
I73
sg494
I485
sg344
I335
sg110
I101
sg300
I291
sg637
I628
sg591
I582
sg98
I89
sg23
I14
sg617
I608
sg457
I448
sg515
I506
sg49
I40
sg237
I228
sg262
I253
sg342
I333
sg330
I321
sg639
I630
sg661
I652
sg167
I158
sg361
I352
sg149
I140
sg499
I490
sg136
I127
sg608
I599
sg257
I248
sg518
I509
sg541
I532
sg610
I601
sg268
I259
sg355
I346
sg312
I303
sg211
I202
sg113
I104
sg592
I583
sg270
I261
sg263
I254
sg388
I379
sg210
I201
sg53
I44
sg472
I463
sg193
I184
sg623
I614
sg155
I146
sg130
I121
sg164
I155
sg178
I169
sg297
I288
sg88
I79
sg57
I48
sg126
I117
sg132
I123
sg558
I549
sg203
I194
sg219
I210
sg522
I513
sg571
I562
sg11
I2
sg91
I82
sg585
I576
sg183
I174
sg643
I634
sg588
I579
sg148
I139
sg32
I23
sg470
I461
sg185
I176
sg581
I572
sg521
I512
sg286
I277
sg606
I597
sg99
I90
sg61
I52
sg223
I214
sg547
I538
sg290
I281
sg64
I55
sg182
I173
sg55
I46
sg96
I87
sg612
I603
sg680
I671
sg546
I537
sg273
I264
sg618
I609
sg554
I545
sg418
I409
sg56
I47
sg586
I577
sg191
I182
sg118
I109
sg346
I337
sg68
I59
sg42
I33
sg431
I422
sg656
I647
sg249
I240
sg620
I611
sg393
I384
sg401
I392
sg289
I280
sg62
I53
sg51
I42
sg143
I134
sg348
I339
sg46
I37
sg135
I126
sg572
I563
sg252
I243
sg654
I645
sg652
I643
sg212
I203
sg596
I587
sg443
I434
sg611
I602
sg385
I376
sg39
I30
sg38
I29
sg666
I657
sg433
I424
sg45
I36
sg163
I154
sg358
I349
sg242
I233
sg310
I301
sg648
I639
sg463
I454
sg384
I375
sg276
I267
sg565
I556
sg496
I487
sg580
I571
sg142
I133
sg50
I41
sg254
I245
sg396
I387
sg197
I188
sg469
I460
sg482
I473
sg357
I348
sg569
I560
sg406
I397
sg131
I122
sg552
I543
sg503
I494
sg264
I255
sg80
I71
sg326
I317
sg274
I265
sg564
I555
sg471
I462
sg605
I596
sg59
I50
sg40
I31
sg41
I32
sg550
I541
sg679
I670
sg285
I276
sg604
I595
sg234
I225
sg678
I669
sg26
I17
sg578
I569
sg646
I637
sg70
I61
sg205
I196
sg429
I420
sg603
I594
sg115
I106
sg504
I495
sg72
I63
sg279
I270
sg71
I62
sg625
I616
sg669
I660
sg221
I212
sg561
I552
sg35
I26
sg272
I263
sg144
I135
sg162
I153
sg633
I624
sg531
I522
sg577
I568
sg74
I65
sg562
I553
sg194
I185
sg619
I610
sg232
I223
sg97
I88
sg225
I216
sg201
I192
sg479
I470
sg653
I644
sg319
I310
sg318
I309
sg628
I619
sg413
I404
sg106
I97
sg139
I130
sg540
I531
sg543
I534
sg331
I322
sg450
I441
sg493
I484
sg568
I559
sg325
I316
sg667
I658
sg449
I440
sg447
I438
sg446
I437
sg544
I535
sg340
I331
sg284
I275
sg597
I588
sg269
I260
sg595
I586
sg122
I113
sg563
I554
sg642
I633
sg607
I598
sg598
I589
sg328
I319
sg636
I627
sg451
I442
sg601
I592
sg292
I283
sg316
I307
sg230
I221
sg555
I546
sg187
I178
sg125
I116
sg373
I364
sg84
I75
sg456
I447
sg275
I266
sg528
I519
sg454
I445
sg372
I363
sg442
I433
sg660
I651
sg489
I480
sg168
I159
sg377
I368
sg100
I91
sg103
I94
sg428
I419
sg265
I256
sg379
I370
sg436
I427
sg44
I35
sg615
I606
sg171
I162
sg390
I381
sg250
I241
sg111
I102
sg280
I271
sg34
I25
sg179
I170
sg295
I286
sg27
I18
sg599
I590
sg28
I19
sg600
I591
sg224
I215
sg474
I465
sg466
I457
sg668
I659
sg402
I393
sg641
I632
sg120
I111
sg459
I450
sg464
I455
sg313
I304
sg468
I459
sg161
I152
sg78
I69
sg455
I446
sg475
I466
sg137
I128
sg584
I575
sg426
I417
sg651
I642
sg484
I475
sg172
I163
sg174
I165
sg175
I166
sg240
I231
sg177
I168
sg176
I167
sg207
I198
sg204
I195
sg416
I407
sg104
I95
sg37
I28
sg256
I247
sg575
I566
sg461
I452
sg673
I664
sg336
I327
sg302
I293
sg20
I11
sg532
I523
sg502
I493
sg576
I567
sg441
I432
sg566
I557
sg238
I229
sg519
I510
sg271
I262
sg267
I258
sg19
I10
sg228
I219
sg487
I478
sg209
I200
sg551
I542
ssS'separator'
p686
S'='
sS'sparse'
p687
I01
sb.