ccopy_reg
_reconstructor
p1
(csklearn.feature_extraction.dict_vectorizer
DictVectorizer
p2
c__builtin__
object
p3
NtRp4
(dp5
S'sort'
p6
I01
sS'feature_names_'
p7
(lp8
S'advmod=overhead'
p9
aS'mark=as'
p10
aS'nsubj=bird'
p11
aS'w+1=bird'
p12
aS'w+1=overhead'
p13
aS'w+2=,'
p14
aS'w+2=near'
p15
aS'w-1=bird'
p16
aS'w-1=with'
p17
aS'w-2=as'
p18
aS'w-2=land'
p19
asS'dtype'
p20
cnumpy
float64
p21
sS'vocabulary_'
p22
(dp23
g19
I10
sg12
I3
sg16
I7
sg11
I2
sg10
I1
sg18
I9
sg17
I8
sg15
I6
sg14
I5
sg13
I4
sg9
I0
ssS'separator'
p24
S'='
sS'sparse'
p25
I01
sb.