ccopy_reg
_reconstructor
p1
(csklearn.feature_extraction.dict_vectorizer
DictVectorizer
p2
c__builtin__
object
p3
NtRp4
(dp5
S'sort'
p6
I01
sS'feature_names_'
p7
(lp8
S'advcl=asian'
p9
aS'advcl=ask'
p10
aS'advcl=begin'
p11
aS'advcl=believe'
p12
aS'advcl=come'
p13
aS'advcl=continue'
p14
aS'advcl=crush'
p15
aS'advcl=force'
p16
aS'advcl=hit'
p17
aS'advcl=lower'
p18
aS'advcl=make'
p19
aS'advcl=mark'
p20
aS'advcl=name'
p21
aS'advcl=open'
p22
aS'advcl=speak'
p23
aS'advcl=there'
p24
aS'advcl=wash'
p25
aS'advmod=ago'
p26
aS'advmod=ahead'
p27
aS'advmod=also'
p28
aS'advmod=always'
p29
aS'advmod=currently'
p30
aS'advmod=even'
p31
aS'advmod=ever'
p32
aS'advmod=fast'
p33
aS'advmod=freshly'
p34
aS'advmod=how'
p35
aS'advmod=ironically'
p36
aS'advmod=just'
p37
aS'advmod=later'
p38
aS'advmod=normally'
p39
aS'advmod=now'
p40
aS'advmod=often'
p41
aS'advmod=once'
p42
aS'advmod=only'
p43
aS'advmod=particularly'
p44
aS'advmod=quickly'
p45
aS'advmod=rapidly'
p46
aS'advmod=real'
p47
aS'advmod=simply'
p48
aS'advmod=so'
p49
aS'advmod=still'
p50
aS'advmod=temporarily'
p51
aS'advmod=that'
p52
aS'advmod=up'
p53
aS'advmod=usually'
p54
aS'advmod=well'
p55
aS'advmod=when'
p56
aS'aux=be'
p57
aS'aux=can'
p58
aS'aux=have'
p59
aS'aux=may'
p60
aS'aux=to'
p61
aS'aux=will'
p62
aS'aux=would'
p63
aS'auxpass=be'
p64
aS'cc=and'
p65
aS'cc=but'
p66
aS'ccomp=Yar'
p67
aS'ccomp=best'
p68
aS'ccomp=can'
p69
aS'ccomp=head'
p70
aS'ccomp=in'
p71
aS'ccomp=realize'
p72
aS'ccomp=say'
p73
aS'ccomp=vacate'
p74
aS'complm=that'
p75
aS'conj=accept'
p76
aS'conj=be'
p77
aS'conj=call'
p78
aS'conj=continue'
p79
aS'conj=crunch'
p80
aS'conj=ease'
p81
aS'conj=fill'
p82
aS'conj=force'
p83
aS'conj=have'
p84
aS'conj=hear'
p85
aS'conj=leave'
p86
aS'conj=lie'
p87
aS'conj=make'
p88
aS'conj=of'
p89
aS'conj=offer'
p90
aS'conj=run'
p91
aS'conj=take'
p92
aS'conj=think'
p93
aS'conj=uncomfortable'
p94
aS'conj=use'
p95
aS'dep=do'
p96
aS'dep=give'
p97
aS'dep=have'
p98
aS'dep=so'
p99
aS'dep=whether'
p100
aS'dep=whose'
p101
aS'dobj=#PRP#'
p102
aS'dobj=House'
p103
aS'dobj=Jacob'
p104
aS'dobj=Naivasha'
p105
aS'dobj=Square'
p106
aS'dobj=air'
p107
aS'dobj=airwave'
p108
aS'dobj=application'
p109
aS'dobj=area'
p110
aS'dobj=arena'
p111
aS'dobj=atmosphere'
p112
aS'dobj=baguette'
p113
aS'dobj=bar'
p114
aS'dobj=beach'
p115
aS'dobj=bill'
p116
aS'dobj=bladder'
p117
aS'dobj=boat'
p118
aS'dobj=boot'
p119
aS'dobj=bowl'
p120
aS'dobj=bucket'
p121
aS'dobj=cafe'
p122
aS'dobj=category'
p123
aS'dobj=chamber'
p124
aS'dobj=complexity'
p125
aS'dobj=container'
p126
aS'dobj=demand'
p127
aS'dobj=diary'
p128
aS'dobj=floor'
p129
aS'dobj=folder'
p130
aS'dobj=force'
p131
aS'dobj=form'
p132
aS'dobj=gap'
p133
aS'dobj=granary'
p134
aS'dobj=hall'
p135
aS'dobj=hole'
p136
aS'dobj=job'
p137
aS'dobj=landscape'
p138
aS'dobj=latrine'
p139
aS'dobj=need'
p140
aS'dobj=niche'
p141
aS'dobj=office'
p142
aS'dobj=plan'
p143
aS'dobj=position'
p144
aS'dobj=post'
p145
aS'dobj=prescription'
p146
aS'dobj=rank'
p147
aS'dobj=road'
p148
aS'dobj=role'
p149
aS'dobj=room'
p150
aS'dobj=sack'
p151
aS'dobj=schedule'
p152
aS'dobj=screen'
p153
aS'dobj=seat'
p154
aS'dobj=shoe'
p155
aS'dobj=shortage'
p156
aS'dobj=shortfall'
p157
aS'dobj=showroom'
p158
aS'dobj=spot'
p159
aS'dobj=square'
p160
aS'dobj=stadium'
p161
aS'dobj=stand'
p162
aS'dobj=stomach'
p163
aS'dobj=street'
p164
aS'dobj=survey'
p165
aS'dobj=tank'
p166
aS'dobj=tent'
p167
aS'dobj=vacuum'
p168
aS'dobj=void'
p169
aS'mark=after'
p170
aS'mark=as'
p171
aS'mark=because'
p172
aS'mark=for'
p173
aS'mark=until'
p174
aS'mark=while'
p175
aS'neg=not'
p176
aS'nsubj=#NUMBER#'
p177
aS'nsubj=#PRP#'
p178
aS"nsubj='em"
p179
aS'nsubj=BRAC'
p180
aS'nsubj=China'
p181
aS'nsubj=Diaw'
p182
aS'nsubj=Farmers'
p183
aS'nsubj=Francesca'
p184
aS'nsubj=Iraqis'
p185
aS'nsubj=Joplin'
p186
aS'nsubj=Republican'
p187
aS'nsubj=Turks'
p188
aS'nsubj=anthem'
p189
aS'nsubj=boat'
p190
aS'nsubj=boom'
p191
aS'nsubj=builder'
p192
aS'nsubj=camp'
p193
aS'nsubj=constitution'
p194
aS'nsubj=course'
p195
aS'nsubj=devotee'
p196
aS'nsubj=eye'
p197
aS'nsubj=festival'
p198
aS'nsubj=film'
p199
aS'nsubj=fireball'
p200
aS'nsubj=fisherman'
p201
aS'nsubj=game'
p202
aS'nsubj=hall'
p203
aS'nsubj=jazz'
p204
aS'nsubj=lawyer'
p205
aS'nsubj=man'
p206
aS'nsubj=mix'
p207
aS'nsubj=organization'
p208
aS'nsubj=owner'
p209
aS'nsubj=painting'
p210
aS'nsubj=parliament'
p211
aS'nsubj=participant'
p212
aS'nsubj=rain'
p213
aS'nsubj=smell'
p214
aS'nsubj=sound'
p215
aS'nsubj=student'
p216
aS'nsubj=supporter'
p217
aS'nsubj=tenor'
p218
aS'nsubj=that'
p219
aS'nsubj=trash'
p220
aS'nsubj=troops'
p221
aS'nsubj=water'
p222
aS'nsubj=who'
p223
aS'nsubjpass=#DATE#'
p224
aS'nsubjpass=#NUMBER#'
p225
aS'nsubjpass=#PRP#'
p226
aS'nsubjpass=Concorde'
p227
aS'nsubjpass=Hall'
p228
aS'nsubjpass=Nigerians'
p229
aS'nsubjpass=Room'
p230
aS'nsubjpass=Rotunda'
p231
aS'nsubjpass=Square'
p232
aS'nsubjpass=arena'
p233
aS'nsubjpass=bank'
p234
aS'nsubjpass=boat'
p235
aS'nsubjpass=book'
p236
aS'nsubjpass=building'
p237
aS'nsubjpass=bus'
p238
aS'nsubjpass=cemetery'
p239
aS'nsubjpass=class'
p240
aS'nsubjpass=classroom'
p241
aS'nsubjpass=dump'
p242
aS'nsubjpass=field'
p243
aS'nsubjpass=hall'
p244
aS'nsubjpass=hill'
p245
aS'nsubjpass=hotel'
p246
aS'nsubjpass=morning'
p247
aS'nsubjpass=mosque'
p248
aS'nsubjpass=much'
p249
aS'nsubjpass=music'
p250
aS'nsubjpass=office'
p251
aS'nsubjpass=position'
p252
aS'nsubjpass=process'
p253
aS'nsubjpass=room'
p254
aS'nsubjpass=sky'
p255
aS'nsubjpass=street'
p256
aS'nsubjpass=tank'
p257
aS'nsubjpass=tent'
p258
aS'nsubjpass=that'
p259
aS'nsubjpass=the'
p260
aS'nsubjpass=twenty-nine'
p261
aS'nsubjpass=vacuum'
p262
aS'nsubjpass=week'
p263
aS'nsubjpass=which'
p264
aS'nsubjpass=world'
p265
aS'partmod=cause'
p266
aS'partmod=give'
p267
aS'partmod=make'
p268
aS'poss=#PRP#'
p269
aS'prep=across'
p270
aS'prep=as'
p271
aS'prep=at'
p272
aS'prep=by'
p273
aS'prep=except'
p274
aS'prep=for'
p275
aS'prep=from'
p276
aS'prep=in'
p277
aS'prep=into'
p278
aS'prep=on'
p279
aS'prep=over'
p280
aS'prep=that'
p281
aS'prep=through'
p282
aS'prep=to'
p283
aS'prep=until'
p284
aS'prep=with'
p285
aS'prep=without'
p286
aS'prt=in'
p287
aS'prt=out'
p288
aS'prt=up'
p289
aS'tmod=#DATE#'
p290
aS'tmod=day'
p291
aS'tmod=today'
p292
aS'w+1=,'
p293
aS'w+1=.'
p294
aS'w+1=Baghdad'
p295
aS'w+1=Lake'
p296
aS'w+1=London'
p297
aS'w+1=Monday'
p298
aS'w+1=a'
p299
aS'w+1=and'
p300
aS'w+1=another'
p301
aS'w+1=baguette'
p302
aS'w+1=by'
p303
aS'w+1=critical'
p304
aS'w+1=empty'
p305
aS'w+1=for'
p306
aS'w+1=gap'
p307
aS'w+1=half'
p308
aS'w+1=he'
p309
aS'w+1=hole'
p310
aS'w+1=in'
p311
aS'w+1=it'
p312
aS'w+1=its'
p313
aS'w+1=labor'
p314
aS'w+1=large'
p315
aS'w+1=mostly'
p316
aS'w+1=new'
p317
aS'w+1=now'
p318
aS'w+1=old'
p319
aS'w+1=on'
p320
aS'w+1=only'
p321
aS'w+1=other'
p322
aS'w+1=out'
p323
aS'w+1=president-elect'
p324
aS'w+1=seat'
p325
aS'w+1=she'
p326
aS'w+1=so'
p327
aS'w+1=stadium'
p328
aS'w+1=street'
p329
aS'w+1=temporarily'
p330
aS'w+1=that'
p331
aS'w+1=the'
p332
aS'w+1=these'
p333
aS'w+1=they'
p334
aS'w+1=this'
p335
aS'w+1=those'
p336
aS'w+1=to'
p337
aS'w+1=top'
p338
aS'w+1=two'
p339
aS'w+1=until'
p340
aS'w+1=up'
p341
aS'w+1=vacant'
p342
aS'w+1=well'
p343
aS'w+1=what'
p344
aS'w+1=with'
p345
aS"w+2=''"
p346
aS"w+2='s"
p347
aS'w+2=,'
p348
aS'w+2=.'
p349
aS'w+2=Barack'
p350
aS'w+2=Duke'
p351
aS'w+2=Mr.'
p352
aS'w+2=Naivasha'
p353
aS'w+2=Senate'
p354
aS'w+2=United'
p355
aS'w+2=White'
p356
aS'w+2=a'
p357
aS'w+2=air'
p358
aS'w+2=airwave'
p359
aS'w+2=all'
p360
aS'w+2=ambient'
p361
aS'w+2=american'
p362
aS'w+2=and'
p363
aS'w+2=anybody'
p364
aS'w+2=application'
p365
aS'w+2=as'
p366
aS'w+2=atmosphere'
p367
aS'w+2=banjo'
p368
aS'w+2=bar'
p369
aS'w+2=beach'
p370
aS'w+2=because'
p371
aS'w+2=best'
p372
aS'w+2=beyond'
p373
aS'w+2=big'
p374
aS'w+2=bill'
p375
aS'w+2=blood'
p376
aS'w+2=blue'
p377
aS'w+2=boat'
p378
aS'w+2=broken'
p379
aS'w+2=bucket'
p380
aS'w+2=cabinet'
p381
aS'w+2=cafe'
p382
aS'w+2=call'
p383
aS'w+2=capacity'
p384
aS'w+2=car'
p385
aS'w+2=chamber'
p386
aS'w+2=character'
p387
aS'w+2=chemical'
p388
aS'w+2=coliseum'
p389
aS'w+2=color'
p390
aS'w+2=conflict'
p391
aS'w+2=contain'
p392
aS'w+2=container'
p393
aS'w+2=control'
p394
aS'w+2=crate'
p395
aS'w+2=critical'
p396
aS'w+2=day'
p397
aS'w+2=debris'
p398
aS'w+2=debt'
p399
aS'w+2=diamond'
p400
aS'w+2=distortion'
p401
aS'w+2=exotic'
p402
aS'w+2=expectation'
p403
aS'w+2=explosive'
p404
aS'w+2=family'
p405
aS'w+2=fast'
p406
aS'w+2=fear'
p407
aS'w+2=financial'
p408
aS'w+2=for'
p409
aS'w+2=foreign'
p410
aS'w+2=fresh'
p411
aS'w+2=further'
p412
aS'w+2=gap'
p413
aS'w+2=gas'
p414
aS'w+2=government'
p415
aS'w+2=granary'
p416
aS'w+2=great'
p417
aS'w+2=grief'
p418
aS'w+2=grow'
p419
aS'w+2=he'
p420
aS'w+2=hope'
p421
aS'w+2=huge'
p422
aS'w+2=human'
p423
aS'w+2=hundred'
p424
aS'w+2=imaginative'
p425
aS'w+2=important'
p426
aS'w+2=in'
p427
aS'w+2=inspiring'
p428
aS'w+2=international'
p429
aS'w+2=it'
p430
aS'w+2=its'
p431
aS'w+2=job'
p432
aS'w+2=just'
p433
aS'w+2=kite'
p434
aS'w+2=labor'
p435
aS'w+2=landscape'
p436
aS'w+2=large'
p437
aS'w+2=live'
p438
aS'w+2=loud'
p439
aS'w+2=love'
p440
aS'w+2=loyalist'
p441
aS'w+2=many'
p442
aS'w+2=market'
p443
aS'w+2=meat'
p444
aS'w+2=ministerial'
p445
aS'w+2=more'
p446
aS'w+2=most'
p447
aS'w+2=much-needed'
p448
aS'w+2=mud'
p449
aS'w+2=muddy'
p450
aS'w+2=need'
p451
aS'w+2=new'
p452
aS'w+2=niche'
p453
aS'w+2=noise'
p454
aS'w+2=of'
p455
aS'w+2=office'
p456
aS'w+2=peace'
p457
aS'w+2=pit'
p458
aS'w+2=plan'
p459
aS'w+2=plastic'
p460
aS'w+2=police'
p461
aS'w+2=political'
p462
aS'w+2=post'
p463
aS'w+2=prescription'
p464
aS'w+2=present'
p465
aS'w+2=promise'
p466
aS'w+2=rainwater'
p467
aS'w+2=rank'
p468
aS'w+2=reminder'
p469
aS'w+2=rhyme'
p470
aS'w+2=rice'
p471
aS'w+2=road'
p472
aS'w+2=role'
p473
aS'w+2=room'
p474
aS'w+2=runner'
p475
aS'w+2=rush'
p476
aS'w+2=screen'
p477
aS'w+2=seat'
p478
aS'w+2=security'
p479
aS'w+2=shortage'
p480
aS'w+2=shortfall'
p481
aS'w+2=showroom'
p482
aS'w+2=slander'
p483
aS'w+2=song'
p484
aS'w+2=space'
p485
aS'w+2=spot'
p486
aS'w+2=stand'
p487
aS'w+2=state'
p488
aS'w+2=stomach'
p489
aS'w+2=street'
p490
aS'w+2=sudanese'
p491
aS'w+2=survey'
p492
aS'w+2=tear'
p493
aS'w+2=that'
p494
aS'w+2=the'
p495
aS'w+2=they'
p496
aS'w+2=thick'
p497
aS'w+2=those'
p498
aS'w+2=thousand'
p499
aS'w+2=tourist'
p500
aS'w+2=toxic'
p501
aS'w+2=tv'
p502
aS'w+2=university'
p503
aS'w+2=up'
p504
aS'w+2=vacuum'
p505
aS'w+2=vehicle'
p506
aS'w+2=very'
p507
aS'w+2=village'
p508
aS'w+2=void'
p509
aS'w+2=welding'
p510
aS'w+2=with'
p511
aS'w+2=woman'
p512
aS'w+2=would'
p513
aS"w-1=''"
p514
aS'w-1=,'
p515
aS'w-1=.'
p516
aS'w-1=Asia'
p517
aS'w-1=BRAC'
p518
aS'w-1=Charles'
p519
aS'w-1=Diaw'
p520
aS'w-1=Farmers'
p521
aS'w-1=Francesca'
p522
aS'w-1=Schools'
p523
aS'w-1=Turks'
p524
aS'w-1=about'
p525
aS'w-1=airplane'
p526
aS'w-1=also'
p527
aS'w-1=always'
p528
aS'w-1=and'
p529
aS'w-1=anthem'
p530
aS'w-1=artist'
p531
aS'w-1=as'
p532
aS'w-1=backpack'
p533
aS'w-1=be'
p534
aS'w-1=bean'
p535
aS'w-1=boat'
p536
aS'w-1=boom'
p537
aS'w-1=box'
p538
aS'w-1=can'
p539
aS'w-1=car'
p540
aS'w-1=childhood'
p541
aS'w-1=city'
p542
aS'w-1=complex'
p543
aS'w-1=container'
p544
aS'w-1=countryside'
p545
aS'w-1=course'
p546
aS'w-1=currently'
p547
aS'w-1=demonstrator'
p548
aS'w-1=devotee'
p549
aS'w-1=document'
p550
aS'w-1=drum'
p551
aS'w-1=even'
p552
aS'w-1=ever'
p553
aS'w-1=eye'
p554
aS'w-1=festival'
p555
aS'w-1=fireball'
p556
aS'w-1=freshly'
p557
aS'w-1=from'
p558
aS'w-1=future'
p559
aS'w-1=hall'
p560
aS'w-1=have'
p561
aS'w-1=he'
p562
aS'w-1=heart'
p563
aS'w-1=help'
p564
aS'w-1=historian'
p565
aS'w-1=it'
p566
aS'w-1=job'
p567
aS'w-1=juice'
p568
aS'w-1=just'
p569
aS'w-1=lot'
p570
aS'w-1=man'
p571
aS'w-1=motorcycle'
p572
aS'w-1=narrative'
p573
aS'w-1=normally'
p574
aS'w-1=not'
p575
aS'w-1=now'
p576
aS'w-1=ocean'
p577
aS'w-1=often'
p578
aS'w-1=on'
p579
aS'w-1=once'
p580
aS'w-1=one'
p581
aS'w-1=onlooker'
p582
aS'w-1=owner'
p583
aS'w-1=parliament'
p584
aS'w-1=pen'
p585
aS'w-1=pit'
p586
aS'w-1=quickly'
p587
aS'w-1=rapidly'
p588
aS'w-1=room'
p589
aS'w-1=showroom'
p590
aS'w-1=simply'
p591
aS'w-1=song'
p592
aS'w-1=staff'
p593
aS'w-1=start'
p594
aS'w-1=still'
p595
aS'w-1=stomach'
p596
aS'w-1=study'
p597
aS'w-1=supporter'
p598
aS'w-1=tenor'
p599
aS'w-1=that'
p600
aS'w-1=they'
p601
aS'w-1=to'
p602
aS'w-1=trash'
p603
aS'w-1=truck'
p604
aS'w-1=usually'
p605
aS'w-1=vehicle'
p606
aS'w-1=water'
p607
aS'w-1=we'
p608
aS'w-1=who'
p609
aS'w-1=will'
p610
aS"w-2=''"
p611
aS'w-2=,'
p612
aS'w-2=.'
p613
aS'w-2=13'
p614
aS'w-2=1962'
p615
aS'w-2=2003'
p616
aS'w-2=Hall'
p617
aS'w-2=India'
p618
aS'w-2=Iraqis'
p619
aS'w-2=London'
p620
aS'w-2=Nations'
p621
aS'w-2=Nigerians'
p622
aS'w-2=Ray'
p623
aS'w-2=Room'
p624
aS'w-2=Unleashed'
p625
aS'w-2=Zimbabwe'
p626
aS'w-2=a'
p627
aS'w-2=advice'
p628
aS'w-2=african'
p629
aS'w-2=ahead'
p630
aS'w-2=al-qaida'
p631
aS'w-2=and'
p632
aS'w-2=arena'
p633
aS'w-2=ask'
p634
aS'w-2=bank'
p635
aS'w-2=barren'
p636
aS'w-2=be'
p637
aS'w-2=begin'
p638
aS'w-2=boat'
p639
aS'w-2=book'
p640
aS'w-2=brush'
p641
aS'w-2=builder'
p642
aS'w-2=building'
p643
aS'w-2=bus'
p644
aS'w-2=by-election'
p645
aS'w-2=camp'
p646
aS'w-2=campus'
p647
aS'w-2=can'
p648
aS'w-2=catch'
p649
aS'w-2=class'
p650
aS'w-2=compete'
p651
aS'w-2=constitution'
p652
aS'w-2=continue'
p653
aS'w-2=crust'
p654
aS'w-2=deadlock'
p655
aS'w-2=diligent'
p656
aS'w-2=drive'
p657
aS'w-2=driver'
p658
aS'w-2=dump'
p659
aS'w-2=eager'
p660
aS'w-2=election'
p661
aS'w-2=enterprise'
p662
aS'w-2=equipment'
p663
aS'w-2=extra'
p664
aS'w-2=farmer'
p665
aS'w-2=film'
p666
aS'w-2=first'
p667
aS'w-2=force'
p668
aS'w-2=get'
p669
aS'w-2=gleaming'
p670
aS'w-2=gut'
p671
aS'w-2=guy'
p672
aS'w-2=hall'
p673
aS'w-2=happy'
p674
aS'w-2=have'
p675
aS'w-2=he'
p676
aS'w-2=help'
p677
aS'w-2=high-powered'
p678
aS'w-2=hill'
p679
aS'w-2=how'
p680
aS'w-2=hut'
p681
aS'w-2=immigrant'
p682
aS'w-2=in'
p683
aS'w-2=indonesian'
p684
aS'w-2=ingot'
p685
aS'w-2=irish'
p686
aS'w-2=it'
p687
aS'w-2=lime'
p688
aS'w-2=look'
p689
aS'w-2=man-made'
p690
aS'w-2=may'
p691
aS'w-2=mine'
p692
aS'w-2=minister'
p693
aS'w-2=mosque'
p694
aS'w-2=move'
p695
aS'w-2=muscle'
p696
aS'w-2=music'
p697
aS'w-2=national'
p698
aS'w-2=need'
p699
aS'w-2=noisy'
p700
aS'w-2=north'
p701
aS'w-2=now'
p702
aS'w-2=of'
p703
aS'w-2=office'
p704
aS'w-2=online'
p705
aS'w-2=organization'
p706
aS'w-2=pick'
p707
aS'w-2=pond'
p708
aS'w-2=pop'
p709
aS'w-2=post'
p710
aS'w-2=practice'
p711
aS'w-2=prepare'
p712
aS'w-2=product'
p713
aS'w-2=program'
p714
aS'w-2=promise'
p715
aS'w-2=proposal'
p716
aS'w-2=quickly'
p717
aS'w-2=race'
p718
aS'w-2=reservoir'
p719
aS'w-2=road'
p720
aS'w-2=role'
p721
aS'w-2=room'
p722
aS'w-2=route'
p723
aS'w-2=rush'
p724
aS'w-2=season'
p725
aS'w-2=sell'
p726
aS'w-2=senior'
p727
aS'w-2=session'
p728
aS'w-2=set'
p729
aS'w-2=she'
p730
aS'w-2=shipmate'
p731
aS'w-2=skyscraper'
p732
aS'w-2=small'
p733
aS'w-2=someone'
p734
aS'w-2=sonic'
p735
aS'w-2=space'
p736
aS'w-2=strategy'
p737
aS'w-2=street'
p738
aS'w-2=struggle'
p739
aS'w-2=student'
p740
aS'w-2=summer'
p741
aS'w-2=tank'
p742
aS'w-2=tend'
p743
aS'w-2=tent'
p744
aS'w-2=that'
p745
aS'w-2=the'
p746
aS'w-2=they'
p747
aS'w-2=think'
p748
aS'w-2=time'
p749
aS'w-2=to'
p750
aS'w-2=today'
p751
aS'w-2=tradeshow'
p752
aS'w-2=troops'
p753
aS'w-2=try'
p754
aS'w-2=twin-outboard'
p755
aS'w-2=two'
p756
aS'w-2=until'
p757
aS'w-2=water'
p758
aS'w-2=way'
p759
aS'w-2=we'
p760
aS'w-2=which'
p761
aS'w-2=who'
p762
aS'w-2=whose'
p763
aS'w-2=will'
p764
aS'w-2=worry'
p765
aS'w-2=would'
p766
aS'w-2=write'
p767
aS'xcomp=allow'
p768
aS'xcomp=cabinet'
p769
aS'xcomp=car'
p770
aS'xcomp=increase'
p771
aS'xcomp=protest'
p772
aS'xcomp=return'
p773
aS'xcomp=take'
p774
asS'dtype'
p775
cnumpy
float64
p776
sS'vocabulary_'
p777
(dp778
g163
I154
sg506
I497
sg109
I100
sg645
I636
sg760
I751
sg220
I211
sg624
I615
sg541
I532
sg245
I236
sg173
I164
sg230
I221
sg434
I425
sg89
I80
sg741
I732
sg408
I399
sg615
I606
sg661
I652
sg507
I498
sg490
I481
sg199
I190
sg429
I420
sg542
I533
sg281
I272
sg184
I175
sg340
I331
sg674
I665
sg517
I508
sg160
I151
sg255
I246
sg699
I690
sg747
I738
sg273
I264
sg436
I427
sg218
I209
sg382
I373
sg331
I322
sg649
I640
sg78
I69
sg597
I588
sg387
I378
sg422
I413
sg574
I565
sg145
I136
sg626
I617
sg470
I461
sg549
I540
sg771
I762
sg338
I329
sg692
I683
sg546
I537
sg333
I324
sg47
I38
sg321
I312
sg457
I448
sg37
I28
sg650
I641
sg403
I394
sg10
I1
sg610
I601
sg700
I691
sg197
I188
sg355
I346
sg605
I596
sg67
I58
sg60
I51
sg181
I172
sg593
I584
sg534
I525
sg240
I231
sg544
I535
sg630
I621
sg263
I254
sg130
I121
sg411
I402
sg746
I737
sg454
I445
sg508
I499
sg326
I317
sg749
I740
sg13
I4
sg376
I367
sg604
I595
sg246
I237
sg719
I710
sg268
I259
sg493
I484
sg762
I753
sg751
I742
sg224
I215
sg596
I587
sg526
I517
sg15
I6
sg308
I299
sg320
I311
sg244
I235
sg502
I493
sg509
I500
sg720
I711
sg468
I459
sg107
I98
sg450
I441
sg561
I552
sg73
I64
sg266
I257
sg732
I723
sg68
I59
sg375
I366
sg427
I418
sg144
I135
sg662
I653
sg716
I707
sg168
I159
sg302
I293
sg767
I758
sg475
I466
sg222
I213
sg42
I33
sg342
I333
sg58
I49
sg75
I66
sg344
I335
sg407
I398
sg110
I101
sg737
I728
sg120
I111
sg456
I447
sg513
I504
sg558
I549
sg55
I46
sg651
I642
sg318
I309
sg499
I490
sg745
I736
sg332
I323
sg642
I633
sg208
I199
sg772
I763
sg112
I103
sg334
I325
sg330
I321
sg94
I85
sg684
I675
sg336
I327
sg45
I36
sg226
I217
sg277
I268
sg63
I54
sg306
I297
sg503
I494
sg525
I516
sg125
I116
sg412
I403
sg487
I478
sg104
I95
sg717
I708
sg254
I245
sg283
I274
sg462
I453
sg33
I24
sg26
I17
sg88
I79
sg595
I586
sg636
I627
sg300
I291
sg584
I575
sg143
I134
sg71
I62
sg742
I733
sg101
I92
sg182
I173
sg210
I201
sg409
I400
sg322
I313
sg573
I564
sg140
I131
sg219
I210
sg566
I557
sg174
I165
sg701
I692
sg113
I104
sg289
I280
sg217
I208
sg179
I170
sg51
I42
sg556
I547
sg77
I68
sg16
I7
sg134
I125
sg159
I150
sg426
I417
sg599
I590
sg583
I574
sg643
I634
sg402
I393
sg149
I140
sg139
I130
sg711
I702
sg453
I444
sg672
I663
sg467
I458
sg656
I647
sg23
I14
sg397
I388
sg485
I476
sg187
I178
sg157
I148
sg614
I605
sg305
I296
sg770
I761
sg158
I149
sg497
I488
sg221
I212
sg359
I350
sg432
I423
sg617
I608
sg768
I759
sg223
I214
sg755
I746
sg703
I694
sg373
I364
sg319
I310
sg602
I593
sg598
I589
sg446
I437
sg189
I180
sg439
I430
sg483
I474
sg102
I93
sg249
I240
sg161
I152
sg97
I88
sg377
I368
sg80
I71
sg297
I288
sg90
I81
sg385
I376
sg48
I39
sg545
I536
sg488
I479
sg424
I415
sg265
I256
sg307
I298
sg129
I120
sg165
I156
sg72
I63
sg474
I465
sg540
I531
sg309
I300
sg756
I747
sg360
I351
sg150
I141
sg288
I279
sg592
I583
sg259
I250
sg406
I397
sg539
I530
sg607
I598
sg183
I174
sg292
I283
sg136
I127
sg118
I109
sg713
I704
sg653
I644
sg121
I112
sg213
I204
sg733
I724
sg339
I330
sg585
I576
sg56
I47
sg685
I676
sg123
I114
sg296
I287
sg730
I721
sg275
I266
sg425
I416
sg654
I645
sg563
I554
sg39
I30
sg725
I716
sg378
I369
sg660
I651
sg505
I496
sg366
I357
sg580
I571
sg641
I632
sg349
I340
sg438
I429
sg64
I55
sg581
I572
sg314
I305
sg81
I72
sg29
I20
sg478
I469
sg365
I356
sg17
I8
sg50
I41
sg582
I573
sg211
I202
sg773
I764
sg688
I679
sg440
I431
sg471
I462
sg70
I61
sg177
I168
sg212
I203
sg459
I450
sg18
I9
sg486
I477
sg49
I40
sg646
I637
sg229
I220
sg313
I304
sg435
I426
sg390
I381
sg511
I502
sg93
I84
sg557
I548
sg514
I505
sg186
I177
sg619
I610
sg659
I650
sg225
I216
sg358
I349
sg200
I191
sg14
I5
sg473
I464
sg261
I252
sg21
I12
sg629
I620
sg119
I110
sg74
I65
sg484
I475
sg209
I200
sg616
I607
sg295
I286
sg611
I602
sg455
I446
sg752
I743
sg443
I434
sg381
I372
sg201
I192
sg337
I328
sg329
I320
sg236
I227
sg500
I491
sg554
I545
sg420
I411
sg723
I714
sg327
I318
sg278
I269
sg739
I730
sg84
I75
sg433
I424
sg419
I410
sg325
I316
sg657
I648
sg543
I534
sg106
I97
sg395
I386
sg362
I353
sg633
I624
sg722
I713
sg530
I521
sg371
I362
sg667
I658
sg559
I550
sg53
I44
sg413
I404
sg260
I251
sg141
I132
sg590
I581
sg678
I669
sg232
I223
sg41
I32
sg11
I2
sg392
I383
sg146
I137
sg185
I176
sg154
I145
sg353
I344
sg519
I510
sg766
I757
sg639
I630
sg572
I563
sg498
I489
sg166
I157
sg316
I307
sg291
I282
sg235
I226
sg227
I218
sg203
I194
sg671
I662
sg501
I492
sg736
I727
sg761
I752
sg44
I35
sg214
I205
sg709
I700
sg284
I275
sg31
I22
sg697
I688
sg568
I559
sg528
I519
sg82
I73
sg122
I113
sg137
I128
sg32
I23
sg601
I592
sg99
I90
sg492
I483
sg167
I158
sg491
I482
sg635
I626
sg398
I389
sg62
I53
sg237
I228
sg442
I433
sg727
I718
sg452
I443
sg441
I432
sg670
I661
sg380
I371
sg285
I276
sg188
I179
sg399
I390
sg142
I133
sg705
I696
sg533
I524
sg343
I334
sg753
I744
sg414
I405
sg253
I244
sg728
I719
sg96
I87
sg431
I422
sg131
I122
sg724
I715
sg618
I609
sg393
I384
sg20
I11
sg683
I674
sg243
I234
sg687
I678
sg12
I3
sg694
I685
sg577
I568
sg631
I622
sg481
I472
sg191
I182
sg666
I657
sg421
I412
sg510
I501
sg521
I512
sg262
I253
sg247
I238
sg95
I86
sg370
I361
sg152
I143
sg22
I13
sg147
I138
sg346
I337
sg706
I697
sg252
I243
sg538
I529
sg765
I756
sg79
I70
sg111
I102
sg410
I401
sg304
I295
sg740
I731
sg589
I580
sg258
I249
sg172
I163
sg686
I677
sg714
I705
sg681
I672
sg464
I455
sg734
I725
sg451
I442
sg675
I666
sg774
I765
sg65
I56
sg216
I207
sg30
I21
sg248
I239
sg634
I625
sg476
I467
sg569
I560
sg350
I341
sg480
I471
sg379
I370
sg565
I556
sg257
I248
sg347
I338
sg520
I511
sg116
I107
sg202
I193
sg155
I146
sg620
I611
sg311
I302
sg682
I673
sg312
I303
sg591
I582
sg180
I171
sg178
I169
sg198
I189
sg726
I717
sg405
I396
sg715
I706
sg86
I77
sg66
I57
sg721
I712
sg34
I25
sg664
I655
sg729
I720
sg391
I382
sg718
I709
sg27
I18
sg396
I387
sg190
I181
sg269
I260
sg169
I160
sg663
I654
sg564
I555
sg560
I551
sg536
I527
sg504
I495
sg625
I616
sg731
I722
sg477
I468
sg638
I629
sg735
I726
sg696
I687
sg204
I195
sg36
I27
sg238
I229
sg586
I577
sg769
I760
sg637
I628
sg215
I206
sg364
I355
sg250
I241
sg153
I144
sg368
I359
sg279
I270
sg170
I161
sg324
I315
sg369
I360
sg206
I197
sg448
I439
sg738
I729
sg518
I509
sg466
I457
sg192
I183
sg423
I414
sg522
I513
sg708
I699
sg92
I83
sg416
I407
sg98
I89
sg128
I119
sg69
I60
sg323
I314
sg417
I408
sg239
I230
sg555
I546
sg103
I94
sg148
I139
sg494
I485
sg658
I649
sg234
I225
sg24
I15
sg447
I438
sg363
I354
sg609
I600
sg669
I660
sg463
I454
sg763
I754
sg647
I638
sg315
I306
sg445
I436
sg164
I155
sg231
I222
sg132
I123
sg400
I391
sg621
I612
sg175
I166
sg750
I741
sg579
I570
sg290
I281
sg632
I623
sg341
I332
sg594
I585
sg195
I186
sg551
I542
sg698
I689
sg270
I261
sg754
I745
sg114
I105
sg335
I326
sg28
I19
sg251
I242
sg115
I106
sg383
I374
sg524
I515
sg367
I358
sg361
I352
sg693
I684
sg345
I336
sg228
I219
sg40
I31
sg603
I594
sg156
I147
sg550
I541
sg655
I646
sg495
I486
sg272
I263
sg764
I755
sg271
I262
sg328
I319
sg151
I142
sg612
I603
sg613
I604
sg205
I196
sg529
I520
sg644
I635
sg242
I233
sg59
I50
sg127
I118
sg356
I347
sg117
I108
sg712
I703
sg748
I739
sg465
I456
sg351
I342
sg516
I507
sg196
I187
sg515
I506
sg702
I693
sg241
I232
sg46
I37
sg401
I392
sg640
I631
sg460
I451
sg527
I518
sg680
I671
sg282
I273
sg437
I428
sg691
I682
sg394
I385
sg301
I292
sg458
I449
sg19
I10
sg415
I406
sg233
I224
sg627
I618
sg689
I680
sg757
I748
sg194
I185
sg384
I375
sg108
I99
sg105
I96
sg461
I452
sg264
I255
sg676
I667
sg428
I419
sg91
I82
sg171
I162
sg570
I561
sg562
I553
sg479
I470
sg523
I514
sg298
I289
sg287
I278
sg274
I265
sg256
I247
sg588
I579
sg743
I734
sg52
I43
sg472
I463
sg310
I301
sg496
I487
sg389
I380
sg267
I258
sg430
I421
sg567
I558
sg606
I597
sg372
I363
sg744
I735
sg76
I67
sg404
I395
sg299
I290
sg193
I184
sg622
I613
sg138
I129
sg449
I440
sg695
I686
sg537
I528
sg162
I153
sg535
I526
sg126
I117
sg25
I16
sg35
I26
sg388
I379
sg553
I544
sg552
I543
sg83
I74
sg482
I473
sg276
I267
sg286
I277
sg710
I701
sg677
I668
sg628
I619
sg532
I523
sg608
I599
sg531
I522
sg61
I52
sg280
I271
sg85
I76
sg418
I409
sg317
I308
sg469
I460
sg352
I343
sg386
I377
sg600
I591
sg38
I29
sg293
I284
sg294
I285
sg679
I670
sg759
I750
sg648
I639
sg348
I339
sg578
I569
sg176
I167
sg665
I656
sg207
I198
sg587
I578
sg87
I78
sg707
I698
sg303
I294
sg489
I480
sg444
I435
sg9
I0
sg54
I45
sg673
I664
sg652
I643
sg548
I539
sg576
I567
sg575
I566
sg758
I749
sg690
I681
sg512
I503
sg704
I695
sg623
I614
sg354
I345
sg133
I124
sg668
I659
sg57
I48
sg43
I34
sg124
I115
sg547
I538
sg100
I91
sg374
I365
sg357
I348
sg135
I126
sg571
I562
ssS'separator'
p779
S'='
sS'sparse'
p780
I01
sb.