ccopy_reg
_reconstructor
p1
(csklearn.feature_extraction.dict_vectorizer
DictVectorizer
p2
c__builtin__
object
p3
NtRp4
(dp5
S'sort'
p6
I01
sS'feature_names_'
p7
(lp8
S'acomp=hot'
p9
aS'advcl=celebrate'
p10
aS'advcl=from'
p11
aS'advcl=have'
p12
aS'advcl=resilient'
p13
aS'advcl=stop'
p14
aS'advcl=use'
p15
aS'advmod=actually'
p16
aS'advmod=again'
p17
aS'advmod=ago'
p18
aS'advmod=also'
p19
aS'advmod=apart'
p20
aS'advmod=away'
p21
aS'advmod=closer'
p22
aS'advmod=completely'
p23
aS'advmod=first'
p24
aS'advmod=instead'
p25
aS'advmod=kind'
p26
aS'advmod=last'
p27
aS'advmod=literally'
p28
aS'advmod=most'
p29
aS'advmod=necessarily'
p30
aS'advmod=particularly'
p31
aS'advmod=really'
p32
aS'advmod=somehow'
p33
aS'advmod=sometimes'
p34
aS'advmod=then'
p35
aS'advmod=there'
p36
aS'advmod=twice'
p37
aS'advmod=up'
p38
aS'advmod=when'
p39
aS'advmod=where'
p40
aS'advmod=worldwide'
p41
aS'advmod=yet'
p42
aS'amod=american'
p43
aS'amod=big'
p44
aS'amod=bitter'
p45
aS'amod=crippling'
p46
aS'amod=crush'
p47
aS'amod=deadly'
p48
aS'amod=deliberate'
p49
aS'amod=devastate'
p50
aS'amod=devastating'
p51
aS'amod=double'
p52
aS'amod=economic'
p53
aS'amod=fatal'
p54
aS'amod=fierce'
p55
aS'amod=financial'
p56
aS'amod=further'
p57
aS'amod=hard'
p58
aS'amod=harsh'
p59
aS'amod=heavy'
p60
aS'amod=huge'
p61
aS'amod=important'
p62
aS'amod=knock-out'
p63
aS'amod=major'
p64
aS'amod=massive'
p65
aS'amod=powerful'
p66
aS'amod=second'
p67
aS'amod=serious'
p68
aS'amod=severe'
p69
aS'amod=sharp'
p70
aS'amod=significant'
p71
aS'amod=strong'
p72
aS'amod=sweeping'
p73
aS'amod=tell'
p74
aS'amod=terrible'
p75
aS'amod=uncollected'
p76
aS"aux='ll"
p77
aS'aux=be'
p78
aS'aux=could'
p79
aS'aux=have'
p80
aS'aux=may'
p81
aS'aux=must'
p82
aS'aux=to'
p83
aS'aux=will'
p84
aS'aux=would'
p85
aS'auxpass=be'
p86
aS'auxpass=get'
p87
aS'cc=and'
p88
aS'cc=but'
p89
aS'ccomp=condemn'
p90
aS'ccomp=say'
p91
aS'ccomp=whistle'
p92
aS'complm=that'
p93
aS'conj=#PRP#'
p94
aS'conj=activity'
p95
aS'conj=cover'
p96
aS'conj=cross'
p97
aS'conj=disperse'
p98
aS'conj=do'
p99
aS'conj=document'
p100
aS'conj=flood'
p101
aS'conj=follow'
p102
aS'conj=go'
p103
aS'conj=keep'
p104
aS'conj=leave'
p105
aS'conj=litter'
p106
aS'conj=make'
p107
aS'conj=mis-predict'
p108
aS'conj=seize'
p109
aS'conj=shatter'
p110
aS'conj=shoot'
p111
aS'conj=show'
p112
aS'conj=sing'
p113
aS'conj=tent'
p114
aS'conj=think'
p115
aS'conj=topple'
p116
aS'conj=use'
p117
aS'cop=be'
p118
aS'csubj=open'
p119
aS'dep=#PRP#'
p120
aS'dep=Suspect'
p121
aS'dep=come'
p122
aS'dep=disguise'
p123
aS'dep=finish'
p124
aS'dep=in'
p125
aS'dep=install'
p126
aS'dep=kill'
p127
aS'dep=no'
p128
aS'dep=so'
p129
aS'dep=that'
p130
aS'det=a'
p131
aS'det=another'
p132
aS'det=the'
p133
aS'det=this'
p134
aS'dobj=#NUMBER#'
p135
aS'dobj=#PRP#'
p136
aS'dobj=Seder'
p137
aS'dobj=airline'
p138
aS'dobj=airliner'
p139
aS'dobj=airplane'
p140
aS'dobj=backwall'
p141
aS'dobj=budget'
p142
aS'dobj=building'
p143
aS'dobj=bus'
p144
aS'dobj=cover'
p145
aS'dobj=dome'
p146
aS'dobj=facility'
p147
aS'dobj=flight'
p148
aS'dobj=headquarters'
p149
aS'dobj=hole'
p150
aS'dobj=horn'
p151
aS'dobj=installation'
p152
aS'dobj=lead'
p153
aS'dobj=office'
p154
aS'dobj=parade'
p155
aS'dobj=part'
p156
aS'dobj=people'
p157
aS'dobj=piece'
p158
aS'dobj=pipeline'
p159
aS'dobj=plane'
p160
aS'dobj=roof'
p161
aS'dobj=school'
p162
aS'dobj=section'
p163
aS'dobj=something'
p164
aS'dobj=tension'
p165
aS'dobj=the'
p166
aS'dobj=top'
p167
aS'dobj=track'
p168
aS'dobj=wall'
p169
aS'dobj=window'
p170
aS'infmod=aid'
p171
aS'infmod=besiege'
p172
aS'infmod=iraqi'
p173
aS'mark=after'
p174
aS'mark=although'
p175
aS'mark=as'
p176
aS'mark=because'
p177
aS'mark=since'
p178
aS'mark=so'
p179
aS'mark=until'
p180
aS'mark=while'
p181
aS'mark=with'
p182
aS'neg=not'
p183
aS'nn=blow'
p184
aS'nn=body'
p185
aS'nn=government'
p186
aS'nn=knockout'
p187
aS'nn=trash'
p188
aS'nn=wind'
p189
aS'nsubj=#NUMBER#'
p190
aS'nsubj=#PRP#'
p191
aS'nsubj=Dujana'
p192
aS'nsubj=Ireland'
p193
aS'nsubj=Militants'
p194
aS'nsubj=Muslims'
p195
aS'nsubj=Netanyahu'
p196
aS'nsubj=Qaeda'
p197
aS'nsubj=Taliban'
p198
aS'nsubj=al-qaida'
p199
aS'nsubj=arrest'
p200
aS'nsubj=attack'
p201
aS'nsubj=attacker'
p202
aS'nsubj=attempt'
p203
aS'nsubj=bailout'
p204
aS'nsubj=blast'
p205
aS'nsubj=bomber'
p206
aS'nsubj=but'
p207
aS'nsubj=closure'
p208
aS'nsubj=cooperation'
p209
aS'nsubj=crunch'
p210
aS'nsubj=deal'
p211
aS'nsubj=decision'
p212
aS'nsubj=dram'
p213
aS'nsubj=driver'
p214
aS'nsubj=explosion'
p215
aS'nsubj=explosive'
p216
aS'nsubj=guy'
p217
aS'nsubj=judgment'
p218
aS'nsubj=loss'
p219
aS'nsubj=man'
p220
aS'nsubj=media'
p221
aS'nsubj=militant'
p222
aS'nsubj=operation'
p223
aS'nsubj=people'
p224
aS'nsubj=rebel'
p225
aS'nsubj=relationship'
p226
aS'nsubj=research'
p227
aS'nsubj=resumption'
p228
aS'nsubj=ruling'
p229
aS'nsubj=scandal'
p230
aS'nsubj=shuttle'
p231
aS'nsubj=storm'
p232
aS'nsubj=success'
p233
aS'nsubj=terrorist'
p234
aS'nsubj=that'
p235
aS'nsubj=the'
p236
aS'nsubj=this'
p237
aS'nsubj=week'
p238
aS'nsubj=which'
p239
aS'nsubj=who'
p240
aS'nsubj=wind'
p241
aS'nsubj=woman'
p242
aS'nsubjpass=#PRP#'
p243
aS'nsubjpass=Windows'
p244
aS'nsubjpass=aspect'
p245
aS'nsubjpass=bridge'
p246
aS'nsubjpass=cover'
p247
aS'nsubjpass=crossing'
p248
aS'nsubjpass=front'
p249
aS'nsubjpass=leg'
p250
aS'nsubjpass=pipeline'
p251
aS'nsubjpass=road'
p252
aS'num=#NUMBER#'
p253
aS'parataxis=blow'
p254
aS'partmod=kill'
p255
aS'prep=accord'
p256
aS'prep=against'
p257
aS'prep=at'
p258
aS'prep=below'
p259
aS'prep=by'
p260
aS'prep=during'
p261
aS'prep=for'
p262
aS'prep=from'
p263
aS'prep=in'
p264
aS'prep=into'
p265
aS'prep=like'
p266
aS'prep=of'
p267
aS'prep=on'
p268
aS'prep=out'
p269
aS'prep=over'
p270
aS'prep=to'
p271
aS'prep=up'
p272
aS'prep=with'
p273
aS'prt=apart'
p274
aS'prt=away'
p275
aS'prt=off'
p276
aS'prt=out'
p277
aS'prt=over'
p278
aS'prt=up'
p279
aS'rcmod=claim'
p280
aS'rcmod=last'
p281
aS'tmod=minute'
p282
aS'tmod=morning'
p283
aS'tmod=week'
p284
aS'tmod=year'
p285
aS"w+1='"
p286
aS"w+1=''"
p287
aS'w+1=,'
p288
aS'w+1=.'
p289
aS'w+1=2006'
p290
aS'w+1=Harry'
p291
aS'w+1=I'
p292
aS'w+1=a'
p293
aS'w+1=add'
p294
aS'w+1=against'
p295
aS'w+1=apart'
p296
aS'w+1=away'
p297
aS'w+1=be'
p298
aS'w+1=because'
p299
aS'w+1=but'
p300
aS'w+1=by'
p301
aS'w+1=dust'
p302
aS'w+1=for'
p303
aS'w+1=freely'
p304
aS'w+1=hard'
p305
aS'w+1=herself'
p306
aS'w+1=himself'
p307
aS'w+1=horn'
p308
aS'w+1=hot'
p309
aS'w+1=if'
p310
aS'w+1=in'
p311
aS'w+1=into'
p312
aS'w+1=it'
p313
aS'w+1=its'
p314
aS'w+1=knock'
p315
aS'w+1=last'
p316
aS'w+1=of'
p317
aS'w+1=off'
p318
aS'w+1=on'
p319
aS'w+1=onto'
p320
aS'w+1=open'
p321
aS'w+1=ourselves'
p322
aS'w+1=out'
p323
aS'w+1=over'
p324
aS'w+1=plane'
p325
aS'w+1=something'
p326
aS'w+1=that'
p327
aS'w+1=the'
p328
aS'w+1=themselves'
p329
aS'w+1=this'
p330
aS'w+1=to'
p331
aS'w+1=up'
p332
aS'w+1=we'
p333
aS'w+1=when'
p334
aS'w+1=with'
p335
aS'w+1=you'
p336
aS"w+2=''"
p337
aS"w+2='s"
p338
aS'w+2=,'
p339
aS'w+2=-'
p340
aS'w+2=-lrb-'
p341
aS'w+2=.'
p342
aS'w+2=Belarus'
p343
aS'w+2=Cabinet'
p344
aS'w+2=East'
p345
aS'w+2=France'
p346
aS'w+2=Israel'
p347
aS'w+2=Mr.'
p348
aS'w+2=Pakistan'
p349
aS'w+2=President'
p350
aS'w+2=Romney'
p351
aS'w+2=South'
p352
aS'w+2=Uganda'
p353
aS'w+2=Ukraine'
p354
aS'w+2=Zuma'
p355
aS'w+2=a'
p356
aS'w+2=again'
p357
aS'w+2=against'
p358
aS'w+2=aid'
p359
aS'w+2=airline'
p360
aS'w+2=airliner'
p361
aS'w+2=al-Qaida'
p362
aS'w+2=and'
p363
aS'w+2=art'
p364
aS'w+2=as'
p365
aS'w+2=away'
p366
aS'w+2=below'
p367
aS'w+2=besiege'
p368
aS'w+2=big'
p369
aS'w+2=blow'
p370
aS'w+2=budget'
p371
aS'w+2=bus'
p372
aS'w+2=by'
p373
aS'w+2=defend'
p374
aS'w+2=democracy'
p375
aS'w+2=drug'
p376
aS'w+2=effort'
p377
aS'w+2=extremist'
p378
aS'w+2=flight'
p379
aS'w+2=global'
p380
aS'w+2=government'
p381
aS'w+2=he'
p382
aS'w+2=himself'
p383
aS'w+2=hole'
p384
aS'w+2=however'
p385
aS'w+2=in'
p386
aS'w+2=innocent'
p387
aS'w+2=it'
p388
aS'w+2=large'
p389
aS'w+2=like'
p390
aS'w+2=looter'
p391
aS'w+2=mind'
p392
aS'w+2=modern'
p393
aS'w+2=national'
p394
aS'w+2=of'
p395
aS'w+2=off'
p396
aS'w+2=oil'
p397
aS'w+2=one'
p398
aS'w+2=over'
p399
aS'w+2=palestinian'
p400
aS'w+2=part'
p401
aS'w+2=passenger'
p402
aS'w+2=people'
p403
aS'w+2=pipeline'
p404
aS'w+2=rail'
p405
aS'w+2=recent'
p406
aS'w+2=roof'
p407
aS'w+2=school'
p408
aS'w+2=section'
p409
aS'w+2=several'
p410
aS'w+2=small'
p411
aS'w+2=some'
p412
aS'w+2=somehow'
p413
aS'w+2=that'
p414
aS'w+2=the'
p415
aS'w+2=they'
p416
aS'w+2=thing'
p417
aS'w+2=this'
p418
aS'w+2=those'
p419
aS'w+2=to'
p420
aS'w+2=top'
p421
aS'w+2=twice'
p422
aS'w+2=two'
p423
aS'w+2=up'
p424
aS'w+2=week'
p425
aS'w+2=what'
p426
aS'w+2=whistle'
p427
aS'w+2=will'
p428
aS'w+2=win'
p429
aS'w+2=window'
p430
aS'w+2=with'
p431
aS"w-1=''"
p432
aS"w-1='ll"
p433
aS'w-1=,'
p434
aS'w-1=;'
p435
aS'w-1=Militants'
p436
aS'w-1=Morocco'
p437
aS'w-1=Muslims'
p438
aS'w-1=``'
p439
aS'w-1=a'
p440
aS'w-1=actually'
p441
aS'w-1=al-qaida'
p442
aS'w-1=also'
p443
aS'w-1=and'
p444
aS'w-1=another'
p445
aS'w-1=attacker'
p446
aS'w-1=be'
p447
aS'w-1=before'
p448
aS'w-1=big'
p449
aS'w-1=bitter'
p450
aS'w-1=blast'
p451
aS'w-1=body'
p452
aS'w-1=bomber'
p453
aS'w-1=by'
p454
aS'w-1=completely'
p455
aS'w-1=could'
p456
aS'w-1=crippling'
p457
aS'w-1=crush'
p458
aS'w-1=deadly'
p459
aS'w-1=deliberate'
p460
aS'w-1=deliver'
p461
aS'w-1=devastating'
p462
aS'w-1=devil'
p463
aS'w-1=double'
p464
aS'w-1=economic'
p465
aS'w-1=explosion'
p466
aS'w-1=explosive'
p467
aS'w-1=extremist'
p468
aS'w-1=fatal'
p469
aS'w-1=fierce'
p470
aS'w-1=financial'
p471
aS'w-1=first'
p472
aS'w-1=further'
p473
aS'w-1=get'
p474
aS'w-1=government'
p475
aS'w-1=guy'
p476
aS'w-1=hard'
p477
aS'w-1=harsh'
p478
aS'w-1=have'
p479
aS'w-1=he'
p480
aS'w-1=heavy'
p481
aS'w-1=huge'
p482
aS'w-1=important'
p483
aS'w-1=include'
p484
aS'w-1=irreversible'
p485
aS'w-1=it'
p486
aS'w-1=just'
p487
aS'w-1=knock-out'
p488
aS'w-1=knockout'
p489
aS'w-1=leg'
p490
aS'w-1=literally'
p491
aS'w-1=major'
p492
aS'w-1=massive'
p493
aS'w-1=media'
p494
aS'w-1=militant'
p495
aS'w-1=mind'
p496
aS'w-1=not'
p497
aS'w-1=of'
p498
aS'w-1=one'
p499
aS'w-1=or'
p500
aS'w-1=people'
p501
aS'w-1=powerful'
p502
aS'w-1=rebel'
p503
aS'w-1=second'
p504
aS'w-1=serious'
p505
aS'w-1=severe'
p506
aS'w-1=sharp'
p507
aS'w-1=show'
p508
aS'w-1=shuttle'
p509
aS'w-1=significant'
p510
aS'w-1=sometimes'
p511
aS'w-1=start'
p512
aS'w-1=still'
p513
aS'w-1=storm'
p514
aS'w-1=strike'
p515
aS'w-1=strong'
p516
aS'w-1=sweeping'
p517
aS'w-1=tell'
p518
aS'w-1=terrible'
p519
aS'w-1=terrorist'
p520
aS'w-1=that'
p521
aS'w-1=the'
p522
aS'w-1=then'
p523
aS'w-1=to'
p524
aS'w-1=trash'
p525
aS'w-1=vehicle'
p526
aS'w-1=vest'
p527
aS'w-1=we'
p528
aS'w-1=who'
p529
aS'w-1=will'
p530
aS'w-1=wind'
p531
aS'w-1=window'
p532
aS'w-1=woman'
p533
aS"w-2=''"
p534
aS'w-2=,'
p535
aS'w-2=-'
p536
aS'w-2=.'
p537
aS'w-2=Belarus'
p538
aS'w-2=Bhutto'
p539
aS'w-2=Hamas'
p540
aS'w-2=I'
p541
aS'w-2=Netanyahu'
p542
aS'w-2=Peshawar'
p543
aS'w-2=Serbia'
p544
aS'w-2=Shell'
p545
aS'w-2=Sunni'
p546
aS'w-2=Taliban'
p547
aS'w-2=Zone'
p548
aS'w-2=`'
p549
aS'w-2=a'
p550
aS'w-2=able'
p551
aS'w-2=absolutely'
p552
aS'w-2=after'
p553
aS'w-2=again'
p554
aS'w-2=al-Islam'
p555
aS'w-2=american'
p556
aS'w-2=and'
p557
aS'w-2=attack'
p558
aS'w-2=attempt'
p559
aS'w-2=be'
p560
aS'w-2=blow'
p561
aS'w-2=building'
p562
aS'w-2=but'
p563
aS'w-2=call'
p564
aS'w-2=canal'
p565
aS'w-2=come'
p566
aS'w-2=deal'
p567
aS'w-2=despite'
p568
aS'w-2=dust'
p569
aS'w-2=erode'
p570
aS'w-2=especially'
p571
aS'w-2=explosives-filled'
p572
aS'w-2=flurry'
p573
aS'w-2=foreign'
p574
aS'w-2=gaza-based'
p575
aS'w-2=go'
p576
aS'w-2=group'
p577
aS'w-2=handicapped'
p578
aS'w-2=have'
p579
aS'w-2=he'
p580
aS'w-2=himself'
p581
aS'w-2=in'
p582
aS'w-2=it'
p583
aS'w-2=literally'
p584
aS'w-2=local'
p585
aS'w-2=major'
p586
aS'w-2=man'
p587
aS'w-2=maoist'
p588
aS'w-2=might'
p589
aS'w-2=militant'
p590
aS'w-2=moment'
p591
aS'w-2=most'
p592
aS'w-2=must'
p593
aS'w-2=my'
p594
aS'w-2=neighbor'
p595
aS'w-2=new'
p596
aS'w-2=of'
p597
aS'w-2=off'
p598
aS'w-2=pan'
p599
aS'w-2=particularly'
p600
aS'w-2=picture'
p601
aS'w-2=plan'
p602
aS'w-2=plot'
p603
aS'w-2=possibly'
p604
aS'w-2=really'
p605
aS'w-2=receive'
p606
aS'w-2=region'
p607
aS'w-2=road'
p608
aS'w-2=site'
p609
aS'w-2=so'
p610
aS'w-2=strike'
p611
aS'w-2=suffer'
p612
aS'w-2=suicide'
p613
aS'w-2=sulawesus'
p614
aS'w-2=the'
p615
aS'w-2=these'
p616
aS'w-2=they'
p617
aS'w-2=this'
p618
aS'w-2=threaten'
p619
aS'w-2=to'
p620
aS'w-2=tribe'
p621
aS'w-2=try'
p622
aS'w-2=uncollected'
p623
aS'w-2=up'
p624
aS'w-2=very'
p625
aS'w-2=which'
p626
aS'w-2=will'
p627
aS'w-2=willing'
p628
aS'w-2=wind'
p629
aS'w-2=with'
p630
aS'w-2=would'
p631
aS'xcomp=keep'
p632
aS'xcomp=kill'
p633
aS'xcomp=protest'
p634
aS'xcomp=start'
p635
asS'dtype'
p636
cnumpy
float64
p637
sS'vocabulary_'
p638
(dp639
g35
I26
sg294
I285
sg492
I483
sg547
I538
sg304
I295
sg10
I1
sg121
I112
sg464
I455
sg105
I96
sg200
I191
sg372
I363
sg199
I190
sg491
I482
sg596
I587
sg561
I552
sg368
I359
sg609
I600
sg201
I192
sg465
I456
sg573
I564
sg617
I608
sg26
I17
sg466
I457
sg260
I251
sg40
I31
sg225
I216
sg184
I175
sg327
I318
sg259
I250
sg197
I188
sg590
I581
sg459
I450
sg140
I131
sg406
I397
sg482
I473
sg106
I97
sg100
I91
sg32
I23
sg44
I35
sg410
I401
sg311
I302
sg530
I521
sg361
I352
sg210
I201
sg568
I559
sg510
I501
sg81
I72
sg185
I176
sg454
I445
sg606
I597
sg309
I300
sg447
I438
sg9
I0
sg193
I184
sg187
I178
sg291
I282
sg124
I115
sg393
I384
sg177
I168
sg61
I52
sg14
I5
sg283
I274
sg420
I411
sg319
I310
sg516
I507
sg408
I399
sg479
I470
sg70
I61
sg341
I332
sg386
I377
sg426
I417
sg388
I379
sg506
I497
sg208
I199
sg456
I447
sg55
I46
sg443
I434
sg633
I624
sg93
I84
sg104
I95
sg437
I428
sg428
I419
sg215
I206
sg475
I466
sg350
I341
sg427
I418
sg373
I364
sg328
I319
sg188
I179
sg351
I342
sg634
I625
sg141
I132
sg577
I568
sg608
I599
sg33
I24
sg238
I229
sg53
I44
sg243
I234
sg381
I372
sg264
I255
sg85
I76
sg303
I294
sg493
I484
sg326
I317
sg42
I33
sg138
I129
sg171
I162
sg76
I67
sg271
I262
sg349
I340
sg166
I157
sg236
I227
sg613
I604
sg18
I9
sg107
I98
sg513
I504
sg588
I579
sg632
I623
sg75
I66
sg391
I382
sg152
I143
sg101
I92
sg248
I239
sg167
I158
sg346
I337
sg546
I537
sg146
I137
sg59
I50
sg235
I226
sg486
I477
sg196
I187
sg192
I183
sg209
I200
sg279
I270
sg168
I159
sg87
I78
sg134
I125
sg217
I208
sg116
I107
sg545
I536
sg591
I582
sg142
I133
sg322
I313
sg255
I246
sg20
I11
sg572
I563
sg522
I513
sg438
I429
sg477
I468
sg562
I553
sg73
I64
sg173
I164
sg449
I440
sg603
I594
sg43
I34
sg318
I309
sg467
I458
sg95
I86
sg245
I236
sg600
I591
sg219
I210
sg252
I243
sg394
I385
sg133
I124
sg203
I194
sg157
I148
sg421
I412
sg72
I63
sg240
I231
sg229
I220
sg379
I370
sg597
I588
sg569
I560
sg385
I376
sg524
I515
sg126
I117
sg472
I463
sg25
I16
sg544
I535
sg619
I610
sg387
I378
sg136
I127
sg119
I110
sg48
I39
sg65
I56
sg23
I14
sg17
I8
sg353
I344
sg111
I102
sg147
I138
sg556
I547
sg558
I549
sg97
I88
sg344
I335
sg578
I569
sg123
I114
sg455
I446
sg377
I368
sg543
I534
sg390
I381
sg441
I432
sg358
I349
sg161
I152
sg548
I539
sg329
I320
sg407
I398
sg232
I223
sg277
I268
sg66
I57
sg54
I45
sg234
I225
sg226
I217
sg601
I592
sg135
I126
sg202
I193
sg471
I462
sg551
I542
sg145
I136
sg115
I106
sg29
I20
sg144
I135
sg39
I30
sg120
I111
sg262
I253
sg130
I121
sg333
I324
sg399
I390
sg249
I240
sg397
I388
sg90
I81
sg163
I154
sg221
I212
sg365
I356
sg108
I99
sg207
I198
sg246
I237
sg231
I222
sg86
I77
sg463
I454
sg114
I105
sg405
I396
sg305
I296
sg457
I448
sg460
I451
sg15
I6
sg565
I556
sg250
I241
sg593
I584
sg413
I404
sg614
I605
sg223
I214
sg325
I316
sg190
I181
sg153
I144
sg195
I186
sg267
I258
sg417
I408
sg159
I150
sg314
I305
sg164
I155
sg50
I41
sg567
I558
sg378
I369
sg431
I422
sg585
I576
sg432
I423
sg280
I271
sg624
I615
sg143
I134
sg538
I529
sg51
I42
sg27
I18
sg347
I338
sg501
I492
sg592
I583
sg60
I51
sg359
I350
sg99
I90
sg598
I589
sg488
I479
sg534
I525
sg290
I281
sg237
I228
sg395
I386
sg113
I104
sg34
I25
sg553
I544
sg331
I322
sg343
I334
sg64
I55
sg527
I518
sg382
I373
sg254
I245
sg265
I256
sg436
I427
sg374
I365
sg508
I499
sg227
I218
sg429
I420
sg611
I602
sg401
I392
sg430
I421
sg24
I15
sg629
I620
sg559
I550
sg151
I142
sg453
I444
sg12
I3
sg38
I29
sg423
I414
sg371
I362
sg481
I472
sg22
I13
sg531
I522
sg169
I160
sg46
I37
sg576
I567
sg194
I185
sg132
I123
sg299
I290
sg494
I485
sg433
I424
sg109
I100
sg41
I32
sg352
I343
sg324
I315
sg631
I622
sg419
I410
sg411
I402
sg402
I393
sg52
I43
sg71
I62
sg470
I461
sg418
I409
sg272
I263
sg354
I345
sg139
I130
sg495
I486
sg98
I89
sg96
I87
sg626
I617
sg31
I22
sg518
I509
sg128
I119
sg36
I27
sg315
I306
sg155
I146
sg181
I172
sg615
I606
sg129
I120
sg362
I353
sg364
I355
sg630
I621
sg84
I75
sg539
I530
sg555
I546
sg392
I383
sg158
I149
sg451
I442
sg212
I203
sg233
I224
sg224
I215
sg273
I264
sg154
I145
sg214
I205
sg485
I476
sg403
I394
sg635
I626
sg602
I593
sg308
I299
sg396
I387
sg520
I511
sg582
I573
sg69
I60
sg570
I561
sg628
I619
sg172
I163
sg533
I524
sg375
I366
sg274
I265
sg21
I12
sg222
I213
sg211
I202
sg583
I574
sg160
I151
sg117
I108
sg425
I416
sg566
I557
sg269
I260
sg256
I247
sg253
I244
sg337
I328
sg515
I506
sg19
I10
sg175
I166
sg148
I139
sg478
I469
sg499
I490
sg30
I21
sg564
I555
sg579
I570
sg216
I207
sg88
I79
sg149
I140
sg206
I197
sg317
I308
sg297
I288
sg301
I292
sg487
I478
sg298
I289
sg83
I74
sg56
I47
sg338
I329
sg150
I141
sg310
I301
sg412
I403
sg74
I65
sg285
I276
sg62
I53
sg313
I304
sg180
I171
sg191
I182
sg514
I505
sg47
I38
sg321
I312
sg287
I278
sg312
I303
sg604
I595
sg89
I80
sg542
I533
sg554
I545
sg517
I508
sg581
I572
sg295
I286
sg79
I70
sg266
I257
sg507
I498
sg489
I480
sg137
I128
sg49
I40
sg612
I603
sg616
I607
sg502
I493
sg125
I116
sg82
I73
sg370
I361
sg469
I460
sg594
I585
sg446
I437
sg560
I551
sg306
I297
sg286
I277
sg380
I371
sg473
I464
sg595
I586
sg268
I259
sg91
I82
sg174
I165
sg110
I101
sg220
I211
sg384
I375
sg247
I238
sg239
I230
sg296
I287
sg205
I196
sg218
I209
sg589
I580
sg122
I113
sg323
I314
sg621
I612
sg360
I351
sg623
I614
sg461
I452
sg242
I233
sg574
I565
sg102
I93
sg414
I405
sg103
I94
sg599
I590
sg342
I333
sg540
I531
sg363
I354
sg442
I433
sg529
I520
sg500
I491
sg424
I415
sg13
I4
sg498
I489
sg367
I358
sg620
I611
sg404
I395
sg557
I548
sg332
I323
sg512
I503
sg16
I7
sg468
I459
sg179
I170
sg622
I613
sg330
I321
sg118
I109
sg490
I481
sg244
I235
sg476
I467
sg357
I348
sg67
I58
sg335
I326
sg525
I516
sg483
I474
sg415
I406
sg258
I249
sg552
I543
sg535
I526
sg536
I527
sg537
I528
sg444
I435
sg435
I426
sg80
I71
sg563
I554
sg292
I283
sg241
I232
sg281
I272
sg434
I425
sg504
I495
sg503
I494
sg541
I532
sg587
I578
sg186
I177
sg307
I298
sg389
I380
sg398
I389
sg383
I374
sg336
I327
sg204
I195
sg68
I59
sg523
I514
sg58
I49
sg549
I540
sg550
I541
sg28
I19
sg131
I122
sg440
I431
sg580
I571
sg198
I189
sg610
I601
sg11
I2
sg176
I167
sg480
I471
sg162
I153
sg448
I439
sg302
I293
sg376
I367
sg625
I616
sg439
I430
sg586
I577
sg416
I407
sg526
I517
sg458
I449
sg213
I204
sg282
I273
sg400
I391
sg189
I180
sg257
I248
sg320
I311
sg316
I307
sg509
I500
sg462
I453
sg511
I502
sg618
I609
sg178
I169
sg183
I174
sg275
I266
sg170
I161
sg63
I54
sg571
I562
sg278
I269
sg452
I443
sg263
I254
sg334
I325
sg276
I267
sg345
I336
sg77
I68
sg92
I83
sg528
I519
sg57
I48
sg584
I575
sg165
I156
sg270
I261
sg474
I465
sg355
I346
sg156
I147
sg627
I618
sg605
I596
sg348
I339
sg37
I28
sg251
I242
sg284
I275
sg288
I279
sg289
I280
sg607
I598
sg519
I510
sg127
I118
sg409
I400
sg339
I330
sg340
I331
sg112
I103
sg532
I523
sg261
I252
sg505
I496
sg422
I413
sg94
I85
sg445
I436
sg450
I441
sg228
I219
sg575
I566
sg45
I36
sg496
I487
sg182
I173
sg293
I284
sg497
I488
sg366
I357
sg300
I291
sg484
I475
sg521
I512
sg78
I69
sg369
I360
sg356
I347
sg230
I221
ssS'separator'
p640
S'='
sS'sparse'
p641
I01
sb.