ccopy_reg
_reconstructor
p1
(csklearn.feature_extraction.dict_vectorizer
DictVectorizer
p2
c__builtin__
object
p3
NtRp4
(dp5
S'vocabulary_'
p6
(dp7
S'advmod=then'
p8
I18
sS'prep=before'
p9
I133
sS'w-2=Benedict'
p10
I307
sS'w-2=people'
p11
I345
sS'w-2=rush'
p12
I351
sS'w+1=vietnamese'
p13
I180
sS'mark=like'
p14
I79
sS'w+1=pilgrim'
p15
I169
sS'w+2=Roh'
p16
I202
sS'dobj=Ghadafi'
p17
I45
sS'w+1=south'
p18
I173
sS'dobj=Dae-jung'
p19
I43
sS'advcl=touch'
p20
I8
sS'w-2=they'
p21
I356
sS'prep=by'
p22
I134
sS'w+1=worker'
p23
I184
sS'w+1=then-president'
p24
I176
sS'w-1=cheer'
p25
I269
sS'w+2=supportive'
p26
I243
sS'w-1=loyalist'
p27
I282
sS'w-1=initially'
p28
I279
sS'nsubj=Pope'
p29
I91
sS'prep=upon'
p30
I141
sS'w-1=will'
p31
I301
sS'advcl=arrive'
p32
I0
sS'nsubjpass=news'
p33
I120
sS'dobj=other'
p34
I63
sS'aux=may'
p35
I24
sS'nsubj=protest'
p36
I108
sS'w+2=celebratory'
p37
I211
sS'w-1=by'
p38
I268
sS'w-1=be'
p39
I267
sS'dobj=faithful'
p40
I54
sS'w-2=the'
p41
I354
sS'w+1=she'
p42
I171
sS'nsubj=leader'
p43
I100
sS'w-2=factory'
p44
I333
sS'advcl=take'
p45
I7
sS'w+1=on'
p46
I165
sS'w+2=first'
p47
I219
sS'w+1=participant'
p48
I167
sS'ccomp=line'
p49
I33
sS'w-1=have'
p50
I276
sS'nsubjpass=voter'
p51
I125
sS'w+2=in'
p52
I227
sS'w+1=Kevin'
p53
I147
sS'w-1=again'
p54
I264
sS'w-2=Donovan'
p55
I309
sS'w-1=Edwards'
p56
I256
sS'w+2=Bush'
p57
I192
sS'prep=about'
p58
I130
sS'w-1=which'
p59
I300
sS'w-2=emerge'
p60
I330
sS'nsubj=Indians'
p61
I88
sS'w+2=President'
p62
I199
sS'nsubjpass=theme'
p63
I123
sS'w+2=by'
p64
I210
sS'w+1=the'
p65
I175
sS'w+1=they'
p66
I177
sS'w-2=pope'
p67
I346
sS'w+2=president'
p68
I240
sS'nsubjpass=#PRP#'
p69
I114
sS'advmod=too'
p70
I19
sS'prep=in'
p71
I136
sS'aux=would'
p72
I27
sS'w-2=voter'
p73
I361
sS'w+1=for'
p74
I160
sS'nsubj=XVI'
p75
I93
sS'advmod=largely'
p76
I13
sS'prep=to'
p77
I140
sS'dobj=victory'
p78
I74
sS'dobj=worker'
p79
I77
sS'w+2=come'
p80
I213
sS'poss=#PRP#'
p81
I129
sS'w-1=digital'
p82
I272
sS'w-1=still'
p83
I295
sS'w-1=mother'
p84
I285
sS'nsubj=member'
p85
I101
sS'w+1=other'
p86
I166
sS'w-1=Clinton'
p87
I254
sS'nsubj=that'
p88
I112
sS'w+1=woman'
p89
I183
sS'w-2=Sarkozy'
p90
I317
sS'w-2=investor'
p91
I339
sS'w-2=carpet'
p92
I325
sS'nsubj=Merkel'
p93
I90
sS'w-1=XVI'
p94
I262
sS'w-2=old'
p95
I344
sS'w+1=thousand'
p96
I178
sS'nsubj=hype'
p97
I98
sS'conj=be'
p98
I35
sS'w+2=Ghadafi'
p99
I194
sS'w+2=supporter'
p100
I242
sS'nsubj=Tolson'
p101
I92
sS'w-1=formal'
p102
I275
sS'nsubj=Donovan'
p103
I85
sS'dobj=news'
p104
I62
sS'w+2=when'
p105
I250
sS'w-2=protester'
p106
I349
sS'w-1=fanfare'
p107
I273
sS'prep=include'
p108
I137
sS'dobj=head'
p109
I57
sS'w+2=Pope'
p110
I198
sS'w+2=guest'
p111
I223
sS'w-1=to'
p112
I299
sS'partmod=speak'
p113
I128
sS'w+2=more'
p114
I231
sS'nsubjpass=torch'
p115
I124
sS'w-2=John'
p116
I313
sS'dobj=#PRP#'
p117
I38
sS'nsubj=Yanali'
p118
I94
sS'w+1=you'
p119
I185
sS'w+1=largely'
p120
I163
sS'w+2=Ramos-Horta'
p121
I201
sS'advmod=personally'
p122
I16
sS'nsubjpass=minister'
p123
I119
sS'w+2=earth'
p124
I217
sS'conj=shield'
p125
I37
sS'nsubj=nun'
p126
I105
sS'w+1=he'
p127
I162
sS'partmod=fear'
p128
I127
sS'dobj=friend'
p129
I55
sS'w-2=euphoria'
p130
I331
sS'nsubj=mother'
p131
I102
sS'advmod=when'
p132
I21
sS'w-2=she'
p133
I352
sS'prep=for'
p134
I135
sS'advcl=reach'
p135
I5
sS'advcl=get'
p136
I3
sS'dobj=student'
p137
I71
sS'nsubj=Bush'
p138
I82
sS'w+2=where'
p139
I251
sS'w-2=Mr.'
p140
I315
sS'w+2=Kim'
p141
I196
sS'dobj=anyone'
p142
I51
sS'advmod=initially'
p143
I11
sS'auxpass=be'
p144
I28
sS'w-2=traditional'
p145
I358
sS'dobj=torch'
p146
I73
sS'w-1=musician'
p147
I287
sS'advmod=still'
p148
I17
sS'w-2=be'
p149
I324
sS'w-2=airport'
p150
I320
sS'nsubj=#NUMBER#'
p151
I80
sS'w+1=anyone'
p152
I156
sS'w+2=with'
p153
I252
sS'dobj=Benedict'
p154
I40
sS'w-2=up'
p155
I360
sS'w-1=the'
p156
I297
sS'tmod=night'
p157
I144
sS'w+2=faithful'
p158
I218
sS'w-1=people'
p159
I290
sS'w+2=long-line'
p160
I229
sS'advcl=live'
p161
I4
sS"w-2=''"
p162
I302
sS'w+2=of'
p163
I235
sS'dobj=Roh'
p164
I48
sS'w-2=forward'
p165
I334
sS'w+2=ten'
p166
I244
sS'w-1=and'
p167
I265
sS'w+2=Ban'
p168
I189
sS'w-1=Pope'
p169
I260
sS'w-2=choose'
p170
I326
sS'w+2=head'
p171
I225
sS'w-2=Mel'
p172
I314
sS'nsubj=musician'
p173
I103
sS'nsubj=resident'
p174
I110
sS'dobj=pilgrim'
p175
I66
sS'w-2=professor'
p176
I347
sS'nsubj=pope'
p177
I107
sS'w-1=Merkel'
p178
I258
sS'dobj=Bolinger'
p179
I41
sS'w-1=she'
p180
I294
sS'w+2=from'
p181
I221
sS'w+2=man'
p182
I230
sS'w-2=daughter'
p183
I328
sS'w-1=Nairobi'
p184
I259
sS'dobj=participant'
p185
I64
sS'w-2=Il'
p186
I312
sS'dobj=Ban'
p187
I39
sS'advmod=joyously'
p188
I12
sS'w+1=say'
p189
I170
sS'w-2=would'
p190
I363
sS'w-1=mainly'
p191
I283
sS'dobj=Pope'
p192
I46
sS'w+2=derision'
p193
I215
sS'ccomp=illustrate'
p194
I32
sS'w-2=protest'
p195
I348
sS'nsubj=hug'
p196
I97
sS'w+2=cheer'
p197
I212
sS'w+2=Rudd'
p198
I203
sS'w-1=official'
p199
I289
sS'w-2=audience'
p200
I323
sS'w+1=passenger'
p201
I168
sS'nsubjpass=Sarkozy'
p202
I116
sS'dobj=star'
p203
I70
sS'w+2=news'
p204
I234
sS'aux=will'
p205
I26
sS'w+2=new'
p206
I233
sS'prep=with'
p207
I142
sS'w-2=troops'
p208
I359
sS'w+2=g-8'
p209
I222
sS'w-1=Compaore'
p210
I255
sS'w-2=in'
p211
I338
sS'w-2=day'
p212
I329
sS'w-2=Fatah'
p213
I310
sS'w+2=da'
p214
I214
sS'nsubj=Edwards'
p215
I86
sS'w-1=personally'
p216
I291
sS'advcl=attend'
p217
I1
sS'w+2=hope'
p218
I226
sS'dobj=Dung'
p219
I44
sS'nsubjpass=idea'
p220
I118
sS'w-1=Tolson'
p221
I261
sS'w-2=meet'
p222
I340
sS"w+2=''"
p223
I186
sS'w+2=visitor'
p224
I248
sS'w+2=Obama'
p225
I197
sS'w-2=agreement'
p226
I319
sS'dobj=launch'
p227
I59
sS'w+2=wait'
p228
I249
sS'dobj=moo-hyun'
p229
I61
sS'w+1=Barack'
p230
I146
sS'nsubjpass=Ban'
p231
I115
sS'advmod=warmly'
p232
I20
sS'w-2=have'
p233
I336
sS'cc=and'
p234
I29
sS'nsubj=student'
p235
I111
sS'w-2=relax'
p236
I350
sS'nsubj=Clinton'
p237
I83
sS'nsubjpass=runner'
p238
I122
sS'w+1=by'
p239
I157
sS'dobj=class'
p240
I53
sS'dobj=achievement'
p241
I50
sS'w-2=Ms.'
p242
I316
sS'w-1=joyously'
p243
I280
sS'w+2=student'
p244
I241
sS'w-2=when'
p245
I362
sS'w+2=early'
p246
I216
sS'w-1=counselor'
p247
I270
sS'nsubj=official'
p248
I106
sS'nsubj=#PRP#'
p249
I81
sS'w+1=about'
p250
I154
sS'dobj=supporter'
p251
I72
sS'w-1=priest'
p252
I292
sS'cc=but'
p253
I30
sS'w-2=controversy'
p254
I327
sS'nsubj=Lee'
p255
I89
sS'w+1=supporter'
p256
I174
sS'dobj=hour'
p257
I58
sS'dobj=shopper'
p258
I69
sS'advmod=again'
p259
I10
sS'w+2=arrival'
p260
I208
sS'w-1=holiday'
p261
I278
sS'dobj=passenger'
p262
I65
sS'dobj=Ramos-Horta'
p263
I47
sS'nsubj=counselor'
p264
I95
sS'advmod=mainly'
p265
I14
sS'ccomp=symbolize'
p266
I34
sS'w-2=neighbor'
p267
I342
sS'w-2=of'
p268
I343
sS'prep=on'
p269
I138
sS'w-2=Ban'
p270
I306
sS'w+2=peruse'
p271
I238
sS'dobj=Rudd'
p272
I49
sS'w+2=Prime'
p273
I200
sS'nsubj=which'
p274
I113
sS'w-1=he'
p275
I277
sS'advcl=begin'
p276
I2
sS'w+1=card'
p277
I158
sS'w+2=applause'
p278
I207
sS'nsubj=Il'
p279
I87
sS'w+2=baseball'
p280
I209
sS'dobj=arrival'
p281
I52
sS'w+1=all'
p282
I155
sS'nsubjpass=pursuit'
p283
I121
sS'w+2=Kenya'
p284
I195
sS'nsubj=protester'
p285
I109
sS'w+2=that'
p286
I245
sS'nsubj=Compaore'
p287
I84
sS'dobj=president'
p288
I68
sS'w+1=Pope'
p289
I150
sS'w-1=leader'
p290
I281
sS'dobj=woman'
p291
I76
sS'w-1=of'
p292
I288
sS'w-2=to'
p293
I357
sS'tmod=#DATE#'
p294
I143
sS'w-2=and'
p295
I321
sS'w+2=Bolinger'
p296
I191
sS'w-2=he'
p297
I337
sS'w+2=musician'
p298
I232
sS'w+2=korean'
p299
I228
sS'w-2=minister'
p300
I341
sS'w+1=with'
p301
I182
sS'advmod=now'
p302
I15
sS'w+2=the'
p303
I246
sS'prep=at'
p304
I132
sS'w-2=european'
p305
I332
sS'prep=as'
p306
I131
sS'w-2=,'
p307
I303
sS'w-2=.'
p308
I304
sS'w+2=he'
p309
I224
sS'partmod=celebrate'
p310
I126
sS'aux=have'
p311
I23
sS'w+2=Benedict'
p312
I190
sS'w-1=,'
p313
I253
sS'w-2=I'
p314
I311
sS'w-2=as'
p315
I322
sS'w+1=shopper'
p316
I172
sS'prep=through'
p317
I139
sS'w+2=Friday'
p318
I193
sS'w-1=then'
p319
I298
sS'w-2=a'
p320
I318
sS'dobj=guest'
p321
I56
sS'w+2=police'
p322
I239
sS'dobj=Bush'
p323
I42
sS'mark=as'
p324
I78
sS'w-2=Bush'
p325
I308
sS'w+1=each'
p326
I159
sS'w+1=Steve'
p327
I152
sS'w+1=to'
p328
I179
sS'w-1=music'
p329
I286
sS'nsubj=demonstrator'
p330
I96
sS'w+1=from'
p331
I161
sS'w+2=personally'
p332
I237
sS'dobj=visitor'
p333
I75
sS'w+1=President'
p334
I151
sS'w+2=torch'
p335
I247
sS'w+1=a'
p336
I153
sS'w-2=Ababa'
p337
I305
sS'w-2=there'
p338
I355
sS'conj=honor'
p339
I36
sS'w+2=friend'
p340
I220
sS'w-1=Lee'
p341
I257
sS'w-2=gesture'
p342
I335
sS'w-1=Yanali'
p343
I263
sS'w+2=U.S.'
p344
I204
sS'w+1=warmly'
p345
I181
sS'w+2=other'
p346
I236
sS'advcl=wrap'
p347
I9
sS'aux=to'
p348
I25
sS'nsubj=neighbor'
p349
I104
sS'dobj=man'
p350
I60
sS'w+1=new'
p351
I164
sS'w-1=arabic'
p352
I266
sS'dobj=presidency'
p353
I67
sS'advcl=report'
p354
I6
sS'w-1=for'
p355
I274
sS'w+1=,'
p356
I145
sS'w-2=that'
p357
I353
sS'w+1=MR.'
p358
I148
sS'w+2=.'
p359
I188
sS'w+2=,'
p360
I187
sS'w-1=ritual'
p361
I293
sS'w+1=Mr.'
p362
I149
sS'ccomp=come'
p363
I31
sS'w-1=demonstrator'
p364
I271
sS'w-1=may'
p365
I284
sS'w-1=that'
p366
I296
sS'aux=be'
p367
I22
sS'nsubjpass=departure'
p368
I117
sS'w+2=a'
p369
I205
sS'nsubj=investor'
p370
I99
sS'w+2=anti-corruption'
p371
I206
ssS'dtype'
p372
cnumpy
float64
p373
sS'feature_names_'
p374
(lp375
g32
ag217
ag276
ag136
ag161
ag135
ag354
ag45
ag20
ag347
ag259
ag143
ag188
ag76
ag265
ag302
ag122
ag148
ag8
ag70
ag232
ag132
ag367
ag311
ag35
ag348
ag205
ag72
ag144
ag234
ag253
ag363
ag194
ag49
ag266
ag98
ag339
ag125
ag117
ag187
ag154
ag179
ag323
ag19
ag219
ag17
ag192
ag263
ag164
ag272
ag241
ag142
ag281
ag240
ag40
ag129
ag321
ag109
ag257
ag227
ag350
ag229
ag104
ag34
ag185
ag262
ag175
ag353
ag288
ag258
ag203
ag137
ag251
ag146
ag78
ag333
ag291
ag79
ag324
ag14
ag151
ag249
ag138
ag237
ag287
ag103
ag215
ag279
ag61
ag255
ag93
ag29
ag101
ag75
ag118
ag264
ag330
ag196
ag97
ag370
ag43
ag85
ag131
ag173
ag349
ag126
ag248
ag177
ag36
ag285
ag174
ag235
ag88
ag274
ag69
ag231
ag202
ag368
ag220
ag123
ag33
ag283
ag238
ag63
ag115
ag51
ag310
ag128
ag113
ag81
ag58
ag306
ag304
ag9
ag22
ag134
ag71
ag108
ag269
ag317
ag77
ag30
ag207
ag294
ag157
ag356
ag230
ag53
ag358
ag362
ag289
ag334
ag327
ag336
ag250
ag282
ag152
ag239
ag277
ag326
ag74
ag331
ag127
ag120
ag351
ag46
ag86
ag48
ag201
ag15
ag189
ag42
ag316
ag18
ag256
ag65
ag24
ag66
ag96
ag328
ag13
ag345
ag301
ag89
ag23
ag119
ag223
ag360
ag359
ag168
ag312
ag296
ag57
ag318
ag99
ag284
ag141
ag225
ag110
ag62
ag273
ag121
ag16
ag198
ag344
ag369
ag371
ag278
ag260
ag280
ag64
ag37
ag197
ag80
ag214
ag193
ag246
ag124
ag158
ag47
ag340
ag181
ag209
ag111
ag309
ag171
ag218
ag52
ag299
ag160
ag182
ag114
ag298
ag206
ag204
ag163
ag346
ag332
ag271
ag322
ag68
ag244
ag100
ag26
ag166
ag286
ag303
ag335
ag224
ag228
ag105
ag139
ag153
ag313
ag87
ag210
ag56
ag341
ag178
ag184
ag169
ag221
ag94
ag343
ag54
ag167
ag352
ag39
ag38
ag25
ag247
ag364
ag82
ag107
ag355
ag102
ag50
ag275
ag261
ag28
ag243
ag290
ag27
ag191
ag365
ag84
ag329
ag147
ag292
ag199
ag159
ag216
ag252
ag361
ag180
ag83
ag366
ag156
ag319
ag112
ag59
ag31
ag162
ag307
ag308
ag337
ag270
ag10
ag325
ag55
ag213
ag314
ag186
ag116
ag172
ag140
ag242
ag90
ag320
ag226
ag150
ag295
ag315
ag200
ag149
ag92
ag170
ag254
ag183
ag212
ag60
ag130
ag305
ag44
ag165
ag342
ag233
ag297
ag211
ag91
ag222
ag300
ag267
ag268
ag95
ag11
ag67
ag176
ag195
ag106
ag236
ag12
ag133
ag357
ag41
ag338
ag21
ag293
ag145
ag208
ag155
ag73
ag245
ag190
asS'separator'
p376
S'='
sS'sparse'
p377
I01
sb.