ccopy_reg
_reconstructor
p1
(csklearn.feature_extraction.dict_vectorizer
DictVectorizer
p2
c__builtin__
object
p3
NtRp4
(dp5
S'sort'
p6
I01
sS'feature_names_'
p7
(lp8
S'advcl=face'
p9
aS'advcl=have'
p10
aS'advcl=see'
p11
aS'advmod=accordingly'
p12
aS'advmod=again'
p13
aS'advmod=constantly'
p14
aS'advmod=how'
p15
aS'advmod=mathematically'
p16
aS'advmod=newly'
p17
aS'advmod=now'
p18
aS'advmod=slightly'
p19
aS'aux=be'
p20
aS'aux=do'
p21
aS'aux=have'
p22
aS'aux=may'
p23
aS'aux=should'
p24
aS'aux=to'
p25
aS'aux=will'
p26
aS'auxpass=be'
p27
aS'auxpass=get'
p28
aS'cc=and'
p29
aS'ccomp=consider'
p30
aS'ccomp=mean'
p31
aS'ccomp=represent'
p32
aS'complm=that'
p33
aS'conj=prepare'
p34
aS'dep=with'
p35
aS'dobj=#PRP#'
p36
aS'dobj=approach'
p37
aS'dobj=demeanor'
p38
aS'dobj=figure'
p39
aS'dobj=lighting'
p40
aS'dobj=military'
p41
aS'dobj=policy'
p42
aS'dobj=power'
p43
aS'dobj=price'
p44
aS'dobj=set'
p45
aS'dobj=spending'
p46
aS'dobj=strategy'
p47
aS'dobj=tactic'
p48
aS'dobj=team'
p49
aS'dobj=that'
p50
aS'dobj=thing'
p51
aS'mark=after'
p52
aS'neg=not'
p53
aS'nsubj=#PRP#'
p54
aS'nsubj=Obama'
p55
aS'nsubj=Seoul'
p56
aS'nsubj=budget'
p57
aS'nsubj=homeowner'
p58
aS'nsubj=organization'
p59
aS'nsubj=prisoner'
p60
aS'nsubjpass=#PRP#'
p61
aS'nsubjpass=deal'
p62
aS'nsubjpass=footprint'
p63
aS'nsubjpass=result'
p64
aS'nsubjpass=role'
p65
aS'prep=after'
p66
aS'prep=for'
p67
aS'prep=from'
p68
aS'prep=in'
p69
aS'prep=on'
p70
aS'prep=to'
p71
aS'purpcl=achieve'
p72
aS'tmod=deal'
p73
aS'w+1=,'
p74
aS'w+1=-'
p75
aS'w+1=.'
p76
aS'w+1=accordingly'
p77
aS'w+1=after'
p78
aS'w+1=and'
p79
aS'w+1=he'
p80
aS'w+1=if'
p81
aS'w+1=in'
p82
aS'w+1=it'
p83
aS'w+1=its'
p84
aS'w+1=itself'
p85
aS'w+1=job'
p86
aS'w+1=power'
p87
aS'w+1=provide'
p88
aS'w+1=so'
p89
aS'w+1=that'
p90
aS'w+1=the'
p91
aS'w+1=themselves'
p92
aS'w+1=they'
p93
aS'w+1=thing'
p94
aS'w+1=to'
p95
aS'w+1=we'
p96
aS'w+1=what'
p97
aS'w+1=you'
p98
aS"w+2='"
p99
aS"w+2=''"
p100
aS'w+2=,'
p101
aS'w+2=.'
p102
aS'w+2=adversity'
p103
aS'w+2=approach'
p104
aS'w+2=as'
p105
aS'w+2=change'
p106
aS'w+2=death'
p107
aS'w+2=demeanor'
p108
aS'w+2=explosive'
p109
aS'w+2=figure'
p110
aS'w+2=give'
p111
aS'w+2=he'
p112
aS'w+2=in'
p113
aS'w+2=island'
p114
aS'w+2=it'
p115
aS'w+2=lighting'
p116
aS'w+2=military'
p117
aS'w+2=more'
p118
aS'w+2=much'
p119
aS'w+2=new'
p120
aS'w+2=on'
p121
aS'w+2=order'
p122
aS'w+2=policy'
p123
aS'w+2=reflect'
p124
aS'w+2=retail'
p125
aS'w+2=set'
p126
aS'w+2=spending'
p127
aS'w+2=strategy'
p128
aS'w+2=tactic'
p129
aS'w+2=take'
p130
aS'w+2=team'
p131
aS'w+2=that'
p132
aS'w+2=the'
p133
aS'w+2=they'
p134
aS'w+2=thing'
p135
aS'w+2=to'
p136
aS'w+2=with'
p137
aS'w+2=yes'
p138
aS'w+2=you'
p139
aS'w-1=,'
p140
aS'w-1=and'
p141
aS'w-1=be'
p142
aS'w-1=by'
p143
aS'w-1=constantly'
p144
aS'w-1=crew'
p145
aS'w-1=get'
p146
aS'w-1=home-will'
p147
aS'w-1=in'
p148
aS'w-1=mathematically'
p149
aS'w-1=newly'
p150
aS'w-1=not'
p151
aS'w-1=of'
p152
aS'w-1=official'
p153
aS'w-1=organization'
p154
aS'w-1=problem'
p155
aS'w-1=slightly'
p156
aS'w-1=they'
p157
aS'w-1=to'
p158
aS'w-1=trouble'
p159
aS'w-1=we'
p160
aS'w-1=will'
p161
aS'w-2=Obama'
p162
aS'w-2=Seoul'
p163
aS'w-2=States'
p164
aS'w-2=after'
p165
aS'w-2=and'
p166
aS'w-2=as'
p167
aS'w-2=asset-their'
p168
aS'w-2=be'
p169
aS'w-2=budget'
p170
aS'w-2=capable'
p171
aS'w-2=do'
p172
aS'w-2=enough'
p173
aS'w-2=group'
p174
aS'w-2=have'
p175
aS'w-2=he'
p176
aS'w-2=help'
p177
aS'w-2=how'
p178
aS'w-2=it'
p179
aS'w-2=learn'
p180
aS'w-2=manage'
p181
aS'w-2=need'
p182
aS'w-2=of'
p183
aS'w-2=operation'
p184
aS'w-2=or'
p185
aS'w-2=problem'
p186
aS'w-2=republican'
p187
aS'w-2=scene'
p188
aS'w-2=should'
p189
aS'w-2=the'
p190
aS'w-2=they'
p191
aS'w-2=thing'
p192
aS'w-2=time'
p193
aS'w-2=to'
p194
aS'w-2=troops'
p195
aS'w-2=try'
p196
aS'w-2=tweak'
p197
aS'w-2=you'
p198
aS'xcomp=do'
p199
aS'xcomp=give'
p200
aS'xcomp=more'
p201
aS'xcomp=necessary'
p202
aS'xcomp=provide'
p203
aS'xcomp=reflect'
p204
aS'xcomp=resume'
p205
aS'xcomp=take'
p206
asS'dtype'
p207
cnumpy
float64
p208
sS'vocabulary_'
p209
(dp210
g10
I1
sg77
I68
sg40
I31
sg72
I63
sg14
I5
sg60
I51
sg147
I138
sg19
I10
sg144
I135
sg202
I193
sg170
I161
sg154
I145
sg107
I98
sg132
I123
sg206
I197
sg119
I110
sg110
I101
sg159
I150
sg122
I113
sg184
I175
sg101
I92
sg185
I176
sg73
I64
sg28
I19
sg126
I117
sg183
I174
sg182
I173
sg152
I143
sg191
I182
sg158
I149
sg153
I144
sg194
I185
sg166
I157
sg118
I109
sg90
I81
sg127
I118
sg36
I27
sg162
I153
sg172
I163
sg99
I90
sg63
I54
sg196
I187
sg106
I97
sg98
I89
sg190
I181
sg173
I164
sg21
I12
sg176
I167
sg186
I177
sg26
I17
sg64
I55
sg18
I9
sg120
I111
sg163
I154
sg133
I124
sg85
I76
sg161
I152
sg125
I116
sg37
I28
sg80
I71
sg117
I108
sg23
I14
sg97
I88
sg45
I36
sg22
I13
sg195
I186
sg143
I134
sg57
I48
sg142
I133
sg108
I99
sg192
I183
sg15
I6
sg140
I131
sg86
I77
sg11
I2
sg131
I122
sg200
I191
sg193
I184
sg89
I80
sg180
I171
sg167
I158
sg150
I141
sg54
I45
sg179
I170
sg178
I169
sg139
I130
sg24
I15
sg123
I114
sg204
I195
sg12
I3
sg83
I74
sg55
I46
sg94
I85
sg30
I21
sg9
I0
sg67
I58
sg188
I179
sg46
I37
sg96
I87
sg124
I115
sg39
I30
sg197
I188
sg100
I91
sg113
I104
sg203
I194
sg177
I168
sg49
I40
sg105
I96
sg115
I106
sg78
I69
sg104
I95
sg47
I38
sg189
I180
sg27
I18
sg33
I24
sg156
I147
sg38
I29
sg134
I125
sg66
I57
sg111
I102
sg164
I155
sg181
I172
sg17
I8
sg175
I166
sg109
I100
sg29
I20
sg42
I33
sg44
I35
sg91
I82
sg130
I121
sg151
I142
sg59
I50
sg199
I190
sg93
I84
sg174
I165
sg16
I7
sg155
I146
sg61
I52
sg135
I126
sg81
I72
sg69
I60
sg128
I119
sg84
I75
sg82
I73
sg136
I127
sg56
I47
sg129
I120
sg187
I178
sg137
I128
sg50
I41
sg201
I192
sg41
I32
sg51
I42
sg68
I59
sg62
I53
sg141
I132
sg71
I62
sg160
I151
sg25
I16
sg198
I189
sg58
I49
sg103
I94
sg35
I26
sg146
I137
sg43
I34
sg114
I105
sg157
I148
sg116
I107
sg88
I79
sg75
I66
sg74
I65
sg76
I67
sg138
I129
sg102
I93
sg165
I156
sg121
I112
sg95
I86
sg32
I23
sg53
I44
sg13
I4
sg79
I70
sg112
I103
sg65
I56
sg149
I140
sg205
I196
sg148
I139
sg169
I160
sg168
I159
sg31
I22
sg145
I136
sg70
I61
sg52
I43
sg34
I25
sg20
I11
sg87
I78
sg48
I39
sg171
I162
sg92
I83
ssS'separator'
p211
S'='
sS'sparse'
p212
I01
sb.