ccopy_reg
_reconstructor
p1
(csklearn.feature_extraction.dict_vectorizer
DictVectorizer
p2
c__builtin__
object
p3
NtRp4
(dp5
S'sort'
p6
I01
sS'feature_names_'
p7
(lp8
S'advcl=promise'
p9
aS'advmod=also'
p10
aS'advmod=even'
p11
aS'advmod=once'
p12
aS'advmod=where'
p13
aS'aux=be'
p14
aS'aux=have'
p15
aS'aux=to'
p16
aS'aux=will'
p17
aS'auxpass=be'
p18
aS'cc=and'
p19
aS'cc=but'
p20
aS'complm=that'
p21
aS'conj=appreciate'
p22
aS'conj=let'
p23
aS'conj=make'
p24
aS'dep=impact'
p25
aS'dobj=#NUMBER#'
p26
aS'dobj=Pentathlon'
p27
aS'dobj=audience'
p28
aS'dobj=multitude'
p29
aS'dobj=question'
p30
aS'dobj=royal'
p31
aS'dobj=serviceman'
p32
aS'dobj=thought'
p33
aS'dobj=viewer'
p34
aS'mark=while'
p35
aS'neg=not'
p36
aS'nsubj=#PRP#'
p37
aS'nsubj=Bushes'
p38
aS'nsubj=XYZ'
p39
aS'nsubj=justice'
p40
aS'nsubj=music'
p41
aS'nsubjpass=#PRP#'
p42
aS'nsubjpass=fan'
p43
aS'nsubjpass=people'
p44
aS'prep=about'
p45
aS'prep=at'
p46
aS'prep=by'
p47
aS'prep=with'
p48
aS'tmod=night'
p49
aS'tmod=seasonfor'
p50
aS'tmod=time'
p51
aS'w+1=,'
p52
aS'w+1=.'
p53
aS'w+1=all'
p54
aS'w+1=and'
p55
aS'w+1=any'
p56
aS'w+1=at'
p57
aS'w+1=audience'
p58
aS'w+1=by'
p59
aS'w+1=man'
p60
aS'w+1=serviceman'
p61
aS'w+1=some'
p62
aS'w+1=the'
p63
aS'w+1=thought'
p64
aS'w+1=viewer'
p65
aS"w+2='s"
p66
aS'w+2=,'
p67
aS'w+2=.'
p68
aS'w+2=but'
p69
aS'w+2=let'
p70
aS'w+2=multitude'
p71
aS'w+2=of'
p72
aS'w+2=organist'
p73
aS'w+2=public'
p74
aS'w+2=question'
p75
aS'w+2=royal'
p76
aS'w+2=the'
p77
aS'w+2=thought'
p78
aS'w+2=thousand'
p79
aS'w+2=with'
p80
aS'w-1=,'
p81
aS'w-1=XYZ'
p82
aS'w-1=and'
p83
aS'w-1=be'
p84
aS'w-1=but'
p85
aS'w-1=even'
p86
aS'w-1=fan'
p87
aS'w-1=he'
p88
aS'w-1=once'
p89
aS'w-1=to'
p90
aS'w-1=will'
p91
aS'w-2=,'
p92
aS'w-2=Bushes'
p93
aS'w-2=act'
p94
aS'w-2=be'
p95
aS'w-2=before'
p96
aS'w-2=continue'
p97
aS'w-2=educate'
p98
aS'w-2=game'
p99
aS'w-2=gruel'
p100
aS'w-2=have'
p101
aS'w-2=he'
p102
aS'w-2=justice'
p103
aS'w-2=keep'
p104
aS'w-2=move'
p105
aS'w-2=only'
p106
aS'w-2=they'
p107
aS'w-2=to'
p108
aS'w-2=where'
p109
asS'dtype'
p110
cnumpy
float64
p111
sS'vocabulary_'
p112
(dp113
g30
I21
sg25
I16
sg13
I4
sg22
I13
sg87
I78
sg44
I35
sg54
I45
sg98
I89
sg65
I56
sg69
I60
sg68
I59
sg73
I64
sg107
I98
sg90
I81
sg71
I62
sg108
I99
sg11
I2
sg56
I47
sg35
I26
sg51
I42
sg102
I93
sg29
I20
sg93
I84
sg17
I8
sg32
I23
sg77
I68
sg46
I37
sg57
I48
sg91
I82
sg92
I83
sg48
I39
sg15
I6
sg84
I75
sg39
I30
sg23
I14
sg81
I72
sg80
I71
sg76
I67
sg96
I87
sg109
I100
sg18
I9
sg97
I88
sg43
I34
sg61
I52
sg99
I90
sg38
I29
sg82
I73
sg88
I79
sg10
I1
sg89
I80
sg106
I97
sg12
I3
sg45
I36
sg21
I12
sg60
I51
sg9
I0
sg101
I92
sg19
I10
sg79
I70
sg63
I54
sg59
I50
sg105
I96
sg20
I11
sg40
I31
sg85
I76
sg66
I57
sg42
I33
sg86
I77
sg75
I66
sg37
I28
sg70
I61
sg94
I85
sg16
I7
sg49
I40
sg74
I65
sg24
I15
sg26
I17
sg33
I24
sg55
I46
sg28
I19
sg78
I69
sg52
I43
sg53
I44
sg72
I63
sg58
I49
sg62
I53
sg67
I58
sg103
I94
sg104
I95
sg36
I27
sg83
I74
sg31
I22
sg64
I55
sg41
I32
sg47
I38
sg34
I25
sg95
I86
sg14
I5
sg100
I91
sg27
I18
sg50
I41
ssS'separator'
p114
S'='
sS'sparse'
p115
I01
sb.