ccopy_reg
_reconstructor
p1
(csklearn.feature_extraction.dict_vectorizer
DictVectorizer
p2
c__builtin__
object
p3
NtRp4
(dp5
S'sort'
p6
I01
sS'feature_names_'
p7
(lp8
S'advcl=walk'
p9
aS'advmod=absolutely'
p10
aS'advmod=just'
p11
aS'advmod=often'
p12
aS'aux=have'
p13
aS'auxpass=be'
p14
aS'cc=and'
p15
aS'ccomp=lurk'
p16
aS'conj=amaze'
p17
aS'dep=work'
p18
aS'dobj=#PRP#'
p19
aS'nsubj=#PRP#'
p20
aS'nsubjpass=#PRP#'
p21
aS'nsubjpass=Noble'
p22
aS'nsubjpass=Zimmerman'
p23
aS'nsubjpass=parent'
p24
aS'nsubjpass=pilgrim'
p25
aS'prep=at'
p26
aS'prep=by'
p27
aS'prep=from'
p28
aS'prep=give'
p29
aS'w+1=.'
p30
aS'w+1=I'
p31
aS'w+1=at'
p32
aS'w+1=by'
p33
aS'w+1=that'
p34
aS'w+1=to'
p35
aS'w+1=when'
p36
aS"w+2=''"
p37
aS'w+2=Iran'
p38
aS'w+2=he'
p39
aS'w+2=how'
p40
aS'w+2=human'
p41
aS'w+2=it'
p42
aS'w+2=see'
p43
aS'w+2=the'
p44
aS'w-1=absolutely'
p45
aS'w-1=and'
p46
aS'w-1=be'
p47
aS'w-1=just'
p48
aS'w-1=often'
p49
aS'w-2=I'
p50
aS'w-2=Noble'
p51
aS'w-2=Zimmerman'
p52
aS'w-2=be'
p53
aS'w-2=he'
p54
aS'w-2=it'
p55
aS'w-2=parent'
p56
aS'w-2=pilgrim'
p57
aS'w-2=shadow'
p58
aS'w-2=they'
p59
aS'xcomp=question'
p60
aS'xcomp=see'
p61
asS'dtype'
p62
cnumpy
float64
p63
sS'vocabulary_'
p64
(dp65
g54
I45
sg29
I20
sg36
I27
sg41
I32
sg37
I28
sg24
I15
sg9
I0
sg42
I33
sg61
I52
sg11
I2
sg44
I35
sg26
I17
sg60
I51
sg32
I23
sg12
I3
sg57
I48
sg14
I5
sg46
I37
sg13
I4
sg40
I31
sg30
I21
sg56
I47
sg47
I38
sg52
I43
sg16
I7
sg49
I40
sg35
I26
sg38
I29
sg15
I6
sg43
I34
sg50
I41
sg39
I30
sg31
I22
sg17
I8
sg33
I24
sg48
I39
sg10
I1
sg45
I36
sg18
I9
sg25
I16
sg59
I50
sg27
I18
sg53
I44
sg21
I12
sg23
I14
sg34
I25
sg19
I10
sg55
I46
sg58
I49
sg20
I11
sg22
I13
sg28
I19
sg51
I42
ssS'separator'
p66
S'='
sS'sparse'
p67
I01
sb.