ccopy_reg
_reconstructor
p1
(csklearn.feature_extraction.dict_vectorizer
DictVectorizer
p2
c__builtin__
object
p3
NtRp4
(dp5
S'vocabulary_'
p6
(dp7
S'advmod=then'
p8
I21
sS'w+2=mobile'
p9
I357
sS'amod=only'
p10
I42
sS'nsubj=someone'
p11
I172
sS'w-2=2012'
p12
I497
sS'det=no'
p13
I101
sS'w-2=we'
p14
I625
sS'w+2=few'
p15
I335
sS'w-2=but'
p16
I523
sS'w-2=people'
p17
I579
sS'w+2=solution'
p18
I380
sS'advcl=explain'
p19
I3
sS'nsubj=Mugabe'
p20
I150
sS'w+1=reveal'
p21
I275
sS'nsubj=violence'
p22
I178
sS'w+1=Bell'
p23
I227
sS'amod=honest'
p24
I34
sS'nsubjpass=that'
p25
I187
sS'w+2=but'
p26
I322
sS'w-2=English'
p27
I501
sS'w+2=very'
p28
I394
sS'dobj=action'
p29
I110
sS'w-2=offer'
p30
I572
sS'w-2=when'
p31
I628
sS'w+2=international'
p32
I347
sS'prep=that'
p33
I207
sS'w-1=diplomatic'
p34
I434
sS'w-2=Rudi'
p35
I511
sS'w-1=seek'
p36
I469
sS'w+1=criminal'
p37
I247
sS'w-2=often'
p38
I573
sS'w-2=they'
p39
I610
sS'prep=by'
p40
I199
sS'w-1=Woods'
p41
I415
sS'w-2=7'
p42
I498
sS'w-2=country'
p43
I532
sS'w+1=that'
p44
I283
sS'w+2=not'
p45
I360
sS'w-2=refuse'
p46
I590
sS'w+2=iaea'
p47
I343
sS'nsubj=government'
p48
I159
sS'w-1=would'
p49
I490
sS'w+1=always'
p50
I234
sS'w-2=volunteer'
p51
I621
sS'nsubjpass=prayer'
p52
I185
sS'w+1=these'
p53
I285
sS'advmod=so'
p54
I17
sS'advmod=really'
p55
I16
sS'xcomp=submit'
p56
I637
sS'w-2=foundation'
p57
I545
sS'advcl=ask'
p58
I1
sS'w-1=will'
p59
I489
sS'w-2=I'
p60
I504
sS'aux=may'
p61
I57
sS'nsubj=switching'
p62
I174
sS'w+2=Ba'
p63
I300
sS'w-1=be'
p64
I421
sS'w-1=they'
p65
I480
sS'w-2=employee'
p66
I539
sS'w+2=speak'
p67
I382
sS'w-2=search'
p68
I596
sS'poss=Europe'
p69
I193
sS'w-1=avoid'
p70
I420
sS'xcomp=necessary'
p71
I633
sS'w-2=able'
p72
I514
sS'w-2=time'
p73
I612
sS'amod=definitive'
p74
I28
sS'advcl=come'
p75
I2
sS'w-1=give'
p76
I442
sS'w-2=go'
p77
I549
sS'w-2=provide'
p78
I584
sS'w+2=country'
p79
I329
sS'dobj=series'
p80
I127
sS'w+1=of'
p81
I268
sS'w-2=without'
p82
I632
sS'w+2=to'
p83
I392
sS'w-1=innocent'
p84
I449
sS'w-1=student'
p85
I475
sS'rcmod=provide'
p86
I217
sS'w+1=or'
p87
I269
sS'w-1=some'
p88
I472
sS'w-2=question'
p89
I587
sS'conj=perform'
p90
I84
sS'w-1=have'
p91
I443
sS'ccomp=say'
p92
I70
sS'w+2=if'
p93
I344
sS'w-1=Congress'
p94
I411
sS'w+2=NASA'
p95
I306
sS'w+2=in'
p96
I346
sS'w+2=large'
p97
I352
sS'w+2=why'
p98
I400
sS'w+2=what'
p99
I397
sS'w+2=it'
p100
I350
sS'w-2=transcript'
p101
I616
sS'w-2=all'
p102
I515
sS'w+2=everything'
p103
I334
sS'dep=well'
p104
I99
sS'w+2=Bush'
p105
I301
sS'nsubj=Prince'
p106
I151
sS'prep=about'
p107
I196
sS'aux=can'
p108
I53
sS'complm=that'
p109
I74
sS'nsubj=scientist'
p110
I169
sS'mark=so'
p111
I136
sS'amod=straight'
p112
I48
sS'w+2=either'
p113
I333
sS'w-1=you'
p114
I493
sS'w+2=will'
p115
I401
sS'w+1=now'
p116
I267
sS'w-1=only'
p117
I462
sS'advmod=when'
p118
I22
sS'w-2=that'
p119
I608
sS'amod=clear'
p120
I25
sS'w+1=the'
p121
I284
sS'advmod=only'
p122
I14
sS'amod=ultimate'
p123
I49
sS'w+1=they'
p124
I286
sS'dep=problem'
p125
I96
sS'w-2=tour'
p126
I615
sS'csubj=look'
p127
I90
sS'prep=in'
p128
I204
sS'w-1=than'
p129
I476
sS'aux=would'
p130
I61
sS'w+1=for'
p131
I251
sS'w+1=song'
p132
I278
sS'w-2=new'
p133
I567
sS'w-2=each'
p134
I537
sS'prep=to'
p135
I208
sS'w+2=organization'
p136
I367
sS'amod=incomplete'
p137
I35
sS'w-2=easier'
p138
I538
sS'w+2=write'
p139
I403
sS'w+1=and'
p140
I235
sS'dobj=Nasr'
p141
I108
sS'dobj=request'
p142
I126
sS'w-2=tribunal'
p143
I617
sS'nsubj=all'
p144
I153
sS'advmod=probably'
p145
I15
sS'w+2=for'
p146
I337
sS'w+1=any'
p147
I236
sS'dobj=skeptic'
p148
I128
sS'dobj=need'
p149
I121
sS'nsubj=that'
p150
I177
sS'amod=innocent'
p151
I36
sS'w-2=government'
p152
I550
sS'partmod=fill'
p153
I190
sS'det=this'
p154
I104
sS'nsubj=guy'
p155
I160
sS'w+2=these'
p156
I387
sS'w-1=in'
p157
I447
sS'w-2=Leder'
p158
I505
sS'conj=be'
p159
I78
sS'w-2=librarian'
p160
I560
sS'xcomp=qualify'
p161
I634
sS'w-1=the'
p162
I478
sS'w-2=seek'
p163
I597
sS'w+2=issue'
p164
I349
sS'mark=if'
p165
I135
sS'w-2=well'
p166
I627
sS'w+2=series'
p167
I377
sS'w-2=find'
p168
I543
sS'w-1=clear'
p169
I426
sS'w+2=now'
p170
I361
sS'advmod=directly'
p171
I9
sS'advmod=where'
p172
I23
sS'w-1=incomplete'
p173
I448
sS'w+2=lot'
p174
I354
sS'nsubj=talk'
p175
I175
sS'w+2=invite'
p176
I348
sS'w+2=call'
p177
I323
sS'w-1=cryptic'
p178
I430
sS'nsubj=war'
p179
I179
sS'ccomp=want'
p180
I73
sS'w+1=have'
p181
I255
sS'w-2=believe'
p182
I522
sS'mark=than'
p183
I137
sS'det=the'
p184
I103
sS'w+2=obvious'
p185
I362
sS'w+2=solve'
p186
I381
sS'w-2=or'
p187
I575
sS'nsubj=who'
p188
I180
sS'nsubj=territory'
p189
I176
sS'w-2=of'
p190
I571
sS'w+1=can'
p191
I245
sS'dobj=issue'
p192
I119
sS'w-1=time'
p193
I482
sS'nn=constitution'
p194
I141
sS'advmod=specifically'
p195
I20
sS'partmod=speak'
p196
I191
sS'w-2=expert'
p197
I541
sS'w-1=concrete'
p198
I427
sS'dobj=#PRP#'
p199
I106
sS'w-2=testimony'
p200
I607
sS'w-2=do'
p201
I536
sS'w-2=Mugabe'
p202
I507
sS'nn=lamine'
p203
I143
sS'w+1=you'
p204
I293
sS'amod=concrete'
p205
I26
sS'w-1=instant'
p206
I450
sS'w+2=can'
p207
I324
sS'nn=demand'
p208
I142
sS'w+1=as'
p209
I237
sS'w+1=at'
p210
I238
sS'conj=get'
p211
I79
sS'amod=political'
p212
I43
sS'w+2=all'
p213
I313
sS'w+2=financial'
p214
I336
sS'w-2=Gates'
p215
I503
sS'advmod=frequently'
p216
I10
sS'w+2=continue'
p217
I328
sS'w-1=can'
p218
I424
sS'w-1=my'
p219
I456
sS'w+2=whether'
p220
I398
sS'csubj=remove'
p221
I91
sS'amod=instant'
p222
I37
sS'w+1=through'
p223
I288
sS'conj=at'
p224
I77
sS'det=some'
p225
I102
sS'advcl=rule'
p226
I5
sS'w-2=Noriega'
p227
I508
sS'w-1=those'
p228
I481
sS'w+1=Beaucher'
p229
I226
sS'det=those'
p230
I105
sS'w+1=authority'
p231
I239
sS'w-2=press'
p232
I583
sS'w-2=ready'
p233
I588
sS'w-2=shy'
p234
I601
sS'w-2=she'
p235
I599
sS'w-1=demand'
p236
I432
sS'prep=for'
p237
I201
sS'amod=new'
p238
I40
sS'dep=that'
p239
I97
sS'w+1=draw'
p240
I249
sS'w-1=wrong'
p241
I491
sS'w-2=together'
p242
I614
sS'w-1=honest'
p243
I446
sS'w+2=at'
p244
I318
sS'w-2=organization'
p245
I576
sS'w+2=as'
p246
I317
sS'w+1=Roohi'
p247
I230
sS'nsubj=politician'
p248
I166
sS'w-2=Mr.'
p249
I506
sS'w-2=regime'
p250
I591
sS'w-1=involve'
p251
I451
sS'auxpass=be'
p252
I62
sS'w+1=North'
p253
I229
sS'w-1=one'
p254
I461
sS"w-1='s"
p255
I407
sS'w+2=skeptic'
p256
I379
sS'w-1=more'
p257
I454
sS'w+2=after'
p258
I311
sS'nsubj=president'
p259
I168
sS'w+2=maybe'
p260
I356
sS'w+2=say'
p261
I376
sS'w+1=critic'
p262
I248
sS'dobj=phone'
p263
I123
sS'nsubj=sense'
p264
I170
sS'nsubj=#NUMBER#'
p265
I144
sS'dobj=no'
p266
I122
sS'w-1=directly'
p267
I435
sS'w-2=refusal'
p268
I589
sS'ccomp=pose'
p269
I68
sS'w+2=question'
p270
I372
sS'w-2=seem'
p271
I598
sS'w+2=crime'
p272
I330
sS"w-1=''"
p273
I406
sS'w+2=back'
p274
I319
sS'w+1=my'
p275
I265
sS'dobj=lot'
p276
I120
sS'w+2=air'
p277
I312
sS'dobj=allegation'
p278
I111
sS'w+1=Moscow'
p279
I228
sS'w+2=public'
p280
I371
sS'w-1=no'
p281
I457
sS'dobj=talkie'
p282
I130
sS'w-1=obvious'
p283
I459
sS'dobj=Roohi'
p284
I109
sS'w-2=decline'
p285
I533
sS'nsubjpass=most'
p286
I184
sS"w-2=''"
p287
I494
sS'w+2=of'
p288
I363
sS'w+2=yes'
p289
I404
sS'w-2=Europe'
p290
I502
sS'conj=lawmaker'
p291
I81
sS'w+1=to'
p292
I289
sS'amod=easy'
p293
I31
sS'w+2=he'
p294
I342
sS'amod=cryptic'
p295
I27
sS'advmod=best'
p296
I8
sS'w+1=lie'
p297
I261
sS'w-2=desperately'
p298
I535
sS'w+2=just'
p299
I351
sS'dobj=critic'
p300
I116
sS'w-1=parent'
p301
I463
sS'nsubjpass=question'
p302
I186
sS'w+2=about'
p303
I309
sS'prep=without'
p304
I211
sS'w-1=she'
p305
I470
sS'conj=not'
p306
I83
sS'conj=solution'
p307
I86
sS'w+2=from'
p308
I338
sS'w-2=one'
p309
I574
sS'w-2=who'
p310
I629
sS'w+2=may'
p311
I355
sS'w-2=no'
p312
I568
sS'advmod=often'
p313
I13
sS'amod=potential'
p314
I44
sS'predet=all'
p315
I195
sS'w-2=fail'
p316
I542
sS'w+1=he'
p317
I256
sS'w+1=because'
p318
I241
sS'w+1=survey'
p319
I281
sS'w-2=perhaps'
p320
I580
sS'w-2=resolve'
p321
I592
sS'w+2=imperative'
p322
I345
sS'w+2=request'
p323
I375
sS'w+2=those'
p324
I390
sS'dep=way'
p325
I98
sS'w+1=phone'
p326
I271
sS'w+2=this'
p327
I389
sS'w+2=Ackerman'
p328
I299
sS'dobj=concern'
p329
I115
sS'w+2=reporter'
p330
I374
sS'ccomp=present'
p331
I69
sS'ccomp=suspend'
p332
I71
sS'nsubj=spokesman'
p333
I173
sS'w-2=available'
p334
I519
sS'dobj=challenge'
p335
I113
sS'w+1=period'
p336
I270
sS'ccomp=form'
p337
I67
sS'w+2=U.N.'
p338
I307
sS'aux=do'
p339
I55
sS'w-2=Agency'
p340
I500
sS'w-2=Paul'
p341
I509
sS'w-2=public'
p342
I585
sS'w-2=with'
p343
I631
sS'aux=will'
p344
I60
sS'poss=Paul'
p345
I194
sS'w-2=know'
p346
I559
sS'nsubj=people'
p347
I164
sS'prep=with'
p348
I210
sS'cc=or'
p349
I65
sS'w-2=turn'
p350
I619
sS'w-2=candidate'
p351
I526
sS'prep=unlike'
p352
I209
sS'w-2=still'
p353
I606
sS'nsubj=candidate'
p354
I155
sS'w+1=big'
p355
I243
sS'dep=pay'
p356
I95
sS'w-1=unambiguous'
p357
I486
sS'w+2=with'
p358
I402
sS'w-2=if'
p359
I556
sS'advmod=somewhere'
p360
I18
sS'rcmod=say'
p361
I218
sS'w-2=before'
p362
I521
sS'advmod=absolutely'
p363
I6
sS'w-1=to'
p364
I483
sS'w+2=quick'
p365
I373
sS'w-1=tomsheck'
p366
I484
sS'dobj=prize'
p367
I124
sS'purpcl=gain'
p368
I212
sS'rcmod=fit'
p369
I214
sS'w-1=definitive'
p370
I431
sS'parataxis=come'
p371
I189
sS'num=#NUMBER#'
p372
I188
sS'w-1=Giuliani'
p373
I412
sS'amod=few'
p374
I32
sS"w+2=''"
p375
I295
sS'nsubj=country'
p376
I156
sS'w+2=accord'
p377
I310
sS'nsubj=funding'
p378
I158
sS'advmod=also'
p379
I7
sS'nsubj=Giuliani'
p380
I147
sS'dobj=charge'
p381
I114
sS'xcomp=question'
p382
I635
sS'w+2=phone'
p383
I368
sS'w+2=that'
p384
I385
sS'w-2=concern'
p385
I530
sS'w+1=may'
p386
I264
sS'w+2=openly'
p387
I366
sS'w-2=call'
p388
I524
sS'w+2=need'
p389
I358
sS'w+2=grievance'
p390
I341
sS'w-2=have'
p391
I552
sS'cc=and'
p392
I63
sS'w-1=lamine'
p393
I452
sS'nsubj=Medvedev'
p394
I149
sS'w-2=experiment'
p395
I540
sS'amod=obvious'
p396
I41
sS'w+1=by'
p397
I244
sS'nsubjpass=concern'
p398
I183
sS'w+1=be'
p399
I240
sS'nn=alternative'
p400
I140
sS'w+2=student'
p401
I383
sS'nsubj=money'
p402
I161
sS'w+1=before'
p403
I242
sS'w-1=but'
p404
I423
sS"w+2='s"
p405
I296
sS'w+1=here'
p406
I257
sS'nsubj=film'
p407
I157
sS'w+2=Korea'
p408
I305
sS'w-2=some'
p409
I602
sS'conj=say'
p410
I85
sS'nsubjpass=chairman'
p411
I182
sS'w-1=simple'
p412
I471
sS'w-1=Medvedev'
p413
I414
sS'w+1=in'
p414
I258
sS'w+1=-lrb-'
p415
I222
sS'w+1=it'
p416
I259
sS'dobj=that'
p417
I131
sS'w-1=constitution'
p418
I428
sS'nsubj=#PRP#'
p419
I145
sS'w-2=originally'
p420
I577
sS'w+1=about'
p421
I232
sS'amod=right'
p422
I46
sS'cc=but'
p423
I64
sS'nsubj=parent'
p424
I163
sS'w+1=further'
p425
I254
sS'poss=#PRP#'
p426
I192
sS'nsubj=Woods'
p427
I152
sS'nsubj=presence'
p428
I167
sS'w-1=help'
p429
I445
sS'nsubj=asylum'
p430
I154
sS'aux=could'
p431
I54
sS'w-1=right'
p432
I468
sS'w-2=could'
p433
I531
sS'w-2=somewhere'
p434
I604
sS'w-1=ultimate'
p435
I485
sS'w+2=way'
p436
I396
sS'w-1=detailed'
p437
I433
sS'mark=before'
p438
I134
sS'prep=give'
p439
I203
sS'w+1=come'
p440
I246
sS'dep=invite'
p441
I94
sS'w-2=like'
p442
I561
sS'w-2=cartel'
p443
I527
sS'w-2=month'
p444
I566
sS'w+2=time'
p445
I391
sS'w-2=hedge'
p446
I554
sS'dobj=grievance'
p447
I118
sS'w-2=the'
p448
I609
sS'w-2=be'
p449
I520
sS'w-2=demand'
p450
I534
sS'dobj=call'
p451
I112
sS'prep=of'
p452
I205
sS'w-2=prayer'
p453
I581
sS'prep=on'
p454
I206
sS'w-1=certain'
p455
I425
sS'w+1=question'
p456
I272
sS'amod=military'
p457
I38
sS'rcmod=no'
p458
I216
sS'w+2=prize'
p459
I370
sS'w+1=repeat'
p460
I274
sS'dobj=question'
p461
I125
sS'w-1=for'
p462
I440
sS'w-1=do'
p463
I436
sS'w+2=democratic'
p464
I331
sS'nsubj=police'
p465
I165
sS'w+1=.'
p466
I223
sS'w+2=great'
p467
I339
sS'w-1=want'
p468
I487
sS'w+1=all'
p469
I233
sS'w+1=session'
p470
I276
sS'dep=hedge'
p471
I93
sS'dobj=door'
p472
I117
sS'w+2=greater'
p473
I340
sS'w-2=to'
p474
I613
sS'amod=more'
p475
I39
sS'w-2=premature'
p476
I582
sS'w+1=some'
p477
I277
sS'w+2=simple'
p478
I378
sS'w-2=get'
p479
I546
sS'w-2=want'
p480
I622
sS'w-2=week'
p481
I626
sS'w+1=no'
p482
I266
sS'rcmod=#NUMBER#'
p483
I213
sS'conj=victory'
p484
I87
sS'w+1=longstanding'
p485
I262
sS'w+2=and'
p486
I316
sS'nsubj=ELLISION'
p487
I146
sS'w-2=and'
p488
I516
sS'w-1=political'
p489
I464
sS'w+1=radio'
p490
I273
sS"w+2='"
p491
I294
sS'w-2=try'
p492
I618
sS'w+2=only'
p493
I365
sS'rcmod=make'
p494
I215
sS'w+2=walkie'
p495
I395
sS'w+1=this'
p496
I287
sS'advcl=appear'
p497
I0
sS'cop=be'
p498
I88
sS'tmod=time'
p499
I219
sS'w-2=arrive'
p500
I517
sS'w-2=he'
p501
I553
sS'w-2=scientist'
p502
I594
sS'w+2=cite'
p503
I327
sS'w+1=which'
p504
I291
sS'w-1=military'
p505
I453
sS'nn=Congress'
p506
I139
sS'w-2=screening'
p507
I595
sS'w+1=with'
p508
I292
sS'conj=able'
p509
I76
sS'advmod=now'
p510
I12
sS'w+2=who'
p511
I399
sS'w-2=say'
p512
I593
sS'w+2=the'
p513
I386
sS'prep=at'
p514
I198
sS'w-2=will'
p515
I630
sS'w-2=magical'
p516
I564
sS'w-2=,'
p517
I495
sS'w-2=.'
p518
I496
sS'w-1=few'
p519
I438
sS'w-1=and'
p520
I418
sS'w+1=what'
p521
I290
sS'iobj=question'
p522
I133
sS'aux=have'
p523
I56
sS'w+2=tough'
p524
I393
sS'w-2=?'
p525
I499
sS'w-2=think'
p526
I611
sS'dep=card'
p527
I92
sS'w-2=puzzle'
p528
I586
sS'w-1=.'
p529
I410
sS'w-1=,'
p530
I408
sS'w-2=not'
p531
I569
sS'w-2=now'
p532
I570
sS'w-1=could'
p533
I429
sS'conj=list'
p534
I82
sS'w+1=every'
p535
I250
sS'csubj=give'
p536
I89
sS'nsubjpass=call'
p537
I181
sS'amod=detailed'
p538
I29
sS'amod=full'
p539
I33
sS'w-2=as'
p540
I518
sS'w+1=specifically'
p541
I279
sS'advmod=soon'
p542
I19
sS'amod=simple'
p543
I47
sS'w+2=suffer'
p544
I384
sS'w-2=how'
p545
I555
sS'conj=help'
p546
I80
sS'w+2=one'
p547
I364
sS'w-2=may'
p548
I565
sS'w+2=no'
p549
I359
sS'w-1=I'
p550
I413
sS'w+2=you'
p551
I405
sS'advcl=make'
p552
I4
sS'w+2=door'
p553
I332
sS'w-2=out'
p554
I578
sS'w-1=then'
p555
I479
sS'w-1=of'
p556
I460
sS'aux=must'
p557
I58
sS'w-2=a'
p558
I513
sS'w-2=look'
p559
I562
sS'ccomp=consider'
p560
I66
sS'w-2=lot'
p561
I563
sS'det=a'
p562
I100
sS'w-1=a'
p563
I416
sS'w-1=really'
p564
I467
sS'w-1=best'
p565
I422
sS'w+2=police'
p566
I369
sS'nsubj=Leone'
p567
I148
sS'w-1=yes\\/no'
p568
I492
sS'w-1=easy'
p569
I437
sS'w-1=he'
p570
I444
sS'w-2=case'
p571
I528
sS'w+1=many'
p572
I263
sS'w-2=glad'
p573
I548
sS'ccomp=think'
p574
I72
sS'w-1=-rrb-'
p575
I409
sS'w+2=Helicopter'
p576
I302
sS'w+1=from'
p577
I253
sS'w-2=very'
p578
I620
sS'w+1=lawmaker'
p579
I260
sS'w-1=alternative'
p580
I417
sS'w+1=frequently'
p581
I252
sS'complm=whether'
p582
I75
sS'w+2=they'
p583
I388
sS'w-2=somebody'
p584
I603
sS'w-1=film'
p585
I439
sS'w-1=must'
p586
I455
sS'w-2=warm'
p587
I623
sS'xcomp=say'
p588
I636
sS'w-2=choice'
p589
I529
sS'amod=diplomatic'
p590
I30
sS'w+2=challenge'
p591
I325
sS'w+2=american-style'
p592
I315
sS'advmod=how'
p593
I11
sS'amod=yes\\/no'
p594
I51
sS'w-1=ready'
p595
I466
sS'prep=from'
p596
I202
sS'dobj=Leder'
p597
I107
sS'w-2=start'
p598
I605
sS'w-1=at'
p599
I419
sS'w-1=we'
p600
I488
sS'aux=to'
p601
I59
sS'w+2=charge'
p602
I326
sS'w-2=should'
p603
I600
sS'w+1=such'
p604
I280
sS'w-1=get'
p605
I441
sS'w-2=can'
p606
I525
sS'nsubj=negotiation'
p607
I162
sS'w-2=Pfizer'
p608
I510
sS'w-1=soon'
p609
I473
sS'tmod=week'
p610
I220
sS'w+1=,'
p611
I221
sS'dobj=survey'
p612
I129
sS'w-2=give'
p613
I547
sS'amod=wrong'
p614
I50
sS'w-2=way'
p615
I624
sS'w+2=.'
p616
I298
sS'w+2=,'
p617
I297
sS'w-2=importance'
p618
I557
sS'w+1=;'
p619
I225
sS'w+1=:'
p620
I224
sS'neg=not'
p621
I138
sS'prep=during'
p622
I200
sS'dobj=way'
p623
I132
sS'amod=ready'
p624
I45
sS'w+2=life'
p625
I353
sS'w+2=I'
p626
I303
sS'nsubj=somebody'
p627
I171
sS'w-2=hall'
p628
I551
sS'w+1=telephone'
p629
I282
sS'w+1=a'
p630
I231
sS'w-1=potential'
p631
I465
sS'w-1=not'
p632
I458
sS'prep=absolutely'
p633
I197
sS'w-1=straight'
p634
I474
sS'w+2=allegation'
p635
I314
sS'w-2=Tiger'
p636
I512
sS'w-1=that'
p637
I477
sS'aux=be'
p638
I52
sS'w-2=for'
p639
I544
sS'amod=certain'
p640
I24
sS'w+2=be'
p641
I320
sS'w+2=big'
p642
I321
sS'w+2=a'
p643
I308
sS'w+2=Iraq'
p644
I304
sS'w-2=in'
p645
I558
ssS'dtype'
p646
cnumpy
float64
p647
sS'feature_names_'
p648
(lp649
g497
ag58
ag75
ag19
ag552
ag226
ag363
ag379
ag296
ag171
ag216
ag593
ag510
ag313
ag122
ag145
ag55
ag54
ag360
ag542
ag195
ag8
ag118
ag172
ag640
ag120
ag205
ag295
ag74
ag538
ag590
ag293
ag374
ag539
ag24
ag137
ag151
ag222
ag457
ag475
ag238
ag396
ag10
ag212
ag314
ag624
ag422
ag543
ag112
ag123
ag614
ag594
ag638
ag108
ag431
ag339
ag523
ag61
ag557
ag601
ag344
ag130
ag252
ag392
ag423
ag349
ag560
ag337
ag269
ag331
ag92
ag332
ag574
ag180
ag109
ag582
ag509
ag224
ag159
ag211
ag546
ag291
ag534
ag306
ag90
ag410
ag307
ag484
ag498
ag536
ag127
ag221
ag527
ag471
ag441
ag356
ag125
ag239
ag325
ag104
ag562
ag13
ag225
ag184
ag154
ag230
ag199
ag597
ag141
ag284
ag29
ag278
ag451
ag335
ag381
ag329
ag300
ag472
ag447
ag192
ag276
ag149
ag266
ag263
ag367
ag461
ag142
ag80
ag148
ag612
ag282
ag417
ag623
ag522
ag438
ag165
ag111
ag183
ag621
ag506
ag400
ag194
ag208
ag203
ag265
ag419
ag487
ag380
ag567
ag394
ag20
ag106
ag427
ag144
ag430
ag354
ag376
ag407
ag378
ag48
ag155
ag402
ag607
ag424
ag347
ag465
ag248
ag428
ag259
ag110
ag264
ag627
ag11
ag333
ag62
ag175
ag189
ag150
ag22
ag179
ag188
ag537
ag411
ag398
ag286
ag52
ag302
ag25
ag372
ag371
ag153
ag196
ag426
ag69
ag345
ag315
ag107
ag633
ag514
ag40
ag622
ag237
ag596
ag439
ag128
ag452
ag454
ag33
ag135
ag352
ag348
ag304
ag368
ag483
ag369
ag494
ag458
ag86
ag361
ag499
ag610
ag611
ag415
ag466
ag620
ag619
ag229
ag23
ag279
ag253
ag247
ag630
ag421
ag469
ag50
ag140
ag147
ag209
ag210
ag231
ag399
ag318
ag403
ag355
ag397
ag191
ag440
ag37
ag262
ag240
ag535
ag131
ag581
ag577
ag425
ag181
ag317
ag406
ag414
ag416
ag579
ag297
ag485
ag572
ag386
ag275
ag482
ag116
ag81
ag87
ag336
ag326
ag456
ag490
ag460
ag21
ag470
ag477
ag132
ag541
ag604
ag319
ag629
ag44
ag121
ag53
ag124
ag496
ag223
ag292
ag521
ag504
ag508
ag204
ag491
ag375
ag405
ag617
ag616
ag328
ag63
ag105
ag576
ag626
ag644
ag408
ag95
ag338
ag643
ag303
ag377
ag258
ag277
ag213
ag635
ag592
ag486
ag246
ag244
ag274
ag641
ag642
ag26
ag177
ag207
ag591
ag602
ag503
ag217
ag79
ag272
ag464
ag553
ag113
ag103
ag15
ag214
ag146
ag308
ag467
ag473
ag390
ag294
ag47
ag93
ag322
ag96
ag32
ag176
ag164
ag100
ag299
ag97
ag625
ag174
ag311
ag260
ag9
ag389
ag549
ag45
ag170
ag185
ag288
ag547
ag493
ag387
ag136
ag383
ag566
ag459
ag280
ag270
ag365
ag330
ag323
ag261
ag167
ag478
ag256
ag18
ag186
ag67
ag401
ag544
ag384
ag513
ag156
ag583
ag327
ag324
ag445
ag83
ag524
ag28
ag495
ag436
ag99
ag220
ag511
ag98
ag115
ag358
ag139
ag289
ag551
ag273
ag255
ag530
ag575
ag529
ag94
ag373
ag550
ag413
ag41
ag563
ag580
ag520
ag599
ag70
ag64
ag565
ag404
ag218
ag455
ag169
ag198
ag418
ag533
ag178
ag370
ag236
ag437
ag34
ag267
ag463
ag569
ag519
ag585
ag462
ag605
ag76
ag91
ag570
ag429
ag243
ag157
ag173
ag84
ag206
ag251
ag393
ag505
ag257
ag586
ag219
ag281
ag632
ag283
ag556
ag254
ag117
ag301
ag489
ag631
ag595
ag564
ag432
ag36
ag305
ag412
ag88
ag609
ag634
ag85
ag129
ag637
ag162
ag555
ag65
ag228
ag193
ag364
ag366
ag435
ag357
ag468
ag600
ag59
ag49
ag241
ag568
ag114
ag287
ag517
ag518
ag12
ag42
ag525
ag340
ag27
ag290
ag215
ag60
ag158
ag249
ag202
ag227
ag341
ag608
ag35
ag636
ag558
ag72
ag102
ag488
ag500
ag540
ag334
ag449
ag362
ag182
ag16
ag388
ag606
ag351
ag443
ag571
ag589
ag385
ag433
ag43
ag285
ag450
ag298
ag201
ag134
ag138
ag66
ag395
ag197
ag316
ag168
ag639
ag57
ag479
ag613
ag573
ag77
ag152
ag628
ag391
ag501
ag446
ag545
ag359
ag618
ag645
ag346
ag160
ag442
ag559
ag561
ag516
ag548
ag444
ag133
ag312
ag531
ag532
ag190
ag30
ag38
ag309
ag187
ag245
ag420
ag554
ag17
ag320
ag453
ag476
ag232
ag78
ag342
ag528
ag89
ag233
ag268
ag46
ag250
ag321
ag512
ag502
ag507
ag68
ag163
ag271
ag235
ag603
ag234
ag409
ag584
ag434
ag598
ag353
ag200
ag119
ag448
ag39
ag526
ag73
ag474
ag242
ag126
ag101
ag143
ag492
ag350
ag578
ag51
ag480
ag587
ag615
ag14
ag481
ag166
ag31
ag310
ag515
ag343
ag82
ag71
ag161
ag382
ag588
ag56
asS'separator'
p650
S'='
sS'sparse'
p651
I01
sb.