ccopy_reg
_reconstructor
p1
(csklearn.feature_extraction.dict_vectorizer
DictVectorizer
p2
c__builtin__
object
p3
NtRp4
(dp5
S'vocabulary_'
p6
(dp7
S'w+2=african'
p8
I140
sS'advcl=improve'
p9
I1
sS'w+1=aspiration'
p10
I106
sS'w-2=might'
p11
I216
sS'w+1=,'
p12
I96
sS'partmod=base'
p13
I85
sS'dep=have'
p14
I62
sS'w-2=we'
p15
I225
sS'nsubj=figure'
p16
I81
sS'dep=Hurst'
p17
I60
sS'ccomp=kid'
p18
I39
sS'w+2=would'
p19
I171
sS"w+2='"
p20
I127
sS'w+1=because'
p21
I108
sS'mark=than'
p22
I75
sS'xcomp=know'
p23
I229
sS'w+2=that'
p24
I164
sS'w-2=anyone'
p25
I207
sS'w+2=but'
p26
I147
sS'w-2=would'
p27
I226
sS'ccomp=name'
p28
I42
sS'prep=that'
p29
I94
sS'w+2=,'
p30
I131
sS'ccomp=put'
p31
I43
sS'w-1=he'
p32
I183
sS'w+1=work'
p33
I124
sS'w-2=could'
p34
I211
sS'w-1=educate'
p35
I181
sS'w-2=they'
p36
I222
sS'w-1=to'
p37
I189
sS'w+2=and'
p38
I141
sS'w-2=and'
p39
I205
sS'w+1=Australia'
p40
I99
sS'advcl=of'
p41
I3
sS'w+2=more'
p42
I159
sS'w+1=that'
p43
I117
sS'w-2=some'
p44
I219
sS'dobj=#PRP#'
p45
I70
sS'conj=certain'
p46
I51
sS'w-1=would'
p47
I193
sS'w-1=Mauro'
p48
I177
sS'w-2=one'
p49
I217
sS'cop=be'
p50
I59
sS'dep=so'
p51
I65
sS'w+2=think'
p52
I167
sS'w+2=base'
p53
I144
sS'w-2=anybody'
p54
I206
sS'w+1=Thaksin'
p55
I102
sS'ccomp=goal'
p56
I35
sS'aux=will'
p57
I19
sS'w+2=Christmas'
p58
I135
sS'advmod=so'
p59
I11
sS'ccomp=#NUMBER#'
p60
I23
sS'advmod=just'
p61
I7
sS'advcl=feel'
p62
I0
sS'prep=at'
p63
I89
sS'w+2=like'
p64
I157
sS'conj=that'
p65
I56
sS'w-1=will'
p66
I192
sS'w+2=probably'
p67
I162
sS'w-2=,'
p68
I196
sS'w-2=-'
p69
I197
sS'w-2=.'
p70
I199
sS'w+1=he'
p71
I111
sS'ccomp=choose'
p72
I28
sS'w+1=what'
p73
I122
sS'aux=have'
p74
I16
sS'ccomp=begin'
p75
I26
sS'w-1=be'
p76
I179
sS'w-2=think'
p77
I223
sS'w+2=to'
p78
I168
sS'rcmod=circulate'
p79
I95
sS'w-1=-'
p80
I174
sS'w-1=,'
p81
I173
sS'amod=educate'
p82
I12
sS'w+2=I'
p83
I137
sS'w-1=can'
p84
I180
sS'w-1=my'
p85
I185
sS'w-2=I'
p86
I200
sS'poss=anybody'
p87
I87
sS'ccomp=be'
p88
I25
sS'dobj=hip'
p89
I72
sS'det=some'
p90
I69
sS'w+1=just'
p91
I113
sS'ccomp=feel'
p92
I33
sS'mark=because'
p93
I74
sS'aux=might'
p94
I17
sS'w-1=I'
p95
I175
sS'advcl=make'
p96
I2
sS'conj=remain'
p97
I54
sS'dobj=Australia'
p98
I71
sS'w+1=on'
p99
I115
sS'w-1=leave'
p100
I184
sS'prep=from'
p101
I91
sS'w-2=`'
p102
I202
sS'w-2=a'
p103
I203
sS'w+1=one'
p104
I116
sS'w-1=Israel'
p105
I176
sS'prep=for'
p106
I90
sS'det=a'
p107
I68
sS'w-1=a'
p108
I178
sS'conj=independent'
p109
I52
sS'w+1=we'
p110
I121
sS'w-1=have'
p111
I182
sS'nn=Mauro'
p112
I77
sS'w+2=reflect'
p113
I163
sS'w-2=something'
p114
I220
sS"w-1='s"
p115
I172
sS'poss=anyone'
p116
I88
sS'w+2=-lrb-'
p117
I133
sS'w-2=so'
p118
I218
sS'w+2=at'
p119
I143
sS"w+2=''"
p120
I128
sS'advmod=practically'
p121
I10
sS'ccomp=go'
p122
I34
sS'w+2=might'
p123
I158
sS'parataxis=say'
p124
I84
sS'advmod=also'
p125
I6
sS'ccomp=think'
p126
I49
sS'w+2=favorite'
p127
I151
sS'w+1=my'
p128
I114
sS'w-2=be'
p129
I208
sS'ccomp=have'
p130
I36
sS'parataxis=do'
p131
I83
sS'w-2=Tony'
p132
I201
sS'aux=can'
p133
I14
sS'ccomp=mad'
p134
I41
sS'w+2=they'
p135
I166
sS'w+2=could'
p136
I150
sS'w+2=can'
p137
I148
sS'conj=thing'
p138
I57
sS'dep=of'
p139
I63
sS'w+2=give'
p140
I152
sS'w+2=ask'
p141
I142
sS'w-1=you'
p142
I194
sS'w+2=will'
p143
I170
sS'w-2=have'
p144
I213
sS'ccomp=do'
p145
I31
sS'w-2=but'
p146
I209
sS'ccomp=run'
p147
I46
sS'w-1=only'
p148
I187
sS'w+1=UNICEF'
p149
I103
sS'w+1=the'
p150
I118
sS'w-1=not'
p151
I186
sS'ccomp=expect'
p152
I32
sS'w+1=be'
p153
I107
sS'advmod=only'
p154
I9
sS'w+2=be'
p155
I145
sS'cc=but'
p156
I22
sS'w+1=they'
p157
I120
sS'w+2=Fogerty'
p158
I136
sS'w-2=therefore'
p159
I221
sS"w+2='s"
p160
I130
sS'nsubj=#NUMBER#'
p161
I78
sS'ccomp=something'
p162
I48
sS'w-1=venture'
p163
I190
sS'w+1=you'
p164
I126
sS'ccomp=reflect'
p165
I44
sS'conj=say'
p166
I55
sS'advmod=maybe'
p167
I8
sS'aux=would'
p168
I20
sS'w+1=for'
p169
I110
sS'ccomp=luxury'
p170
I40
sS'w+1=whether'
p171
I123
sS'w+1=would'
p172
I125
sS'w+1=it'
p173
I112
sS'nsubj=#PRP#'
p174
I79
sS'w+1=about'
p175
I105
sS'dobj=what'
p176
I73
sS'w-2=-rrb-'
p177
I198
sS'nsubj=Blair'
p178
I80
sS'cc=and'
p179
I21
sS'advcl=show'
p180
I5
sS'w-2=those'
p181
I224
sS'dep=question'
p182
I64
sS'dep=Togola'
p183
I61
sS'ccomp=request'
p184
I45
sS'w-1=we'
p185
I191
sS'ccomp=increase'
p186
I37
sS'aux=to'
p187
I18
sS'ccomp=issue'
p188
I38
sS'w+2=have'
p189
I153
sS'xcomp=deliver'
p190
I228
sS'w+2=the'
p191
I165
sS'poss=#PRP#'
p192
I86
sS'ccomp=ask'
p193
I24
sS'w+2=or'
p194
I161
sS'w+2=?'
p195
I134
sS'aux=could'
p196
I15
sS"w-2=''"
p197
I195
sS'ccomp=different'
p198
I30
sS'w+1=.'
p199
I97
sS'w+2=of'
p200
I160
sS'w+2=Monday'
p201
I138
sS'ccomp=continue'
p202
I29
sS'w+2=-'
p203
I132
sS'xcomp=come'
p204
I227
sS'w+1=:'
p205
I98
sS'w-2=keep'
p206
I214
sS'neg=not'
p207
I76
sS'w-2=all'
p208
I204
sS'nsubj=that'
p209
I82
sS'w-2=meter'
p210
I215
sS'w+1=come'
p211
I109
sS'w+2=he'
p212
I154
sS'w+1=I'
p213
I100
sS'w-2=fan'
p214
I212
sS'advcl=read'
p215
I4
sS'w+1=John'
p216
I101
sS'w+2=choose'
p217
I149
sS'w+2=which'
p218
I169
sS'w+2=just'
p219
I155
sS'ccomp=understand'
p220
I50
sS'ccomp=change'
p221
I27
sS'w+1=a'
p222
I104
sS'conj=love'
p223
I53
sS'prep=of'
p224
I92
sS'w+2=Republican'
p225
I139
sS"w+2='ll"
p226
I129
sS'w-1=the'
p227
I188
sS'prep=on'
p228
I93
sS'ccomp=say'
p229
I47
sS'dep=then'
p230
I66
sS'aux=be'
p231
I13
sS'w+1=there'
p232
I119
sS'dep=think'
p233
I67
sS'conj=twisted'
p234
I58
sS'w+2=know'
p235
I156
sS'w+2=big'
p236
I146
sS'w-2=by'
p237
I210
ssS'dtype'
p238
cnumpy
float64
p239
sS'feature_names_'
p240
(lp241
g62
ag9
ag96
ag41
ag215
ag180
ag125
ag61
ag167
ag154
ag121
ag59
ag82
ag231
ag133
ag196
ag74
ag94
ag187
ag57
ag168
ag179
ag156
ag60
ag193
ag88
ag75
ag221
ag72
ag202
ag198
ag145
ag152
ag92
ag122
ag56
ag130
ag186
ag188
ag18
ag170
ag134
ag28
ag31
ag165
ag184
ag147
ag229
ag162
ag126
ag220
ag46
ag109
ag223
ag97
ag166
ag65
ag138
ag234
ag50
ag17
ag183
ag14
ag139
ag182
ag51
ag230
ag233
ag107
ag90
ag45
ag98
ag89
ag176
ag93
ag22
ag207
ag112
ag161
ag174
ag178
ag16
ag209
ag131
ag124
ag13
ag192
ag87
ag116
ag63
ag106
ag101
ag224
ag228
ag29
ag79
ag12
ag199
ag205
ag40
ag213
ag216
ag55
ag149
ag222
ag175
ag10
ag153
ag21
ag211
ag169
ag71
ag173
ag91
ag128
ag99
ag104
ag43
ag150
ag232
ag157
ag110
ag73
ag171
ag33
ag172
ag164
ag20
ag120
ag226
ag160
ag30
ag203
ag117
ag195
ag58
ag158
ag83
ag201
ag225
ag8
ag38
ag141
ag119
ag53
ag155
ag236
ag26
ag137
ag217
ag136
ag127
ag140
ag189
ag212
ag219
ag235
ag64
ag123
ag42
ag200
ag194
ag67
ag113
ag24
ag191
ag135
ag52
ag78
ag218
ag143
ag19
ag115
ag81
ag80
ag95
ag105
ag48
ag108
ag76
ag84
ag35
ag111
ag32
ag100
ag85
ag151
ag148
ag227
ag37
ag163
ag185
ag66
ag47
ag142
ag197
ag68
ag69
ag177
ag70
ag86
ag132
ag102
ag103
ag208
ag39
ag54
ag25
ag129
ag146
ag237
ag34
ag214
ag144
ag206
ag210
ag11
ag49
ag118
ag44
ag114
ag159
ag36
ag77
ag181
ag15
ag27
ag204
ag190
ag23
asS'separator'
p242
S'='
sS'sparse'
p243
I01
sb.