ccopy_reg
_reconstructor
p1
(csklearn.feature_extraction.dict_vectorizer
DictVectorizer
p2
c__builtin__
object
p3
NtRp4
(dp5
S'sort'
p6
I01
sS'feature_names_'
p7
(lp8
S'advcl=accept'
p9
aS'advcl=arrive'
p10
aS'advcl=ask'
p11
aS'advcl=be'
p12
aS'advcl=bear'
p13
aS'advcl=bring'
p14
aS'advcl=call'
p15
aS'advcl=calm'
p16
aS'advcl=capture'
p17
aS'advcl=cast'
p18
aS'advcl=certify'
p19
aS'advcl=choose'
p20
aS'advcl=clear'
p21
aS'advcl=complete'
p22
aS'advcl=continue'
p23
aS'advcl=elect'
p24
aS'advcl=free'
p25
aS'advcl=get'
p26
aS'advcl=go'
p27
aS'advcl=happen'
p28
aS'advcl=have'
p29
aS'advcl=hear'
p30
aS'advcl=improve'
p31
aS'advcl=inaugurate'
p32
aS'advcl=join'
p33
aS'advcl=launch'
p34
aS'advcl=make'
p35
aS'advcl=meet'
p36
aS'advcl=over'
p37
aS'advcl=play'
p38
aS'advcl=ready'
p39
aS'advcl=remain'
p40
aS'advcl=restricted'
p41
aS'advcl=result'
p42
aS'advcl=say'
p43
aS'advcl=scurry'
p44
aS'advcl=set'
p45
aS'advcl=settle'
p46
aS'advcl=sharp'
p47
aS'advcl=take'
p48
aS'advcl=talk'
p49
aS'advcl=think'
p50
aS'advcl=threaten'
p51
aS'advcl=touch'
p52
aS'advcl=try'
p53
aS'advcl=turn'
p54
aS'advcl=vote'
p55
aS'advmod=all'
p56
aS'advmod=alone'
p57
aS'advmod=also'
p58
aS'advmod=anxiously'
p59
aS'advmod=anymore'
p60
aS'advmod=at'
p61
aS'advmod=back'
p62
aS'advmod=behind'
p63
aS'advmod=cautiously'
p64
aS'advmod=domestically'
p65
aS'advmod=down'
p66
aS'advmod=eagerly'
p67
aS'advmod=enough'
p68
aS'advmod=even'
p69
aS'advmod=fearfully'
p70
aS'advmod=forever'
p71
aS'advmod=forward'
p72
aS'advmod=here'
p73
aS'advmod=impatiently'
p74
aS'advmod=indefinitely'
p75
aS'advmod=instead'
p76
aS'advmod=just'
p77
aS'advmod=long'
p78
aS'advmod=longer'
p79
aS'advmod=meanwhile'
p80
aS'advmod=now'
p81
aS'advmod=often'
p82
aS'advmod=only'
p83
aS'advmod=originally'
p84
aS'advmod=out'
p85
aS'advmod=patiently'
p86
aS'advmod=peacefully'
p87
aS'advmod=probably'
p88
aS'advmod=simply'
p89
aS'advmod=slowly'
p90
aS'advmod=so'
p91
aS'advmod=somewhere'
p92
aS'advmod=specifically'
p93
aS'advmod=still'
p94
aS'advmod=tensely'
p95
aS'advmod=there'
p96
aS'advmod=unfortunately'
p97
aS'advmod=up'
p98
aS'advmod=where'
p99
aS'advmod=why'
p100
aS'advmod=world-wide'
p101
aS'amod=#NUMBER#'
p102
aS'amod=average'
p103
aS'amod=hour-long'
p104
aS'amod=indefinite'
p105
aS'amod=long'
p106
aS'amod=longest'
p107
aS'amod=many'
p108
aS'amod=other'
p109
aS"aux='ll"
p110
aS'aux=be'
p111
aS'aux=can'
p112
aS'aux=could'
p113
aS'aux=do'
p114
aS'aux=have'
p115
aS'aux=must'
p116
aS'aux=should'
p117
aS'aux=to'
p118
aS'aux=will'
p119
aS'aux=would'
p120
aS'cc=and'
p121
aS'cc=but'
p122
aS'ccomp=be'
p123
aS'ccomp=confirm'
p124
aS'ccomp=develop'
p125
aS'ccomp=effective'
p126
aS'ccomp=happen'
p127
aS'ccomp=know'
p128
aS'ccomp=live'
p129
aS'ccomp=need'
p130
aS'ccomp=pass'
p131
aS'ccomp=respond'
p132
aS'ccomp=retaliate'
p133
aS'ccomp=say'
p134
aS'ccomp=succeed'
p135
aS'ccomp=take'
p136
aS'ccomp=weigh'
p137
aS'complm=that'
p138
aS'conj=be'
p139
aS'conj=before'
p140
aS'conj=confident'
p141
aS'conj=design'
p142
aS'conj=drop'
p143
aS'conj=encourage'
p144
aS'conj=feel'
p145
aS'conj=go'
p146
aS'conj=happy'
p147
aS'conj=have'
p148
aS'conj=hope'
p149
aS'conj=let'
p150
aS'conj=money'
p151
aS'conj=number'
p152
aS'conj=on'
p153
aS'conj=peacefully'
p154
aS'conj=plan'
p155
aS'conj=promise'
p156
aS'conj=pull'
p157
aS'conj=see'
p158
aS'conj=take'
p159
aS'conj=try'
p160
aS'conj=wait'
p161
aS'conj=want'
p162
aS'cop=be'
p163
aS'dep=alone'
p164
aS'dep=authority'
p165
aS'dep=be'
p166
aS'dep=but'
p167
aS'dep=come'
p168
aS'dep=day'
p169
aS'dep=if'
p170
aS'dep=longer'
p171
aS'dep=many'
p172
aS'dep=no'
p173
aS'dep=orphan'
p174
aS'dep=react'
p175
aS'dep=say'
p176
aS'dep=see'
p177
aS'dep=so'
p178
aS'dep=want'
p179
aS'dep=week'
p180
aS'dep=what'
p181
aS'dep=while'
p182
aS'det=a'
p183
aS'det=another'
p184
aS'det=the'
p185
aS'dobj=#NUMBER#'
p186
aS'dobj=#PRP#'
p187
aS'dobj=Minute'
p188
aS'dobj=Petraeus'
p189
aS'dobj=chance'
p190
aS'dobj=day'
p191
aS'dobj=departure'
p192
aS'dobj=election'
p193
aS'dobj=execution'
p194
aS'dobj=here'
p195
aS'dobj=hour'
p196
aS'dobj=list'
p197
aS'dobj=minute'
p198
aS'dobj=moment'
p199
aS'dobj=month'
p200
aS'dobj=outside'
p201
aS'dobj=period'
p202
aS'dobj=pressure'
p203
aS'dobj=report'
p204
aS'dobj=shilling'
p205
aS'dobj=table'
p206
aS'dobj=that'
p207
aS'dobj=time'
p208
aS'dobj=tornado'
p209
aS'dobj=turn'
p210
aS'dobj=what'
p211
aS'dobj=word'
p212
aS'dobj=year'
p213
aS'mark=as'
p214
aS'mark=because'
p215
aS'mark=if'
p216
aS'mark=like'
p217
aS'mark=since'
p218
aS'mark=so'
p219
aS'mark=than'
p220
aS'mark=while'
p221
aS'neg=not'
p222
aS'nsubj=#NUMBER#'
p223
aS'nsubj=#PRP#'
p224
aS"nsubj='s"
p225
aS'nsubj=Algerians'
p226
aS'nsubj=Amadou'
p227
aS'nsubj=Bush'
p228
aS'nsubj=Cohen'
p229
aS'nsubj=Congo'
p230
aS'nsubj=Congress'
p231
aS'nsubj=Doumbaye'
p232
aS'nsubj=Ethiopia'
p233
aS'nsubj=Fund'
p234
aS'nsubj=Gates'
p235
aS'nsubj=Giuliani'
p236
aS'nsubj=Israel'
p237
aS'nsubj=Kenya'
p238
aS'nsubj=Kenyans'
p239
aS'nsubj=Liberia'
p240
aS'nsubj=Movement'
p241
aS'nsubj=Munene'
p242
aS'nsubj=Pentagon'
p243
aS'nsubj=Pyongyang'
p244
aS'nsubj=Rosinne'
p245
aS'nsubj=Secretary'
p246
aS'nsubj=Seoul'
p247
aS'nsubj=States'
p248
aS'nsubj=Tom'
p249
aS'nsubj=Turkey'
p250
aS'nsubj=University'
p251
aS'nsubj=action'
p252
aS'nsubj=american'
p253
aS'nsubj=anything'
p254
aS'nsubj=arrival'
p255
aS'nsubj=band'
p256
aS'nsubj=child'
p257
aS'nsubj=community'
p258
aS'nsubj=company'
p259
aS'nsubj=contestant'
p260
aS'nsubj=crew'
p261
aS'nsubj=critic'
p262
aS'nsubj=crowd'
p263
aS'nsubj=customer'
p264
aS'nsubj=delegation'
p265
aS'nsubj=democrat'
p266
aS'nsubj=digital'
p267
aS'nsubj=dozen'
p268
aS'nsubj=driver'
p269
aS'nsubj=enemy'
p270
aS'nsubj=everybody'
p271
aS'nsubj=everyone'
p272
aS'nsubj=everything'
p273
aS'nsubj=family'
p274
aS'nsubj=fan'
p275
aS'nsubj=father'
p276
aS'nsubj=fir'
p277
aS'nsubj=government'
p278
aS'nsubj=group'
p279
aS'nsubj=guinean'
p280
aS'nsubj=insurgent'
p281
aS'nsubj=lawmaker'
p282
aS'nsubj=leader'
p283
aS'nsubj=legislator'
p284
aS'nsubj=line'
p285
aS'nsubj=maker'
p286
aS'nsubj=man'
p287
aS'nsubj=many'
p288
aS'nsubj=market'
p289
aS'nsubj=member'
p290
aS'nsubj=minister'
p291
aS'nsubj=most'
p292
aS'nsubj=negotiator'
p293
aS'nsubj=odyssey'
p294
aS'nsubj=official'
p295
aS'nsubj=opponent'
p296
aS'nsubj=opposition'
p297
aS'nsubj=organization'
p298
aS'nsubj=other'
p299
aS'nsubj=panel'
p300
aS'nsubj=parent'
p301
aS'nsubj=party'
p302
aS'nsubj=patient'
p303
aS'nsubj=people'
p304
aS'nsubj=pilot'
p305
aS'nsubj=police'
p306
aS'nsubj=president'
p307
aS'nsubj=problem'
p308
aS'nsubj=protester'
p309
aS'nsubj=public'
p310
aS'nsubj=queue'
p311
aS'nsubj=senator'
p312
aS'nsubj=state'
p313
aS'nsubj=superdelegate'
p314
aS'nsubj=supporter'
p315
aS'nsubj=team'
p316
aS'nsubj=that'
p317
aS'nsubj=third'
p318
aS'nsubj=those'
p319
aS'nsubj=troops'
p320
aS'nsubj=victim'
p321
aS'nsubj=villager'
p322
aS'nsubj=week-and-a-half'
p323
aS'nsubj=who'
p324
aS'nsubj=woman'
p325
aS'nsubj=worker'
p326
aS'nsubj=world'
p327
aS'nsubj=zimbabwean'
p328
aS'parataxis=add'
p329
aS'partmod=lose'
p330
aS'poss=#PRP#'
p331
aS'prep=about'
p332
aS'prep=after'
p333
aS'prep=around'
p334
aS'prep=as'
p335
aS'prep=at'
p336
aS'prep=because'
p337
aS'prep=before'
p338
aS'prep=behind'
p339
aS'prep=below'
p340
aS'prep=by'
p341
aS'prep=despite'
p342
aS'prep=during'
p343
aS'prep=for'
p344
aS'prep=from'
p345
aS'prep=in'
p346
aS'prep=of'
p347
aS'prep=on'
p348
aS'prep=over'
p349
aS'prep=such'
p350
aS'prep=through'
p351
aS'prep=till'
p352
aS'prep=to'
p353
aS'prep=until'
p354
aS'prep=with'
p355
aS'prt=around'
p356
aS'prt=out'
p357
aS'prt=up'
p358
aS'rel=for'
p359
aS'rel=that'
p360
aS'tmod=#DATE#'
p361
aS'tmod=day'
p362
aS'tmod=month'
p363
aS'tmod=time'
p364
aS'tmod=week'
p365
aS'tmod=year'
p366
aS'w+1=!'
p367
aS"w+1='"
p368
aS"w+1='til"
p369
aS'w+1=,'
p370
aS'w+1=-'
p371
aS'w+1=-lrb-'
p372
aS'w+1=.'
p373
aS'w+1=...'
p374
aS'w+1=120'
p375
aS'w+1=22'
p376
aS'w+1=a'
p377
aS'w+1=aircraft'
p378
aS'w+1=and'
p379
aS'w+1=another'
p380
aS'w+1=anxiously'
p381
aS'w+1=any'
p382
aS'w+1=anymore'
p383
aS'w+1=around'
p384
aS'w+1=as'
p385
aS'w+1=at'
p386
aS'w+1=be'
p387
aS'w+1=because'
p388
aS'w+1=before'
p389
aS'w+1=behind'
p390
aS'w+1=below'
p391
aS'w+1=can'
p392
aS'w+1=car'
p393
aS'w+1=during'
p394
aS'w+1=execution'
p395
aS'w+1=far'
p396
aS'w+1=fearfully'
p397
aS'w+1=five'
p398
aS'w+1=for'
p399
aS'w+1=forever'
p400
aS'w+1=game'
p401
aS'w+1=gametwain'
p402
aS'w+1=he'
p403
aS'w+1=here'
p404
aS'w+1=hour'
p405
aS'w+1=impatiently'
p406
aS'w+1=in'
p407
aS'w+1=indefinitely'
p408
aS'w+1=it'
p409
aS'w+1=list'
p410
aS'w+1=long'
p411
aS'w+1=longer'
p412
aS'w+1=military'
p413
aS'w+1=month'
p414
aS'w+1=more'
p415
aS'w+1=much'
p416
aS'w+1=on'
p417
aS'w+1=one'
p418
aS'w+1=out'
p419
aS'w+1=outside'
p420
aS'w+1=over'
p421
aS'w+1=patiently'
p422
aS'w+1=period'
p423
aS'w+1=reporter'
p424
aS'w+1=room'
p425
aS'w+1=seven'
p426
aS'w+1=several'
p427
aS'w+1=since'
p428
aS'w+1=six'
p429
aS'w+1=table'
p430
aS'w+1=ten'
p431
aS'w+1=tensely'
p432
aS'w+1=that'
p433
aS'w+1=there'
p434
aS'w+1=they'
p435
aS'w+1=three'
p436
aS'w+1=throng'
p437
aS'w+1=through'
p438
aS'w+1=time'
p439
aS'w+1=to'
p440
aS'w+1=too'
p441
aS'w+1=two'
p442
aS'w+1=until'
p443
aS'w+1=up'
p444
aS'w+1=we'
p445
aS'w+1=weigh'
p446
aS'w+1=when'
p447
aS'w+1=with'
p448
aS'w+1=word'
p449
aS'w+1=write'
p450
aS'w+1=year'
p451
aS"w+2='"
p452
aS"w+2=''"
p453
aS'w+2=,'
p454
aS'w+2=.'
p455
aS'w+2=200'
p456
aS'w+2=34'
p457
aS'w+2=6'
p458
aS'w+2=60'
p459
aS'w+2=94'
p460
aS'w+2=Algeria'
p461
aS'w+2=Bangkok'
p462
aS'w+2=Ben'
p463
aS'w+2=Boston'
p464
aS'w+2=Congress'
p465
aS'w+2=Ethiopia'
p466
aS'w+2=General'
p467
aS'w+2=I'
p468
aS'w+2=Iran'
p469
aS'w+2=Israel'
p470
aS'w+2=Joseph'
p471
aS'w+2=Minute'
p472
aS'w+2=Mr.'
p473
aS'w+2=Ronald'
p474
aS'w+2=September'
p475
aS'w+2=Thailand'
p476
aS'w+2=Uganda'
p477
aS'w+2=Uhuru'
p478
aS'w+2=Wambach'
p479
aS'w+2=Zimbabwe'
p480
aS'w+2=`'
p481
aS'w+2=a'
p482
aS'w+2=access'
p483
aS'w+2=action'
p484
aS'w+2=additional'
p485
aS'w+2=address'
p486
aS'w+2=after'
p487
aS'w+2=all'
p488
aS'w+2=alone'
p489
aS'w+2=and'
p490
aS'w+2=another'
p491
aS'w+2=assess'
p492
aS'w+2=assistance'
p493
aS'w+2=at'
p494
aS'w+2=average'
p495
aS'w+2=bathe'
p496
aS'w+2=be'
p497
aS'w+2=become'
p498
aS'w+2=bit'
p499
aS'w+2=bring'
p500
aS'w+2=but'
p501
aS'w+2=buy'
p502
aS'w+2=buyer'
p503
aS'w+2=carry'
p504
aS'w+2=chance'
p505
aS'w+2=confirm'
p506
aS'w+2=court'
p507
aS'w+2=cross'
p508
aS'w+2=crowded'
p509
aS'w+2=customer'
p510
aS'w+2=day'
p511
aS'w+2=decisive'
p512
aS'w+2=deep'
p513
aS'w+2=die'
p514
aS'w+2=diplomacy'
p515
aS'w+2=dwindle'
p516
aS'w+2=election'
p517
aS'w+2=enough'
p518
aS'w+2=essential'
p519
aS'w+2=even'
p520
aS'w+2=exactly'
p521
aS'w+2=explode'
p522
aS'w+2=fight'
p523
aS'w+2=file'
p524
aS'w+2=final'
p525
aS'w+2=fix'
p526
aS'w+2=flight'
p527
aS'w+2=food'
p528
aS'w+2=for'
p529
aS'w+2=formal'
p530
aS'w+2=fund'
p531
aS'w+2=get'
p532
aS'w+2=go'
p533
aS'w+2=grain'
p534
aS'w+2=hand'
p535
aS'w+2=happen'
p536
aS'w+2=he'
p537
aS'w+2=hear'
p538
aS'w+2=helicopter'
p539
aS'w+2=help'
p540
aS'w+2=here'
p541
aS'w+2=home'
p542
aS'w+2=hour'
p543
aS'w+2=implementation'
p544
aS'w+2=in'
p545
aS'w+2=incident'
p546
aS'w+2=information'
p547
aS'w+2=inspiration'
p548
aS'w+2=international'
p549
aS'w+2=issue'
p550
aS'w+2=it'
p551
aS'w+2=know'
p552
aS'w+2=larger'
p553
aS'w+2=last'
p554
aS'w+2=least'
p555
aS'w+2=life'
p556
aS'w+2=line'
p557
aS'w+2=little'
p558
aS'w+2=long'
p559
aS'w+2=longer'
p560
aS'w+2=make'
p561
aS'w+2=material'
p562
aS'w+2=maybe'
p563
aS'w+2=meet'
p564
aS'w+2=military'
p565
aS'w+2=minus'
p566
aS'w+2=minute'
p567
aS'w+2=moment'
p568
aS'w+2=month'
p569
aS'w+2=more'
p570
aS'w+2=much'
p571
aS'w+2=my'
p572
aS'w+2=new'
p573
aS'w+2=next'
p574
aS'w+2=now'
p575
aS'w+2=of'
p576
aS'w+2=official'
p577
aS'w+2=on'
p578
aS'w+2=or'
p579
aS'w+2=order'
p580
aS'w+2=organ'
p581
aS'w+2=orphan'
p582
aS'w+2=other'
p583
aS'w+2=out'
p584
aS'w+2=over'
p585
aS'w+2=party'
p586
aS'w+2=patient'
p587
aS'w+2=peace'
p588
aS'w+2=people'
p589
aS'w+2=permanent'
p590
aS'w+2=permission'
p591
aS'w+2=plane'
p592
aS'w+2=policy-maker'
p593
aS'w+2=poll'
p594
aS'w+2=proof'
p595
aS'w+2=purchase'
p596
aS'w+2=rapid'
p597
aS'w+2=re-negotiate'
p598
aS'w+2=re-start'
p599
aS'w+2=reasonable'
p600
aS'w+2=receive'
p601
aS'w+2=recommendation'
p602
aS'w+2=reopen'
p603
aS'w+2=repair'
p604
aS'w+2=reply'
p605
aS'w+2=rescue'
p606
aS'w+2=respond'
p607
aS'w+2=result'
p608
aS'w+2=return'
p609
aS'w+2=see'
p610
aS'w+2=sentencing'
p611
aS'w+2=sharma'
p612
aS'w+2=she'
p613
aS'w+2=so'
p614
aS'w+2=some'
p615
aS'w+2=somebody'
p616
aS'w+2=somewhere'
p617
aS'w+2=start'
p618
aS'w+2=state'
p619
aS'w+2=stop'
p620
aS'w+2=take'
p621
aS'w+2=taste'
p622
aS'w+2=than'
p623
aS'w+2=that'
p624
aS'w+2=the'
p625
aS'w+2=then'
p626
aS'w+2=there'
p627
aS'w+2=they'
p628
aS'w+2=this'
p629
aS'w+2=throw'
p630
aS'w+2=to'
p631
aS'w+2=too'
p632
aS'w+2=town'
p633
aS'w+2=try'
p634
aS'w+2=turn'
p635
aS'w+2=two'
p636
aS'w+2=unity'
p637
aS'w+2=unload'
p638
aS'w+2=vain'
p639
aS'w+2=very'
p640
aS'w+2=virgin'
p641
aS'w+2=visa'
p642
aS'w+2=vote'
p643
aS'w+2=want'
p644
aS'w+2=we'
p645
aS'w+2=week'
p646
aS'w+2=well'
p647
aS'w+2=when'
p648
aS'w+2=whether'
p649
aS'w+2=woman'
p650
aS'w+2=write'
p651
aS'w+2=year'
p652
aS'w+2=you'
p653
aS"w-1=''"
p654
aS"w-1='ll"
p655
aS"w-1='s"
p656
aS'w-1=,'
p657
aS'w-1=-'
p658
aS'w-1=--'
p659
aS'w-1=-rrb-'
p660
aS'w-1=.'
p661
aS'w-1=25-year'
p662
aS'w-1=Cohen'
p663
aS'w-1=Congo'
p664
aS'w-1=Gates'
p665
aS'w-1=Houston'
p666
aS'w-1=I'
p667
aS'w-1=Kenya'
p668
aS'w-1=Khomeini'
p669
aS'w-1=Pentagon'
p670
aS'w-1=Tom'
p671
aS'w-1=Zimbabweans'
p672
aS'w-1=`'
p673
aS'w-1=a'
p674
aS'w-1=about'
p675
aS'w-1=accident'
p676
aS'w-1=all'
p677
aS'w-1=already'
p678
aS'w-1=also'
p679
aS'w-1=and'
p680
aS'w-1=anxiously'
p681
aS'w-1=around'
p682
aS'w-1=arrival'
p683
aS'w-1=artist'
p684
aS'w-1=average'
p685
aS'w-1=band'
p686
aS'w-1=basement'
p687
aS'w-1=be'
p688
aS'w-1=boat'
p689
aS'w-1=bomb'
p690
aS'w-1=breath'
p691
aS'w-1=businessman'
p692
aS'w-1=but'
p693
aS'w-1=by'
p694
aS'w-1=can'
p695
aS'w-1=canot'
p696
aS'w-1=case'
p697
aS'w-1=cathedral'
p698
aS'w-1=cautiously'
p699
aS'w-1=child'
p700
aS'w-1=clash'
p701
aS'w-1=crowded'
p702
aS'w-1=customer'
p703
aS'w-1=driver'
p704
aS'w-1=eagerly'
p705
aS'w-1=engineer'
p706
aS'w-1=even'
p707
aS'w-1=everybody'
p708
aS'w-1=family'
p709
aS'w-1=fan'
p710
aS'w-1=fighter'
p711
aS'w-1=food'
p712
aS'w-1=government'
p713
aS'w-1=ground'
p714
aS'w-1=group'
p715
aS'w-1=have'
p716
aS'w-1=he'
p717
aS'w-1=hour'
p718
aS'w-1=hour-long'
p719
aS'w-1=in'
p720
aS'w-1=include'
p721
aS'w-1=indefinite'
p722
aS'w-1=inside'
p723
aS'w-1=just'
p724
aS'w-1=leave'
p725
aS'w-1=line'
p726
aS'w-1=long'
p727
aS'w-1=longer'
p728
aS'w-1=longest'
p729
aS'w-1=maker'
p730
aS'w-1=man'
p731
aS'w-1=many'
p732
aS'w-1=month'
p733
aS'w-1=motorbike'
p734
aS'w-1=must'
p735
aS'w-1=not'
p736
aS'w-1=now'
p737
aS'w-1=obscurity'
p738
aS'w-1=odyssey'
p739
aS'w-1=of'
p740
aS'w-1=often'
p741
aS'w-1=old'
p742
aS'w-1=only'
p743
aS'w-1=or'
p744
aS'w-1=other'
p745
aS'w-1=passenger'
p746
aS'w-1=patient'
p747
aS'w-1=patiently'
p748
aS'w-1=people'
p749
aS'w-1=police'
p750
aS'w-1=probably'
p751
aS'w-1=public'
p752
aS'w-1=row'
p753
aS'w-1=she'
p754
aS'w-1=should'
p755
aS'w-1=simply'
p756
aS'w-1=sit'
p757
aS'w-1=slowly'
p758
aS'w-1=someone'
p759
aS'w-1=still'
p760
aS'w-1=than'
p761
aS'w-1=that'
p762
aS'w-1=the'
p763
aS'w-1=there'
p764
aS'w-1=they'
p765
aS'w-1=those'
p766
aS'w-1=to'
p767
aS'w-1=up'
p768
aS'w-1=villager'
p769
aS'w-1=voter'
p770
aS'w-1=we'
p771
aS'w-1=weak'
p772
aS'w-1=while'
p773
aS'w-1=who'
p774
aS'w-1=will'
p775
aS'w-1=without'
p776
aS'w-1=woman'
p777
aS'w-1=world'
p778
aS'w-1=would'
p779
aS'w-1=year'
p780
aS"w-2=''"
p781
aS"w-2='ll"
p782
aS"w-2='s"
p783
aS'w-2=,'
p784
aS'w-2=-'
p785
aS'w-2=.'
p786
aS'w-2=...'
p787
aS'w-2=55-year-old'
p788
aS'w-2=:'
p789
aS'w-2=;'
p790
aS'w-2=Algerians'
p791
aS'w-2=April'
p792
aS'w-2=Bush'
p793
aS'w-2=Congress'
p794
aS'w-2=Doumbaye'
p795
aS'w-2=Fund'
p796
aS'w-2=Gates'
p797
aS'w-2=Giuliani'
p798
aS'w-2=I'
p799
aS'w-2=Israel'
p800
aS'w-2=Kenyans'
p801
aS'w-2=Mogadishu'
p802
aS'w-2=New'
p803
aS'w-2=Orleans'
p804
aS'w-2=Prime'
p805
aS'w-2=Pyongyang'
p806
aS'w-2=Robert'
p807
aS'w-2=Ruhollah'
p808
aS'w-2=Secretary'
p809
aS'w-2=Sharif'
p810
aS'w-2=States'
p811
aS'w-2=Thailand'
p812
aS'w-2=Truck'
p813
aS'w-2=Vora'
p814
aS'w-2=`'
p815
aS'w-2=a'
p816
aS'w-2=able'
p817
aS'w-2=adopt'
p818
aS'w-2=agree'
p819
aS'w-2=also'
p820
aS'w-2=always'
p821
aS'w-2=american'
p822
aS'w-2=among'
p823
aS'w-2=and'
p824
aS'w-2=another'
p825
aS'w-2=around'
p826
aS'w-2=as'
p827
aS'w-2=association'
p828
aS'w-2=back'
p829
aS'w-2=be'
p830
aS'w-2=because'
p831
aS'w-2=better'
p832
aS'w-2=broth'
p833
aS'w-2=but'
p834
aS'w-2=by'
p835
aS'w-2=camel'
p836
aS'w-2=can'
p837
aS'w-2=case'
p838
aS'w-2=cause'
p839
aS'w-2=chadian'
p840
aS'w-2=child'
p841
aS'w-2=colombian'
p842
aS'w-2=colorful'
p843
aS'w-2=community'
p844
aS'w-2=company'
p845
aS'w-2=congress'
p846
aS'w-2=continue'
p847
aS'w-2=could'
p848
aS'w-2=critic'
p849
aS'w-2=day'
p850
aS'w-2=dead'
p851
aS'w-2=death'
p852
aS'w-2=decide'
p853
aS'w-2=delegation'
p854
aS'w-2=democrat'
p855
aS'w-2=display'
p856
aS'w-2=do'
p857
aS'w-2=driver'
p858
aS'w-2=eagerly'
p859
aS'w-2=easy'
p860
aS'w-2=eight'
p861
aS'w-2=enough'
p862
aS'w-2=european'
p863
aS'w-2=everybody'
p864
aS'w-2=everyone'
p865
aS'w-2=everything'
p866
aS'w-2=ex-combatant'
p867
aS'w-2=expense'
p868
aS'w-2=five'
p869
aS'w-2=for'
p870
aS'w-2=force'
p871
aS'w-2=game'
p872
aS'w-2=go'
p873
aS'w-2=government'
p874
aS'w-2=greet'
p875
aS'w-2=guinean'
p876
aS'w-2=harm'
p877
aS'w-2=have'
p878
aS'w-2=he'
p879
aS'w-2=high'
p880
aS'w-2=himself'
p881
aS'w-2=home'
p882
aS'w-2=if'
p883
aS'w-2=impossible'
p884
aS'w-2=in'
p885
aS'w-2=instead'
p886
aS'w-2=insurgent'
p887
aS'w-2=into'
p888
aS'w-2=it'
p889
aS'w-2=jail'
p890
aS'w-2=just'
p891
aS'w-2=king'
p892
aS'w-2=larger'
p893
aS'w-2=lawmaker'
p894
aS'w-2=layoff'
p895
aS'w-2=leader'
p896
aS'w-2=leave'
p897
aS'w-2=legislator'
p898
aS'w-2=let'
p899
aS'w-2=lie'
p900
aS'w-2=lifeboat'
p901
aS'w-2=liking'
p902
aS'w-2=line'
p903
aS'w-2=liner'
p904
aS'w-2=long'
p905
aS'w-2=lose'
p906
aS'w-2=lot'
p907
aS'w-2=luxury'
p908
aS'w-2=many'
p909
aS'w-2=member'
p910
aS'w-2=military-installed'
p911
aS'w-2=million'
p912
aS'w-2=minute'
p913
aS'w-2=morning'
p914
aS'w-2=must'
p915
aS'w-2=near'
p916
aS'w-2=need'
p917
aS'w-2=no'
p918
aS'w-2=not'
p919
aS'w-2=now'
p920
aS'w-2=of'
p921
aS'w-2=official'
p922
aS'w-2=ok'
p923
aS'w-2=on'
p924
aS'w-2=one'
p925
aS'w-2=organization'
p926
aS'w-2=other'
p927
aS'w-2=ought'
p928
aS'w-2=out'
p929
aS'w-2=panel'
p930
aS'w-2=parent'
p931
aS'w-2=party'
p932
aS'w-2=patience'
p933
aS'w-2=patient'
p934
aS'w-2=people'
p935
aS'w-2=person'
p936
aS'w-2=pilot'
p937
aS'w-2=pine'
p938
aS'w-2=police'
p939
aS'w-2=policy'
p940
aS'w-2=prepare'
p941
aS'w-2=president'
p942
aS'w-2=protester'
p943
aS'w-2=rather'
p944
aS'w-2=ready'
p945
aS'w-2=rebel'
p946
aS'w-2=refuse'
p947
aS'w-2=relative'
p948
aS'w-2=researcher'
p949
aS'w-2=rest'
p950
aS'w-2=room'
p951
aS'w-2=say'
p952
aS'w-2=shadow'
p953
aS'w-2=she'
p954
aS'w-2=shilling'
p955
aS'w-2=should'
p956
aS'w-2=show'
p957
aS'w-2=side'
p958
aS'w-2=sit'
p959
aS'w-2=so'
p960
aS'w-2=son'
p961
aS'w-2=song'
p962
aS'w-2=space'
p963
aS'w-2=station'
p964
aS'w-2=still'
p965
aS'w-2=straight'
p966
aS'w-2=strength'
p967
aS'w-2=superdelegate'
p968
aS'w-2=supporter'
p969
aS'w-2=talk'
p970
aS'w-2=taxi'
p971
aS'w-2=team'
p972
aS'w-2=tell'
p973
aS'w-2=temperature'
p974
aS'w-2=terminal'
p975
aS'w-2=that'
p976
aS'w-2=the'
p977
aS'w-2=they'
p978
aS'w-2=think'
p979
aS'w-2=third'
p980
aS'w-2=time'
p981
aS'w-2=to'
p982
aS'w-2=trap'
p983
aS'w-2=troops'
p984
aS'w-2=try'
p985
aS'w-2=turn'
p986
aS'w-2=untenable'
p987
aS'w-2=view'
p988
aS'w-2=vow'
p989
aS'w-2=want'
p990
aS'w-2=watch'
p991
aS'w-2=we'
p992
aS'w-2=welcome'
p993
aS'w-2=when'
p994
aS'w-2=where'
p995
aS'w-2=while'
p996
aS'w-2=who'
p997
aS'w-2=will'
p998
aS'w-2=willing'
p999
aS'w-2=with'
p1000
aS'w-2=withdrawal'
p1001
aS'w-2=woman'
p1002
aS'w-2=word'
p1003
aS'w-2=world'
p1004
aS'w-2=world-wide'
p1005
aS'w-2=worth'
p1006
aS'w-2=would'
p1007
aS'w-2=year'
p1008
aS'w-2=you'
p1009
aS'xcomp=achieve'
p1010
aS'xcomp=act'
p1011
aS'xcomp=address'
p1012
aS'xcomp=agree'
p1013
aS'xcomp=announce'
p1014
aS'xcomp=arrive'
p1015
aS'xcomp=assess'
p1016
aS'xcomp=attack'
p1017
aS'xcomp=bathe'
p1018
aS'xcomp=be'
p1019
aS'xcomp=begin'
p1020
aS'xcomp=bring'
p1021
aS'xcomp=buy'
p1022
aS'xcomp=call'
p1023
aS'xcomp=carry'
p1024
aS'xcomp=cast'
p1025
aS'xcomp=celebrate'
p1026
aS'xcomp=choose'
p1027
aS'xcomp=collect'
p1028
aS'xcomp=come'
p1029
aS'xcomp=complete'
p1030
aS'xcomp=conclude'
p1031
aS'xcomp=confirm'
p1032
aS'xcomp=convene'
p1033
aS'xcomp=cook'
p1034
aS'xcomp=cross'
p1035
aS'xcomp=decide'
p1036
aS'xcomp=deliver'
p1037
aS'xcomp=detain'
p1038
aS'xcomp=die'
p1039
aS'xcomp=discover'
p1040
aS'xcomp=do'
p1041
aS'xcomp=end'
p1042
aS'xcomp=enter'
p1043
aS'xcomp=explode'
p1044
aS'xcomp=fall'
p1045
aS'xcomp=find'
p1046
aS'xcomp=fix'
p1047
aS'xcomp=fund'
p1048
aS'xcomp=gather'
p1049
aS'xcomp=get'
p1050
aS'xcomp=give'
p1051
aS'xcomp=go'
p1052
aS'xcomp=grant'
p1053
aS'xcomp=hand'
p1054
aS'xcomp=happen'
p1055
aS'xcomp=hear'
p1056
aS'xcomp=hold'
p1057
aS'xcomp=hope'
p1058
aS'xcomp=improve'
p1059
aS'xcomp=integrate'
p1060
aS'xcomp=issue'
p1061
aS'xcomp=know'
p1062
aS'xcomp=launch'
p1063
aS'xcomp=live'
p1064
aS'xcomp=make'
p1065
aS'xcomp=meet'
p1066
aS'xcomp=normalize'
p1067
aS'xcomp=occur'
p1068
aS'xcomp=open'
p1069
aS'xcomp=overwhelm'
p1070
aS'xcomp=owner'
p1071
aS'xcomp=pass'
p1072
aS'xcomp=pay'
p1073
aS'xcomp=pick'
p1074
aS'xcomp=provide'
p1075
aS'xcomp=purchase'
p1076
aS'xcomp=re-negotiate'
p1077
aS'xcomp=re-start'
p1078
aS'xcomp=react'
p1079
aS'xcomp=receive'
p1080
aS'xcomp=register'
p1081
aS'xcomp=reopen'
p1082
aS'xcomp=replace'
p1083
aS'xcomp=reply'
p1084
aS'xcomp=rescue'
p1085
aS'xcomp=respond'
p1086
aS'xcomp=restore'
p1087
aS'xcomp=return'
p1088
aS'xcomp=say'
p1089
aS'xcomp=see'
p1090
aS'xcomp=send'
p1091
aS'xcomp=sign'
p1092
aS'xcomp=start'
p1093
aS'xcomp=stop'
p1094
aS'xcomp=swear'
p1095
aS'xcomp=take'
p1096
aS'xcomp=taste'
p1097
aS'xcomp=throw'
p1098
aS'xcomp=transfer'
p1099
aS'xcomp=try'
p1100
aS'xcomp=unload'
p1101
aS'xcomp=vote'
p1102
aS'xcomp=work'
p1103
aS'xcomp=write'
p1104
asS'dtype'
p1105
cnumpy
float64
p1106
sS'vocabulary_'
p1107
(dp1108
g338
I329
sg261
I252
sg591
I582
sg37
I28
sg352
I343
sg1101
I1092
sg47
I38
sg768
I759
sg992
I983
sg420
I411
sg834
I825
sg935
I926
sg318
I309
sg39
I30
sg213
I204
sg196
I187
sg153
I144
sg572
I563
sg519
I510
sg966
I957
sg257
I248
sg1062
I1053
sg574
I565
sg503
I494
sg217
I208
sg501
I492
sg44
I35
sg502
I493
sg802
I793
sg316
I307
sg549
I540
sg1015
I1006
sg172
I163
sg1023
I1014
sg443
I434
sg809
I800
sg939
I930
sg891
I882
sg703
I694
sg887
I878
sg189
I180
sg704
I695
sg103
I94
sg203
I194
sg917
I908
sg539
I530
sg35
I26
sg1021
I1012
sg940
I931
sg753
I744
sg341
I332
sg288
I279
sg807
I798
sg553
I544
sg657
I648
sg195
I186
sg314
I305
sg40
I31
sg947
I938
sg433
I424
sg36
I27
sg580
I571
sg278
I269
sg948
I939
sg1042
I1033
sg779
I770
sg562
I553
sg128
I119
sg794
I785
sg69
I60
sg408
I399
sg989
I980
sg21
I12
sg437
I428
sg63
I54
sg246
I237
sg770
I761
sg984
I975
sg300
I291
sg91
I82
sg84
I75
sg701
I692
sg441
I432
sg376
I367
sg955
I946
sg1069
I1060
sg1014
I1005
sg407
I398
sg775
I766
sg205
I196
sg144
I135
sg10
I1
sg60
I51
sg512
I503
sg668
I659
sg247
I238
sg694
I685
sg375
I366
sg232
I223
sg688
I679
sg823
I814
sg799
I790
sg225
I216
sg605
I596
sg231
I222
sg977
I968
sg41
I32
sg339
I330
sg756
I747
sg1051
I1042
sg564
I555
sg123
I114
sg283
I274
sg995
I986
sg712
I703
sg738
I729
sg265
I256
sg215
I206
sg997
I988
sg536
I527
sg448
I439
sg284
I275
sg631
I622
sg417
I408
sg909
I900
sg162
I153
sg554
I545
sg72
I63
sg587
I578
sg882
I873
sg890
I881
sg181
I172
sg555
I546
sg716
I707
sg134
I125
sg667
I658
sg581
I572
sg596
I587
sg545
I536
sg971
I962
sg551
I542
sg1087
I1078
sg1090
I1081
sg280
I271
sg855
I846
sg1074
I1065
sg759
I750
sg548
I539
sg803
I794
sg679
I670
sg112
I103
sg138
I129
sg334
I325
sg135
I126
sg1086
I1077
sg1097
I1088
sg1095
I1086
sg1016
I1007
sg61
I52
sg177
I168
sg752
I743
sg1061
I1052
sg643
I634
sg498
I489
sg509
I500
sg1017
I1008
sg398
I389
sg713
I704
sg669
I660
sg190
I181
sg743
I734
sg967
I958
sg976
I967
sg156
I147
sg559
I550
sg621
I612
sg192
I183
sg861
I852
sg298
I289
sg55
I46
sg821
I812
sg83
I74
sg497
I488
sg937
I928
sg435
I426
sg237
I228
sg782
I773
sg854
I845
sg335
I326
sg229
I220
sg1045
I1036
sg249
I240
sg1053
I1044
sg346
I337
sg71
I62
sg120
I111
sg599
I590
sg399
I390
sg126
I117
sg675
I666
sg896
I887
sg1054
I1045
sg571
I562
sg294
I285
sg872
I863
sg143
I134
sg460
I451
sg191
I182
sg666
I657
sg635
I626
sg353
I344
sg746
I737
sg16
I7
sg15
I6
sg252
I243
sg842
I833
sg427
I418
sg663
I654
sg233
I224
sg728
I719
sg884
I875
sg894
I885
sg760
I751
sg384
I375
sg379
I370
sg843
I834
sg833
I824
sg164
I155
sg52
I43
sg212
I203
sg240
I231
sg1039
I1030
sg17
I8
sg88
I79
sg1065
I1056
sg709
I700
sg529
I520
sg1059
I1050
sg755
I746
sg68
I59
sg180
I171
sg317
I308
sg999
I990
sg402
I393
sg520
I511
sg874
I865
sg358
I349
sg73
I64
sg315
I306
sg600
I591
sg235
I226
sg238
I229
sg557
I548
sg720
I711
sg1006
I997
sg645
I636
sg986
I977
sg638
I629
sg148
I139
sg279
I270
sg193
I184
sg510
I501
sg139
I130
sg980
I971
sg763
I754
sg426
I417
sg550
I541
sg672
I663
sg1028
I1019
sg216
I207
sg424
I415
sg592
I583
sg836
I827
sg772
I763
sg329
I320
sg575
I566
sg450
I441
sg99
I90
sg1060
I1051
sg839
I830
sg511
I502
sg253
I244
sg692
I683
sg819
I810
sg978
I969
sg325
I316
sg395
I386
sg102
I93
sg732
I723
sg1094
I1085
sg140
I131
sg176
I167
sg522
I513
sg149
I140
sg611
I602
sg282
I273
sg943
I934
sg220
I211
sg933
I924
sg185
I176
sg320
I311
sg806
I797
sg844
I835
sg478
I469
sg1096
I1087
sg457
I448
sg53
I44
sg476
I467
sg260
I251
sg805
I796
sg808
I799
sg664
I655
sg610
I601
sg390
I381
sg778
I769
sg705
I696
sg324
I315
sg393
I384
sg1057
I1048
sg968
I959
sg793
I784
sg1029
I1020
sg711
I702
sg869
I860
sg243
I234
sg392
I383
sg290
I281
sg849
I840
sg924
I915
sg767
I758
sg449
I440
sg923
I914
sg1040
I1031
sg76
I67
sg875
I866
sg527
I518
sg892
I883
sg570
I561
sg846
I837
sg302
I293
sg152
I143
sg187
I178
sg757
I748
sg857
I848
sg382
I373
sg941
I932
sg477
I468
sg105
I96
sg541
I532
sg425
I416
sg391
I382
sg467
I458
sg868
I859
sg89
I80
sg569
I560
sg430
I421
sg285
I276
sg59
I50
sg483
I474
sg946
I937
sg349
I340
sg385
I376
sg825
I816
sg42
I33
sg484
I475
sg131
I122
sg210
I201
sg157
I148
sg259
I250
sg403
I394
sg962
I953
sg67
I58
sg897
I888
sg1072
I1063
sg614
I605
sg357
I348
sg931
I922
sg19
I10
sg983
I974
sg797
I788
sg150
I141
sg665
I656
sg1079
I1070
sg585
I576
sg436
I427
sg695
I686
sg922
I913
sg649
I640
sg1025
I1016
sg817
I808
sg678
I669
sg847
I838
sg582
I573
sg690
I681
sg766
I757
sg442
I433
sg1104
I1095
sg1064
I1055
sg696
I687
sg945
I936
sg725
I716
sg961
I952
sg954
I945
sg818
I809
sg344
I335
sg57
I48
sg26
I17
sg500
I491
sg451
I442
sg77
I68
sg175
I166
sg463
I454
sg584
I575
sg1018
I1009
sg659
I650
sg228
I219
sg494
I485
sg530
I521
sg459
I450
sg1041
I1032
sg86
I77
sg24
I15
sg792
I783
sg609
I600
sg209
I200
sg865
I856
sg619
I610
sg727
I718
sg104
I95
sg51
I42
sg147
I138
sg432
I423
sg815
I806
sg656
I647
sg13
I4
sg438
I429
sg78
I69
sg487
I478
sg796
I787
sg1044
I1035
sg410
I401
sg535
I526
sg471
I462
sg263
I254
sg895
I886
sg697
I688
sg141
I132
sg94
I85
sg620
I611
sg307
I298
sg928
I919
sg1088
I1079
sg637
I628
sg563
I554
sg812
I803
sg434
I425
sg915
I906
sg1077
I1068
sg969
I960
sg616
I607
sg1032
I1023
sg798
I789
sg223
I214
sg595
I586
sg613
I604
sg414
I405
sg593
I584
sg856
I847
sg356
I347
sg534
I525
sg165
I156
sg588
I579
sg211
I202
sg654
I645
sg647
I638
sg108
I99
sg1103
I1094
sg853
I844
sg810
I801
sg275
I266
sg23
I14
sg470
I461
sg749
I740
sg942
I933
sg652
I643
sg840
I831
sg881
I872
sg255
I246
sg641
I632
sg804
I795
sg11
I2
sg579
I570
sg359
I350
sg973
I964
sg781
I772
sg524
I515
sg577
I568
sg576
I567
sg513
I504
sg683
I674
sg145
I136
sg916
I907
sg1071
I1062
sg440
I431
sg560
I551
sg495
I486
sg528
I519
sg537
I528
sg561
I552
sg859
I850
sg1089
I1080
sg1058
I1049
sg722
I713
sg20
I11
sg829
I820
sg489
I480
sg538
I529
sg993
I984
sg465
I456
sg773
I764
sg598
I589
sg544
I535
sg726
I717
sg160
I151
sg137
I128
sg525
I516
sg734
I725
sg28
I19
sg1082
I1073
sg1027
I1018
sg702
I693
sg951
I942
sg475
I466
sg783
I774
sg852
I843
sg754
I745
sg1009
I1000
sg29
I20
sg98
I89
sg640
I631
sg636
I627
sg360
I351
sg860
I851
sg718
I709
sg286
I277
sg886
I877
sg239
I230
sg607
I598
sg903
I894
sg832
I823
sg918
I909
sg82
I73
sg251
I242
sg873
I864
sg905
I896
sg676
I667
sg25
I16
sg452
I443
sg184
I175
sg388
I379
sg74
I65
sg171
I162
sg411
I402
sg313
I304
sg130
I121
sg655
I646
sg182
I173
sg75
I66
sg204
I195
sg421
I412
sg1007
I998
sg888
I879
sg958
I949
sg155
I146
sg54
I45
sg949
I940
sg991
I982
sg362
I353
sg629
I620
sg422
I413
sg281
I272
sg154
I145
sg644
I635
sg124
I115
sg1005
I996
sg788
I779
sg267
I258
sg963
I954
sg428
I419
sg250
I241
sg630
I621
sg49
I40
sg354
I345
sg1013
I1004
sg745
I736
sg841
I832
sg507
I498
sg96
I87
sg201
I192
sg227
I218
sg900
I891
sg912
I903
sg1049
I1040
sg423
I414
sg221
I212
sg930
I921
sg1083
I1074
sg178
I169
sg114
I105
sg106
I97
sg474
I465
sg1000
I991
sg723
I714
sg820
I811
sg119
I110
sg606
I597
sg504
I495
sg573
I564
sg1038
I1029
sg934
I925
sg648
I639
sg975
I966
sg248
I239
sg964
I955
sg491
I482
sg304
I295
sg355
I346
sg464
I455
sg959
I950
sg565
I556
sg258
I249
sg92
I83
sg269
I260
sg965
I956
sg981
I972
sg22
I13
sg589
I580
sg601
I592
sg244
I235
sg1093
I1084
sg50
I41
sg311
I302
sg883
I874
sg274
I265
sg9
I0
sg327
I318
sg658
I649
sg885
I876
sg70
I61
sg850
I841
sg681
I672
sg898
I889
sg864
I855
sg889
I880
sg129
I120
sg777
I768
sg851
I842
sg79
I70
sg271
I262
sg337
I328
sg396
I387
sg416
I407
sg409
I400
sg66
I57
sg514
I505
sg65
I56
sg151
I142
sg109
I100
sg401
I392
sg486
I477
sg646
I637
sg719
I710
sg230
I221
sg505
I496
sg540
I531
sg911
I902
sg142
I133
sg612
I603
sg226
I217
sg262
I253
sg453
I444
sg926
I917
sg1078
I1069
sg58
I49
sg383
I374
sg236
I227
sg312
I303
sg400
I391
sg795
I786
sg1084
I1075
sg254
I245
sg429
I420
sg1002
I993
sg406
I397
sg48
I39
sg431
I422
sg1100
I1091
sg446
I437
sg811
I802
sg234
I225
sg566
I557
sg699
I690
sg526
I517
sg594
I585
sg651
I642
sg62
I53
sg878
I869
sg1050
I1041
sg121
I112
sg323
I314
sg508
I499
sg687
I678
sg758
I749
sg684
I675
sg724
I715
sg387
I378
sg350
I341
sg552
I543
sg877
I868
sg518
I509
sg693
I684
sg404
I395
sg994
I985
sg972
I963
sg45
I36
sg813
I804
sg642
I633
sg950
I941
sg194
I185
sg615
I606
sg295
I286
sg899
I890
sg366
I357
sg64
I55
sg372
I363
sg586
I577
sg479
I470
sg305
I296
sg14
I5
sg207
I198
sg224
I215
sg93
I84
sg90
I81
sg533
I524
sg558
I549
sg700
I691
sg340
I331
sg122
I113
sg321
I312
sg322
I313
sg532
I523
sg301
I292
sg590
I581
sg331
I322
sg418
I409
sg186
I177
sg932
I923
sg485
I476
sg974
I965
sg1031
I1022
sg689
I680
sg365
I356
sg342
I333
sg698
I689
sg748
I739
sg170
I161
sg826
I817
sg543
I534
sg1001
I992
sg776
I767
sg936
I927
sg1076
I1067
sg617
I608
sg116
I107
sg56
I47
sg691
I682
sg914
I905
sg80
I71
sg546
I537
sg1033
I1024
sg1019
I1010
sg542
I533
sg1055
I1046
sg1010
I1001
sg289
I280
sg845
I836
sg780
I771
sg715
I706
sg473
I464
sg830
I821
sg347
I338
sg634
I625
sg791
I782
sg1022
I1013
sg921
I912
sg348
I339
sg412
I403
sg1067
I1058
sg714
I705
sg708
I699
sg287
I278
sg179
I170
sg516
I507
sg800
I791
sg835
I826
sg733
I724
sg381
I372
sg38
I29
sg31
I22
sg458
I449
sg330
I321
sg848
I839
sg169
I160
sg270
I261
sg876
I867
sg272
I263
sg168
I159
sg938
I929
sg188
I179
sg706
I697
sg1043
I1034
sg517
I508
sg671
I662
sg710
I701
sg567
I558
sg685
I676
sg531
I522
sg1085
I1076
sg101
I92
sg970
I961
sg742
I733
sg624
I615
sg858
I849
sg146
I137
sg292
I283
sg455
I446
sg462
I453
sg1034
I1025
sg774
I765
sg547
I538
sg990
I981
sg744
I735
sg113
I104
sg904
I895
sg166
I157
sg158
I149
sg30
I21
sg461
I452
sg293
I284
sg1099
I1090
sg374
I365
sg632
I623
sg43
I34
sg866
I857
sg740
I731
sg306
I297
sg523
I514
sg982
I973
sg490
I481
sg361
I352
sg824
I815
sg206
I197
sg444
I435
sg506
I497
sg1073
I1064
sg308
I299
sg219
I210
sg242
I233
sg136
I127
sg953
I944
sg925
I916
sg198
I189
sg163
I154
sg364
I355
sg291
I282
sg472
I463
sg879
I870
sg1066
I1057
sg415
I406
sg107
I98
sg1004
I995
sg81
I72
sg241
I232
sg952
I943
sg1052
I1043
sg908
I899
sg682
I673
sg625
I616
sg336
I327
sg998
I989
sg863
I854
sg87
I78
sg125
I116
sg784
I775
sg785
I776
sg786
I777
sg680
I671
sg639
I630
sg985
I976
sg1080
I1071
sg115
I106
sg397
I388
sg979
I970
sg469
I460
sg789
I780
sg790
I781
sg661
I652
sg1047
I1038
sg127
I118
sg174
I165
sg919
I910
sg920
I911
sg996
I987
sg159
I150
sg32
I23
sg46
I37
sg828
I819
sg603
I594
sg413
I404
sg827
I818
sg901
I892
sg332
I323
sg351
I342
sg927
I918
sg273
I264
sg380
I371
sg653
I644
sg117
I108
sg394
I385
sg1020
I1011
sg739
I730
sg929
I920
sg838
I829
sg445
I436
sg456
I447
sg133
I124
sg1024
I1015
sg816
I807
sg208
I199
sg862
I853
sg765
I756
sg496
I487
sg907
I898
sg183
I174
sg674
I665
sg673
I664
sg604
I595
sg623
I614
sg277
I268
sg266
I257
sg1026
I1017
sg439
I430
sg386
I377
sg363
I354
sg202
I193
sg960
I951
sg1056
I1047
sg1081
I1072
sg214
I205
sg1075
I1066
sg717
I708
sg95
I86
sg1030
I1021
sg627
I618
sg822
I813
sg910
I901
sg660
I651
sg1092
I1083
sg256
I247
sg488
I479
sg310
I301
sg1011
I1002
sg628
I619
sg1003
I994
sg299
I290
sg333
I324
sg297
I288
sg369
I360
sg1012
I1003
sg200
I191
sg750
I741
sg626
I617
sg735
I726
sg1008
I999
sg1046
I1037
sg602
I593
sg1102
I1093
sg814
I805
sg867
I858
sg957
I948
sg18
I9
sg870
I861
sg622
I613
sg686
I677
sg296
I287
sg33
I24
sg1070
I1061
sg34
I25
sg493
I484
sg268
I259
sg167
I158
sg578
I569
sg769
I760
sg1063
I1054
sg100
I91
sg1091
I1082
sg944
I935
sg405
I396
sg173
I164
sg218
I209
sg303
I294
sg662
I653
sg707
I698
sg677
I668
sg618
I609
sg1098
I1089
sg345
I336
sg85
I76
sg902
I893
sg583
I574
sg893
I884
sg447
I438
sg1068
I1059
sg110
I101
sg132
I123
sg771
I762
sg1048
I1039
sg118
I109
sg389
I380
sg956
I947
sg633
I624
sg987
I978
sg1037
I1028
sg27
I18
sg319
I310
sg12
I3
sg1036
I1027
sg367
I358
sg747
I738
sg751
I742
sg326
I317
sg368
I359
sg762
I753
sg466
I457
sg199
I190
sg371
I362
sg370
I361
sg373
I364
sg276
I267
sg309
I300
sg837
I828
sg454
I445
sg741
I732
sg787
I778
sg988
I979
sg378
I369
sg222
I213
sg597
I588
sg343
I334
sg521
I512
sg670
I661
sg880
I871
sg556
I547
sg245
I236
sg468
I459
sg492
I483
sg480
I471
sg729
I720
sg515
I506
sg419
I410
sg568
I559
sg377
I368
sg737
I728
sg736
I727
sg801
I792
sg97
I88
sg913
I904
sg264
I255
sg608
I599
sg499
I490
sg761
I752
sg650
I641
sg721
I712
sg831
I822
sg731
I722
sg871
I862
sg111
I102
sg730
I721
sg906
I897
sg764
I755
sg161
I152
sg1035
I1026
sg481
I472
sg482
I473
sg328
I319
sg197
I188
ssS'separator'
p1109
S'='
sS'sparse'
p1110
I01
sb.