ccopy_reg
_reconstructor
p1
(csklearn.feature_extraction.dict_vectorizer
DictVectorizer
p2
c__builtin__
object
p3
NtRp4
(dp5
S'sort'
p6
I01
sS'feature_names_'
p7
(lp8
S'advcl=be'
p9
aS'advcl=change'
p10
aS'advcl=decline'
p11
aS'advcl=direct'
p12
aS'advcl=set'
p13
aS'advmod=actually'
p14
aS'advmod=all'
p15
aS'advmod=already'
p16
aS'advmod=also'
p17
aS'advmod=annually'
p18
aS'advmod=even'
p19
aS'advmod=ever'
p20
aS'advmod=far'
p21
aS'advmod=long'
p22
aS'advmod=now'
p23
aS'advmod=only'
p24
aS'advmod=slightly'
p25
aS'advmod=that'
p26
aS'aux=be'
p27
aS'aux=can'
p28
aS'aux=could'
p29
aS'aux=do'
p30
aS'aux=have'
p31
aS'aux=should'
p32
aS'aux=to'
p33
aS'aux=will'
p34
aS'aux=would'
p35
aS'auxpass=be'
p36
aS'cc=and'
p37
aS'cc=but'
p38
aS'ccomp=allow'
p39
aS'ccomp=charge'
p40
aS'ccomp=get'
p41
aS'ccomp=say'
p42
aS'complm=that'
p43
aS'complm=whether'
p44
aS'conj=go'
p45
aS'conj=have'
p46
aS'conj=oppose'
p47
aS'dep=without'
p48
aS'dobj=#NUMBER#'
p49
aS'dobj=$'
p50
aS'dobj=China'
p51
aS'dobj=authority'
p52
aS'dobj=border'
p53
aS'dobj=capacity'
p54
aS'dobj=cash'
p55
aS'dobj=country'
p56
aS'dobj=degree'
p57
aS'dobj=demand'
p58
aS'dobj=dollar'
p59
aS'dobj=estimate'
p60
aS'dobj=expectation'
p61
aS'dobj=figure'
p62
aS'dobj=goal'
p63
aS'dobj=leave'
p64
aS'dobj=level'
p65
aS'dobj=lifetime'
p66
aS'dobj=limit'
p67
aS'dobj=megawatt'
p68
aS'dobj=minute'
p69
aS'dobj=number'
p70
aS'dobj=obligation'
p71
aS'dobj=people'
p72
aS'dobj=percent'
p73
aS'dobj=power'
p74
aS'dobj=projection'
p75
aS'dobj=rate'
p76
aS'dobj=record'
p77
aS'dobj=request'
p78
aS'dobj=shilling'
p79
aS'dobj=soldier'
p80
aS'dobj=standard'
p81
aS'dobj=status'
p82
aS'dobj=supply'
p83
aS'dobj=target'
p84
aS'dobj=that'
p85
aS'dobj=those'
p86
aS'dobj=threshold'
p87
aS'dobj=total'
p88
aS'dobj=whites'
p89
aS'mark=because'
p90
aS'mark=if'
p91
aS'mark=since'
p92
aS'neg=never'
p93
aS'neg=not'
p94
aS'nsubj=#NUMBER#'
p95
aS'nsubj=#PRP#'
p96
aS'nsubj=Bush'
p97
aS'nsubj=Congress'
p98
aS'nsubj=Fernandez'
p99
aS'nsubj=Russians'
p100
aS'nsubj=U.S.'
p101
aS'nsubj=aspect'
p102
aS'nsubj=average'
p103
aS'nsubj=bill'
p104
aS'nsubj=both'
p105
aS'nsubj=charge'
p106
aS'nsubj=cost'
p107
aS'nsubj=debt'
p108
aS'nsubj=demand'
p109
aS'nsubj=deployment'
p110
aS'nsubj=drop'
p111
aS'nsubj=emission'
p112
aS'nsubj=environment'
p113
aS'nsubj=exodus'
p114
aS'nsubj=funding'
p115
aS'nsubj=influx'
p116
aS'nsubj=kind'
p117
aS'nsubj=lead'
p118
aS'nsubj=money'
p119
aS'nsubj=number'
p120
aS'nsubj=population'
p121
aS'nsubj=president'
p122
aS'nsubj=rate'
p123
aS'nsubj=request'
p124
aS'nsubj=sale'
p125
aS'nsubj=spread'
p126
aS'nsubj=student'
p127
aS'nsubj=supply'
p128
aS'nsubj=support'
p129
aS'nsubj=technology'
p130
aS'nsubj=that'
p131
aS'nsubj=toll'
p132
aS'nsubj=turnout'
p133
aS'nsubj=value'
p134
aS'nsubj=winner'
p135
aS'nsubj=work'
p136
aS'nsubjpass=quota'
p137
aS'parataxis=$'
p138
aS'parataxis=say'
p139
aS'partmod=drive'
p140
aS'prep=as'
p141
aS'prep=at'
p142
aS'prep=begin'
p143
aS'prep=by'
p144
aS'prep=for'
p145
aS'prep=from'
p146
aS'prep=in'
p147
aS'prep=include'
p148
aS'prep=of'
p149
aS'prep=on'
p150
aS'prep=since'
p151
aS'prep=through'
p152
aS'prep=to'
p153
aS'rel=in'
p154
aS'tmod=#DATE#'
p155
aS'w+1=$'
p156
aS'w+1=10'
p157
aS'w+1=100'
p158
aS'w+1=100,000'
p159
aS'w+1=140'
p160
aS'w+1=4,000'
p161
aS'w+1=4.5'
p162
aS'w+1=40'
p163
aS'w+1=45'
p164
aS'w+1=50'
p165
aS'w+1=50,000'
p166
aS'w+1=65'
p167
aS'w+1=80'
p168
aS'w+1=China'
p169
aS'w+1=President'
p170
aS'w+1=Roger'
p171
aS'w+1=September'
p172
aS'w+1=U.S.'
p173
aS'w+1=a'
p174
aS'w+1=all'
p175
aS'w+1=any'
p176
aS'w+1=expectation'
p177
aS'w+1=four'
p178
aS'w+1=he'
p179
aS'w+1=in'
p180
aS'w+1=international'
p181
aS'w+1=its'
p182
aS'w+1=last'
p183
aS'w+1=my'
p184
aS'w+1=official'
p185
aS'w+1=one'
p186
aS'w+1=seven'
p187
aS'w+1=six-point-five'
p188
aS'w+1=supply'
p189
aS'w+1=sustainable'
p190
aS'w+1=that'
p191
aS'w+1=the'
p192
aS'w+1=they'
p193
aS'w+1=this'
p194
aS'w+1=those'
p195
aS'w+1=two'
p196
aS'w+1=two-thousand'
p197
aS'w+1=we'
p198
aS'w+1=what'
p199
aS'w+1=whites'
p200
aS'w+2=,'
p201
aS'w+2=.'
p202
aS'w+2=1,000'
p203
aS'w+2=1.2'
p204
aS'w+2=20'
p205
aS'w+2=2008'
p206
aS'w+2=3'
p207
aS'w+2=300'
p208
aS'w+2=40'
p209
aS'w+2=50'
p210
aS'w+2=600'
p211
aS'w+2=61'
p212
aS'w+2=8,000'
p213
aS'w+2=Bush'
p214
aS'w+2=Maris'
p215
aS'w+2=Measles'
p216
aS'w+2=Parliament'
p217
aS'w+2=United'
p218
aS'w+2=allotted'
p219
aS'w+2=and'
p220
aS'w+2=authority'
p221
aS'w+2=billion'
p222
aS'w+2=border'
p223
aS'w+2=budget'
p224
aS'w+2=budgetary'
p225
aS'w+2=building'
p226
aS'w+2=capacity'
p227
aS'w+2=cash'
p228
aS'w+2=constitutional'
p229
aS'w+2=degree'
p230
aS'w+2=expectation'
p231
aS'w+2=he'
p232
aS'w+2=in'
p233
aS'w+2=independent'
p234
aS'w+2=initial'
p235
aS'w+2=international'
p236
aS'w+2=level'
p237
aS'w+2=limit'
p238
aS'w+2=megawatt'
p239
aS'w+2=mile'
p240
aS'w+2=million'
p241
aS'w+2=minute'
p242
aS'w+2=number'
p243
aS'w+2=obligation'
p244
aS'w+2=of'
p245
aS'w+2=other'
p246
aS'w+2=own'
p247
aS'w+2=people'
p248
aS'w+2=percent'
p249
aS'w+2=plan'
p250
aS'w+2=president'
p251
aS'w+2=projection'
p252
aS'w+2=rate'
p253
aS'w+2=shilling'
p254
aS'w+2=soldier'
p255
aS'w+2=speed'
p256
aS'w+2=standard'
p257
aS'w+2=sustainable'
p258
aS'w+2=the'
p259
aS'w+2=they'
p260
aS'w+2=time'
p261
aS'w+2=typical'
p262
aS'w+2=year'
p263
aS'w-1=,'
p264
aS'w-1=-'
p265
aS'w-1=Bush'
p266
aS'w-1=Congress'
p267
aS'w-1=Fernandez'
p268
aS'w-1=Russians'
p269
aS'w-1=Simferopol'
p270
aS'w-1=accord'
p271
aS'w-1=actually'
p272
aS'w-1=administration'
p273
aS'w-1=after'
p274
aS'w-1=all'
p275
aS'w-1=already'
p276
aS'w-1=be'
p277
aS'w-1=bill'
p278
aS'w-1=both'
p279
aS'w-1=case'
p280
aS'w-1=could'
p281
aS'w-1=do'
p282
aS'w-1=driver'
p283
aS'w-1=drop'
p284
aS'w-1=environment'
p285
aS'w-1=even'
p286
aS'w-1=far'
p287
aS'w-1=food'
p288
aS'w-1=for'
p289
aS'w-1=force'
p290
aS'w-1=have'
p291
aS'w-1=he'
p292
aS'w-1=it'
p293
aS'w-1=long'
p294
aS'w-1=million'
p295
aS'w-1=never'
p296
aS'w-1=not'
p297
aS'w-1=now'
p298
aS'w-1=oil'
p299
aS'w-1=only'
p300
aS'w-1=population'
p301
aS'w-1=president'
p302
aS'w-1=rate'
p303
aS'w-1=slightly'
p304
aS'w-1=smoke'
p305
aS'w-1=temperature'
p306
aS'w-1=test'
p307
aS'w-1=that'
p308
aS'w-1=think'
p309
aS'w-1=to'
p310
aS'w-1=turnout'
p311
aS'w-1=value'
p312
aS'w-1=vehicle'
p313
aS'w-1=will'
p314
aS'w-1=work'
p315
aS'w-1=would'
p316
aS'w-1=you'
p317
aS"w-2='s"
p318
aS'w-2=,'
p319
aS'w-2=.'
p320
aS'w-2=10'
p321
aS'w-2=2008'
p322
aS'w-2=286'
p323
aS'w-2=5,000'
p324
aS'w-2=I'
p325
aS'w-2=Iraq'
p326
aS'w-2=President'
p327
aS'w-2=Security'
p328
aS'w-2=U.S.'
p329
aS'w-2=a'
p330
aS'w-2=abroad'
p331
aS'w-2=and'
p332
aS'w-2=bill'
p333
aS'w-2=can'
p334
aS'w-2=child'
p335
aS'w-2=company'
p336
aS'w-2=cutoff'
p337
aS'w-2=death'
p338
aS'w-2=debt'
p339
aS'w-2=demand'
p340
aS'w-2=democratic'
p341
aS'w-2=deployment'
p342
aS'w-2=disaster'
p343
aS'w-2=do'
p344
aS'w-2=each'
p345
aS'w-2=economy'
p346
aS'w-2=electricity'
p347
aS'w-2=estimate'
p348
aS'w-2=expect'
p349
aS'w-2=extension'
p350
aS'w-2=fine'
p351
aS'w-2=for'
p352
aS'w-2=global'
p353
aS'w-2=have'
p354
aS'w-2=if'
p355
aS'w-2=influx'
p356
aS'w-2=like'
p357
aS'w-2=likely'
p358
aS'w-2=may'
p359
aS'w-2=measure'
p360
aS'w-2=non-Muslims'
p361
aS'w-2=not'
p362
aS'w-2=now'
p363
aS'w-2=number'
p364
aS'w-2=of'
p365
aS'w-2=or'
p366
aS'w-2=pledge'
p367
aS'w-2=population'
p368
aS'w-2=president'
p369
aS'w-2=rate'
p370
aS'w-2=report'
p371
aS'w-2=residency'
p372
aS'w-2=second-hand'
p373
aS'w-2=should'
p374
aS'w-2=show'
p375
aS'w-2=tb'
p376
aS'w-2=television'
p377
aS'w-2=that'
p378
aS'w-2=the'
p379
aS'w-2=they'
p380
aS'w-2=today'
p381
aS'w-2=toll'
p382
aS'w-2=track'
p383
aS'w-2=unemployment'
p384
aS'w-2=we'
p385
aS'w-2=whether'
p386
aS'w-2=which'
p387
aS'w-2=will'
p388
aS'w-2=winner'
p389
aS'w-2=with'
p390
aS'w-2=worker'
p391
aS'xcomp=equivalent'
p392
aS'xcomp=host'
p393
aS'xcomp=rank'
p394
aS'xcomp=take'
p395
asS'dtype'
p396
cnumpy
float64
p397
sS'vocabulary_'
p398
(dp399
g53
I44
sg311
I302
sg333
I324
sg385
I376
sg133
I124
sg240
I231
sg73
I64
sg80
I71
sg243
I234
sg251
I242
sg236
I227
sg283
I274
sg86
I77
sg128
I119
sg380
I371
sg269
I260
sg56
I47
sg191
I182
sg316
I307
sg105
I96
sg63
I54
sg18
I9
sg107
I98
sg231
I222
sg314
I305
sg79
I70
sg87
I78
sg284
I275
sg238
I229
sg120
I111
sg66
I57
sg277
I268
sg98
I89
sg379
I370
sg234
I225
sg288
I279
sg271
I262
sg266
I257
sg90
I81
sg381
I372
sg322
I313
sg291
I282
sg42
I33
sg244
I235
sg267
I258
sg233
I224
sg215
I206
sg214
I205
sg281
I272
sg28
I19
sg43
I34
sg89
I80
sg317
I308
sg153
I144
sg331
I322
sg305
I296
sg9
I0
sg371
I362
sg378
I369
sg192
I183
sg118
I109
sg352
I343
sg193
I184
sg195
I186
sg124
I115
sg77
I68
sg276
I267
sg364
I355
sg147
I138
sg35
I26
sg59
I50
sg132
I123
sg345
I336
sg256
I247
sg109
I100
sg301
I292
sg48
I39
sg78
I69
sg97
I88
sg188
I179
sg304
I295
sg176
I167
sg131
I122
sg293
I284
sg384
I375
sg211
I202
sg307
I298
sg116
I107
sg328
I319
sg187
I178
sg91
I82
sg373
I364
sg217
I208
sg134
I125
sg343
I334
sg321
I312
sg62
I53
sg395
I386
sg72
I63
sg148
I139
sg154
I145
sg366
I357
sg375
I366
sg161
I152
sg365
I356
sg310
I301
sg344
I335
sg197
I188
sg229
I220
sg254
I245
sg272
I263
sg64
I55
sg179
I170
sg337
I328
sg347
I338
sg279
I270
sg68
I59
sg228
I219
sg114
I105
sg164
I155
sg203
I194
sg247
I238
sg196
I187
sg112
I103
sg130
I121
sg145
I136
sg52
I43
sg249
I240
sg198
I189
sg140
I131
sg103
I94
sg290
I281
sg212
I203
sg329
I320
sg139
I130
sg235
I226
sg294
I285
sg36
I27
sg163
I154
sg313
I304
sg126
I117
sg324
I315
sg104
I95
sg22
I13
sg341
I332
sg241
I232
sg280
I271
sg122
I113
sg237
I228
sg113
I104
sg95
I86
sg250
I241
sg16
I7
sg102
I93
sg348
I339
sg219
I210
sg159
I150
sg184
I175
sg263
I254
sg75
I66
sg166
I157
sg111
I102
sg208
I199
sg178
I169
sg252
I243
sg232
I223
sg189
I180
sg46
I37
sg177
I168
sg222
I213
sg121
I112
sg350
I341
sg21
I12
sg225
I216
sg55
I46
sg318
I309
sg338
I329
sg296
I287
sg224
I215
sg168
I159
sg353
I344
sg302
I293
sg181
I172
sg339
I330
sg129
I120
sg160
I151
sg110
I101
sg57
I48
sg143
I134
sg383
I374
sg387
I378
sg326
I317
sg370
I361
sg19
I10
sg51
I42
sg335
I326
sg205
I196
sg309
I300
sg349
I340
sg67
I58
sg342
I333
sg20
I11
sg12
I3
sg30
I21
sg390
I381
sg312
I303
sg34
I25
sg182
I173
sg41
I32
sg226
I217
sg136
I127
sg356
I347
sg248
I239
sg355
I346
sg369
I360
sg204
I195
sg138
I129
sg377
I368
sg71
I62
sg186
I177
sg258
I249
sg171
I162
sg273
I264
sg274
I265
sg162
I153
sg115
I106
sg17
I8
sg60
I51
sg270
I261
sg125
I116
sg315
I306
sg10
I1
sg200
I191
sg158
I149
sg354
I345
sg37
I28
sg127
I118
sg262
I253
sg83
I74
sg210
I201
sg119
I110
sg13
I4
sg165
I156
sg81
I72
sg180
I171
sg361
I352
sg85
I76
sg96
I87
sg117
I108
sg38
I29
sg49
I40
sg74
I65
sg29
I20
sg351
I342
sg327
I318
sg278
I269
sg306
I297
sg108
I99
sg15
I6
sg357
I348
sg261
I252
sg206
I197
sg167
I158
sg340
I331
sg149
I140
sg150
I141
sg172
I163
sg88
I79
sg287
I278
sg336
I327
sg39
I30
sg368
I359
sg135
I126
sg282
I273
sg50
I41
sg394
I385
sg242
I233
sg245
I236
sg175
I166
sg216
I207
sg346
I337
sg367
I358
sg334
I325
sg213
I204
sg99
I90
sg285
I276
sg376
I367
sg61
I52
sg45
I36
sg220
I211
sg155
I146
sg332
I323
sg157
I148
sg14
I5
sg40
I31
sg372
I363
sg84
I75
sg69
I60
sg194
I185
sg393
I384
sg391
I382
sg65
I56
sg151
I142
sg47
I38
sg23
I14
sg259
I250
sg142
I133
sg388
I379
sg141
I132
sg319
I310
sg320
I311
sg199
I190
sg76
I67
sg70
I61
sg31
I22
sg58
I49
sg265
I256
sg264
I255
sg362
I353
sg363
I354
sg253
I244
sg325
I316
sg218
I209
sg303
I294
sg152
I143
sg359
I350
sg32
I23
sg25
I16
sg330
I321
sg299
I290
sg227
I218
sg257
I248
sg123
I114
sg292
I283
sg93
I84
sg386
I377
sg255
I246
sg26
I17
sg44
I35
sg260
I251
sg170
I161
sg169
I160
sg268
I259
sg223
I214
sg183
I174
sg358
I349
sg106
I97
sg100
I91
sg92
I83
sg190
I181
sg286
I277
sg275
I266
sg221
I212
sg146
I137
sg246
I237
sg392
I383
sg33
I24
sg295
I286
sg374
I365
sg360
I351
sg185
I176
sg300
I291
sg239
I230
sg101
I92
sg156
I147
sg207
I198
sg289
I280
sg382
I373
sg202
I193
sg201
I192
sg94
I85
sg230
I221
sg144
I135
sg82
I73
sg389
I380
sg54
I45
sg174
I165
sg298
I289
sg297
I288
sg173
I164
sg137
I128
sg308
I299
sg27
I18
sg24
I15
sg209
I200
sg11
I2
sg323
I314
ssS'separator'
p400
S'='
sS'sparse'
p401
I01
sb.