ccopy_reg
_reconstructor
p1
(csklearn.feature_extraction.dict_vectorizer
DictVectorizer
p2
c__builtin__
object
p3
NtRp4
(dp5
S'sort'
p6
I01
sS'feature_names_'
p7
(lp8
S'advcl=accuse'
p9
aS'advcl=amend'
p10
aS'advcl=attack'
p11
aS'advcl=begin'
p12
aS'advcl=carry'
p13
aS'advcl=comply'
p14
aS'advcl=demand'
p15
aS'advcl=do'
p16
aS'advcl=end'
p17
aS'advcl=escape'
p18
aS'advcl=flee'
p19
aS'advcl=have'
p20
aS'advcl=leave'
p21
aS'advcl=miss'
p22
aS'advcl=pollute'
p23
aS'advcl=respond'
p24
aS'advcl=show'
p25
aS'advcl=tear'
p26
aS'advcl=try'
p27
aS'advcl=typical'
p28
aS'advcl=win'
p29
aS'advmod=about'
p30
aS'advmod=accurately'
p31
aS'advmod=again'
p32
aS'advmod=allegedly'
p33
aS'advmod=also'
p34
aS'advmod=around'
p35
aS'advmod=away'
p36
aS'advmod=back'
p37
aS'advmod=definitely'
p38
aS'advmod=free'
p39
aS'advmod=however'
p40
aS'advmod=just'
p41
aS'advmod=last'
p42
aS'advmod=likely'
p43
aS'advmod=meanwhile'
p44
aS'advmod=nevertheless'
p45
aS'advmod=of'
p46
aS'advmod=out'
p47
aS'advmod=over'
p48
aS'advmod=overboard'
p49
aS'advmod=reportedly'
p50
aS'advmod=still'
p51
aS'advmod=usually'
p52
aS'advmod=when'
p53
aS'advmod=where'
p54
aS'aux=be'
p55
aS'aux=can'
p56
aS'aux=could'
p57
aS'aux=do'
p58
aS'aux=have'
p59
aS'aux=must'
p60
aS'aux=should'
p61
aS'aux=to'
p62
aS'aux=will'
p63
aS'aux=would'
p64
aS'auxpass=be'
p65
aS'auxpass=get'
p66
aS'cc=and'
p67
aS'cc=but'
p68
aS'cc=or'
p69
aS'ccomp=cast'
p70
aS'ccomp=initiate'
p71
aS'ccomp=leave'
p72
aS'ccomp=n-o-t'
p73
aS'ccomp=run'
p74
aS'ccomp=say'
p75
aS'ccomp=storm'
p76
aS'complm=that'
p77
aS'conj=attack'
p78
aS'conj=bang'
p79
aS'conj=beat'
p80
aS'conj=clash'
p81
aS'conj=decline'
p82
aS'conj=erect'
p83
aS'conj=exchange'
p84
aS'conj=forget'
p85
aS'conj=go'
p86
aS'conj=invite'
p87
aS'conj=laugh'
p88
aS'conj=make'
p89
aS'conj=order'
p90
aS'conj=oust'
p91
aS'conj=reinstate'
p92
aS'conj=return'
p93
aS'conj=riot'
p94
aS'conj=say'
p95
aS'conj=shout'
p96
aS'conj=spark'
p97
aS'conj=take'
p98
aS'conj=threaten'
p99
aS'conj=toss'
p100
aS'conj=undermine'
p101
aS'conj=use'
p102
aS'conj=walk'
p103
aS'conj=win'
p104
aS'dep=announce'
p105
aS'dep=disrupt'
p106
aS'dep=either'
p107
aS'dep=mind'
p108
aS'dep=what'
p109
aS'dobj=#NUMBER#'
p110
aS'dobj=#PRP#'
p111
aS'dobj=DRC'
p112
aS'dobj=Ethiopians'
p113
aS'dobj=Marcos'
p114
aS'dobj=acid'
p115
aS'dobj=all'
p116
aS'dobj=anything'
p117
aS'dobj=balance'
p118
aS'dobj=ball'
p119
aS'dobj=banana'
p120
aS'dobj=bomb'
p121
aS'dobj=border'
p122
aS'dobj=bottle'
p123
aS'dobj=campaign'
p124
aS'dobj=car'
p125
aS'dobj=case'
p126
aS'dobj=challenge'
p127
aS'dobj=charge'
p128
aS'dobj=chunk'
p129
aS'dobj=cloud'
p130
aS'dobj=cocktail'
p131
aS'dobj=cordon'
p132
aS'dobj=country'
p133
aS'dobj=course'
p134
aS'dobj=debris'
p135
aS'dobj=democracy'
p136
aS'dobj=drug'
p137
aS'dobj=egg'
p138
aS'dobj=everybody'
p139
aS'dobj=everything'
p140
aS'dobj=flower'
p141
aS'dobj=gain'
p142
aS'dobj=garbage'
p143
aS'dobj=gauntlet'
p144
aS'dobj=grenade'
p145
aS'dobj=gun'
p146
aS'dobj=hand'
p147
aS'dobj=handful'
p148
aS'dobj=hard'
p149
aS'dobj=interception'
p150
aS'dobj=jersey'
p151
aS'dobj=key'
p152
aS'dobj=lawsuit'
p153
aS'dobj=log'
p154
aS'dobj=marker'
p155
aS'dobj=material'
p156
aS'dobj=money'
p157
aS'dobj=mud'
p158
aS'dobj=muse'
p159
aS'dobj=officer'
p160
aS'dobj=organization'
p161
aS'dobj=owner'
p162
aS'dobj=parliament'
p163
aS'dobj=party'
p164
aS'dobj=past'
p165
aS'dobj=people'
p166
aS'dobj=petition'
p167
aS'dobj=petrol'
p168
aS'dobj=politics'
p169
aS'dobj=preconception'
p170
aS'dobj=priest'
p171
aS'dobj=process'
p172
aS'dobj=program'
p173
aS'dobj=region'
p174
aS'dobj=resolution'
p175
aS'dobj=rock'
p176
aS'dobj=sacrifice'
p177
aS'dobj=shadow'
p178
aS'dobj=some'
p179
aS'dobj=somebody'
p180
aS'dobj=state'
p181
aS'dobj=stone'
p182
aS'dobj=stuff'
p183
aS'dobj=support'
p184
aS'dobj=touchdown'
p185
aS'dobj=trash'
p186
aS'dobj=vote'
p187
aS'dobj=weight'
p188
aS'dobj=which'
p189
aS'dobj=wrench'
p190
aS'mark=about'
p191
aS'mark=after'
p192
aS'mark=before'
p193
aS'mark=since'
p194
aS'mark=while'
p195
aS'neg=never'
p196
aS'neg=not'
p197
aS'nsubj=#NUMBER#'
p198
aS'nsubj=#PRP#'
p199
aS'nsubj=Brady'
p200
aS'nsubj=Clinton'
p201
aS'nsubj=Court'
p202
aS'nsubj=Emanuel'
p203
aS'nsubj=Garden'
p204
aS'nsubj=George'
p205
aS'nsubj=Grossman'
p206
aS'nsubj=Hamilton'
p207
aS'nsubj=Hezbollah'
p208
aS'nsubj=Ike'
p209
aS'nsubj=Jews'
p210
aS'nsubj=Manning'
p211
aS'nsubj=Margai'
p212
aS'nsubj=Mourners'
p213
aS'nsubj=Palestinians'
p214
aS'nsubj=Police'
p215
aS'nsubj=Republicans'
p216
aS'nsubj=Russia'
p217
aS'nsubj=UCLA'
p218
aS'nsubj=assassination'
p219
aS'nsubj=best'
p220
aS'nsubj=bickering'
p221
aS'nsubj=candidate'
p222
aS'nsubj=civilian'
p223
aS'nsubj=conflict'
p224
aS'nsubj=court'
p225
aS'nsubj=crowd'
p226
aS'nsubj=death'
p227
aS'nsubj=decision'
p228
aS'nsubj=effort'
p229
aS'nsubj=family'
p230
aS'nsubj=figure'
p231
aS'nsubj=fisherman'
p232
aS'nsubj=force'
p233
aS'nsubj=framework'
p234
aS'nsubj=gang'
p235
aS'nsubj=good'
p236
aS'nsubj=government'
p237
aS'nsubj=investor'
p238
aS'nsubj=javelin'
p239
aS'nsubj=judge'
p240
aS'nsubj=killing'
p241
aS'nsubj=kind'
p242
aS'nsubj=medal'
p243
aS'nsubj=member'
p244
aS'nsubj=militant'
p245
aS'nsubj=morning'
p246
aS'nsubj=movement'
p247
aS'nsubj=official'
p248
aS'nsubj=people'
p249
aS'nsubj=pilgrim'
p250
aS'nsubj=police'
p251
aS'nsubj=possession'
p252
aS'nsubj=protester'
p253
aS'nsubj=resident'
p254
aS'nsubj=scenario'
p255
aS'nsubj=series'
p256
aS'nsubj=shot'
p257
aS'nsubj=sniper'
p258
aS'nsubj=some'
p259
aS'nsubj=someone'
p260
aS'nsubj=state'
p261
aS'nsubj=superdelegate'
p262
aS'nsubj=that'
p263
aS'nsubj=this'
p264
aS'nsubj=unit'
p265
aS'nsubj=visitor'
p266
aS'nsubj=which'
p267
aS'nsubj=who'
p268
aS'nsubj=worker'
p269
aS'nsubjpass=#PRP#'
p270
aS'nsubjpass=Mogadishu'
p271
aS'nsubjpass=Parliament'
p272
aS'nsubjpass=anything'
p273
aS'nsubjpass=attempt'
p274
aS'nsubjpass=bomb'
p275
aS'nsubjpass=case'
p276
aS'nsubjpass=country'
p277
aS'nsubjpass=coxswain'
p278
aS'nsubjpass=dozen'
p279
aS'nsubjpass=election'
p280
aS'nsubjpass=grenade'
p281
aS'nsubjpass=mortar'
p282
aS'nsubjpass=people'
p283
aS'nsubjpass=piece'
p284
aS'nsubjpass=process'
p285
aS'nsubjpass=referendum'
p286
aS'nsubjpass=stone'
p287
aS'nsubjpass=summit'
p288
aS'nsubjpass=talk'
p289
aS'nsubjpass=that'
p290
aS'nsubjpass=those'
p291
aS'nsubjpass=timetable'
p292
aS'nsubjpass=what'
p293
aS'parataxis=stop'
p294
aS'partmod=break'
p295
aS'partmod=demand'
p296
aS'partmod=hope'
p297
aS'partmod=injure'
p298
aS'partmod=kill'
p299
aS'prep=about'
p300
aS'prep=across'
p301
aS'prep=after'
p302
aS'prep=around'
p303
aS'prep=as'
p304
aS'prep=at'
p305
aS'prep=behind'
p306
aS'prep=below'
p307
aS'prep=by'
p308
aS'prep=during'
p309
aS'prep=for'
p310
aS'prep=from'
p311
aS'prep=in'
p312
aS'prep=include'
p313
aS'prep=into'
p314
aS'prep=of'
p315
aS'prep=off'
p316
aS'prep=on'
p317
aS'prep=out'
p318
aS'prep=over'
p319
aS'prep=to'
p320
aS'prep=toward'
p321
aS'prep=with'
p322
aS'prt=away'
p323
aS'prt=back'
p324
aS'prt=down'
p325
aS'prt=off'
p326
aS'prt=open'
p327
aS'prt=out'
p328
aS'prt=up'
p329
aS'tmod=#DATE#'
p330
aS'tmod=time'
p331
aS'tmod=week'
p332
aS'tmod=year'
p333
aS'w+1=,'
p334
aS'w+1=.'
p335
aS'w+1=Ethiopians'
p336
aS'w+1=I'
p337
aS'w+1=Molotov'
p338
aS'w+1=Pakistan'
p339
aS'w+1=a'
p340
aS'w+1=about'
p341
aS'w+1=acid'
p342
aS'w+1=all'
p343
aS'w+1=and'
p344
aS'w+1=another'
p345
aS'w+1=anything'
p346
aS'w+1=at'
p347
aS'w+1=away'
p348
aS'w+1=back'
p349
aS'w+1=big'
p350
aS'w+1=bomb'
p351
aS'w+1=bottle'
p352
aS'w+1=business'
p353
aS'w+1=by'
p354
aS'w+1=chunk'
p355
aS'w+1=doubt'
p356
aS'w+1=down'
p357
aS'w+1=during'
p358
aS'w+1=eastern'
p359
aS'w+1=egg'
p360
aS'w+1=everybody'
p361
aS'w+1=everything'
p362
aS'w+1=flower'
p363
aS'w+1=from'
p364
aS'w+1=garbage'
p365
aS'w+1=grenade'
p366
aS'w+1=he'
p367
aS'w+1=himself'
p368
aS'w+1=hundred'
p369
aS'w+1=in'
p370
aS'w+1=into'
p371
aS'w+1=it'
p372
aS'w+1=its'
p373
aS'w+1=many'
p374
aS'w+1=mud'
p375
aS'w+1=muse'
p376
aS'w+1=my'
p377
aS'w+1=of'
p378
aS'w+1=off'
p379
aS'w+1=on'
p380
aS'w+1=open'
p381
aS'w+1=or'
p382
aS'w+1=out'
p383
aS'w+1=over'
p384
aS'w+1=overboard'
p385
aS'w+1=people'
p386
aS'w+1=petrol'
p387
aS'w+1=pipe'
p388
aS'w+1=priest'
p389
aS'w+1=rise'
p390
aS'w+1=rock'
p391
aS'w+1=sacrifice'
p392
aS'w+1=several'
p393
aS'w+1=she'
p394
aS'w+1=somebody'
p395
aS'w+1=stone'
p396
aS'w+1=stun'
p397
aS'w+1=tear'
p398
aS'w+1=that'
p399
aS'w+1=the'
p400
aS'w+1=themselves'
p401
aS'w+1=they'
p402
aS'w+1=this'
p403
aS'w+1=those'
p404
aS'w+1=trash'
p405
aS'w+1=up'
p406
aS'w+1=we'
p407
aS"w+2=''"
p408
aS"w+2='s"
p409
aS'w+2=,'
p410
aS'w+2=-lrb-'
p411
aS'w+2=.'
p412
aS'w+2=13-yard'
p413
aS'w+2=20-kilometer'
p414
aS'w+2=22'
p415
aS'w+2=67.7'
p416
aS'w+2=DRC'
p417
aS'w+2=President'
p418
aS'w+2=a'
p419
aS'w+2=acid'
p420
aS'w+2=all'
p421
aS'w+2=and'
p422
aS'w+2=any'
p423
aS'w+2=around'
p424
aS'w+2=as'
p425
aS'w+2=at'
p426
aS'w+2=away'
p427
aS'w+2=back'
p428
aS'w+2=ball'
p429
aS'w+2=big'
p430
aS'w+2=billion'
p431
aS'w+2=bomb'
p432
aS'w+2=building'
p433
aS'w+2=by'
p434
aS'w+2=campaign'
p435
aS'w+2=car'
p436
aS'w+2=case'
p437
aS'w+2=chaos'
p438
aS'w+2=cocktail'
p439
aS'w+2=confusion'
p440
aS'w+2=country'
p441
aS'w+2=course'
p442
aS'w+2=crisis'
p443
aS'w+2=debris'
p444
aS'w+2=despite'
p445
aS'w+2=detonate'
p446
aS'w+2=dictator'
p447
aS'w+2=disarray'
p448
aS'w+2=doubt'
p449
aS'w+2=drug'
p450
aS'w+2=eastern'
p451
aS'w+2=entire'
p452
aS'w+2=everything'
p453
aS'w+2=for'
p454
aS'w+2=full'
p455
aS'w+2=gain'
p456
aS'w+2=garbage'
p457
aS'w+2=gas'
p458
aS'w+2=grenade'
p459
aS'w+2=hand'
p460
aS'w+2=handful'
p461
aS'w+2=he'
p462
aS'w+2=here'
p463
aS'w+2=high'
p464
aS'w+2=hundred'
p465
aS'w+2=in'
p466
aS'w+2=interception'
p467
aS'w+2=into'
p468
aS'w+2=it'
p469
aS'w+2=its'
p470
aS'w+2=jail'
p471
aS'w+2=jersey'
p472
aS'w+2=key'
p473
aS'w+2=log'
p474
aS'w+2=money'
p475
aS'w+2=negotiate'
p476
aS'w+2=of'
p477
aS'w+2=off'
p478
aS'w+2=on'
p479
aS'w+2=out'
p480
aS'w+2=over'
p481
aS'w+2=owner'
p482
aS'w+2=party'
p483
aS'w+2=petal'
p484
aS'w+2=preconception'
p485
aS'w+2=prison'
p486
aS'w+2=process'
p487
aS'w+2=protester'
p488
aS'w+2=quarterback'
p489
aS'w+2=question'
p490
aS'w+2=reporter'
p491
aS'w+2=resolution'
p492
aS'w+2=several'
p493
aS'w+2=shadow'
p494
aS'w+2=she'
p495
aS'w+2=somali'
p496
aS'w+2=some'
p497
aS'w+2=strong'
p498
aS'w+2=stuff'
p499
aS'w+2=support'
p500
aS'w+2=swiss'
p501
aS'w+2=the'
p502
aS'w+2=they'
p503
aS'w+2=tight'
p504
aS'w+2=to'
p505
aS'w+2=touchdown'
p506
aS'w+2=toward'
p507
aS'w+2=unusual'
p508
aS'w+2=up'
p509
aS'w+2=vote'
p510
aS'w+2=we'
p511
aS'w+2=weight'
p512
aS'w+2=wrench'
p513
aS'w+2=year'
p514
aS'w+2=you'
p515
aS"w-1=''"
p516
aS'w-1=,'
p517
aS'w-1=Brady'
p518
aS'w-1=Chennai'
p519
aS'w-1=Clinton'
p520
aS'w-1=Emanuel'
p521
aS'w-1=Garden'
p522
aS'w-1=Grossman'
p523
aS'w-1=Ike'
p524
aS'w-1=Kedumim'
p525
aS'w-1=Manning'
p526
aS'w-1=Margai'
p527
aS'w-1=Mourners'
p528
aS'w-1=Palestinians'
p529
aS'w-1=Police'
p530
aS'w-1=Russia'
p531
aS'w-1=adjustment'
p532
aS'w-1=after'
p533
aS'w-1=again'
p534
aS'w-1=allegedly'
p535
aS'w-1=also'
p536
aS'w-1=and'
p537
aS'w-1=balloon'
p538
aS'w-1=banana'
p539
aS'w-1=band'
p540
aS'w-1=be'
p541
aS'w-1=begin'
p542
aS'w-1=best'
p543
aS'w-1=body'
p544
aS'w-1=bomb'
p545
aS'w-1=but'
p546
aS'w-1=by'
p547
aS'w-1=can'
p548
aS'w-1=case'
p549
aS'w-1=civilian'
p550
aS'w-1=could'
p551
aS'w-1=court'
p552
aS'w-1=crowd'
p553
aS'w-1=death'
p554
aS'w-1=do'
p555
aS'w-1=find'
p556
aS'w-1=force'
p557
aS'w-1=framework'
p558
aS'w-1=free'
p559
aS'w-1=gang'
p560
aS'w-1=get'
p561
aS'w-1=good'
p562
aS'w-1=grenade'
p563
aS'w-1=hammer'
p564
aS'w-1=have'
p565
aS'w-1=he'
p566
aS'w-1=help'
p567
aS'w-1=in'
p568
aS'w-1=jab'
p569
aS'w-1=javelin'
p570
aS'w-1=just'
p571
aS'w-1=keep'
p572
aS'w-1=killing'
p573
aS'w-1=last'
p574
aS'w-1=like'
p575
aS'w-1=likely'
p576
aS'w-1=longest'
p577
aS'w-1=man'
p578
aS'w-1=material'
p579
aS'w-1=member'
p580
aS'w-1=movement'
p581
aS'w-1=must'
p582
aS'w-1=never'
p583
aS'w-1=not'
p584
aS'w-1=object'
p585
aS'w-1=of'
p586
aS'w-1=or'
p587
aS'w-1=people'
p588
aS'w-1=pitch'
p589
aS'w-1=play'
p590
aS'w-1=police'
p591
aS'w-1=protester'
p592
aS'w-1=record'
p593
aS'w-1=report'
p594
aS'w-1=reportedly'
p595
aS'w-1=rock'
p596
aS'w-1=some'
p597
aS'w-1=someone'
p598
aS'w-1=spell'
p599
aS'w-1=start'
p600
aS'w-1=that'
p601
aS'w-1=they'
p602
aS'w-1=to'
p603
aS'w-1=touchdown'
p604
aS'w-1=unit'
p605
aS'w-1=usually'
p606
aS'w-1=visitor'
p607
aS'w-1=we'
p608
aS'w-1=weapon'
p609
aS'w-1=week'
p610
aS'w-1=well-wisher'
p611
aS'w-1=which'
p612
aS'w-1=who'
p613
aS'w-1=will'
p614
aS'w-1=worker'
p615
aS'w-1=would'
p616
aS'w-1=you'
p617
aS"w-2='"
p618
aS"w-2=''"
p619
aS"w-2='s"
p620
aS'w-2=,'
p621
aS'w-2=-'
p622
aS'w-2=.'
p623
aS'w-2=1997'
p624
aS'w-2=Abubakar'
p625
aS'w-2=Allred'
p626
aS'w-2=Berri'
p627
aS'w-2=Charles'
p628
aS'w-2=Court'
p629
aS'w-2=D.C.'
p630
aS'w-2=Eli'
p631
aS'w-2=FPI'
p632
aS'w-2=Florida'
p633
aS'w-2=George'
p634
aS'w-2=Guard'
p635
aS'w-2=Hillary'
p636
aS'w-2=Hurricane'
p637
aS'w-2=Hyderabad'
p638
aS'w-2=Jews'
p639
aS'w-2=Margai'
p640
aS'w-2=Mogadishu'
p641
aS'w-2=Muslims'
p642
aS'w-2=Parliament'
p643
aS'w-2=Peyton'
p644
aS'w-2=Rahm'
p645
aS'w-2=Square'
p646
aS'w-2=Tom'
p647
aS'w-2=UCLA'
p648
aS'w-2=Wednesday'
p649
aS'w-2=a'
p650
aS'w-2=after'
p651
aS'w-2=agree'
p652
aS'w-2=al-Sham'
p653
aS'w-2=ally'
p654
aS'w-2=and'
p655
aS'w-2=as'
p656
aS'w-2=assailant'
p657
aS'w-2=assassination'
p658
aS'w-2=attack'
p659
aS'w-2=battle'
p660
aS'w-2=be'
p661
aS'w-2=before'
p662
aS'w-2=bid'
p663
aS'w-2=building'
p664
aS'w-2=by'
p665
aS'w-2=case'
p666
aS'w-2=catch'
p667
aS'w-2=chicken'
p668
aS'w-2=collapse'
p669
aS'w-2=contest'
p670
aS'w-2=coxswain'
p671
aS'w-2=decide'
p672
aS'w-2=do'
p673
aS'w-2=dumpster'
p674
aS'w-2=election'
p675
aS'w-2=expectation'
p676
aS'w-2=family'
p677
aS'w-2=figure'
p678
aS'w-2=first'
p679
aS'w-2=force'
p680
aS'w-2=glass'
p681
aS'w-2=go'
p682
aS'w-2=government'
p683
aS'w-2=grenade'
p684
aS'w-2=guilt'
p685
aS'w-2=have'
p686
aS'w-2=he'
p687
aS'w-2=help'
p688
aS'w-2=highway'
p689
aS'w-2=himself'
p690
aS'w-2=hospital'
p691
aS'w-2=in'
p692
aS'w-2=interested'
p693
aS'w-2=investor'
p694
aS'w-2=israeli'
p695
aS'w-2=it'
p696
aS'w-2=just'
p697
aS'w-2=kind'
p698
aS'w-2=last'
p699
aS'w-2=man'
p700
aS'w-2=may'
p701
aS'w-2=month'
p702
aS'w-2=morning'
p703
aS'w-2=mortar'
p704
aS'w-2=mosque'
p705
aS'w-2=movement'
p706
aS'w-2=nation'
p707
aS'w-2=national'
p708
aS'w-2=neck'
p709
aS'w-2=not'
p710
aS'w-2=nuclear'
p711
aS'w-2=of'
p712
aS'w-2=official'
p713
aS'w-2=once'
p714
aS'w-2=one'
p715
aS'w-2=only'
p716
aS'w-2=order'
p717
aS'w-2=other'
p718
aS'w-2=paramilitary'
p719
aS'w-2=partisan'
p720
aS'w-2=peacefully'
p721
aS'w-2=people'
p722
aS'w-2=permit'
p723
aS'w-2=pilgrim'
p724
aS'w-2=place'
p725
aS'w-2=plant'
p726
aS'w-2=policy'
p727
aS'w-2=political'
p728
aS'w-2=power'
p729
aS'w-2=prayer'
p730
aS'w-2=prey'
p731
aS'w-2=pro-hezbollah'
p732
aS'w-2=process'
p733
aS'w-2=protester'
p734
aS'w-2=radiological'
p735
aS'w-2=really'
p736
aS'w-2=refugee'
p737
aS'w-2=removal'
p738
aS'w-2=rex'
p739
aS'w-2=rival'
p740
aS'w-2=round'
p741
aS'w-2=scenario'
p742
aS'w-2=secular'
p743
aS'w-2=security'
p744
aS'w-2=shame'
p745
aS'w-2=she'
p746
aS'w-2=shoot'
p747
aS'w-2=site'
p748
aS'w-2=six'
p749
aS'w-2=six-yard'
p750
aS'w-2=some'
p751
aS'w-2=somebody'
p752
aS'w-2=state'
p753
aS'w-2=statistical'
p754
aS'w-2=stone'
p755
aS'w-2=street'
p756
aS'w-2=talk'
p757
aS'w-2=that'
p758
aS'w-2=the'
p759
aS'w-2=then'
p760
aS'w-2=there'
p761
aS'w-2=they'
p762
aS'w-2=think'
p763
aS'w-2=this'
p764
aS'w-2=threaten'
p765
aS'w-2=time'
p766
aS'w-2=to'
p767
aS'w-2=town'
p768
aS'w-2=try'
p769
aS'w-2=two'
p770
aS'w-2=wait'
p771
aS'w-2=waste'
p772
aS'w-2=water'
p773
aS'w-2=what'
p774
aS'w-2=which'
p775
aS'w-2=will'
p776
aS'w-2=with'
p777
aS'w-2=would'
p778
aS'w-2=ycl'
p779
aS'w-2=young'
p780
aS'xcomp=carry'
p781
aS'xcomp=die'
p782
aS'xcomp=give'
p783
aS'xcomp=help'
p784
aS'xcomp=injure'
p785
aS'xcomp=meter'
p786
aS'xcomp=party'
p787
aS'xcomp=punch'
p788
aS'xcomp=tear'
p789
aS'xcomp=wound'
p790
asS'dtype'
p791
cnumpy
float64
p792
sS'vocabulary_'
p793
(dp794
g518
I509
sg122
I113
sg455
I446
sg90
I81
sg260
I251
sg596
I587
sg447
I438
sg257
I248
sg231
I222
sg722
I713
sg642
I633
sg283
I274
sg161
I152
sg212
I203
sg117
I108
sg704
I695
sg88
I79
sg266
I257
sg752
I743
sg675
I666
sg641
I632
sg145
I136
sg697
I688
sg748
I739
sg143
I134
sg475
I466
sg291
I282
sg206
I197
sg762
I753
sg727
I718
sg133
I124
sg284
I275
sg698
I689
sg262
I253
sg399
I390
sg667
I658
sg494
I485
sg385
I376
sg237
I228
sg307
I298
sg168
I159
sg616
I607
sg721
I712
sg731
I722
sg563
I554
sg460
I451
sg780
I771
sg531
I522
sg442
I433
sg138
I129
sg239
I230
sg41
I32
sg493
I484
sg333
I324
sg614
I605
sg38
I29
sg24
I15
sg209
I200
sg606
I597
sg706
I697
sg464
I455
sg483
I474
sg547
I538
sg745
I736
sg541
I532
sg437
I428
sg677
I668
sg759
I750
sg306
I297
sg676
I667
sg394
I385
sg783
I774
sg766
I757
sg662
I653
sg153
I144
sg553
I544
sg289
I280
sg140
I131
sg96
I87
sg441
I432
sg559
I550
sg378
I369
sg156
I147
sg689
I680
sg327
I318
sg505
I496
sg380
I371
sg672
I663
sg292
I283
sg134
I125
sg368
I359
sg382
I373
sg597
I588
sg733
I724
sg109
I100
sg565
I556
sg75
I66
sg485
I476
sg396
I387
sg743
I734
sg71
I62
sg298
I289
sg411
I402
sg466
I457
sg534
I525
sg469
I460
sg562
I553
sg648
I639
sg23
I14
sg431
I422
sg453
I444
sg142
I133
sg598
I589
sg28
I19
sg300
I291
sg56
I47
sg77
I68
sg303
I294
sg386
I377
sg735
I726
sg484
I475
sg243
I234
sg94
I85
sg738
I729
sg429
I420
sg92
I83
sg510
I501
sg324
I315
sg361
I352
sg31
I22
sg323
I314
sg418
I409
sg570
I561
sg61
I52
sg492
I483
sg758
I749
sg400
I391
sg755
I746
sg645
I636
sg33
I24
sg26
I17
sg402
I393
sg461
I452
sg554
I545
sg64
I55
sg404
I395
sg486
I477
sg270
I261
sg188
I179
sg312
I303
sg191
I182
sg104
I95
sg207
I198
sg628
I619
sg391
I382
sg48
I39
sg652
I643
sg160
I151
sg741
I732
sg320
I311
sg173
I164
sg286
I277
sg393
I384
sg344
I335
sg278
I269
sg540
I531
sg89
I80
sg724
I715
sg602
I593
sg105
I96
sg392
I383
sg180
I171
sg678
I669
sg782
I773
sg454
I445
sg747
I738
sg520
I511
sg83
I74
sg263
I254
sg282
I273
sg625
I616
sg694
I685
sg683
I674
sg329
I320
sg15
I6
sg46
I37
sg112
I103
sg70
I61
sg760
I751
sg568
I559
sg511
I502
sg116
I107
sg658
I649
sg299
I290
sg438
I429
sg87
I78
sg43
I34
sg213
I204
sg664
I655
sg215
I206
sg79
I70
sg532
I523
sg474
I465
sg739
I730
sg432
I423
sg753
I744
sg54
I45
sg256
I247
sg439
I430
sg538
I529
sg152
I143
sg513
I504
sg639
I630
sg668
I659
sg734
I725
sg318
I309
sg178
I169
sg99
I90
sg414
I405
sg443
I434
sg308
I299
sg166
I157
sg27
I18
sg313
I304
sg14
I5
sg732
I723
sg398
I389
sg220
I211
sg241
I232
sg184
I175
sg268
I259
sg375
I366
sg420
I411
sg44
I35
sg615
I606
sg653
I644
sg712
I703
sg244
I235
sg603
I594
sg163
I154
sg144
I135
sg373
I364
sg765
I756
sg170
I161
sg111
I102
sg673
I664
sg274
I265
sg740
I731
sg193
I184
sg103
I94
sg463
I454
sg255
I246
sg695
I686
sg346
I337
sg508
I499
sg436
I427
sg591
I582
sg417
I408
sg366
I357
sg659
I650
sg219
I210
sg40
I31
sg465
I456
sg60
I51
sg217
I208
sg347
I338
sg416
I407
sg363
I354
sg500
I491
sg367
I358
sg770
I761
sg421
I412
sg401
I392
sg252
I243
sg328
I319
sg16
I7
sg234
I225
sg290
I281
sg397
I388
sg593
I584
sg108
I99
sg609
I600
sg221
I212
sg556
I547
sg713
I704
sg19
I10
sg612
I603
sg362
I353
sg159
I150
sg576
I567
sg529
I520
sg599
I590
sg545
I536
sg488
I479
sg39
I30
sg53
I44
sg216
I207
sg742
I733
sg135
I126
sg139
I130
sg684
I675
sg310
I301
sg407
I398
sg233
I224
sg189
I180
sg535
I526
sg680
I671
sg113
I104
sg426
I417
sg129
I120
sg557
I548
sg425
I416
sg528
I519
sg405
I396
sg150
I141
sg250
I241
sg65
I56
sg22
I13
sg226
I217
sg699
I690
sg627
I618
sg549
I540
sg174
I165
sg51
I42
sg73
I64
sg390
I381
sg261
I252
sg198
I189
sg100
I91
sg624
I615
sg711
I702
sg457
I448
sg495
I486
sg319
I310
sg136
I127
sg205
I196
sg490
I481
sg297
I288
sg97
I88
sg147
I138
sg359
I350
sg428
I419
sg377
I368
sg295
I286
sg187
I178
sg691
I682
sg316
I307
sg246
I237
sg725
I716
sg501
I492
sg514
I505
sg154
I145
sg123
I114
sg395
I386
sg634
I625
sg325
I316
sg504
I495
sg131
I122
sg9
I0
sg626
I617
sg619
I610
sg723
I714
sg264
I255
sg379
I370
sg477
I468
sg227
I218
sg575
I566
sg651
I642
sg232
I223
sg479
I470
sg569
I560
sg636
I627
sg537
I528
sg314
I305
sg459
I450
sg121
I112
sg10
I1
sg709
I700
sg663
I654
sg69
I60
sg761
I752
sg681
I672
sg633
I624
sg13
I4
sg287
I278
sg126
I117
sg594
I585
sg592
I583
sg670
I661
sg91
I82
sg716
I707
sg548
I539
sg80
I71
sg620
I611
sg183
I174
sg146
I137
sg583
I574
sg679
I670
sg20
I11
sg784
I775
sg590
I581
sg93
I84
sg682
I673
sg746
I737
sg521
I512
sg452
I443
sg581
I572
sg229
I220
sg499
I490
sg114
I105
sg384
I375
sg778
I769
sg272
I263
sg555
I546
sg506
I497
sg66
I57
sg491
I482
sg236
I227
sg790
I781
sg280
I271
sg775
I766
sg750
I741
sg225
I216
sg611
I602
sg127
I118
sg259
I250
sg415
I406
sg137
I128
sg195
I186
sg85
I76
sg58
I49
sg481
I472
sg279
I270
sg693
I684
sg777
I768
sg179
I170
sg444
I435
sg63
I54
sg349
I340
sg230
I221
sg148
I139
sg125
I116
sg228
I219
sg249
I240
sg322
I313
sg433
I424
sg132
I123
sg749
I740
sg21
I12
sg605
I596
sg458
I449
sg285
I276
sg350
I341
sg779
I770
sg81
I72
sg130
I121
sg470
I461
sg120
I111
sg478
I469
sg78
I69
sg692
I683
sg785
I776
sg707
I698
sg696
I687
sg717
I708
sg585
I576
sg595
I586
sg115
I106
sg258
I249
sg36
I27
sg646
I637
sg482
I473
sg42
I33
sg245
I236
sg321
I312
sg84
I75
sg526
I517
sg102
I93
sg516
I507
sg632
I623
sg177
I168
sg11
I2
sg119
I110
sg507
I498
sg533
I524
sg408
I399
sg705
I696
sg688
I679
sg271
I262
sg34
I25
sg176
I167
sg339
I330
sg128
I119
sg281
I272
sg352
I343
sg277
I268
sg74
I65
sg564
I555
sg440
I431
sg106
I97
sg686
I677
sg67
I58
sg201
I192
sg218
I209
sg348
I339
sg354
I345
sg637
I628
sg571
I562
sg610
I601
sg158
I149
sg527
I518
sg546
I537
sg409
I400
sg674
I665
sg751
I742
sg95
I86
sg497
I488
sg248
I239
sg18
I9
sg370
I361
sg498
I489
sg265
I256
sg372
I363
sg199
I190
sg341
I332
sg242
I233
sg381
I372
sg371
I362
sg685
I676
sg68
I59
sg787
I778
sg45
I36
sg445
I436
sg530
I521
sg690
I681
sg110
I101
sg567
I558
sg185
I176
sg57
I48
sg204
I195
sg467
I458
sg552
I543
sg561
I552
sg76
I67
sg203
I194
sg181
I172
sg355
I346
sg389
I380
sg32
I23
sg356
I347
sg37
I28
sg29
I20
sg169
I160
sg342
I333
sg702
I693
sg579
I570
sg293
I284
sg208
I199
sg269
I260
sg789
I780
sg165
I156
sg661
I652
sg315
I306
sg730
I721
sg669
I660
sg17
I8
sg360
I351
sg317
I308
sg539
I530
sg192
I183
sg49
I40
sg640
I631
sg254
I245
sg756
I747
sg665
I656
sg267
I258
sg12
I3
sg30
I21
sg649
I640
sg98
I89
sg448
I439
sg388
I379
sg472
I463
sg771
I762
sg473
I464
sg210
I201
sg335
I326
sg222
I213
sg338
I329
sg343
I334
sg768
I759
sg296
I287
sg757
I748
sg525
I516
sg660
I651
sg86
I77
sg774
I765
sg172
I163
sg613
I604
sg294
I285
sg423
I414
sg587
I578
sg351
I342
sg509
I500
sg524
I515
sg124
I115
sg235
I226
sg211
I202
sg586
I577
sg451
I442
sg251
I242
sg480
I471
sg107
I98
sg767
I758
sg422
I413
sg330
I321
sg655
I646
sg406
I397
sg600
I591
sg607
I598
sg708
I699
sg301
I292
sg449
I440
sg769
I760
sg141
I132
sg754
I745
sg715
I706
sg403
I394
sg331
I322
sg149
I140
sg687
I678
sg202
I193
sg353
I344
sg487
I478
sg276
I267
sg523
I514
sg786
I777
sg468
I459
sg502
I493
sg305
I296
sg776
I767
sg35
I26
sg304
I295
sg621
I612
sg622
I613
sg623
I614
sg719
I710
sg462
I453
sg618
I609
sg59
I50
sg182
I173
sg288
I279
sg763
I754
sg573
I564
sg703
I694
sg517
I508
sg710
I701
sg574
I565
sg387
I378
sg551
I542
sg118
I109
sg656
I647
sg700
I691
sg151
I142
sg536
I527
sg214
I205
sg701
I692
sg718
I709
sg190
I181
sg345
I336
sg515
I506
sg588
I579
sg358
I349
sg666
I657
sg357
I348
sg726
I717
sg781
I772
sg650
I641
sg456
I447
sg247
I238
sg446
I437
sg560
I551
sg543
I534
sg635
I626
sg629
I620
sg101
I92
sg365
I356
sg604
I595
sg577
I568
sg566
I557
sg82
I73
sg374
I365
sg336
I327
sg720
I711
sg157
I148
sg450
I441
sg364
I355
sg471
I462
sg196
I187
sg164
I155
sg376
I367
sg503
I494
sg72
I63
sg302
I293
sg424
I415
sg788
I779
sg275
I266
sg186
I177
sg223
I214
sg582
I573
sg671
I662
sg654
I645
sg647
I638
sg728
I719
sg714
I705
sg643
I634
sg617
I608
sg369
I360
sg638
I629
sg737
I728
sg644
I635
sg764
I755
sg194
I185
sg224
I215
sg631
I622
sg489
I480
sg544
I535
sg311
I302
sg47
I38
sg580
I571
sg572
I563
sg25
I16
sg512
I503
sg326
I317
sg558
I549
sg171
I162
sg608
I599
sg62
I53
sg744
I735
sg657
I648
sg589
I580
sg772
I763
sg155
I146
sg736
I727
sg550
I541
sg167
I158
sg273
I264
sg496
I487
sg162
I153
sg332
I323
sg334
I325
sg383
I374
sg434
I425
sg253
I244
sg412
I403
sg410
I401
sg197
I188
sg200
I191
sg309
I300
sg435
I426
sg337
I328
sg476
I467
sg240
I231
sg52
I43
sg413
I404
sg729
I720
sg340
I331
sg584
I575
sg427
I418
sg542
I533
sg773
I764
sg50
I41
sg630
I621
sg578
I569
sg601
I592
sg55
I46
sg175
I166
sg522
I513
sg519
I510
sg430
I421
sg419
I410
sg238
I229
ssS'separator'
p795
S'='
sS'sparse'
p796
I01
sb.