ccopy_reg
_reconstructor
p1
(csklearn.feature_extraction.dict_vectorizer
DictVectorizer
p2
c__builtin__
object
p3
NtRp4
(dp5
S'vocabulary_'
p6
(dp7
S'w-2=civilian'
p8
I262
sS'w-1=in'
p9
I229
sS'w+2=development'
p10
I175
sS'w-2=opposition'
p11
I282
sS'dobj=question'
p12
I67
sS'advmod=though'
p13
I10
sS'w-2=state'
p14
I291
sS'w+2=crackdown'
p15
I169
sS'w-2=intelligence'
p16
I273
sS'w-2=cause'
p17
I261
sS'w+1=murder'
p18
I139
sS'dobj=censorship'
p19
I42
sS'w+2=continuing'
p20
I167
sS'w+2=deliberate'
p21
I173
sS'w+2=censorship'
p22
I164
sS'w-1=either'
p23
I224
sS'xcomp=use'
p24
I308
sS'w+2=or'
p25
I194
sS'w-2=no'
p26
I278
sS'xcomp=necessary'
p27
I305
sS'w+2=of'
p28
I193
sS'w+1=impose'
p29
I135
sS'nsubj=Delhi'
p30
I83
sS'w-2=coup'
p31
I263
sS'conj=follow'
p32
I29
sS'w+1=slavery'
p33
I143
sS'dobj=crackdown'
p34
I43
sS'w+2=reason'
p35
I201
sS'nsubjpass=restriction'
p36
I109
sS'dobj=detention'
p37
I47
sS'w-2=use'
p38
I299
sS'w-1=group'
p39
I226
sS'dobj=action'
p40
I38
sS'dobj=mission'
p41
I57
sS'w-2=would'
p42
I301
sS'dobj=use'
p43
I74
sS'w+2=legalize'
p44
I188
sS'w+2=those'
p45
I203
sS'nsubj=income'
p46
I93
sS'w+1=whatever'
p47
I151
sS'nsubj=cause'
p48
I88
sS'nsubj=who'
p49
I104
sS'w-1=not'
p50
I236
sS'advmod=unnecessarily'
p51
I11
sS'w-2=Bush'
p52
I244
sS'dobj=tax'
p53
I72
sS'w-1=alone'
p54
I219
sS'w-2=they'
p55
I295
sS'nsubjpass=bombing'
p56
I107
sS'w-2=Iraq'
p57
I247
sS'w-2=Europe'
p58
I245
sS'prep=by'
p59
I114
sS'partmod=speak'
p60
I113
sS'w+2=nation'
p61
I192
sS'dobj=decision'
p62
I45
sS'w+1=that'
p63
I145
sS'dobj=loss'
p64
I56
sS'w-1=Google'
p65
I215
sS'w+2=innocent'
p66
I185
sS'dobj=#PRP#'
p67
I36
sS'nsubj=government'
p68
I91
sS'ccomp=cause'
p69
I22
sS'w-2=fairly'
p70
I269
sS'dobj=act'
p71
I37
sS'nsubj=Koran'
p72
I86
sS'w+2=inhumane'
p73
I184
sS'w+2=war'
p74
I209
sS'dobj=presence'
p75
I66
sS'w-1=can'
p76
I222
sS'w-2=knighthood'
p77
I275
sS'aux=do'
p78
I15
sS'dobj=increase'
p79
I53
sS'w-1=government'
p80
I225
sS'w-1=must'
p81
I235
sS'dobj=cut'
p82
I44
sS'w+1=shut'
p83
I141
sS'nsubj=that'
p84
I102
sS'dobj=agreement'
p85
I39
sS'w+1=why'
p86
I152
sS'w-1=again'
p87
I217
sS'w-2=attack'
p88
I255
sS'nsubjpass=attack'
p89
I106
sS"w-2=''"
p90
I240
sS'advmod=just'
p91
I8
sS'w-1=and'
p92
I220
sS'prep=over'
p93
I118
sS'dobj=slavery'
p94
I69
sS'w+1=in'
p95
I136
sS'w+2=action'
p96
I157
sS'w+2=as'
p97
I161
sS'w-2=,'
p98
I242
sS'w-1=Iraq'
p99
I216
sS'w-2=.'
p100
I243
sS'prep=with'
p101
I120
sS'dobj=effort'
p102
I51
sS'dobj=disinterest'
p103
I49
sS'w+1=he'
p104
I134
sS'w+2=military'
p105
I190
sS'w+1=disinterest'
p106
I132
sS'w+1=what'
p107
I150
sS'w+2=decision'
p108
I171
sS'dep=look'
p109
I34
sS'w+2=loan'
p110
I189
sS'w+2=impending'
p111
I182
sS'w+2=down'
p112
I176
sS'nsubj=volume'
p113
I103
sS'conj=serve'
p114
I31
sS'dobj=force'
p115
I52
sS'nsubj=mistake'
p116
I99
sS'w-1=all'
p117
I218
sS'w+1=continue'
p118
I130
sS'w+2=we'
p119
I210
sS'w-2=not'
p120
I279
sS'w+2=question'
p121
I200
sS'dobj=invasion'
p122
I54
sS'w-1=could'
p123
I223
sS'w-1=be'
p124
I221
sS'w+2=view'
p125
I208
sS'dobj=wrongdoing'
p126
I78
sS'w-2=in'
p127
I271
sS'nsubj=leader'
p128
I96
sS'w+2=israeli'
p129
I186
sS'w+2=fuel'
p130
I179
sS'w-2=New'
p131
I250
sS'w-1=mistake'
p132
I234
sS'dobj=violence'
p133
I76
sS'w-1=to'
p134
I238
sS'w-1=Bush'
p135
I213
sS'parataxis=want'
p136
I112
sS'w+1=act'
p137
I127
sS'nsubj=name'
p138
I100
sS'nsubj=Google'
p139
I84
sS'w+2=own'
p140
I195
sS'advmod=when'
p141
I12
sS'w-2=give'
p142
I270
sS'w-1=,'
p143
I211
sS'w+1=Internet'
p144
I124
sS'dobj=trade'
p145
I73
sS'dobj=optimism'
p146
I61
sS'w-2=nothing'
p147
I280
sS'dobj=statement'
p148
I70
sS'dobj=deployment'
p149
I46
sS'advmod=alone'
p150
I5
sS'nsubjpass=terror'
p151
I110
sS'xcomp=endanger'
p152
I303
sS'w-1=investigation'
p153
I230
sS'dobj=taking'
p154
I71
sS'ccomp=say'
p155
I24
sS'nsubjpass=which'
p156
I111
sS'w+2=continued'
p157
I166
sS'w-2=ongoing'
p158
I281
sS'w+2=u.s-led'
p159
I205
sS'w-2=and'
p160
I252
sS'w+2=presence'
p161
I199
sS'dobj=view'
p162
I75
sS'nsubj=Bush'
p163
I82
sS'nsubjpass=reaction'
p164
I108
sS'w+2=in'
p165
I183
sS'nsubj=discovery'
p166
I90
sS'w-1=he'
p167
I227
sS'nsubj=Head'
p168
I85
sS'w+2=it'
p169
I187
sS'dobj=reason'
p170
I68
sS'w-2=ruling'
p171
I288
sS'w+2=attack'
p172
I162
sS'w-2=Mr.'
p173
I249
sS'w-2=appear'
p174
I253
sS'conj=cover-up'
p175
I28
sS'dobj=movement'
p176
I58
sS'w+2=cover-up'
p177
I168
sS'w-1=market'
p178
I233
sS'auxpass=be'
p179
I19
sS'aux=can'
p180
I13
sS'complm=that'
p181
I25
sS'xcomp=impose'
p182
I304
sS'complm=whether'
p183
I26
sS'w+1=suicide'
p184
I144
sS'w-2=distance'
p185
I266
sS'advmod=long'
p186
I9
sS'w+1=the'
p187
I146
sS'w+2=deployment'
p188
I174
sS'w-2=Koran'
p189
I248
sS'nsubj=civilian'
p190
I89
sS'nsubjpass=Convention'
p191
I105
sS'w-2=to'
p192
I296
sS'dep=order'
p193
I35
sS'w+2=mission'
p194
I191
sS'ccomp=do'
p195
I23
sS'conj=legalize'
p196
I30
sS'w+1=use'
p197
I148
sS'w+2=content'
p198
I165
sS'advcl=be'
p199
I0
sS'dobj=people'
p200
I63
sS'w-2=discovery'
p201
I265
sS'w+1=during'
p202
I133
sS'dobj=arrest'
p203
I40
sS'dobj=murder'
p204
I59
sS'xcomp=continue'
p205
I302
sS'w+1=by'
p206
I129
sS'w-2=try'
p207
I298
sS'w-2=always'
p208
I251
sS'w+2=be'
p209
I163
sS'w+1=they'
p210
I147
sS'w-2=seek'
p211
I289
sS'nsubj=law'
p212
I95
sS"w+2='s"
p213
I153
sS'xcomp=send'
p214
I307
sS'w-2=backing'
p215
I257
sS'w+2=plan'
p216
I197
sS'w-2=likely'
p217
I276
sS'w+1=send'
p218
I140
sS'w-2=some'
p219
I290
sS'prep=in'
p220
I116
sS'advmod=how'
p221
I7
sS'aux=would'
p222
I18
sS'w+1=its'
p223
I138
sS'dobj=development'
p224
I48
sS'xcomp=push'
p225
I306
sS'w-2=be'
p226
I258
sS'w-2=wish'
p227
I300
sS'advcl=condone'
p228
I1
sS'w+1=it'
p229
I137
sS'nsubj=#PRP#'
p230
I81
sS'w-2=do'
p231
I267
sS'w+1=Engin'
p232
I123
sS'w+1=U.S.'
p233
I125
sS'prep=during'
p234
I115
sS'cc=and'
p235
I20
sS'w-2=terror'
p236
I292
sS'dobj=policy'
p237
I65
sS'w-1=Delhi'
p238
I214
sS'prep=to'
p239
I119
sS'w+1=continued'
p240
I131
sS'w+2=any'
p241
I159
sS'aux=to'
p242
I17
sS'w-2=bomber'
p243
I259
sS'w-2=effort'
p244
I268
sS'w+2=effort'
p245
I177
sS'w+2=arrest'
p246
I160
sS'w-2=that'
p247
I293
sS'w-2=datum'
p248
I264
sS'conj=spend'
p249
I32
sS'w-1=who'
p250
I239
sS'nsubj=market'
p251
I98
sS'w+2=use'
p252
I207
sS'w+1=and'
p253
I128
sS'w-2=can'
p254
I260
sS'dobj=part'
p255
I62
sS'dobj=domination'
p256
I50
sS'dobj=plan'
p257
I64
sS'w-2=order'
p258
I283
sS'aux=could'
p259
I14
sS'nsubj=knighthood'
p260
I94
sS'w-1=leader'
p261
I231
sS'w-2=God'
p262
I246
sS'w-2=the'
p263
I294
sS'w+1=-rrb-'
p264
I122
sS'w+2=cut'
p265
I170
sS'w-2=region'
p266
I287
sS'w-2=policy'
p267
I285
sS'w+2=policy'
p268
I198
sS'w+2=.'
p269
I154
sS'nsubj=presence'
p270
I101
sS'w-2=tone'
p271
I297
sS'w-2=just'
p272
I274
sS'w-1=help'
p273
I228
sS'advmod=either'
p274
I6
sS'neg=not'
p275
I80
sS'advmod=again'
p276
I3
sS'w-2=market'
p277
I277
sS'dobj=operation'
p278
I60
sS'dobj=war'
p279
I77
sS'aux=must'
p280
I16
sS'advmod=all'
p281
I4
sS'w+2=he'
p282
I180
sS'dep=as'
p283
I33
sS'dobj=attack'
p284
I41
sS'w-2=people'
p285
I284
sS'w-2=ask'
p286
I254
sS'w+2=act'
p287
I156
sS'w+2=time'
p288
I204
sS'w+1=violence'
p289
I149
sS'w+2=defense'
p290
I172
sS'w+2=additional'
p291
I158
sS'dobj=loan'
p292
I55
sS'w+2=part'
p293
I196
sS'cc=or'
p294
I21
sS'w+1=a'
p295
I126
sS'w+2=unpopular'
p296
I206
sS'nsubj=group'
p297
I92
sS'nsubj=answer'
p298
I87
sS'w+2=extended'
p299
I178
sS'conj=be'
p300
I27
sS'w+2=the'
p301
I202
sS'w-2=income'
p302
I272
sS'prep=without'
p303
I121
sS'w-2=attempt'
p304
I256
sS'prep=on'
p305
I117
sS'w-1=man'
p306
I232
sS'w-1=that'
p307
I237
sS'w-1=-lrb-'
p308
I212
sS'w-2=press'
p309
I286
sS'w+2=high'
p310
I181
sS'nsubj=man'
p311
I97
sS'advcl=way'
p312
I2
sS'w+2=a'
p313
I155
sS'w+1=slaughtering'
p314
I142
sS'mark=in'
p315
I79
sS"w-2='s"
p316
I241
ssS'dtype'
p317
cnumpy
float64
p318
sS'feature_names_'
p319
(lp320
g199
ag228
ag312
ag276
ag281
ag150
ag274
ag221
ag91
ag186
ag13
ag51
ag141
ag180
ag259
ag78
ag280
ag242
ag222
ag179
ag235
ag294
ag69
ag195
ag155
ag181
ag183
ag300
ag175
ag32
ag196
ag114
ag249
ag283
ag109
ag193
ag67
ag71
ag40
ag85
ag203
ag284
ag19
ag34
ag82
ag62
ag149
ag37
ag224
ag103
ag256
ag102
ag115
ag79
ag122
ag292
ag64
ag41
ag176
ag204
ag278
ag146
ag255
ag200
ag257
ag237
ag75
ag12
ag170
ag94
ag148
ag154
ag53
ag145
ag43
ag162
ag133
ag279
ag126
ag315
ag275
ag230
ag163
ag30
ag139
ag168
ag72
ag298
ag48
ag190
ag166
ag68
ag297
ag46
ag260
ag212
ag128
ag311
ag251
ag116
ag138
ag270
ag84
ag113
ag49
ag191
ag89
ag56
ag164
ag36
ag151
ag156
ag136
ag60
ag59
ag234
ag220
ag305
ag93
ag239
ag101
ag303
ag264
ag232
ag144
ag233
ag295
ag137
ag253
ag206
ag118
ag240
ag106
ag202
ag104
ag29
ag95
ag229
ag223
ag18
ag218
ag83
ag314
ag33
ag184
ag63
ag187
ag210
ag197
ag289
ag107
ag47
ag86
ag213
ag269
ag313
ag287
ag96
ag291
ag241
ag246
ag97
ag172
ag209
ag22
ag198
ag157
ag20
ag177
ag15
ag265
ag108
ag290
ag21
ag188
ag10
ag112
ag245
ag299
ag130
ag282
ag310
ag111
ag165
ag73
ag66
ag129
ag169
ag44
ag110
ag105
ag194
ag61
ag28
ag25
ag140
ag293
ag216
ag268
ag161
ag121
ag35
ag301
ag45
ag288
ag159
ag296
ag252
ag125
ag74
ag119
ag143
ag308
ag135
ag238
ag65
ag99
ag87
ag117
ag54
ag92
ag124
ag76
ag123
ag23
ag80
ag39
ag167
ag273
ag9
ag153
ag261
ag306
ag178
ag132
ag81
ag50
ag307
ag134
ag250
ag90
ag316
ag98
ag100
ag52
ag58
ag262
ag57
ag189
ag173
ag131
ag208
ag160
ag174
ag286
ag88
ag304
ag215
ag226
ag243
ag254
ag17
ag8
ag31
ag248
ag201
ag185
ag231
ag244
ag70
ag142
ag127
ag302
ag16
ag272
ag77
ag217
ag277
ag26
ag120
ag147
ag158
ag11
ag258
ag285
ag267
ag309
ag266
ag171
ag211
ag219
ag14
ag236
ag247
ag263
ag55
ag192
ag271
ag207
ag38
ag227
ag42
ag205
ag152
ag182
ag27
ag225
ag214
ag24
asS'separator'
p321
S'='
sS'sparse'
p322
I01
sb.